(lp0
(lp1
S'"[Microfluidic Chip] Level 4 of 7"'
p2
aS'((((((..((((..(((.....))).))))..((((..((((....))))))))..((((((...))).)))..))))))'
p3
aS'CGCAUGAACUAGAAGUGAAUAACACACUAGAACGCGAAGCGCGAUAGCGCCGCGAACACCGCAUAGCGAGUGAACAUGCG'
p4
aS'oooooooooooooooooooooooooooooooooooooooooooooooooooooooooooooooooooooooooooooooo'
p5
aa(lp6
S'"[Microfluidic Chip] Level 4 of 7"'
p7
aS'((((((..((((..(((.....))).))))..((((..((((....))))))))..((((((...))).)))..))))))'
p8
aS'GUUAGCAACGCGGAGUAAAAAGUGCACGCGAACUGCGACUGCGAAAGUAGGUAGAAGAGGUCAUAGACACUCAAGCUAGC'
p9
aS'oooooooooooooooooooooooooooooooooooooooooooooooooooooooooooooooooooooooooooooooo'
p10
aa(lp11
S'"[Microfluidic Chip] Level 4 of 7"'
p12
aS'((((((..((((..(((.....))).))))..((((..((((....))))))))..((((((...))).)))..))))))'
p13
aS'AUAGCCAAGCGUGGGCGGGAUACGCAACGCAACAGGAACUGUGAUAAUAGCUUGAACCUCGCAUAGCGAAGGAAGGCUAU'
p14
aS'oooooooooooooooooooooooooooooooooooooooooooooooooooooooooooooooooooooooooooooooo'
p15
aa(lp16
S'"Project : Test of RNAfold (4)"'
p17
aS'.((((..(((....)))..((((....(((.((((...))))..)))..))))..)))).'
p18
aS'AGCUCAAGAGGAAACUCAAGACCGAAGGACAGUGCAUAGCACGGGUCAAGGUCAAGAGCA'
p19
aS'oooooooooooooooooooooooooooooooooooooooooooooooooooooooooooo'
p20
aa(lp21
S'"Project : Long Leg"'
p22
aS'...((((.((...(...)...))))))...'
p23
aS'AGAGCUGCGAAUGCAUAGAUGUCCAGCACC'
p24
aS'oooooooooooooooooooooooooooooo'
p25
aa.