(lp0
(lp1
S'Simple Hairpin'
p2
aS'GAUACAAAAAAGUAUC'
p3
aF1.0
aa(lp4
S'Arabidopsis Thaliana 6 RNA - Difficulty Level 0'
p5
aS'GAUAUAGAGAUGAGAAAAAAAAAAACUCGAUAUAUCUUGAUAUAUAUAUAUAUAUACAAAGAUACAAAAAAGUAUCAGUAUAUAAUAUAUAUAUAUCUCGAUAUAUCAAUUAUAUC'
p6
aF1.0
aa(lp7
S'Prion Pseudoknot - Difficulty Level 0'
p8
aS'GAGAUCAGAUCAAAAGAUCGAUACUCAAAAAAAAAA'
p9
aF1.0
aa(lp10
S'Human Integrated Adenovirus - Difficulty Level 0'
p11
aS'GAUGAUGAUAUGGCGGCUAUAUAAAAAAAAAUGUUGUUGGGACAUAACCGGCAUAUUAGAAGCGAUGGAUAUACAAAAAAAGGUAUAUCUAUAAAACGCAAUAUGGAAGAUUGUAAAACCCAGUGCGAUAACGAAAAAAGAUAUCCAGCCAAAAAAAAAAUUAUAGCAGUCAAAAAUAUCAUAAACAUCAAA'
p12
aF0.9895833333333334
aa(lp13
S'The Gammaretrovirus Signal - Difficulty Level 0'
p14
aS'GAGAGAGGAGGUCAAAAGACUUCAGCGCGAAAAAGAACAAGAGACGUAAUGAUGAAAAUCAUACAAUACGCUCGUUCGAGGUUUUUCUAAUGAGAAACCGA'
p15
aF1.0
aa(lp16
S'Saccharomyces Cerevisiae - Difficulty Level 0'
p17
aS'GGCAAACAUCGAAAAAAAGCGAGAGCAUGAGGGAGCGGGCGCCGGAUCUAGAGAAAAAAUCUGGGUUUGUCAAAGCCUAGAUAAUGUAAAAAAAAGUAUUCAAAAAAAAAAAAAAAUUGCACUCUAAGGAAAAAACUUAGGAGACUAAAAAGUUAUUCAAGAUCGAAAAAAAGAGCAUAGACAAAAAAAGUCUAUAGAUUUAGGAAAAAAACUUAAGGACAGAGAAAUAUAUAAAAGAUCGAAAAAAAGAUCCUAGUCUAAAAAUGACUAGACAUAUCGUAAAAAAGGCGAUUUAUGUGGAAGGAUAUACAAACACUAAAAAACGUGUAGAGGUGAAAAAAAUCUCUAGAUAUGGCUAAAAAUGCCAUGUAUAUCAAAA'
p18
aF0.8970976253298153
aa(lp19
S'Fractal 2'
p20
aS'AAAAACACACAUGAAAAAUGAUAUUGAUGAGGAAAAAAAAAACUUCGAGUGCGAAAAAAAAAGCACAAUUGCAAAAAAAAAGGCGAAGCAAUAUCAUUGAAGAUGUAUACAAAGAGCAAAAAAAAAAGCUCAAGAGCGAAAAAAAAAGCUCAGGACCAAAAAAAAAAGGUCAGUGUAUAUAUCAAAGAUUGCGAAGGCAGGCAAAAAAAAAAGCUUAAGAGGAAAAAAAAAAUCUCAAGAUCGAAAAAAAAAGGUCAACUUUGUAAUCAAACAUGUGUGAAAAA'
p21
aF1.0
aa(lp22
S'G-C Placement'
p23
aS'GAUCAAAGAUCG'
p24
aF1.0
aa(lp25
S'The Sun'
p26
aS'AAGCGUCAGAUAAAAUCUAAGACCUUAAACAUAGACAUACCAAGUAUAAGUCAUGGAGUGCAGUCACACAAAGUAUAAGACGCGAAUCACAGACAGACAAGCAGUGAGUCGUGUAUCACAGUGCUACAAGGCAGAACACCUACAGCUCAGGGCUACAAGGUAAAACCCGAGAAAUAUAGGGAUAGAAGUUAUAACCCACCAAAGCCAGAUAUUCAAGGAAGAAAUCGGUAAACACAGGGAUUUGAAAAAUAACCCGUG'
p27
aF0.9612403100775194
aa(lp28
S'Frog Foot'
p29
aS'AAAAAAAAAAGAGCUAAUGUUUGCGCUAAUGUGUCACCGAAGGUG'
p30
aF1.0
aa(lp31
S'InfoRNA test 16'
p32
aS'GAUAUCGGAGAUAUCAAAAGAUAUACUACGGAUAUC'
p33
aF1.0
aa(lp34
S'Mat - Martian 2'
p35
aS'GAUCAAAAGAUCAAGGAUAUACAAGAUAUACAAAAAAAGUAUAUCGUAUAUCAAAGUUAUAUGAAAAAUGAUAUAUAGAUAUACGAAAAAAGUAUAUCAUAUAUCUAAGAUAUAGAUAUAUGAAAAAAACAUAUAUACUAUAUCAAAAAGCAUGUAACAAAGAUAUAGAUAUAUGAAAAAAACAUAUAUAACUAUAUCGAAGGCCAAAAGGCU'
p36
aF1.0
aa(lp37
S'square'
p38
aS'GAUAUACCUGAUCCUGAUACCUGAUCAAAGAUCAGAAAAGUAUCAGAAAAGAUCAGAAAAGUAUAUC'
p39
aF1.0
aa(lp40
S'Six legd turtle 2'
p41
aS'AAAAAGGAAAGGAAAACAAAGCCUAAUUUAAACUUAAUGGGAAGUAAAACUAAAUGGAAACGAAACUAAAAGGAAAACGAAAAAAAAAAAAAAAAAAA'
p42
aF0.9591836734693877
aa(lp43
S'Small and Easy 6'
p44
aS'CACAGGAAAAUUAAUCGAAAAAAAAAAGUG'
p45
aF0.9333333333333333
aa(lp46
S'Fractile'
p47
aS'AAAAAAAAAAAGGUGAAAGGAAUGAAAAGGUAAUGAAAACAACUGUAAUUGGAAGAAAGUAAAAAUAAAACUAAAAAAGUUAAAAAAAAAAAAAAAAAAAAAAAA'
p48
aF0.9619047619047619
aa(lp49
S'Six legd Turtle'
p50
aS'AAAAUUGGAAAUCAAAGGAAAAAUGUAAUAGAAAGACUAAAGAUAAAUCGAAAGAAAAGAGAAAACGAAAAUUGAAAGGAAAAGAUAAAAAAAAAAAAAAAAAAA'
p51
aF0.9619047619047619
aa(lp52
S'snoRNA SNORD64'
p53
aS'GAUAUGAAAAAGACAAAAGACAAAGAUACAAAAAAAAAAAAAGUAUCGAAAGUCAAGUCAACAUAUC'
p54
aF1.0
aa(lp55
S'Chalk Outline'
p56
aS'AAAAAGAUCAGAGACAAAAGUACUCAAUGAGACAAAAGUCCAUAGAUGACAAAAGUACAUCAGCAUCAAAAGAUAGCGAUCAAAAAAAAAAAAAAAAAAAAAAA'
p57
aF1.0
aa(lp58
S'InfoRNA bulge test 9'
p59
aS'GAUAUACAGAGAGAGAUAUACAAAAGUAUAUCCCCGUAUAUC'
p60
aF1.0
aa(lp61
S'Tilted Russian Cross'
p62
aS'AAAAAGCCCCUUCGUAAGGAGCACGAGACCAAAGGGUCGUUAGAAAGCUGGCAGACGGAAACGUCCGUGGCUGGAAACAGUGGGCGAAAAAAAAAAAAAAAAAAA'
p63
aF1.0
aa(lp64
S'This is ACTUALLY Small And Easy 6'
p65
aS'GAAAAAAAAAAAAAAAAAAAAAAAAAAAAAAAAAAAAAAAAAAAAAAAAAAAAAAAAAAAAAAAAAAAAAAAAAAAAAAAAAAAAAAAAAAAAAAAAAAAAAAAAAAAAAAAAAAAAAAAAAAAAAAAAAAAAAAAAAAAAAAAAAAAAAAAAAAAAAAAAAAAAAAAAAAAAAAAAAAAAAAAAAAAAAAAAAAAAAAAAAAAAAAAAAAAAAAAAAAAAAAAAAAAAAAAAAAAAAAAAAAAAAAAAAAAAAAAAAAAAAAAAAAAAAAAAAAAAAAAAAAAAAAAAAAAAAAAAAAAAAAAAAAAAAAAAAAAAAAAAAAAAAAAAAAAAAAAAAAAAAAAAAAAAAAAAAAAAAAAAAAAAAAAAAAAAAAAAAAAAAAAAAAAAAAAAAAAAAAA'
p66
aF1.0
aa(lp67
S'Shortie 4'
p68
aS'GCAAAAGCAGGGAAACC'
p69
aF1.0
aa(lp70
S'Shape Test'
p71
aS'AAAAACGGAUCAAGAUACAAAAAAAAGUAUCAAGCCAGACUGAUACAAAAAGUAUCGGAUCAAAGGAUCUGUCGGCAAGAUCGGAAAAAAAAAAAAAAAAAAAA'
p72
aF1.0
aa(lp73
S'The Minitsry'
p74
aS'GAGAAAAGGCCAAAAACGAAAUAGCACAAAGGGCGAAAAAAAACGCAGUGAUCGGGGUACUC'
p75
aF1.0
aa(lp76
S'stickshift'
p77
aS'AAGAUAUCCCAAAAAGGAGAUAUCAA'
p78
aF1.0
aa(lp79
S'U'
p80
aS'AAAAAGAUACAGAGAGCAGAGAUAUAUACAAAAGUAUAUAUCCGCCCGUAUCAAAAA'
p81
aF1.0
aa(lp82
S'Still Life (Sunflower In A Vase)'
p83
aS'AAAGAUCAAUUAUCGAAAAGAUAGAACUACGGAACGUAGAGUGGUAAAAAACAUCGAACUGGGGAACCCAGAACUAGCAAAAAGCUGGGACUUGCAAAAAGCAAAGGAUAUCUAUAUGUUUAAAUAUUCGAGAUAAAAAAAUCUCAGGUAGAAAAAAAAAAAAAGAUGAAAAAAAAAAAAAAAAAAAAAAAAAAAAAAAAAAAAAACCCCAUCAAAAAAAAAAAAACUAUCGUUUGGAAACAAGCAGGAUGUUUAGACAUAUAGGUAUUAAAAUACAAAAAGUAUUGUUGUGAAAAAAACCUCAGCAGGCAAAAGGCCAGAUCUCCCAAAAGGGGAGUAUAGGCGAAAGCCUGAACUUCAAAAAAGGGGGGGAUCAAA'
p84
aF0.9603174603174603
aa(lp85
S'Quasispecies 2-2 Loop Challenge'
p86
aS'AAAAAGAGUGAGCUAUAGUAAAGACUAGUGCUCAGAUAGGCGAAGAAUAUCGAUUCAGAUUGUUAAAAGAACUUUAGGAGUGCUCAAAAAAAAAAAAAAAAAAAA'
p87
aF1.0
aa(lp88
S'Corner bulge training'
p89
aS'AGAUAUCGAUACAAAGUAUCAAAAGAUAUCA'
p90
aF1.0
aa(lp91
S'Spiral'
p92
aS'AAAAAGAUCAGAUAUCAGACAGAUACAGAUCAGAUCAGCAGCAGCAGCAGCAGCAAAAAGCGCGCGCGCGCGAUCGAUCGUAUCGUCGAUAUCGAUCAAAAA'
p93
aF1.0
aa(lp94
S'InfoRNA bulge test'
p95
aS'AAAAAAAAAAAAAAAAAAAAAAAAAAAAAGACCAAAAAAGGAGGAAAGGAGGAAGGACGUGGCCUGGGAUAACUUCACUUGGACCUAGUACCGAAUUACCGAAAACUACCAAAAAAGGAUCA'
p96
aF1.0
aa(lp97
S'Worm 1'
p98
aS'AAAAAAAGGCUGAGAGAGAACGUGAAAUCGCGAUUGAGUGGUGGG'
p99
aF0.9555555555555556
aa(lp100
S'just down to 1 bulge'
p101
aS'AAAAAGGACAGAUACAAAAGUAUCAGACAAAAGUCAGUACCAAAAGAUCAGACAAAAGUCAGACAAAAGUCAGAUCAAAAAAAAAAAAAAAAAAAA'
p102
aF1.0
aa(lp103
S'Iron Cross'
p104
aS'UUACAGAGAAAGGCACACAAAGUGGGACAAAAGUCAGCCAAAGGCACACAAAAGUGAGACAAAGUCAGCCAAAUGCACACAAAAGUGAGACAAAGUCAGCAAAACUCAGGCAAAGCCAGUGUA'
p105
aF1.0
aa(lp106
S'loops and stems'
p107
aS'AAAAAGAUAUACAAAGAUCAAAGAUCAAAGCUCAAAAAAAAAGAUACAAAAAAAAAAAAGUAUCAAAGAGCGAAAGAGCAAAAAAAAAAGCUCAAAGAUCAAAGACAAAAAAAAGUCAAAGAUCAAGCAAAAAAGCGAAGUAUAUCAAAAA'
p108
aF1.0
aa(lp109
S'Water Strider'
p110
aS'AAAAGUGGUGGUGCUAGACAAAAAAGUGAUUGAAAAGUCUAAGGCGUACAAGAAAGCUUGUUAAAGGCCAGUUGCUAGGGUGAAAAAAAAAAAAAAAAAAAAA'
p111
aF0.941747572815534
aa(lp112
S'The Turtle(s) Move(s)'
p113
aS'AAAGCAAAACCAGAGGAGGCAUACUAAAAAAAUGUAUGCCUCAAACGGGCAAAAAGAACGGACACCUAAAAGGGAGGCUAGGAAAAAAACCUGGAAAAGCCAAUUAAAAAAAUCAGACGAAAAAUUGAAAAAUAGCCAAAAAAAGGUUAUAAAUAACGAAAGUUUAAAGCUUGGCAAAUGACAAAAAAAGUCAACGUGAAAAAAAAUGGAGGUAUCAAAAAAGGUACAAAGGUUAAAAGAACGAAAUCGAGAAAAAAAAAUGAAAACGAGAGAAAAAAAUGGAGAUCCCUUCAAAAAAAAAAGAAGCAAAAAAGGC'
p114
aF0.9746835443037974
aa(lp115
S'Adenine'
p116
aS'GAUACAGCUAUCAGAUAUCAGAUAUCAGAUAUGAGAUAUCAAAAGAUAUCAAAAAAGAUAUCAGAUAUCGGAUACAAACAUAUACAAAGUAUAUGGUAUCACAUAUCAGAUAGAUAGAUCAAAGAUCUAUAAACUAUCAGAUAUCAAAAGAUAUCAAAAGAUAGCAAAAGUAUC'
p117
aF1.0
aa(lp118
S'Tripod5'
p119
aS'AGGGUGGAUAUAAAUUAUCGAGCUAAAUGCUCCAUCAA'
p120
aF1.0
aa(lp121
S'Shortie 6'
p122
aS'GCGAAAGUAGAGAAAUCACCAAACGGGGCGAAAGC'
p123
aF1.0
aa(lp124
S'Runner'
p125
aS'AAAAAGAUUAUCUCGAAAAGUACAAAGUAGAGAGAAAAUCCUAGGGUGCUAUGCGAAACCUGGAAACUAUGUUAAAAUUUAGAAAGUACUACGAUAAAAAUUGAUGGGAUUGAAAA'
p126
aF0.9482758620689655
aa(lp127
S'Recoil'
p128
aS'AAAAAGAUACAAGCAAGCAAGACAAGACAAGCAAGCAAAGCAGCAGUCAGUCAGCAGCAGUAUCAAAAAAAAAAAAAAAAAAAAA'
p129
aF1.0
aa(lp130
S'[CloudBeta] An Arm and a Leg 1.0'
p131
aS'AAAAAGACAGAGACAAAAGUACUCGACAGCAAAAGCGUCAGUCAAAAAAAAAAAAAAAAAAAA'
p132
aF1.0
aa(lp133
S'[CloudBeta] 5 Adjacent Stack Multi-Branch Loop'
p134
aS'GGUGGUCUAGAAAUAGAGGGGCAAGGGCCCCGCCAGUAAUCUGGCGACCAAAUGGUCCUAUCA'
p135
aF1.0
aa(lp136
S'Triple Y'
p137
aS'AAAAAGAUCUAACGUGUUAAUGAACGUUGUAAUUAACGAUUGAUUGAUCAAAGGAUUCUUCGAAAGAAUGACCUAUCAAAAAAAAAAAAAAAAAAAA'
p138
aF0.9175257731958762
aa(lp139
S'Misfolded Aptamer'
p140
aS'CAGAUAAAAAUUUAGAAACUAUGAUAAAGCUGUCGGGCCGAAAAAUUCUG'
p141
aF0.92
aa(lp142
S'Flower power'
p143
aS'AAAAAUAUCUAUAACGCAUAAAAGCGAACUAUGUUAAAGCUUAAGGAGCAAAAUCAAGGAUCGCUUAAGUCAAGGACAGAUGAAAAAAAAAAAAAAAAAAAA'
p144
aF0.8431372549019608
aa(lp145
S'Kudzu'
p146
aS'AAAAGGAGAGGACAGAGAUAGGAAUGCUAGGCACACCGCAUUACGAAAGGAUAAUAGCUAUUUUGGAAAUUACCAAUUUUUAAAAAAAAAAAAAAAAAAAA'
p147
aF0.9801980198019802
aa(lp148
S'"1,2,3and4bulges"'
p149
aS'AAAGUUGAUACCGCGAUAGAGGAAUCGGGGACUAAUGUUGGUCGUUAGAGUCGUGGAGAAAAAAGACACCUAAAUAGGAGGAAGGAAAAAAAAAAAAAAAAAAAA'
p150
aF0.9047619047619048
aa(lp151
S'medallion'
p152
aS'CAUAUCGUUACGCAAAAGCGUAGAGCGAAAACGAAAACGAAAGUUGAUGGCCAAAAGGCCAUACACAGAAUUCACUUGGUGAAAAUCAAGUCUUAAAAGGGUCAUAAAAGUGGCUAUACAAAGGUAUAGACUAAAAAGACAAGAGACGAAAGUCUCUGCAAAAAGGUCACAGAAAAUUGGCUAAUCAAAAGAUUAGAUCGUAAUGUAACUCGUAUAAGUGCUAGGCUCAAAGGAGGCACAAAUACUACUAGAAAAAAUUCUAGAUAUAAAACUGACUAGACAAAAGUCUAGACACGAAAGUGGGCUAAAAAGUACAAUCUGAAAAGGUGGAGAUGUG'
p153
aF0.9169139465875371
aa(lp154
S'[RNA] Repetitious Sequences 8/10'
p155
aS'AGGAAAAAAGCAAAAAAGCAAAAAAGCAAAAAAGCAAAAAAGCAAAAAAGCAAAAAAGCAAAAAAGCAAAAAACCAAAAA'
p156
aF1.0
aa(lp157
S'Documenting repetitious behavior'
p158
aS'AAAAAAAGGAAAAAAAAAAGAAAAAAAAAGGUAAAAAAAAGGAAAAAAAAAGGUAAAAAAAAGUAAAAAAAAGGAAAAAAAAAAGGAAAAAAAAGGAUAAAAAAAAACGAAAAAAAACGAAAAAAAAAGGGAAUAAAAAGGAAAAAAAAAUGUAAAAAAAAUGAAAAAAAAAGGAAAAAAAAAUUAAAAAAAAAUAAAAAAAAAAUAAAAAAAAAAGAAAAAAAAAAGUAAAAAAAAAAGAAAAAAAAUCGAAAAAAAAACGAAAAAAAAACCGAAAAAAAACGAAAAAAAAAGUAAAAAAAAUUCGAAAAAAAACCAAAAAAAAACCAAAAAAAAAACGAAAAAAAUUCAAAAAAAAACCAAAAAAAAUCGAAAAAAAAGCCAAAAAAAAACCGAAAAA'
p159
aF0.955
aa(lp160
S'7 multiloop'
p161
aS'UCGCGACGUGAAAAUGACAGAGCUAAUGUUCUGGAGGUAACGGUCACUCUGAAAGCAGAGACCAAGAAAUUGGCGAGACUAAUGUCUCGUGA'
p162
aF0.9565217391304348
aa(lp163
S'Kyurem 7'
p164
aS'AAAAGGUUUUCAGUCAAAGGGCUACAAAAUGCGGGACGAAAAGUCAUCCGAAGAAAAAGUCAAACGAUAUGGUACGAAGUCCAAAAAAAAAAAAAAAAAAAA'
p165
aF0.9411764705882353
aa(lp166
S'JF1'
p167
aS'GAUGAUAUAUGACUAGCAAGAUACAAAAGAUAUCAAGAUACAAAGAGACAAGAUAUGAAUAUAUAUAUAUACAAAAGUAUAUAUAUAUAUAAGACAAAAGUCACUGGAUAUCAAAAGAUAUCCAGAACUAGCAAAAGCUAGACAUAUCAGUCUCAGUAUCAGAUAUCAAAGAUAGAUCAAAAAGAUACUAUCAAGAUAUAUAUGAUUAUAUAUUAUACAAAAGUAUGAUAUAUAAUACAUAUAUAUCAAAGAUACAAAAAAGUAUCCUGGAUAUGCAAAAGCAUAUCCAGAAACAUGAAAACAUGAAGUAUCAAGCUAGAGAUCAGACAGACAAAAGUCGUCGAUCAGAUGAUAUCAAAAGAUAUACAUCACAUACUAUACAUCAAA'
p168
aF1.0
aa(lp169
S'multilooping fun'
p170
aS'UUUGGGUAUGAAAAAGGAAAUGAGAUACAAAAGUAG'
p171
aF0.8333333333333334
aa(lp172
S'Multiloop...'
p173
aS'GACCAGAUCACACAAAAGUGAGGCGAAAGCCAGACGAAAGUCAGACAAAAGUCAGACAAAAGUCAGUCAAAAGACAGAUCAGAUACAAAAAAGUAUCGGCAAAAGCCGGUC'
p174
aF1.0
aa(lp175
S'hard Y'
p176
aS'AAAAAGUUCAGCAAUAUAUCAAAGGGUGUAUAUUUGAGAGUUAUCAAAGGAUAGCUCUCGAACGAAAA'
p177
aF0.9705882352941176
aa(lp178
S'Mat - Elements & Sections'
p179
aS'AAAAGGCUCAAGAAUGGUGCAUGGAUCACAUCAUCAGCUCAGAAAAUUGUGGGGAUCCAGGAUCAAAAGGGCGUGGAGAUGGAGCAAAAAAAAAAAAAAAAAAAA'
p180
aF0.9619047619047619
aa(lp181
S'Chicken feet'
p182
aS'AAAAAUCAGUUAAUAUUAGACACAUCAAAGCGGGCUAGCAACAAAGCGCCAAAGGAAACCGGAAAAA'
p183
aF0.8208955223880597
aa(lp184
S'Bug 18'
p185
aS'AAGAAAGAUAGAAAACAGGUGUAAAGGUCGAUAGAGUGGGGGAAUCAAAGUUA'
p186
aF0.9245283018867925
aa(lp187
S'Fractal star x5'
p188
aS'AAAAUUUGGUGCCAAAUGCGAAAGUAUAGCAACAAAAGUUGAACAUCGAAAGAUGGAUCCGAAAACGGAGGGGCACCAGUAAAACUGUGGAUGAAAGUAAAAACUUAAGGUUGCAAAAUCGACAGCUAACGCUGAAGCUGAAAACAGUGAGUCCGUAGGAAAACUGGACUCUGCCGGAAAGUCGGAUUACUAAAAAGUAUACAUCAAAAGAUGGACGUGAAAGCAUGACGGGUCCAGAAAAGUUGGUCAGAUCUCCAAAGGGAGUACGCGAAAACGUGAGCUGCGAAAGCAGAACAUGGAAACAUGACUUGGCUAAAAAAAGUGUACACAAAGAAAAAAUUCUAGCAUUAAAAGAUGAACAUCAAAAGAUGAAUAGGAAAGCCUAAAGUGUACACAAAAA'
p189
aF1.0
aa(lp190
S'Crop circle 2'
p191
aS'UCGAGCAUAAGCAUAAAAUUAAAAAAAAUAUAAAAAAAAAAAAAAAAAAAAAAAAAAAAAAAUUAAAAAAAAAAAAACGUAAAAAAAAUGGAAAAAAAUGAAAAGAAAAA'
p192
aF0.9454545454545454
aa(lp193
S'Branching Loop'
p194
aS'UAUGCUAAAAAAAAAUGGCACAAGCUAAAGCGGUAAAAAA'
p195
aF0.95
aa(lp196
S'Bug 38'
p197
aS'GUCAACGGCUAGCCUAAAAAGCCGCGAGCAAAAGAA'
p198
aF0.9444444444444444
aa(lp199
S'Simple Single Bond'
p200
aS'AAAAAAGGAAAAAAAUGAGCAAAAAGCUUUAAAAAAAACGAAAAAAAAAAAAAAAAAAAAA'
p201
aF1.0
aa(lp202
S'Taraxacum officinale'
p203
aS'CAGGAAAACAUGGACAGGUAAUUACUUGCAACAAAAGACUGACAGCAAAGAACUGACAACAAAAGAGUGUUAACAAAAGAUUGUGAUAUAUAUACGAGAUAGAUACAAAGUAUACUAUCUCACAUACAAAUGAUAUAUCAAGAUAGACAAAGUUUAUCAGAUAUAUCAUGAUUAUAUGUGAAACAUAUGAAUCGUAUGGAAGUAUAUAUAUCUGAGCGAAAGACUCUAAGCAAAGGACCUUCGGUAAAAAACCGUCAGCGAAAGACUGAAAGCAAAAGACUG'
p204
aF0.8936170212765957
aa(lp205
S'Headless Bug on Windshield'
p206
aS'AUCACUAAAAUGAAUGAGAGUACAGAAAAGAAAAAAAAAAAAAAAAAACGCUGGAUGAACAUAUCUAGAGAGAACACAAGACAAGGUAAAAAGACAAAAGUAAAAGAUGCGUGAAAAAAGUGAGAUAAAAAAAAACGGGAAGGACUUGAGCGCGAGUGGGACCGCGGGAACUCAGGCGAGAGUACUAUUGGCUUAAGUCG'
p207
aF0.95
aa(lp208
S'Pokeball'
p209
aS'AAAGAUAUGUAGAAGCAAAGAAGACAAGUUUCUAGUGUAUGUAUAAAUCUAUGAAGCUCGAACGAACUCACAGUCACCGGCACAUAUCAGAAAAAAGAUUGAUAAAAGCAAGGAAGACAAGAUUGCAACGAAGGAGGCAUUGAAACAAGCAGCCACGAGCUCUCAGCCACCGGCAUUGAUCAAA'
p210
aF0.9891304347826086
aa(lp211
S'Variation of a crop circle'
p212
aS'AAAAUGAACAGUAAAAGCAAAAGUGAGAAACCUAUGGUGUCGAAAACGAAAAGGCAAAAAAGGCGAAAAAAAAGCAAAAAAAAAAAAA'
p213
aF0.9545454545454546
aa(lp214
S'Loop next to a Multiloop'
p215
aS'AAGAUUUAGUUAAAGAGCGGAUAUCAAAAGAUAUCAGAUAUACAAAGGUAUAUCAGAAAAAAUAUUAAAUCAA'
p216
aF1.0
aa(lp217
S'Snowflake 4'
p218
aS'CACAGCAUGUGUUACGCUGAAAGGGGAGGAGACUAACGAAAACGCCGCGGAUAAAGUAUCAGUCUCAAAGAGACUUUACCCAAAGGUUUGUAGGCGACACAACGCGCUUGCGAGCUAUGCUCAACCUCAAGGGGGGCGAGACGAAAGGGUUGCAACACGCCCGAAAGGCUAGUGGGCGAAGCCUAACAUCAAGGAUGGCCAGCCGAAAGGGCGUGGUGGUAGCAUAACAGCUCGGGGCCUAUGCCCAUCGUAAAGGAUGGUGAGGGAAAAACUUAUCUAAAAACCCAAAAAGCCAGGGGUUGAAAACCAACAUCUAUCAUGCCUAGGAAAACGGGGCUUAGCCUCCCCAAAGUGUGUGAAGCCAAGGGCC'
p219
aF0.8756756756756757
aa(lp220
S'Mat - Cuboid'
p221
aS'UAAGGAAAAGCAAGCAAAAGUAAGCAAAAGAGGAAAGCAAAAUCAUCCAAGCAAAAUAAGCAAGCAAGCAAAAGGAGGCAAGCAACGAAAAGCAAGAAAGCGAGCUGGCAAAAGCAUGUUUGCUGGCUGGCAAAAGGUGGUUUGGUUGCAUGCUGGCAAAAGCUUGUGGACACGCGUUCUUGCAAAAGCUCCCUUGGGUGCAGGGUUGCAAAAAAGCUCGCACGCUAGCACGGUCGCGCUCGGUCACUGGUAAACUCGCGCACGCUGGCUCGCUCGCACCCGCACGCACGCACACUGGCGCAAGCAAGCAAUCAGGCCCAAACAAGGAAUCGCAAGUAAGCAAAGCUGGCUAGCGCAACCAACGCAAACGCAAGCCCAAG'
p222
aF0.6842105263157895
aa(lp223
S'Misfolded Aptamer 6'
p224
aS'AAAAAGGAGAAAAAAGAUGAGGGCGAGACAAAAAAAAGUCGUAACAAAAACGUCAAAAAAGCUCAAAAAAAAAAA'
p225
aF1.0
aa(lp226
S'Snowflake 3'
p227
aS'GGCCCGAACGGAGAGCGCAAAAGUGAAGAUCUGAUAAAGACAAAAGUCCACAAGAAAAUUCAGAAAUUGGCAAAAGGAAUGCAAAAAAAUCAAUACCUCAUCAAGAAAAAAUUCCACAACUAAUGUCCCGAAGGGGCAAAACCGGCGCGCAAAAGUGAAGAUCAGAUGAAGCCAAAGGGCCUGUACAAAAGUUACAAGGUAAGAAAGCGUUAGCACAAAAGUGAAUAUCAGAUCGAGUUAAAAAACCACAACAAAACUCCCAAAGGGACAAAGGUAGUGCCAAAAAGUGAAGAUCGGCUGGAGACAAAAGUCCAGAGCGAAAGCGUUAAAGGUCCAAAAGGGGUGCACAAAGGUGAAUGUCAGAUCAAGACGAAAGUCCUCAACCAAAGUGUC'
p228
aF0.8015267175572519
aa(lp229
S'Hard Y and a bit more'
p230
aS'AAAAGGUUGAACUGAUUCGAAAGAAUAAGUGAUGUGCCCGGAUCGAAAGAUCAAGGGCCUAAAAUGGUCCCAGGAGGUUCUCGACAAAAAAAAAAAAAAAAAAAAA'
p231
aF0.9716981132075472
aa(lp232
S'Mat - Lot 2-2 B'
p233
aS'GGAGAUUAGGAUUUGCAAGAGCUUGGUAGAAAUGAAAAUCUCGCGCUUAUAAAACCGCGUGGAGGGAUGAAUGCGCUAUCAAAAACUUGGGCUGGCACAAGUAAAAUUGCACGUAAAAUCUCACGAGCCCGCGUGCAAGCAAACUUGCUGGUAUUUAUAAAACGAUGGGGGAAACUAAAACCUGCCGUUCGUAAAAUCUGGUGCAAACAAGCUGUCCCUGCUAAAAGGUUGAAUAGGCAAAAUCGAAAGAGCAGGUAAAUUCUCCCGGACGGCCAUCUAACAAC'
p234
aF0.7605633802816901
aa(lp235
S'Shapes and Energy'
p236
aS'AAAAAGGGGAUAUAAUUAAAAAGGGCAGUACAAAGGGGUGCAAAUAGCGUGGAAAAACCGGUCAAAAGACGCUUUUUCACAAAAAAAAAAAAAAAAAAAAA'
p237
aF0.9405940594059405
aa(lp238
S"Spiral of 5's"
p239
aS'CAAAAGAUACAAAGAUAGAAAGAUAGAAAAGAUACAAAGAUAGAAGGAUAGAAGUUACAAAAGAUACAAAGAUAGAAAGAUAGGAGAUACAAAGUUAGUAAGGUAGAAGAUACGAAGAUAGAAGAUACAAGAUACAAGAUACAAGGUACAGUUACAGAUAGCGAUGAAAAACAUUGGGGGCCUAUCAAAAAGUAGCGAAAAGUACCAAAAAGUAUCAAAAAGUAUCAAAAAGUAUCAAAAACUAUCAAAAAGUAUCAAAAACUAUCGAAAUCUAGCAAAAAGUAUCGAAAACUAUCAAAAACUAUCAAAAAGUAUCAAAAAGUAACAAAAACUAUCAAAAACUAUCAAAAAGUAUCAAAAACUAUCAAAAACUAUCAAAAAGUAUCAAAAAGAAAAA'
p240
aF0.9949622166246851
aa(lp241
S'Campfire'
p242
aS'AAAGGGCCGCGUGUGAAGAUUAAUUAUUAAAUAUAAGACAGCGAAGGAGGUCGAUCGACUAGAGCGCUGAGGUAGAAAUGACUGAGGAGUGACAACAUCAUAGAAAGAGACUGCGCAGAAUAAUUCGCGACACAGGUUCACUUAAGAGCACACCACACAAAGCCACGGGAAAGCUCGGGCCAGGUGACCCCAAGGGGAGUACACGCUGGACC'
p243
aF0.8584905660377359
aa(lp244
S'Anemone'
p245
aS'AAACAUGGCGAAAGUUAUGGACCCGAAAGGGUCGGAUCGGAAACGAUCCGGUACGAAGGUACCCAUCAAAAAAUUGAUGCGUCUGAAAAGAUGGAUACGAAAGUGUCCAGGCCUAAUGGCCUGAACUAAGAAAUUGGUGACACGGAAACGUGUCGACGCGAAGGCGUCGUUACCUAAUGGUAGCGGUUAGAAAUAGCCCCAGGCAAUGGUUUGG'
p246
aF1.0
aa(lp247
S'Fractal 3'
p248
aS'AAAAAUCUUGGCUAGGAAAAGCGGGAAACCGGGCAGACGGGAAAAUCCCAAAUGGAGUCGGAUAGCAAAGACUAGAAAUCAAUCCCGUAAUGAAAGUCAAAACUGAAUGAAAGGGAAAA'
p249
aF0.9495798319327731
aa(lp250
S'Kyurem 5'
p251
aS'AAAAGAAGUAUGUGGAAAGUCACACAAAACGUGUGUCAAAGUCGAAAAGACGGCAGAUUAAAAUAUUACGCGGUAGAUAAACUUAAAAAAAAAAAAAAAAAAAA'
p252
aF0.9230769230769231
aa(lp253
S'Snowflake Necklace ( or v2.0 )'
p254
aS'GAUACAUCUAUAUAAAGGUACAGGGAAAAAUACCAAAAAGGAACAAAAAGAAGUAAAAAAGAGAAAAAAUUACUCCUGUAGAAAAACACAGAUACAUCAAAAAGAAACAAAAAGGAGCUAAAUGCAGCAAAAAGCGUCCAAAAGAAGUGUCAGACAAAAAGUCAGAGAGAACAAAAGAUACCAAAAAGGGGCAAAAAAUACCGAAAAGGGGCAAAAAGCACUUUCAUCCAAAAAGGGGGAGGCGUCAAAAAGAACUAAAAAGGAAAAAAAGUUACUAAAAAGGACAAAAAAUGAGCCUCGUUCGAAAAUGCACUUGAAAAAAAAAGUAGCGAAAAGCACCAAAAAGGGGCAAAAAGUACCAAAAAGGGUUAACAUUGUAUAGAUGUAUC'
p255
aF0.8354755784061697
aa(lp256
S'Methaqualone C16H14N2O Structural Representation'
p257
aS'AGGGGAGGCUCAGUUCAGAGAGACAAAAGUCACAGUGACAAAAGUAACAGAGAAAAAAUUCAGAGAAUCAAAAGAUACGGAAAAAAAGUGACGCACUGUCUCAUUACGAAACAGGACGGUACGAAGCAAAGAAGUCGAAGAGAAAAAAACUGAGAGUGAGAAAACUUCACAAAAGUAUAAAAAAUGACUCAGAAAAGAUCAGAAACAGACAGAUACAGAAAGAAUCAAAAGACAAAAGUCCGAUACAGAAAACUGAGUCUGACAAAAAUCUCGGAUGCAAAAGCGAGGCAGACAUAAAAAGACUCCAAAAGUAACUCUAAUAGGGCCAGUCAGAUCAAAGUACAGAGCAGGGAAA'
p258
aF0.8704225352112676
aa(lp259
S"Cat's Toy 2"
p260
aS'AAAAGUCUUACCUAAAGGAUGUAAAAAAAAAAAAAAAAAGCUUGGUAUAGUAAUCUUAUGCGAUAGCCAAAAAAUCGUAAAAACCGGUAGGACAAAA'
p261
aF0.9587628865979382
aa(lp262
S'Zigzag Semicircle'
p263
aS'AAAAGAUACGACGCAAAAAGAUACGGUGUCGAAA'
p264
aF0.9411764705882353
aa(lp265
S'Short String 4'
p266
aS'AAAAAGAACUCAGCGUACCAGGCAGAGCAAAUGCACGACAAAAUGUCUGGGAAAUCUUCCUAUAAACUAACGAAUUAAAAAAAAAAAAAAAAAAAAA'
p267
aF0.9381443298969072
aa(lp268
S'Gladius'
p269
aS'CAAAAGAAAAGCGCAAAUAAGGGAAGAACGACGAUUGAAGAUAAAAAUAUCAGAUACAAGGGACAAGAGAUCAAGAGAGCAAUAGAUGGAGAAUAUUUAAGAUGUAGAUCAAAUCAAGAUGAAACAUCAGAUCGGAUCGCCAUCCAAGAUAAACUUUAUCACCGGCUUAGCAGAUCAGUAGUCAACAGUAUCAAACAAAGACAGAUACAGCAGAAAUAAGAGAGGAAGAUCAUAAGAUACUCACAUUACAGUUCUAGAUAUCAGACAGAUGUCAAAAGAUAUCAGGUCGAAUAUACAGAAACGUAAUAGGGGUAUCGGAAGAUCAUUAUCUCGAGAUUCACAAGUAUCAGCACAAAAGUGCAAAGUCAGUAUGACGAAUUAAAAGAGCCGAUAACAAAAG'
p270
aF0.895
aa(lp271
S'Thunderbolt'
p272
aS'CUGAGAGCUUAAAAAAUAGGCAGGCUGAGGGGCAAAGGGGUUAUAUCAAGUCGAACGCGAAAAAGAUGAAAAACAUCAAAAAUGUAAAAUUAGGGAAAAAGAUUCUAAAAUAUUUAAGCGUACAAAAAAGAAAUAGGUCAAAACGGAAAAAAGAAUAUAUAUUAUAGGCAAAAAUCCUGCUCUAAGAAAAAAUGGCAACCAAGGGUUCAUUAAAGAAGGGAGGGCUAAAAAAAGAUCAUGAAGAGAUUGAAGAUUUCCGUUAGAGAAAAAAAAAAUAAGGUAGAAAAAAUAAAGAUAAUCUGGAACAAAAAGUAAAAAAUCGAAAAGUUCCAAACUGAUAGGGUAUAGCAAAAAAAACUGCAAGCAUUAAAAGAAAAAAAUUAGCUCGAGGA'
p273
aF0.9132653061224489
aa(lp274
S'Mutated chicken feet'
p275
aS'GAAAAAAACAGCAGCAAAGCAUGAAACGAAAGCGUAGUGGCUGCAAGGCUGCAAGACUAUGCGCUGCAUCUGGGAACUUCGAAACCUAGGCGCUAAAAAA'
p276
aF0.84
aa(lp277
S'Chicken Tracks'
p278
aS'AAAAAAAAUUUGUGCGAUCUAAUGAACAAGACCAAAGGAUCAAAAGUGAAAGCUUGUACGAAAGCUGAAUUUAUAUCUAUGCUGGAACAUCUAGCAGAAAUUGACACAAAAAAAAA'
p279
aF0.9482758620689655
aa(lp280
S'Looking Back Again'
p281
aS'GGCUUUACGAGAGAAAAGUCAUCAAAGGUGACAUCUCACGAUCACAUGACAAAGUCCUGAGGGGCAAAGUGUGAAAAUGCAAAUACCCCAAAUCUAGUGUAGGCCCAGAAAAAGAUUCAAAGGGAUCGAAAACCUGGGUAUUAUACGAAGGUGCGGUACAAAGAAUCGUUAGCCUAACGACAAGGUAAAGCUGUCCUCAUGGGCCCCAGUACGUAGGGGGGCAAAAGUCAAGUUAGCAAAAUACUGGCCACAUACAACAGUAAAAUGAGAGAGAGAGCGCUGAUCAAAAAGGUCCCCUAAAUUCUUUGUGUGCAAAAAAGCUUGGCGAAAACGCCGAAAGCCUCGAAGAAGCUCUAAAGGGGCAAGGGGCGAAGGCACGUCUCAAUGUU'
p282
aF0.8251928020565553
aa(lp283
S'Multilooping 6'
p284
aS'AGCCACAUAUCGCAGGAAACUGAGGUUGUGAAAACGAUGCUAGAAAUGUAAAGGCAUUUCCUAUAAUUGGGGCCCUGUGGAA'
p285
aF0.926829268292683
aa(lp286
S'Cesspool'
p287
aS'GAGGAAGAAAACAACAGAUCAGUGUCAAAGACAGCAAGUCCUGAAAGUGAAAACCAUAAUUUAAAAUACUAGAGGCAAAAGAAUAGUAUAUGUAAGUAAUCAACCGUAUAAGCGUCAAACGAAUAAAGCCGGAAAUACCAAGCCCUAAUUGAAAAUUCUGGACCGAAAAUACAACAAGGCGGUAAGAAAACGAGUGUUGCGAGGAGAAUUCCGCAACUACACAAACUGAAAACGCUAAUUGAAACCUUUAUAGAGAAAACACAACGCAAGAUUAUCGUCACCAAAAGUACAGUAUCAAACGUUAUAAGACUUUUGAAAUAAAAAGCUAAAUAAAAACGCCAGAGUCAAAAUAUUUCUC'
p288
aF0.6564245810055865
aa(lp289
S'Hoglafractal'
p290
aS'AAGAGGAACUAGGAAAACAUACAAAAAAGUAUGCUUAGCAUCAAAGAUCAAAAAGAUUGAUGCACAAGACUAAUGUUCUGAGCGGAAGAACAAAGAUCAAAAAAGAUUGAUUCAAAAGCCUAAAUGGCGUGCAAGUGAAAACGGAGAUGUAAAGACAAGACAAAAAAGUAGUCUCAGCAAAAAGCAACACAAAGGUGUUUAAGAAAAAACACCAAAAUGACGUUUCUAAAUGGGGCUAAUGGAGACGAGAAAAACGACGAAAGAGUUACACAAAGAUAACUUCGAGAAACUUGGAGAAAAAAACUCGUCAAAAAACCUAGAAAACCAUCAAAACUCAGAACGACAGAAAACAGGUCAAACGCAAAAGAACUAAUGCCUUGACUAUGUCGAGCGAUCGUUU'
p291
aF0.875
aa(lp292
S'Bullseye'
p293
aS'AAGGAGCGUCAAAGACCAAGAAGGAACUUCAACACCAAAGGCCCUGAAAAAAAAGGCGUUCAAGGAACAGGGGCAAGGCCCAAAAUCAAGAAUUGCCAAAAAAAACAGGUUUGAAACGCAAAUUCAAAGAAUGAGUUCGAAGAAUCUAGAAAAAAACCUGGUCAAAGAGAAACUGUAAAACAGAAGGUUAAAAAUCGGGAAA'
p294
aF0.8415841584158416
aa(lp295
S'Shooting Star'
p296
aS'GCUAUGGCGCUAUAGACAAAGAUCUUAAUACAUUUAGUAAAAGUCGUAAGUAAGAAAGACAGGUUUAUGACCUUCUAAAAGAGCCCGCAGAUGCAGACAGAUCAGCAAAAGACGAUACGUCGACAUACGCGAAACUACGUGGAAAAGUAGCAGGGAUCUACGCAAAGCGUGACUUGCAAAGCAAGAGAUAAUUAUAGAUCAGUGCAGGUGAGUAGAAAGGAAUACAAAGUAUUCCACGAGCUAUCCUAGCUACGAUAUACUAUGUAUAUCACUAACAAAACUAGUAUCGUACAACAAAAGAGAUAAAAUUAGGCACAGAUCAGUAAAAAAUGAUACGUAACGAAUGUAGUCUGUACACAUAGCA'
p297
aF0.8131868131868132
aa(lp298
S'Teslagon'
p299
aS'AAAAAGUGAAAAGAAGCAGGAAAAGAAGGAGCGGGGGAGGGGGGGAAACGAACAGUAUUUCGGGGGGGGGGGGAAAAAGUAAAAGAACCGUCAAAAAAAGAAGGGGGGGGGGGGAGGCAAAAGAGCAAGGAAAAAAAAUGGGGGGGGGGAGGGGGAAUCAAAAAGUAUGCCGGGGGGGUGGGGAAGCAGUAAAAGAAUCAGUAAAAAAAGCGGCGGCUGGGGGGAAGUGAAACAAACAGGUAAAAAAGCAUUUGGGGGGCGGGCCAUAAUAACAGUAUGACGCGGGGGGGGGGAACCAGCAAAAGAUACGGGAAAAAAACGAAAAAAAAAAAAGCGGGGGGGGGGGGGAAGCAAGGAAAGAACCAGCAAAAAAGCGAGAAAA'
p300
aF0.837696335078534
aa.