(lp0
(lp1
S'Simple Hairpin'
p2
aS'GAUACAAAAAAGUAUC'
p3
aF1.0
aa(lp4
S'Arabidopsis Thaliana 6 RNA - Difficulty Level 0'
p5
aS'GAGAUACAAAUCAGAAAAAAAAAAACUGCAGAUAUCGGUAUAUAUAUAUACAUAUACAAAGAUACAAAAAAGUAUCAGUAUAUAGUAUAUAUAUAUAAAGAUAUCUGAAGUAUCUC'
p6
aF1.0
aa(lp7
S'Prion Pseudoknot - Difficulty Level 0'
p8
aS'GAGAUCAGAUCAAAAGAUCGAUACUCAAAAAAAAAA'
p9
aF1.0
aa(lp10
S'Human Integrated Adenovirus - Difficulty Level 0'
p11
aS'GAUAUAGAUAUAUCGGAUAUGGAAAAAAAAAAGGUGCGGACCUCAGAGGGGCAUAUCAAAAGCGAUAGAUAUACUAAAAAAUGUGUAUCUAUAAAACGCGAUAUAAAAGCCGAGAAAAGUCCGUUCACAUAGAAAAAAACUAUGUCACCGAAAAAAAAAAACAUAUCAGAUAAAAAUAUCUAAAAUAUCAAA'
p12
aF1.0
aa(lp13
S'The Gammaretrovirus Signal - Difficulty Level 0'
p14
aS'GAGGCUUUAUAACAAAAGUUAUAUUGACGAAAAAGGACCAGGUAUGCGGGAGCAAAAGCUCCGAAAUGUAGCCGUUCGAGAUAUAUGUAAUCAUGUGUCAA'
p15
aF1.0
aa(lp16
S'Saccharomyces Cerevisiae - Difficulty Level 0'
p17
aS'GCGCUGCCACCAAAUAAAUCGAUCUCAGUAAAAAAAAAAAGGGAAAUGAGGUGAAAAAGACUUCGCAGCGCAAAAGCUUAAGAUCGUGAAAAAAAGCACGGCGAAAAAAAAAAAAGCGCAAAUCGCAUAAAAAAGGUGCGCUUGAGCGAAGGGAGUAUAAGGUCUAAAAAAUGACCCAUGGCUAAAAAUGCCGUGAAAUCCUUGGAAAAAACGGGGGUAUUCUAAAUGUGUCUCAAGAGGAAAAAAAACUUCGUUGUAAAAAAAAUACAGCAAAUCAUACUAAAAAUGUAUGGAGGCACUAAGGAAUAAGAAGAGCAAAAAAAAGUUCCGUAUCAAAAAAGGGUGCGAAAUCAUAGUAAAAAUCUAUGCUUAUUCAAAA'
p18
aF0.9947229551451188
aa(lp19
S'Fractal 2'
p20
aS'AAAAAGAGAUAUGAAACUGGUAUAACAAGAGCAAAAAAAAAAGCUCAAGAGCAAAAAAAAAAGCUCAAGAUCAAAAAAAAAAGAUCAAGUUAUACCAGAAAGAGAUAUAUCAAGAGCAAAAAAAAAAGCUCAAGAGCAAAAAAAAAAGCUCAGGAACAAAAAAAAAAGUUCAAGAUAUAUCUCAAAUAGAUAUAUCAAGAGCAAAAAAAAAAGCUCAAGAGCAAAAAAAAAAGCUCAAGAUCAAAAAAAAAAGAUCAAGAUAUAUCUGAAACAUAUCUCAAAAA'
p21
aF1.0
aa(lp22
S'G-C Placement'
p23
aS'AGGCUAUGCCUA'
p24
aF1.0
aa(lp25
S'The Sun'
p26
aS'GAGAUAGAUUGAAACAGUAACUGUUCAAUCGGAAAGAUACAAGGUAUAACUUCUGUAACAGACAGAUAGAAGGCAUAACUGCUGAAUGAUAGACGAACUAUGUUUAAGUCGUCUACCAGAAAGAUCCAAAGUAUAACUCCUGAAACGGAGAGAUAUAAGGUAUAACUCCUGGAACAGAGUGGUAUGAAAUACAAUACCUGAAACAGAGUGAUACGAAGUAUAACUCCAGAAACGAAGAGUUGCAAAGUAUAACUCGCG'
p27
aF0.810077519379845
aa(lp28
S'Frog Foot'
p29
aS'GAAAAAAAAAGGCCGAAAGGCCGCGAUAAUUCGCCACCUAUGGUG'
p30
aF1.0
aa(lp31
S'InfoRNA test 16'
p32
aS'GAUAUCGGAGAUAUCAAAAGAUAUACUACGGAUAUC'
p33
aF1.0
aa(lp34
S'Mat - Martian 2'
p35
aS'GAUCAAAAGAUCAAAGAGAUACAAGAGAUACGAAAAAAGUAUCUCGUAUCUCGAGGAAGAUACAAAAAAGAUAUACUACGACACAAAAAAAGUGUCGUGUAUAUCGAAGAUAUAGAUAUAUCUAAAAAUGAUAUAUACUAUAUCAAAAAAGUAUCUUCAAAGAAUAUGAUAUUACAAAAAAAGUGAUAUAACAUAUUCGAAGCGUAAAAAUGC'
p36
aF1.0
aa(lp37
S'square'
p38
aS'GAGAUACAGGUACAGAUAUCCGUUGCAAAGCAACGAAAAGAUAUCUAAAAGUACCUAAAAGUAUCUC'
p39
aF1.0
aa(lp40
S'Six legd turtle 2'
p41
aS'AAAAAGCAAGGCAAAAGCAAACGGAAACGAAACGGAAACGAAACGGAAACGAAAGGGAAACUAAACGGAAACGAAAGCAAAAAAAAAAAAAAAAAAAA'
p42
aF1.0
aa(lp43
S'Small and Easy 6'
p44
aS'GCCGCGAAAAGCAAGGGAAAAAAAACCGGC'
p45
aF1.0
aa(lp46
S'Fractile'
p47
aS'AAAAAAAAAAAAUGCAAUGUGUAGAAAUAGAAAACUUAGCAAUUGAAAACGUAAUCUAGCAAAUGCAAACUAAGUAAAAACAAAAAAAAAAAAAAAAAAAAAAAA'
p48
aF0.9619047619047619
aa(lp49
S'Six legd Turtle'
p50
aS'AAAAUACAAAAACAAAAGGAAAACAAAAAGGGAAGUGAAAGUAAAAACGAAAACGAAAACGAAAGCGAAAAGCAAAAGCAAAAGUUAAAAAAAAAAAAAAAAAAA'
p51
aF0.9238095238095239
aa(lp52
S'snoRNA SNORD64'
p53
aS'GAUAUCAAAAAGACAAAAGACAAAGAUACAAAAAAAAAAAAAGUAUCAAAAGUCAAGUCAAGAUAUC'
p54
aF1.0
aa(lp55
S'Chalk Outline'
p56
aS'AAAAUGUUCGGAGACAAAAGUACUCAAGCAGACAAAAGUCGCUAGAUGACAAAGGUACAUCAGCUUCGAAAGAAUGUGAACUAAAAAAAAAAAAAAAAAAAAAA'
p57
aF1.0
aa(lp58
S'InfoRNA bulge test 9'
p59
aS'GAUAUAGCGAGAGUGAGAGACAAAGGUCUCUCCCCCUAUGUC'
p60
aF1.0
aa(lp61
S'Tilted Russian Cross'
p62
aS'AAAACGCCCCCCCUAAUGGGGCUCCAGAGUUAUUGCUCUACACAAAAGUGUAAGGUCGAAAGACCGGAGGAUCGAAAGGUCGGGCAAAAAAAAAAAAAAAAAAAA'
p63
aF1.0
aa(lp64
S'This is ACTUALLY Small And Easy 6'
p65
aS'GAAAAAAAAAAAAAAAAAAAAAAAAAAAAAAAAAAAAAAAAAAAAAAAAAAAAAAAAAAAAAAAAAAAAAAAAAAAAAAAAAAAAAAAAAAAAAAAAAAAAAAAAAAAAAAAAAAAAAAAAAAAAAAAAAAAAAAAAAAAAAAAAAAAAAAAAAAAAAAAAAAAAAAAAAAAAAAAAAAAAAAAAAAAAAAAAAAAAAAAAAAAAAAAAAAAAAAAAAAAAAAAAAAAAAAAAAAAAAAAAAAAAAAAAAAAAAAAAAAAAAAAAAAAAAAAAAAAAAAAAAAAAAAAAAAAAAAAAAAAAAAAAAAAAAAAAAAAAAAAAAAAAAAAAAAAAAAAAAAAAAAAAAAAAAAAAAAAAAAAAAAAAAAAAAAAAAAAAAAAAAAAAAAAAAAAAAAAAAAA'
p66
aF1.0
aa(lp67
S'Shortie 4'
p68
aS'CCAAAAGGAGCGAAAGC'
p69
aF1.0
aa(lp70
S'Shape Test'
p71
aS'AAAAAGUGAUCAAGAUACAAAAAAAAGUAUCAAGACACAGUGAUACAAAAAGUAUCGGGUCAAAAGACCUCUGGUCAAGAUCUCAAAAAAAAAAAAAAAAAAAA'
p72
aF1.0
aa(lp73
S'The Minitsry'
p74
aS'CUCAAAAAAGUAAAAAGUGAAAAGGACAAAAAUACGAAAAAAAGUGGGUUACGCGACUGGAG'
p75
aF1.0
aa(lp76
S'stickshift'
p77
aS'AAGAGUUCAUGAAAAAUCGAGCUCGA'
p78
aF1.0
aa(lp79
S'U'
p80
aS'AAAAAGAUACAGAGAGCAGAGAGAUAUACAAAAGUAUAUCUCCGCCCGUAUCAAAAA'
p81
aF1.0
aa(lp82
S'Still Life (Sunflower In A Vase)'
p83
aS'AAAGAACAAGAGUCAAAAGGACUCAAGAUGCGAUGUAACGAGUGACAAAAGGUUACAAGCUCCCAUGGAGUAAGGUUCGAAAAGGACCAAAAUGCGAAAACUGUUGGAUAUUUAUACAUAGAUAUUCGCGAUACAAAAAAGUAUCAGUUGUAAAAAAAAAAAAAGAUCAAAAAAAAAAAAAAAAAAAAAAAAAAAAAAAAAAAAAACCCGAUCAAAAAAAAAAAAAACAGCGAAUCAAAGGAUUCAGUGAAUAUUUAUGUAUAAAUAUCAAGGUGUAAAAAGCACCGGGUAUCUAAAUGGUGCAGUAGAUAAAAAAUAUAAAGACCCGAAAAUGAAUGUGACACAAAGGUUUCUUCUAUCGAAAAGGUAGUGAUCCAA'
p84
aF0.9735449735449735
aa(lp85
S'Quasispecies 2-2 Loop Challenge'
p86
aS'AAAAAUACCGAUCAGUGAGAAAACUCAAGGAUCACAUCAACUAUGGGGAUGAAUAGGGUACGACAAACAGUCUGAAACUAUGGUAAAAAAAAAAAAAAAAAAAAA'
p87
aF1.0
aa(lp88
S'Corner bulge training'
p89
aS'AGAUAUCGAUACAAAGUAUCAAAAGAUAUCA'
p90
aF1.0
aa(lp91
S'Spiral'
p92
aS'AAAAAGAUCAGAUAUCAGACAGAUACAGAUCAGAUCAGCAGCAGCAGCAGCAGCAAAAAGCGCGCGCGCGCGAUCGAUCGUAUCGUCGAUAUCGAUCAAAAA'
p93
aF1.0
aa(lp94
S'InfoRNA bulge test'
p95
aS'AAAAAAAAAAAAAAAAAAAAAAAAAAAAGCCCGGAAAAGGCCCAAAAGCGGAAAGUACGGUAGAGGCCGAAAAGCGAGCAUCAUAAAGUAACGAACCAGCGAAAAGGAGCAAAAAAUGAGGA'
p96
aF1.0
aa(lp97
S'Worm 1'
p98
aS'AAAAAAAGAAAGAAGAAGUAAAACAAAAGAUUGACGUAUAACUAG'
p99
aF0.9111111111111111
aa(lp100
S'just down to 1 bulge'
p101
aS'AAAAAGCUCAGAUACAAAAGUAUCAGACAAAAGUCAGAUGCAAAAGAUCAGACAAAAGUCAGACUAAUGUCAGAUCAAAAAAAAAAAAAAAAAAAA'
p102
aF1.0
aa(lp103
S'Iron Cross'
p104
aS'AGAAGGUUAAAGUCAUGGAAACCAAGCCUAAUGGUGGACAAGUAGACCUGAAAAGCGGUCAAAGGCCUUCAAAGUAAAGUAAAGGCUGGGCAAGGCCACUUGAAGGCAAGCGAAGCUGAUCGA'
p105
aF0.983739837398374
aa(lp106
S'loops and stems'
p107
aS'AAAAAGAGAUACAAAGAUCAAAGAUCAAAGAUCAAAAAAAAAGAUACAAAAAAAAAAAAGUAUCAAAGAUCAAAAGAACAAAAAAAAAAGUUCAAAGAUCAAAGACAAAAAAAAGUCAAAGAUCAAGCAAAAAAGCGAAGUAUCUCAAAAA'
p108
aF1.0
aa(lp109
S'Water Strider'
p110
aS'AAAAAACGGGUAAGAGGAAAAUAAUUUCUAAGAAAUUUCCCGUGUUAAACAGAAAACUCCCCAAACGGAAGUGUUUUCCGGUAAAAAAAAAAAAAAAAAAAAA'
p111
aF0.9611650485436893
aa(lp112
S'The Turtle(s) Move(s)'
p113
aS'AAAGCAAAAAGAGACUUUGUAUAGUAAAAAAAUCUAUACAGAUAAUAGUAAAAAAUACUUGAAGCGAAAAGCCGAGAGAUAAUAAAAAUUUAUCAAAACCCAAUCCACAGCGUCUGUGGGUAACCCCUAAAAUGGGCGAAAAAAGUAUGUAAAACGUAAAAAUGAAAAGCUGAUGAAAAGUCAAAAAAAGGCAUCGACAAAAAAAUCGUAAUGAAAAAAAAAUUUUGGAAGUUGAAAAACGACAACAUCGGAAAAAAAAACUAAAUGGACAGGGGUAAUCUAACAAACGGCGAAAAAAAAAGCUCUGGAAAAAGGG'
p114
aF0.9873417721518988
aa(lp115
S'Adenine'
p116
aS'GAUUCAGAUAUCACAUAUGAGAUGUGCGAUCUAGGAUAUCAAAAGAUAUCAAAAAAGAUAUCGGAUAUCAGAUACAAAGAGAUACAAAGUAUCUCGUAUCAUAGAUCACAUAGGUAUAUCUAUGAUAUACAAACUGUGUCAUAUCAAAACAUAUGAAAAGAUAUCAAAAGGAUC'
p117
aF1.0
aa(lp118
S'Tripod5'
p119
aS'ACGCGGACGAGAAAAUUGUGGCAUAAAUUGCCCCGCCA'
p120
aF1.0
aa(lp121
S'Shortie 6'
p122
aS'GGGAAACCAGCAAAGGCAGCUAAGGCAGCGAAAGC'
p123
aF1.0
aa(lp124
S'Runner'
p125
aS'AAAAAGGAAAGUUUAAAAAUCUCUAUGAUAGGGAAAAGUGAAAAGAUACAACGAAAAAUUCCCAAUUGAAAUUAAAUUAUUCGAAAGACGAAGACAAAGGUUGCUUGUUCCAAAAA'
p126
aF0.9224137931034483
aa(lp127
S'Recoil'
p128
aS'AAAAAGAUACAAGCAAGCAAGACAAGACAAGCAAGCAAAGCAGCAGUCAGUCAGCAGCAGUAUCAAAAAAAAAAAAAAAAAAAAA'
p129
aF1.0
aa(lp130
S'[CloudBeta] An Arm and a Leg 1.0'
p131
aS'AAAAAGACAGAGACAAAAGUACUCGACAGCAAAAGCGUCAGUCAAAAAAAAAAAAAAAAAAAA'
p132
aF1.0
aa(lp133
S'[CloudBeta] 5 Adjacent Stack Multi-Branch Loop'
p134
aS'ACAUCCAGGAAAACCUGGCUACUAAUGUAGCCACACGAAAGUGUGUCUCAAAGGAGAGAUGUA'
p135
aF1.0
aa(lp136
S'Triple Y'
p137
aS'AAAAAUAGGCUUCCGUCUAAUGACGUAGCGAAAGGUGGAACCAGCGAUACAAUGAUCAAUCUAAUCAGCGCUGCUUCGAGAAAAAAAAAAAAAAAAA'
p138
aF0.9175257731958762
aa(lp139
S'Misfolded Aptamer'
p140
aS'GCGCAGAAAUCGACCUAUUCAGGCUAAUGCAAGCAACUGCUUAAAGGUGU'
p141
aF0.88
aa(lp142
S'Flower power'
p143
aS'AAAAGGACCGUGGGAACCACAGCUGGAGCAAAGCUCAACAUGAAACAUGAACCUGAAGCAGGCAGCAUAGCGAAGCUAGGUUAAAAAAAAAAAAAAAAAAAA'
p144
aF1.0
aa(lp145
S'Kudzu'
p146
aS'AAAAAGUCUGAGGUGACUGAGCAGACCAAGGCUUAGAAGUAGAGGAAGUCGUAUGAAUAAAAAGUAAAAGUCUCAGCUGGCGAAAAAAAAAAAAAAAAAAA'
p147
aF0.9801980198019802
aa(lp148
S'"1,2,3and4bulges"'
p149
aS'AAAAAGCCCGGACCCAAAAGGAAAAGUCAGAUAAAGAUCAGGAGCAAAACCGCAGGCGAAAGAAACCAGAAGAAAUUCAGCAUGGAAAAAAAAAAAAAAAAAAAA'
p150
aF1.0
aa(lp151
S'medallion'
p152
aS'GAUAGGGUCGGGGAAAGUCCCGAAGAGAAAACUCGGCCAAAACACUAUAUAAAAAACUGUAGUGGCAAAAGACCUCAUAGAAAAUUAUGAGUGCAACGACGAUGCAAAAGCAAACGUAGUAAUCUAUGUAGUAAAAGUCCAACGUUGAAAACGAUGUGAGCAAAAGCAAUUCAAAAAGGUCAAUAGAAAACUAUUGUAGUCAAAACUGUCAUGCAAAAGUAUGAAGCGAAAACUUAAGUAAAGACUAUCCUAGAAAACUAGGAGGGCAAAAGCUAACGUCCUAAUGGAUGAAACGAAAACAUGACCAAAAGAUGAUAUAGAAAACUAUGUACCUAUC'
p153
aF0.8931750741839762
aa(lp154
S'[RNA] Repetitious Sequences 8/10'
p155
aS'AGCAAAAAAGCAAAAAAGCAAAAAAGCAAAAAAGCAAAAAAGCAAAAAAGCAAAAAAGCAAAAAAGCAAAAAAGCAAAAA'
p156
aF1.0
aa(lp157
S'Documenting repetitious behavior'
p158
aS'AAAAAAAGGAAAAAAAAACGAAAAAAAAACCAAAAAAAAAGGAAAAAAAAAGCAAAAAAAAAGUAAAAAAAAUGGAAAAAAAAAUCAAAAAAAAACCAAAAAAAAAGUGAAAAAAAAGCAAAAAAAAAGCAAAAAAAAGGCAAAAAAAAAGUAAAAAAAAAGCGAAAAAAAUGGAAAAAAAAAGCGAAAAAAAAGAAAAAAAAAAUCAAAAAAAAAGCAAAAAAAAACCUAAAAAAAAGCAAAAAAAAAACAAAAAAAAAGCAAAAAAAAAGCAAAAAAAAAGCAAAAAAAAAACAAAAAAAAAGGAAAAAAAAAGGAAAAAAAAACUUAAAAAAAAGCAAAAAAAAAACAAAAAAAAAGCAAAAAAAAGGGAAAAAAAAAUCAAAAAAAAAUCAAAAAA'
p159
aF0.96
aa(lp160
S'7 multiloop'
p161
aS'GUCCUCUUCGAAAGGAAAGGUGUAAAGACACCUAUAGGAAACUAUAUGUUUUAAUGAACGCGUAGGAAACUACGGAGCCGAAAGGUUUGGAC'
p162
aF0.9782608695652174
aa(lp163
S'Kyurem 7'
p164
aS'AAAAAGCGGCUGUCCGAAAGGAGGGAAAUGCUCGGUCUAAAUGGCAGGCAUCUAAAAUGGUAAAGCUGAGCCCCCGGUCCGCGAAAAAAAAAAAAAAAAAAA'
p165
aF1.0
aa(lp166
S'JF1'
p167
aS'GAUAGAGAUAUACAUAGAAGAUACAAAAGAUAUCAAGAUACAAAGAAUCAAGAUAUGAAUAUAUAGAUAUACAAAAGUAUAUCUAUAUAUGAGACAAAAGUCAGAGAUAUACAAAAGUAUAUCUCAAGAUUCAAAAGAAUCACAUAUCAGAUUCAGUAUCAGAUAUCGAAGAGACAUCAAAAAGAUAGUCUCAAGAUAUAUAUAGAUAUUUAUAUAUCAAAAGAUAUAUAGAUAUUAUAUAUAUAUCAAAGAUACAAAAAAGUAUCGAGAAUAUACAAAAGUAUAUUCUCAGAGAUAAAAAUAUCGAGUAUCAACUAUGAGAUCAGACAGACAAAAGUCGUCGAUCAGAGGGAUACAAAAGUAUCGCCUCAGUAUACUUAUAUCAAA'
p168
aF1.0
aa(lp169
S'multilooping fun'
p170
aS'CGGAUUUAAAAAUGAGUAAUCACCUCAUAAAAAGCG'
p171
aF0.8611111111111112
aa(lp172
S'Multiloop...'
p173
aS'GAGCACACCGGACUAAAGUCAGACUAAUGUCGCUGGGAACAGAGAGGAAACUCAAGCGAAAGCUAUUCGUAAGGGAGGUGGGAUACGAAAAAGUGUUCUCGAAAGAGGCUC'
p174
aF1.0
aa(lp175
S'hard Y'
p176
aS'AAAAACAUCUUCGUGGUAUCGAAAGAUAUCGAUGAGAGAUACAACAAAGGUUGUAUCUCGAUGAAAAA'
p177
aF0.9705882352941176
aa(lp178
S'Mat - Elements & Sections'
p179
aS'AAAAAGUUCGGGAAGUCAGGAUAGAUCAGGAUGUCAGGAGCAAAAGUGCGCACGACAGACGAUUAAAAAGUCUGUCAAACGGAACAAAAAAAAAAAAAAAAAAAA'
p180
aF0.9619047619047619
aa(lp181
S'Chicken feet'
p182
aS'AAAAACUACGAUGAAACAUGCUAUGCAAGCGGGAGAAGCUGCAAAGCUAUUAUAUAAUGCGCAAAAA'
p183
aF0.9104477611940298
aa(lp184
S'Bug 18'
p185
aS'AGCAGUCGGACGAAGUUAUAAACAAAGGGACAGUUGCGGACAUGACAAAGGCA'
p186
aF0.9622641509433962
aa(lp187
S'Fractal star x5'
p188
aS'AAAAGGCGUGAUGAAUAUCGAAAGAUGAAGAACAAAAGUUCAAGAGUAAAAACUCAACAUUCAAGGAUGAACAUCGCGCAAAAAAGGAGAUGAAGAUCAAAAGAUCAUGACCAAAAGGUCUAGGGCAAAAGCUCAAGGUUAAAAAGCCAACAUCUUUUAAAAACGUAUAUGAAGAGCAAAAGUUUAGGAUCAAAGGAUCAUUACCAAAGGGUGUAGAUAGAAAUAUCAACGUAUGCGAAAAAUCGAUGUGAAGUUUAAAGGAGCAAGAUCGAAAGAUCAAAAGCAAAAGCUUAAGACGUAAUCGUCGACGUAUUGAAAAAACAGAUGAGCAGAUCGAAAGAUUAAGCUGAAAACAGCAGGAUUGAAAAGUCAAGAGCAAAAGUUCAACUCAUCUGAAAAA'
p189
aF1.0
aa(lp190
S'Crop circle 2'
p191
aS'CAAAAGGAAAUUUUAAAAGUGAAAAAAAAUCAAAAAAAAAAAAAAAAAAAAAAAAAAAAAAGAGAAAAAAAAAAAAAACCGAAAAAAAUAUUAAAAAGCCAAAAUGAAAA'
p192
aF0.9636363636363636
aa(lp193
S'Branching Loop'
p194
aS'UGUAGGGAAAAAAACGGCGAAAGCGAGAAUUGCUAAAAAA'
p195
aF0.95
aa(lp196
S'Bug 38'
p197
aS'GCUGUCUGGUAUGAGAAACGCAGCCGUGAAAAAAGA'
p198
aF0.9444444444444444
aa(lp199
S'Simple Single Bond'
p200
aS'AAAAAAGAAAAAAAAUGAUCAAAAAGAUUUAAAAAAAGCAAAAAAAAAAAAAAAAAAAAAA'
p201
aF1.0
aa(lp202
S'Taraxacum officinale'
p203
aS'UAGAAAAAGACUGAUAACAAAGGACAAACAGAAAAAAACUGUCCGCAAAAGACUGUCAGGAAAUUACUCUCAGCGAAAGAUUGUGAGAUCACGAUCUAUACUUAUGAAACAUAAAGUAUAGAGAUACAAAUAGGUAUACAAGAGAUACUAUGUGUCUCAGUAUAUCUAUUUGCAGAUAUCAAAGAUAUCGCGGGUAUCGAAAUUGUGGUCUCUGCUCAAAGGAAGCUCACAAAAAUUGUUACUGCAAAAGACGGAGUGCUAAUGACACAGAGCAAAAGACUG'
p204
aF0.9219858156028369
aa(lp205
S'Headless Bug on Windshield'
p206
aS'ACCAGUAAAAACCAUCAAGGGACGCAAAAAAAAAAAAAAAAAAAAAAAAGGCGGGCAAAGGUAACAAAACAGGAGAAAACACAAGUAAAAAAAGGAAAACCAAAAGAGGCGUGAAAAAAGUGAGCGACAAAAAAAGCCGAGGAACUCGGGCAGAGGGGGGGGGGGGGGAAUUCAAGCAAGAGGGCCAGGCAAGUAUCGAG'
p207
aF0.98
aa(lp208
S'Pokeball'
p209
aS'AAACAGGUAGAAAACCGCAAGAGUCAAGGGGUCAAGGAAGGGGUCAAGGUAUCCGGAAACCAUCAGAAACCGGGUGUUAGGUUACUUGAAAAAAAUACCAUGAAAAAUUUAGAAAAACAGGGAAUAAAGGAAGGGGUCUUAGAAACUCGAAACCACCGGAGGCUAGUAGUAAAUAUAUGACUAA'
p210
aF0.9456521739130435
aa(lp211
S'Variation of a crop circle'
p212
aS'AAAUCCUAAACAAAAAGUUAAAUCGAGCGGCUAAAAGAAGAAAAACAAAAAAUGAAAAAAAAUCAAAAAAAAUCCUAAAAAAAAAAAA'
p213
aF0.9545454545454546
aa(lp214
S'Loop next to a Multiloop'
p215
aS'AAGAGAUAUUUAAAGAGCGGACAUCAAAAGAUGUCAGAGGUAAGAAAUUACCUCAGAAAAAAUAAUAUCUCAA'
p216
aF1.0
aa(lp217
S'Snowflake 4'
p218
aS'CGACGAAGGCGUAUAUGGAAAGCACAGAGUGAACACUGAAAAUCGAGAUGUGAAAAUUACAAGAUCAAGGAUCAUCUCCUAAAGGGGUGUUAUGAUCUCGUAAUUGGAUUCCACGUAUCAUAACCUUAAAGUCGGGGGUUGGAAAACGGGAUCUAGUUAGAGGAAACGGCGAGGUUUGAAGGAAAAGUAGAAGUGGCCUCGCGGGAAACUCUAACGGGAUAGCGAAAACGUAGAAUAGGAAACUUAAAGACCUAUGGUUUUCUAUGGAAAAGCUAUCAAGACACGAGAAAACGGGUGCAUCAAAGAUGAACAGCAAAGCACCACUCGGGAAACUGUGUCGUCUCUGGUAAAAACGUAUAGUCCCAUAGAC'
p219
aF0.8540540540540541
aa(lp220
S'Mat - Cuboid'
p221
aS'AAGGUAAAAGGAAGCAAAAGCAAACAAAAGAAAGAGGCAAAAGUAAGCGAGGAAAAUUAGCUUUAUAGCAAAAGUAAGCGACCGGGAAAAAGGAAGCCGUUAAGCAAGUAAGCCUGGGCUGUCGGUUGUUCAAAAUGGGUCGGUAGGUCGGUCGGACAAAAGCGCGUGAUCGGUGGGCGAGACAAAACCGGUCGAUGAGUCGAAGGGGGGAAAAAGUAACUGAGGAGCAGAGAAAGGGUAGUGAACAAAGAGAAUAAGCGUAAGAAAGAAAUAAAGAAACGGAUAGAAAGAAAGCAAGGACAAGGGAGCAAGUAGGCGGAAGCAACCAGUCGGAUACUUGCAUGGAAAGGAGACACAAUUAACGCAGACGCAGUCGGAAU'
p222
aF0.8763157894736842
aa(lp223
S'Misfolded Aptamer 6'
p224
aS'AAAAAAGAGAAAAAAGAUUAGCGGGCCACAAAAAAAGGUGAAAAGAAAAAGAUCGAAAAAAUUCAAAAAAAAAAA'
p225
aF1.0
aa(lp226
S'Snowflake 3'
p227
aS'UAGCGAAAACGAGAGCGGAAAACCGAAGAUCAGACCAAGACAAAACUCGAGUAGAAAAAUAGCAAGGCUAGAAAAUUUGCCGACAAAGGUCAGUCCCAGACCAAAACAAAAGUUGAUAUGCAAGCUUGCAAAGCAAGAAAACUAGUCGACAAAAGUCAAGGACAGAUCAAGACGAAAGUUGACAAGAAAACUAUCAAAGGUAGAAAACUAGUCGACAAAAGUCAAGUUCGAAAUAAGGGAAAAUCCGUGUAGAAAGCUAGCAAAGCGACAAAAUUUCUCGACAAAAGUCAAGAUUGUGUCAACACGAAAGUCGAGAACAAAAUUGGCAAAGCUAGAAAUCUACUCGCGAAAAUGCAGGACAAGAUCAAGUCAAAAGAUCUCAAGAAAACUCUG'
p228
aF0.8193384223918575
aa(lp229
S'Hard Y and a bit more'
p230
aS'AAAAAACUUCUCAGAUCUGAAAAGAUACGAGAUCCAGUUAGGUUAAAGGACCAAUAUACUAAAAUGUAUGGUGCGGGAUCGGAGUAAAAAAAAAAAAAAAAAAAAA'
p231
aF0.9716981132075472
aa(lp232
S'Mat - Lot 2-2 B'
p233
aS'GAAUGGGCUCGAGGUAAAAAGUCGUCGGUAAUCUAAAAGAAACCAAAAUCAAAAGAAAUCGGGAGCAAGCUGUCUGGGUCAAAAUUGGUGGAGGUAAAAAGCUAAAGCGAAACCAAAAUAAAAAGAAACGCGGGUAAAGCAAAAGCCCGGUCGGAGUCAAAACUAUUCUAAAAAUAAAAAGAUGAAGAAGAGAAAAUAAAGCUGAAGGAAGGAUGCCGAUUCAAAAUCGGUAGGGAUCAAAAUGAAAAGAGAAAACAAAAUAAAGGGAUGCGGAGAUUAACAAU'
p234
aF0.8028169014084507
aa(lp235
S'Shapes and Energy'
p236
aS'AAAAAGUAUCGGAUACCCAAAGAAAUUCCGUUAAUGAGCGAGAGCGGUAUACUAAAAGAAGUCUAAUGUCUGGGUCGAGAAAAAAAAAAAAAAAAAAAAAA'
p237
aF0.9405940594059405
aa(lp238
S"Spiral of 5's"
p239
aS'GAAAAGAGACUAGGAUAGAAAGAUAGAAAAGAUACAAAGAUAGAAAGAUAGUAUAUACGAAUUAUACAAAGAUAGAAAGAUAUAAGAUAGUAAGAUAGAAAGAUAGAAUAUACAAAGAUAGAAAAUACAAGAUCCUAGCUGCAUGAUUCUGAUACAGAGACGAACCCAAAAGGUUCGCCGCGUCUCAAAAAGGAUCUAAAUGGAUCUAAAAGUAGCAAAAUUUAUCAAAAAGCAUCAAAAACUAUCAAAAGGUAUAGAAAGCUAUCAAAAGCUAUCAAAAUCUAUCAAAAAAUAUCAAAAACUAUCAAAAAGUAUAUAAAAGUAUAAAAAUCUAUCAAAAACUAUCAAAAAGUAUCAAAAACUAUCAAAAACUAUCAAAAUGUUUCAAAAACAAAAA'
p240
aF0.9949622166246851
aa(lp241
S'Campfire'
p242
aS'AAAAGACCGGACCACAAAUACAAGAGUGAAAAAUACGAGAUGAAGCAUACUCGGCUUAGAGCACCGGUCGGGUAAAAGUAAACCCCGGGGGUCUCGCGCAGCGAAAGCGCCGACGAAGACUAAGGUAUUACGUAUCGACCCGCUACUAGUGGUAUGUGGAAGAUAGAUCUAAUGGUCGUCUCCUUUGCAGCGAAGUUUUCAGCAUUUAGGUC'
p243
aF0.8867924528301887
aa(lp244
S'Anemone'
p245
aS'AAAGUGCUCUAAUGAGCGCGGAUCGAAAGAUCCGCUUGUGAAAACAAGCGCUACGAAAGUAGCCAGGCCUAAUGGUUUGGAGUCGAAAGGCUCGAUGCGAAAGCGUCGGCUUCUAAUGAAGUCAGGGCCUAAUGGCCCGGGGUAUAAAUACCCCCACACGAAAGUGUGCAGGUUGAAAGACCUGGUUCUGAAAGGAGCGGUCGUAAAGGCGAUC'
p246
aF1.0
aa(lp247
S'Fractal 3'
p248
aS'AAAAGGUUUGCAAGGAAAAAGAAUAAAAGCAAUCAUACACCAAAAGCCCAAAACGAGUAAUAGGUAAAAAGAGCGAAAGCAAUAAGAGAACUAAUGCGGAAAACCUCGAGAGACAAAAA'
p249
aF0.9243697478991597
aa(lp250
S'Kyurem 5'
p251
aS'AAAAGUCCUUGAUGAAAAGACCGACAAAACAUAGACGAAAGACAAAAGGUUUGUCUAUGAAAAAGGGAGAUGUGCUCAAAGGGAAAAAAAAAAAAAAAAAAAAA'
p252
aF0.9230769230769231
aa(lp253
S'Snowflake Necklace ( or v2.0 )'
p254
aS'CAUACAGUUAUAUAUGGUUAGAGCCAAAAGCAUCAAAAAGAAUCAAAAAGAAUCAAAAAGAACCAAAAAGGACUAACAGCCAAAAGGGUAUAAACAGAAAAAAUAAUCAAAAAGAAAAAAAAGUCAUCAAAAAGAACCAAAAAGCAGAUUAAGACAAAAAGUCAGAUGGAGUAAAAACCAUGAAAAACAAGGAAAAACCAUCCAAAAGCAGAGAAAACCGCCAUCGGUCAAAAAGCCAUAAACACCAAAAAGCAACAAAAAGUAGCAAAAGGCUUGAAAAAUAUUGUAAACUGAGUUUAAGCCAAAAAGGGAGAUAGAGCAAAAAGCGGCGAAAAGAAGCGAAAAGCAUCGAAAAGGAGUUAAACGUACAAUCAAUAUAUAAUUGUAUG'
p255
aF0.8868894601542416
aa(lp256
S'Methaqualone C16H14N2O Structural Representation'
p257
aS'AAAAAAAGAUCUGAUCAUUUGGACGAAAGUCAGACACCGAAAAUGGAGACAGACAAAAGUCACACAAGGUAAAUCUAGCCAAAAAAAGGCAGUUACUCAGUCACAGAGUAUUGGAUCAGCUCAAAGAAACCGACGCAAAGAAAAAAAAAGCUAGAGAGAAAAAAAUCUAGAAAACUAGGCAAAAAUCCACGUCAAAGAUCUCAAACUGACGUAGACAGAUAGAGACAAAAAACAAAAGUUAGUCGGACAAAAGUCACUGAGACAAAAGUCCCCCAGCCAAAAGGCACUAAUAGGAGAAAACUAGGCAAAAGCCACAAAAAAUUGCAGAGUCUGCUCAAAGAGCUGAUCGGGGAAA'
p258
aF0.8816901408450705
aa(lp259
S"Cat's Toy 2"
p260
aS'AAAAGAGAUUUGUAAAGCAUCUAAAAAAAAAAAAAAAAAUGUCCUAAAGGGAAACGGAACUAAGGAGGAAAAAAGGUAAAAAAGCUAAAUUUUGAAA'
p261
aF0.979381443298969
aa(lp262
S'Zigzag Semicircle'
p263
aS'AAAUUUUUCUCUAGAAAAUGCCCACGAGGAUAAA'
p264
aF0.9411764705882353
aa(lp265
S'Short String 4'
p266
aS'AAAAAAUCACAAUGAAAGAAAGAUCAGAAAAAGGGAAACAAAAGGAAGCUAAAGGUACUCAACAAACAUCGAGCCGAAAAAAAAAAAAAAAAAAAAA'
p267
aF0.9381443298969072
aa(lp268
S'Gladius'
p269
aS'CGAAAGAAAACGAGAAAGAGGGAAGAAAAGACAGACAAGGAUCAAAAGAUCAGAUACAAGAGACAUGACAUCAGGAGAUCAAGGGAUAUAGGAGAGAUCAGAUACAGAUGAUCGUAAGGAUAAAGUCCAGCGUAUAUCGAUAUCGAAUCUCCACUAUAUUAAAAGAUCAAAAGAUGAACUGUCAACGGUAUCAGUCAAAGACAGAAUCAGACGACGCGAGAUAAUAAGAUCGUAAGCUAUACCAAAUACACUAUUACAUGUCAGACAGAUAUGAAAACAUAUCAAGUCGAAUAUAGGAUAAGGUAUUAAGUAUAGCAAAAGAUCAAAAUAUCAGAAGUCACAAGGUUCAUAACAAAAGUUAAAAGUCGGUCGAAUAAGGUAACAAAAGAAGGAACAAAAC'
p270
aF0.9075
aa(lp271
S'Thunderbolt'
p272
aS'GGUAGAGACAAAAAAAAGGGCGGGCGGAGGGGGGAAACGGAGGUACCAAAGUCAAAAUAAAAAAGAUCAAAAAGAUCAAAAAAGGAAUGCGUUGAAAAAAUAAUUAAAAAACAAUUAGAGGUGAAAAAGGAAACAGGGCAAAAAGUAAAAAGGGGUGAAAAAUAGGAACAAAAAUGCAAUUCUCAUAAAAAAAGUGUAGCAAACCAGAUCAAAAGAAGAACGAGCAAAAAAAGGCUCAGGGGGAUAACAAGGUUAUCACAAAGCAAAAAAAAAAACAUAGCUAAAAAAAUAGAGCAAAAGAAGAGCAAAAGUAAAAAAAAAAAAAGGUUCUUAACGAUAAAGGUAUCUCAAAAAAAACGGCAAGCGCAAAAAUAAAAAAAAAGUUUCGUCUA'
p273
aF0.9540816326530612
aa(lp274
S'Mutated chicken feet'
p275
aS'GAAAAAAGUAGCUGCAAAACUCGAAAUGAAAGCGAAACGUCAAAAAAUUGGCAAAGCAAAGAGUAGCAGCACCAAAGGAGCAAAACAAAGCUCAAAAAAA'
p276
aF0.83
aa(lp277
S'Chicken Tracks'
p278
aS'AAAAAAAUGAGAUCCCUCGGAAACGAGUAGAGAAAAGUUUCGAGAGGAAAACCUCGGAUCUCUGGAUUCUCGAUGUAGCAGAGCAAACUACGAUAGGGAACCUGGACAAAAAAAAA'
p279
aF0.9310344827586207
aa(lp280
S'Looking Back Again'
p281
aS'GAGAAGACAUGGAAAAAGAUAUCAAAGAUAUCGCUAUGAGACCAGAAGACAAAGUCCUGAGAUACAAAGAUCAAAAGAUCAAAAGUAUCGAGUCAAGCCAGGCUCGGCAAAAAGAUGCAAAAGUAUCAAAAAAGCCGUUGCGAUACAAGGUAUCGAUACAAAGUAUCGAGAUCUGAAGGGAAAGUGUUUGAGUAGGACAACCUAAGCUGAUGAACCGCAGACAAAAGUCAAGAUCUCAAAGAAUCGAGUAGAUAGAACGGUAAAAGGAGAUAGAAAAAAAAAAUCAAAAGGAUCCUAUAAACUCACCCUGCUCAAAAAUGGCAGAUCAAAAGAUCUGAAGGCGGAAAGCUGAUGCAAAGUAUCUAGCCCCUAAAGAGCCUAUCAAAUUC'
p282
aF0.9357326478149101
aa(lp283
S'Multilooping 6'
p284
aS'AGUAUCGAGGGAUGGGAAAGUAUAGAUACAAAAGUAGCAUAGUUCAUUUUAAUACGGGUAUAUGAAAGUAUACGACGGAGAA'
p285
aF0.926829268292683
aa(lp286
S'Cesspool'
p287
aS'GAGGAAGAAAGCAAGACGGUUGAUACAAAGUAAACGUGUAGCAAAGGGCAAAAGAACGAGAUUAAAAAACAGAGACGAAAGAACAACAACGGUAGGAAAACAAGAGGAUAUAGUCAAAGGAAAAAAAAAGUCAAGGGGAAAACAAAAAUUUAAAAAUAUAGAGUUAAAAGACAAAGAAGGGGUAAAGAAAUAAGAGGGUAGAGAGGAAUUCGGCGAAAAGUCAAAUGGAAAAGAGAAGGGUUAAUAAAGAGAGUGGAAAUACAAAUCAACCGGUAAGAAAACAAGUGGGUCGACCCAAAGAGAACAAAACCACAAGGGGUAAUUAACAGGGAAUAAGAACAUAGCCCAAAGACAAAGG'
p288
aF0.6983240223463687
aa(lp289
S'Hoglafractal'
p290
aS'AAGAGAAAGGUACAAAAGAUACGAAAAAGUAUCGUACUGUGAAAAGAGCAAAAAGAUAACUCCAGAAUACGAAAGUACUGGGAGGAAGUCUAAAAAUGAAAAAACAUUAAGCAACAACUCAAAAAGAGGUUGAAUCAAAGCCUCAGACCGAAAGACAAUGGUAAAAUUCAGUCACAGCAAAAAGCGUCAGAAAACUGUGGUACAAAAAGUAUCUAAAAUGAACAACAAAAAGUCUCAAAGGGAGAUAUGAAAAAAGUCAAAAGAGACGCUAAAUGCAAGGAGAUACGAAGUAUCUCAAAAAAACAUAUCAAAAAAGUAACUAAAAGCUCAAAACUCAAGAUAACCAAGAAGAGUUCAAACGCAAAAGCUCAAAAGAGAUAGCAAAGAUAUCCGAGCCUAC'
p291
aF0.905
aa(lp292
S'Bullseye'
p293
aS'AAGUUGGUACGAACUUCAAGAAAAAGUUUUAAGAGAUAUGUACCAAAAAAAAAAUAGGAUUAAGGCCUAAGGCUGAAGGCCAAUGUUGAAAAUCCUGAAAAAAAAAAGGGUAAAAUCGCAAGAAGAAACUUCAAGAAGAAAUGACUUUAAAAAAAUCCGGGGGGAAGUUUAAGCUAGAAUAGUGAGAUUGAAGAACCCGUAA'
p294
aF0.8415841584158416
aa(lp295
S'Shooting Star'
p296
aS'UCAUUGGAUAGGGAUAAGAGGAGGAUCGUUCAUAAAGUAAAAGACUUAGGGAAGACGACCAAUUAUUCCAAAUGCGGUAGGAUCGUUCACAUGUAGAUAGAUGAUUAAAAGAUCGUACGUCGAUAAAGGGGAGAAAACAAACAGAAAUAGCAUCGGUCCAUUGAAGUAAUGAUAUAGAAGCGAGGUUAAAAAUUGAGGUCGGCUCAACGCAGAUCAAGGCAGUUUUAUAAACUGCAGAUGGAAAGAAUCGAUCCAUUUAGAAACUAAAUGAGAUUCAAUGAGAAGCUUACUGAAGUAAUGAGGGAGGGAGAAACCCAUGUUACUAAAAAAGAACGAGGGGUGACGACACAAUCUGUUCGAUGAA'
p297
aF0.760989010989011
aa(lp298
S'Teslagon'
p299
aS'AAAAAAGUAAAAGAGGAGACAAAAAAACCACCUGGGGGGGGGGGGAUGCAAACAGUAAGGAAAAAAAAAAAAAAACUAGGAAAAGAGGUCGGAAAAAAAGAGGGGGGGGGGGGGAAUCAAAAGAAUCAUCAAAAAAAGCAGUGGGGGGGGGGGGGAAGCAAACAGAUGAGUAAAAAAAAAAAAAUUUAGCAAAAGAAGGACAAAAAAAAGUGGGGGGGGGGGGGAAACAAAAGAAUGAGCAAAAAAAGCAGCAGUCGGGGGGGGGGAGCAAAUACCAUCUAAAAAAAAAAAAAAAAGUGCAAAAGAAGCAGUAAAAAAAGGAAAAAAAAAAAUUCGGGGGGGGGGGGGAAGAUCCGAAAGAAACAUUAAAAAAAAUAAAAAA'
p300
aF0.8743455497382199
aa.