(lp0
(lp1
S'Simple Hairpin'
p2
aS'GGGGGAAAAAACUCUC'
p3
aF1.0
aa(lp4
S'Arabidopsis Thaliana 6 RNA - Difficulty Level 0'
p5
aS'GGCGGUAAAACGAGAAAAAAAAAAACUCGGGGGGUGAAGGGGGGGGGGGGGGGGGGGAAGGGGUUGAAAAAAACUCACUCUCCACUCUCUCUCUCUCGACGCUCUCCGCUAUUGUC'
p6
aF1.0
aa(lp7
S'Prion Pseudoknot - Difficulty Level 0'
p8
aS'GUGAGGAGUGUGAAAGUACCCUACGCAAAAAAAAAA'
p9
aF1.0
aa(lp10
S'Human Integrated Adenovirus - Difficulty Level 0'
p11
aS'GGGGGGCAGGGUGUUGGGCGGUAAAAAAAAAAGGGGGUGAGGCGAAAAAGGGUGGGUAAAAGAGGUAGGGGGGGUAAAAAAUCUCUCUCUCUAAAAACCCCUCCAAAACUUUUCAAAACUCACAAACGGGGCAAAAAACGUCUCGCUCCAAAAAAAAAAAUCUGUCCUAUACAAAAGCUUUCAAACUCCAAA'
p12
aF0.9583333333333334
aa(lp13
S'The Gammaretrovirus Signal - Difficulty Level 0'
p14
aS'AAGAGGGGCGGUGAAAACACCGCAACGCAAAAAAGGGUACGGGAGUCGGGGGGGAAACUCUUAAAAUGACCCCACCCGGAGGUGAGAAAAAUUUCAUCUAA'
p15
aF1.0
aa(lp16
S'Saccharomyces Cerevisiae - Difficulty Level 0'
p17
aS'GGCUCACGGGAUAAAAAACCUCAGGGAAAAAAAAAAAAAAGCGAAAAGGGCUAAAAAAGGGCUCCCGGCUAAAAGUCCGGCUACUCUCAAAAAAAGGGGGCAGAAAAAAAAAAAAGCUAAAAAGUGGGAAAAAAGCCCACGGCCGGGAAGAGAGAGCGAAGGGCGAAAAAAAGCUCGGUUAGAAAAAAGUUGGCCAAAGGUGGGUAAAAAUUCCGCGGCUCGCAAAAGAUGGUAACGGUUAAAAAAAGAACCUUCUGGAAAAAAGCUGGAUAAAAUUGGGUAAAAAUCUCAAUAUUGUCGAAUGUGGGAGAAGCUGAAAAAAAAUAGCGGGAGAGAAAAAAUUCACUAAAAGGGGGAAAAAAACUCUCCGGUCAAUAAA'
p18
aF0.899736147757256
aa(lp19
S'Fractal 2'
p20
aS'AAAAAGGUGCGGGAAAUGGGGGGGGGGAUGGUUAAAAAAAAUGCCAAUGGUGAAAAAAAAAACGCCUGGGAGAAAAAAAAAACUCCAACCCUCUCUCAAAAGUGGGCGGUAAGGAAGAAAAAAAAAGCUUCAAGUUCAAAAAAAAAAGAACAAGGGCAAAAAAAAAGGUCCAAUACUGUCUACAAAUCGGGGGGAGAAUGCGUAAAAAAAAUUGCAAGGGGUAAAAAAAAAAACCCAACCAUAAAAAAAAAAAUGGAACUCUCUCUGGAAACUCGCACCAAAAA'
p21
aF1.0
aa(lp22
S'G-C Placement'
p23
aS'GGCGAAGCGUCA'
p24
aF1.0
aa(lp25
S'The Sun'
p26
aS'GGCAGCGCGGGGAGCUCCAAUGCAUUAAAGAGAGGUGGGGGAACUUCAAGUCUUCGAGGGGUCACGGCUAAGAGUCAAGUGCCCAAGGCAAAGGGCGGAAGCCGCAACUUUGCAAGGCGGGGGAGGGAAACUCUAACGUACCAAUGGGUGUGGGGGGAACUCUAAUGUCCCUAAGCGAGGGGGCCAAGGUCCAACCUUGCAAUGAGAGAGAGGAAAGUGCUAACUUCGCUAAAAGGGUUCAGUAAGGUCUAAAGCGCU'
p27
aF0.813953488372093
aa(lp28
S'Frog Foot'
p29
aS'AAAAAAAAACGGGGGGAACCCUUCGGAAAACCGACGAGGAACUCG'
p30
aF1.0
aa(lp31
S'InfoRNA test 16'
p32
aS'GGGGGCACGGGGGCGAAAACGCUCACCAGAGUCUCU'
p33
aF1.0
aa(lp34
S'Mat - Martian 2'
p35
aS'GGGGGAAACUCCAAAUGAGUGUAGCGGUGGGGAAAAAACUCACUGGCACUCAGAUCGGUGGGGGAAAAAGGGGAGUGUGUGGGGGAAAAAACCUUAUGACUCUCCGAAGGGUGGGGGGGCGGAAAAAAACUGUCUCACUCGCUCAAAAAACUCUAUUGUAGGGGUAGGGGGGGGCGAAAAAAGUCUCUCAACUUGCUCAAAAGCUGAAAGGCU'
p36
aF1.0
aa(lp37
S'square'
p38
aS'GGGGGUGAGUGGGACCGGGAGAGCGGGAACUGUUCAAAAUUCCGGUAAAACUCACUAAAACACUCUC'
p39
aF1.0
aa(lp40
S'Six legd turtle 2'
p41
aS'AAAAACAAAAGGAAAACGAAAAAAAAGUUAAAGAUAAAUCAAAGGAAAGCCGAAUUAAAAAGAAAGGAAAAAUAAGCGAAAAAAAAAAAAAAAAAAAA'
p42
aF0.9591836734693877
aa(lp43
S'Small and Easy 6'
p44
aS'GACCGUAAAUCAGUUCGAAAAAAAAGAGAC'
p45
aF0.8666666666666667
aa(lp46
S'Fractile'
p47
aS'AAAAAAAAAAAACGAAAUCGAAGGCAAAGGGAAACCAAGGAAAGUAAAAACGAACCAAGGAAACCCAAAGCAAGGAAAACCGAAAAAAAAAAAAAAAAAAAAAAA'
p48
aF1.0
aa(lp49
S'Six legd Turtle'
p50
aS'AAAAAGGAAAAGUGAAAAGAAAAUCAAAAAAAAAACGAAAAUCAAAUCUAAAAGCUAAAGAAAAGUCAAAAUUGAAAAGAAAAUCUAAAAAAAAAAAAAAAAAAA'
p51
aF0.9428571428571428
aa(lp52
S'snoRNA SNORD64'
p53
aS'GUGGGGAAAAAGGGAAAAGGGAAAGGGGGAAAAAAAAAAAAACUCUCAAAACUCAACUCAACUCUAU'
p54
aF1.0
aa(lp55
S'Chalk Outline'
p56
aS'AAAACGGUGUUGGGGGAAACCACUAAGGUAGCAUAAUUGCACCGGGCACGAAAGCGAUGCCAGGGUGGAAACGCACCCGCCAAAAAAAAAAAAAAAAAAAAAAA'
p57
aF1.0
aa(lp58
S'InfoRNA bulge test 9'
p59
aS'GCUAGGUUGAGAGAUGGUGUGGAAACGCGCCGCCCACCUAGC'
p60
aF1.0
aa(lp61
S'Tilted Russian Cross'
p62
aS'AAAAGCGGCUCGUAAAGAUAACUUGAGGGCGAAAGUCCGGGGGUAAUCCCUUCCAUUGAAACACGCGGACCGAUAAUUCCCGCCGAAAAAAAAAAAAAAAAAAAA'
p63
aF0.9238095238095239
aa(lp64
S'This is ACTUALLY Small And Easy 6'
p65
aS'AAAAAAAAAAAAAAAAAAAAAAAAAAAAAAAAAAAAAAAAAAAAAAAAAAAAAAAAAAAAAAAAAAAAAAAAAAAAAAAAAAAAAAAAAAAAAAAAAAAAAAAAAAAAAAAAAAAAAAAAAAAAAAAAAAAAAAAAAAAAAAAAAAAAAAAAAAAAAAAAAAAAAAAAAAAAAAAAAAAAAAAAAAAAAAAAAAAAAAAAAAAAAAAAAAAAAAAAAAAAAAAAAAAAAAAAAAAAAAAAAAAAAAAAAAAAAAAAAAAAAAAAAAAAAAAAAAAAAAAAAAAAAAAAAAAAAAAAAAAAAAAAAAAAAAAAAAAAAAAAAAAAAAAAAAAAAAAAAAAAAAAAAAAAAAAAAAAAAAAAAAAAAAAAAAAAAAAAAAAAAAAAAAAAAAAAAAAAAAAA'
p66
aF1.0
aa(lp67
S'Shortie 4'
p68
aS'CAGAAAUGAGGGAAACU'
p69
aF1.0
aa(lp70
S'Shape Test'
p71
aS'AAAAAGAGGGGAAGGGGGAAAAAAAACUCUCAAGGCACGAAGGGGGAAAAACUCUCAGGGGAAAACUCCAUUGGCCAACUCCGCAAAAAAAAAAAAAAAAAAAA'
p72
aF1.0
aa(lp73
S'The Minitsry'
p74
aS'GAGAAAAAGUGGAAAAGGGGAAAAACAAAAAAUUGUAAAAAAUCAAGUGUACCCACGCGCUC'
p75
aF1.0
aa(lp76
S'stickshift'
p77
aS'AAGGGGGGGGAAAAACCACUCUCCAA'
p78
aF1.0
aa(lp79
S'U'
p80
aS'AAAAAGGACUAGAGAUGAGCUGAGGCGGCGAAAGUCGCUUUACCACCAGUCCGAAAA'
p81
aF1.0
aa(lp82
S'Still Life (Sunflower In A Vase)'
p83
aS'AAAGGGCAACGGCGAAAAGCGCUGGAUGACUAAAAGUUGAAUCGGGUAAAACACCGAAGAUCGAAACUUUUAAGGACGUAAAUCGUUCAAGAGUGUAAAUCACUCAGGCGGAGGGUGGGUGGGGGGAGUGUGCGAAAAAGCGCGCAGUGGGAAAAAAAAAAAAAUGACAAAAAAAAAAAAAAAAAAAAAAAAAAAAAAAAAAAAAAAAAGUCGAAAAAAAAAAAAGCCCAUUAGGGAAAACCCUGAACUCCUCUCGCUCGCUCUCUGUCAAGGUAAAAAAGAGCUGAAUUUCGUAAAUCGAAAAAGUGCUAAAAGGGCGCAGGUCGGAAAAGCUGAUAAGAUGGAAAACUGUCAUGGGGUAACAGGUCAUGGUCCGAA'
p84
aF0.9312169312169312
aa(lp85
S'Quasispecies 2-2 Loop Challenge'
p86
aS'AAAAAGGGGCAGGAACAACAAAAGUUGAAUCUGGGCGGAACAAGGGACUGCAAUGGAACAACGGAAAAACUGAAGAGCUAUCUCCAAAAAAAAAAAAAAAAAAAA'
p87
aF1.0
aa(lp88
S'Corner bulge training'
p89
aS'AUGGGGGGUGAGAAGCUCACAAAACUCUCGG'
p90
aF1.0
aa(lp91
S'Spiral'
p92
aS'AAAAUUGUGAUGGGGGUCGGCAGGGGAUAGGAUGGGCGGACACGCAUUAGGACGGAAAACGCCAAGUUGCCCCCACUUACCCUUUUGCUCUCACACAUAAAA'
p93
aF1.0
aa(lp94
S'InfoRNA bulge test'
p95
aS'AAAAAAAAAAAAAAAAAAAAAAAAAAAAAGGGGAAAAAAGGGGAAAAGGGGAAAGGGGAAGGGGAGGGGAAAAACCACCACCACCAACCACCAAACCACCAAAAACCACCAAAAAACCACCA'
p96
aF1.0
aa(lp97
S'Worm 1'
p98
aS'AAAAAAAGAUAUCGGGGGGGGUUUGAAAAAACAACGCAUAGUAGU'
p99
aF0.9111111111111111
aa(lp100
S'just down to 1 bulge'
p101
aS'AAAAAAGACAUGGAGGAAACUCUAGGGGGAAACCCGGUACUGAAAGUGGAGCUAAUGGGCCGCGGAAACGCACCACAAAAAAAAAAAAAAAAAAAA'
p102
aF1.0
aa(lp103
S'Iron Cross'
p104
aS'ACGGAUCGUAAGGGGGGGAAGCUCAGGAUAAUCUUUCACAAAGGGGAGGAAAACAUAGUGGAACACACUUAAAGGGAUUGAAAACACAGAGAAACUCAGUCAAUCUCUCGGAAAAUCACACAA'
p105
aF0.8292682926829268
aa(lp106
S'loops and stems'
p107
aS'AAAAAGGGAGGGAAAGAGGAAAGGGGAAAGGGGAAAAAAAAGGGGUCAAAAAAAAAAAAGACUCAAGCUCCAAAAGGUGGAAAAAAAAACACCAAACUCCAAAGGGAAAAAAAACUCAAACUUCAAGGAAAAAGCCAAACUCUCUCAAAAA'
p108
aF1.0
aa(lp109
S'Water Strider'
p110
aS'AAAAAGGAGGAAGGGGAACGCGAAAGUGCAGUAAUCUGUCCAAAAACCUGCGGAAACGCGUGAAAACACAAGGCCAACCGCCGAAAAAAAAAAAAAAAAAAAA'
p111
aF1.0
aa(lp112
S'The Turtle(s) Move(s)'
p113
aS'AAACGGAAAGCAAAAGAGGGGGGGAAAAAAAAACCCUCUCUCAAAAAGGUAAAAAAUCGGAAAAGGGAAAACCCAAAUGGGGAAAAAAGCUCUGAAAAAUGAAACCAAAACCGAAAAGGGAAAACUUAAAAGGGGUGAAAAAAACACUCCAAAAGCAAAAAGGCAAAAAGGGGAGAAAGGAGGAAAAAACUUAAGGGGAAAAAAACCCAAAGGGUGAAAAAACACUCAAAGGCGAAAAACGCCAACUCUCCAAAAAAAAAAGAAAAAUAAAACAGGAAAUCGAAAAAGGGGGAAAAAAAAAACUCCCAAAAAACAU'
p114
aF0.9746835443037974
aa(lp115
S'Adenine'
p116
aS'CGGGGAGGGGUGGGGUGGGACGGGGGAGGGGCGGGGGGGGAAAACGAGUAAAAAAAUGCUCGACUCUCCAGGGGUAAGCGGUAUGAAACAUACUGAUCCUACGCUCCAGGGCGCUUUGAGAAACUCAGGGAAACGCUCACUCUCGAAAACUCGCCGAAACACUCCGAAGCUCUG'
p117
aF1.0
aa(lp118
S'Tripod5'
p119
aS'AAAGUGGGAGGAAAACUCCCCUCUAAAUGGGGCGCUAA'
p120
aF1.0
aa(lp121
S'Shortie 6'
p122
aS'GGGAAACCAGCAAAAGCAGCAAAAGCAGGGAAACU'
p123
aF1.0
aa(lp124
S'Runner'
p125
aS'AAAAAGCCAAGGUGGAAAAGCACGAAGUGUAUGCCGAAGAGUCGUGGUGUAACGCAAAUACCCGGCGAACUUGAAAAGGUCUCAAACGAUAGUAGUAAUCUGUUCGACGGCAAAAA'
p126
aF0.9396551724137931
aa(lp127
S'Recoil'
p128
aS'AAAAAGGGCGAAGGAAGGAAGGGAAGAUAAGCAACGAAACGGGCAAUCACUCACCACCACGCUCAAAAAAAAAAAAAAAAAAAAA'
p129
aF1.0
aa(lp130
S'[CloudBeta] An Arm and a Leg 1.0'
p131
aS'AAAAUGGGACGUGAUAAUUCAACGCUGAUCGAAAGACAGACUCUAAAAAAAAAAAAAAAAAAA'
p132
aF1.0
aa(lp133
S'[CloudBeta] 5 Adjacent Stack Multi-Branch Loop'
p134
aS'UUGCCGGUGGAAACACCGGAUUGAAAAAUCCGGGCGGAAACGCCCCCGGUAAUCUGGGGCAAA'
p135
aF1.0
aa(lp136
S'Triple Y'
p137
aS'AAAAAGUAGGGGCAUUUAAAGGGGUCGUCGAAAAGUUUUUUGCUGACCAAAAGUGGUCGGGGAAACACUCGGUCUACGAAAAAAAAAAAAAAAAAAA'
p138
aF0.8969072164948454
aa(lp139
S'Misfolded Aptamer'
p140
aS'GGUGUAAAAGGCGCGGAACGCGGGGAAACCAAAAAAAAAGCAAAAUCACU'
p141
aF1.0
aa(lp142
S'Flower power'
p143
aS'AAAAUGUGCGGCGAAACGCCACGGAUGCGGAAGUCUAAGGGGUAUCGCCGAACUAACGCAGUCACGUGCGAAAAGUCCAUACUAAAAAAAAAAAAAAAAAAA'
p144
aF0.9019607843137255
aa(lp145
S'Kudzu'
p146
aS'AAAAGACCGAAAGACCAUGACGUGAUGAAGCAUCGUGAAGAGAGCGAAGCAUUUCAAUCACAACGGGAAUUGGCAGUACAUAAAAAAAAAAAAAAAAAAAA'
p147
aF0.8415841584158416
aa(lp148
S'"1,2,3and4bulges"'
p149
aS'AAAAGUUGGAUAGUAGAAAUGAAAAUUGUGUGAAAAUGAUAUUAGAAAAGGUCAAGGAGAGAAAAGUAUCGAAAACCAGGAAACCAAAAAAAAAAAAAAAAAAAA'
p150
aF0.8857142857142857
aa(lp151
S'medallion'
p152
aS'GGGGGGACUGGUAUAAUCAAGGGAGGUAAAGGUCGGGUGAAAAUCAGAGUUGAAAACGAUUCAGGUAAAAAUCAGGGGCGGAAACGCUCCAGGCGAAAGUCAGGUGAAAAGCAGUGUGGAAAACUAUGCAGGGGAAACUCAGCGGCGAAAACGUCGCAGGUAAAUCUCAGGCAAAACUCUGGGCGGGAAACUGUCCCGGGAAAACUCAGAGGCGAAAACGCUUCAGUAAAAAUAUGAGGGAAACUUAAGAGGGUAAUCCCUCUGCCUAAAAGGCAGGGGAGAAAGCUCUCCGGGGUAAUAACUGUCUAAUGGCGGAGGGCAAAAGUCUUCAUACUCU'
p153
aF0.8635014836795252
aa(lp154
S'[RNA] Repetitious Sequences 8/10'
p155
aS'AGGAAAAAAGGAAAAAACCAAAAAAGGAAAAAAGGAAAAAACCAAAAAAGGAAAAAACCAAAAAACCAAAAAACCAAAAA'
p156
aF1.0
aa(lp157
S'Documenting repetitious behavior'
p158
aS'AAAAAAAGGAAAAAAAAAGGAAAAAAAAAGGAAAAAAAAAGGAAAAAAAAAGGAAAAAAAAAGGAAAAAAAAAGGAAAAAAAAAGGAAAAAAAAAGGAAAAAAAAAGGAAAAAAAAAGGAAAAAAAAAGGAAAAAAAAAGGAAAAAAAAAGGAAAAAAAAAGGAAAAAAAAAGGAAAAAAAAAGGAAAAAAAAAGGAAAAAAAAACCAAAAAAAAACCAAAAAAAAACCAAAAAAAAACCAAAAAAAAACCAAAAAAAAACCAAAAAAAAACCAAAAAAAAACCAAAAAAAAACCAAAAAAAAACCAAAAAAAAACCAAAAAAAAACCAAAAAAAAACCAAAAAAAAACCAAAAAAAAACCAAAAAAAAACCAAAAAAAAACCAAAAAAAAACCAAAAAA'
p159
aF1.0
aa(lp160
S'7 multiloop'
p161
aS'GGAAGGCUGAAAGCUUCCCCACCAAAGGGUGUUAGGUGAAAAUCUAGUGGUGAAAACCGCCAUGCGAAAGUAUGCUCCUGAAAGGGAGGUCC'
p162
aF0.9782608695652174
aa(lp163
S'Kyurem 7'
p164
aS'AAAAAACUAGUGGGACAUUGUCGACGAAACACUUAAGAAUAGAUUUGCGAAUAAGAAGUAUUAAAGCGUUGGCCUAUAUAGUAAAAAAAAAAAAAAAAAAAA'
p165
aF0.9215686274509803
aa(lp166
S'JF1'
p167
aS'GGUCGGGGGGGGGGGGGAAGGGGGAAAGGGUGGGAAGGGUGAAAGGCGGUUGGGGGGGCGGGGGGGGGGGGGAAAACUCUCUCUCUCUCGAAGGGGAAACUCAGUGUGGGGGUAAUCUCUCACACUAUGGGGAAAGCUCCAACUCUCCUCUGUCACACUCGCUUACCAAAGGGGGGGGAAAAACUCACUCUCAAGGGGGGGGGGGGGGGGGGGGGGGGUAAUCUCUCUCUCUCUCCACUCUCUCUCUAACGGGGGAAAAAACUCUCCGGGGGGGGGGAAACUCUCUCUCGAAAGGUCAAAAGGCCAACUCCCGACUCUCACGGUCGGGACGGAAAACUGCCCAUCGAGGCGCGGAGUAAUCUCUGACGCUACUCCACCCAGGCCAAA'
p168
aF1.0
aa(lp169
S'multilooping fun'
p170
aS'GUUGUAUGUUACGGGUGAAACAUGGAUAAAAAUUAC'
p171
aF0.8055555555555556
aa(lp172
S'Multiloop...'
p173
aS'GGCCGUGAUUGGUUAAUAUCAGGUAAAAGCCAGAGAAAGUUCUGCUAAAUAGGUGGCGAAAGUCUUGGGAAAUCAUCACGAAGGUCGAAAAAAGUUUCUCCAGAGUGUUCU'
p174
aF0.8558558558558559
aa(lp175
S'hard Y'
p176
aS'AAAAUGGUAGUAGGCAUGCGGAAACGCAUGCACGAAGGGGGUGGGUAAUUUCACUCUCUCGUUUAAAA'
p177
aF0.9705882352941176
aa(lp178
S'Mat - Elements & Sections'
p179
aS'AAAAGGGGGAGAAUGGGCUGAGAAGUGAGAAGGUGAGCGGUGUAAUUGUAGACUAUCCGCCGUAGAAAGGCGCCAAAAACGCGCUAAAAAAAAAAAAAAAAAAAA'
p180
aF0.9809523809523809
aa(lp181
S'Chicken feet'
p182
aS'AAAACGAAAAGCUGAAAAAAUGAAAUGAAUAUCAGAACGAGAAAAGCGGGAAGCCGAAUGUCAAAAA'
p183
aF0.9104477611940298
aa(lp184
S'Bug 18'
p185
aS'AGAAGUAGAUCGAAGCAUAGAGCUAUGAAACAUACUCGAUACGAAUAAAGUCA'
p186
aF0.9622641509433962
aa(lp187
S'Fractal star x5'
p188
aS'AAAAGGGGAUGGGUAGGAGAAAACUCCAAGGGGAAAACCCCAAGCCGGAAACGGCAAGGCUGAAAAGCCAUCUCAUUCCAAAAUGGGGAGGGGAGGGGAAAACUCCAACGCGAAAACGUGGAUGACAAAAGUUAAACGGGUAAUUCCGAACUCUCUCCUAAAAUGGCGGGGAAGGUGAAAACACCAAGGUGGAAACGCCGAUGAGUAAACUCAAACUGGGAACUUAGGACUUUGUCAGAAAACGGUGGGGGAGGUUAAAAGGCCGAGGGGAAAACUCCAGGGGUAAAGACUCAAGGUGGAAACACCGACUCUAUCGAAAAAGGUGUUGGGAGGGGAAAACUCCAAGGUGAAAACACCAGUCGGAAAGCCGGAAGCGGAAAACUGCGACUAGCACCAAAAA'
p189
aF1.0
aa(lp190
S'Crop circle 2'
p191
aS'GUAAAUGAAAAGGGAAAGACAAAAAAAAAGUAAAAAAAAAAAAAAAAAAAAAAAAAAAAAAGCAAAAAAAAAAAAAAAGUAAAAAAAAACUUAAAAAACAAAAAGCAAAA'
p192
aF0.9636363636363636
aa(lp193
S'Branching Loop'
p194
aS'GGGGCUCAAAAAAUACCGGAAAGCCGGUGGACCAAAAAAA'
p195
aF0.95
aa(lp196
S'Bug 38'
p197
aS'UGAAUGAAGAGGCGUAAAGAGCGCUAUCGCAAGGCU'
p198
aF0.9444444444444444
aa(lp199
S'Simple Single Bond'
p200
aS'AAAAAAGGAAAAAAAUGGUUGAAAAGGCUUAAAAAAAACAAAAAAAAAAAAAAAAAAAAAA'
p201
aF1.0
aa(lp202
S'Taraxacum officinale'
p203
aS'GUGGGAAACAUACAGUGGGAAACACGCAGGGGGAAACACUCACGGCAAAAGAAUCGGCGGGAAACACGUAGGGAAAAACACACAGGGGAGGGGUGGGGGCGAGAGCAAAGGCCAUAGGCUCAGUGGGAAGCGUUGGGGGAAUGCGUGCAAGGUAUGCAACUCCCGAUGCCUUGAGGGCUUAAAAGCUUCCGAGCUAACAAACGCUCUUUUUCGGGGUAAAGGACAUAUGUGAAAACAGCGUCUGGAAAGCACGGUCGGGGAAACUUUGUUGGAAAAAAGCUC'
p204
aF0.8581560283687943
aa(lp205
S'Headless Bug on Windshield'
p206
aS'UGGAGAUAAGGUUGGGUAAGGAUAGAAAAAAAAAAAAAAAAAAAAAAAAACUCCCCGAUGUCAGGAAUGGUCCUUUGAGCAGAACUUAAAAAGAGGAAAUUAAAAAAAAUCUGAAAAAAAAGGAGAGGAAAAAACGAGCGCGAAGCUACAGAAGGAAAAAAAAAAAAAAACUUAACUAAAGCAACGAGGUGCCCAAAUGA'
p207
aF0.905
aa(lp208
S'Pokeball'
p209
aS'AAAGGGCUGGAAAAGCAAGGAAGGGAAGGAAGGAAGGAGAGAAGGAAGCAAAGCACCAACUACCACCAACCGCCCACCAGCCUAGCUCAAAAAAAAGGGGGGGAAAAUGAAGGAAGGGAAGGAAGGAAGGAAGGAAGGGAGCAAAGCACCAACCACCACCAACCACUCACCACACUCUCUCAAA'
p210
aF1.0
aa(lp211
S'Variation of a crop circle'
p212
aS'AAAACAAAAAGGAAAAGGAAAAUAAUGGGAGAAAAUGUAUAUAAACAAAAAAAAAGAAAAAGGCAAAAAAAAACGAAAAAAAAAAAAA'
p213
aF0.9545454545454546
aa(lp214
S'Loop next to a Multiloop'
p215
aS'AAGAUGGGGGAAAAAAAGGGGGGGUAAAAGUCUCUAUGGGAUGGAAACGUUCUAACGAAAAAAUUCUCGUCAA'
p216
aF0.9726027397260274
aa(lp217
S'Snowflake 4'
p218
aS'GGGGCAUCUCCGGGGGGGAAAACUGGGGGAUGGGUGGGAAAACCGGGUGGGCGAAACGCCAAUUUGAAACAGACGCUUGGAAAACCCACCCUAGGGGGGGUAAUACGGGGAGUUGAAACAGCACGGGGAAACUCCAUCUCGAUAAUCCCUCCCAAGGGUGAGAAAACCGUGUGUGGGAAACACCAAGGGGGAACGCUGACACUUAAAAGCCACUCAAGGGGGGGUAAACCGGGGGGAGGAAAUUUCAAGAUGAAACGCCCGCUCGGAAAACUCUCCCGUCGGCGGGAAAACCUGUGGGGUAAAAUACCAAUAUCAAAGGUACUAUGGGAAAGCCCGCUGUACUCUCCCCAAAGACUCUUGGUGAAACGUU'
p219
aF0.8621621621621621
aa(lp220
S'Mat - Cuboid'
p221
aS'GAAGUAAAAGGUGGGAAAAGGAAGGAAAAGCAGGAAAGAAAAUGAAGGAAGUAAAAGAAGGAAGAAAGGAAAAAGAAGCAGGGAAGGCAAAGGAAGGAAGGAAGAAAGAAAAAGGAAGGAAGGAAGUAAGGAAAAGAAAGGAAGGAAGGAAGUAAGGAAAAGGAAGGAAGGAAGGUAAGAUGGAAAAGGAAAGAAGCAAGGGAGGAAAGAAAAAACCAACCAUCCAACCAAGCAACUCCUACCAGCUAACCAGCCAACUCCAAACAACCAACCAAUCAAUUCCAACUAAUCAAGCAACUUAAACCAACCAACCAACUCCAACCAAGCAACUCCAAUCAACAAUCACAAACGACACUAACCAUCUCAACUCCAACUACAAU'
p222
aF0.9342105263157895
aa(lp223
S'Misfolded Aptamer 6'
p224
aS'AAAAAGGCGUAAAAAGGUGGGGAAAGGCGGAAAAAAACGUAAAGCAAAAACACCAAAAAAUCGCAAAAAAAAAAA'
p225
aF1.0
aa(lp226
S'Snowflake 3'
p227
aS'CGGGGAAAACCUGGGGGGAAAGCUCAAGGGGAGGGGAAGGGAAAACUCGGGAGGAAAACCGGGAAACUCGGAAAGCCAUUCGAAAAAACUCAGCUCCAGGAGAAGUGAAAACACGCUAAGAAAGCUCGUAAGAUGUGAAAACGAGGCGCGAAAACGCAACUCCGGGUGAAGGGAAAACUCGGGAGGUAAACCGGGAAACUCAGCAAACCACUCGUGAAAACACAACGCCAUGCAAAUGUAAAGAUCGUGAGGAAAGCCGGAAAGUUCGGAAAACCACGCCGCAAAACUGAAUGCAAGAGCAAGGGAAAGCUCUGGAGGAAAACGGGGGAAAUAGGAAAACCACUAGGAAAAGUUCAACUACGCUCCAAGGGAAAACUCCUCUGUAAAAGCCUG'
p228
aF0.8142493638676844
aa(lp229
S'Hard Y and a bit more'
p230
aS'AAAAAGCGAUUGCGGAGAGAAAUGCGACAAGUGUAAGAUGUGGGAAAAGAAAAAGUGUGGAAAAACACGCAUUCGUCCGCAUUGCAAAAAAAAAAAAAAAAAAAAA'
p231
aF0.9716981132075472
aa(lp232
S'Mat - Lot 2-2 B'
p233
aS'CAAGGGAAGCAAAGGGAAAAGGAAGGCUAAAAGGAAAACCAACAUCAAUCAAAAGCAAGCUGAAGUAACGAAGCUGAGGGAAAAGGAAGGGGGAAUAAAAGGAAAACCGCAACCAAAAACAACCCCAACGGCAGGGAAUGAAAACGGCAAGGCGAAAGAAAAGGAAGGGGAAAACCAAAACCAACUUUAGCCAAAACCAAGCCCAAGAAAGAAAGCGGAUGGAAAAGGAUGCGGAAGGAAAAUGUAAUCACCAACCAAAAGGUGCUCCUAUGGAAACCAACAGG'
p234
aF0.8345070422535211
aa(lp235
S'Shapes and Energy'
p236
aS'AAAAAGGACGGUGUGGUAAAAGAAACGCUAGGAAAUGGGCGGAGCGGCGAUGGAAAAAAGGUGGAAACGUUCUUAUUGUCAAAAAAAAAAAAAAAAAAAAA'
p237
aF0.9603960396039604
aa(lp238
S"Spiral of 5's"
p239
aS'GAAAUGGGGGAAAGGCGCAAAGGGCGAAAAGGGGGAAAGGGGGAAAGGGGGAAGGGGGAAAAUGGGGAAAGGGGGAAAGGGGUAAGGGGCAAAGGGGGAAAGGGGGAAGGGGGAAAGGGGGAAUGGGGAAGGGUGAAGGGGGGAGGGGUGGUGGGCGUGGGGGGGGUAAAACUCUCAAAAACUCGCAAAAACCCUCAAAAAGUCUCAAAAACUCUCAAAAACACUCAAAAACUCUGAAAAACUCUCGAAAACUCUCAAAAACUCUCGAAAACUCUCAAAAAGUCUCAAAAAAUCUCAAAAACUCUCAAAAACUCUAAAAAACUCUCAAAAACUCUCAAAAACUCUCAAAAACUCUCAAAAACGCUCAAAAAGUGUCAAAAACUCUCUAAAAUAAAAA'
p240
aF0.9949622166246851
aa(lp241
S'Campfire'
p242
aS'AAAAGGGGCAGGGGGAAGGAGAAAGGUGAAAACCCCCGCAGGAAACUCACCGCUCCGAGGGGAGGAGGAGGAGGUAAUCCAUUCUUUGCGGCAAGGAGGAAUAAUGAUAUCCCACAAAGGAAAGCCAUUAGUGAAUGACUGCACACACCUAGAGGUAGGGACUGACCGGUAAUCACGUGGUCCCGGGGCGGAAGCUCACCACUGACACCUCU'
p243
aF0.8443396226415094
aa(lp244
S'Anemone'
p245
aS'AAACCGGGGUAAUCUCACGGGGGGAAAGCUCUUGGGCGGAAAGCUGUCUCGUGCGAAACUGUCAGGCGGAAAACUCUGGGGGGGGAAACUCUCCGUGGUAAUCUGUGAGGGGGCAAGCUCUCUGGUGCGAAAACUCACCGGGGUGAAAGUUUCGGUGGCAAAACUCACGGAGGUAAAAGUCUCUGGCGGAAAAUUGUUCUAGGGGAAACUCUUG'
p246
aF0.7242990654205608
aa(lp247
S'Fractal 3'
p248
aS'AAAAAGGGGAGGGAAGAAAAACCGAAAGAGAGCCGAGGAGAUAAUCACAAAAAUGGACCAGAUAGAGAAAUUGCGCAAGCAGUAGCGCAUGAAAGCGAAAAAAUUAACGACAUCAAAAA'
p249
aF0.8487394957983193
aa(lp250
S'Kyurem 5'
p251
aS'AAAAUGGUGGCCGGGAAAGCUCUGGCAAAGUGGGAUGAAACUGGAAAACAGCCGGCGGAAAAAACCGAAUGCCUAAGUAAUUCCUAAAAAAAAAAAAAAAAAAA'
p252
aF0.9326923076923077
aa(lp253
S'Snowflake Necklace ( or v2.0 )'
p254
aS'GGGGGGGGGUGGGGAUGGGGGAGGAAAAACCACCAAAAAGGACCAAAAAGGGCCAAAAAGGACCAAAAAGGACUCUCGGGGAAAAACUCAGCUGCAGGAAAAGCCACGAAAAAUGAGCAAAAAGUACCAAAAAGGACCAAAAAGGACUAUCAUGGAAAAAAUGAGAGGGGGUAAAAAACACCAAAAAGGACCAAAAAGGGUGAAAAACGACCAAAAAGGACUCUCUCGAAAAAGCUGUGGGUGAGGAAAAACCACCAAAAGGGUCCAAAAAGGUCCUAAAUGGUCCAAAAAGGCCUCUCAGGCAAAAACUCAGGGGGAUGAAAAACAGCCAAAAAGCUCCAAAAAGGGGCAAAAAGUAUCAAAAAGGACUCUCAUUCUCACUCUCUCUC'
p255
aF0.8123393316195373
aa(lp256
S'Methaqualone C16H14N2O Structural Representation'
p257
aS'AAAAAAAGUGGAGGGGUGGGAGAGAGAACUCAGGGGGAUAAAAGUCAGCGACGGAAAGCUGAUGGGGGGAAAACUCAGGCAAAAAAGCGCAGUCACGCACCCACUCAGAAACUCUCCUGGGGAAAGGAGGUAAAGGAAACCAAAAAAAAAUCAGGGAGGGCAAACUCUGUAAAAAUGGGGUAAACCCCUCGCCAAUGAGAUAAAAUAUGGAGCGACGGGCUCAGGGAAAAGGGAAAGCUCGCUCAGGGAAAACUCGCGGAGAGGAAAUUCACCAGGGGAAAACUUAUUCACAGGGGAAAACUCGCGAAAACUCAUGCGAAAGUGUUGGCCAGUUUCUAACCCCUCUACAAAAAAA'
p258
aF0.8028169014084507
aa(lp259
S"Cat's Toy 2"
p260
aS'AAAGCCGGGGUUAAAAGGAGAAAAAAAAAAAAAAAAAAAGUAGGGAAGCCAAAAAGAACGGAACAUUUAAAAAAGACAAAAAACCGAUCCUGGAAAA'
p261
aF0.979381443298969
aa(lp262
S'Zigzag Semicircle'
p263
aS'AAAUGACGGGCAGUAAAAAAAGUCACUGUCUAAA'
p264
aF0.9411764705882353
aa(lp265
S'Short String 4'
p266
aS'AAAAAAUUCGCUGUUGAGAAGUGUACGGUAAUCCCGAAGAAGUUUGUAACAAAGCCAUCUUAGUAACAAGAUCUGGGAAAAAAAAAAAAAAAAAAAA'
p267
aF0.9381443298969072
aa(lp268
S'Gladius'
p269
aS'AGAAAUAACAAAGCGAAGAAGAGAAGAAAUUGAGGUGAAGGGGAAAACCCCAGGGGGGAGAGGGGGGUGGGGAAGAGGGGAAGAGGGGCGGGAGGGUGGAAUGACAGGGGAGGUAAAGGAGAAACUCCAUACAUUCUUGAUUAUCAGACUCCACUCUCACAUCACUUCAACACUCCAACACUCAACACUCUCAGUCAAACGGAGGGGGGGAAGGGAGAAGGGGAGAUGGGGGGAAGGGGCGAAGGAGGAAGGAGGAGGGGUGAGAGAGCGGGGAAAGCUCUGCAACCCCAAUCCAGUCUCACUCUUCAAUCUCGCCACAACUCCUCAACUCCACAACUCACAACUCUUAGUUGUAAUCUGCAAACCCACGAAAACAAUACAACAAAGAAAAGGAAAAAAU'
p270
aF0.8725
aa(lp271
S'Thunderbolt'
p272
aS'GGAAGGGGGAAAAAAAAGAGGAAGGAGAAAAAUAAAAGAGGGGGUUGAAAAAAAAAGCAAAAAAGGGGAAAAACUCUAAAAAACCAAAAGAAGAGAAAAAAUAAGAAAAAACAAGAAGGAAGGAAAAAGAAAACAUGAGAAAAAGGGAAAAAGAAGGUUAAAGUCCAGCAAAAACUCAGGGGAAAGUAAAAAAAAAGAGGGAACCACAAUAAAAAAUAGAACUGAAAAAAAAACUCGAAAAAGAGGUGUAUCACUUCACCAACCAAAAAAAAAAAUCGACUAAAAAAAAGCAAGGAAAAGGGGGGUAAAAGCAAAAAAAAGAAAAAAUCCCCAACAAGAAACAAUCUCCAAAAAAAACCCCAACAACAAAAACAAAAAAAGACUCCCAACCA'
p273
aF0.9489795918367347
aa(lp274
S'Mutated chicken feet'
p275
aS'AAAAAAAUGUGGAGGAAACGGGCAAAGCAAACCCGAGGAUGACUUAUAGACGAAAUCAAACAUUACGAGAGGGUAUCCAAGCAGCUAAAUCCUGAAAAAA'
p276
aF0.9
aa(lp277
S'Chicken Tracks'
p278
aS'AAAAAAAGCGGAGAAGUUGAAAGCGACAGCGUAAAAGUACGAAUGGGGAAACUUAUUCCCAGAAAGGGGGGAAACUCCAAUCGGAAGCCGAUCGGUGAAGAACGCUAGAAAAAAAA'
p279
aF0.9396551724137931
aa(lp280
S'Looking Back Again'
p281
aS'GGGAAGGGGGGGGAAAAGGGGGCAAGCUAACUACUCCAAGGGGGGAAGCGGAACGCUCCAGGGUGAAGGUUGAAAACGGCAAAGCGCUCAACUCAAAUCGAGGGGGGGAAAAAGGGGGUAAUCUCUCAAAAAACCCCGGUCGGGUGAAACACUCGAUGGGCACUGUCCGGGAGGGAAAAUCAAGAAUAUUGACGGGAAAAUUCGAAGUAAAACUAUGCCCGGUAAUCUGAACUCGCGAAAUACUGCUCCAGGGAGAGCGAAAAAAAGGGCCGUAAAAAAAACCGGGAAAAAUGGGCUGAAACUCACUGUCGGCAAAAAAGUGGGGAGUAAUCUCUCCAAAGGGGUAUCCGCGGGGAAACUCAGGACUUCCAAAAGUCGCUCUCAAACCC'
p282
aF0.7892030848329049
aa(lp283
S'Multilooping 6'
p284
aS'AUGGAAGCGAGGGGCAAAGGUCUCGUGUGGAAACGCAAUUCUUUGAAGAUCAUUUCUCGUGCGAAAGCCCAUUACCUUCCUA'
p285
aF0.9146341463414634
aa(lp286
S'Cesspool'
p287
aS'GAACAAUGAAAAAAUGGAAGUGAGGGAAGCCCAAAUACAACUCAACAAUAAAAAAAGACAUGAAAACUAGAAAAAUAAAAGAAGAACAAGAGCAAGAAAACAAGAGAAUACAGUCAAAGGAAAGGAGAACACAACUAGAAAACAUGACAAGAAAACAAGAAAAACAAAAGAAGAACAAUGAACAGUAAAAGAAGGGAAGAGAGCGAAAUCAAGGAACAACUCAACAAGAAAACAAGACAAGAAAAUAAGAAAAACAAAAGAAGAAGGAAGGAACAAGAAAACAAGGGAAGAGACAGGAAUUCAACAACAACUCAGCAAGAAAACAAGACAAUAAAAAAAGAAAAACAAAAGAAGAACU'
p288
aF0.7430167597765364
aa(lp289
S'Hoglafractal'
p290
aS'AAGAGGGAGGGGAAAAAGCUCGAAAAAACGAGCUCUCCCGCGAAAGGGGUAAAUCCCGCGCGGUUAAGUUAAAGGACGGCAGGUAAAGGCCAAAGGCGUUAAAUGACUGUCCGGGACGAGGAAAACUCUCCGGAGAAAAACUCCAGGGGGAAAGGAAAGCAGAAAAAUUCACCGUAGGAAAAGCUGCGGUAAAGCUGAGUCGGUAAAAGAAGGAAAAAACUCCCUUGAAAAAGCGAGAAAUCAUGAGUGAAAAAAGGGAAAAAACUCGGAAAAGCCAAUGGGGGGAAAAUUCAUUCUAAAAAGCACUCGGAAAAUUUCGCAAAAACUUCGAAGGCCGAACCAGCAAAGUGGAGGCGAAAAUGGAAACAAGGAAACUGGGGGGAAACCCUCCACGCUGUCU'
p291
aF0.8075
aa(lp292
S'Bullseye'
p293
aS'AAGGGUGGCUAAAAGGGAUGGUGGAACACGUAGAUGGAAUAUCAUCAAAAAAAAGUUGGGGAAAGUCCAAACUGGAACGGUAAGGGAAAACUCCAAUAAAAAAAGGUGGAGAAAAUUCCAUGCAGAAACCGCUAGCCGGAACUGCUAUUAAAAAAGGGGGGAGUAUCUCCAAUGGUGAAGUCGAAGAGGGAAAUCCCUUAAA'
p294
aF0.8613861386138614
aa(lp295
S'Shooting Star'
p296
aS'GCGUGCGGGGGCGGGCGAAAGAGAACGAGGCAGCGAGGUAAACAUUGACUACACACAACUAGCAAUCUCACGGGGAGGACAAGGAGGACGGGGGCGGAAGGCGAGGAAAACACACCACCCCCACUCAUUCCACAUAACCAACGGAAACAACUCCCGGGGGGGGGAAAUCUCAGGUGGAAACUAUCGAGAAAACACACUCGACUUCAGGGGAAGGGAAAGGGGUUGAAGCAACUUCAGGGAGGAACUCUCCUCUCGGGGGGAAGCUCUCUGCUGAGGAAACUCUACUCCGGUGAAGAAAACGAGUAAGAAGAGGGGGAGGGGCGGAAAACACCCCACCCCACAACAACGGAACUCCCACUACGCA'
p297
aF0.7857142857142857
aa(lp298
S'Teslagon'
p299
aS'AAAAAAGGGAAAAAAUGGGCAAAAAAAGGACCUAAAAAAAAAAAAAUGGAAAAAAAAAGUAAAAAAAAAAAAAAACUGCCAAAAAAAUCAGUAAAAAAAGGAAAAAAAAAAAAAAACCAAAAAAACCAGGAAAAAAAGGACUAAAAAAAAAAAAAAAGGAAAAAAAAAGUAAAAAAAAAAAAAAACUGUCAAAAAAACUGGGAAAAAAAAUAAAAAAAAAAAAAAAGUAAAAAAACCAGGAAAAAAAUAAAGAAAAAAAAAAAAAAAUUAAAAAAAAAGGAAAAAAAAAAAAAAACUGAAAAAAAAACCAGGAAAAAAAGCAAAAAAAAAAAACCAAAAAAAAAAAAAAAGGACCAAAAAAAUCACGAAAAAAACCAAAAAA'
p300
aF0.9214659685863874
aa.