(lp0
(lp1
S'Simple Hairpin'
p2
aS'GAUACAAAAAAGUAUC'
p3
aF1.0
aa(lp4
S'Arabidopsis Thaliana 6 RNA - Difficulty Level 0'
p5
aS'GAUAUACAAAAGACAAAAAAAAAAAGUCGAUAUAUCAAGAUAUAUAUAUAUAUAUACAAAGAUACAAAAAAGUAUCAGUAUAUAAUAUAUAUAUAUCAAGAUAUAUCAAGUAUAUC'
p6
aF1.0
aa(lp7
S'Prion Pseudoknot - Difficulty Level 0'
p8
aS'GAUAUCAGAUCAAAAGAUCGAUAAUCAAAAAAAAAA'
p9
aF1.0
aa(lp10
S'Human Integrated Adenovirus - Difficulty Level 0'
p11
aS'GAUAGCUAUAGGCCUAAAAUCAAAAAAAAAAGGAGCGAGAGGCGUACAAGGCAUAAGAAACGACAUAUGUAUACUAAAAAAUGUAUACAUAUUAAAGUCCUUAUUAAAGCCCGCAUAACUCUCAAACAAAUUGAAAAAAAAUUUGGCUCAAAAAAAAAAAGGAUUUUUGGCCAAAAUAUAGCAAAUAUCAAA'
p12
aF1.0
aa(lp13
S'The Gammaretrovirus Signal - Difficulty Level 0'
p14
aS'AAGGCUUGAUAUUUAAUAAUAUCUUGACAAAAAAGAUCAAGACAGAUCGAUACAAAAGUAUCCAAAGAUCGUCGAUCAAGAUAUAUCAAAAGGUAUAUCAA'
p15
aF1.0
aa(lp16
S'Saccharomyces Cerevisiae - Difficulty Level 0'
p17
aS'CAUAUCCCUACUAAAAAAUGUAGAGCGAAAAAAAAAAAAUAGUAAAAGACAGAAAAAAGCUGUCGGGUAUGAAAGGUUAUACAAGCUCGAAAAAAAGAGCCGCGAAAAAAAAAAAAGCGAAAGGUUGCAAAAAAGGCAACGUAUAACAAAAAGCGUCGAAUAUCUAAAAAAUGAUAAGCAUAAAAAAAAUGUGUUAAAAGUUGAAAAAAAGUCAACCGACGUUGAAAGUGAAGCUACCUCGAAAAAAAGAGGCGUAUCUAAAAAUGAUAUGAAAAAAGCAAAAAAAGUGCUUGUUUUACGAAGGAUCUACAACGGUUAAAAAAUAUCGGUGCCCUAAAAAUGGGCAUAAAAGGUUUGAAAAAAGAACCGUAGAUCAAAA'
p18
aF0.9894459102902374
aa(lp19
S'Fractal 2'
p20
aS'AAAAAGAUAAUACAAAUAUAUAUGGCAAGAUCAAAAAAAAAAGAUCAGGAUCAAAAAAAAAAGAUCAAGAGCAAAAAAAAAAGUUCAAGCCAUGUGUAAAAGGUCGCUAUCAUGCUGCAAAAAAAAUUAGCUAGAUCAAAAAAAAAAGAUCAUUCUGGAAAAAAAAACGGGUAGAUAGCGACCGAAGCUCUAUGUCAAGCUCAAAAAAAAAAGAGCAAGAAAUAAAAAAAAUUUUCAAGAUCGAAAAAAAAAGAUCAAGAUAUAGAGCAAAGUGUUAUCGAAAA'
p21
aF1.0
aa(lp22
S'G-C Placement'
p23
aS'GAUCAAAGAUCA'
p24
aF1.0
aa(lp25
S'The Sun'
p26
aS'GAUAGUUCUCUAAAGUAGUUAGCGUCAAACUCAGACCGUCAAAGAUGAAUUUGACAAUAGUAGAGACGCAAAGUGUAAUUCGUCUAAGACAAAGAUCGUAUCGAUAACUUGUCAAAGACAGAUCUACAAAUUAGAAAUCGUCGAUGACAGGGAAACGAAGGGCAAAUCGUCUAAGCCAGAUAUGCAAAGUAUAAAUCGGCAAAGACAGAUAAAUUCUUUUUUAAUCGGCAAAGACAGACUUUCUAUGGAGCAGUCGUC'
p27
aF0.8875968992248062
aa(lp28
S'Frog Foot'
p29
aS'AAAAAAAAAAGAACGAAAGUUCCACCAAAAGGUGGCUCAAGGAGC'
p30
aF1.0
aa(lp31
S'InfoRNA test 16'
p32
aS'UAGAUCUCGAGACAGAAAGCUGUCAUCAGUGGUCUG'
p33
aF1.0
aa(lp34
S'Mat - Martian 2'
p35
aS'GAGCAAAAGUUCAAAGAUAUACAAGAUAUACAAAAAAAGUAUAUCGUAUAUCAAAGAUAUAUCAAAAAAGAUAUACAGAUAUACAAAAAAAGUAUAUCGUAUAUCAAAGAUAUAUAUAUAUCAAAAAAAGAUAUAUAAUAUAUCAAAAAAGAUAUAUCAAAGAUAUAUAUAUAUCAAAAAAAGAUAUAUCAGUAUAUCAAAGAUCAAAAGAUC'
p36
aF1.0
aa(lp37
S'square'
p38
aS'GAUAUACCUAUACCUAUAUCCUAUACAAAGUAUAGAAAAGAUAUAGAAAAGUAUAGAAAAGUAUAUC'
p39
aF1.0
aa(lp40
S'Six legd turtle 2'
p41
aS'AAAACUCAAUGGAAAGCCUAACCAAAAGUAAGUCUAAUGAAAAACAAAAGACAAGGAAAGACAAAGGCAACCCAAAGGGAAAAAAAAAAAAAAAAAAA'
p42
aF0.9387755102040817
aa(lp43
S'Small and Easy 6'
p44
aS'GCCGGAAAAACCAACCGAAAAAAAAGGGGC'
p45
aF1.0
aa(lp46
S'Fractile'
p47
aS'AAAAAAAAAAAAGCAAAGGCGAAAUAAAGUAAAAGUAUCCACGAGAAAACUAAAGGAAGAAAAAUUAAGACAAUGUAAUUCGAAAAAAAAAAAAAAAAAAAAAAA'
p48
aF0.9619047619047619
aa(lp49
S'Six legd Turtle'
p50
aS'AAAAAGGAAAAGGGAAAUUAAAUAGAAAAGUUAAAGUGAAAAUAAAAGUUAAUAUAAAAUCAAAAGAAAAAGGAAAGAGAAAAUCGAAAAAAAAAAAAAAAAAAA'
p51
aF0.9428571428571428
aa(lp52
S'snoRNA SNORD64'
p53
aS'GAUAUCAAAAAGACAAAAGACAAAGAUACAAAAAAAAAAAAAGUAUCAAAAGUCAAGUCAAGAUAUC'
p54
aF1.0
aa(lp55
S'Chalk Outline'
p56
aS'AAAAAGAUCAGAUACAAAAGUAAUCAGACAGACAAAAGUCGUCAGAUAGCAAAAGCAUAUCAGGGACAAAAGUCACCGAUCAAAAAAAAAAAAAAAAAAAAAAA'
p57
aF1.0
aa(lp58
S'InfoRNA bulge test 9'
p59
aS'GAUAUACAGAGAGAGAUAUACAAAAGUAUAUCCCCGUAUAUC'
p60
aF1.0
aa(lp61
S'Tilted Russian Cross'
p62
aS'AAAAAGCAGCGUCAAAGGAUGGGGAAGGUUAAAAGGCCGAUCAUAAUUGAUCAGUUCAAAAGAGCUCCCGUACGAAAGUGCCUGCAAAAAAAAAAAAAAAAAAAA'
p63
aF1.0
aa(lp64
S'This is ACTUALLY Small And Easy 6'
p65
aS'AAAAAAAAAAAAAAAAAAAAAAAAAAAAAAAAAAAAAAAAAAAAAAAAAAAAAAAAAAAAAAAAAAAAAAAAAAAAAAAAAAAAAAAAAAAAAAAAAAAAAAAAAAAAAAAAAAAAAAAAAAAAAAAAAAAAAAAAAAAAAAAAAAAAAAAAAAAAAAAAAAAAAAAAAAAAAAAAAAAAAAAAAAAAAAAAAAAAAAAAAAAAAAAAAAAAAAAAAAAAAAAAAAAAAAAAAAAAAAAAAAAAAAAAAAAAAAAAAAAAAAAAAAAAAAAAAAAAAAAAAAAAAAAAAAAAAAAAAAAAAAAAAAAAAAAAAAAAAAAAAAAAAAAAAAAAAAAAAAAAAAAAAAAAAAAAAAAAAAAAAAAAAAAAAAAAAAAAAAAAAAAAAAAAAAAAAAAAAAAA'
p66
aF1.0
aa(lp67
S'Shortie 4'
p68
aS'GCAAAAGCAGCGAAAGC'
p69
aF1.0
aa(lp70
S'Shape Test'
p71
aS'AAAAAGUGAUCAAUAGACAAAAAAAAGUCUAAAGACAGACAAAUAGAAAAAUUAUUAGACCUAAUGGUCGGUCGUCAAGAUCUCAAAAAAAAAAAAAAAAAAAA'
p72
aF1.0
aa(lp73
S'The Minitsry'
p74
aS'CUCAAAAAGACAAAAGGGCAAAAAGUGAAAAGUGCAAAAAAAGGCGGCACGGCUAGUCGGAG'
p75
aF1.0
aa(lp76
S'stickshift'
p77
aS'AAGAUAUCGCAAAAAGCAGAUAUCAA'
p78
aF1.0
aa(lp79
S'U'
p80
aS'AAAAAGAUACAGAGAGCAGAGAUAUAUACAAAAGUAUAUAUCCGCCCGUAUCAAAAA'
p81
aF1.0
aa(lp82
S'Still Life (Sunflower In A Vase)'
p83
aS'AAAGAACAAGCUACAAAAAGUAGUAAGGGACGAAGUUCCAUAAGACAAAAAGUCUUUAGAUACAAAGUAUCAAGGUAAGAAAAUUACCAGCAUUAAAAAAUAAUGAGGUAUAGAUCUAUUUAUAUAUACGUUUCAAAAAAGAAGCAGAUAGAAAAAAAAAAAAUUAGCAAAAAAAAAAAAAAAAAAAAAAAAAAAAAAAAAAAAAAAAGGCUGUAAAAAAAAAAAACUGUCCGGUCAAAAGAUUGAGUAUAUGUAAAUAGGUCUAUACCAGUGUACAAAAGGUACAAACAUACAAAAAGUAUGGAGAUUCAAAAAGGAUCGAGUCGCAAAAAGUGACAGGUUACAAAAGUAACAAUAAACAAAAGGUUUAAGUUCAAA'
p84
aF1.0
aa(lp85
S'Quasispecies 2-2 Loop Challenge'
p86
aS'AAAAAUAACGGGAAAUUUCAAAAGAAGAGUCCCGCAAUAAGAAAAAAAAUUAUAUCGUGAACUUAACAAGAGCACGAGAUAAGUGAAAAAAAAAAAAAAAAAAAA'
p87
aF0.9809523809523809
aa(lp88
S'Corner bulge training'
p89
aS'AGAUAUCGAUACAAAGUAUCAAAAGAUAUCA'
p90
aF1.0
aa(lp91
S'Spiral'
p92
aS'AAAAAGAUCAGAUAUCAGACAGAUACAGAUCAGAUCAGCAGCAGCAGCAGCAGCAAAAAGCGCGCGCGCGCGAUCGAUCGUAUCGUCGAUAUCGAUCAAAAA'
p93
aF1.0
aa(lp94
S'InfoRNA bulge test'
p95
aS'AAAAAAAAAAAAAAAAAAAAAAAAAAAAAGAGCAAAAAAGAGCAAAUGAGCAAAGAGCAAGAGCAGAGCAAAAAGCAUCAGCAUCAAGCAUCAAAGCAUCUAAAAGCAUCAAAAAGGCAUCA'
p96
aF1.0
aa(lp97
S'Worm 1'
p98
aS'AAAAAAAGGGGGAUAGGUUUAUAUAAACAAGCUGGACAGGAAAAU'
p99
aF0.9111111111111111
aa(lp100
S'just down to 1 bulge'
p101
aS'AAAAAGAGCAGAUACAAAAGUAUCAGACAAAAGUCAGCAUCAAAAGAUCAGACAAAAGUCAGACAAAAGUCAGAUCAAAAAAAAAAAAAAAAAAAA'
p102
aF1.0
aa(lp103
S'Iron Cross'
p104
aS'AGACGGAGGAGGGAAGACAAAGUCAGGCGAAAGUCAUCCAAAGACAGGCGAAAGCCACACAAGGUGAGUCAACGUAGGCCAAAAGGCAGCGAAACGCAUACAAACUCGGAUAAAAUCAGUCGA'
p105
aF1.0
aa(lp106
S'loops and stems'
p107
aS'AAAAAGAGAUACAAAGAGCAAAGAUAAAAGUGCAAAAAAAAAGAGACAAAAAAAAAAAAGUCUCAAAGCGCAAAAGAUUAAAAAAAAACGAUCGAAUAUCAAAGAAAAAAAAAAUUCAAAGUUCAAGCAAAAAAGCAAGGUAUCUUAAAAA'
p108
aF1.0
aa(lp109
S'Water Strider'
p110
aS'AAAAUGAAUAUGCCGAACAGUGAAAACGGUUGAACGGUUACGCCGGCGCUCGAAAACGAUGUGAAACUAAAUCGGAUGAGUCGAAAAAAAAAAAAAAAAAAAA'
p111
aF0.941747572815534
aa(lp112
S'The Turtle(s) Move(s)'
p113
aS'AAAGCAAAAGCAAAAGAUAUAUACAAAAAAAAGGUAUAUAUCAAAAGUUCAAAAAGGACAAAAUCUGAAAACGGUAAGAUACAAAAAAAGUAUCAAAAGAGAAAGGUAAUCCAAAAAGACGAAAGUCAAAAGGAAUAAAAAAAAUAUUUCAAAAGACGCAAGUCAAAAAGAUACCAAAGGGAAAAAAAAUCCAAGACAAAAAAAGGUCGAAGAUAGAAAAAAUUAUCAAAGAUCAAAAAGAUCAAGGUAUCAAAAAAAAAGUAAAGACAAAAGAUAAAAGUAAAAAAUAGACUAAAAAAAAUGAGUAAAAAAGUUC'
p114
aF0.9873417721518988
aa(lp115
S'Adenine'
p116
aS'GAUACAGAUUGCAGAUAUCAGAUAGCACAUGACAGAUUUCAAAUGAUAUCAAAAAAGAUAUCGGAAAUCGGAUAGAAAGAUAUACAAAGUAUAUCCUGUCGGUUAUGAAAUAUAUAGAUCAAAGAUCUAUCAAAUAUUAGCUAUCAAAAGAUAUCAAAAGCGAUCGAAAGUAUC'
p117
aF1.0
aa(lp118
S'Tripod5'
p119
aS'AACAGCGGGCAAAAGGUCCGUUCGAAAAGAACGCUGAA'
p120
aF1.0
aa(lp121
S'Shortie 6'
p122
aS'CCAAAAGGGGCAAAAGCGGCGAAAGCAGGGAAACC'
p123
aF1.0
aa(lp124
S'Runner'
p125
aS'AAAAUUUUCAGAGCAAAAAGAUCAAAGAUCGGUUCAAAGACAAGGGAGGUAACCUGUACCCGCGACCAAAGGUAAACGCAGUCAAACACAAAGUCAAAAGACGGUGAGAAAUAAAA'
p126
aF1.0
aa(lp127
S'Recoil'
p128
aS'AAAAAGAUACAAGCAAGCAAGACAAGACAAGCAAGCAAAGCAGCAGUCAGUCAGCAGCAGUAUCAAAAAAAAAAAAAAAAAAAAA'
p129
aF1.0
aa(lp130
S'[CloudBeta] An Arm and a Leg 1.0'
p131
aS'AAAAAAACUGAGCCGAAAGGACUCUAGAGCGAAAGCCUAUGUUGAAAAAAAAAAAAAAAAAAA'
p132
aF1.0
aa(lp133
S'[CloudBeta] 5 Adjacent Stack Multi-Branch Loop'
p134
aS'GAAACCUUCGAAAGAAGCUUCCGAAAGGAGGUAUCCAAAGGGAUAGACGAAAGCGUCGUUUCA'
p135
aF1.0
aa(lp136
S'Triple Y'
p137
aS'AAAAAGAUUGAUUCACGUAAUCUCGCGCCUAAUGGCGAACCGAAUAUGCAAAAGUAUGUUCUAAUGAACUAUCAGUUGAAAAAAAAAAAAAAAAAAA'
p138
aF0.9175257731958762
aa(lp139
S'Misfolded Aptamer'
p140
aS'GAUCUAAAAGGCGAGAAACUCAGUAAAAACAAAAAAAAAGCAAAAUGAUU'
p141
aF1.0
aa(lp142
S'Flower power'
p143
aS'AAAAAUUUCGUUCUAUCAGUGUCCCUAUGUACCAGAAAGUUCAAGGCGCGAUUUUAAGUAGGGAAGAAAACUAAGAACGGUGAAAAAAAAAAAAAAAAAAAA'
p144
aF0.8725490196078431
aa(lp145
S'Kudzu'
p146
aS'AAAAGUAUUGAUUAGAAGCACUGCAGCUAUGCGCAAGGCCGUGCCGAAGGACCUCAGCACUAUGUCAAAGUCGAUACUGUGAAAAAAAAAAAAAAAAAAAA'
p147
aF0.8910891089108911
aa(lp148
S'"1,2,3and4bulges"'
p149
aS'AAAAAGAUCAAUUGGAAAAUCAAAAAACAAAUUAAUCUGGGGUUCAAAAUGCCACUGGAAACAAACGAGGGGAAAUUUGGGAACGAAAAAAAAAAAAAAAAAAAA'
p150
aF0.9809523809523809
aa(lp151
S'medallion'
p152
aS'GAUACCUGAUAGGAAAGCCUAUCUGAAAAAAUGCGGUCAAAAGACAUUUAUCUAAUGGUAAAGGGUGAAAACCAGCUCCCAAAAGGGAGCAUACGAAAGUGGCGUAAAAACGAGAUAUCAAAGGAUGUAGAGGUAAAACUAGUUACCAAAAGGUAACAGUCAAAGGUCAGUAAAAAUCCGGCGACGGAAACGUUGCAGGGAAAAUUUAACUUAUAAAAAUAAGUCCACAAAAGUGAGUCAAAAGACAGAUUUCAAAAGGAAUCGUCAAAAGUCGACAUAGGGAAACCUAUGAUGGAAAAUUAGGACAAAGGUCAGAUCUCAAAAGAGAUCGGGUAUC'
p153
aF0.913946587537092
aa(lp154
S'[RNA] Repetitious Sequences 8/10'
p155
aS'AGCAAAAAAGCAAAAAAGCAAAAAAGCAAAAAAGCAAAAAAGCAAAAAAGCAAAAAAGCAAAAAAGCAAAAAAGCAAAAA'
p156
aF1.0
aa(lp157
S'Documenting repetitious behavior'
p158
aS'AAAAAAAACAAAAAAAAAGUAAAAAAAAGUUAAAAAAAAAGCAAAAAAAAAGCAAAAAAAAUGCAAAAAAAAAGCAAAAAAAAAGCAAAAAAAAAGCGAAAAAAAAGCAAAAAAAAAGGAAAAAAAAAGCAAAAAAAAAGAGAAAAAAAAACAAAAAAAAAUGAAAAAAAAAGCAAAAAAAAAGCAAAAAAAAAGAGCAAAAAAAUCAAAAAAAAAUCGAAAAAAAAGCAAAAAAAAAUGAAAAAAAAAGCAAAAAAAAAUUAAAAAAAAAGGAAAAAAAAACUAAAAAAAAAGCAAAAAAAAAGCAAAAAAAAGGAAAAAAAAAAGGAAAAAAAAAGCUAAAAAAAAGCAAAAAAAAAGCAAAAAAAAAGAAAAAAAAAAACAAAAAAAAAGUAAAAAA'
p159
aF0.96
aa(lp160
S'7 multiloop'
p161
aS'GAACGUGCCUAAUGGCGCGAGACAAAGGGUCUAUGAGAAGCCUCAGCUAUUUAAUAAAAGGAUGCUAAUGUAUCGUCCAAACCAUCUCGUUC'
p162
aF0.9565217391304348
aa(lp163
S'Kyurem 7'
p164
aS'AAAAAGAAUUAUUUAAAAGUGACAGAAAAUGUAGUGUAAAAGACGAAACUAAGAAAAAUUAUAAAGUUUCCACAAUGUAGUUGACAAAAAAAAAAAAAAAAA'
p165
aF0.9607843137254902
aa(lp166
S'JF1'
p167
aS'GAUAGAUAUAUAGAUAGAAGAUAGAAAAGAUAUCAAGAUACAAAGAUACAAGAUAUCACUAUAUAUAUAUACAAAAGUAUAUAUAUAUAGAAGACAAAAGUCAGAUAUAUACAAAAGUAUAUAUCAAGAUACAAAAGUAUCAGAUAUCAGUAUCAGUAUCAGAUAUCAAAGAUAUAUCAAAAAGAUAAUAUCAAGAUAUAUAUAGAUAUAUAUAUAUCAAAAGAUAUAUAUAUAUCAUAUAUAUAUCAAAGAUACAAAAAAGUAUCGAUAUAUAUCAAAAGAUAUAUAUCAAAGAUCAAAAGAUCAACUAUCAACUAUCAGAUCAGACAGACAAAAGUCGUCGAUCAGAUAGAUACAAAAGUAUCAUAUCAAUAUAAUCAUAUCAAA'
p168
aF1.0
aa(lp169
S'multilooping fun'
p170
aS'CGUGGUGGGUGAUCAAGAAAUAGUAAUAGCUAUAUG'
p171
aF0.8333333333333334
aa(lp172
S'Multiloop...'
p173
aS'GAUCAGCUCGUGAUAAAUCCAUGCGAAAGGGGCACAAAAGCGGGUUAAAGUGCUAUCAAAAGGCCUACAAAAGACAGAGCAAAUACUAAAAUGUGUUCAGGAAACUGGAUC'
p174
aF0.9099099099099099
aa(lp175
S'hard Y'
p176
aS'AAAAAUUUAAAGAGAUAUUCUAAUGAAUAUUAUUUGAUUUGUGUAGAAAUAUACAAAUCUGAGGAAAA'
p177
aF0.9705882352941176
aa(lp178
S'Mat - Elements & Sections'
p179
aS'AAAAGCAUUGCAAACAGACGGCAAUUGACAAUAGCAGUAGUGAAAAGAGAAACGCUAUAGUAGUUAAUGAUGUCAGAAAGAGGUGAAAAAAAAAAAAAAAAAAAA'
p180
aF0.9619047619047619
aa(lp181
S'Chicken feet'
p182
aS'AAAAAUCAUCAGCCAGGAUACAAGAUGAGGAGCGGCAGCGGCAAAGCAGCAAACAAAAGCGCAAAAA'
p183
aF0.7910447761194029
aa(lp184
S'Bug 18'
p185
aS'AAAAGUUCUCUAGAGGCGGGGUAAAAUAGACCACCGGAGAAGAUACAAAGUUA'
p186
aF0.9245283018867925
aa(lp187
S'Fractal star x5'
p188
aS'AAAAGGAGAUAUCAUGACCAAAAGGUCUAGCGCAAAAGCGUAAGUCCAAAGGGGCAAUAUCAAAAGAUAAAGAUAUCUCAAAAAUGUAUGUCGAGCACAAAAGUGCGCUAGUAAAGACUGUAGAGCGAAAGUUCAUGAGCUAAUGCUUUAGAUAUACAGAAAGGGUAUAUCAAGUUCAAAGGAACAUCGUCAAAAGAUGUAGAUCAAAAGAUCAAGAUCAAAAGAUCAAGAUAUGCCAAAAGUGGAUAUCGAGCUCUAAUGAGCAAGAACGAAAGUUCAAUAGCAAAAGCUGAUCAGCAAAAGCUGUAGAUAUCUAAAAAGGAGUAAGCAAGGUCUAAUGAUCGAGAGUUAAUAUUCAAAGGUUAAUACCUGAUGUAAAAAUACAAAGCUUACUCAAAAA'
p189
aF1.0
aa(lp190
S'Crop circle 2'
p191
aS'GUUAAAGAAAGGGAAAAAGGAAAAAAAAAGGAAAAAAAAAAAAAAAAAAAAAAAAAAAAAGUCAAAAAAAAAAAAAAGGCAAAAAAAAACUAAAAAAACCAAAUGAAAAA'
p192
aF0.9636363636363636
aa(lp193
S'Branching Loop'
p194
aS'AGCCGCGAAAAUCAACUCCAAAGCGGGCUCGGUGAAAAAA'
p195
aF0.95
aa(lp196
S'Bug 38'
p197
aS'UCUUGAAUGGGAACGAAAUAUGAUCCGAUUAAUUAU'
p198
aF0.9444444444444444
aa(lp199
S'Simple Single Bond'
p200
aS'AAAAAAGAAAAAAAAUGCUCGAAAAGAGUUAAAAAAAGCGAAAAAAAAAAAAAAAAAAAAA'
p201
aF1.0
aa(lp202
S'Taraxacum officinale'
p203
aS'GCGUAAAAGAACCAGGUCAAAAGAGCCACAGCGAAAGACUGAUAGGCAAGAACGGAGCUCGAAAGAAGCACUUUUAAUGAAAAAUCUAUAUUUACGAUAUACAUGCUAUGCAUAGUAUAUCGGGCGGAAUAGAUGUAGCAAGAAAUAUAAGGUAUUUCGGCUACAUCUAGAUCAGAUGCCAAAGGUAUCGAUCCUGUCAAAGUAAAUAUAGAACAGUAAAAGACUGUUACGGAAACAAUGAGUGAAAAAACUGUAUUUUUAAUAAUUGACACUAAACUCACG'
p204
aF0.875886524822695
aa(lp205
S'Headless Bug on Windshield'
p206
aS'AGCAGCAAAAAUAAACAAAGCAGAUAAAAAAAAAAAAAAAAAAAAAAAAAGUCGGCAAAGUGAAAAAAGUGGCAAGCUAGCCAAGGAAAAAAAGCAAAAGCAAAAAAACCGGCAAAAAUGCCGUACUGAAAAAAAGACAAGCAAGACAAGCUGAGAAAAAAAAAAAAAAACUCUAGCAGGUCAAGCGGUGAAUGAACUAA'
p207
aF0.95
aa(lp208
S'Pokeball'
p209
aS'AAUGUUAUGCAAAAACGGAGAAAACGUGCAACCAAUUAACUAAGUGACCAAAGGAGCGAACAGGGGGAGGCAGUUAUUAGUGCAUAGCUAAAAAAAGAUAGACAAAAACAAGCACCCCAAGUGUGAAAGCAAGUGGGGAAGGAAACUACCAAGCAGCGCAGAACGGGCAGUGGUGUUUAUCAAA'
p210
aF0.967391304347826
aa(lp211
S'Variation of a crop circle'
p212
aS'AAAAUGAAAAUCCAAAUCUAAAGAAAGCAAGGAAAUAAAUCAAAAUUCAAAACGAAAAAAAAAUAAAAAAAAAUGAAAAAAAAAAAAA'
p213
aF0.9545454545454546
aa(lp214
S'Loop next to a Multiloop'
p215
aS'AGUAUAUUUCGAAAAAAGAGAUAUAAAAGUAUAUCGGGAAGACAAAAGUCUUCCACAAAAAAAGAAAUAUAAA'
p216
aF0.9726027397260274
aa(lp217
S'Snowflake 4'
p218
aS'UAUCAAAGAUGGGUAGGCGAACGUAUGCUAGGAGGGUAAAAACCGUUAUGAUUGAAAAUCAACAUUAAAAAUCGUAGCUAAAAACACCUUCAAUAUCGGCAAAUGUGAUACGAUCGAAGUACAAGAUAGAACAUCGUAUCCCGAAAGGUGAUCAAAAACCUGAAAGCAGGUAAAAUCAAACAUUAAGAUCAAACAUCUUAUUGAAAAGUCGGUCUGGGAUACGCCAAUUCGAGAGGAGCGAACCUCAAGCGCAAAGUUAUUCUCGUUAAUACGUAUCAAGCCAGGUAAAAACGAAAGGAGCAAGGCUCAAGAUCAAAGAUCUUUUCUGAAAGCCCUGGCGAGGCAUCCAAAGGCCUACUAAACAAAGGUC'
p219
aF0.8540540540540541
aa(lp220
S'Mat - Cuboid'
p221
aS'GAAACAAAACCAAGCAAAAGAAAGAAAAAGAUGAAAGCAAAAGCAAGCAAGCAAAAGAAGCAAGCAAGCAAAAGCAAGCUAGCGAGCAAAAUCGGGCGAGAGAGCAAGCAAAAGCAAGCAAGAGAGCAAGCAAAAGCAAGCAAGAAACGAAGCAAGCAAAACCAAGCAAGCAUGCAAGCAAGCAAAAGUAAGCAUGCAAGCAAGUAAGCAAAAAAGCGAAUAGGCAGCCUAGAAAACGCAGGUAAGUUAGUAAGCAAGGGCAAGCAACGAAUCAAGCGAACGCAAGAAAUCAGGCAAGCGCAAGCAAUCAAGCAAGAGAAAGCACGCAAGCGCAAGCAAGCACUGCGAACAAGCGCAGGCUACGCAAGCGCAAGCGGAAC'
p222
aF0.8421052631578947
aa(lp223
S'Misfolded Aptamer 6'
p224
aS'AAAAAAGAGAAAAAAGAUCAAGGAAAGACAAAAAAAGGUCAAAACGAAAAGAUCAAAAAAACUCAAAAAAAAAAA'
p225
aF1.0
aa(lp226
S'Snowflake 3'
p227
aS'GACGCGAAAGCACAUGCCAAAAGGUUAGGGCACAACUACACAAAAGAGGAGAGCAAAAGAGACAAAGUCGCAAAAGGAUUCGACGAAAGUCAUCUUGAAGGCAAGAUAAAAGUGGGGAUCGAAAUCGAGUAUUUCGUAAAAGUACCCGGCAAAGGUCAGGUUUGGCUCAAGGCGAAACUCGAGACCAAAAGCAAGGAAUUUGCAAAGGCACUCGGAAAAAAUAAGGAUGAGAUCAAGUCAAAAGACGAGAGCAAAAGCGCCAAAGGCUCAAAAGCACUCGGCAAAAGCCAAGAUUAAAUUUACAAAAAAGUCGAUGGAAAAAACGAUAAAAUCCCAAAAGCAAUCGACAAAAGCCAUAAUCAGCCCAAUACAAAAGUGGUGAGCAAAAGCGUC'
p228
aF0.8524173027989822
aa(lp229
S'Hard Y and a bit more'
p230
aS'AAAAAGAUACCGAUGUUCUAAUGAACAGCGGGAACGGUAUGAUUUAAUAAUCUGGAUCUAAAAAAGGAUCAGGCAGUUUCGUAUUAAAAAAAAAAAAAAAAAAAAA'
p231
aF0.9716981132075472
aa(lp232
S'Mat - Lot 2-2 B'
p233
aS'GAUGGCAAGAUCCAGCAAAAGUAGGAAUAAAAGUAAAAUCAAACGCGAGAAAAAUCAAGCGCGAGCAAGAAAGUGUGUGCAAAAGCAAGAGCAGACAAAAGCAAAGGCGUAAGGAAAAUCGAGCGCAAAAUCAAGCAAAUGAAAAUGCAAGAGCAAGGAAAAGCAUGAGAAAAGUCAAAAUCUAGCCUAAGCAAAAUCAAGUGCAGGCAAACAAGCGCAAGCAAAAGCAAGGCCAAGCAAAAGCAAAAGCGCAGGGAAAACCAGGCGCAAGCGCAAGCAACUAC'
p234
aF0.7992957746478874
aa(lp235
S'Shapes and Energy'
p236
aS'AAAAAAUUGUUAAGUACAAAAGUAUAGGCAAGAAAUAGUCUUAUCGUGCAGUUCAAAAGAUUAAAAAUAGUAAACAACUGGAAAAAAAAAAAAAAAAAAAA'
p237
aF0.9603960396039604
aa(lp238
S"Spiral of 5's"
p239
aS'GUAAAGAUACAAGGAUACUAGGAUACAAAUGAGGCAAAGUUACAAUGAUACAUGGUACAAAAGAUACAAAGACACAAAGUUACAAGAUACAAAGAUGCAAAGAUACAAGAGAGUAAGUUACAAGAUAGAAGAUUCAAGAUACAAGAUACAAAUACGAUCUAUUAUCAAAAGGAUAACGGACUAGAUAAAAAGUAUUAAAAAGUGUCAAAAAGUAUCAAAAAGGAUCAAAAACUAUCGAAAAGUAACAAAAUCUUUCAAAAAGUAUCAAAAGGUAUCAAAAAGUAUCAAAAAGUAACAAAAGGUGUCAAAAAGUAUCAAAAAGUACCUAAAAGUAUCUAAAAGUAACAAAAAGCUUCUAAAAGUAUCAAAAUGUAUCAAAAAGUAUCAAAAUCAAAAA'
p240
aF0.9949622166246851
aa(lp241
S'Campfire'
p242
aS'AAAAGAGCAAGGUAUAAUAGCAAGAUAUAAAUGAUCUAUAUUAAAAAUAAUAGCUCGAUAUGACCAGCAGAUACAAAGGUAAUCGCGGGGUACAACACCAGCAAAAGCGGGUGAGGAGGCAAAAGCACUACUCAAGUAAUCCAUAAUCAUCUCCUCAUACAGGCAGAGUGAAAAUUCGCCGUGGACAGAUCAAAGAUACUAUUGGGAGCUUU'
p243
aF0.8679245283018868
aa(lp244
S'Anemone'
p245
aS'AAAUCUCUCGAAAGAGGGACAGUCUAAUGGCUGGUAGUCUAAUGAUUACGUGUCUAAUGAUACCUUGGCUAAUGCCAGGUCGCGAAAACGUGAGAUCCGAAAGGAUCGAGUGCUAAUGCACUCAGAUGUGAAAAUAUCCCUGUAAACGUACAGGCCGGAGAAAUCCGGGGGGGGAAAACCCUCCGAGGCGAAAGUCUCGACUUGAAAGCGGGUC'
p246
aF1.0
aa(lp247
S'Fractal 3'
p248
aS'AAAAACGUCUGUCGGCAAAAGCGCUAAUGAACACUGCGAGCUAAUUCCCAAAAGGACGCUAUCUACAAAAGAGCAAAAGCAGACAGAUAGAAAAAUCGUAAAAGCGGUCUGAUGAAAAA'
p249
aF0.8823529411764706
aa(lp250
S'Kyurem 5'
p251
aS'AAAAAGGAGGAAGUUAGAGGACUUGCAAAUGUGUGGCAAAGAUUAAACGUCGCCGUUCGAAAAAGGCACCUAUUAGCCAAUUCUAAAAAAAAAAAAAAAAAAAA'
p252
aF0.9423076923076923
aa(lp253
S'Snowflake Necklace ( or v2.0 )'
p254
aS'CAAACAAUUAGAAACAGAACUAGCAAAAAGCGGCAAAAAGCAGCAAAAACCGGCAAAAAGCAGUAAAAAGCAAGUUCGGCCAAAAAUUCACUUAUGACAAAAAGCAACAAAAAGUAGCAAAAAGUAGCAAAAAGCAGUAAAAAGCAAUAAGGGCCAAAAGGGUAGGAGUAGCAAAAAGCGGCAAAAAGCAGGAAAAAUCGGCAAAAAGUAGCUAAAUGGAACACCAGGCUAAAUGUCAAAUUCAGCAAAAAGCAAGUAAAUCCAGCAAAAACCAGCAAAAAGUAUAUAAAUCAAGGAUCAGACAAAAAGUUAGCUGAAUGAAAAAUGACCAAAAAGCAGCAAAAAGCAUCAAAAGGCAGGAAAAAUCAACAUCAGUUUCUAAUUGUUUG'
p255
aF0.8303341902313625
aa(lp256
S'Methaqualone C16H14N2O Structural Representation'
p257
aS'AAAAAAAGUUUAGAUGUGAGUGACAAAAGUCUGAGACUCAAAGGAGGGACAGACAAAAGUCAUACAUUCAAAAGAGAGACAAAAAAAGUCGGUAAGUCACUCACUCAGAAACAUAUCAGGGCAAAGCAGACAAAUCGAAGGAAAAAAAAGUCAAAUAAUCAAAAGGAGAGAAAACUCAGGAAAAGUAGUUAGCAAAGAUCGUACACAGAAGGACACUCAGACAGACAAAUUACAAAAGUGUGUCAGAAAAAAUUCAGUCAGAAAAAAUUCGGAGAGACAAAGGUCAGUAAGAGGCCAAAAGCCGUCAAAAGGCAUACAAAAGACCUCACUCAGAUCGAAGUUCAAAACAAAAAAA'
p258
aF0.9380281690140845
aa(lp259
S"Cat's Toy 2"
p260
aS'AAAUUAUUUGGUCAAAAGUAUAAAAAAAAAAAAAAAAAAAAGAGGAAGGCUAAUGCAAAAGAAAACUAAAAAAAAAUAAAAAUUAAUCAGAUGUAAA'
p261
aF0.9587628865979382
aa(lp262
S'Zigzag Semicircle'
p263
aS'AAAGGCUGACUGAGAAAACCAGUGAUCAGCAAAA'
p264
aF0.9411764705882353
aa(lp265
S'Short String 4'
p266
aS'AAAAAAGUAUUUAGCAAGAACGACGAUAAAAAAGCGAACCAAGAUCAUACAAAAGUUAUGAACAAACGAUAUAAUGGAAAAAAAAAAAAAAAAAAAA'
p267
aF0.9381443298969072
aa(lp268
S'Gladius'
p269
aS'CGAAAGAAGAAAGGGAAGAGGGGAAGCAUGACAGACUAUUAUAAAAAUGUGCUAUCCACGAGCAUACAUAUCAAGAGGUCCAAUAAUGUAUGAGUUAUCAGCUAGAGGGCCAUACUUACUCAAAGAGUCGUGCCGCUCCAUAGCGAGUAGCGGAUGUAUUCUCGGACCAACAGAUGAAGUUGCAAUGGGAUCUGUCAAAUCGGGAUGCGCAAGCCUUAAGAACAGAUGAUCUUAAGAUUUACUACAUACAGGAUGAGGAUAGAUACAGAUUUCAAAGGAAAUCGAGUACAUAUUCCUAUCCCGUAUGACGUAGAUCAGGUGAUCGCCGGUUCAGUGGGCAGAAGUAUCAGAGUAAAAGCUCAAAUGAGGUCUAUCGUCACAGCGAACAAAGCAAGAAAAC'
p270
aF0.915
aa(lp271
S'Thunderbolt'
p272
aS'GCAAGAUAUUAAAAAAGCAACAUCGAGGAAAAGAAAACAGAUAUCUCAAAAAAAAAAUAAAAAAGAUCAAAAAGAUCAAAAAAACAAACGAAGGAAAAAAAUAAGAAAAAACAAGAAACGCGGAAAAAGAAAGCAAAAGAAAAAGAGGAAAAGAAGCAAAAAUAGCAACAAAAACUCGGAUCCAAAAAAAAAAUAAGAGUAAAACACAAGAAAAAAAUGAGGAUUAAAAAAAAUAUCGAAAUGAUGUCAAAGAUACCUGCAAGUAAAAAAAAAAAAUAAGCAAAAAAAAAUAAGGAAAACGAUAUCAAAAAGAAAAAAAACAAAAAGAUAUCAACAAAAAGGAGAUAUCGAAAAAAACGCCUAUAAGAAAAAGAAAAAAAUUAUAUCAAGCA'
p273
aF0.9132653061224489
aa(lp274
S'Mutated chicken feet'
p275
aS'AAAAAAAGCAGGAGUCAUGCAGGAAAGAAAGCCAGAGCAACAAGGAAUGGGGAAACCGAAGAGCAGAAGCUGUAAGCUUUUAAAGAAAAGCGCAAAAAAA'
p276
aF0.84
aa(lp277
S'Chicken Tracks'
p278
aS'AAAAAAAAGAUACAGGCUCAAAAGAGCAAGAUCGAAAGAUCAAGAUCAAAAGAUUCUGUAUCAAGAGCAUCAAAGAUGAAGAUCAAAGAUCAAGCCCAAAGGGCCUCAAAAAAAAA'
p279
aF1.0
aa(lp280
S'Looking Back Again'
p281
aS'GAGAAGCCGCUCAAAAAGAUAUCAAGGAUAUCAGAGCAGGACUCAAAGACAAAGUGUGGAGAUACGAAAGUCAAAAGAUUGCAAGUGACAAGUCAAGUUAAGGACGCCAAAAGGAUACAAAAGUAUCAAAAAGGGCGGGACCCUACAAAGUAGGGAUGCAAGGCAUCGGUAUCGCAAGAAGAAAUAGAAGGAGAUCAAAAGAUCAACACAUACAACAGUGACAAAAGUCAAGGUACCAAAGUCCCCUACGCGUUCAGCGCAAAAAAUCCAAAUAAAAAAAAGAUCAAAAGGAUCAUCUAAAGGAGGUUCGAAGAAAAAGGUCUAUACAAAAGUAUAGAAGACGCAAAGCAAAUACAAGGUAUUAAGGCACAAAAUCACGGAACAAACUC'
p282
aF0.9023136246786633
aa(lp283
S'Multilooping 6'
p284
aS'AGGUUGUGCCGAUAUAAAGAUAUUGAUUCUAAUGAGUCCGUACCCAUAUUAAUAUAUGUAUUGAAUGCGGUGGUGAUAGCAA'
p285
aF0.926829268292683
aa(lp286
S'Cesspool'
p287
aS'AAAGAAAGAAAUAUAAUAGCGGAGACAAAAGGAACAAGAAAAUUAGAACAAACGAACAGAAGAAAACAACAAAAAGAAAACAACAAUAAGUAGGAGGAAACAAGACAACAGGGACGAAGGCAACAACAAGUCAAGGAGAAAACAACAGAAAGAAAUAAGAAAAAGAAAACAACAUUAAACAAUAAUAAAAGGAGGCAACUGUUGUAAAACGAACAUGGGGCCAAGAAGGAAACAACAGAGGAAAACAACAAAAAGGAAAUGAGAAGUAACUAAGAAGAAAACAGCUGGAGUGGGACGAAGGUAAUUACAAGAGAAGAAAAAAAUAACGGAAUAAAACAGCAAAAAAAAAAUAACAAGC'
p288
aF0.8016759776536313
aa(lp289
S'Hoglafractal'
p290
aS'AAGAGAAAUAUAAAACAGGCACGAAAAAGUGCCUCAUAAAUUAAAGAUCUAAAUGGGCGAUCGAUAAGUUAAAAAGCAAUAGAGGAAGUACAAAGAUCGAAAAAGAUCGUAUGCCAAGACAAAAAGUCGGCACAAGUAAUCUGCAGAUCAAAAGACAACACAAAAAAGUGGUCGGAGCAAAAAGCCCGACAAAAGUCAGGCAUAAAAAGCAGCAAAAAAGCGGGAUAAAAAAUCAUUAAUGCAGCUUUCGAAAAAGACAAAAAAGUCGCUAAAUGCAAAGAUAUUUAAGGAAUAUCAAAAAAAGAAAGCAAAAAAAUGCCAAAAAAAUCGAAAAUCAAAUCACCAAAAAGGAGGUUAAAACCUAAUGGGCAAAGGCUAGCUCAAAGAGAUAAAACCCCAU'
p291
aF0.885
aa(lp292
S'Bullseye'
p293
aS'AAAGUACGGAUAUUCCAAAGAUCAAAGAUCCAGGUUAAAGGUUUACAAAAAAAAGAAGAGCAAAGAUCAAGAGCAACACUCAACACCAAAUGUGGUCAAAAAAAACAUGAGCGAAGUGCAUGGUAAAAUACCUAAAUCAAAAAUCGUGAAAAAAAAGUAUCUCAAGAAUCAAGGUUGAAGACCAAAAUCAAGGAUUGGCAAA'
p294
aF0.8316831683168316
aa(lp295
S'Shooting Star'
p296
aS'GAGAUCGAAUCAUGGACAAUGAGAGUGAGAAAUGCAGGAAAACACGCAGUUCACAAAACCUGGUUCAUGAGUUAGAGGAGGGCGGGACAGGAUCAGUCAGGACAGGAAAACAGGUCACGACGAAUCACGUCACACAACAAACGAAAACACUAGCGGUACGAACAAAGGUCGAAAUACUACGUGAUGGAAAAACACAUACUAGAUCAGACCAGAACAAGGAGUAACGAAGUUACUCACAUACGAAGUGUAGUUCGCUACACAAAGUGUAGCAUAUCCCAGGGAUGGAUCGGACAAUGAAAGGAAGAAUAGGAGGGACAGGACAGGAAAACACGUCACGUUACAACAAAACAACGACUAGAUCUCA'
p297
aF0.8434065934065934
aa(lp298
S'Teslagon'
p299
aS'AAAAAAGAAAAAAAAGCAGCAAAAAAGACAGCAAAAAAAAAAAAAAAGCAAAAAAAAAUGAAAAAAAAAAAAAAACAAGUAAAAAAAGUGGCAAAAAAAUAUAAAAAAAAAAAAAUUAAAAAAAGCAUGAAAAAAAAUGAGCAAAAAAAAAAAAAAAGUAAAAAAAAAGAAAAAAAAAAAAAAAAGAGUGAAAAAAAGAUGCAAAAAAAUAUAAAAAAAAAAAAAUUAAAAAAAAGGAGAAAAAAAAGCAGUAAAAAAAAAAAAAAAUAGAAAGAAAAAGAAAAAAAAAAAAAAAUUAGCAAAAAAAUUAGGGAAAAAGGAAAAAAAAAAAAAGCAAAAAAAAAAAAAAAGCAUCAAAAAAACCCGCAAAAAAAUUGAAAAA'
p300
aF0.8979057591623036
aa.