(lp0
(lp1
S'Simple Hairpin'
p2
aS'GAUACAAAAAAGUAUC'
p3
aF1.0
aa(lp4
S'Arabidopsis Thaliana 6 RNA - Difficulty Level 0'
p5
aS'GCGAUGCAAAACUCAAAAAAAAAAAGAGGACAUAUAAAGAUAUAUAUAUAUAUAACUAAGGAUACGAAAAAGUAUCAAGUUAUAAUAUAUAUAUAUCAAUAUAUGUCAAGCAUCGC'
p6
aF1.0
aa(lp7
S'Prion Pseudoknot - Difficulty Level 0'
p8
aS'GACAUGAGCGCGAAAGCGCCGUAGUCAAAAAAAAAA'
p9
aF1.0
aa(lp10
S'Human Integrated Adenovirus - Difficulty Level 0'
p11
aS'UCUAGUGUUAUAUCAUCUAUGGAAAAAAAAAAACGCGUCAACCGAAAAAGCGAUGAUAGAAUCCUUGUCUAUGCUAAAAAAUGCAUAGGCGAUAACGGAAUCAUAAAACGCCGGAAACUUGACAAAACGAUAUAAAAAUUAUCGUGCGUGAAAAAAAAAAACAUAGAGGAUAAAAAUAACACAAAUAGAAAA'
p12
aF1.0
aa(lp13
S'The Gammaretrovirus Signal - Difficulty Level 0'
p14
aS'GAGAGGAGCGAUCGAAAGAUCGCAACGCAAAAAAGCGCAAGUCAGAUCCUGGGAAAACCCAGUAAAGAUCGACGCGCGGGCGACGAGAAAACUCGUCGCAA'
p15
aF1.0
aa(lp16
S'Saccharomyces Cerevisiae - Difficulty Level 0'
p17
aS'UGCUGUCCUGAAAAAAAAGUUAUAUGCACACCCCCCACAAAUAAAAAGAUACGAAAAAAGUAUCGACAGCAAAAAGUUAACCAAGUGGUAAAAAGUCCAUCUCAAAAAAAAAAAAAGAGGAAUGGUACUAAAAAUGUACCGGUUAGCAAAUGUGAUGAAACUGGAAAAAAAACCAGAGCUGUCAAAAAAACAGCUGAAUGAUACAAAAAAAGUAUCUCAUCACUAAUGAGAGGAAACUGGAAAAAAAACCAGAGCUGUGAAAAAAACGGCUGAAUCAUACAAAAAAAGUAUGUCUUCUCUAAAGGGGGGAAACUGUUAAAAAAUACGGAGCGGUGAAAAAAACCGCUGAAUCAAAUUAAAAAUGUUUGUCAUCCCAAAA'
p18
aF0.9947229551451188
aa(lp19
S'Fractal 2'
p20
aS'AAAAUGCGAUGACUAACUUAUAUAUGUGGCGCAAAAAAAAAAGCGCAAGUUCGAAAAAAAAAGGGCGUUGGAAAAAAAAAAAUCCAUUUAUAUAUAAGAAAGAGCUAUAUGAAGAGCAAAAAAAAAAGCUCAAGCGCUAAAAAAAAUGCGCGAUUGCAAAAAAAAAGGCAGCGCAUAUAGCUCGAGGACCGAUAUAGACGGGAAAAAAAAAACCCGAAUCUGAAAAAAAAAACGGAAACCUAAAUAAAAAAGUAGGAAUAUAUCGGUCAAUGUCAUCGCUAAAA'
p21
aF1.0
aa(lp22
S'G-C Placement'
p23
aS'GCGCAAAGCGCA'
p24
aF1.0
aa(lp25
S'The Sun'
p26
aS'GACAGCGGCGGAAGGCCUAACGCGUUAAGGGUAGCGAAACGAAGCGAGACGCGAUAAACUCAGCGAUGGAAGGCGUAACGCGAGGACAUCAGGGAAGCAAGGCAUAACCCGAUAACUUGAGCGAUGGGAAGCAUAACGCUAAAAGAUCAGUCAUGGGAACCAUAAGACGAUAAUAUCAGCAAGGCGAAGCUUAAAGUGAUUACAUCAGGGAUGAGAAUCAUAACCCGAUAACAUGAGCGAGGAUAUACAUAACGAUAU'
p27
aF0.8294573643410853
aa(lp28
S'Frog Foot'
p29
aS'AAAAAAAAAAGCGCGAAAGCGCGCGCGAAAGCGCGGAGAAGCUCC'
p30
aF1.0
aa(lp31
S'InfoRNA test 16'
p32
aS'GCUUUGAGGCCCUAGGAAACUAGGCGCGCGUAGAGC'
p33
aF1.0
aa(lp34
S'Mat - Martian 2'
p35
aS'GCGCGAAAGCGCAAAGCGAUGCAAGCGAUGCAAAAAAAGCAUCGCGCAUCGCAAAGCAUAUACAAAAAAGCGAUGCAGCGAUGCAAAAAAAGCAUCGCGCAUCGCAAAGAUAUAAUAUUAUAAAAAAAAUAUAAUACUUAUAUCAAAAAAGUAUAUGCAAAGAAUCUAUAAAUAUAAAAAAAAUAUUUAAAUAGAUUCAAAGCGCGAAAGCGC'
p36
aF1.0
aa(lp37
S'square'
p38
aS'GCGAUGCGUGGUCAUAUAUAGCGGUCAAAGACCGCAAAAUAUAUAUAAAAGACCGCAAAAGCAUCGC'
p39
aF1.0
aa(lp40
S'Six legd turtle 2'
p41
aS'AAAAAGGAAGCGAAAAUGAAAGACAAAGCAAACAGAAAUCCAAUGUAAUGGGAACCAAAGGAAAAGAAAAAUCAAACGUAAAAAAAAAAAAAAAAAAA'
p42
aF0.9387755102040817
aa(lp43
S'Small and Easy 6'
p44
aS'GGCGCUAAAUGCAACGGAAAAAAAACGGCC'
p45
aF1.0
aa(lp46
S'Fractile'
p47
aS'AAAAAAAAAAAAGGAAAACCAAAGGAAAAGGAAACUAAGCAAAGGAAAACCAAAGCAUGGGAAACCUAACCAACCAAAAGGAAAAAAAAAAAAAAAAAAAAAAAA'
p48
aF1.0
aa(lp49
S'Six legd Turtle'
p50
aS'AAAAAGAAAAAUGGAAGAGAAAAUUAAAAAGAAUGUUGAAAGAAAAAAGAAAGCAGAAUGCUAAUGGUAAUGUAAAGACUAAAACAAAAAAAAAAAAAAAAAAAA'
p51
aF0.9619047619047619
aa(lp52
S'snoRNA SNORD64'
p53
aS'GCGAUCAAAAAGUCAAAAGUCAAAGAUACAAAAAAAAAAAAAGUAUCGAAAGACAAGACAAGAUCGC'
p54
aF1.0
aa(lp55
S'Chalk Outline'
p56
aS'AAAAAACGCAGACAGAAAACUAGUCAGUCAGUCGAAAGACGACAGCGAACUAAUGUGUCGCAGCUAGGAAACUACGCGCGUAAAAAAAAAAAAAAAAAAAAAAA'
p57
aF1.0
aa(lp58
S'InfoRNA bulge test 9'
p59
aS'AGGUUGAAGAGACGUCGAUCCUAAUGGAUCGGGCCUCAACUU'
p60
aF1.0
aa(lp61
S'Tilted Russian Cross'
p62
aS'AAAAAGCGCCUAUGAAAAUAGCUGCAGCGCGAAAGCGCCGGAGAAAACUCCGGUCGCGAAAGCGAGCAGGCGCGAAAGCGCGCGCAAAAAAAAAAAAAAAAAAAA'
p63
aF1.0
aa(lp64
S'This is ACTUALLY Small And Easy 6'
p65
aS'AAAAAAAAAAAAAAAAAAAAAAAAAAAAAAAAAAAAAAAAAAAAAAAAAAAAAAAAAAAAAAAAAAAAAAAAAAAAAAAAAAAAAAAAAAAAAAAAAAAAAAAAAAAAAAAAAAAAAAAAAAAAAAAAAAAAAAAAAAAAAAAAAAAAAAAAAAAAAAAAAAAAAAAAAAAAAAAAAAAAAAAAAAAAAAAAAAAAAAAAAAAAAAAAAAAAAAAAAAAAAAAAAAAAAAAAAAAAAAAAAAAAAAAAAAAAAAAAAAAAAAAAAAAAAAAAAAAAAAAAAAAAAAAAAAAAAAAAAAAAAAAAAAAAAAAAAAAAAAAAAAAAAAAAAAAAAAAAAAAAAAAAAAAAAAAAAAAAAAAAAAAAAAAAAAAAAAAAAAAAAAAAAAAAAAAAAAAAAAAA'
p66
aF1.0
aa(lp67
S'Shortie 4'
p68
aS'CUGAAAGGAGCGAAAGU'
p69
aF1.0
aa(lp70
S'Shape Test'
p71
aS'AAAAGGAACGCAUGAUGCAAAAAAAAGUAUUUUGUCACUCUGUUACAAAAAGUAGCUGCCCGAAAGGGCAGAGGACUAGCGUACAAAAAAAAAAAAAAAAAAAA'
p72
aF1.0
aa(lp73
S'The Minitsry'
p74
aS'GCAAAAAAGUAAAAAAGUCAAAAAGUCAAAAAUUCAAAAAAAGGAAAGACGGGCGUGCGUGC'
p75
aF1.0
aa(lp76
S'stickshift'
p77
aS'AAGCGAUCCGAAAAACGAGAUCGCAA'
p78
aF1.0
aa(lp79
S'U'
p80
aS'AAAAAGAUACAGAGAGGAGAGCGAUGAGCGAAAGCUCAUCGCCCCCCGUAUCAAAAA'
p81
aF1.0
aa(lp82
S'Still Life (Sunflower In A Vase)'
p83
aS'AAAGCGCAAUCAUCGAAAAGAUGAAGGCGACUAUGUCGCAUGGUAGGAAAACUGCCUAGGGCCAAGGGCCCAAGGGUGAAAAAUACCUACGAUACUAAAAGUAUUCUAUAUAUAUUUAAAUAUAUAUAGGGUACAAAAAGGUACCAGCUAUGAAAAAAAAAAAUUCGCAAAAAAAAAAAAAAAAAAAAAAAAAAAAAAAAAAAAAAAAAGCGGUAAAAAAAAAAAAGUAGCCGAUCGAAAGGUUGACUAUGUAUAUUUAAAUAUAUAUAUGGAGAUUAAAUAUCUCAAGAAUCAAAAAGAUUCAAUUGUCAAAAGGACAAAAGUUCCGGAAAGGAACGUGUUAGGAAACUAGCUCCAUUCUAAAUGAGUGUGCGCGAA'
p84
aF1.0
aa(lp85
S'Quasispecies 2-2 Loop Challenge'
p86
aS'AAAAAUCGCGCGAAAACUCUAAUGGGUAAUCGCAGCGCGACAAAGGAGCGCAGCGCGAGAAGUCAAAAAGACAACGAGCGCGCGAAAAAAAAAAAAAAAAAAAAA'
p87
aF1.0
aa(lp88
S'Corner bulge training'
p89
aS'AGCGAUCGAUACAAAGUAUCAAAAGAUCGCA'
p90
aF1.0
aa(lp91
S'Spiral'
p92
aS'AAAAAGCGCAGCGAUCAGUCAGAUACAGCGCAGCGCAGGAGGAGGAGGAGGAGGAAAAACCCCCCCCCCCCGCGCGCGCGUAUCGACGAUCGCGCGCAAAAA'
p93
aF1.0
aa(lp94
S'InfoRNA bulge test'
p95
aS'AAAAAAAAAAAAAAAAAAAAAAAAAAAAACGCCAAAAAAGAGCAAAGGCACGUAGAGGAGGAGUGGAGCAAAAGGCAUCAGCAUCAGCUAUCGCAGUAGCAAAAAGCAUCGAAAAGGGUCGA'
p96
aF1.0
aa(lp97
S'Worm 1'
p98
aS'AAAAAAAGGGGGGGAGAGGGGGUCAAAAGUCCACCACACGCGCGC'
p99
aF1.0
aa(lp100
S'just down to 1 bulge'
p101
aS'AAAAAGACCGUUAUAAAAAUAUAAACUCGAAAGAGAGGAUCAAAAGCGCAGUCGAAAGACAGUCGAAAGACAGCGCAAAAAAAAAAAAAAAAAAAA'
p102
aF1.0
aa(lp103
S'Iron Cross'
p104
aS'UCUCAAUUAAAGGAAGUGAAAGACGGUUGAAAGACGUUCGAAGUCACUCGAAAGAGUGUCAAGGACUGACUAAGACAGGCGAAAGCCGGGCAAUGUCUGACGAGCGCGGUCAAGGACAGAGUA'
p105
aF0.9512195121951219
aa(lp106
S'loops and stems'
p107
aS'AAAAAGCGAUGCAAAGCGCAAAGGGCAAAGCGCAAAAAAAAUGAUACAAAAAAAAAAAAGUAUUUAAGCGCGAAAGCGGAAAAAAAAAACCGCGAAGCUCAAAGUCAAAAAAAAGACAAAGCGCAAGGAAAAAACCGAAGCAUCGCAAAAA'
p108
aF1.0
aa(lp109
S'Water Strider'
p110
aS'AAAAACUGUUUUGCCCCACGCGCUAGCGGACUAAUGUUAUGUCGAAGUGUUGGAAAAAAUGUGAAAGCAAUACGCUCGAGGGAAAAAAAAAAAAAAAAAAAAA'
p111
aF0.941747572815534
aa(lp112
S'The Turtle(s) Move(s)'
p113
aS'AAAGGAAAACCAGAAGCGAUGAGCGAAAAAAAAGCUCAUCGCGAAAGCGCAAAAAGCGCAAAAAGUCGAAAGAUGAAGAUACUAAAAAUGUAUCGAAAAAUAAACUAAAAAUAAAAAGUCGAAAGUCAAAGCGCGGUCAAAAAAACCGCGAAUUGCCAAAGGCCUAAAAGCGAUCAAAAGUCUAAAAAUGACAAAUCGAAAAAAAGAUGAAGAGGCAAAAAAGCCUCGAAGCGUAAAAAGCGCAAGAUCGCAAAAAAAAAGGGAAACCAAAAACUAAACCGAAAAAGACGCUAAAAAAAAAAAAUGAUAAAAAGUU'
p114
aF0.9873417721518988
aa(lp115
S'Adenine'
p116
aS'GAUACAGCGAUCAGCGAUCAGCGAUCAGCGAUAAGCGAUCAAAAGCGAUCAAAAAAGAUCGCAGAUCGCAGAUACAAAGCGAUGCAAAGCAUCGCGUAUCAUAUCGCAGAUAAUAAUAUAAAAUAUAUUAAAAUUAUCAGAUCGCAAAAGAUCGCAAAAGAUCGCAAAAGUAUC'
p117
aF1.0
aa(lp118
S'Tripod5'
p119
aS'AAGCGAGCGCAAAAAGCGCCUGGAAAAACCAGUCGCAA'
p120
aF1.0
aa(lp121
S'Shortie 6'
p122
aS'GUGAAAGUAGUUAAUACACUAAAUGGGGGAAAGCC'
p123
aF0.8857142857142857
aa(lp124
S'Runner'
p125
aS'AAAAGGCGCAGCGCAAAAUGGCCUAUGGCCGGCGCAAGGCCGAGACUGAAAAUUAAAAGUUCGAUCCAAGUGGAUAUCGAGGCAAAGUUUAAGUCGAAAGACUGACGGCGCAAAAA'
p126
aF0.9482758620689655
aa(lp127
S'Recoil'
p128
aS'AAAAUGAUACAAGGAAGGAAGUCAAGUCAAGGAAGCAAAGCACCAGACAGACACCACCAGUAUCUAAAAAAAAAAAAAAAAAAAA'
p129
aF1.0
aa(lp130
S'[CloudBeta] An Arm and a Leg 1.0'
p131
aS'AAAAAGUCAGACAGAAAACUAGUCGGCAGGAAAACCGCCAGACAAAAAAGAAAAAAAAAAAAA'
p132
aF1.0
aa(lp133
S'[CloudBeta] 5 Adjacent Stack Multi-Branch Loop'
p134
aS'GAUAGCUGGAAAACCAGGAUACGAAAGUAUCGAUACGAAAGUAUCGCGCGAAAGCGCCUAUCA'
p135
aF1.0
aa(lp136
S'Triple Y'
p137
aS'AAAAAUUGCGAAGUGAUGAAAUUCCAGGAGAAAUCCGCCAUGCGUAGUCAAAGGGUUGCCUAGAAGAGUGUCCCGAAAAAAAAAAAAAAAAAAAAAA'
p138
aF0.9175257731958762
aa(lp139
S'Misfolded Aptamer'
p140
aS'GCUCGAAAAUGGCUCAAAGAGAGGAAAACCAAAAAAAAACCUAAAAGAGC'
p141
aF1.0
aa(lp142
S'Flower power'
p143
aS'AACAAGUCCGCUCGAAGGGCAUCGAAGGGAAGCCUGAUCCCAUAUCGGAUGCUCCAAAGGAGGGGAACGGUAAAAUCGGGAUGGAAAAAAAAAAAAAAAAAA'
p144
aF0.9607843137254902
aa(lp145
S'Kudzu'
p146
aS'AAAAUUUCAUAAGACUAACAGUUUAUUAAUGAGACGGGUGGCGUUUAUGGACUCUAAGGGCAUCACAAAGCGGCGAAGGAGCAAAAAAAAAAAAAAAAAAA'
p147
aF0.9603960396039604
aa(lp148
S'"1,2,3and4bulges"'
p149
aS'AAAAAGACGAGGCACGAAAGUAAAAGCCGCUCGAAAGAGACGAUCAAAAGGCCGGCCGAAAGAAAGCAUACGAAAGUGAGGAACCAAAAAAAAAAAAAAAAAAAA'
p150
aF1.0
aa(lp151
S'medallion'
p152
aS'GCGCUCAGCGAUCGAAAGAUCGCAGCCGAAAGGCAGUCGAAAGACAGCGAUCGAAAGAUCGCAGUCGAAAGACAGCGAUCGAAAGAUCGCAGUCGAAAGACAGUCGAAAGACAGCGAUCGAAAGAUCGCAGUCAAAGGACAGCGAUCGAAAGAUCGCAGUCGAAAGACAGGCGAAAGCCAGCGAUCGAAAGAUCGCAGUCGAAAGACAGCGAUCGAAAGAUCGCAGUCGAAAGACAGUCGAAAGACAGCGAUCGAAAGAUCGCAGUCGAAAGACAGCGAUCGAAAGAUCGCAGUCGAAAGACAGUCGAAAGACAGCGAUCGAAAGAUCGCAGAGCGC'
p153
aF1.0
aa(lp154
S'[RNA] Repetitious Sequences 8/10'
p155
aS'AGGAAAAAAGGAAAAAACCAAAAAAGGAAAAAAGCAAAAAAGCAAAAAAGCAAAAAAGCAAAAAACCAAAAAACCAAAAA'
p156
aF1.0
aa(lp157
S'Documenting repetitious behavior'
p158
aS'AAAAAAUGCAAAAAAAAAGGAAAAAAAAAAGAAAAAAAAAAGGAACAAAAGGGGAAAAAAAAAAGAAAAAAAUAUAAAAAAAAGAUAAAAAAAAAGCGAAAAAAAACAAAAAAAAAGAGAAAAAAAAAAGAAAAAAAAAAGGAAAAAAAAUGAAAAAAAAAGUAAAAAAAAAAGAAAAAAAAAAGAAAAAAAAAGUUAAAAAAAUACGAAAAAAAACUGAAAAAAAAUAAAAAAAAAGACCAAAAAAAGGAGAAAAAGGAUUAAAAAAAAAAUAAAAAAAAGUUAAAAAAAAAGAAAAAAAAAACGUAAAAAAAGAGAAAAAAAAACCUAAAAAAAAUGGAAAAAAAAGCAAAAAAAAACAAAAAAAAAACUAAAAAAAAACAGAAAAAAAAGUUAAAAA'
p159
aF0.9025
aa(lp160
S'7 multiloop'
p161
aS'UUGGCGUGCUAAUGCACGAAUAGAAAAUUUAUGACGCGAAAGCGUUCCUAAGAAAUUAGGAGUGAGAAAUUACUCGCCGGAAACGGCGUAAU'
p162
aF0.8695652173913043
aa(lp163
S'Kyurem 7'
p164
aS'AAAAAGCGACGCGUCAAAGGACCCGAAAAGCGCAGGGGAAAACCCACUCUAGGAAAAACUAAACGAGGCGCCGGGCGAUCGCGAAAAAAAAAAAAAAAAAAA'
p165
aF1.0
aa(lp166
S'JF1'
p167
aS'AAGGCGAACUUUCAGACAAGAUACGAAAGCGAUCAAGACACAAAGAGAGAAGGUAGUACAUAUAUAUAUAUAAAAAUAUAUAUAUAUAUGACGUCGAAAGACCGCGAUUAGCAAAGGCUAAUCGCUGGAUACGAAAGUAUCAACUACCACUCUCAGUGUCAGAUCGCAAAGCGAUGAGAAAAACUCAAUCGCGAUAUAUAGGUAGGUAUAGAUAUGUAAAAAUAUAUAUCUAUAUCGUAUCUAUAUGAAAGAUUCAAGAAAGGAUCGAUCAGAUGCGAAAGUAUCUGAUUAGACUGAGAAAUCAGAAGUAUCAAGUUUGUAUACAGUCAGUCGAAAGACGACGUAUGGCGAUGUGCGAAAGCGCACUCGUAGAGUAUCGUUCUUAGA'
p168
aF1.0
aa(lp169
S'multilooping fun'
p170
aS'AGUUGGGAAUAAUAGUGAAAAUCAAGAGAAAACUUU'
p171
aF0.8611111111111112
aa(lp172
S'Multiloop...'
p173
aS'GCGCAGCGCAGUCGAAAGACAGUCGAAAGACAGUCGAAAGACAGUCGAAAGACAGUCGAAAGACAGUCGAAAGACAGCGCAGAUACAAAAAAGUAUCGUCGAAAGACGCGC'
p174
aF1.0
aa(lp175
S'hard Y'
p176
aS'AAAAUACGGGGACCGAUUAGAAAACUAAUCGCGCCCACAUAUGUAUAAUUACGUAUGUGCCGUUAAAA'
p177
aF1.0
aa(lp178
S'Mat - Elements & Sections'
p179
aS'AAAAGGCUAUCAAAGAGCGAGGAUUACAGGAGCGCCUAAUUUAAAGAAAGUAGGCGCCGGGUAGAAAACGUCGCGCAAGGUUAGCAAAAAAAAAAAAAAAAAAAA'
p180
aF0.9619047619047619
aa(lp181
S'Chicken feet'
p182
aS'AAAAAACAAAGCCUAUGCACCGAAGAGAUCUGCUCCAGGAGGAAGCCAAGAAUCUGAAGACGUUAAA'
p183
aF0.9701492537313433
aa(lp184
S'Bug 18'
p185
aS'GGCGAGAGAAUGAAGGAAGGUGCAAAGUGGCCGCCGCAGAUGGACUAAAAGCA'
p186
aF0.9622641509433962
aa(lp187
S'Fractal star x5'
p188
aS'AAAAAAUGAUGAGGAGCGCGAAAGCGCAAGCGCGAAAGCGCAAGCGCGAAAGCGCAAGCGAAAAAUCGCAACUCAUCGUAAAAAGCGAUGACAAGCGCGAAAGCGCAAGCGCGAAAGCGCAGGCGCGAAAGCGCAAGGGAAAAAUCCCAAGUCGUCGCAAAAAGCGAUAAGAAGCGCGAAAGCGCAAGCGCGAAAGCGCAAGCGCGAAAGCGCAAGCGAAAAAUCGCAACUUAUCGCAAAAAGCGACGAGAGGCGCGAAAGCGCAAGCGCGAAAGCGCAUCCGCGAAAGCGGUAGGGAAAAAUCUCAACUCGUCGCAAAAAGCGAUGAGAAGCUCGAAAGAGCAUGCGGGAAAUCGCUAGCUCGAAAGGGCGAGCGCGAAAGCGCAGCUCAUCGCAAAAA'
p189
aF1.0
aa(lp190
S'Crop circle 2'
p191
aS'GGAAAAUGAAGGGAAAAACGGAAAAAAGGGAUAAAAAAAAAAAAAAAAAAAAAAAAAAAAUGAAAAAAAAAAAAAAAAUCGAAAAAAAGCGAGAAAAAAAGAAGCCAAAA'
p192
aF0.9636363636363636
aa(lp193
S'Branching Loop'
p194
aS'GCGGGCAAAAAAAGAUGGUUAAUGCCGACUCGGAAAAAAA'
p195
aF0.95
aa(lp196
S'Bug 38'
p197
aS'AGGUGUAUAAAGUGGAAAUAGGGAGUUGCUAAACAC'
p198
aF0.9444444444444444
aa(lp199
S'Simple Single Bond'
p200
aS'AAAAAAGGAAAAAAAAGCGAUAAAUUCGCGAAAAAAAAUGAAAAAAAAAAAAAAAAAAAAA'
p201
aF0.9672131147540983
aa(lp202
S'Taraxacum officinale'
p203
aS'ACACGAAAGAUGUAUUGGUAAUCACAAAUCUUCGAAAACAGGCCUCAAAAGAAGGGCCGCAAAAGUCGGAUUAGGACAUAGAUAGGGAGACGAUCCAUAUGAGAUCAAAGAUUAUCGUAUGAGAUGCAACAUAUAUAUAUUGGUUGUCAAAGACGACCUUAUAUAUAUGGUGUACCGUUCAAAGGGUGGUCGCGCAUCGAAGAUUGUCUUCCGGCGGGAAACACGCAGCGCGAAAGACGCAGCGCGAAAGACGCGGCGCGAAAGACGCAUCGGGAAACACGG'
p204
aF0.9787234042553191
aa(lp205
S'Headless Bug on Windshield'
p206
aS'AGGUCGUAAAAGCGAAAAAGCAGCGAAAAGAAAAAAAAAAAAAAAAAAAAUGCGGCAAGCUUAGCAAUCGUCCAGGUGUGUCAAGGAAAAAAAGCAAAAGCGAAAGAACCGAUUAAAAAAUCUGACACAAAAAAAUGCUAGAGAAGGAUAUACGCGCCCCCCCCCCCCAAGCGAAAUUGUGUAAUGUGGCGAGUAAGGGU'
p207
aF0.98
aa(lp208
S'Pokeball'
p209
aS'AAAGCGAUGUAAAAGGGAGAAAGCCAUGGGGGGAAGUAAGGCACGAAGCGAAGCACGUUCCAGCACCAAUCGGAUGUCUCCGCAUCGCAAAAAAAAUGGAUUUAAAAGGAACAAAGGCAUUAUAGGAGCAAAGAAAGGAAUAAAACGGCCAGUCGUGACAAUUCUGCUAUGGCCAGAUCCAGAA'
p210
aF0.967391304347826
aa(lp211
S'Variation of a crop circle'
p212
aS'AAAUCUGAAAGCUAAGGGAACGGGGGGGUUGCAAGGCUUCUAAAACAAAAAAAUGAAAAAAUGAAAAUAAAAAUGUAAAAAAAAAAAA'
p213
aF0.9318181818181818
aa(lp214
S'Loop next to a Multiloop'
p215
aS'AAGCGAUUAUUAAAGAACGGCGGGCGAAAGCCCGCAGUGGUGCAAAGGCAUCACAGGAAAAAUAUAAUCGCAA'
p216
aF1.0
aa(lp217
S'Snowflake 4'
p218
aS'AAGCAAAGCCUGGACUCUUAAUCGCUAGAAGGAGACGGUAAUAGGUUUACCGCGAACCGGAAGGGCGAAGUCCAAAAUGGAAAGCUGAUUCAAUACAUAUGAAAAUGCGAUCGAGAAACUUGAACUGGAAGCCAGGUCGUGUAAAAAUGUGUAACGACAGAGUAAACUCCGAUGUAGAAGCUAUAACUGGAAACCGGGUCGGGGAAAAUCUAAUCUAUACUGAGUAAUCUGCGAUCUUCAAAGAAGAAAUGGAAACCGUGUCUUCAAAAAGACGGUAAUGAUAAAGGAAACUUUAUAACGCAAAGCGUAAGUGCAAAGCGCUAAAACAAAAGCUUUAUCUAUCUAGCGAAAAUGAGUCCCUAGAAACUAG'
p219
aF0.8594594594594595
aa(lp220
S'Mat - Cuboid'
p221
aS'CAAGGAAAAGUAAGGAAAAGGAAUGAAAAGAAGAAAGGAAAAGCAAGCAAACAAAGAAAGGCAGAAAGGAAAAACGAUCGAGCAAGCAAAAGCAUGUAAGUAAGGAAUCAAAAGGAAGAAAGGAAGGAAGGAAAAGGAUGGAAGGAAGGAAGUAAGGAAAACGGAGGAACGAAGCAAGGAAGAAAAAGGAAGUAAGGAAGGAAGGAAGCAAAAAAGCAACCAGCCAACUAAGCAACCUCAACCAAGCAACGAACCAACGCCAAACGACCAACCAACCUACCCCAACCGACCAAUCAACCGAAGCUAACCAAACUUCCCCAAGCAACCAAGCCAAAGCAAUCAACCGAAGCAAGCCCAAGCGACCGAACCCCAAGCCCAAG'
p222
aF0.9526315789473684
aa(lp223
S'Misfolded Aptamer 6'
p224
aS'AAAAAACGCAAAAAACCGCAGCGAAAGGGAAAAAAAGCCCAAAAGAAAAAGUGGAAAAAAAGUGGAAAAAAAAAA'
p225
aF1.0
aa(lp226
S'Snowflake 3'
p227
aS'GUAUUAAAAAAAGUAAUCGAAAGAUAAGCGCAGCGCAAGUCGAAAGACACCACUAAAAAAGACAAAGACUGUAAUCAAGGCGUCGAAAGACCACCGUGGCGCAAGUCGAAAGACAACACUAAAAAGGUCAAGCCCGGAAAACCAGUUGACUAAUGCCAAGCGCAGGGUAAGUCGAAAGACGACACAAAAAUGCUCAAAGGCCGAAAGGGCGUCGUAGAAAGACAAGCGCGCCGAAAGUGGAAACACAGUACCAAAAGGUCUUAUGACGUAAAAGCAGCUGCCAAAGGGCAAUCGGAGCGCAAGUCGAAAGACAUUUGAGAAAUUGUCAACGGCGGAAAUCCUAAGGUCGAAAGACAAGCGCGGCGUAAGUCGAAAGACUACAUGAAAGCGUAC'
p228
aF0.7964376590330788
aa(lp229
S'Hard Y and a bit more'
p230
aS'AAAAACGUACAUUCGCCCGAAAGGGCUGGUGCGGGGUCAAGCACUAAUGUGCGAUAACGAAAAAGGAGUGAAGGACUCGCGUAUGGAAAAAAAAAAAAAAAAAAAA'
p231
aF0.9716981132075472
aa(lp232
S'Mat - Lot 2-2 B'
p233
aS'GGAUUUAUGUUCGGGGAAGAUGAAUGUUGAAAAAAAAAUAAAUACCACGAAAAUGUAAAAGCAAGAAAGGAGACCAAUGGAAAAGGAAGAUCGACGAAAAGGAAAACUCUGAGAAAAAUCGACCCCUAUGGGAAGUAAGGAAAACCGGAAGAUCGAGGAAAAGUAAGGUGGAAACAAAAAUCAACCCCGACAAAAAUCAAUCGCAACCAAGAAGCUCAAAAGAAAAUGAACAUCAAGGAAAAGGAAAACCCCGGGAAAAAUCAGCCCAAGUGUCAAGUAAAAAC'
p234
aF0.8309859154929577
aa(lp235
S'Shapes and Energy'
p236
aS'AAAAAAGAGAGUGGGGCCCAACAAUUCUUUGGAAACUAGCGUGGCGUCCAACUACUGCCAUAGUAAUGUAUAGGAUUUGCAAAAAAAAAAAAAAAAAAAAA'
p237
aF0.9603960396039604
aa(lp238
S"Spiral of 5's"
p239
aS'GAAAUGAUACAAAUAUAGAAAGAUAGAAAGGGUACAAAGAUAGAAACAUAGAAGAUACAAAAGAUACAAAGAUAGAAAGAUAGAAGAUACAAAGAUAGAAAGAUAGAAGAUACAAAGAUAGAAGUUACAAGAUAGAGGAUACAAGAUACAGAUACAGACAGGUAUAAAAAAUAUACGGGGGCUGUCAAAAAGUAUCAAAAAGUAUCAAAAGGUAUCAAAAAUUAUCAAAAAGUAGCAAAAACUAUCGAAAAGUAUUAAAAGCUAUCAAAAACUAUCAAAAAGUAUCGAAAACUAUCAAAAACUAUCAAAAAGUAUCAAAAAGUAUCGAAAACUAUGAAAAACUAUCAAAAAGUACCAAAAACUAUCAAAAGCUAUAAAAAAGUAUCUAAAAUAAAAA'
p240
aF0.9949622166246851
aa(lp241
S'Campfire'
p242
aS'AAAAGCUCAGCUUCGAAGAGGAACCGGGAAAAUCGGAGCGGCGAAGUCAGCUCCGCGCGUUUAUAAGGAGUGAGUAAUCUACACCCUGCGCGGAAUAAGUGGGAAACCGUUCUUAGAGUCGAAAGAACCAUAAAGUCAGCGAGGUCCCCUAGGACCAGCGUGCCAGGUGGAAACGUUGGCGAUGGCCAGGCAAGGCCAUGAGCCUGGUGAGC'
p243
aF0.8820754716981132
aa(lp244
S'Anemone'
p245
aS'AAAGCGAUAGAAAUGUCGCGAAUCGAAAGAUUCGAGAUCGAAAGAUCUCCCUACGAAAGUAGGCAGAUCGAAAGAUCUGGUCACGAAAGUGGCGAGGUGAAAAUUUCGGGCUCGAAAGAGCUCAGCUACGAAAGUAGCGCGCGUGAAAGUGCGCGAUACGAAAGUAUCCUGAUCGAAAGAUCAGCAUUCUAAUGAGUGGGAUAUGUAAAUAUUC'
p246
aF1.0
aa(lp247
S'Fractal 3'
p248
aS'AAAAUGCGGAGUGAGCAAAGGCGGAAAUCCACACUGUGGGUAAAAGACGAAAACGUCACUGGGUAUGAAAACCUAAAAAGUGUCAAGCAGGAAACCCUCGAAAGGAGCCAACGUUAAAA'
p249
aF0.9495798319327731
aa(lp250
S'Kyurem 5'
p251
aS'AAAAUCGGAAGAAUGAAAGCAUUUGACACACGCCGGGAAACACAAAAGGUGACCCUUCAAAAAGGAGAACGCUGAUUGAGUUUGUAAAAAAAAAAAAAAAAAAA'
p252
aF0.9807692307692307
aa(lp253
S'Snowflake Necklace ( or v2.0 )'
p254
aS'GAUACAGCUAUAUAUGGAUUGAGUAAAAAGUAGGAAAAACCAGUAAAAACCAGGAAAAACCAGGAAAAACCACGAUCAUGCAAAAAGUAAUAGAGAGGAAAAACCGGGUAAAUCCAGGUAAAUUCACGAAAAACGAGCAAAAACCCCUCUAAGUCAAAAAGACAUGGUUAGGAAAAACCUGGAAAAACCUAGAAAAAACACGGAAAACGAGCAAAAACCAGACCAAUGCAAAAGGUCAUAGCGAUGAAAAACGAGAAAAAAGCGGGAAAAACCAGGUAAAUUUACGAAAAACGACGCUAACUCAAAAAGAGAUUGUUAGGAAAAAUCAUGAAAAACCUGGAAAAACCUGGAAAAACUACAAAAAAUAAAGCAAAGUAUAUAGUUGUAUC'
p255
aF0.8817480719794345
aa(lp256
S'Methaqualone C16H14N2O Structural Representation'
p257
aS'AGCCCAAGCUCAUCACAGUCAGUCGAAAGAUAGCCAAUCGAAAGAUAGUCAAUCGAAAGAUAGUCGGUCGAAAGAGGCGCAAAAAAAGCAUAACAGACAGGCAGACACGAAGAGCGAGUCGCAAAGAGGUUAAAUUAAAGCAAAAAAAAGAUUGUCACUCGAAAGAGGUCGAAAGCCGUCGAAAGACGACGACGAAACGGAGAAACAGACGUUGAGUCAUGGAGUCAAAAGUAUAAUUACGGACAGUCGAAAGACACCAAAUCGAAAGAUCGACAGUCGAAAGACACACAGUCCUCGAAAGAGGUCGAAAAACAGGCGAAAGCUGACGGUAAACGUGAGGCGGGGCGCGCCCAGA'
p258
aF0.9352112676056338
aa(lp259
S"Cat's Toy 2"
p260
aS'AAAGUUGAUGUCUAAACGCACGAAAAAAAAAAAAAAAAAAGUUGCAAAGGAAAAUCGAUGAUAAGUGUAAAAAAAGCUAAAAAUGGACAUCGAAAAA'
p261
aF0.979381443298969
aa(lp262
S'Zigzag Semicircle'
p263
aS'AAAAAUCCGGAGUGAAAUUAAGAACGUGGUGAAA'
p264
aF0.9411764705882353
aa(lp265
S'Short String 4'
p266
aS'AAAAAAGCAGUAGGCAAGUAGGACGACGAAAUAACCGACAAGUGGUAAUGAAAACGAAACUAGAAUUAGCAAAUGCAAAAAAAAAAAAAAAAAAAAA'
p267
aF0.9484536082474226
aa(lp268
S'Gladius'
p269
aS'GGAAACAAAAACUGAAAUAAUCUAAGAAGGAAAAUCAAAGCGCGAAAGCGCGGUAAGUAGAGCCAAGACCCGGUACGUGCAAGAGAUAUAAGAUGGAUGCGAUACACCGCAGCUAAACAUCAAAGAUGGUAGACGCGGGUUAUCCAAUUUGCAUUAUAUCAACAGCGCAAUUUGGGAACAGACAACUCAUAUACAAAAAGUCAGAGUCAGCAGUUAAAAGAUCAGAGGCUCAGAAGGUAUACAUUAUAUUAAUCUAGCGGACAGUAAGCGAUCGAAAGAUCGCAGUACGAUCCGACGGAUACAUAUAUAGUAUAUCACGAGAGCACAGGAUCAUAGGACACAAGACUCGUCUCGAAAGAGGAACGACGGUCAAGUAAAGUAAAGAACAAAGUCAGAAAAC'
p270
aF0.9
aa(lp271
S'Thunderbolt'
p272
aS'GCGAGAUAUAAAAAAAAGAGCAAGAGAUGGGAGGAAACGUCGAUGAAAAAGAAAAAGAAAAAAAGUGCAAAAAGCGCGAAAAAUCAAAGGAAGUAAAAAAAGGAGAAAAAACGAUAGAGGAUGUAAAAUGAAAGAGCUUAAAAAAUCAAAAUAGAGGACAAAGGCCGAUUAAAAGAUGCCGCGAAGUAAAAAACGAGAGCAAAGCACGAGGAAAGAUCAAAGCGGAAAAAAAAGCGCGGACACUUGGGAAACACGAGUCAAACCAAAAAAAAAAAAUAACCAAAAAAAAAGGGGAAAAAGAGCGGUAAAAAGAAAAAAAACGAAAAACCGCUAGCAACAAGUUCAUCGGAAAAAAAUUGUCUAGUGCAAAAAGAAAAAAACAAUAUCAAGCA'
p273
aF0.9846938775510204
aa(lp274
S'Mutated chicken feet'
p275
aS'AAAAAAUUGAGGAGCAAAUAGCGAAACGAAAUACGUGGAGUAGCGAAGCAAGAAACUAAGACCUUUCAGAAGAAAACCGGGAAACAAAAACGGUAAAAAA'
p276
aF0.82
aa(lp277
S'Chicken Tracks'
p278
aS'AAAAAAAAGCAAUGCGCCAGAAAUGGCAAUCGCAAAGGCGAAACAUCGAAAGGUGGCAUUGCAAGACCGGCAAAGCCGAAGCGCAAGGCGCGAGUCCAAAGGAUGUCGAAUAAAAA'
p279
aF1.0
aa(lp280
S'Looking Back Again'
p281
aS'GCAAACUCUAUUAAAAAGCGAUCAAAGAUCGUAGUCAAGAUCAUCAAUUCAAAGAGGAUGGAUACAAAAGGCAAAGGCCUGAAAGUGUCAAGAUAAGAGAACGUCCUCAAAAGGGUACGAAAGUGCCAAAAAAGAGGGUAGGAUCCUAUGGAUCCAUACAAAGUAUGGCUAGUUGAAGGGGAAGGUGAAGUAUGGGAAAGCCCAAUCACUAUCAACGUGCUAGAAAUAGAAACUGGCAAACUACUGACCAGAUACACUGGAAAAACCGCGUGUAAAAAAAAGCGCAAAAAGCGCACACAAAUCGACAUUAUUAAAAAAAGAUCGAUCGAAAGAUCGGAAGUCUCGAAGAUGAUACAAAGUAUCUAGACUCAAACCAAGGUGUCAAUGGC'
p282
aF0.8766066838046273
aa(lp283
S'Multilooping 6'
p284
aS'AUCUUAGCAAGAUACUAAUGUAUCAGUUGGAAACAACGUUUGAUGAGACGAAAGUCUCCGUAGGAAACUACGCCCCUAAGUA'
p285
aF0.9146341463414634
aa(lp286
S'Cesspool'
p287
aS'AAAAUAAGAAAUAAGUGAAGAUAGUCAAAGGCAAGAACAACGCAAGGGGAAAACAGCACUUGAAAACUUGAAAAACGAAAGAUUAAUAAAGAUUAUAAAGGAAGUGAAUACGGUGAAAUACAAGAGAAACACAAUGAUAAAAGGAAACCGGAAAACAAGAAAAAGGAAACAUAGAUAUGCAAGUUCAAAAGUACAGAAGGGGGUGAAAUACAACAACAACUGAAGGACAAAAGAAAAUAACAAAAGGAAAAAAACGAAAGAUCAAGGUAGGAAGAAGGAAACAUGGCAAGAGAGCGAAACGCAACGACGAGCCUUAUUUAAAACGCGUGCAUUAAUAGAGUAAAAGGAAACAACAACA'
p288
aF0.7988826815642458
aa(lp289
S'Hoglafractal'
p290
aS'AAUAGGAAGAUACAAAAGAUACAAAAAAGUAUCGUAUCGCCAAAAAUACAAAAAGUAUUAGUUUUACUUCGAAAGAGAAAAGUUAAAGCGAAAAGCUCGAAAAAGGGCUCGCAACCAGUCAAAAAGACGUUGGACAAAAAUGGCAGCGCAAAAGUCGAGUCAAAAAGGACGACAAAGGAAAAACCUAAUCUAAUGAUAGAUUGAAAAAGGAGGAAAAAACCCCAUCGAAAAGAUGUAAAACCACCGGUCAAAAAAUGCAAAAAAGCAGGAAAAACCGACAGCGGUCAAAGACCGCUAAAAAAGGACCGGGAAAAACAAUCAAAAAGCGCAAAAAGUAAACCAAAAAAGUAGAGCGCAAAAGGAAAACCGGAAAAUAGACAUAAAAUAUGUCCGCGCCUUC'
p291
aF0.915
aa(lp292
S'Bullseye'
p293
aS'AAAGUGGGGGAAGCCCUAUUCUUGAAGGGCUAGAAUAAAGUGCUAUAAAAAAAAGCCGAUCAAAGAUUAAGCGUGAAGCGCAACUGCUAGGCGCGCCGAAAAAAUUUCGCGUUAUGCGUAAGGUCAAAGACUGAGGACUACGUCCGAGUCAAAAAAGUCGUUCAAGGACCAAGCGCGAAGCGUGAAGGCAAACCGAGGCAAA'
p294
aF0.8415841584158416
aa(lp295
S'Shooting Star'
p296
aS'GCGUUCGCGAGCGUUGAAAUGAGAGGUGGUCAUAGAGAGAAAUACUAGAGACAGAAAACCUAUCAACGCAGAUAUGAGAGAAGGUGACAGGUAGAGUCAGCGCAGGUAAUCACGCAACGACUAUACACGACUCUAAACCGAGUGAAACAAUAUCCACAGAUACAAAGUAUCAGACACAAAGUGUCCGAAAAAUAGAUGAGAUCGCAGUGAAGCUCAAAGGUAGUCGAAGACUACCACGUAGAAACUACGGAGCGCGCGGUAAAACCGCGCAGAUACAAAGUAUCUCGUCCGGAAUCAAAGAUAGAAGGACAGACUCACCGCAGGAAAAUACGCGAGGAGACAACAACGCGUGCUCUAGAGCGCA'
p297
aF0.8379120879120879
aa(lp298
S'Teslagon'
p299
aS'AAAAAAGGAAAAGAUGAAAUAAAAGAGAGACGCCCCCAGCCGCCAAACAUAAAAAAUGCGGCCCCCCCCCCCCAACGACCAAAAGAAGCAUUAAAAAAAGGCCCCACCCCCCCCAAUCUAAAAAAAAUGGAAAAAAGGGUUGCCCCCCCCCCCCCAACAUAAAAAAUACGUCCCCCCCCCCCCAAUGACAAAAAGAACCAGGAAAAAAAUGCCCCCCCCCCCACAACAGAAAGAAUCAGGAAAAAAAGGAGAGCCCCCCCCCACCAACGGAAAAAAUGUGUCCCCCCCCCCCCAUUGACUGAAACAUGAGAUAAAAAAAAUGAAAAAAAAAAAGACCCCCCCCCCCCCAAUUAGUGAAACAACUAGGUAAAAAAUCAAAAAA'
p300
aF0.837696335078534
aa.