(lp0
(lp1
S'Simple Hairpin'
p2
aS'GAUGUUAAAAUAUAUC'
p3
aF1.0
aa(lp4
S'Arabidopsis Thaliana 6 RNA - Difficulty Level 0'
p5
aS'UCGGGGGUAAACACUAAACUAAAAUGUGCGCAGGAAUGCCGGGUGGGGAUCGGGGUAAAACGUGGAAAAAGCUACGGUACUUCAGGUUCUUAUUUGGAUUUUUUGCGAUCUCUUGA'
p6
aF1.0
aa(lp7
S'Prion Pseudoknot - Difficulty Level 0'
p8
aS'GUGGGGAGUGGUAAUCUACCUCACACAAAAAAAAAA'
p9
aF1.0
aa(lp10
S'Human Integrated Adenovirus - Difficulty Level 0'
p11
aS'CUACGGUGGGGCGUUGAGGAAUAAAAAAAAAUGGGACAGAUGCUAAAAAGAGUAGGUGAAAACGUAGUGGUGCAUAAACAAUUGUAUCACUAAAAGUAUACGUGCAAACACACUAAAAUCCUCAAAGCUCGGUCAAAAUACUGUCCUUCUAAAAAAAAAAUUUUCUUUAUGUAAAUCUUACCAAAGUAGAAA'
p12
aF0.9479166666666666
aa(lp13
S'The Gammaretrovirus Signal - Difficulty Level 0'
p14
aS'AUGUGGAGUCGUGGAAACGCGACGACUCUUAAAAGGGCAAGUCCGAUCGGGCGGAAACGUUCCAAAGAUCGACGUCCAGGUUGUCGGUAAUCCGACAGCAA'
p15
aF1.0
aa(lp16
S'Saccharomyces Cerevisiae - Difficulty Level 0'
p17
aS'CGUCGGUCGGAAAAAAAAACCUGACAAAAAAAAAAAAAAAGACUCAACGGGUGGAAAAAUUUUGCGUGGACGGAUGGGGCUGCCCUACGAAAAAAAUAUGCCAGAAAAAAAAAAAAGGGAAAAGUGGCUAAAAAUGCUGUGUGUGGAUAAAGGGGUUGAACAGCUAAAAAAUGCUGGCGUCAGAAAAAAUGAUGCAAAACUAUAUAAAAAUCGUGGCCUCUUCAAAGGUGGGCGAACUGGGAAAAAAACUGGGGGUGCUAAAAAUGUAUUAAAACGGGGGAAAAAAGCUCUACGCUUAUAAAAGGGUAGCAACCCAGAAAAAAAUGGGGGGGACGAAAAAACUAUAAAAAAGGCUUAAAAAAGUGUCCGUUGUUUCAAA'
p18
aF0.8337730870712401
aa(lp19
S'Fractal 2'
p20
aS'AAAAUGGGCGAGGAAAGGGGAGUGGGGAUGCGCAAAAAAAACCAUCGAUGGGAAAAAAAAACAUUGAAGGCGAAAAAAAAAACGUUAAUAUGUAGCUUGAGGGUUUUGGGGUUGUGGGAAAAAAAAACUACUAGGGGAAAAUAAAAACUUCGUCGAGGAAAAAAAAACUUCUUAUUUAGUGCGAAAGGGGCGCGGCAAGGUCGAAAAAAAAAGUUCAAAGGGAAAGAAAAAAAGCGAGCUUGAAAAAAAAAGCAUGAGGAUGAGCCUCGAACUUUUUGCCAAAA'
p21
aF0.7746478873239436
aa(lp22
S'G-C Placement'
p23
aS'GGGGUAUCUUCA'
p24
aF1.0
aa(lp25
S'The Sun'
p26
aS'GCGAGGGGGUGAAACAUCAAUUCAGCAAUUUGCGGGGGGGAAAGAUCAACUCGAGUAAGGUAAGUGGGGAAACUUCAAGUUGUCUAAGCGAGAGGCUCUAUGGGCAACUCUGCAAGAGCAGUGGGGAAAAUUUCAACGCUUUAAGGAUAGGGAGGGAAACUGCAACAAUUCAAUGGGAUAGGUGGAAAAUGCAAUUGUCAUAACUUAACGGGGGUAUCUCCAAAUUAAGGAAGGGUCCGGAGGAAAUCUCAACGGCUC'
p27
aF0.8682170542635659
aa(lp28
S'Frog Foot'
p29
aS'AAAAAAAAAAGCGGGAAACUGUCCGAUAUUUCGGCGGCGAAGCCG'
p30
aF1.0
aa(lp31
S'InfoRNA test 16'
p32
aS'GAGGGCACGGGGAGGAAAACUUUCACCAGAGUUUUC'
p33
aF1.0
aa(lp34
S'Mat - Martian 2'
p35
aS'GAAGAAAGCUUCAAGGGAGUAUAAGGGGGAUAAAAAAGGUUCUUCGUACUCCAAGGGGCCGGGAGAAAGGUAGUCGAGGGGAGCAAAAAAGGUUCUUCCGAUUGCGAGGUUCCGCGGAUGGUUAAAAAUAUCGUUCAGUGGGGCAAAAAAUUUGGUUCAAAGCCUUGGUAGCGGGGAAAAAACUUGUUGAUCCAAGGCGAAGUGGGAAACUAC'
p36
aF1.0
aa(lp37
S'square'
p38
aS'GCAUUAUGAGCAAGUUACGGCCGCCCUAUGGGUGGAAACCCGUAGCAGAAUUGCUCUAUAAUAGUGC'
p39
aF1.0
aa(lp40
S'Six legd turtle 2'
p41
aS'AAAAAAAAAAGGGAAAUCAAAACAAAGGUGAGGUUAAUACAAAGUUAAUAUAAACAAAAAUGAAAUUGAAAAGAAAUUAAAAAAAAAAAAAAAAAAAA'
p42
aF0.9591836734693877
aa(lp43
S'Small and Easy 6'
p44
aS'GUCGGGAAAAAUGAAGUGAAAAAAUCGUAC'
p45
aF0.8666666666666667
aa(lp46
S'Fractile'
p47
aS'AAAAAAAAAAAAAAGAAAUCAAACCAAACGAAAACGCAAUUAAAAUAAUUUAAAGUAACCAAAAGGAAGAGGAAUAAAAGUGAAAAAAAAAAAAAAAAAAAAAAA'
p48
aF0.9428571428571428
aa(lp49
S'Six legd Turtle'
p50
aS'AAAAGGGAAAAGUUAAUGUAAAAUGAAAACAAAAGCGAAAGAGAAAAUCAAAAGAAAAUGUGAAAGCUAAUUAAAAGUGUAAAUCAAAAAAAAAAAAAAAAAAAA'
p51
aF0.9619047619047619
aa(lp52
S'snoRNA SNORD64'
p53
aS'UGCCUGUAAAAGCCUAAAUGCUAAUCUGGAAAAAAAAAAAAGCUAGAAAAUGUAAUGGUCUCAGGUA'
p54
aF1.0
aa(lp55
S'Chalk Outline'
p56
aS'AAACGACCGGUGGGAGAAAAUAAUAAGGAUCGAAAAAAUGUCCAUCUGGUAAAGACGCGGGAUAAAGUAAUCUUAAGUGGAAAAAAAAAAAAAAAAAAAAAAAA'
p57
aF0.9038461538461539
aa(lp58
S'InfoRNA bulge test 9'
p59
aS'GACCGGUAGAGAGCGUGUUAGGAAACUAGCACCCCGCUGGUC'
p60
aF1.0
aa(lp61
S'Tilted Russian Cross'
p62
aS'AAAAUUAGGUGCGAAAGCAGCUGGAAGGAUAAAGAUACAGUGGUAAUCUGUGGACCGAAAGCUUUGCUAAGUUUCAUGGCUCUUAUAAAAAAAAAAAAAAAAAAA'
p63
aF0.8380952380952381
aa(lp64
S'This is ACTUALLY Small And Easy 6'
p65
aS'AAAAAAAAAAAAAAAAAAAAAAAAAAAAAAAAAAAAAAAAAAAAAAAAAAAAAAAAAAAAAAAAAAAAAAAAAAAAAAAAAAAAAAAAAAAAAAAAAAAAAAAAAAAAAAAAAAAAAAAAAAAAAAAAAAAAAAAAAAAAAAAAAAAAAAAAAAAAAAAAAAAAAAAAAAAAAAAAAAAAAAAAAAAAAAAAAAAAAAAAAAAAAAAAAAAAAAAAAAAAAAAAAAAAAAAAAAAAAAAAAAAAAAAAAAAAAAAAAAAAAAAAAAAAAAAAAAAAAAAAAAAAAAAAAAAAAAAAAAAAAAAAAAAAAAAAAAAAAAAAAAAAAAAAAAAAAAAAAAAAAAAAAAAAAAAAAAAAAAAAAAAAAAAAAAAAAAAAAAAAAAAAAAAAAAAAAAAAAAAA'
p66
aF1.0
aa(lp67
S'Shortie 4'
p68
aS'GGAAAACCAGGGAAACU'
p69
aF1.0
aa(lp70
S'Shape Test'
p71
aS'AAAAACAUGACGGGGGGCGAAAAAAAGCUUCAUUUGAUAGUGAGGGGAAAACCUUCAGACCAAAGGGUCUCUACAGUAGUCAGGGAAAAAAAAAAAAAAAAAAA'
p72
aF1.0
aa(lp73
S'The Minitsry'
p74
aS'GGGAAAAAGGCGAAAACUCUAAAAUUUAAAAAGGCAAAAAAAAGAAGUGGUCGCAGUCACUC'
p75
aF0.9032258064516129
aa(lp76
S'stickshift'
p77
aS'AAGGCGGGGGAAAAACCACUUGUCAA'
p78
aF1.0
aa(lp79
S'U'
p80
aS'AAUAACGGGCAGCGAUGCGACGGGGGUAGAAAGCUGCUCUCGCCACCGCCUGGAAAA'
p81
aF1.0
aa(lp82
S'Still Life (Sunflower In A Vase)'
p83
aS'AAUGGGGAAGUGCCAAAAGGGUGUAAUGCGGUAUCUGUAGAGGGUGGAAAACAUUUGUGGGUGGAACUUCCUGCGGGAAAAAAUUUUGAAGUCCCAAAAAGGGGCGGGGGGGUCGUGGGCGGGGGUGGAGGGUGAAAAAACGUUCAGGGGGUAAGAGUAAACAUGAGGAGUGCGGCGGGGAGGGGGUGGGGGGGGGGGGGGGGGGAAAGGUUCUAAAAAAAAAAAAGCUUCGGUAGAAAACUAUUAGUCAUUCUUAUCUUUUAUAUUCCAAGGGCGAAAAGCGCUCGAGAGGGGAAAACGUUCGGGAGGGAAAAACUAUUAAGGGCGAAAAACGUUCAAUUGGUAAAGCUUAAAUGGGGGAAAAGCCUUUUCUUCCAA'
p84
aF0.7962962962962963
aa(lp85
S'Quasispecies 2-2 Loop Challenge'
p86
aS'AAACACAAGAGGGGUGGUCAAACGGCCUAUCUUGUCUGGGAUGUUUAAAAGGUUCGGGGACAAUUAAAUAUUACCAAUGAACUUAAAAAAAAAAAAAAAAAAAAA'
p87
aF0.8952380952380953
aa(lp88
S'Corner bulge training'
p89
aS'UGGGCUGCGAGGUAUCUUCGAUAACAGCUCU'
p90
aF1.0
aa(lp91
S'Spiral'
p92
aS'AAAAUGGUCAGUCGGAACACAGGAGAAGACGAGUGAAGCACUAGUUAGAGUAUGGAAAACGGCCUGCGGGCUUACCGUCUUUCCGUGUCCGACGACCUAAAA'
p93
aF1.0
aa(lp94
S'InfoRNA bulge test'
p95
aS'AAAAAAAAAAAAAAAAAAAAAAAAAAAAAGGGGAAAAAAGGGGAAAACGGGAAAGGGGAAGGGGACGGGAAAAACCACGACCACCAACCACCAAACCACGAAAAACCACCAAAAAACCACCA'
p96
aF1.0
aa(lp97
S'Worm 1'
p98
aS'AAAAAAAAAUGGAGGUGGGAAUAUAAAAGAGCCUUGAACAUAAGC'
p99
aF0.9111111111111111
aa(lp100
S'just down to 1 bulge'
p101
aS'AAAAAGGCUAGGGGGAAAACCCUCAGGGAAAACCCGGGACCAAAAGUAGAGGGGAAACUCGGGGGAAACUCUCUGCGAAAAAAAAAAAAAAAAAAA'
p102
aF1.0
aa(lp103
S'Iron Cross'
p104
aS'ACGAAUUGUAAGGUAUAAAAACAAUGGGAAAACCUUACCAAGUCUCUUGGAAACGGGGAGAAACUCAAUGAAAGGGAUCGAAAACUAAUUUAAAGGAACUCAAACGAACUGAAAUAGAUUGAA'
p105
aF0.9349593495934959
aa(lp106
S'loops and stems'
p107
aS'AAAAAGGUGGGGAAAGGAGAAACGGGAAAGGUGAAAAAAAAAACGUGAAAAAAAAAAAACGCGUAAACACCAAAAGGGGAAAAAAAAAACUUCAAACUUGAAAGGGAAAAAAAACCCAAGCUUCAAGGUAAAAUCCAAACUUCGCCAAAAA'
p108
aF1.0
aa(lp109
S'Water Strider'
p110
aS'AAAAAACUGGAAGGGUAAGAUAAAGGCACAAAAAGUUGCCCAAAAAGUGGGUGAAAGUGUGGAAAACGCUCUAACGAUUUGUAAAAAAAAAAAAAAAAAAAAA'
p111
aF0.912621359223301
aa(lp112
S'The Turtle(s) Move(s)'
p113
aS'AAGAAAAAACUAAAUUGAGAUAGGAAAAAAAAACUUGUCUUAUAAAGCGGAAAAACUGCGGAGAGGAUAAUUUCGAAUGCGCUAAAAAUGUGAAAAAACGCGAACCCAAAGGAGAUAGGGAAAACCCAAAAGAACUGGAAAAAAUAGUUCAAAAGCAGAAAUGCAAAAAGUCGUGAAAAGCCAAAAAAAGUCAGCUAAAAAAAAAUAGAAAGGGCGAAAAUGCGUCCAAUGGGGUAAAUCUUCUGUGUGACGAAAAAAAUGGAAAACCUGAGAAAAAAAUUAAAAAAAGAGGAAAAAAAAAGAUCUUAAAAAAGCG'
p114
aF0.9810126582278481
aa(lp115
S'Adenine'
p116
aS'GUGUGGCAAUGGGGGGGGGGCGGGUUGGGGGGAAGGAGGGAAAAGGAGAGUAAAAUCUUUUCGCUUUCCGCAGUUAAACGCGUGGUAUCUAUGUGGAUUGGUCUCUCAGGCGGUGGGUACAAAGUAUCUAAACCUGUCGGAUCUGAAAACUUUUUAAAACCGUUGGAAACAUAC'
p117
aF1.0
aa(lp118
S'Tripod5'
p119
aS'AAGGCCGAGUGAAAAGCUCGCGGGAAAACUGCGGCCGA'
p120
aF1.0
aa(lp121
S'Shortie 6'
p122
aS'GGAAAGCCGCAGAAAUGACAGAAAUGAGGGAAACU'
p123
aF1.0
aa(lp124
S'Runner'
p125
aS'AAAAGUGGGAGACGAAAAACGAGAAAUUUGGCAUCGACGUGACGGGGCGUAACGCAAACUCAUGAGGAAACUUAAAGGGGUUUAAAGUGAAAAGAUAACUCUGCGUGUUUAAAAAA'
p126
aF0.8189655172413793
aa(lp127
S'Recoil'
p128
aS'AAAAAGCGGUAAGGAACAUUGGGAGGAUAAAGAAGCAAAGCACUAGUCACCCUUGACCAAUUGCAAAAAAAAAAAAAAAAAAAAA'
p129
aF1.0
aa(lp130
S'[CloudBeta] An Arm and a Leg 1.0'
p131
aS'AAAAGUCAAUCGAGGAAACUACGACGGCGGAAAACCCUGAUGAAAAAAAAAAAAAAAAAAAAA'
p132
aF1.0
aa(lp133
S'[CloudBeta] 5 Adjacent Stack Multi-Branch Loop'
p134
aS'UGCCGGCGAGAAAGCAGGGUGGUAAUUUAUUUCGGGUAGUCUCGAUGAGGAAACUCACGGUAA'
p135
aF0.9365079365079365
aa(lp136
S'Triple Y'
p137
aS'AAAAUGCGGCCGAUUGGUAAUCUCGGUGGUAAUUUGGUUGGACCAUGUUGAAAAAUGCGUGUAAUAACAUUUUUCGCUAAAAAAAAAAAAAAAAAAA'
p138
aF0.8762886597938144
aa(lp139
S'Misfolded Aptamer'
p140
aS'AGGGAAAACUGUUAAUAAGAAAGGAAAGACGGGGGCCAAGUUAAAUCUCU'
p141
aF0.88
aa(lp142
S'Flower power'
p143
aS'AAAAUAGCACGGUAAAAUCCACAUCGGGGAAGCGGCAGGAGUAAGACUCAAGGAAAAACAUCGAUGAGAGGUAUCGCCUUUUUAAAAAAAAAAAAAAAAAAA'
p144
aF0.8823529411764706
aa(lp145
S'Kudzu'
p146
aS'AAAAAGUCAAUAGCUCGGGAGAUGAGGAAGCUUGCACCAUAUACGAAGCGAUGCGAGGCGAAACAGAAAGUAGAUUAGGACGAAAAAAAAAAAAAAAAAAA'
p147
aF0.9603960396039604
aa(lp148
S'"1,2,3and4bulges"'
p149
aS'AAAAGUGAGGCGGGGGAAACUAAAACUUGGAUAGAGCCAACGAGAAAAAAGCAAGCUAAAUAAAAGCAACCGAAAGGUGUGAAUAGAAAAAAAAAAAAAAAAAAA'
p150
aF0.8857142857142857
aa(lp151
S'medallion'
p152
aS'GCGCGGACCGGGAGAAAUUUUGGGGGGAAUCCGCAUCGAAAGCGAAGUCAUUGAAAAAUGACGGGGAAAACACAGAUAUUAAAAGGUAUUAGUGAAAGUACAGGCUAAUGUCGAGUUGGUAAUCUGUUCAGUGGAAACGCUUGAUAUGAAAAUAUUCUUGGGAAACCGAAGGAAAAUUGAUGUCGUGAAAGUGAAGUUCGUAAUAGCUUGUGUAUAAUUACAUGGGGCAAAACACAUGGAUAGCUAAGGGGGGAAAACUCUUCUGCGAAAACACAAGCAGGAAAAUUUGAUGGGCAAAAGCCGGAGGAAACGCACCCGGGAAAACCUGGGGCUAUGC'
p153
aF0.8219584569732937
aa(lp154
S'[RNA] Repetitious Sequences 8/10'
p155
aS'AGGAAAAAAGGAAAAAACCAAAAAAGGAAAAAAGGAAAAAACCAAAAAAGGAAAAAACCAAAAAACCAAAAAACCAAAAA'
p156
aF1.0
aa(lp157
S'Documenting repetitious behavior'
p158
aS'AAAAAAAGGAAAAAAAAAGGAAAAAAAAAGGAAAAAAAAAGGAAAAAAAAAGGAAAAAAAAAGGAAAAAAAAAGGAAAAAAAAAGGAAAAAAAAAGGAAAAAAAAAGGAAAAAAAAAGGAAAAAAAAAGGAAAAAAAAAGGAAAAAAAAAGGAAAAAAAAAGGAAAAAAAAAGGAAAAAAAAAGGAAAAAAAAAGGAAAAAAAAACCAAAAAAAAACCAAAAAAAAACCAAAAAAAAACCAAAAAAAAACCAAAAAAAAACCAAAAAAAAACCAAAAAAAAACCAAAAAAAAACCAAAAAAAAACCAAAAAAAAACCAAAAAAAAACCAAAAAAAAACCAAAAAAAAACCAAAAAAAAACCAAAAAAAAACCAAAAAAAAACCAAAAAAAAACCAAAAAA'
p159
aF1.0
aa(lp160
S'7 multiloop'
p161
aS'GAACUGGUCUCCUGAUUGCACUGGAAACAGUGAUGGAAAAAUUUUUGCCAGCAAUCUGGUUUAGCGAUAGCUACGGUGUGAAAACAUUCUUC'
p162
aF0.8695652173913043
aa(lp163
S'Kyurem 7'
p164
aS'AAAAAUGUAGACCAGUAAUCAUGGGCAAACGGUUGGUUCAAUACCUUAGUCGGAAAAACGGAAACUAGAACCUUGUCAUUUGUAAAAAAAAAAAAAAAAAAA'
p165
aF0.9313725490196079
aa(lp166
S'JF1'
p167
aS'GGGGGUGGAGGGGGACUAUGAGUGGUAAAGCGAGAAGUGGGGAACGAUGGAAUUCGGGGAGCGGGUGGGGGAGUAAUUCUUUAUUUGCUCAGUGCUAAUGCAAUGGGGACGGAAAACUGUUUUUAGAGAUGGGAAACUAUCAUUGGAUACAUUGACUCACACUCGUUGAUCAGGGAGGGAAAACCUGCUUUGUAGCGGCAUGCCUGGGCACGGGGGGAAAAGUUUUUUUGUGUUUAUGGUGUGUUGCAAACGGUGUAAAAUCACUGGGGCGGCGCCAAAAGGUGUUGUCCAAUUGGGGAAACCCAUACAUUCUAAGUUCGGGCAAGAGAUUUAAAAAGACUUUGCCAGGAAGGGCGGAAAUGCUCAUUUCACUUCACACACUUCAAA'
p168
aF1.0
aa(lp169
S'multilooping fun'
p170
aS'GCUCUCGGAUUAUCACGAAAGAUCUGCUAAAGUUGC'
p171
aF0.7777777777777778
aa(lp172
S'Multiloop...'
p173
aS'GGGGGGCGGGAGAUAAUGUUGAGAAAAACCUAGUGAAAAAACGUGAAAAACCAAGUCUAAUUACGGUAAAAAGACAAUACCGGUGAAAAAAGUUGUCAAAAAAACUUCUUC'
p174
aF0.7837837837837838
aa(lp175
S'hard Y'
p176
aS'AAAAUGGGCGACGGUGUUGCUAACGCCAACCACUCUCGAGAUUGGUAAUUUAGUCUCGAGCUCUAAAA'
p177
aF0.9705882352941176
aa(lp178
S'Mat - Elements & Sections'
p179
aS'AAAAACUUCAGUAGGUCGACUAUGAUAGAAUUGAGACCACUUAAAAAUGGGAGUUCGUAUAGUCUAUGCUGUCAUCAAUCGGAAUGAAAAAAAAAAAAAAAAAAA'
p180
aF0.9619047619047619
aa(lp181
S'Chicken feet'
p182
aS'AAAAAUGCGCAAAAAAUCGGUUAUGAAGGCUUAAGCAGUUGGAAAUUACGAAAAGGAUAGGUAAAAA'
p183
aF0.9104477611940298
aa(lp184
S'Bug 18'
p185
aS'ACAAUUAAUUCGGAGGAGGAGGAUAUGCUACCAACGCUCGGGAAAAGAAAUGG'
p186
aF0.8490566037735849
aa(lp187
S'Fractal star x5'
p188
aS'AAAAAAAACCGACCAGGGGUUAUAUCGGAUCUUAAAAAGGAAAGUGGAAAGCUACAAGGGCAAAAGUUCGACUUGGUUUAUAAGGGUGGGGGAACGGGGAAAACUCGAGGAUGAAAAUCUAUUGGGAAAGCUGCUAGAGUUAAUGUUCAACCCUUAUCAAAAUGGCGGGCUAGUGGGAAAAAUUUAAACGUAAAAAUGUAAGGGGAAAACUUCGAGGAUAAAACUUCAGAGCUUGUCUAAAGGGAUGGGUUUGGGGAAAAGUUCUGGGUGAAAACGUCAAGGUGAAAACGUCAGGGAAAAAGCUCCAUAUCUAUUCAAAAAGCGCGGGGAAUGGGAAAGCUCUGAAGGGGAAACUUUGGGGGGGAAACCCUUAUGCGAAAACGUAGCUUUUGUGCGAAAA'
p189
aF0.885
aa(lp190
S'Crop circle 2'
p191
aS'UUGAGGGAAAAUAAAAAGCGUAAAAAAAAGGAAAAAAAAAAAAAAAAAAAAAAAAAAAAAGCUGAAAAAAAAAAAAAAGCAAAAAAAAGGGAAAAAAAACAAAAAAAAAA'
p192
aF0.9636363636363636
aa(lp193
S'Branching Loop'
p194
aS'UCCCGUUAAAAAUUCCCGGUAAUCCUGAACUCGUAAAAAA'
p195
aF0.95
aa(lp196
S'Bug 38'
p197
aS'AAAGAGGGCAUAGAAAAGUGAGUGUAAUGAAAAAUG'
p198
aF0.9444444444444444
aa(lp199
S'Simple Single Bond'
p200
aS'AAAAAAGGAAAAAAAUAGUGAAAAGCACUUAAAAAAAACGAAAAAAAAAAAAAAAAAAAAA'
p201
aF1.0
aa(lp202
S'Taraxacum officinale'
p203
aS'GUUGGAAACAAGCGGAGUAAAAGAAUCGAGGCUAAUGAAUUUGCGAUAAUUACGCUGGCUCAAAGACCAAGCCGUAAUCAUUCGCGUGGGUGGGGGAGGGCGGGCGGAACGCCACGUUUUCACGAGCAAGGCAGAGGAAAAAUGAGUGAAACUUGUUCAUUUUUUUUCAGGGGAAGUACGAGGCGUAUUUUAGGUUUGGAACUUCAUUUAUGGCGGGUAAUCAUUGUGGGGGAAACACUCUAGGCAAAAGACUCUGGGGGAAACACUCUGACGAAAACAGCA'
p204
aF0.8262411347517731
aa(lp205
S'Headless Bug on Windshield'
p206
aS'AUAGACGGAAAGGGCGAAACGGUAGAAAAAAAAAAAAAAAAAAAAAAAAACUAACGAAACGCACCGAAGUAUAUCCGUUCCUUAUCAAAAAAUGCUAAUGGUAAAAAGGAAGGUAAAAUAGGGGCGUCGAAAAAGGAGUGGGAAGGGAAGGUAUUAAAAAAAAAAAAAAAGGUGUCCGGCUCAGCCACUCAAGGCUCACA'
p207
aF0.99
aa(lp208
S'Pokeball'
p209
aS'AAAGAGGGGAAAAAUGUGAGAAAGGAAGGGAGUAAGCGGCGAAGGGGGGGAACCACCAACGAGCAACAACCACCUACUACGUCUUUGCAAAAAAAAGGACGGUUAAACUGCGGAAGGUAAUGAAGGAAGGAAUCAAGUAAGCAAAGCUCCAAGGGCCACCAACGAACCAUCAAGACUGUUUAAA'
p210
aF0.9891304347826086
aa(lp211
S'Variation of a crop circle'
p212
aS'AAAAGGGAAGGGAAAAGGAAAAGUAAGUAAGGAAGCCAAGCAAAGACGAAAAGCCAAAAAAGCCAAAAAAAAACCAAAAAAAAAAAAA'
p213
aF1.0
aa(lp214
S'Loop next to a Multiloop'
p215
aS'AUGUGGCGGUUAAAAAACAUUGGAGAAAGCUUUAGAAGGGAAGGAAACUUUUUUCGGCAAAAUACUGUUACUA'
p216
aF1.0
aa(lp217
S'Snowflake 4'
p218
aS'GGGCAAGGUUCGGGGCGGUAAUCCAGGGGAAGGGCGGGAAAACCGGGUUGGGGAAACUUCAAGGGGAAACAGUUGUUCGAUAAUACAGUACAGGUGGGAGAAAGCUGGGCGGGGGAAACUUCAAAGGGAAACUUUCGUUCUGAAAAUGCUUACAAGGGGGAGAAAGCAGAGGUGCGGAAACUGCAAGCCGAAACGGCGCUUCGGAAAGCGCCUUCGAGCGGGGGAAAACCGGGGUGGGGAAGCUUCAAGGGGAAACUCCGAUUCGGAAAGCUCUUGCAAGUGGGGGUAAUCGGAGUCAUCGAAAUGUUAAGUUGAAACAGCUGUUCGGGAAACCCUCACAACUAUUUAAAAGCAGUUUUGGGGAAACCUC'
p219
aF0.8189189189189189
aa(lp220
S'Mat - Cuboid'
p221
aS'GAAGGAAAAGCAAGGAAAACUAAGGAAAAGAAGGAAGGAAAACCAAGGAAGGAAAAGAAGCAACGAACUAAAGAGAAGGAAGGAAGGAAAAACAACGAAGUAAGGAAGGAAAAGGAAGUAAGGAAGAAAGGAAAAGGAAGGAAGUAAGUAAGGAAGGUAAAGGAAUGAACGAAGUAAAGAAGGAAAAGGAACGAGGGAAGGAACAAAUGAAAAAACAAAUGGACCAACCAACGAACUUCAACUAAGCGACGAACGAAUUUCAACCAAGCAAACAACCAAGGUCAACCAACCAAACAAGUUCAACCAAACAACGAGGUUCGACCAGCCAACUGGAACGAACCAACUCAACCAAGAUCAACCAACUCAAAAUCAAGUUCAAU'
p222
aF0.8868421052631579
aa(lp223
S'Misfolded Aptamer 6'
p224
aS'AAAAAAGCCGAAAAAGCGCUUGACGAGGCCUAAAACAGCCGAAGCUAACUGCGCGAAAAAAGGCGAAAAAAAAAA'
p225
aF1.0
aa(lp226
S'Snowflake 3'
p227
aS'GUGGGAAAACCAGUGUGGAAAGCUAAAGGGGAGUGCAAGGGAAAACACGGGAGGAAAACCGAGAAAUUCGGAAAACCAUUCGCGAAAGCUCAAGUACAGGGUAAUGCAAAACUGGGGAUGAAAACGGGAAAGUUCGGAAAACCACACAUUAAAAACCAAGUUCGGGUGUAGGGAAACCUCGGGGGAAAAAUCAGGAAGCUUGAAAAAUCACUCGUGCAAUGACAACUUCAGCGGAAGAUAAAACCCGGAAGGAAAACCGGCUAUGUCGGAAAACCAUUCGGAGAAAAACAACCGCAGGGGAAUUGGAAACGAGGCAGAGAAAUCGGGGAACCCGUAAAAACAGUCGGGAAAAUUCAACUCCACUUCAAGGGAAAACUCCGCAGGAAAACCUAC'
p228
aF0.816793893129771
aa(lp229
S'Hard Y and a bit more'
p230
aS'AAAAGGGCGCCUAUUUGGAAAGCUAGACAGCCAGCAUAUAUUAUUAACUUCGGGCGCACUAAAAUGUGCUAUUGGGCUGUGCGUCAAAAAAAAAAAAAAAAAAAAA'
p231
aF0.9716981132075472
aa(lp232
S'Mat - Lot 2-2 B'
p233
aS'GAAUGGAGGCGGGAUGCAAAGGAUCAGGGAAACUAAAACUUACUUGAACAAAAAGCAACCGGGAGGAAGGGGGUCAAAGGAAAAGGACGGUGUAUGAAAAGGAAAGUUUAAUCGAAAACUAGCUUCAAUGCCAGGGAAGGGAAACCCCAUAGGGAAGGACAAGUUAGGAUAAAAAUAAAACCAAAAUCAUCGAAAACGUAGGCUAGGGAAGCAACCGGGAGGAAAAUGCAGGAGAAGGAAAAGGGAAACUUCAAUCAAAAGCGACUACAACCCCAACUGAAAAU'
p234
aF0.823943661971831
aa(lp235
S'Shapes and Energy'
p236
aS'AAAAAGGUCGCUGCAUGAAAAAUAAUCCUAGGAAACGAGGAGAUGUGUGAACUUAAGCCACUCAAAGGGGUGGGAGCGUCAAAAAAAAAAAAAAAAAAAAA'
p237
aF0.9405940594059405
aa(lp238
S"Spiral of 5's"
p239
aS'CGAAUGCUCGAAAAUUGGUUACGGUGGAAACAGGGAAAGGGGCAAGUGGGGAUGGCGGAAAUCGAGUAAGCAGAGUAAAGGGGGUUGUGGAAACUGAAAAAGAGGGAUCGGGGAAACGGGGUGCGGGUAUGAGAGAACUAGGACAAGUGUUGGGGAGUAUGUUUGAAAAAGUUGAAAAAAACGUGCAAAAACUUUAUAAAGCAUUGGAACGCUUGCAAAAACUAUGUAAAUGGUUGAAAAACUUUGAAAAGCAUUAUAAAACUUAGGAAAGUAUGCAAAAACUUAAAAACACUUUGAAAAUCUUUGAAAAAAUUUCUAAAACUGUUUAAAACCUUGAAAAACUCCAAAAUGAGCUAAAAAAUGCUGGAAAUACUAAAAAAGUGGGCUAAAAGAAAAA'
p240
aF0.818639798488665
aa(lp241
S'Campfire'
p242
aS'AAAAAAGGGUCGUAGGCGGGGAAACGAAAAAGUCGUCGAGGGAAGCUCACCCCCCCGCGUAGAGGGGGGGGGGGGAAACUACCCUCUACGGGGUGAAGUAGAGAAAUUGUUCCUGAAGGUGAAAACACCACGGAUCCACUGCUUCCGCCUUUGGGGGGGGAGAGAGUUUGAAAAAGACUCUCCGCGAGGGGAAGUCCACCACUCACUCCUUC'
p243
aF0.8301886792452831
aa(lp244
S'Anemone'
p245
aS'AAAGUGUGCUAAUGCAUACGAUUGGAAACAGUUGGGUUGGAAAAACUCAUUGGAGAAAUUCGACUGGUCAAUAUGGUACACCGGUAAUCCGGUUCGUUGAAAGAUGGAUCUAUGAAAGUCGCUUCGGGUGAAACUAUGCGUGGGAAAGCUUAUGGUGGGGAAACCUGCAUACAUUAAUAUGUGGGGUCAGAAAUGAUUAAGGAGGAAAUUGCUC'
p246
aF0.7850467289719626
aa(lp247
S'Fractal 3'
p248
aS'AAAAUGAAAAGGGGUGUAAUUGAGAAAACCACGUUGCCAGGGAAACUCGGAAACGAUGCUAGGAUGGAAACAGCAAAGCCACCCAACCGGUUAAUACGGAAAGCCAGGUGUGUAUAAAA'
p249
aF0.9327731092436975
aa(lp250
S'Kyurem 5'
p251
aS'AAAAGGGGACUAUGAUAAUCUGUUGAAAGGGGUUGAACGAGGGGAAAAUUCUCUACGGGAAAAACUGAGUUGCGACAGAAUUUGAAAAAAAAAAAAAAAAAAAA'
p252
aF0.9038461538461539
aa(lp253
S'Snowflake Necklace ( or v2.0 )'
p254
aS'GUGGGGCGUUGUUGGAGGGCUAGGAAAAACGAGGUAAAUCCAAGAAAAAUCAAGAAAAACUAGGAAAAACCGGGUUCAUGGGAAAACAGAGGGGGAGGAAAAACAAGGAAAAACGAUGGAAAACAAGGAAAAACCGGGAAAAACCACUUUCAGGGAAAAAUUCAGGGUGAGGAAAAGCCAGGAAAAACUAGGAAAAGACAGGAAAAACCAGAGAAAAUCACAUUCGGCAAAAAACGCAGUGGGAGGUAAAUCCUGGAAAAAACUAAAAAAAUCAGGAAAAGCCAAGAAAAGCUGCCUACAGGGAAAAACUCAUGUGGAGGAAAAAAUAGGAAAAACCAGGAAAAACCGAUAAAAAGUAAAAAAAAUUACUACAACCGUUAGUGUUUUAC'
p255
aF0.8380462724935732
aa(lp256
S'Methaqualone C16H14N2O Structural Representation'
p257
aS'AAAAAAAGGGGAGGGUUGGGAGGAAAAAAUCAGGGGUGGAAAACACUGGUUAGGAAAACUCUGGGAGGGAAAACUUAGGGAAAAAAACCCACUCAGUCUCUCACUGUGAAAUACUUCAGAACAAAUAAGGGAAAAGAAACUGAAAAAAACUCGGGGAAAGAAAACUGUGGAAAACUGUGGAAAACGGUUCACGAAAUGGGAGAAACACGGAGGUAGCGACUCCGCGGAAUGGGAAAAGCCACUCAGGGAAAACUCACUCAAGGAAAACUAACGCAGGGAAAACUGGCUAGGGGGGGAAAACGAGAGAAAAUUCACGGAAAACUCUUCACUAUCUUGAAAGUUUACCUCAAAAAAA'
p258
aF0.7915492957746478
aa(lp259
S"Cat's Toy 2"
p260
aS'AAAGUAGCUUUCAAAAUUGGGUAAGAAAAAAAAAAAAAAUAUAUAAAAGCGAAAGUGAGCAGAAAGGAAAAGAAGAGGAAAAAAGGAAGGUUAAAAA'
p261
aF0.979381443298969
aa(lp262
S'Zigzag Semicircle'
p263
aS'AAAUAGGCGGGCACAAAAGGACACACGUUUUAAA'
p264
aF0.9411764705882353
aa(lp265
S'Short String 4'
p266
aS'AAAAAAAGGGGAAUCAAGUAAUAGGUGCGAAAGCUCAAAGAAGUUAAUGUAAAGGCUAUAAGCAAUCAAAAGCACUAAAAAAAAAAAAAAAAAAAAA'
p267
aF0.9381443298969072
aa(lp268
S'Gladius'
p269
aS'GAAAACAAGGGAACGAAGGAGAGAAGAAGGGGAGUUGAACCUGGAAACGGGAGAGGGAAGAUCGAAGACGAUAACACGGGAAGACGGGAGAGAGGAGGGAAGGGGAGGGGAGAGUGUGGGGAAACUUCACUCACGUUCCACGUCUACCUUUCACUUUUUGAACACUUGAGCAAUUGAACACGAAACACUCUCAAAAAAACGGACGGGGGCAAGGGUCACGGGGAGAAGGGUAGAAAGGGGUGAGUGGAGAGGGGUAUAUGUGAGCGGCGGGAGAUAGUUACUGAACCCUGGCGCAGGCCCACUGUUCACUGUCUUCACAGGUUCACAACUCGAGAUCUAAGAACAUGGACUGGAAAACCGCAAACUGACUCAAACAACACAAUGAAGGGGACAAGAAAAU'
p270
aF0.8475
aa(lp271
S'Thunderbolt'
p272
aS'GUAAAUGCGAAAAAAAAGACGAAGCAGAAAAUGAAAGCACGUCGUGGUAAAAAAAACCAAAAAAAGGGAAAAACUUGGAAAAAGGGAAGGAAGGAAAAAAGGAACAUAAAAGAAUAAGGAGUGAAAAAGGAAACGAGGUAAAAAGGGAAAAAGAAGGAGAAACACCAAUAAAAACUCAGGGGGAGGAAAAAAACAACAGCAAAGUAGAAGAAAAAAACAAACUUAAAAAAAAACUCUAAAAAGGUGGAAAAUUCUGCACCAACCCAAAAAAAAAACCAGCGAAAAAAAAAGAACGAAAAUGGAGGGAAAAAGAAAAAAAACAAAAAGUUUUCAAUAACAAUCUAUGAUGGAAAAAAAUGGCAACGAGGAAAACAAAAAAAUACGCAUAAGCA'
p273
aF0.8801020408163265
aa(lp274
S'Mutated chicken feet'
p275
aS'GAAAAAAACAUGCUGAAGCGAACAAAGUAAAAGGUAGUGGUUGGGAACCAGAAAACCGAUGUGCAGGAGAGGGAAACCGGUAAAGCACAUUUUCAAAAAA'
p276
aF0.82
aa(lp277
S'Chicken Tracks'
p278
aS'AAAAAAAAGGGGGGCGUCGAAAGUUACAAGGGGUCAUCUUCGAUGGCUAAUCUUAGUCUUUCUAGCGGGACUAUGUUCAAUCUGAAUCGGAAAUGGCAAGGCCCCGUAAAAAAAAA'
p279
aF0.9137931034482759
aa(lp280
S'Looking Back Again'
p281
aS'UAGAUGCGCGGGAAAAACUGGGUUAUGUUUGGGCUUAAGGGGAGGAAGGUGAAGUCAUUGGCGGGAAAGUUGAAAACGACAAAACCUGCAACUCAACUGAGCGAUGGGGAAAAGGGGUGAAAAUUCCAAAAAACUCGUGGAAGCGGAAACUGUUUCGAGUAACUUAGCGGGUGGGAAGAACUAAAACAAGGGGGGGGAAACCUCAACGGGAUGAACACGGUGGAAACGCAACAUUUGCAAUGUGCACUAAUAGCAAUGGGAAAAAAUCGGGGGAAAAAAAACAUUAAAAAAGUGUUCCAACCGAAUUCACGAGAAAAAGGUGGGCGGAAAACCGUUCGAGGGGGGGUCCAGGGGGAGACUGUCGACUUAUAAAACUUAUGUUAAAACUA'
p282
aF0.7866323907455013
aa(lp283
S'Multilooping 6'
p284
aS'AUGGUACUGGCGUUCUAAUCAGUGAUAGAAAAGGCCCGCAUCGGAUAGUUAAUUUAGAAGGUCUAGUGGUUGACGCUAGCUA'
p285
aF0.8780487804878049
aa(lp286
S'Cesspool'
p287
aS'GACGGACUAAAGGGUAGAACACAAGGGAACUGAAGAAGAACUAAUGAAGAAAACAACCGAACAAAGAGACAGAGAGAAAACAAUGACAAGAACAGGAAAACAAGGGUGCAGAAGGAAAGCUAACAAGAUACCGAGAAGAAAAUAACAGGACAAAAAAACAGAUAAGAAAUACGAACAAGGAACAAGAAAACAGACGAAGAGAUCAAAGUGAAACAAGAACUCAAGAACAAAAGAACAGAACAAAAAAACAGACGGGAAACACGAAACGAGGACCAACUAAUGAGAAUAACAGACGGAAACUGAACAAGAAAGUAACAAAAAAAGAACCUAACAAAAGAAUAGCGAGAAAACACGAACU'
p288
aF0.7430167597765364
aa(lp289
S'Hoglafractal'
p290
aS'AAGGAGUAGUGGUAAAAGCGGGGAAAAACCUGCGUCGCGGCGAAAUGGGAAAAUCUUAUCUCGGGGCAUGAAAAGGUUUCAGGGAAAGGCGUAAGUUGAAAAAACAACGGCCUGGAAGUGAAACACACUUAGGAGGUAAUCCUCAGCGGGAAUGGCAAGGAGAAAAAUUCUCAGUAGGAAAAGCCACUCGAAAGCGGGGCGGGAAAAAGUAGAUAAAAACUUCGAUAAAAAAUCACAAAGGCAGCAGUGGAAAAACCGUACACUCGGGGGAAAACCAAACCUGCAGUAUCUGCAGCAAAAAAACAUUUCAAAAAGCUUACAAAAACUGCAAAACCCAAUCGAACAAACAAGAUGCGUAAAGGGAAAUCAAUAAUUUGGGGGCAAGGCUUUUUCGUGUUGG'
p291
aF0.8275
aa(lp292
S'Bullseye'
p293
aS'AAAGUCCGGGAAGCUCCAAUGCGUAUCGUAAAGGGUAAAGUGCGACGAAAAAAACGGGGUGAAAAGGAAAGUUGAAACAACCAAUGAAAGCUGACCGAAAAAAAUGGGGGAGAAUUUUCAAGGGAAAGCUUCAAUGGGAACCUUCCUCUAAAAAAUGCAAGCUUAUAGUCAAGGCUAAAAUUCAACCGGAAACUUCCGAAAA'
p294
aF0.8217821782178217
aa(lp295
S'Shooting Star'
p296
aS'GCGGUUUGGGCGGGGGGAAAUAUAAGGUUGGAAGUCAGAAAACAUGCACUUGUCACAAAGAAAAUUUUGAUGGGGAACACAUCGACGAAGGUAAAGGGACUAAACUAAAGAAAUUAAGUUCCAGGCACUGGGCAGUGCGAACUAAAAGAAGUUGGGGGGCGGGAAACUUUCAGCGAGAAACUUGCGAAAAAACGCGCUUGAGUUGAAGAGAGGGGAACGGGGUCGAAACGAUCCUUGGGGGAAACUAUUCUUCGGGUGGUAAAGUUAUUCAGAGCGAAACUUGCCUUCCGGGAAGAAAACGAGCAAGAACAGACCGGGGGGAGGAAAACACUUAACGGGGUAAGAACGGAGUUUUGAAGUUGCA'
p297
aF0.7362637362637363
aa(lp298
S'Teslagon'
p299
aS'AAAAAAGAAAAAAAAGUAGAAAAAAAUGUAGAAAAAAAAAAAAAAAACUAAAGAAAAGGGAAAAAAAAAAAAAAACUAACUAAAAAACGAGGAAAAAAAAGAAAAAAAAAAAAAAACUAAAAAAAACAUGAAAAAAAGGAGGAAAAAAAAAAAAAAACAAAAGAGAAAAGAAAAAAAAAAAAAAACUGCCAAAAAAACAAGCAAAAAAAGGAAAAAAAAAAAAAAACCAAAAAAACCAGGUAAAAAGUGACGUAAAAAAAAAAAAAUCGAAAGAGAAAUGAAAAAAAAAAAAAAGAAGCCAAAAAAUCUAGGAAAAAAAAGAAAAAAAAAAAAGGUAAAAAAAAAAAAAUACGGUAAAAAAAACAACAAAAAAACCAAAAAA'
p300
aF0.9214659685863874
aa.