(lp0
(lp1
S'Simple Hairpin'
p2
aS'GAUACAAAAAAGUAUC'
p3
aF1.0
aa(lp4
S'Arabidopsis Thaliana 6 RNA - Difficulty Level 0'
p5
aS'GAUAUAAUCGUGACAAAAAAAAAAAGUCGAUAGAUCCUCUAUAUAUAUGUGAUAUACAAAGAUACAAAAAAGUAUCAGUAUAUACAUAUAUAUAUAGUAGAUCUAUCAUUUAUAUC'
p6
aF1.0
aa(lp7
S'Prion Pseudoknot - Difficulty Level 0'
p8
aS'GAGAUCAGAUCAAAAGAUCGAUACUCAAAAAAAAAA'
p9
aF1.0
aa(lp10
S'Human Integrated Adenovirus - Difficulty Level 0'
p11
aS'UUAGAUAUACCCAGUGAAGGCGAAAAAAAAAGUAGGCUCUGGACAAAUCUGCUGGCUAAAAGAGUUAAGUGUUAUAAAAAAUUAAUAUUUAAAAAACUCGACCUUAACGUACUGUAAACAGAGAAAGAUAUCGAAAAAAGAUAUCCCUGAAAAAAAAAAAAGUCUUCUUUGGAAAAGUAUAUAAACUAAAAA'
p12
aF0.96875
aa(lp13
S'The Gammaretrovirus Signal - Difficulty Level 0'
p14
aS'AAGAGUCCUAUACGAAAGUAUAGUCCGCAAAAAAGAUCAAGACAGAUCCUAUGAAAACAUAGAAAAGAUCGUCGAUCAAGAUAUAUCAAAAGAUAUAUCAA'
p15
aF1.0
aa(lp16
S'Saccharomyces Cerevisiae - Difficulty Level 0'
p17
aS'GAUAGUCCUACUAAAAAAUGUAGCGUAAAAAAAAAAAAAAAACUCGCGAUGCGAAAAAAGCAUCGACUAUCAAAUCGUCCCCAAAGUCUAAAAAAUGACUCCCGAAAAAAAAAAAAGGGGCGUGUUACGAAAAAAGUGGCGGGGAUGUAAGGACAUUCAAGUUCAAAAAAAGGAACUCAGAUAAAAAAGAUCUGAACGUGAUACUAAAAAUGUAUCGAAGAUCAAAGGAAUUACAAUUCCGAAAAAAACGUGCUUCACUAAAAAUGUGGAGACAAGUUACGAAAAAAGUAGCGUAGUUCAAAUGAUGUACAAGAUCAAAAAAAGGAUCCUGUACAAAAAAGGUGCAGACGUCAUGCAAAAAAAGCGUGGUAUAUCUAAA'
p18
aF0.9894459102902374
aa(lp19
S'Fractal 2'
p20
aS'AAAAAGAUAUAACGAAGAUAUAUUGCAAUAGCAAAAAAAAAGGCUGGAGAUCAAAAAAAAAAGAUCAAGUUCUAAAAAAAAUGAGCAAGCAAUAUAUCAAUGAUAUAUAGAAAGGUCGAAAAAAAAAGAUCAAGAUCAAAAAAAAAAGAUCGGGGGCAAAAAAAAAAGCUUAAUCUAUAUAUCUAAGAUGUAUAUCAGGACUGAAAAAAAAAGGUCAAGGGCUAAAAAAAAUGUCCAAGAUCAAAAAAAAAAGAUCGAGAUAUAUAUCAAAGUUAUAUCAAAAA'
p21
aF1.0
aa(lp22
S'G-C Placement'
p23
aS'GAUCAAAGAUCA'
p24
aF1.0
aa(lp25
S'The Sun'
p26
aS'GACAGAGCGAUAAAGUUUAACUCGUUAAACUCAGUGAUAGAAACUAUAACGCGAGAAAUACAGAGAGACAAGGUUUAACGCGUAAAACGCAUAGAUACAAAGCAUAACACGGGGAGUUGAGACUCCAAAAUGAGAACUCCAGAAACGCAGAGGUACUAUGUACAACUCGAGAAACUCAUAGGGAGGAAUUCCAAUUCGAGAAAUUCAGAGAUACAAAGUGUAACUCGAAGAACCCAUAGAUUUGAAAAAUAACUAGAG'
p27
aF0.8837209302325582
aa(lp28
S'Frog Foot'
p29
aS'AAAAAAAAAAGAACAAAUGUUCCCUCAAAAGAGGCUGCUAUGCAG'
p30
aF1.0
aa(lp31
S'InfoRNA test 16'
p32
aS'GAUAACACCGAUAUCAAAGGAUAUACGAGAGUUAUC'
p33
aF1.0
aa(lp34
S'Mat - Martian 2'
p35
aS'GAUCAAAAGAUCAAAGAUAUACAAGAUAUACAAAAAAAGUAUAUCGUAUAUCAAAGAUAUAUCAAAAAAGAUAUACAGAUAUACAAAAAAAGUAUAUCGUAUAUCGAAGAUAUAGAUAUAUCAAAAAAAGAUAUAUACUAUAUCAAAAAAGAUAUAUCAAAGAUAUAGAUAUAUCAAAAAAAGAUAUAUAACUAUAUCAAAUAUCAAAAGAUA'
p36
aF1.0
aa(lp37
S'square'
p38
aS'GAUAUACCUAUACCUAUAUCCUAUACAAAGUAUAGAAAAGAUAUAGAAAAGUAUAGAAAAGUAUAUC'
p39
aF1.0
aa(lp40
S'Six legd turtle 2'
p41
aS'AAAAAGCAAAGGGAAACCGAGUCUAAUGGAAUUUGAAAGAUAACGAAAAGGAAAGUAAAAAUAAUUUGAAAAAUAAGCAAAAAAAAAAAAAAAAAAAA'
p42
aF0.9591836734693877
aa(lp43
S'Small and Easy 6'
p44
aS'GUGGAGAAAAUCGAUUUAAAAAAAUAUGGC'
p45
aF0.8666666666666667
aa(lp46
S'Fractile'
p47
aS'AAAAAAAAAAAAGUGAAAGCAAAGCAAAGCGAAAGCAAUCAAAGGAAAACCAAGGAAAGCAAAAGCAAAGCAAGCAAAAGCAAAAAAAAAAAAAAAAAAAAAAAA'
p48
aF1.0
aa(lp49
S'Six legd Turtle'
p50
aS'AAAAAUCAAAUGAGAAAUCUAAAUAAGACCAAAAGUUGAAAGAAAAUUUUAAAAAAAAAUUGAAAAGAAAUGCAAAGUGUAAAGAGAAAAAAAAAAAAAAAAAAA'
p51
aF0.9619047619047619
aa(lp52
S'snoRNA SNORD64'
p53
aS'GAUAUCAAAAAGACAAAAGACAAAGAUACAAAAAAAAAAAAAGUAUCAAAAGUCAAGUCAAGAUAUC'
p54
aF1.0
aa(lp55
S'Chalk Outline'
p56
aS'AAAAAGAUCAGAGACAAAAGUACUCAGACAGACAAAAGUCGUCAGAUGACAAAAGUACAUCAGGAUCAAAAGAUACCGAUCAAAAAAAAAAAAAAAAAAAAAAA'
p57
aF1.0
aa(lp58
S'InfoRNA bulge test 9'
p59
aS'GAUAUACAGAGAGAGAUAUACAAAAGUAUAUCCCCGUAUAUC'
p60
aF1.0
aa(lp61
S'Tilted Russian Cross'
p62
aS'AAAAAUAUAGACCAAAGGGUCGAAGAAGUCUAAUGACUGCUUCUAAUGGAGCAGUUCGAAAGAGCGUUAUUGGGAAAUUGAAAUCGAAGAAAAAAAAAAAAAAAA'
p63
aF0.9238095238095239
aa(lp64
S'This is ACTUALLY Small And Easy 6'
p65
aS'AAAAAAAAAAAAAAAAAAAAAAAAAAAAAAAAAAAAAAAAAAAAAAAAAAAAAAAAAAAAAAAAAAAAAAAAAAAAAAAAAAAAAAAAAAAAAAAAAAAAAAAAAAAAAAAAAAAAAAAAAAAAAAAAAAAAAAAAAAAAAAAAAAAAAAAAAAAAAAAAAAAAAAAAAAAAAAAAAAAAAAAAAAAAAAAAAAAAAAAAAAAAAAAAAAAAAAAAAAAAAAAAAAAAAAAAAAAAAAAAAAAAAAAAAAAAAAAAAAAAAAAAAAAAAAAAAAAAAAAAAAAAAAAAAAAAAAAAAAAAAAAAAAAAAAAAAAAAAAAAAAAAAAAAAAAAAAAAAAAAAAAAAAAAAAAAAAAAAAAAAAAAAAAAAAAAAAAAAAAAAAAAAAAAAAAAAAAAAAAA'
p66
aF1.0
aa(lp67
S'Shortie 4'
p68
aS'ACGAAAGUAUCGAAAGA'
p69
aF1.0
aa(lp70
S'Shape Test'
p71
aS'AAAAAGUGAUCAAGAUACAAAAAAAAGUAUCAAGACAGACAGAUACAAAAAGUAUCAGAUCAAAAGAUCGGUCGUCAAGAUCUCAAAAAAAAAAAAAAAAAAAA'
p72
aF1.0
aa(lp73
S'The Minitsry'
p74
aS'GGCAAAAACAGAAAAAGACAAAAAGUGCAAACCAGAAAAAAAACUGUCACGGUUGCUGGGCC'
p75
aF1.0
aa(lp76
S'stickshift'
p77
aS'AAGAUAUCCCAAAAAGGAGAUAUCAA'
p78
aF1.0
aa(lp79
S'U'
p80
aS'AAAAAGAUACAGAGAGCAGAGAUAUAUACAAAAGUAUAUAUCCGCCCGUAUCAAAAA'
p81
aF1.0
aa(lp82
S'Still Life (Sunflower In A Vase)'
p83
aS'AAUGAUCAACUGUCUAAAUGGUAGAAUCGUCGAAAAGCCUGCUCUCUAAAUGAGAGAAGUAUCAAGGAUACAACCGUAAAAAAUACGGAAGCUUUAAAAAGAAGUAGGUAUAUAUACAUAGAUAGAGUCGUUACCAAAAGGUAAUAGAUACUAAAAAAAAAAAAGAUGGAAAAAAAAAAAAAAAAAAAAAAAAAAAAAAAAAAAAACCACAUCAAAAAAAAAAAACGUAUCGAUGUAAAGAUAUCAGGCUUUAUUUAUGUAUAUAUAUCAAUCCACUAAAUGUGGAAGGGACCAAAAGGUUUCAGUUAUCAAAAAGAUAAAAUUAUAAAAAAGAUAGGACGCUCGAAAGAGCGAAUUGUGGAAAACACAGAAAUCUAA'
p84
aF0.9682539682539683
aa(lp85
S'Quasispecies 2-2 Loop Challenge'
p86
aS'AAAAGUACCUCACGAGCUCGAAAGGGUGAGUGUAGACGGGCAAAUGAUAUCAGUGGCGCGGCUUAAAAGAAGUAGAUAAAUGGACAAAAAAAAAAAAAAAAAAAA'
p87
aF0.9809523809523809
aa(lp88
S'Corner bulge training'
p89
aS'AGAUAUCGAUACAAAGUAUCAAAAGAUAUCA'
p90
aF1.0
aa(lp91
S'Spiral'
p92
aS'AAAAAGAUCAGAUAUCAGACAGAUACAGAUCAGAUCAGCAGCAGCAGCAGCAGCAAAAAGCGCGCGCGCGCGAUCGAUCGUAUCGUCGAUAUCGAUCAAAAA'
p93
aF1.0
aa(lp94
S'InfoRNA bulge test'
p95
aS'AAAAAAAAAAAAAAAAAAAAAAAAAAAAAGGGCAAAAAACCGCGAAACGGCGAUGGGCAAGGACGAGAGAAAAUCUGCUAGUACUAGGCACCUAAGCGCGAAAAAGCAGGAAAAAGGCACCG'
p96
aF1.0
aa(lp97
S'Worm 1'
p98
aS'AAAAAAAUAGAUCUCAAGCAACAAAAAAUAGCGGUGGCGAAACAG'
p99
aF0.9555555555555556
aa(lp100
S'just down to 1 bulge'
p101
aS'AAAAAGGACAGAUACAAAAGUAUCAGACAAAAGUCAGUACCAAAAGAUCAGACAAAAGUCAGACAAAAGUCAGAUCAAAAAAAAAAAAAAAAAAAA'
p102
aF1.0
aa(lp103
S'Iron Cross'
p104
aS'AGACGGACAAUUACUCUCAAAGAGUGAAAAAGGUCGGUGUAAGUUAGGGAAAACUCGGGGAAACCCAGGCAAAAUCUCUCAAAAGAGAGGGAAACUCUGUUAAACUCAGGGAAACACAUUCAA'
p105
aF0.9105691056910569
aa(lp106
S'loops and stems'
p107
aS'AAAAAGAUGUACAAAGAUCAAAAAUCAAAGUUUAAAAAAAAAGAUACAAAAAAAAAAAAGUAUCGAGGAGCAAAUGAUCUAAAAAAAAUGAUCUAAGAUUAAAGACAAAAAAAAGUCAAAGAUCAAGCAAAAAAGCAAAGUACAUUAAAAA'
p108
aF1.0
aa(lp109
S'Water Strider'
p110
aS'AAAAAUCGGCGGGCGCCAGGUAAAACUUUCCUAAUGGAGGAAAAAAGGGUUGAAAACGAUUAAAAAUAGCCUAACAAGCAGAGAAAAAAAAAAAAAAAAAAAA'
p111
aF0.941747572815534
aa(lp112
S'The Turtle(s) Move(s)'
p113
aS'AAUCGAAAGUGUGAAGAUAUAUAGAAAAAAAAAUUGUAUAUCGCAUGAUCAAAAACAUCUAAGAUUCAAAAGGGAAAGCGGGGAAAAAAUACGUAAAAUGCAAAGCGAAAGCACAGUCUCGAAAGACUAAUGAAAUCAAAAAAAGAUUUCUAAUUGAAAAAAUAAAAAAUUCUAUAAAAGACAAAAAAAGUCAACUCGAAAAAAAGAGAAUGUUUCGAAAAAGAAGCUAACGAGAAAAACUUGAAGUAGAGAAAAAAAAAGCUAAUGCACAGACUAAAAGCACAGAAGAUACAAAAAAAAAAGUAUCGAAAAAGCA'
p114
aF0.9620253164556962
aa(lp115
S'Adenine'
p116
aS'GACAGAGGUAUGAGAUAUCGGGUAUCAGAUAUCAGAUAUCAAAGGAUAUCAAAAAAGAUAUCAGAUAUCAGAUACAAAGAUAUACAAAGUAUAUCGUAUCAGAUAUCAGAUAGAUAUAUCAAAGAUAUAUAAACUAUCAGAUACCAAAAGAUAUCAAAGCAUAUCAAAAUUGUC'
p117
aF1.0
aa(lp118
S'Tripod5'
p119
aS'AUUCGGCUGCUAAAUGCAGGUCUUAAAUAGACCCGGUA'
p120
aF1.0
aa(lp121
S'Shortie 6'
p122
aS'GGGAAACUACUGAAAGGAGGGAAACCGCGGAAACG'
p123
aF1.0
aa(lp124
S'Runner'
p125
aS'AAAAGAUUUUGGGCAAAAGAAGGAAAGCUUAGUUCUAAUCCUAGGGGGCAAGGCCAAACUCUGGACCUUUUGGAUCAUAUGGGAAAGACAAACGCAAAAUUGAGUCGGAAACAAAA'
p126
aF0.9827586206896551
aa(lp127
S'Recoil'
p128
aS'AAAAAGAUACAAGCAAGCAAGACAAGACAAGCAAGCAAAGCAGCAGUCAGUCAGCAGCAGUAUCAAAAAAAAAAAAAAAAAAAAA'
p129
aF1.0
aa(lp130
S'[CloudBeta] An Arm and a Leg 1.0'
p131
aS'AAAAAGACAGAGACAAAAGUACUCCACAGCAAAAGCGUGAGUCAAAAAAAAAAAAAAAAAAAA'
p132
aF1.0
aa(lp133
S'[CloudBeta] 5 Adjacent Stack Multi-Branch Loop'
p134
aS'GAUGCGAGGGAAACCUCCUAACGAAAGUUGGGUUACGAAAGUGACCUACGAAAGUAGGCAUCA'
p135
aF1.0
aa(lp136
S'Triple Y'
p137
aS'AAAAUUGCCUUUAGGCGUAAUUACCCAACAAAAGCUCUAAAGAUCUAGGAAAGCUUAGAUCUAAUGCUCGAUUGGACUAAAAAAAAAAAAAAAAAAA'
p138
aF0.9175257731958762
aa(lp139
S'Misfolded Aptamer'
p140
aS'GCUUGAAAAGUGUUUGAAGAGUGUAAAAACAGGGGGGGGAAUAAAAGGGU'
p141
aF0.92
aa(lp142
S'Flower power'
p143
aS'AAAAAGAUCGGUCAAAGACCUGCGCACGGGAACCGUAAGAUGAAGCAUCAAGACCUAUGGUCGCGCUCGACAAAGUCGGAUCAAAAAAAAAAAAAAAAAAAA'
p144
aF1.0
aa(lp145
S'Kudzu'
p146
aS'AAAAUUACAAAGGGGAUGCAAGGAUGUGAAGCUGAUAGUUGGUUGAAUUAAGCCGAAAAUAAAAUCAAAAGCAAAGCAGUAUAAAAAAAAAAAAAAAAAAA'
p147
aF0.8712871287128713
aa(lp148
S'"1,2,3and4bulges"'
p149
aS'AAAAACGAGUGGGUAAAAGUAAAAAUUCUGCUAAAAAGCCCUAGGAAAAGUGCGGCCAAAAGUAAGCUGACAAAGGGUAGCUACCAAAAAAAAAAAAAAAAAAAA'
p150
aF0.9809523809523809
aa(lp151
S'medallion'
p152
aS'GAUAUUGCAAUAGAAAACUGUUGAGCGAACAUGCACCGAAAAUGGAUCCCAGGAAACUGGAAGCUCGAAAGAGUCGAUACAAAUAAAUCGUCAUAAAAGCGGCGUUAAUGUCGCUAGUCAAAAGGCUAGAUUCCAAAGAGACUAUACGAAAGUAUAGGCGCAAAGUCGACGCGAAAAAGAAAGCGUGAAAGUGCUUAAUCAAAAGACGCUAUACAAAAGUAUAGACUGAAAUUAGACGCAAAAGAGACUCUACUAAUGUAGGGACCCAAAAGGGACUAUACUAAUGUAUAGUUACAAAAGUGUCUCAAAAGAGAAUUCACAAACGUAAAGAGAUGUC'
p153
aF0.8753709198813057
aa(lp154
S'[RNA] Repetitious Sequences 8/10'
p155
aS'AGCAAAAAAGCAAAAAAGCAAAAAAGCAAAAAAGCAAAAAAGCAAAAAAGCAAAAAAGCAAAAAAGCAAAAAAGCAAAAA'
p156
aF1.0
aa(lp157
S'Documenting repetitious behavior'
p158
aS'AAAAAAGAUAAAAAAAAAACAAAAAAAAAGAAAAAAAAAAGUAAAAAAAAGCCAAAAAAAAAUAAAAAAAAAGGCAAAAAAAAAGUAAAAAAAACCUAAAAAAAAUGCAAAAAAAAAACUAAAAAAAAUGAAAAAAAAACCAAAAAAAAAGGAAAAAAAAAUCAAAAAAAAAUCAAAAAAAAAGUAAAAAAAAGUCUAAAAAAAUGAAAAAAAAAAGUAAAAAAAAAGAAAAAAAAAAGAAAAAAAAAAUCAAAAAAAAAGUAAAAAAAAAUAAAAAAAAAUGUAAAAAAAAAGUAAAAAAAAAGGAAAAAAAAACCAAAAAAAAAGAAAAAAAAAAGAAAAAAAAAAUGAAAAAAAAAACAAAAAAAAAUCAAAAAAAAACUAAAAAAAAAGUAAAAAA'
p159
aF0.925
aa(lp160
S'7 multiloop'
p161
aS'CCCCCCGUCAAAGGGCGGACCGCUAAUGUGGUGUCUGUAAUCAGAUGACUCGAAAGGGUCGAUGCAAAGGCAUCGGACCGAAAGGUCCGGGG'
p162
aF1.0
aa(lp163
S'Kyurem 7'
p164
aS'AAAAGCAUGGGCGUCGAAAGACGGGAAAAGAGCAGACUAAAUGUCGGACCUCAAAAAAGAGCAAGUCGCUCCCCGCCACAUGAAAAAAAAAAAAAAAAAAAA'
p165
aF1.0
aa(lp166
S'JF1'
p167
aS'AUAGAUGAUAGACUAUCAAGAUACAAAAGAUAUCAAGAUACAAAGAUACAAGAUAUCAGAUAUAUAUAUAUCAAAAGAUAUAUAUAUAUCAAGACAAAAGUCACUAUAUAUCAAAAGAUAUAUAGAACUAUCAAAAGAUAGAGAUAUCAGUAUCAGUAUCAGAUAUCAAAGAUAGAUCAAAAAGAUACUAUCAAGAUAUAUAUGAUAUAUAUAUAUACAAAAGUAUAUAUAUAUAUACAUAUAUAUCAAAGAUACAAAAAAGUAUCCUAUAUAUACAAAAGUAUAUAUAGAAACUACAAAAGUAGAAGUAUCAAGAUAGAGAUCAGACAGACAAAAGUCGUCGAUCAGAUGAUAUCAAAAGAUAUACAUCACUAUACAUACUAUAAA'
p168
aF1.0
aa(lp169
S'multilooping fun'
p170
aS'GAGAGAUAUGAAAUUCGAAAUUGUACGGAAAAAAUG'
p171
aF0.8888888888888888
aa(lp172
S'Multiloop...'
p173
aS'GAUGAUAGUAGGCAAAGGUCAAGUGAAAGUUAACUAAAGGGUUGUCAAAAGUCUUGUAAAGGUGAGGCAAAGGCUAACUAAGAUACUAAAAUGUAUCGAAAAAAUUCCAUU'
p174
aF0.9279279279279279
aa(lp175
S'hard Y'
p176
aS'AAAAUCAUCCGCAGUAUCACAAAGGUGAUACAUCGGGUGUAGUUCAAAGGAGUUACAUCAAUGUAAAA'
p177
aF0.9705882352941176
aa(lp178
S'Mat - Elements & Sections'
p179
aS'AAAAAAUUUACAAUCGUCGUACAGAUAAGAAAAUCAGCAGCUAAAAAGCAGACGAUCCACGAGCAAAGGAACGAAUUAAGAGAAUAAAAAAAAAAAAAAAAAAAA'
p180
aF0.9619047619047619
aa(lp181
S'Chicken feet'
p182
aS'AAAAGACAGAGGGAAACCAACAAUCUUAAUCGUACGAGAUGAAAAUCAUCUAUGGAAUUGUCAAAAA'
p183
aF0.8805970149253731
aa(lp184
S'Bug 18'
p185
aS'AGGGGGACCGUUUGGGAAUUAUGAAGCGAAAAAACUGGAAGCAAACAAAAUCA'
p186
aF0.9245283018867925
aa(lp187
S'Fractal star x5'
p188
aS'AAAAACUAUAUACAUGAGCAAAAGCUCUACUACGAAAGUAGGACUACAAAAGUGGAACGCCAAAAGGUGAAGUAUAUAGAAAAGCUAGAUUCAAGAUCAAAAGAUCAACUAUGAAAAUAGAACUACAAAAGUAGAACUAGAAAACUAGGAGGAUUUAGAAAAAGGAUAUACAAGAGCAAAAGUUUAAUUACAAAAGUAAAACUAUAAAGGUAGAACUACAAAAGUAGAAGUAUAUUUAAAAACUUUAUGCAAGAUCAAAAGAUCAACUACAAAGGUAGAACGACAAAGGUUGAACUUCAAAAGAAGGAGUAUAAGGAAAAACAAUAGACAAGUUUAAAAAAACAACUUCGAAAGAGGAGCUACAAAAGUAGAACUACAAAAGUAGAAGUCUAUUGAAAAA'
p189
aF1.0
aa(lp190
S'Crop circle 2'
p191
aS'UGUAAUCGAAGACAAAAAGUAAAAAAAAAUUUAAAAAAAAAAAAAAAAAAAAAAAAAAAAUGAGAAAAAAAAAAAAAAGCAAAAAAAAUGUAAAAAAAGAAAAUUGAAAA'
p192
aF0.9636363636363636
aa(lp193
S'Branching Loop'
p194
aS'UAGAUAAAAAAAACUCGAUAAAGGUCGUAAUCUUAAAAAA'
p195
aF0.95
aa(lp196
S'Bug 38'
p197
aS'GCCGGACGAGUGAGUAAAGAUCUUCUUGGAAAAGGA'
p198
aF0.9444444444444444
aa(lp199
S'Simple Single Bond'
p200
aS'AAAAAAGGAAAAAAAUAGUCGAAAAGACUUAAAAAAAACAAAAAAAAAAAAAAAAAAAAAA'
p201
aF1.0
aa(lp202
S'Taraxacum officinale'
p203
aS'GAGAGAAAUACUCACUGGAAACCACAGACGGAAAAAUAUCGCGUGCAAAAGAGAAGCUCCAAAAGAAAGAACGGAAAAGACGUGGAUUUAUAAACGGUAGAGAUAUGAAAUAUACUUUAUCAGAUACAAGAUAUAUAUCAGGAGAUACAAAGUAUCUCAGAUAUAUAUCGAUCAGAUAUCAAGGAUAUCGAUCGUAUCGAAGUUUAUAGAUCGGGGAAAAGCACCCAUGGACAAAGACUGACGCCAAAAGACUAGGUAAAAACUACGAACUGGAAAACACAG'
p204
aF0.9290780141843972
aa(lp205
S'Headless Bug on Windshield'
p206
aS'AUCACCAAAAUGGAACUAUGCGGAUAAAAAAAAAAAAAAAAAAAAAAAAGCACAGUAAAGAUGUCUAAGGAGGAGAAAAGGUAAGAUAAAAAAUCAAAAGAAAAAAAUUCGCCAAAAAAGUGAGAGAAAAAAAAAGGAAAUUGAUGCAAUCAAACGAAAAAAAAAAAAAACUUAAGGCAGUAGGGGGUGCAAUUAACUCA'
p207
aF0.94
aa(lp208
S'Pokeball'
p209
aS'AAAGAUACACAAAAGCAAGCAAGACAAGCCUCCAAGCAAGCCCCCAAGCAAAGCAGGUAGCAGCAGGUAGCGGUCAGCAGCGUGUAUCAAAAAAAAGAUAUACAAAAGCAAGCAAGACAAGGUCCCGAGCAAGCCUCCAAGCAAAGCAGGUAGCAGCAGGCCCCAGUCAGCAGCGUAUAUCAAA'
p210
aF1.0
aa(lp211
S'Variation of a crop circle'
p212
aS'AAAACGUAAAACAAAAGUAAAUGGUAGGCGCGGAAUGACCCAAAAGCUAAAAAAUAAAAAAAGUAAAAAAAAUAGGAAAAAAAAAAAA'
p213
aF0.9545454545454546
aa(lp214
S'Loop next to a Multiloop'
p215
aS'AAGAGGUAUCAAAAAAAAAAAUAUCUAAUGAUAUUGGACUUACAAAAGUAGGUCUUGAAAAAAGAUACUUCAA'
p216
aF0.9726027397260274
aa(lp217
S'Snowflake 4'
p218
aS'GAAGGAAGUUCCUAUUCCAAAAGGUUAUCUAAAUAACCAAAGGUGUAUCGAGCAAAGCUCUACUACAAAAUAGAAUAUCUAAAAAGUUAUCUUGCCCCCUGAAAAGCAGUGCUACAAGGUAGAACUACAAAGUACUACUGCCAAAAGGGGGGCUACAUCCCUCAAGGACCAUGCUGGAAGCUAGAACUACAAACUAGUGUGGACGAAAGGGGAUGAAGAGACCAUAAAUGUUAGCCUUAGAAGGGGAACGACAAGGUAUGUUAGGCGAAAAUGUCUCAUGAGUGACGAAAGUCCAUCCUUCUAUGAGGAACUAGAAAGUAGGAUACUUAAAAAGAGAUAUUGAUAGGUAAAGUCAAUAUUAUAAAAGGUC'
p219
aF0.7675675675675676
aa(lp220
S'Mat - Cuboid'
p221
aS'GAAGUAAAAGGAAAGAAAAGUGAGCAAAAGAAACAACCAAAAUGAGGCAACUAAAAGAAGCAAUUAAGUAAAAGGAGGCAAUCGAGCAAAAUCAAUAAGGCAAAGAAGCAAAAGGAACCGAACUUUUAUUCAAAAUCGACUUUACUUCGUUCUAAACAAAAGAGGGCUCGUAUCCUUCUUUCUAAAACGGUUUCCCAGCGCAUCCAGAAAAAAAAGGAGGGAGGUUAUGUAAAUACGGGUCAGAAUGUGCUUAGUAAUCGUUGAGCAGGUUGUAAAGGAGAGGUGUAAAGUGAGGGCCCGCAAUUAAGUAAGAAAGGGCAAGAAGGAAAUCAUGAGGAAGUGACAGAGCCAACGUCGAGUGAAGUGAACCUUAGCACUAC'
p222
aF0.8394736842105263
aa(lp223
S'Misfolded Aptamer 6'
p224
aS'AAAAAGGCCAAAAAUCAGUAGCGGGAGGUAAAAAAAAGCUGGAAGAAAAGAUUGUAAAAAGGGCAAAAAAAAAAA'
p225
aF1.0
aa(lp226
S'Snowflake 3'
p227
aS'AUCCCAAAAGGAGGCCUCAAAAGAGUGGAUCGGAUCAAGGUAAAGGUCCUCAGCAAAAGAGUCUAUGAGCCAAAACGAGAGCCCAAAACGGAAGCUCAGAUCAAGACAAAAGUCCUCAGCUAAUGCGUAAAAUACGCAAAAGCAGAGCGCAAAAGCGAAGAUCAGACAAAGACAAAAGUCCUCAGCAAAGGCAUAAAAUAUCCAAAAGGAGAAGGCAAAAGCGAAAAUCACAUCAAGACAAAAGUCCCCAUCUAAUGGCACAAACUGGGAAAAGGAACGAACAAAAGAAAAGAUCAAAUCGAGACAAAGGUCCUCAGCAAAAGCAUCAAAGAUCCAAAAGGAGAGCACUAAUGAGAACAUCAGAGCUAGUCGAAAGGUGCCAGCAAAAGCGGU'
p228
aF0.8040712468193384
aa(lp229
S'Hard Y and a bit more'
p230
aS'AAAAAGCUGCGUACAUACAAAAGUAUAGGUCGCGUAGCAUUAUUUAAUAAUGUAGAUGUGAAAAAGUAUCAAGCGACUCGGCAGCAAAAAAAAAAAAAAAAAAAAA'
p231
aF0.9716981132075472
aa(lp232
S'Mat - Lot 2-2 B'
p233
aS'GUAUGGUUCGAGUUCGAAAAGCAGCGUUAAAAAGAAAACGACGCCGAAUUAAAACGAAUCCCGAGCAAGCUUACGCCGGCAAAAACUAGGACAUCUAAAACGAAAACGAGAAGUAAAACCGAGCGUAAGCCCUUGUAAUUGAAACGGCAACGAUUCGCAAAAGCCACGAGGAAACUAAAACGGAGCGUUAAUAAAACGGGGCACAAGGAAAUAAGUGGAUCCAAAAGUUGCAACUCCGAAAAGGAAAACCCGCUGUAAAAUGAACCGGGGCCGCAAGGACGUUC'
p234
aF0.8450704225352113
aa(lp235
S'Shapes and Energy'
p236
aS'AAAAAAGAGGUUAUGUGUAAUCUAGCAAAGUGAAAAAUUUGAGUGUGCAAUAGGAAAUAUUGCGAAAGUGGCUUAAUCGUGAAAAAAAAAAAAAAAAAAAA'
p237
aF0.9801980198019802
aa(lp238
S"Spiral of 5's"
p239
aS'GAAAAGAUACAAAGAUAGAAAGAUAGAAAAGAUACAAUACUAAAAAGAUAGAAGAUACAAAAGAUACAAUGAUAGAAAGAUAGGAGAUACAAAGAUAGAAAGAUAGAAGAUACAAAGAUAGGAGAUACAAGAUCCAAGAUACAAGAUACAGAUACAGAUAGGUAUCAAAAGGAUAAAAAAACUAUCAAAAAGUAUCAAAAAGUAUCAAAAAGUAUCAAAAAGGAUCAAAAAGUAUCAAAAACUAUCAAAAAGUAUCGAAAACUAUCAAAAACUAUCAAAAAGUAUCAAAAACUAUCAAAAACUAUCUAAAAGUAUCAAAAAGUAUCAAAAACUAUCAAAAACUAUUUAAAAGUAUCAAAAACUAUCAAAAACUAUCAAAAAGUAUCAAAAACAAAAA'
p240
aF0.9949622166246851
aa(lp241
S'Campfire'
p242
aS'AAAAGGCGGAGAUAUACAAUGAAUAUGGAAAAGAUGGAAAUGCAUUAUAUUCGUUUGAGAUCAGCAGUAGCGACAAAGGUACGCACGUGAGACAGGAGCAGCAAAAGCGCCCGAGUAGACUAAUGUACGACUCAAGUACUCGAUACACAUGUCUACAGACAGAUAUAUCAAAGGAUGAUCGUCGACUGAUCUAUGAUACAAGUCAGUAGACC'
p243
aF0.8867924528301887
aa(lp244
S'Anemone'
p245
aS'AAAUAUAUCAAAGGAUAUGUGUACAAAAGUGGCGAUAUUGAAAAAUAUUUGCGAAAAAUUGCAUUUAUCGAAAGAUAAAGAAUCAAAACGGCCCGUACAAAGGUACUGUUCUAAAAGAAAAGCACAACCUAAUGGUUGGUGCGCAAAGGAGUACGCCUCAAAGGACUCGAUAGCAAAGGUUAUCACGUGUAAUUACGAGUUGUGGAAACAUAGC'
p246
aF0.9719626168224299
aa(lp247
S'Fractal 3'
p248
aS'AAAAGCAGCAUGGAAGUAAUUUGCAAAAGUAUUCACGCAAGGAAAUAGAAAAACCAGGCUCAUCUCAAAAGACAUAAUAAAGUCUAAUGGGGAAAGCACGAAAGCAGUGUGCUGAAAAA'
p249
aF0.8319327731092437
aa(lp250
S'Kyurem 5'
p251
aS'AAAAGGCCUGACGUCAAAGGAUGACAACUCGUUGGUUCAAGGUAAAAGAUCGACGACAGAAAAAUGUAAACGUUCGUAAAGAUCAAAAAAAAAAAAAAAAAAAA'
p252
aF0.9134615384615384
aa(lp253
S'Snowflake Necklace ( or v2.0 )'
p254
aS'GGUAGAAAUUUGUACAGCAACAGCUAAAUUCAACAAAAAGGAGUAAAAAUCACCAAAAGGGUCCAAAAAGCUGUUGCAGAAAAAAAUUCAGGUUCAGCAAAAAGCAUCAAAAAGGACCAAAAAGGACCAAAAAGCGGCUAAAUGCAGAAUCACACGAAAAGUGAGAUAUAUCGAAAAGAAUCAAAAAGGACGAAAAGGGACCGAAAAGGAUCAAAAAGGAGUAUCAGACAAAAAAUCAGAGAUACCAAAAAGUACGGAAAACGACCAAAAAAGACCAAAAAGGACGAAAAACGAGAUUCAGGAAAAAAGUUACAGACAGCAAAAAGCACCAAAAAGGAGGAAAAAGUACAGAAAAGGACGGAAAACGGGAUUGCGUACAGAUUUCUAUC'
p255
aF0.8868894601542416
aa(lp256
S'Methaqualone C16H14N2O Structural Representation'
p257
aS'AAAAAAGGGUCAGAUCGUAAAGAUAAAAGUCAGAUACUCAAAAGAGAGACAUACGAAAGUGAGACAGACAAAAGUCGUUCAAAAAAAGAAAGUGAGUCAGGCAUUAGGGAACGGAUCAGCCUAAAUUAGUCGAAGGAAAUCAAAAAAAAGACAUAGAGACAAAAGUCCUCAAAUCACGUCGAAAGAUCUGCGGAAGGACCAUAAAAGGGCAGGUACUCGCGCAGACAAAAACCAAAGGUUAGUCACUCAAAAGAGAGCGAGACAAAAGUCAGAGAGACAAAAGUCAGCCAGUGAAUAAAAGUCGAGAAAGGACACUCGAAAGAGCACGGCCAGAGCAAAGGGCAGACCAAAAAAA'
p258
aF0.923943661971831
aa(lp259
S"Cat's Toy 2"
p260
aS'AAAGGAUGCGCUAAAAUCAACAAAAAAAAAAAAAAAAAAGGGUUCAAAGCGAAAGCCCUCGAAAGCGUAAAAAAGAAUAAAAGUGAGCGUAUCAAAA'
p261
aF0.979381443298969
aa(lp262
S'Zigzag Semicircle'
p263
aS'AAAUACUAGAAUACAAAAUGAGAUAUUAGUUAAA'
p264
aF0.9411764705882353
aa(lp265
S'Short String 4'
p266
aS'AAAAAACCACGUACCAUUUAAGAUCAUCUAAUGAGGAAUAAGCGCUUUACAAAGCUUUAGAAGAAUGCGUAUCGGGAAAAAAAAAAAAAAAAAAAAA'
p267
aF0.9381443298969072
aa(lp268
S'Gladius'
p269
aS'CAAAGGAAGGGAUCAAAGAAGCCGAGAAAUUGAGCCAAAGAGCAAAAGUUCAGAUACGAGAGGCAAAAGAACGUAAGACCAAGGCAUUUAUCAGAUAGCAGAUGAAAAUCAUAUCAAGUUCAAAGAACAGGUAGGAUUUACAUCGACUAUCGAGUAAAUGAACGGGUCAACGGUUCAAUAGCCAACAGUAUCAGGCGAAGAGAGAUACAGAAGACAUAAGAUCACAACAACAGAAGGUAUACAGAUAUCAGAGACAAUUUUUCCGCAGAUCUCGAAAGAGAUCAGGUCACGAAAGCGUUUACGAUAUACGUAUAUCGCAAGUUGAGAAGAUCAAAGGUCAUGAGUAUCAGGACAAAAGUCCAAACUCAAAGAAGCCAAACAACAACGUGAGCAAAAAAAG'
p270
aF0.91
aa(lp271
S'Thunderbolt'
p272
aS'GCAAGGUACGAAAAAAACGGCAAGCGAAAAAAGUAAUCUGGUGGAAUCAAAAAAAUAAAAAAAGGAUCAAAAAGAUCAAAAAACUUAAGCAAUUAAAAAAAGGACGAAAAAGGACAAGUAACCGAAAAUAAAGGAGACCAAAAAGACAAAAUGUUGUAUAAAAAGGUUCUAAAAGACUGUCCAAGUAAAAAAAGACGGGCAAAGCAUCGCAAAAAAUCAAAGCACUAAAAAAAGGUCAAAAACAGAUCUAUGAUCUGAAGGAGAGAAAAAAAAAAAGGAUCAAAAAAAAAAAGUUAAAAACUACGCAAAAAAAAAAAAAAUAAAAAGUGUAGGAGAGGGAAGUUUCACUUAAAAAAAUAGCAGGCGGAAAAAGAAAAAAACAGUAUUAAGCA'
p273
aF0.9489795918367347
aa(lp274
S'Mutated chicken feet'
p275
aS'GAAAAAACCAGUAAAAAAUUAGCAAAGCAAGGGGCGGUAGCGUAAAAGAAUCGAAGGCAACCGCAGUAGUAGCAAAGCGGUAAAGUAAGGCCCAAAAAAA'
p276
aF0.86
aa(lp277
S'Chicken Tracks'
p278
aS'AAAAAAAUUAUAUUUAGUCAAAAGACUAAGCACUAAUGUGCGAAACUGAAAAGUUGGAUAUAGGGACAGGUAAGGCCCAGUGCAUAUUUCGAAUCUCAAAAAGAGUAAAAAAAAAA'
p279
aF0.9482758620689655
aa(lp280
S'Looking Back Again'
p281
aS'GCCAGGACGGGCAAAAAGAGACGGAACCUUUCAUAUCAACAGUUCAAAAGAAAUUCGAGAGUUAGAAGGAGAGAAAUUUCAAAACAAGCAACUGAAAUCAGAACAGACAAAAAGCGACAAAAGUCGCAAAAAAGCUCAUGCGGUACAAAGUACCCUUUAAAAUAAAGGAUAGAACAAACGUAAGUACAGAGUCUGCAAAAGUAGUAUAGCUCGAAUGGAGACUAAUGUCAAGAUAUCACAGUGUGGGCCAGCUACACUUCAAAAAAGUGAUACAAAAAAAAGAUCAAAAAGAACGUAUAAACACAGAGCGCAGUAAAAAGCCCGGAAAAAAUUUUGGAAGGCCUUAUGGUCUAUCAAAGAUAGUAGUUGCAAAAUAGCGUACCAAAGGC'
p282
aF0.8431876606683805
aa(lp283
S'Multilooping 6'
p284
aS'AAGGUGCUAUGCUAGUAAUCUAGCCGUAAAAAGUUACGAAACCAUGUCUGAAAAGACGUGAAUCAAGAUAUAGAGGCGCCGA'
p285
aF0.9146341463414634
aa(lp286
S'Cesspool'
p287
aS'GAAGAAGAAAACAAUGGAUCCCAGCCAAAGGCGACAAUAGAUAAAGUACAAAAGGCCAGUGUAAAAGAACACAUUGAAAACAACUACAAGAAUAAGAAAACAACUCGGGAGGCACAAAAUGAACAAGAAGAAAAGUUUAAAAAAACAGUUCUAAUGAACACAGUGGAAAUACGCGCGAGUUUCAAUUAAUCAAAGCGGCAGAGACAAAGUCAACAAGAGUCGAAGUACUAAUGGACAGCGCAAAAGCACACAGGGAAAAUACGAAGCAAGUUUCAAGAUAACAAUUCAUCAGACAUAAAGUCAACAAGAAGAGGAGUACAAAAGGACACUUCAAAAGAAGACAGCUAAAAGACGAAAC'
p288
aF0.7262569832402235
aa(lp289
S'Hoglafractal'
p290
aS'AAAUUAAAGAUACAAAAGAUACUAAAAUGUAUCGUAUCGAUUAAAGAUCUAAAUGAUCGAUCCGGAAGAUAAAAAUCUCGAGACAAACUUCAAAGAUCAAAAAAGAUCGAACCUCAAGACAAAAAGUCGAUGCAGCAAAAACGGAUUACAAAACCCAAGACGAAAAAGUCGGGGCGCCAAAAAGGGACGAAAAGCAGAUCUACGAAAACUAGCAAAAAGGCAGAUCAAAAAGAUCCAAAAGGAGUUGACAAAAAACAGAAAAGAUUUACAAAAAGGUAAUUAUAUCAAAGAUAUAGAAAAAAAGUCAACAAAAAAGUAGAAAAAAGUAGGAAAGUCAAAUAAUCAAAGCACAGAUUAAACGCGAAAGCCGAAAAUGCUAUACAAAGUAUAGAAAUAGCUC'
p291
aF0.87
aa(lp292
S'Bullseye'
p293
aS'AAGCUUGUUCUAUGGGCAUGUUCUAUGAGCUAGUUAUAUGAACAAGAAAAAAAGGUUGCUCAAAGAUGAAGAUGGAACGUCAGAAAUAAAACUCAAUAAAAAAAAAUGAAUCAAGGAUCAUCGCCUAUGGUGUAGAUCAAGAAUCUAAAAAAAAAUUGUUUUGAAAGAAAAUUUGCAAAGGAGUAGAAGUAUUAAUAUAUAA'
p294
aF0.8415841584158416
aa(lp295
S'Shooting Star'
p296
aS'GUUUUCGAUCGAUAGCAGAAGAGUACAAUAGAAAAGGCAAAGCAAGUGUUUUGGAAGUCCAAGUAUAACAGUUGCAAGAGUUCCGGUUAGAUCCAGUCAGACCAGGGAAAGACGGAACGACGAGAUACAGCAGAGAACCGAGGGAAACAACAACGUUCCUGUUAAGAAUAGAGAUUCUAUGAGUCCAGGAAACGCAGAGCAGAUCAGAGUAGACAAAAGAUAUUCAAACUAUAUUAGCAUGAAACAUGGUGUCGAUAUGUGAAGCAUAGCACUAUCAAAGGUAGAUUCGAUUAAAAAAAUCAUAACGAGAGGAUACAACGCAUCAAAAGAAGAGAUGUGACAAGAACAGACCGAUCAGAGAGUA'
p297
aF0.7774725274725275
aa(lp298
S'Teslagon'
p299
aS'AAAAAACGAAAAAAAUCAGGAAAAAAAGUGGAGAAAAAAAAAAAAAAUCGAACAGAAGCGAAAAAAAAAAAAAAAUCACCGAAAAAGGUAGAGAAAAAAGCAAAAAAAAAAAAAAAGUAAAAAAAGCACCAAAAAAAGCAGCAAAAAAAAAAAAAAAGUGAACAGAAGGUGAAAAAAAAAAAAAAACAACAAAAAAAGGAACAAAAAAUCGAAAAAAAAAAAAAAGUGUAAAAAAGAAGUAAAAAAAUGAGCGAAAAAAAAAAAAAAGUGAACAGAAUCUGAAAAAAAAAAAAAAACAUGAAAAAAAGUAGCAAAAAAAUCUAAAAAAAAAAAGAAAAAAAAAAAAAAAACCUCAAAAAAAACUAGGAAAAAAAUGAAAAAA'
p300
aF0.8926701570680629
aa.