(lp0
(lp1
S'Simple Hairpin'
p2
aS'GUCUUGAAAAAAAGAC'
p3
aF1.0
aa(lp4
S'Arabidopsis Thaliana 6 RNA - Difficulty Level 0'
p5
aS'GCACGGUUAAGACCUAAAAAAAAAUGGUGAUUUAGGUGGUGUUGGAGUAGGGGGUAUUAUCGGGUAAAAGGAUCCGUGUACCCAUCUAUUCUAGCAUAUCUUAAGUCAUGCUGUGC'
p6
aF1.0
aa(lp7
S'Prion Pseudoknot - Difficulty Level 0'
p8
aS'GCUCAUAUGUCUAAUGACAAUGAAGCAAAAAAAAAA'
p9
aF1.0
aa(lp10
S'Human Integrated Adenovirus - Difficulty Level 0'
p11
aS'GAGGCGGGUAGUCUAAUACAUUAAAGAGAAAUCUUUUUAUCUUCCGCGGAUUCGACUAAAACUUAAUGGACACGUAAAAAAUCGUGUCUAUAAAUAGGGAGUCGAAAAGGUAGCUAAAGAAGACAAAGCUUAUAAAGGUGUAGUUAACGUUAAAAAAAAAUAUGUGUGGGACAUAAUGCUGUAAACCUCAAA'
p12
aF0.9270833333333334
aa(lp13
S'The Gammaretrovirus Signal - Difficulty Level 0'
p14
aS'AUGUGGACGUAUUGAAAAAUGCGGACUCUAAAAAGGCGAAUGGUACGAAGUUUGAAAAAACUGAAGUCGUCUACGUCGGGAUGGGUGGAAACGCCCAUUAA'
p15
aF1.0
aa(lp16
S'Saccharomyces Cerevisiae - Difficulty Level 0'
p17
aS'GGCUCGCGAGAUAAAAAAUUUCUGUGGCAAAAAAAAAAAAACAAAAUCAGUUAAAAAAAAACUGCCGGAGCAAAUCAACUCCAAGAAUAAAAAAAAAGUCGAUCAAAAAAAAAAAAACCAAAAGAAAUGUAAAAAACAACGGUGUACUAAAGAGUUAGCACGGUAAAAAAAGAUCGAUUAUUUAAAGAUAAGAGCAAAACUGUAGAAAAAAAACGGUAAGCUCAAAUGGGCUAGAAGAUUGAAAAAGAGACCGCCAAUUAAAAAACUUAACAAAAUGUUUUAAAAAUACAGGGCGGCUCGAAAGGCUCGCAAGUAAAAAAAAAGUUAUGACCCCAAAAAAGAUGAUUAAAAGUUUUGAAAAAAAGGGCACUAGCCGAAA'
p18
aF0.8390501319261213
aa(lp19
S'Fractal 2'
p20
aS'AAAAAUAUAGGUUUAGGUCGUUUGUUGAGGCCAAAAAAAAAGGGCCGAUUGUGAAAAAAAAAACGAAAUAUUAAAAAAAAAGAACAAAAAUGAACGACAACGAAAGAAAUCAACUGUGAAAAAAAAAACGGGUGUUUAAAAAAAAAGAAACAUGUCAGAAAAAAAAAUGGCUAAACACACUUAAAUUAUCUCUACUGAGCUUUUAAAAAAAUUAUCGAGAUUAAAAAAAAAAAAUCAACCUUGAAAAAAAUAAAGGGAAGCACGUAAGUAUAACUGGUUGAAAA'
p21
aF0.8274647887323944
aa(lp22
S'G-C Placement'
p23
aS'GUGCAAGGCGCG'
p24
aF1.0
aa(lp25
S'The Sun'
p26
aS'AUUAGUUUUGUAAGAUGGAAGCCAUUAAAGCACCAUCUCGAAGAGGGAAACCGUCGAUCACAGAUCUCUUAUUUAGAAAUCAGGUAAUAUACGUAAGAGCAACAAAAAUGCUGGAUGAUCCUGAGAUUAUACCUAAAGCAUAUAGGUCAGAUAAAUAAGGCCCAAAACAACAAAGAGAAAUAAAUGAAGCACAAACCAUUAAGGGUAGAUUUCGUAUCGAAAAACCAUAAAACGCAGGUAGACAAGUCUCAAGCCGUG'
p27
aF0.6201550387596899
aa(lp28
S'Frog Foot'
p29
aS'AAAAAAAAAAAGGUGAAAACCUCCGCUAAUGCGGUCCGGGACGGA'
p30
aF1.0
aa(lp31
S'InfoRNA test 16'
p32
aS'GGAGCUAGAGGUAGGAAAGUCUGCGCUGCGAGUUCC'
p33
aF1.0
aa(lp34
S'Mat - Martian 2'
p35
aS'CGCGGAAACGCGGAAGACUAGAAAGGAGUUGAAAAAAGCGACUCCUCUGGUCGGUACGGACUAAAAACCCUGAGGACUGGAUUCAAAAAAGGGAUCCAUCCUCAGAAAAAAGAUGGGGAUGAGCAACAAUUAUUCCAUGUCUUUGAAAAGUGGUUUGUUAUGGGCGUGCAGUUUUUCAAAAUAAAACUGAACAUGUUCUAAGAGUUAAUACUC'
p36
aF1.0
aa(lp37
S'square'
p38
aS'CCGAUGUGCGUAUUGCGGGGGUGUUGUAUCGACACAAAACCUUGCAAAAAAUGCGCUAAAACAUCGG'
p39
aF1.0
aa(lp40
S'Six legd turtle 2'
p41
aS'AAAAAGUAAGCUAAAAGGAAAAGUAAUUCGAGUAAAAGUUAAGGUAAAAACAAAUAAAAAAAGAAGUUGGUAUAAGGCGAAAAAAAAAAAAAAAAAAA'
p42
aF0.9183673469387755
aa(lp43
S'Small and Easy 6'
p44
aS'UAGUAUAAAUCAGCAGGAUGCAAAAUUCUC'
p45
aF0.8666666666666667
aa(lp46
S'Fractile'
p47
aS'AAAAAAAAAAAAUUGAAAGUAAGCGAAAUAAAAGUAAUCUGAAUUUACUGAAAAAGAAGCAAAAGCGAGCGAUCGAAAGUGCAGAUAAAAAAAAAAAAAAAAAAA'
p48
aF0.9619047619047619
aa(lp49
S'Six legd Turtle'
p50
aS'AAAAAUAAAAAGAAAAGUUAAAAUUGAAAAAAAAUGAAAAAUCUAAACUAAAGAGAAAAGUUAAUAUAAAAAGAAAAAUAAAGGAAAAAAAAAAAAAAAAAAAAA'
p51
aF0.9238095238095239
aa(lp52
S'snoRNA SNORD64'
p53
aS'GGUAUGAACAGGGUUGAAACUUUGAAUCAAAAAAAAAAAAAAUGGUUAAAUGGUGUACUAGCGUGCU'
p54
aF1.0
aa(lp55
S'Chalk Outline'
p56
aS'AAAAAAUAUUAGGAUAAACAUAUUUUAUUAUAAGAAAAGGAUAUGUGGAUGAAAAGAUCAGAGGGGUGAAAACACGAGUGUGAAAAAAAAAAAAAAAAAAAAAA'
p57
aF0.8653846153846154
aa(lp58
S'InfoRNA bulge test 9'
p59
aS'GGACGCUAGAGAGACGUGUUUAAAGAAGCACGCCCGGCGUCU'
p60
aF1.0
aa(lp61
S'Tilted Russian Cross'
p62
aS'AAAAGGAAUCCAGGAAACUGGCAUACCUACGAAAGUAGCAACGACAGCGUUGAUGUGGAAACAUAGGUAGUAGGAAACUACAGCUAAAAAAAAAAAAAAAAAAAA'
p63
aF0.9809523809523809
aa(lp64
S'This is ACTUALLY Small And Easy 6'
p65
aS'UUGGGAAAAAAAAAAAAAAAAAAAAAAAAAAAAAAAAAAAAAAAAAAAAAAAAAAAAAAAAAAAAAAAAAAAAAAAAAAAAAAAAAAAAAAAAAAAAAAAAAAAAAAAAAAAAAAAAAAAAAAAAAAAAAAAAAAAAAAAAAAAAAAAAAAAAAAAAAAAAAAAAAAAAAAAAAAAAAAAAAAAAAAAAAAAAAAAAAAAAAAAAAAAAAAAAAAAAAAAAAAAAAAAAAAAAAAAAAAAAAAAAAAAAAAAAAAAAAAAAAAAAAAAAAAAAAAAAAAAAAAAAAAAAAAAAAAAAAAAAAAAAAAAAAAAAAAAAAAAAAAAAAAAAAAAAAAAAAAAAAAAAAAAAAAAAAAAAAAAAAAAAAAAAAAAAAAAAAAAAAAAAAAAAAAAAAAAAGGG'
p66
aF1.0
aa(lp67
S'Shortie 4'
p68
aS'CCGAAAGGACGGAAACG'
p69
aF1.0
aa(lp70
S'Shape Test'
p71
aS'AAAAACAUCGAUGUCACGGAAAAAAACGUGGAACUGACAAACCCAGAAAAACUGGGAGGACUAAUGUCUGUUGCAGACUUGAGGGAAAAAAAAAAAAAAAAAAA'
p72
aF1.0
aa(lp73
S'The Minitsry'
p74
aS'GCGAAAAAGGUAAAUAGAAUAAACAGCGAAAAACCAAAAAUAGGGUAGCUUUUCGGCCGUGC'
p75
aF1.0
aa(lp76
S'stickshift'
p77
aS'AAAGUGUUACAAAAAGUCAACACUGA'
p78
aF1.0
aa(lp79
S'U'
p80
aS'AAAAAGAUAUAGAGAGUAGAGAUAUAUCUGAAAAGAUAUAUCCACCCAUAUCAAAAA'
p81
aF1.0
aa(lp82
S'Still Life (Sunflower In A Vase)'
p83
aS'AAAGAGUAUUUUGCAAAAGGUACAGGUGUAUAAAAUGCGAAGCGAUGAAAAACCGUAUUGGGUUACACCUAUGGAAACAAAAAGCCUUGAAAGUUGAAAAAACUAGCAUCGGGACGGUUUUAUAUGGAACUUGUAAGAAGACAAGAGACAAAACAAAAGCAAUGCAGCAAUUUUUUAGUUUUUAUUUAUUUUGUCUAAUAUCAAUAUUUACCGAAAAAAGAAAAAGUCGUCUAUAGGAAACUGUAAACUAACAAGAAACUGUCCUGAUGGAGACUAUAAAUUAGUCGUUCGAGAAUAAUUUGAUAUUUAAGAAAACUAAUGGAUAUUAAAAGAAUAUAAGGAACAAAGGCUUCAAGUUCGAAAAACGAACGGUCGAAA'
p84
aF0.7592592592592593
aa(lp85
S'Quasispecies 2-2 Loop Challenge'
p86
aS'AAAAGUACGCGGAAGUUUGGACACAAAAGUCCGUUUAGAGAGAAUCUCGCAUUGAUAGGUUAAUAAAGGGUUUUCCGGUGAAUCGAUAAAAAAAAAAAAAAAAAA'
p87
aF0.8952380952380953
aa(lp88
S'Corner bulge training'
p89
aS'GUAGGGAGUCAGAAGUUGAUAAAAUCUCUGA'
p90
aF1.0
aa(lp91
S'Spiral'
p92
aS'AAAAAGAUUAGAUGUUAGAUAGAUUUAGAUUAGAUUAGUAGUAGUAGUAGUAGUAAAAAACACACACACACAAUCAAUCAAAUCAUCAAUAUCAAUCAAAAA'
p93
aF1.0
aa(lp94
S'InfoRNA bulge test'
p95
aS'AAAAAAAAAAAAAAAAAAAAAAAAAAAAAAUUGAAAUAGGGUCGAAAGUGGGAAGAGUACCCAUUGGCUAAAAAAGACCUAUGGGUGGCAACAAAUCAAUAAAAAAAACCAAAAAAUGAAGA'
p96
aF0.9016393442622951
aa(lp97
S'Worm 1'
p98
aS'AAAAAAAUGGAGAGAGACUAUUAUAAAACCUAAACGCACCUGAAG'
p99
aF0.9555555555555556
aa(lp100
S'just down to 1 bulge'
p101
aS'AAAAGGCGCGGGUUCGAAAGAACCAGUGGAAACGCGGCAGCAAAGUUACGUUGGAAACAGAGAUGAGAAUCGGUAGAAAAAAAAAAAAAAAAAAAA'
p102
aF1.0
aa(lp103
S'Iron Cross'
p104
aS'GUCUGAGCGAGCGCUGAUAAGACCAAGUAAUGACUUUAGAGGCGAGUAGAAAGCUGAACGCAACCAGUCGAAGUAAAGCUGACAGCUGGUGAAGCGCGGUAGAACCCUACGGAAUGCAAGGAA'
p105
aF0.7479674796747967
aa(lp106
S'loops and stems'
p107
aS'AAAAAACCGUGGAAAAGGUAAAGAGGAAACACGAAAAAAAAUGAUACGAAAAAAACAUAGUAUUUAACGUGAUAACGGGAACAAAAAAGCCCGAAGCCUCAAAACAUAAAAAAUUGUAACACCUGUACUAAAAUGUUCGUCACGGUAAAAA'
p108
aF1.0
aa(lp109
S'Water Strider'
p110
aS'AAAAAGUUAUUAAGGCGAGAUGAAAAUUGAAGAAAAAGUCCGCAGCCAGGAUUAAUUUUUCUGAAAAGGACCCCUGUAUUAUAAAAAAAAAAAAAAAAAAAAA'
p111
aF0.883495145631068
aa(lp112
S'The Turtle(s) Move(s)'
p113
aS'CAAAAAAAGUAGAAUGGCUUCUCUUAAAAAAAUAGAGAGGCCUAAACUGGAAAAACCACAAAAUUGCGAAAGCAUACGUCAUAAAAAAAAUGACAAAAGGUAAAAGAAGACUGAAAACAAAAAGACAGAAUGUGACGUAAAAAUUGUUACUAAGAGUAAAGAUUCAAAACUAAGCUAAAGUACAAAAAAACAGUGGAAAAAAAAAUUCUAUCGGUCGAAAAAGACAUUCAAUCUAAAUAAGAUAUUUUUAGAAAAAAAAAGCAUAGGCGAAAAUUUAAUGAGAAAAUAAACGAAAAAAAAAGCAGCCAAAAAGACC'
p114
aF0.8924050632911392
aa(lp115
S'Adenine'
p116
aS'GUCUCGGUUGGUAGAGGAUGGUGUUUUGGCGUCAGGUUUGGAAAGGUCUGUAAAAUUAGGCCACAGACCGGGAGUAAAUUUGUAUGAAAUACAAGACUUCUGACGCCUGAGUGAUUUGAUAAGAUCAAAUGGACGCUCGAAGCAUGAGAAUUUUCGAAGAUCAACAAAUGAGAC'
p117
aF1.0
aa(lp118
S'Tripod5'
p119
aS'AGGUAGGUCUAAAAGGGACGGCCGAAAAGGCCCUGCAA'
p120
aF1.0
aa(lp121
S'Shortie 6'
p122
aS'GAGAAAUCACAGAAAUGGGCUAAUGCGGCGAAAGC'
p123
aF1.0
aa(lp124
S'Runner'
p125
aS'AAAAAUCUAGUAGCAUCAGAAGGGGCGCUUAGACGAAUUGGGCCUGUUUGAACUGAGAACUGCCCUUAAGAGCAAAGGGAAAGAAAGCGAAAGCUACAGGGCGCGUCAAGAGAAAA'
p126
aF0.7672413793103449
aa(lp127
S'Recoil'
p128
aS'AAAAGAUUAUUUGGUUUAGUGGCGUACCUGCAAAGGGAACCGGGUCGAAGCUUUGUCUUAUAGUAAAAAAAAAAAAAAAAAAAAA'
p129
aF0.8823529411764706
aa(lp130
S'[CloudBeta] An Arm and a Leg 1.0'
p131
aS'AAAAAGUGUCUGAAGAAAUUACAGUUGAGAGAAAUCCAAUCACAAAAAAAAAAAAAAAAAAAA'
p132
aF1.0
aa(lp133
S'[CloudBeta] 5 Adjacent Stack Multi-Branch Loop'
p134
aS'AGCAGGCUCGAAAGGGUGUUUAGAAAUAAACGAAGUAAAGACUUCCUACGCAAGUAGCUGCUA'
p135
aF1.0
aa(lp136
S'Triple Y'
p137
aS'AAAAUGAUCUAAGUACGGAAAUCGCGCUGGCAAUAGUCGCGGUUAGCGAUAAUACGCGUGUUAAUACCCUAGGCAUUUAAAAAAAAAAAAAAAAAAA'
p138
aF0.8762886597938144
aa(lp139
S'Misfolded Aptamer'
p140
aS'CACGUAAAAAGGGGGUAUCCCAGCAAAGGCCAAAAAAAACCGAAAUCGUG'
p141
aF1.0
aa(lp142
S'Flower power'
p143
aS'AAAAACGGUCGGGUAUCCCCUGGUACUCCUGUGAAAAGGGAUAAGAUUAAAUUUAUAACGCCUGGAUCGGAGGAGGCGGCUGGAAAAAAAAAAAAAAAAAAA'
p144
aF0.9215686274509803
aa(lp145
S'Kudzu'
p146
aS'AAAAAGGUAGUAGAGAUGUAGGUGAGUAAAAUUAACCACGAUGAAUAUUCAUGUCAGGCGAAACUUAAAGUCGCGUUGAUCAAAAAAAAAAAAAAAAAAAA'
p147
aF0.9207920792079208
aa(lp148
S'"1,2,3and4bulges"'
p149
aS'AACGUGUGCAAGAAUGAAAGUGAAAUUAAGCGGAAACGUGGCGUCUAAGCGCGAGCCGAUACCACGUACGAAAAGUCGGCCAACGAAAAAAAAAAAAAAAAAAAA'
p150
aF0.8666666666666667
aa(lp151
S'medallion'
p152
aS'UAGCACAGUUGCAGAAAUGCAAUAAAUGAAAACCAACUUAAUGGUGAAUUGUAAAAAAAGACUAAUAAAACUCAACAGAUUAAUACCAUUCAAUAAAGACCAGGGUAAUCCCGGUAAUGAAAGCGUUACAAUUAAAGAGUAGCCUUUAAAGAAGGGCAAACAAAUGUAAAAUGACAACCAAGGUUCAAAGAAACCUGAGCGAAAGCAAAGAAAUCAAAUGUUAUAUGCGAAAGCAAAAUGAAAACAAACCUCGAAAUUCAAGUAAGUAAAGACCGAUAUCAAAAGAGAUACGCAUGAAAAUGAAUGAAAAGGUCGACUCUGAAAACACUUGCAGCUG'
p153
aF0.6646884272997032
aa(lp154
S'[RNA] Repetitious Sequences 8/10'
p155
aS'UGUUAAAAGAAUAAAAUUUUAAAAGUGGAAAAAGUUAAAAUACGAAAAGAGAAAAAGCUAAAAAACCAAAAAUAUCAAAA'
p156
aF0.975
aa(lp157
S'Documenting repetitious behavior'
p158
aS'AAAAAAAGCUAUUAAAAAAUCACCUUAAAAGAAAUUGACGUUGAAUAUAAUCGGAAAUUCAAAGUAAUUUAUCGAUCAUUAAAAGUGCAUUACAGGCGAAAAAAAGGGAAAAGACUGGUUAAAAAUUGGCGAAAAAUCAGAGAAAAACUAUUGAAAAAUAGGCCAAAUAUAUGUCAAAAAUUAGUGGAAAAAUUAAUAUAAAAAUUGUAGUACAAAGUGCAAGUAUAACUAACCAAAUGCAAAUCUAAAAAGACCCUAAAUCGUAUCUAAAGUACAUGUAAUAAAAAUUAAAGCCACAAAAAAAGCAAAAAAUUUGCAAAAAAUCGUUAAAAAAGUUGUGAAAAAUUAACUAAAUAUUGAGUCAAAACAUCUAACAACUGGAUAAAAAAUUUGCGAGGAA'
p159
aF0.74
aa(lp160
S'7 multiloop'
p161
aS'GCACGUAAAAAAGUUUACGCCGUUAAUACGCCAGUACGUAAGUAUUUGCGCUGAUGCGCAAGACGUCAUUGUCUGCUAAUAAUCAAUCGGCC'
p162
aF0.9782608695652174
aa(lp163
S'Kyurem 7'
p164
aS'AAAAAUGUGGGUUACGAAAAGCUAUAAAACGUAAGAAAAAAGUAUGAACAAUGAAAAAAUUUAAACUUAUCUUUACCCCACAGAAAAAAAAAAAAAAAAAAA'
p165
aF0.9215686274509803
aa(lp166
S'JF1'
p167
aS'GUAGCGGGCGGUGAUAUGUGCCAUUAAAUACAUGGAUGUCUGAGGAUGGGAGAGUGUAGUUAUGUCUUUGUCGAAAGAUAGAGCUACAGCGAUAAAAAUACAGGAUGCUGGUAAAGAUUGGCAUCGUAGUAGAAAAUCACCUGCGCUCGCUAUCAGGAUAAAGGGUUUAAGACGGGGGGAAAACCCACCGUCGAGGUCUACGCUCGAUUUUCGUCAUCAAAGGGUGAUGAAGAUCGAAGCGCAGACACAACGUAGAAAAAGCCGUGGGUGGAUAUGGAAAUAUAUCCGCCAAAGAAUAAAGAUCCGAAUGGCCAACAAUGUUUUAAUUUGGCAAAGGUCAACGUGAUGACUUAGCCUAAUGGCUAUGGUCUUUAGAUGCACCAUAAA'
p168
aF0.8423772609819121
aa(lp169
S'multilooping fun'
p170
aS'CCAAAUAGAAAAAAAUAAAGGUGUACAUGAAAAGGG'
p171
aF0.8611111111111112
aa(lp172
S'Multiloop...'
p173
aS'AUGUAUAAUAUGGGAAACCAAAGGAGAACAGUGGCUAAUGACUGCUAAAGAGCAGACGAGACAUGAGGGAAACCUGAUGCGGCAAUAAAAAGGUUGCGGAAAAAUUAAGGC'
p174
aF0.8918918918918919
aa(lp175
S'hard Y'
p176
aS'AAAAAGGCUAGCCUAAUACUUAAUAGUAUUAAAUUGAGCAUUUUUAAAGGGAAGUGUUCGCUCGAAAA'
p177
aF0.9705882352941176
aa(lp178
S'Mat - Elements & Sections'
p179
aS'AAAAAGGUUUUAAGGACAAGCUAGAUUAGUAAAUUAAGUAGUAAAAACUUCAUGAUUGUCAACCAAAACACUUGACAAGGUAACUAAAAAAAAAAAAAAAAAAAA'
p180
aF0.9619047619047619
aa(lp181
S'Chicken feet'
p182
aS'AAAAUGGAGUAGUAAAAAAGUAAAGCAAAGCGCGGUGGUAGAAUGGCACCCUAGCAAGGCACAAAAA'
p183
aF0.9402985074626866
aa(lp184
S'Bug 18'
p185
aS'UGGGGGUAUGUUGACAGGUGGGUAAAACAACAACUAGGAAGUGGUCGAAAACU'
p186
aF0.8490566037735849
aa(lp187
S'Fractal star x5'
p188
aS'AAAAACGAAUAUCCGGAGUUAAAAAGCAAGUUUGAAAGAACAUGAAUUAACAUUCUAAUUGAAAACGCUGAGACACACCAAAAAUCAUUGUUAAGAAUGAGAAUUCGACGUUGACAAAUGACCACCUAAUGGCGAAUCAAAAAACAUAAGAGGAGUGAUAAAAGAUACAAUAAGAUUAAAAACCCAAUUGCAAAAGUCAAUGGUUGAAAAACCUAGUUAAAAAUGGCAAGACGCACCAAAAAUAUAUAUGAAGCUGUAAUAAACGGGCGCAAAAAACCAUGAUGAAAACACCUAGAUUAAAAAGUCAGAACACCACAAAAAGUCGUACAAUCCGUAAAAACGGCAAGAUAAAGAUUUAAGGUUAAAAAACCAGUUGUAAAAAUAAAAUGCACGGCAAAAA'
p189
aF0.7875
aa(lp190
S'Crop circle 2'
p191
aS'AGAAAGAGAAAUGAAAUAUCAAAAAAAAGCCAAAAAAAAAAAAAAAAAAAAAAAAAAAAAGAGAAAAAAAAAAAAAAACCGAAAAAAAGAAGAAAAAACUGAAGCGAAAA'
p192
aF0.9454545454545454
aa(lp193
S'Branching Loop'
p194
aS'UGUAACAAAAAACGGUAGCUAAUUUGGAAUCAUUAAAAAA'
p195
aF0.95
aa(lp196
S'Bug 38'
p197
aS'UGGGAAGGUAUGAUGAAAACUCUAUAAAAAAGUUCU'
p198
aF0.8888888888888888
aa(lp199
S'Simple Single Bond'
p200
aS'AAAAAAGGAAAAAAAUGGCUUAAAUAGCUUAAAAAAAACAAAAAAAAAAAAAAAAAAAAAA'
p201
aF1.0
aa(lp202
S'Taraxacum officinale'
p203
aS'GAUUAAAGAAGUCAGCUAAAAAAAGGCAAAAUAAAGAACCUAUAGGAAAAGACCAGUCGAAAAGAACGAAUGUUAAAAAAGUAUGAUAUGUAUGUGAUAAAAGUAUAAGACACACAAUAUCAGAUGGAAACAUUAUAUAAAGGUGUAUGAAGCACACCGUACAUAGAGCCGCGACAGGACAAAGUCCUGCGCGGAAUCAAAACACACUCUACUGCCCGAAAAGGGCGGUGUAAAAGAACCAGAUAGAAAAAAACGGCAGAAAAAAAUCUGACAAAAAAGGCC'
p204
aF0.7127659574468085
aa(lp205
S'Headless Bug on Windshield'
p206
aS'AGUACGUAAAACGUUUGAAGGUAGUAAAAAAAAAAAAAAAAAAAAAAAAAGCUUUCAAAAAAAUCAAUUCGGCUGAUGAGGGAAUAUAAAAAGCGUAAUCGAAAAAAUUCCCUAAAAAAAUGUGAGGAAAAAAAAGAAAAGGAUACAAACUGACAGAAAAAAAAAAAAAAUGUAAAGCAGGCUCCCGGCAAAGCUAUCCG'
p207
aF0.77
aa(lp208
S'Pokeball'
p209
aS'AAAGAUGAUUUAAAUUAGGUAAUAUAAUGUAGUAAGUAAGUAAGAAAGAAAAUCCACCCACGACACCCCUAGACCGACAACAAUGGUCGAAAAAAAUAGCCUCAAAAUUAGGUAACAAGAGUUUGGGAGUAUGUAAACAAGUAACACGGUGCGCUACAUCUCACAUCGCACAAAGGUGUUAAAA'
p210
aF0.8315217391304348
aa(lp211
S'Variation of a crop circle'
p212
aS'AAAGGAAAAGAGAAAAGCUAAUCUGAGUAGGCGAAAUAGAAGAAAAGAAAAAUGCAAAAAAGUGAAAAAAAAGGUAAAAAAAAAAAAA'
p213
aF0.9318181818181818
aa(lp214
S'Loop next to a Multiloop'
p215
aS'AGAAGGCUGUAAACAAUGAAUAUUAUAUCAGAUUUAGAUACGGUAAUCCGUAUCGCAAAAAAGACGGUCUUAA'
p216
aF0.9726027397260274
aa(lp217
S'Snowflake 4'
p218
aS'UAAUUAUAUCAGGGAUUUAAAGCGUAGCUAAGGACUGAUAAUUCACCAGGAUUAAAAAGCAAGAUUAAAUUACUUGGUGUAAAGACAGUUCGAGAAUUGUGAAGCCGUAGAUGUUAAAAACAAAUAAUGAAACUAUCUGCAAAAAAACAAUUCAAUGUGGUAAAAGAAGAUGUGGAUAAUCCUUAAGAGCGAAACCCACCCGCUAAAAAGCCACGAAGGUAUGAUAAUGCGCAAUUCGUAAGAUCAAAUAUUAAAACCCAGUCCGGGAAACCACACUGGCAUGUAUAAAGAUGUGUAUAUUAAGAGCGAAUGGUGAAAGUAUGCACUUAAAGAAGCAUGAAAGCAAGAAAAAUCGCCUGUGGUGCAACCA'
p219
aF0.7108108108108108
aa(lp220
S'Mat - Cuboid'
p221
aS'GAAGCAAAAUGAAGUAAAAGGGUGUAAAAGGAGGAAGGAAAAGUAAGUACGUAAAAGAAGUAAGGAAGGAAAAGGAAGGAAAGAAGUAAAAGGAAGUAAUGAAGUAACUAAAAGUUUUUUUGUUUGUGUGUAUAAGUUUGUAUGUUUGUUCGUGCUUAAAAGUUUGUUUGUACGUAUGUUUUUAAAAGUGUGUUUGCACGUUUGUGUGCAAAAAAUCUAGCCCGCCCUCCCGCCACCAAUCGCCGGCCGGCUCGCCCGCAACCGCCCGCUCGCCCGCCCGCACCAGCCCGCCCUGUCGCACGAACACGGAAGCAAGCACAAGUAAGCAAUCCCCAGCAGGCAAGACACACAAGCUCAGGCAAGACUAGCACAAGGGCAAU'
p222
aF0.6842105263157895
aa(lp223
S'Misfolded Aptamer 6'
p224
aS'AAAAAAGGCUCAAAAAUUCUAGUAAAUGUAAAAAAAGGCACAAUCGAAAUGAAUGAAAAAUGCUAAAAAAAAAAA'
p225
aF1.0
aa(lp226
S'Snowflake 3'
p227
aS'GAUUUAAAGAAAGUGUAUAAAGACAAAGUUGGGCAAAAGUUAAAGAACGAUGAUAAAAACUCUAAAACAUUAAAAAAGUCCUCAAAAACGAAAUUACAGGUUAAGGUUAAUGCCGAGGUGAAAGCGUGAGAAACAUUUAAUAAAACCGAUAAAGACCAGAACCAGCUGUAAAAGAAAACAAUUUGCAAAAGUUAUCAUGCAUUAAAAAAGAGCAACAAAAGGCAUUGCCGGAAUAAGAUAAAAGCAGCUACGUAAUUGUAAAAGACAAUAAAAAAAUCCCGAGAAAAUCAGAACCAGUUGAACCUUAAUACCGAGCGUAAAAACCAUGAAACAUUGAAAGAACCCUAUAAAAGUAAACAACAAACCAACUUAAAAGAGAGAAGAAAAAAGUCC'
p228
aF0.6412213740458015
aa(lp229
S'Hard Y and a bit more'
p230
aS'AAAAGCGCGGAGAUGGGCUAAUGCCCACGCACUGGUGGGAAAUUGAAAAAUUGUUUUAUGAAAAAAGAGGUACGUCUAGUUUGCGAAAAAAAAAAAAAAAAAAAAA'
p231
aF0.9528301886792453
aa(lp232
S'Mat - Lot 2-2 B'
p233
aS'CCAGGUGUGUGAAUGUAAAAUGGAAUGUGAUAAUAAAAGCGACCACCGCCAGAAAGGAGUUAAAGUAAGGUAGUCUUGGAAAAAGCGUGGUUGUGGAAAAGUAAAAACCCCAGGAAAAUCCAGUACAUACUUGUGGGAACGAAAGCUUAGGUGUUGGGAAAAAGUUCUUUGAAAAAAAAAAGGCUUAUACGCAAAAACAGGACCUCGAAAGAGCCUUUUUGAAAAAAUUUGUGUUUCUAAAAUUAAAAAAAGCGGCAAAAAACCGCUCCUGGGCAAUAAACGAU'
p234
aF0.7429577464788732
aa(lp235
S'Shapes and Energy'
p236
aS'AAAAAAGAGCACGUGAUGAUAUAAGUUGGAGAAAGCGUCAUAAGAAUUAUAGGAAAACCGAGCGAAAGCUUUAAAUGCGCGAAAAAAAAAAAAAAAAAAAA'
p237
aF0.9405940594059405
aa(lp238
S"Spiral of 5's"
p239
aS'UUAAGUGUAUAAAGAGGCUAACGACCGAAACGCGUUAAUGUUCAAGAUGCAAGGGAUUAAAUCAUCAGAAGAUAUAAGUAUUUAGGUAAUGAAUACGGAAAUAUACUACGUGCAAGGUUGUAUUUCGUUUAACAUGGGAAGUAUAAAGUGUAUAGCGAUACGCGGCAAAAGGUCGCUUUGAGUAUCUAAAUCUGUAAAAAAACUUUUAAAGACUUUAAAAAAUGUUUAAAUACGAAUAAAGGCAGCAAAAAGUGCGUAAAUUGAUGGAAAGCCGUGGAAAAAAUGUAAAAGCAGUAAAAAGAUGUCGAAAAUGAUGUGCAGAGUUCAAAAGUGCAUAAAAGGAACGGAAAUACGUGGCAAAGGUCGCAAAUGCUUUGAAAGAUAUAAAAAUGAAAAA'
p240
aF0.9949622166246851
aa(lp241
S'Campfire'
p242
aS'AAAAAAGUAAGAGGUAAGUCGAAUUUCAAAAGAACAAAUGUGUAUCGCAAUGCGACAUUAUGAGUAGUAUCUAUGAAAACAGACACGGGAGAUAGGACUUAUAAAGGUGAAUUGGCAGGUGAAAACACAAUCAAGAUACCACACAAGUACCUCCUUAGAUAGGUACGACUAAUGUAGAUCACUUAUAGAGUAAAAUCACCAACCGACGACCU'
p243
aF0.7122641509433962
aa(lp244
S'Anemone'
p245
aS'AUCGAUUUGAAAGCGGAUCAACCAGAAAUGAAGCAGAGUAAAAAACUUCGAAAGUAAUCAAACGAUUUAAAAAUAAAUCGUUAUAUUCACAGCGACUCAAAGGGGUCGAUUUUGAAUAAGGUCACUGUAAAUGUACAAGCCCUUAAAAGAGGGCCAUAUAAAGACCUGUCUGGUGAAAACUGUAGAUAGUACUCCAUCGCGCAAAAAGUCUUGU'
p246
aF0.7570093457943925
aa(lp247
S'Fractal 3'
p248
aS'AAAAAGUGCAGUAAAACAACUCCCAAAAGCAAAAAGCGACUCAAAUAUCGAAAAAAAGAACACGCGUAAUCAGGAAAAUCGUCGAGGAGACAAAGGAGGAAAACUAACCACUGCAAAAA'
p249
aF0.7815126050420168
aa(lp250
S'Kyurem 5'
p251
aS'AAAAGCAGUUUGGAGGAAGUCCAUUAAAAGACGGUCUAAAGUUAAAAGAGCGUCCGGGAAAAACCUCAGGGCAACUAGACGAUGAAAAAAAAAAAAAAAAAAAA'
p252
aF0.8846153846153846
aa(lp253
S'Snowflake Necklace ( or v2.0 )'
p254
aS'UGGUUAAGAUGUCUGUGCAAUCAAAAAAAUUGUUAAAAAAAAUUAAAAAACUUCAAAAAAGCGCAAAAAAUUAAAUCAGUUAAAAAGAAAACCAUAGUAAAACUCGAUAAAAGAUAUAUAAAUUAAGUAAAAGCUAGCAAAAGGUGGCAUCAGGCAAAAAAUCAUUUAUAGCGAAAAGCACUAAAAAAGGUUGAAAAAAAUGAAAAAAAAUUAAAAAAGGACACCAGACAAAAGACGAGGUAUAGGAAAAACCAUUAAAAAAAUUGGAAAAAAUUCAAAAAAAAUUGAAAAAAAAAAUCGGAGAAAAACCCAUAUAUAGAGAAAAUGGUGGAAAAAAAUUAAAAGUAGGUAAAAAACGUCAAAAAAGAACCUAUUAGACAUUUAAAUUG'
p255
aF0.6966580976863753
aa(lp256
S'Methaqualone C16H14N2O Structural Representation'
p257
aS'AAAAAAGCAAUUGCUUGUAAUCGGAAAAGCCUGAUGUAGAAAAUCAGGGGUUUCAAAAGAAUGGUGGUUAAAAAGCAUGACAAAAAAACGAACCGACCAGCCUCUGAGUAUCGAACAAAAGGAAAGAAACUAAAGAGAAUCAAAAAAAAACCAGUUAAAUAAAAACAUGUUAAUACGGGCAAAAACCAGCGACAACCUUUACAAGGAUAAUGAGUUGGAUGUUGUCAAAGUUUAAAAAAGAGCCAGAUUAAAACCUAUAGAAUAAAUAUCGUCGAGGAGAAGGGUAGGUAAUUUCAUAAUUUGUAGAAAACUAACAUACAAACUAAUGACAGGAGGAAAUCCAGAACGAAAAAAA'
p258
aF0.7070422535211267
aa(lp259
S"Cat's Toy 2"
p260
aS'AAAACGCUGUUCCAAAGGUGUUAAAAAAAAAAAAAAAAAUGAAUUAAACGAAAAUGGAUAGGAAACUUAAAAAAGAUGAAAAUCUGAGCAGCGGAAA'
p261
aF0.9381443298969072
aa(lp262
S'Zigzag Semicircle'
p263
aS'AAAGGCGCUAGGUGGAAAUCAUAAAAUCGUAAAA'
p264
aF0.9411764705882353
aa(lp265
S'Short String 4'
p266
aS'AAAAACCCAGGCAGUGCCGAACAUGUGUUAAUACCAAGGAACUAACGGGCAAAAGAAAUUGAAAAAGAACAUUCGUAAAAAAAAAAAAAAAAAAAAA'
p267
aF0.9587628865979382
aa(lp268
S'Gladius'
p269
aS'UAAAAAAAUAAAAUAAAUAAGUCAAGAAAGGAGGAUAAAAUGUUAAAAAAUGGAAUCAAGAGAGUAAGACGUAAUAACGUGAGAGACCUCCUAGCGGAAAGCGCAAGAAUACAUUAUGGUUGAAAACCUAACUCAUUCUAGCGCAAUUCGCAAGGAGGUCGACAAGGUGAAGGCGCAGUUACCAAGAGGUUCAAUCGAAGGUUGAAACGGUAGCUAAUUAGUAACAGGGUUUGACGAUAUACAGUUGUGAAAAAUAGAUAGUAAUUGGGUUACAAAAGUAACUAUAAUAAUCACACACUCAUUGCAAAUACACACCACAUACUCAGAAUAUCCCAAAGCUUAAAGUUAGGAAAGAAAUCUCGAGAUCAUCCAAGUAAGUCAAAAAAGAAAAAAAGAAAAU'
p270
aF0.775
aa(lp271
S'Thunderbolt'
p272
aS'AGAAGAGAGAAAAAAAAAGCAAAGUGAAAAAGGUAAUCAGAAAGAGUAAAAAAAAUUCAAAAAAGUCUAAAAAGGCCAAAAAACGAAAGUGGUUAAAAAAAGAGUAAAAAAAGGCAAGAGUAAAAAAAGGAAACAGUACGAAAAGCGAAAAAAAUCAAUAAAGAUGUAUAAAAGAACAGAGUGAAGAAAAAAAGUGCAGUGAAAUGGACCGAAAAAAGAAAAAUCAAAAAAAAGGAUAAAAAUGGGAUAAAAUUCUAACCCGGCAAAAAAAAAAAAGGAGCGAAAAAAAAGUUAAAAAAAUUUACUAAAAAGAAAAAAAACAAAAGAGGAGAAAACCUAAAGUUAUUUCAAAAAAAACAACAAGCACAAAAAGAAAAAACCUCCCUCAAGCA'
p273
aF0.8443877551020408
aa(lp274
S'Mutated chicken feet'
p275
aS'AAAAAAACAAAUAAAGAAUUUUGAAGCAUAAGCUGAUCCCCGUCGAAAAAGCAAAAAUAAACAAAAAAGCAACAAAGCUGGAAGUGUAGGGGAGAAAAAA'
p276
aF0.75
aa(lp277
S'Chicken Tracks'
p278
aS'AAAAAAAAUAUUGGCGUUUAACUAGACAAUGAUUAAUGACGGACGCUAAAGAGUGGCACAGUGGGGCUUUUUAUAGAAAAGAUAGAACAUGGGCCUGUAUUAGGGAUAAAAAAAAA'
p279
aF0.8793103448275862
aa(lp280
S'Looking Back Again'
p281
aS'UACAAGAUAAAAAAAAUGAGAUGAAAAACUUUUUCUCAGGUUUAUUAGAUUAUACCACGAGGUAAAAAGAUCAAAAUGACGAAGCCAUCGAACGAAACCAAGAGGCAUAAAAACGUUAAAAAUAAUGGAAAAAACGUAGAUGAUAAGAAACAUAAUCAUGAAAUUAUGAAAUUUUGAGGAUAAGAUUAUAGGUACGGAAACGUAAAAUAUGCACACAAAUAGAAAAUCAAAAACAUCCAAGUACGUAUCUGGUAUAGCUUAAAAAGGCAACAUAAAAAAAAGCGUGAAAAGGUCACGUAAAAGCCGACCGUACAAAAAAUCUCCAAUAAUAAUCAAAAAGAUGUGAACCUUAGAUAUAAGUAAUAAUGACAAAAACAGACAUCUAAGCA'
p282
aF0.6786632390745502
aa(lp283
S'Multilooping 6'
p284
aS'AUAAACAGGCGCGCUUAAUGGCGCGACAUGAAAGUGUUGCCCCAUCCUAAAUGUAGUGCGUGUAAAGGGACGUGGUGGUUAA'
p285
aF0.926829268292683
aa(lp286
S'Cesspool'
p287
aS'GAAGAAGAAAACAACGUUAAUGAGGUAAAACCACCAAAGAACCAAUUAGGAACUCUAAGUUUAAGAAACCAAAAACAAAUCAGUAAUAACAAUAAGAAAACACUGUUACUAGCCGGAACUGAAUAUAGCGGAAAGGAUAAAAACACAGUUUAAAAACCCAAAAAGUAAUCAAACGCAUAACAUGAGAAAACGAGAUUUUAGAUAUAAGUCCAACAAACUGUCAACUAUAAAAAUCGGAAAUAAAAAACUAAACACAAAACAAGUGGUCAGCCGAAAAAAAUCAAGGUUAUGGCCAAGAAUUGAACAAAGCGCCAACUUUAAAAAUCCACAUCAAAAGUGGAAAAAGAAAACAUAACUC'
p288
aF0.6424581005586593
aa(lp289
S'Hoglafractal'
p290
aS'AGGAGGGCUAGAUAAAAGAGUUGAAAAAAAUUCACCCAGCUCAAAGGUUUAAAUAUCCGCUCGAUAACGUGAAAACGAUCAGAUAAAGAUCAAAGGUUAAAAAAAACCGACCGGUAAUUUAAAAAGAAAUCGUACUUAAAAGACAAAAUAAAAGGUAAGAGAAAAAAACCAUCGCAGUAAAAAGCGCUACAAAAACAAGAUACAAAAACUAGUAAAAAAACACGAGAAAAGCCCUUUAACAAUGACAUGGAAAAGUAUAAAAAAACGAAGAAAAUAAAAUAGAUAGAAACCACACAAAAAAAAGACAUCUAAAAAGCAUUCAAAAAAUUAAAGAUUAAACCAGCAAAGAAUAGUUUAAACUUUAAUGAAUAAAGAAUAUAAUGAAAUCAUAUAUUCACGC'
p291
aF0.7175
aa(lp292
S'Bullseye'
p293
aS'AAUGAACGCAGAAUGUGAGCGGUAAGAUUGAAGAUUUCUGACCUACUAAAAAAAAAUUGUUUAUAGCGAAGAUGUAUCGCUAACCGAAAGUUGCAACAAAAAAAAAUCGGAUUAUAAUAAGGACAAAGUUACAAGUUUGAAUAACGAUAAAAAAAAGUCACGAGAAACGAAUACAAAAAAACUUAUGUCAAAGACAAGCCAA'
p294
aF0.6831683168316832
aa(lp295
S'Shooting Star'
p296
aS'UGGGCUGAGAGAUAUAUAAAUAGAUGCUGACUGAUCGAUAAUAACACACCUCUGACCGCCAAACACAUCAGAAGUGUGAUUAGUGGAUAUAUGUAGAGCUUUGAGUAAAAAACUAAUGUUUAACACAGAUCAGACGCCCUCGGAGAACAGCUACGCUCUAAAUAAAACCUAAUAGUGCAGUACUAAAGGAAACGUAGAGCAUAUCAAACCAUUCGAAAUAUAUACAAAAAAGAUGAUUCGUAAAAUGAACAAAGCUCUGUAAAACAGAAAAGGUAUUAUACGCCGGUUGUAUAAUAAAAAUUAAAAAGGCGGAGGAAGAUGAGUAAAAAACAGCAUAUUGCAGGCCCAAUCCACACAAGCCCGA'
p297
aF0.7115384615384616
aa(lp298
S'Teslagon'
p299
aS'AAAAAAGUAAAAAAUCUAGUGAAAAAAGUGAUAAAAAAAAAAAAAAGAAAAAAAAAAUGCAAAAAAAAAAAAAAAUGACCAAAAAAAACACUGAAAAAAGGAAAAAAAAAAAAAAACCAAAAAAAAAUGUAAAAAAAGUUAUAAAAAAAAAAAAAAAACACAAAAAAAGGAAAAAAAAAAAAAAACCGGCUAAAAAGACGGUAAAAAAGGAAAAAAAAAAAAAAAAUCAAAAAAAACAGUAAAAAAAGUAAUAAAAAAAAAAAAAAAACGAAAAAAACAUAAAAAAAAAAAAAAAAUGCCAAAAAAAGCAAUAAAAAAAGAAAAAAAAAAAAGGGAAAAAAAAAAAAAAAUCUUCGAAAAAAACGAGUAAAAAAACAAAAAA'
p300
aF0.8743455497382199
aa.