(lp0
(lp1
S'Simple Hairpin'
p2
aS'GAUACAAAAAAGUAUC'
p3
aF1.0
aa(lp4
S'Arabidopsis Thaliana 6 RNA - Difficulty Level 0'
p5
aS'GGGAUGUGAAGUACAAAAAAAAAAAGUAGGGGUUUCGUGGUGAUAUUAUAGGAUAUCGAAGAUACAAAAAAGUAUCAGAUAUCACUAUAAUAUCACUUGGAGACCCCAAGCAUCCC'
p6
aF1.0
aa(lp7
S'Prion Pseudoknot - Difficulty Level 0'
p8
aS'GAUAUCAGAUCAAAAGAUCGAUAAUCAAAAAAAAAA'
p9
aF1.0
aa(lp10
S'Human Integrated Adenovirus - Difficulty Level 0'
p11
aS'GUGCGAAGACACAGGGGAGGCGAAAAAAAAAGGACCCGGGGGGCAAAAAGGGGUCUGAGACGCCUGAGUAAUAUUAAAAAAUAUAUUACUUGAAACGGCCAGACAAAACCCGCCAAAACCCCGAAAGGAUGUGAAAAAAACAUCCGGUCAAAAAAAAAAAAGCCUCCACUGUUAAAGUUUUCAAAGCACAAA'
p12
aF1.0
aa(lp13
S'The Gammaretrovirus Signal - Difficulty Level 0'
p14
aS'AACGCGGAAUACCAAAAGGUAUUAAGAGAAAAAGGUUCAAUACAGAUCCAUACUAAUGUAUGAAAAGAUCGUAGAGCAAGGGGUGUGGAAAUAUACCCCAA'
p15
aF1.0
aa(lp16
S'Saccharomyces Cerevisiae - Difficulty Level 0'
p17
aS'CUGCUGGGCGGUAAAAAAUUCGCGGGGAGAAAAAAAAAAAACCAAACUAGCCGAAAAAAGGCUACCAGCAGAAAGGGGUUGCAAGGAUGAAAAAAAAUCCCCGAAAAAAAAAAAAGCGGAAAUGUUACAAAAAAAGUGACGCAAUCCAAAGGGGAUGCAGGCACUAAAAAAUGUGCGGUUACGAAAAAAGUGACCAAAGGCUUCAAAAAAGGAGGCGCAUCCCAAAGAGUCAUACAGACCUAAAAAAUGGUCCGAUACGAAAAAAGUAUCGAAAUGUAUGAAAAAAGCAUAUUAUGACUAAAGGCUACUCAAUAUCGAAAAAAAGAUGCCAGAAAAAAAAAUUUUGGAAAGGAUUCUAAAAAUGAAUCGAGUAGCAAAA'
p18
aF1.0
aa(lp19
S'Fractal 2'
p20
aS'AAAAAGGGAUGUCAAAUUACGACACGAAGAGCUAAAAAAAAUGCUCAAGUACGAAAAAAAAAGUACAACCUCAAAAAAAAAGGAGGAAUGUGUCGUAAGAGUUCUGAAAUCAAGAGCGAAAAAAAAAGUUUGAGCACAAAAAAAAAAGUGCAAGAUCAAAAAAAAAGGAUCAAGAUUUCAGAGAAUGGGUGACUGCAAGUAUAAAAAAAAAGGUGCGAGGACGAAAAAAAAAGUCCAAGCUCUAAAAAAAAUGAGCAAGCAGUUACCCUAAGACAUCCCAAAAA'
p21
aF1.0
aa(lp22
S'G-C Placement'
p23
aS'GAUCAAAGAUCG'
p24
aF1.0
aa(lp25
S'The Sun'
p26
aS'GACAUGCGUGCAAAGCACAAGCAGUCAAACAAAUGCAUGAGAAUAAAAAAUCCUUGAACACAUACUCGCAAAGUGGAAGUAGUGGAACACAAUCCGGCAAAGCUGAAGAUGUGAAGUGCAGGCAUGGAAGUCAUAAGCCGUAAAACACAGGCUUGCGAAGCAGAAGCCGUGGAGCACAGGCGUGAGAAGUACAAGAGUUGAAGCUUAGGCAAGCAAAGCUUAAGCCAGGAAGUCGACGAAUGAUAUUCAUAAGUUUGG'
p27
aF0.8255813953488372
aa(lp28
S'Frog Foot'
p29
aS'AAAAAAAAAACGAGGAAACUCGGCACGAAAGUGCGCCGGAUCGGC'
p30
aF1.0
aa(lp31
S'InfoRNA test 16'
p32
aS'GGAUGCGCCUAUACCGAAAGGUAUCAGAGAGCAUCC'
p33
aF1.0
aa(lp34
S'Mat - Martian 2'
p35
aS'GAUCAAAAGAUCAAAGGGAUGCAAGGCUUGUAAAAAAAGCAGGCCGCAUCUCAAAGGGGUGUCUAAAAAGGGAUGCAGGGAUGCAAAAAAAGCAUCCCGCAUCUCAAAGUGUGAUAUUAUACAAAAAAAGUAUAAUAAUCACACAAAAAUGACACCCCGAAGUGUGAUAUUAUACAAAAAAGGUAUAAUCAAUCACACAAAGAGCUAAUGUUC'
p36
aF1.0
aa(lp37
S'square'
p38
aS'GGGGUGCCGAUACCGGGGUCCGAUACAAAGUAUCGAAAAGACCCCGAAAAGUAUCGAAAAGCACCCC'
p39
aF1.0
aa(lp40
S'Six legd turtle 2'
p41
aS'AAAAGAUAAGGCAAAAGCAAAAGAAAAUAAAAUAUAGUGAAAUAAAAAAUGUAUGUAAAAAUUAAAAGAAAUUAAAACAAAAAAAAAAAAAAAAAAAA'
p42
aF0.9591836734693877
aa(lp43
S'Small and Easy 6'
p44
aS'GGCGCUAAAUGCAACGGAAAAAAAACGGCC'
p45
aF1.0
aa(lp46
S'Fractile'
p47
aS'AAAAAAAAAAAAGCAAAAGCGAAGGAAAAUAAAAAUAAGCAAAGAAAAGUCAAAGUAGUGAAAAUUUAACCAAGGGAAACCAAAAAAAAAAAAAAAAAAAAAAAA'
p48
aF0.9619047619047619
aa(lp49
S'Six legd Turtle'
p50
aS'AAAAAAGAAAAUAUAAUUGGAAAGCAAAAGUGAAAAGUAAAAUGAAACCAAAUGGGAAGGUCAAAGAAAAUGGGAAAUCUAAACGAAAAAAAAAAAAAAAAAAAA'
p51
aF0.9619047619047619
aa(lp52
S'snoRNA SNORD64'
p53
aS'GGAUGCAAAAAGACAAAAUACAAAGAUACAAAAAAAAAAAAAGUAUCAAAAGUAAAGUCAAGCAUCC'
p54
aF1.0
aa(lp55
S'Chalk Outline'
p56
aS'AAAAAGAUCAGAUACAAAAGUAAUCAGACAGACAAAAGUCGUCAGGAUGCAAAAGCAAUCCAGGAUCAAAAGAUACCGAUCAAAAAAAAAAAAAAAAAAAAAAA'
p57
aF1.0
aa(lp58
S'InfoRNA bulge test 9'
p59
aS'GGGAUGCAGAGAGAGGGAUGCAAAGGCAUCCCCCCGCAUCCC'
p60
aF1.0
aa(lp61
S'Tilted Russian Cross'
p62
aS'AAAAGGUUCGGGCAAAAGCCCCCUCAGAUGUAAUCAUCGCUACGAAAGUAGCAUAUCGAAAGGUGGAGGGACCGAAAGGUCGAGCAAAAAAAAAAAAAAAAAAAA'
p63
aF1.0
aa(lp64
S'This is ACTUALLY Small And Easy 6'
p65
aS'AAAAAAAAAAAAAAAAAAAAAAAAAAAAAAAAAAAAAAAAAAAAAAAAAAAAAAAAAAAAAAAAAAAAAAAAAAAAAAAAAAAAAAAAAAAAAAAAAAAAAAAAAAAAAAAAAAAAAAAAAAAAAAAAAAAAAAAAAAAAAAAAAAAAAAAAAAAAAAAAAAAAAAAAAAAAAAAAAAAAAAAAAAAAAAAAAAAAAAAAAAAAAAAAAAAAAAAAAAAAAAAAAAAAAAAAAAAAAAAAAAAAAAAAAAAAAAAAAAAAAAAAAAAAAAAAAAAAAAAAAAAAAAAAAAAAAAAAAAAAAAAAAAAAAAAAAAAAAAAAAAAAAAAAAAAAAAAAAAAAAAAAAAAAAAAAAAAAAAAAAAAAAAAAAAAAAAAAAAAAAAAAAAAAAAAAAAAAAAAA'
p66
aF1.0
aa(lp67
S'Shortie 4'
p68
aS'GCUAAUGCAAGGAAACU'
p69
aF1.0
aa(lp70
S'Shape Test'
p71
aS'AAAAAGAGAUCAAGAUACAAAAAAAAGUAUCAAGACAUACAGAUACAAAAAGUAUCAGUACAAAAGUACAGUAGUCAAGAUCGCAAAAAAAAAAAAAAAAAAAA'
p72
aF1.0
aa(lp73
S'The Minitsry'
p74
aS'GGCUAAAUACCGAAACGUGGAAACCCCGAAAAGUCGAAAAAAAGGCAGGGACACAGGUUGCC'
p75
aF1.0
aa(lp76
S'stickshift'
p77
aS'AAGGGAUCCCAAAAAGGAGAUCCCAA'
p78
aF1.0
aa(lp79
S'U'
p80
aS'AAAAAGAUACAGAGAGCAGAGGGGUGUGCAAAAGCACACCCCCGCCCGUAUCAAAAA'
p81
aF1.0
aa(lp82
S'Still Life (Sunflower In A Vase)'
p83
aS'AAAGAUCAGCAAUGGAAAACAUUGAAUCUAGAAGCUAGAAACAUAUAAAAAAUAUGAAUAUCGAAACGAUAGACAAAUAAAAAAUUUGAACUUCCAAAAAGGAAGAAUGAGAUAUUAUAGGAUGAUAUCGAUACAAAAAGGUAUCAGGUAUUAAAAAAAAAAAAUAUCUAAAAAAAAAAAAAAAAAAAAAAAAAAAAAAAAAAAAAAAUGAUAAAAAAAAAAAAAUAUACCGAUACGAAAGUAUCAGAUAUCAUUCUAUAAUAUCUCAUGAGAUACAAAAAGUAUCAGCAGCGAAAAACGCUGAACGUAUGAAAAAUACGAAAAGAUAAAAAAUCUUAAAACAUAAAAGUGUUAACAAGGGAAAACUUUGAGAUCAAA'
p84
aF1.0
aa(lp85
S'Quasispecies 2-2 Loop Challenge'
p86
aS'AAAAAGCCCGUUGGGUAUAGAAAUAUAGACAGCAUACCGACAAGGGAGGUGAGGUGGGUGAGACGAAAAGUCGAGAACACCGGGUCAAAAAAAAAAAAAAAAAAA'
p87
aF1.0
aa(lp88
S'Corner bulge training'
p89
aS'AGGAUGCGAUACAAAGUAUCAAAAGCAUCCA'
p90
aF1.0
aa(lp91
S'Spiral'
p92
aS'AAAAAGAUCAGGAUGCAGACAGAUACAGAUCAGAUCAGCAGCAGCAGCAGCAGCAAAAAGCGCGCGCGCGCGAUCGAUCGUAUCGUCGCAUCCGAUCAAAAA'
p93
aF1.0
aa(lp94
S'InfoRNA bulge test'
p95
aS'AAAAAAAAAAAAAAAAAAAAAAAAAAAAUGUUAAAAAAAGAACAAAAACACUAGGGCCAGGGGCGCGCGGAAAGCAACGAGCUUCGGGAAGCUAUGUAAUGAAAGGUAUGAAAAAAUGAACU'
p96
aF0.9836065573770492
aa(lp97
S'Worm 1'
p98
aS'AAAAAAAUUGGUUGAGAGUUCUACAUAAAGCGGGCGUCCUUACUG'
p99
aF0.9555555555555556
aa(lp100
S'just down to 1 bulge'
p101
aS'AAAAAGGACAGAUACAAAAGUAUCAGACAAAAGUCAGUACCAAAAGAUCAGACAAAAGUCAGACAAAAGUCAGAUCAAAAAAAAAAAAAAAAAAAA'
p102
aF1.0
aa(lp103
S'Iron Cross'
p104
aS'AUUCUGUUGAAAUCAAGCAAAGCGGGGUAAAGAUCAGCUAAAUUUGGGUAAAAAUUACGCUAUGCCAGAAGAAGUCAGUCAAAAGGUUGACAAAUUCGGACUAAGACUGACAAGGUUAGGAGA'
p105
aF0.9105691056910569
aa(lp106
S'loops and stems'
p107
aS'AAAAAGGGAUGCAAAGAUCAAAGAUCAAAGACCAAAAAAAAAGAUACAAAAAAAAAAAAGUAUCAAAGGUCAAAAGAUCAAAAAAAAAAGAUCAAAGAUCAAAGACAAAAAAAAGUCAAAGAUCAAGCAAAAAAGCAAAGCAUCCCAAAAA'
p108
aF1.0
aa(lp109
S'Water Strider'
p110
aS'AAAAUGAUGUGGGCGACAUGCGAAAGCGGUUAAAAGUCGUCCUAAAAUAAGGGAAACCUUAUAAAAGUAAGUUGCAAACUUCUAAAAAAAAAAAAAAAAAAAA'
p111
aF0.941747572815534
aa(lp112
S'The Turtle(s) Move(s)'
p113
aS'AAACCAAAAGGGGAGGGAUGUAGCUAAAAAAAUGUUACAUCCAAAGCAUCAAAAAGAUGAGAGUAACUAAUGUUUAGCAUCCAAAAAAGGGAUGAAAAUGCAAGUCAAAAGAAGUGCUGAUAAUCUGAAAUCUAGACAAAAAAGGUUUGGUAAACGCGAAAGCGAAAAAUGAAAAAAAUGUCAAAAAAGGGCUACACGAAAAAAAGUGGAACAUAUAAAAAAAUGUGAAGCAUCAAAAAGGUGAAUUUUCAAAAAAAAAAUCAAAAGGACAAAUGAAAGACGAAAGGGAUAUAAAAAAAAAGAUAUCGAAAAAGCG'
p114
aF0.9715189873417721
aa(lp115
S'Adenine'
p116
aS'GAUACAUAUACCAUAUACCAUAUACCAGGAUGCAGGAUGCAAAAGGAUGCAAAAAAGCAUCCAGCAUCCAGAUACAAAGGGAUGCAAAGCAUCCCGUAUCAGCAUCCAGUGUCAUAGUACAAAGUACUAUAAAGACACAGGUAUAAAAAGGUAUAAAAAGGUAUAAAAAGUAUC'
p117
aF1.0
aa(lp118
S'Tripod5'
p119
aS'AAGAGAGAUCAAAAGGAUCCAUCGAAAAGAUGUCUCAA'
p120
aF1.0
aa(lp121
S'Shortie 6'
p122
aS'GGUAAUCCGACGAAAGUAGCAAAAGCAGCGAAAGC'
p123
aF1.0
aa(lp124
S'Runner'
p125
aS'AAAAAUGGUAGCUCAAAAACAACUAUGUUGGGAGCGAAAACGAGAUCGCAAGGUGAAAAGCGCUGUCAAGGCCAAAUGUAGUUAAAGAAAAGGUUAAAAGGCAUUCGACCGAAAAA'
p126
aF0.9482758620689655
aa(lp127
S'Recoil'
p128
aS'AAAAAGAUACAAGCAAGCAAGACAAGACAAGCAAGCAAAGCAGCAGUCAGUCAGCAGCAGUAUCAAAAAAAAAAAAAAAAAAAAA'
p129
aF1.0
aa(lp130
S'[CloudBeta] An Arm and a Leg 1.0'
p131
aS'AAAAGGACAGCAACGAAAGUGUGCGUCAGCAAAAGCGACAGUCAAAAAAAAAAAAAAAAAAAA'
p132
aF1.0
aa(lp133
S'[CloudBeta] 5 Adjacent Stack Multi-Branch Loop'
p134
aS'GAUACGAUCGAAAGAUCGACACAAAAGUGUCCAUAUGAAAAUAUGCUCGUAAUUGAGGUAUCA'
p135
aF1.0
aa(lp136
S'Triple Y'
p137
aS'AAAAAGAUCGUUCGAUCAACAGAUUACUGGAAACAGUGAGCUUUCGAGCAAAAGUACGUUCGAAAGAAAGCUAGGUCCAAAAAAAAAAAAAAAAAAA'
p138
aF0.9175257731958762
aa(lp139
S'Misfolded Aptamer'
p140
aS'UACUAAAAAACACAUGAAGCGUUUGAAAGAUGCAGCGCGUGGAAAGGGUG'
p141
aF0.96
aa(lp142
S'Flower power'
p143
aS'AAACUGCUGGACGAAGCGUCAGGUCGAUCUAGGAUCAAGGUUGAAAGUCGAGAACUAUGUUGGGUUGAAGCUAUGUAGUAGUAAAAAAAAAAAAAAAAAAAA'
p144
aF0.9019607843137255
aa(lp145
S'Kudzu'
p146
aS'AAAAUUCCGCGGCAUAUCUAGCAGAGCUAUGCCUAUCGGGGGCAUAAGAGAGCCUAACGCGCACGCAACAUAGGAAGAGGAUAAAAAAAAAAAAAAAAAAA'
p147
aF0.9603960396039604
aa(lp148
S'"1,2,3and4bulges"'
p149
aS'AAAAAAGAAGGAACAUAAUAGAAAACUCACGGUAAGCUCAGUACUAAAAGACCUAGGAAAAGAAAUUGUAAUAAUUCAUCGAAUCGAAAAAAAAAAAAAAAAAAA'
p150
aF0.9047619047619048
aa(lp151
S'medallion'
p152
aS'GUAGGCACGAGAGUAAUCUUUCGAGCUCACAAGAUCCGUAAUGGCUAGAGACUAAUGUUUCUAUACUAAAGUAACGUUAUCAAAAUAGCGGCAUAAAAGGCAAGCAAAAGCGAUGAAACGAAAGUUUCGGCGCGAAAGCGACGAACCGAAAGGUUCGGGAGGACACUUACGCUAAAGCGGCGUCACUAAUGUGACGAAAGGAAACUUAAGGUAGUAACUUAUCGACAUAAAGGUUGGCCAAAAGGAGAUGUAGAAAACUAUAUAUAAAAAAUCGAAGAUACGAAAGUAUCUAUACAAAAGUAAGACGAAAGUCACAUGACUAAGGAUAUGAGGUUGC'
p153
aF0.8783382789317508
aa(lp154
S'[RNA] Repetitious Sequences 8/10'
p155
aS'AGGAAAAAAGCAAAAAAGCAAAAAAGCAAAAAAGCAAAAAAGCAAAAAAGCAAAAAAGCAAAAAAGCAAAAAACCAAAAA'
p156
aF1.0
aa(lp157
S'Documenting repetitious behavior'
p158
aS'AAAAAAAGGAAAAAAAAAGGAAAAAAAAAGGAAAAAAAAAGGAAAAAAAAAGGAAAAAAAAAGGAAAAAAAAAGGAAAAAAAAAGGAAAAAAAAAGGAAAAAAAAAGGAAAAAAAAAGGAAAAAAAAAGGAAAAAAAAAGGAAAAAAAAAGGAAAAAAAAAGGAAAAAAAAAGGAAAAAAAAAGGAAAAAAAAAGCAAAAAAAAAGCAAAAAAAAACCAAAAAAAAACCAAAAAAAAACCAAAAAAAAACCAAAAAAAAACCAAAAAAAAACCAAAAAAAAACCAAAAAAAAACCAAAAAAAAACCAAAAAAAAACCAAAAAAAAACCAAAAAAAAACCAAAAAAAAACCAAAAAAAAACCAAAAAAAAACCAAAAAAAAACCAAAAAAAAACCAAAAAA'
p159
aF1.0
aa(lp160
S'7 multiloop'
p161
aS'GCCCCUCAAGUAAUUGAGCGUCCUAAUGGGCGGCUGCUAAUGCAGUGCUUCAAAGGAAGCCAGGUGAAAACCUGUAGGCGAAAGUUUAGGGU'
p162
aF1.0
aa(lp163
S'Kyurem 7'
p164
aS'AAAAUGGCCUUUAACGAAAGUCGAGAAAACACGUUACAAAAAGUUUCCACAAAAAAAGUUGAAAGUGUAUGCUUGGAUGGCCUAAAAAAAAAAAAAAAAAAA'
p165
aF0.9215686274509803
aa(lp166
S'JF1'
p167
aS'GUGCGAUAUUAACAUAUAAGAUACAAAAGGAUGCAAGAUACAAAGAUACAAGGAUGCACGUGGUAUGAUAUCAAAAGAUAUCAUACCACGAAGACAAAAGUCACGGGGUGUCAAAAGACACCCCGAACAUAUAAAAAUAUGAGCAUCCAGUAUCAGUAUCAGCAUCCAAAGGGGUGUCAAAAAGACAACCCCAAGUGUGAUAUUAUAGUAUGAUAUUCAAAAGAAUAUCAUACUAUAAAUAUCACACAAAGAUACAAAAAAGUAUCCGGGGUGUGCAAAAGCACACCCCGAAACAUCAAAAGAUGAAGUAUCAAAUAUGAAUACAGACAGACAAAAGUCGUCGUAUAGGGCGUGGCAAAAGCCACAGCCCAUAAUAAUCAGCACAAA'
p168
aF1.0
aa(lp169
S'multilooping fun'
p170
aS'GUUGGUUUUGAAAAGGGUUUUAAAUCUGUAAAUAAC'
p171
aF0.75
aa(lp172
S'Multiloop...'
p173
aS'CAUCAGAUCGCGUGAAAACGAGGCAAAAGCCAGACAAAAGUCGGACGAAAGUUAGAGAAAGCUCGGACGAAAGUCAGAUCAUAGACGAAAAAGUCUGGACGAAAGUUGAUG'
p174
aF1.0
aa(lp175
S'hard Y'
p176
aS'AAAAAGCUGGGCAGUGUGUCAAAGGACACGCACCCGUAUCAGAGCUAAUGUUCUGAUACCAGCGAAAA'
p177
aF0.9705882352941176
aa(lp178
S'Mat - Elements & Sections'
p179
aS'AAAAAGGGCAGAAUCGUUUAUCGUUUUAGCAGAUCAAGAGAUGCAAAUCACCAGAUCGUCAAGAAAAAGAUAGAAGUAGCGGCUCAAAAAAAAAAAAAAAAAAAA'
p180
aF0.9619047619047619
aa(lp181
S'Chicken feet'
p182
aS'AAAACCUAGUUGCAAGCUUCCCAAGGCAACAAGUUCACGAGCAAACGGUCCAAGGUAGUGGAUAAAA'
p183
aF0.9104477611940298
aa(lp184
S'Bug 18'
p185
aS'AUAUGACGCACCGGUGGUCGGCGGAAAAAAGGGAGAGGAGCUAAUCGAAUUCA'
p186
aF0.9622641509433962
aa(lp187
S'Fractal star x5'
p188
aS'AAAAGGGGAGUGCGACAUCAAAAGAUGAACCUUUAAUGAGGGUCUUAGAAAUAAGUAGGUGAAAGCACCGAGCACUUCUAAAAAAUCCUCGGAGCGUCAAAAGGCGAAGAUGAAAGCAUCGACUGCAAAGGUAGAGUCUAGAAAUAGGAAUUGAGGAUGAAAGACUCUUUGAGAACAGAAAUGUUAUGGAUGAAAAUCCUGUCUCGAAAGAGAAAGAUAGAAAUGUCAACAGAGAGUAAAAACGUGGGCCAAGAGCAAAGGUUCAACAUUAAAAGAUGGUCGUCGAAAGACGUGGAUAUAAUUGUCAAGGCCCGCGAAAAGCUGGUUGCGAGAGCAAAAGUUCGACAUCAAAGGAUGGACACCGAAAGGUGAGCCUCGAAAGAGGAAGCAACCGGAAAAA'
p189
aF1.0
aa(lp190
S'Crop circle 2'
p191
aS'GUGAAACGAAUGUUAGAAGCAAAAAAAAAGUAAAAAAAAAAAAAAAAAAAAAAAAAAAAAAACGAAAAAAAAAAAAAAGUAAAAAAAAUGCUAAAAAAGUGAAAAAAAAA'
p192
aF0.9636363636363636
aa(lp193
S'Branching Loop'
p194
aS'AGUGUGGAAAAAAACGGAUAAAAAUCCAGGUAUGAAAAAA'
p195
aF0.95
aa(lp196
S'Bug 38'
p197
aS'AGCAAGUAUGACGAAAAAAGCUAAAUGUUGAAGGUA'
p198
aF0.9444444444444444
aa(lp199
S'Simple Single Bond'
p200
aS'AAAAAAGAAAAAAAAUGGCCUAAAUGGCUUAAAAAAAGCAAAAAAAAAAAAAAAAAAAAAA'
p201
aF1.0
aa(lp202
S'Taraxacum officinale'
p203
aS'AAUCAAAUCCCCAGCAGUUAAUGAUCCAGAUCGAAAGAGUCACUACGAAAGAUAGGGGUCAAAGGAAUAACAACGAAAGAUUGGGUAGUGUGAUGGGGAGUUGAUCGAAGAUUAAAUUCCCUGGUACAAUUAUUAUAUCGAGGGUUGCAAGGCAGCCCGGAUAUGAUAACAGCAUGUUGGUAUCCAGCAGCUGGUAUUUAACAUCAUAUUACAGCGCGAAACGCGUAGAGGAUAGCAUAUGCCCGGAAAUACGUGGGUUGAAAGGAAUACGAGAAAAGACGG'
p204
aF0.8333333333333334
aa(lp205
S'Headless Bug on Windshield'
p206
aS'AGACGCAAAAAGUAUCAAAUUAGAGAAAAGAAAAAAAAAAAAAAAAAAAACUCAGAAAAGAUAACAAACCAUCGGAGUAAAGAAGGAAAAAAGACGAAAGUAAAAAAACUUUCGAAAAUCUUAUAACCAAAAAAUGUCAACCUGUCUGGUCUGAAAAAAAAAAAAAAAAAGUCAUGGGAAGGAUGGGGAUUAGGAAUUGG'
p207
aF0.91
aa(lp208
S'Pokeball'
p209
aS'AAAAGGCUGCAAAAGAGAACAAGGAAAGUAGCCGAGUAAACGUUCAACGAAACGGGAUAGUAACAGCGGACGCCUGAGAUUGCAGUCUAAAAAAAUCAUCAUGAAAAGCAGGCAAGCCGAGCGGUCGAGGAACCGAUGAUGCUAUGCGUAGGGGGCCAGAAAGUAGGCCGCAGUCAUGAUGUAA'
p210
aF0.9565217391304348
aa(lp211
S'Variation of a crop circle'
p212
aS'AAAACGGAAAACAAAACCAAAUGCAAUCUUUAUAUGGUUGAAAAAGCUACAAAGGGAAAAAAGCGCAAAAAAAUGGAAAAAAAAAAAA'
p213
aF0.9545454545454546
aa(lp214
S'Loop next to a Multiloop'
p215
aS'AGGGGGUGUGAAAAAAAAAUUACGAAAACUCGUAGGGGGCUGGAAAACCAGCCCGUGAAAAAACACACCCCAA'
p216
aF0.9726027397260274
aa(lp217
S'Snowflake 4'
p218
aS'AAUCAAAGAGGCACGGGCAAAGGUCAUAUUAUUCACGCGAAACAUAGACGAUAAAAUAUCAACCUCAAAGAGGGUCUAAUGAAAGUGUGAAAGGAUACCCGAAAGGCGAUCUAUCAAAGAUGAAUUGCAAGGCGGGAUCGCCAAAAGGGUAUCAAGAUUUCCAAAAGGCUAUUCAUCUAUGCUCAACAACAAAGAUGAGUGGGCAAAAGGAAAUCGACAGACCCAAAAGGCCAUGUAUGAAACAUGAACGUCAAAGACCUAUGGCAAAAAUGGUCUGGAGAUUUUGAAAACGAAGAUUUGUAAAAUGGAACCUCUAAGAGGAUCUUCGAAAAUCGGGUCAUAUAUGCCAAAAGGCCGUGGAUCGAAGAUC'
p219
aF0.8486486486486486
aa(lp220
S'Mat - Cuboid'
p221
aS'UAAUCAAAAGGAGGCAAAAGCAAGCAAAAUAAGCAAGCAAAAGCAGGCGAGCAAAAGAAUUAAGCAAGCAAAACCAAUCAGUCAACCAAAAUGGAUCAAGAAAGUAAGUAAAAUCGGUCGGACGGUUGGUCAAAAGCGCUCGAACUCUAUGUCAGUCAAACACGUUCGGUAGAUCGAGGGGGGAAAAGGGCACGGGCGGUCGCUCGAUCUAAAAUGAGGGGGGGAGAGCAGGAGGUGACGGUCGGGAGGGAAGGAUGGCGAGGGAGCUAGUGUGGAAGGGCGAGGGAGGGAGAGAAGGGACAAGCAAUCAAGGAAAAGCGAGCAAAAAAGCGCGAGCAAGGAACGCAAGCAAGCGGAAGAAAGGUAAACGUAAUCGAAAG'
p222
aF0.7894736842105263
aa(lp223
S'Misfolded Aptamer 6'
p224
aS'AAAAAAGACAAAAAAGAUCAUCGGGGUACAAAAAAAGGUAGGAAGUAAAAGAUCAAAAAAAGUCAAAAAAAAAAA'
p225
aF1.0
aa(lp226
S'Snowflake 3'
p227
aS'GACGCAAAAGCAGGCCAGUAAUAUGAAGAUCGGAUCAAGACAAAAGUCCACAGGAAAACCGGCAAAGUCGCAAAAGCAGUGCUUAAAAGAGAACAUCAGCUCAAAAAAAAAGUUCACAGCAAAAGAGCCGAAGGCACUAAUGCGGCGCACAAAGGUAAAGAUCAGAUCAAGACAAAAGUCCACAGCAAAAGCGACAAAGUCGCAAAAGCAGUGCACAAAAGUGAAGAUCAGAUCAAGACAAAAGUCCACAGCAAAAGCGGGAAAUCCGCAAAAGCAGUGCCCGAAAGUGAAGAACAGAUAAAGACGAAAGUCCACAGCAAAAGCGAGAAAUUCGCAAAAGCAUUCCACAAAAGUGAAGAUCACAUCAAGACAAAAGUCGCCAGCAAAAGCGUC'
p228
aF0.8371501272264631
aa(lp229
S'Hard Y and a bit more'
p230
aS'AAAAAGGACCUCGCAUAUAAAGAUGUUAGGGAGACGGUAUGGCCUAAUGGUCUUGAUAUUAAAAUGUAUCUAGCAGUCUCGGAAUAAAAAAAAAAAAAAAAAAAAA'
p231
aF0.9716981132075472
aa(lp232
S'Mat - Lot 2-2 B'
p233
aS'AAAAACAGUCUCGGUCAAGAGAAGGGGCUAAUGCAAAAUAGGGCGAAGGAAAAAGAAGGCUCUAACAAGCGUUCGCUGGAAAAAGGGGUACGGGUGAAAAAGAAAAUAUAGGUCUAAAUAGGUCGCGCGCGCGGACAAGCUAAAGCGAGGGGGUGGACAAAACCGGAAGCGAAAGCAAAAAUAAGGGAGGGCAAAACUGGUCGCGGGCAAGCUGGCACAGACAAAAGUAGGGGCGGACAAAAGGAAAAUCGAGGGCAAAACCCGGUGCGGGAGUAUGGAAGGAA'
p234
aF0.8028169014084507
aa(lp235
S'Shapes and Energy'
p236
aS'AAAAAGGGGAACAGGCCAAAAGGAAGCACACUAAUGGGUUCGCUCCUCCAAACAAAACUGAAUAAAUGUUCUUGGAUCACAAAAAAAAAAAAAAAAAAAAA'
p237
aF0.9603960396039604
aa(lp238
S"Spiral of 5's"
p239
aS'CGAAGGAUACUAACAUAUAAAGAUAGAAAAGAUACAAAGAUAUAAAGGAAUAGGAUAUGAAAGAUACAAAGAUAUGAAGAUCGAAGAUACAAGGUUAUGAAUAAGUUAGUUAUAAACAUAUUAGAUACAAGUUACAAGAUACUGGAUACAGCUACAUAAUCAUAGCAAAAAGCUAUAAAAAGAUUAAAAAAGUAGUAAAAAGUAUCAAAAUGUAUCAAAAGGUAACAAAAAGUAUCAAAAUAUAUGGAAAAAUAGCAAAAUACUUAAAAAAGUAACAAAAAGUAUCAAAAAUGAUCAAAAAAUAUCAAAAAGUAUCAAAAAAUAUCAAAAAAUUCCAAAAAAUAUCAAAAGGUAUCAAAAACUAUCAAAAAAUAUGAAAAUGUAUCAAAAAGAAAAA'
p240
aF0.9949622166246851
aa(lp241
S'Campfire'
p242
aS'AAAAGAUCGAUACCUAAUCUGAUGCUAUAAAUUAGUAGAUACUAUGUAAGAUCGUAGGUCACAGCAGCACACACGAAAGUAAUGGCGCAACACGGAACGAGCGAAAGCCGUUGAACAGUUGAAAAGGCAAUUCAAGUAAUUGUGAAUCCGAUACUCGGGCAGGGAUAGCAAAGGUUGUCGGUCGUUAGUACAAGGUGUCUAAAUAGGGUAUC'
p243
aF0.839622641509434
aa(lp244
S'Anemone'
p245
aS'AAAUGUUCAGAAAUGGAUACUCGAUAAUUCGGGCUUGAUAAAGAUCAAGGUAGGUAAUCCUACGUACUUCAAGGAGUACGGUGCAAAGGUACCCAUACGAAAGUGUGGCGUGUGAAAACACGCAAAGUCUAAUGACUUGGUUGCGAAAGUAACCGUGAUGAAAGUCACGGCUCAUAAUUGAGCCCUUGUAACGGCAAGUCCUGUUAAUGCGGGA'
p246
aF1.0
aa(lp247
S'Fractal 3'
p248
aS'AAAAAAGUCGUGCGUCAAACCGGGAAAAGUAGUGCAGUGGAAAAAUCUCAAAAUAAGUCAGAAGCCGAAAGCGCGAAAGUAGUGUCACAUGAAAACAAGAAGGUUAAUGUGACGAAAAA'
p249
aF0.8739495798319328
aa(lp250
S'Kyurem 5'
p251
aS'AAAAAUAGGUGGGGGGAGACCCAUGAAAGAACCGGUCAAACCCCAAAAGGGGAUCUUAAAAAAGGUCGUGAUGAUUCAAACCUGAAAAAAAAAAAAAAAAAAAA'
p252
aF0.9326923076923077
aa(lp253
S'Snowflake Necklace ( or v2.0 )'
p254
aS'AUGUGAUACAUUAGCAGCAAGGGCAAAAAGCAGCAAAAAGCACCAAAAAGGACGAAAAACGAACAAAAAGUACCUGCAGAGAAAAAUGCACGUAUUACAAAAAGGUUCAAAAAGGAGCAAAAAGCACCUAAAUGGGAUAAAAAAUAGUACCAUUCAAAAAGUAGCGUAGAGGAAAAACCUGCAAAAAGCUCCAAAAAGGACGAAAAACCAUCAAAAAGACUUAUCAGGAGAAAAUCCAGAUUCAGCAAAAACUACUAAAAAAGAGAAAAAAUCAGAAAAAAGCACCAAAAAGGAGACUCAGACAAAAAGUCAGACAGGCCAAAAAGAAGCAAAAAGCACGUAAAUCGGCCAAAAAGGAGCUAAACGUACUGUCAGCUAGUGUAUUACAU'
p255
aF0.8894601542416453
aa(lp256
S'Methaqualone C16H14N2O Structural Representation'
p257
aS'AAAAAAAGAUAAAAUCAGACAGACGAAAGUCAGACGCACAAAAGUGAGACAGUGGAAACACGGACACACAAAAGUGACACAAAAAAAGUGAGUCGGUCAGUCAGUCAAAAACAGAUCAGAUCAAAGAACACAAAGCAAAGCAAAAAAAAGUGAGAGACAAAAAAUUCGAUAAAAAUCUCGAAAGGGUCUCGUCAAAGAGCAGAACCAGAGAGAGGCACAAUCGGGAAAAAGACAAAAGUUAGCAACACAAAACUGCGAUGUACGAAAGUAAGUGAGUCAAAAGGACAUCAGACUACAAAAGACCAGAAAAUUCUUCCAAAAGUUGUUAAUCAGCUCAAAUAUAGUAUCAAAAAAA'
p258
aF0.8845070422535212
aa(lp259
S"Cat's Toy 2"
p260
aS'AAAAGGGUAUUAAAAAGUAAGAAAAAAAAAAAAAAAAAAUGAGGCGAAGUAAAGGUAAGAGAAAAAGAAAAAAAAGCAAAAAAGGUAAUGUUCGAAA'
p261
aF0.9587628865979382
aa(lp262
S'Zigzag Semicircle'
p263
aS'AAAAUUCUCUGAACAAAAGUACAACGAGGGGAAA'
p264
aF0.9411764705882353
aa(lp265
S'Short String 4'
p266
aS'AAAAAAGAAUCAAGCAAUUAGGGAGAGCAAAGGCCUAAAAGAACUCAUUCAAAAGAUGGACUAAACAGGAAAGGUCGAAAAAAAAAAAAAAAAAAAA'
p267
aF0.9381443298969072
aa(lp268
S'Gladius'
p269
aS'GGAAACAAGAGAAUGAAUAAGUGAAGAAAGACGGACAAAGGUCAAAAGACCGGAUGUAAGAUACAGCACACCUUCUGGUCUACUCUGUAUUCAGUGUGGAGGUUGCGUUGACAUCGAGAUGAAACAUCAGAUAGCAACCAAAUCAGCACACGAAAUACAGUUGCGAUCCUGUGGUGGAGAGUGAGAGGCAUCAGUCAAAGAUAGUUAUAGCCGCUGCAAGAUCACAGGAUCUGAAGGGGUUGUCAUAUUACGAGCACGAGGCAGAGGGGGUGCGAAAGCAUCCAAUUCGACCUCAGGCUCAGAAUAUAGUAACUCCGUACGAUCAGAAGAUCGCAAAGCAAGAGUAACAUUUCAAAGGAAGAAAGUCAGUCGAUUAAAUGGAAAAAAAACGGAAUAAAAG'
p270
aF0.8925
aa(lp271
S'Thunderbolt'
p272
aS'GCAAGGAAUAAAAAAAAAGGUAAGCGGAGGGUGAAAAGAGAUGUGCGAAAAAAAAGCCGAAAAUGAUCAAAAAGAUCUAAAAAGGAAGCCUGUUAAAAAAAGAACAAAAAAGAGCAACCGGUUAAAAAGAAAACAGCUAAAAAAUACAAAAAUAGUCAAAAAUAGAAGAAAAAAGUGAGAUCGAUGAAAAAAAUAUUGGCAAAGUAGAGAGAAAAAACGAAGAUCAAAAAAAAUAUCAGGGGGAUACCAAAGGUAUUAGAGCGGAAAAAAAAAAAGAAUGGAAAAAAAAAUAUUCAAAAGUGAUGCAAAAAGGAAAAAAACAAAAAGCAUCGAAAUGAAAACGCGCGUCAAAAAAAAUAGCAAACAUAAAAAGAAAAAAACACUUUGAAGCA'
p273
aF0.9438775510204082
aa(lp274
S'Mutated chicken feet'
p275
aS'GAAAAAGUCAGUACCAAAACAGUAAAACAAAAAGAGGGAACAAGAAGAAGGUAAAAAAAAAGUGAGUAACAGCGAAGUGUCAAAGGAAGGUAAAAAAAAA'
p276
aF0.8
aa(lp277
S'Chicken Tracks'
p278
aS'AAAAAAAAGGGUUGCCAUCAAAAGAUGAAGAUCAAAAGAUCAAGAUCAAAAGAUCGCAACCCAAGGACAUCAAAGAUGAAGAGCAAAGUUCAAUAGCAAAGCUAUCCAAAAAAAAA'
p279
aF1.0
aa(lp280
S'Looking Back Again'
p281
aS'GACAAGAAGAUCUAAAAGGAUGCGAAGCAUCCUGAUCAAGACCACAAGACAAAGUCGUAAAAAACAAAGAUCAAAAGAUUAAAAGUUUUAAGUCAAUUCAAGGACGAAAAAAAGAUCCAAAGGGAUCGAAAAAUUUAAGACGAAACAACUUGUCCACAGAAACAGAGGAGGUCCCAAGAGUAAGAGGAUGAUUAUCUAAUUAUAUGCUGAUUCAGCAGACAAAAAAUCGAAGAACCCAAAGGAUCGUCCGGAUAAAGAUCGAAAAAGGCAUGGAAAAAAAAGCUCAAAAAGAGCCCAUAAAGCGAGAUCUAUCAAAAAAGCCGAUACAAAGGUAUCGAAGUCCCUAUGGUGAUGUAAAGUAUCUAAACGCAAAGGAUCUUAUCUAAGUC'
p282
aF0.8457583547557841
aa(lp283
S'Multilooping 6'
p284
aS'AUGUUACGGUGGUUGAAAGGGGCUGCCAUGAAAGUGUAAAUGAGUUGCGUAUUCUAGCCCGAUAAAGGACGGUACGUAACUA'
p285
aF0.9146341463414634
aa(lp286
S'Cesspool'
p287
aS'GAAAAACAAAACAAAGCAGUGGAUGUAAAACGAACAAAGGGCUAAUACUAAAAGAGGACGUUAAAAAUGGAGAGUGAAAGUAAUAAAAAGAGUUAGAAAACAACGCGGUACAUACUAAGUGAACGAAGGGUGAAGUGUAAAAAAUCAAAGGAAAAUAGUAGAGUCAAAAUAUAAACAGCCGGUAAGUAAUCAAUACGGGAGAGGAAAAUUUAGCAAAGGGUAUAGAGGAAAGUAUUGAGGUUAAUAAAGAGAACGAAAUGAAAGGGGAAGCGGUAAUUCAUGAACGCCUGAGGGUUAAAAACAAUAGUGGGUGAAAAGAAAAGAAGCACGGUAAAAAAGGGGAGACAAAAGAAAGGGC'
p288
aF0.7374301675977654
aa(lp289
S'Hoglafractal'
p290
aS'AAGAGCAAGAUAGAAAAGAUACUAAAAUGUAUCCUAUCCAUCAAAGUACAAAAAGUACGAUCAACAAGACGAAAGUAGUCAGGCAAAGAUCCAACAUCAAAAAAGAUCGGUCCACAAGUCAAAAAGACGUGUUCUGAAAAUGGUAAUACAAAAGACAAGACAAAAAAGUCGGCCUAGUAAAAGACGGCACAAAAGUGCGAUUCAAAAAGCCGGGAAAAACCGCCUCAAAAAGGACAAAAAGCAGGAUGCAAAAAAGACAAAAGAGUCGAAAAAAUCAAACCGAUGCAAGGCAUCGGAAAAAAAGCAUCCAAAAAAGGAUCAAAAAGUAUGAAAGUAAAAGCAACAAAGAGCAGGUCAAAAGGAAAGCCGCAAAAGCGUAUGCAAAGCGUACAGACCGCGC'
p291
aF0.92
aa(lp292
S'Bullseye'
p293
aS'AAACAUUCUCGAAGAGGAGGAACAAAGAUCAACAUGUAUUAUGGCGAAAAAAAUAACGAGGAAGUUGCAAGCUUAAGUAUCGAGAGCGAACUUCGUGUAAAAAAGGGGGAACAAAGAUAAGUGACAAGGUCGAAAAACAAAGUUCUCUAAAAAAAAGGAUAUUUACAGUAAAGAGUAAAGUUAAAGAUUCAAUAUUGUCAAA'
p294
aF0.7673267326732673
aa(lp295
S'Shooting Star'
p296
aS'GGCUGGAUUCAGGAUGUAAAUAGGACCAGGCAGGCAGGGAAACACGCACGUCAGAGGACGGAGCAUUCUAAAUAUGAUACAAUAAGAGAGGGACAUGCAUAUCACGAAAAUACGGUAGGCGGAGCUACCUGAGAAGGCGGGGGGAAACAAAGUUUAUCAUAAGAAGCUUAAACAGAUUAUAUUUGUAAAAAGGAAAGAUAAGGAUAGGUAAGAGGAAUUAGAUUUAAAGAGUCUAUGGUAGAAAGCACGCCUCGCGGUUCGAAGAAUCACACAGAGAAAAUUUGGUUCUCUUCAGAAAGAGAUCAAAGGUAGGGACAUGUGAGAAAAAAGGUAUAAGUUACAAAAACGGUGCAAGGACCGGCCA'
p297
aF0.7554945054945055
aa(lp298
S'Teslagon'
p299
aS'AAAAAAGGAAAAAAAUUAUGAAAAGAAGCGAGAAAAAAAAAAAAAAAGUAAAGAGUGAGCAAAAAAAAAAAAAAAGCAGAAAAAAAGCCGGGCAAAAAGACAAAAAAAAAAAAAAAGGAAAAAAACCGGGAAAAAAAGCAAUAAAAAAAAAAAAAAAGUGAAGAUUAAGCAAAAAAAAAAAAAAAACCACAAAAAAAGCAGGAAAAAAAGCAAAAAAAAAAAAAAAGCAAAAAAAUCAAUAAAAAAAGCUCCAAAAAAAAAAAAAAAGGUAAGAGUGUGAAAAAAAAAAAAAAAAGUAGCAAAAAAAAUAGGAAAAAAGGCAAAAAAAAAAAAGCAAAAAAAAAAAAAAAGAGGGAAAAAAGCCAGGAAAAAAACUAAAAAA'
p300
aF0.8900523560209425
aa.