(lp0
(lp1
S'Simple Hairpin'
p2
aS'GAUACAAAAAAGUAUC'
p3
aF1.0
aa(lp4
S'Arabidopsis Thaliana 6 RNA - Difficulty Level 0'
p5
aS'GAUAUACGAACGACAAAAAAAAAAAGUCCUAAAUACGACUAUAUAUAUAUAUAUAUCAAAGAGACAAAAAAGUUUCAGAUAUGCUAUAUAUAUAUAGCAGUAUUUAGAAGUAUAUC'
p6
aF1.0
aa(lp7
S'Prion Pseudoknot - Difficulty Level 0'
p8
aS'GAUAUCAGAUCAAAAGAUCGAUAAUCAAAAAAAAAA'
p9
aF1.0
aa(lp10
S'Human Integrated Adenovirus - Difficulty Level 0'
p11
aS'GCUAUACUACAGAUAUAUCUCUAAAAAAAAAUCUUCCGAAUCGGCAACCGACAUGUGAAAACGCUUAUAUAUGGUAAAAAAUUUAUAUAUAGAAAUGCGCGCAUCAAAGUCCCGUAACAUUCGAAAUAUAUCAAAAAAGGAUAUAGAAGUAAAAAAAAAAUGAGAUAGAUUUAAAAGUAGUAAAAUAGCAAA'
p12
aF1.0
aa(lp13
S'The Gammaretrovirus Signal - Difficulty Level 0'
p14
aS'AAGUGCACUUUACAAAAGUAGAGGACUCAAAAAAGAUCAAGACAGAAGCGAUCAAAAGAUCGGAAAUUUCGUCGAUCAAGAUAUAUCGAAAGAUAUAUCAA'
p15
aF1.0
aa(lp16
S'Saccharomyces Cerevisiae - Difficulty Level 0'
p17
aS'GAUACUGGUUGAAAAAAAGCAACAGGGAAAAAAAAAAAAAACCGAACAGUACGAAAAAAGUAUUCAGUAUCAAAGGUCGUAGAACGGCUAAAAAAUGCUGCUCUAAAAAAAAAAAUGAGGGACGGUGCGAAAAAAGCAUCCUAUGGCAAAACAUAGAUAAUAUCUAAAAAAUGAUAGUACUGUAAAAAUUAGUAUGAACUAAGCAAAAAAAGCUUAAUCUAUGGAAGUAUUUACAAUGUGUAAAAAAUCACACUAUGCAAAAAAAGCAUGGGCCCGACACUAAAAAUGUGUUGUAAAUAAAAGGAUGUACAAGGUCUAAAAAAUGACUCGAUUCAAAAAAGGAAUUGACAAGACUGAAAAAAGCAGUCGUACAUCAAAA'
p18
aF1.0
aa(lp19
S'Fractal 2'
p20
aS'AAAAAGAUAUAUUAAACAUAUAUAUGAAGAACAAAAAAAAAAGUUCGACAGAAAAAAAAAAAUCUGGAGAUCAAAAAAAAAAGAUCAACAUAUAUAUGAAGGAUAUAGAUGAAGAACAAAAAAAAAAGUUCGAGAACAAAAAAAAAAGUUCGAGAUCAAAAAAAAAAGAUCAACAUUUAUAUCAAUGAUAUAUAUCAAGAACAAAAAAAAAAGUUCGAGAACAAAAAAAAAAGUUCGAGAUCAAAAAAAAAGGAUCAAGAUAUAUAUCUAAAAUAUAUCAAAAA'
p21
aF1.0
aa(lp22
S'G-C Placement'
p23
aS'GAUCAAAGAUCA'
p24
aF1.0
aa(lp25
S'The Sun'
p26
aS'GGCACAUGUACGAAGUACAAAUGGUAAAAGACACAUGCGGAAAUCGCAAAUGGUCAAUGACAGGUAUACUAUGCUUAAACCGCCUAAAUGAUCGCUUGAAGCUAUAAUGACAUAAUGCCAUAGCCGUGAAGUAAAAAUGGUAUAAGACAGUUUGGCAAGGCCAGAAGCGUUAAUUUCAAAUGUACUCUGUAUAAAUUGAAAAAGUCAGACGUGCAAGGCGUAAAGCGUCAAAGGCAGCUCUACGAAGUAUAAAUCGUC'
p27
aF0.7713178294573644
aa(lp28
S'Frog Foot'
p29
aS'AAAAAAAAAAGACCAAAGGGUCGGUCGAAAGACCCCGCUAUGCGG'
p30
aF1.0
aa(lp31
S'InfoRNA test 16'
p32
aS'GAGAUCUCUGAUAACUAAUGUUAUGCGCGUGAUCUC'
p33
aF1.0
aa(lp34
S'Mat - Martian 2'
p35
aS'GACGUAAUCGUCAAAGAUAUACAAGAUAUACAAAAAAGGUAUAUCGUAUAUCAAAGAUAUAUCAAAAAAGAUAUACAGAUUUACAAAAAAGGUAAAUCGUAUAUCAAAGAUAUAUAUAUUUCAAAAAAGGAGAUAUAAUAUAUCAAAAAAGAUAUAUCGAUGAUAUGUGUAUAUCGAAAAAAGAUAUAUAAACAUAUCUAAGUUCAAAGGAAU'
p36
aF1.0
aa(lp37
S'square'
p38
aS'GAUAUACCUAUACCUAUAUCCUAUACAAAGUAUAGAAAAGAUAUAGAAAAGUAUAGAAAAGUAUAUC'
p39
aF1.0
aa(lp40
S'Six legd turtle 2'
p41
aS'AAAAUCGAAUAGAAAGCGCAACGAAAACGAGCCCGAAAUCAAGAUAAAGGCAAACCAAAAGGCAGGAAAAGGCGAACGUAAAAAAAAAAAAAAAAAAA'
p42
aF0.9591836734693877
aa(lp43
S'Small and Easy 6'
p44
aS'GCCCCGAAAAGGAAGCUAAAAAAAUGCGGC'
p45
aF1.0
aa(lp46
S'Fractile'
p47
aS'AAAAAAAAAAAUACGAAAGUUAAGCAAAGCAAAAGCAAGCAAAGCAAAAGCAAAGCAAGCGAAAGUAAAGCAACCAAAAGGAAAAAAAAAAAAAAAAAAAAAAAA'
p48
aF1.0
aa(lp49
S'Six legd Turtle'
p50
aS'AAAGGGGUAAAGUAAAAGAAAAAAAUAAUUAAAAAUGGAAACAAAAUGGAAUGCCGAAGGAGAAAUCAAAAGCGAAAGUAAACUCAAAAAAAAAAAAAAAAAAAA'
p51
aF0.9428571428571428
aa(lp52
S'snoRNA SNORD64'
p53
aS'GAUAUCAAAAAGACAAAAGACAAAGAUACAAAAAAAAAAAAAGUAUCGAAAGUCAAGUCAAGAUAUC'
p54
aF1.0
aa(lp55
S'Chalk Outline'
p56
aS'AAAAACCUGGGCAGUAAAAACAUGCAGACACAGAAAGCUGGUCGGAUAAGGAAACUAUAUCAGCUCUGAAAAGACGUCAGGGAAAAAAAAAAAAAAAAAAAAAA'
p57
aF1.0
aa(lp58
S'InfoRNA bulge test 9'
p59
aS'GAUAUACAGAGAGAGAUAUACAAAAGUAUAUCCCCGUAUAUC'
p60
aF1.0
aa(lp61
S'Tilted Russian Cross'
p62
aS'AAAAACUGGCUGCGAAAGCAGGACGAGGGCUAAUGUCCGAUACGAAAGUAUUAGUUCGAAAGAGCCGUCGCCCUAAUGGGCCCAGGAAAAAAAAAAAAAAAAAAA'
p63
aF1.0
aa(lp64
S'This is ACTUALLY Small And Easy 6'
p65
aS'GAAAAAAAAAAAAAAAAAAAAAAAAAAAAAAAAAAAAAAAAAAAAAAAAAAAAAAAAAAAAAAAAAAAAAAAAAAAAAAAAAAAAAAAAAAAAAAAAAAAAAAAAAAAAAAAAAAAAAAAAAAAAAAAAAAAAAAAAAAAAAAAAAAAAAAAAAAAAAAAAAAAAAAAAAAAAAAAAAAAAAAAAAAAAAAAAAAAAAAAAAAAAAAAAAAAAAAAAAAAAAAAAAAAAAAAAAAAAAAAAAAAAAAAAAAAAAAAAAAAAAAAAAAAAAAAAAAAAAAAAAAAAAAAAAAAAAAAAAAAAAAAAAAAAAAAAAAAAAAAAAAAAAAAAAAAAAAAAAAAAAAAAAAAAAAAAAAAAAAAAAAAAAAAAAAAAAAAAAAAAAAAAAAAAAAAAAAAAAAA'
p66
aF1.0
aa(lp67
S'Shortie 4'
p68
aS'GCAAAGGCAGCGAAAGC'
p69
aF1.0
aa(lp70
S'Shape Test'
p71
aS'AAAAAGUGAGCAAGAUACAAAAAAAAGUAUCAAGACAGACAGAUACAAAAAGUGUCAGCACAAAAGUGCGGUCGUCAAGCUCUCAAAAAAAAAAAAAAAAAAAA'
p72
aF1.0
aa(lp73
S'The Minitsry'
p74
aS'GGUAAAAAGGCGAAAACAUAAAAAGAUAAAAGUCCUAAAAAAUGGAAAUCGGUGAGCCGGCC'
p75
aF1.0
aa(lp76
S'stickshift'
p77
aS'AAGAUAUCCCAAAAAGGAGAUAUCAA'
p78
aF1.0
aa(lp79
S'U'
p80
aS'AAAAAGAUACAGAGAGCAGAGAUAUAUACAAAAGUAUAUAUCCGCCCGUAUCAAAAA'
p81
aF1.0
aa(lp82
S'Still Life (Sunflower In A Vase)'
p83
aS'AACGCUCAGGUUCCAAAAAGGAAUAACAUACAAAGUAUGACGAGUCAAAAAGAUUCUAGGUAGAAACUACCAAGAUAGAAAAACUAUCGAGAAACAAAAAGUUUCAGCGAUUUAUUUAUAUAUGUAUAUGAUACAAAAAAGUAUCAGAUACAAAAAAAAAAAAACUACAAAAAAAAAAAAAAAAAAAAAAAAAAAAAAAAAAAAAAAAAGUAGAAAAAAAAAAAAAGUAUCGAUCCAAAGGGAUCAAUAUGCAUAUAUAAAUAGAUUGCAAGUUACAAAAAGUAGCAAUUUACAAAAAGUAAAAAGACCUAAAAAAGGUCAAGGCACGAAAAGUGUCGAGAUACAAAAGUAUCAAGAGAUAAAAAAUUUCGGAGCUAA'
p84
aF1.0
aa(lp85
S'Quasispecies 2-2 Loop Challenge'
p86
aS'AAAAAUCAGGAUUGAAUACAAAAGUAUGAGAUCAGAUCGACAAGGGAGAUCGGGUCAGGACCUCAAAAAGAGCACAGGACUCUGAAAAAAAAAAAAAAAAAAAAA'
p87
aF1.0
aa(lp88
S'Corner bulge training'
p89
aS'AGAUAUCCUAUCAAAGAUAGAAAAGAUAUCA'
p90
aF1.0
aa(lp91
S'Spiral'
p92
aS'AAAAAGAUCAGAUAUCAGACAGAUACAGAUCAGAUCAGCAGCAGCAGCAGCAGCAAAAAGCGCGCGCGCGCGAUCGAUCGUAUCGUCGAUAUCGAUCAAAAA'
p93
aF1.0
aa(lp94
S'InfoRNA bulge test'
p95
aS'AAAAAAAAAAAAAAAAAAAAAAAAAAAAAGACAGAAAAAGACCAAAUGCACAAAGACUGACUACAGCUCGAAAAGAUGCAGUAAGAGAGAUCGAAGUAGCUAAAAGGAUCGAAAAAUGAUCG'
p96
aF1.0
aa(lp97
S'Worm 1'
p98
aS'AAAAAAAGAGGGGCAGCGAAUAUCUAAAGUUAGACUCAGUCACGC'
p99
aF0.9111111111111111
aa(lp100
S'just down to 1 bulge'
p101
aS'AAAAAGAACAGAUACAAAAGUAUUAGACAAAAGUCAGUAUCAAAAGAUCAGACAAAAGUCACUCAAAAGAGAGAUCAAAAAAAAAAAAAAAAAAAA'
p102
aF1.0
aa(lp103
S'Iron Cross'
p104
aS'AGACAGACAAACGCAAUCAAAGAUAGACGAAAGUCAGCGAAACUCACUCAAAAGAGAGCCAAAGGUAGAGAAACCCAGUCAAAAGACGCUAAAAUAGAGGGAAAGUCACUCAAAGAGAGUCGA'
p105
aF1.0
aa(lp106
S'loops and stems'
p107
aS'AAAAAGUUAUGCAAAGAUCAAAUAUCUAAGGUGAAAAAAAAAGAUACAAAAAAAAAAAAGUAUCAAGCAUCGAAAGACCAAAAAAAAAAGGUCGAUGAUAAAGGACAAAAAAAAGUCAAAGAUCAGGCAAAAAAGCAAAGUAUAGCAAAAA'
p108
aF1.0
aa(lp109
S'Water Strider'
p110
aS'AAAAAGCGGGUAGCUAGAUUGAAAGUAAGACAAAAGUCGUGCUCGGAAAUUUAAAGGAGUUGGAAACAAAUUAGCUUCAAGUGAAAAAAAAAAAAAAAAAAAA'
p111
aF0.941747572815534
aa(lp112
S'The Turtle(s) Move(s)'
p113
aS'AAUCCAAAAGCUAACUAAUAGGUCAAAAAAAAAGACCUAUUGAAAAUAUCAAAAGGAUGGCAACGUCAAAAGACCGGUAUACUAAAAAUGAGAAAAAAGAGAAACCAAAAGGGAAACGACAAAAGUCAAAAGACAUAAAAAAAGUCUCUCGAAACCUAAAAGGGAAAAACUGUACAAAAGACAAAAAAGGUAAAUACGAAAAAAAGUGGAACAGUUAAAAAAGACUGGAGGAUGAAAAAUAUCAAGUAUAGAAAAAAAAAGCGAAAGCGCAAUAUGAAAACAAAAUAGAGAAGAAAAAAAAAGUUUCGAAAAAGUU'
p114
aF0.9873417721518988
aa(lp115
S'Adenine'
p116
aS'CAUACACAUAUCAGAUAUCAGAGAUCAGAUCUCGGAUAGCAAAAAAUAUCAAAAAAGAUAUUGGCUAUCGGAUGCAAAGAUAUACAAGGUAUAUCGCGUCAGAGAUCAGAUACAUAUAUCAAAGAUAUAUAAAGUAUUAGAUUUCAAAAGAUAUCAAAGGGUAUGAAAGGUAUG'
p117
aF1.0
aa(lp118
S'Tripod5'
p119
aS'AUGGCGUACGAAAAACGUAUCGCAAAAAGCGACGCCUA'
p120
aF1.0
aa(lp121
S'Shortie 6'
p122
aS'UAAAAGAGAACUAAUGUGAGUAAUCUAAUAAAAGU'
p123
aF0.8857142857142857
aa(lp124
S'Runner'
p125
aS'AAAAAGAGUGGAUUAAAAAGUCCUAUGUUUGAAUAAAAGAUUAUGCACCGACGGUAAAGUACAGGUGAAGUGCAAAGCAUUUCAAAGGCAAAAAAUAAUUUAGGCCAAUUCGAAAA'
p126
aF0.9482758620689655
aa(lp127
S'Recoil'
p128
aS'AAAAACUAUCAAGCAAGCAAGACAAGACAAGCAAGCAAAGCAGCAGUCAGUCAGCAGCAGAUAGAAAAAAAAAAAAAAAAAAAAA'
p129
aF1.0
aa(lp130
S'[CloudBeta] An Arm and a Leg 1.0'
p131
aS'AAAAGGUCAGUGACAAAAGUACACGCUUGCAAAGGCAGCGGACAAAAAAAAAAAAAAAAAAAA'
p132
aF1.0
aa(lp133
S'[CloudBeta] 5 Adjacent Stack Multi-Branch Loop'
p134
aS'GCUACGGGGAAAGCCCCGCUAUUAAUAUAGCGUUGCGAAAGCAGCGAUCGAAAGAUCGUAGCA'
p135
aF1.0
aa(lp136
S'Triple Y'
p137
aS'AAAAAUAACGGUUCUCCGAAAGGAGUUUGGAAAAAGGGAUUGACGCAGCAAGCACAGUAUCGAAAGAUAUGACGUUGAAAAAAAAAAAAAAAAAAAA'
p138
aF0.9175257731958762
aa(lp139
S'Misfolded Aptamer'
p140
aS'GAUCUAAAAAGGGACAAAGUCAGCAAAAGCAAAAAAAAACCAAAAUGAUC'
p141
aF1.0
aa(lp142
S'Flower power'
p143
aS'AAAAGCUAGGAUCGAAGAUCUGGUCUAUGCAGUAUUAGAAUGGAAUAUUAAUAUCUAUGGCCGAUCUGCGGAAAUCCAUUAGAAAAAAAAAAAAAAAAAAAA'
p144
aF0.9019607843137255
aa(lp145
S'Kudzu'
p146
aS'AAAAUUACUGGAGGUACUGCGCUAAGGAAAUUUGCUUCGGGUCAGGAACGAGAUCGAGCCAAGGGCAAAGGGAUGACUCGAUAAAAAAAAAAAAAAAAAAA'
p147
aF0.9603960396039604
aa(lp148
S'"1,2,3and4bulges"'
p149
aS'AAAAGGAGUGGAGCGAAAGUGCAAAUUCAUAUGAAAGUGUGCAUUAAAAGUUCAGUGAAAGCAAAGCGCUCGAAAGGGGAAAAGCAAAAAAAAAAAAAAAAAAAA'
p150
aF0.9238095238095239
aa(lp151
S'medallion'
p152
aS'GAUAUGGGAAAUAUAAUUUUAACGUACAAAAGGCAGAGAGAAUUCAGACACUAAAAGGUGUCGGGAAAAAUCCACAAAUCAAAAGAUUUGAAACAAAAGCUAGAUAAAAGUCAGAUAUCAAAAGAUCUCGGGCAAAGGACAGAUACCAAAAGGUAUCAGACAAAAGUCAGCCUAAUGUUACAUGUGCAAAGGUAUCUGACAAAGUUCUAGUAUCAAAGGAUAUCAAUCAAAAGAUAGCCAAAAGGCGGUUAACAAAAGUUAACGGUUAAAGAACAGUAAUCUAAUGCUUUCAGACAAAAGUCAGACAAAAGUCAUUUUCCAAAAGAGGCAUCAUAUC'
p153
aF0.827893175074184
aa(lp154
S'[RNA] Repetitious Sequences 8/10'
p155
aS'AGCAAAAAAGCAAAAAAGCAAAAAAGCAAAAAAGCAAAAAAGCAAAAAAGCAAAAAAGCAAAAAAGCAAAAAAGCAAAAA'
p156
aF1.0
aa(lp157
S'Documenting repetitious behavior'
p158
aS'AAAAAAAUGAAAAAAAAAUCAAAAAAAAAUCAAAAAAAAACGUAAAAAAAAACAAAAAAAAAGUAAAAAAAAACAAAAAAAAAACCAAAAAAAAUCCAAAAAAAAAGCAAAAAAAAUAUGAAAAAAAAGCAAAAAAAAAAAUAAAAAAAUGCAAAAAAAAGUGAAAAAAAAAUCAAAAAAAAUUCAAAAAAAAAACAAAAAAAAAGGAAAAAAAAAGAUAAAAAAAAGAAAAAAAAAUUAAAAAAAAAGGAAAAAAAACUUAAAAAAAAAAGCAAAAAAAAAGAUAAAAAAAAGUCAAAAAAAGGCUAAAAAAAAGGAAAAAAAAAUGAAAAAAAAAGCAAAAAAAAAGGCAAAAAAAUUCGAAAAAAAAGAAAAAAAAAAGAAAAAAAAAUCAAAAAAA'
p159
aF0.94
aa(lp160
S'7 multiloop'
p161
aS'AGCCCGUCCAAUGGGACAAGGCAAAAGUGCCUGCUACGAAAGUAGCGGAAGGGAACGUGCUAUAGGAAACUAUAGGGGCGAAAGUUACUGCU'
p162
aF0.9782608695652174
aa(lp163
S'Kyurem 7'
p164
aS'AAAAGCCAUCUAGACGAAAGUCGACAAAAUAAGAGGCUAAAUGCCCGACUUUGAAAAAGAGAAAGUCAUUGGUCUAGCGUGGAAAAAAAAAAAAAAAAAAAA'
p165
aF0.9607843137254902
aa(lp166
S'JF1'
p167
aS'GAAUAGUCUAUGGAUACAGGAUGCAAAAGAAAUCAAGAUACAAAGAUACUUGAUAUGAGAGAUAUACAUAUCAAAAGAUAUGUAUAUUUCAUGACAAAGGUCUGAUAUUUACAAAAGUAGAUAUCAAGAUACUAAUGUAUCACAUAUCUGUAUCAGUAUCAGAUUUCAAAGAUAUAUCUAAAUGAUAAUAUCAAGAGAUGUAUAUAUAUAUAUAUAUCAAAAGAUAUAUAUAUAUGUUAUACAUCUCGAACCGACGAAAAAGUCGGCUAUAUAUAAAAAAUUAUAUAUAGAGAGAUGAAAACAUCGGGCAUCAGGUAUCAGAUCAGACAGACAAAAGUCGUCGAUCACUAUGACUCUAAUGAGUUAAUAGGAUGGAACUCGUUCAAA'
p168
aF1.0
aa(lp169
S'multilooping fun'
p170
aS'GGGGGAUUAGAAACUUGAAAAUUGACAUAAAACAGC'
p171
aF0.8333333333333334
aa(lp172
S'Multiloop...'
p173
aS'GAGCAGAAGAGUCAAAAGACAGGUUAAUACCAGACUAAUGUCAGGCAAAAGCCAGCCAAAGGGCGGAGAAAACUCACUUCAGAUACGAAAAAGUAUCCACGAAAGUGGCUC'
p174
aF1.0
aa(lp175
S'hard Y'
p176
aS'AAAAACGUGGCGUAUUUUUCAAAGGAAAGAUAAUCGAUUUAUAUUUAAUGAUAUAAGUCCACGGAAAA'
p177
aF0.9705882352941176
aa(lp178
S'Mat - Elements & Sections'
p179
aS'AAAAUCGCCGGAAAGUGUUGACGUUAAUACAGGCGACCGCGGAAAACUGACCGCGCCGGUGUGGAAAAGGUGACUCAUGCAGGCGUAAAAAAAAAAAAAAAAAAA'
p180
aF0.9619047619047619
aa(lp181
S'Chicken feet'
p182
aS'AAAAAUCAGCAUCUAUCAAUCAAAGAGAUUCGAAGUCGUUCGAAACCAGGUAUUCAAUACGCAAAAA'
p183
aF0.8805970149253731
aa(lp184
S'Bug 18'
p185
aS'AACCGUGUUAGCGAUAAAACUUAAAAUCGUGUGUGUCCAAGAAGGGUAAAUAG'
p186
aF0.8490566037735849
aa(lp187
S'Fractal star x5'
p188
aS'AAAAAGUUACAUGAAGCGGAAAGUCGUAAUCGCACAAGUGAGGCAUCAAAGGAUGAACAUGUAUUUAUGAACAUGUAGCAAAAAGUUAUAUUGGUAGCGAAAGCUAAGUAUCGAAGGAUAAAGUUGAAAGCAGCAAGAUCAAAGGAUUAAGAUAUAAUGAAAAGUGGUGUUAAGUCCAAAGGGACAGUAUCAAAAGAUGAACAUAUAAUUAUGAGGCAUAAAAGUGCACAAUAUUACAAAAACUUAUGAAAACCUCAAAAGAGGGAGCUCAAAAGAGCAGCUCCGAAAGGGGAGGACCAAAAGGUUAAUUUAUAGGAAAAAGGGCUAAGAUUUUCAAAGGAGAUAUAUCGAAAGAUAGAUAUGGAAACAUGAAGCUUUAAUGAGCGACUUAGUUCAAAAA'
p189
aF1.0
aa(lp190
S'Crop circle 2'
p191
aS'GAAAUGAUAAGACAAAAUGCAAAAAAAAAGGAAAAAAAAAAAAAAAAAAAAAAAAAAAAAACCAAAAAAAAAAAAAAAAUUAAAAAAAGGAAAAAAAUUUAAAAUCAAAA'
p192
aF0.9636363636363636
aa(lp193
S'Branching Loop'
p194
aS'UAAGGAGAUAACAAAGAGGAAAGGUACAAUGCCUAAAAAA'
p195
aF0.95
aa(lp196
S'Bug 38'
p197
aS'AUCAGAAGCGAAUGGAAAGAGCGGUGAACACAAGGA'
p198
aF0.9444444444444444
aa(lp199
S'Simple Single Bond'
p200
aS'AAAAAAGAAAAAAAAUGUCGGAAAACGAUUAAAAAAAGCAAAAAAAAAAAAAAAAAAAAAA'
p201
aF1.0
aa(lp202
S'Taraxacum officinale'
p203
aS'GAUCAAAAGGAUCAGAUUAAAAGAAUCAGAGAAAAAUACUCACCAAUAAUGAUGAAGGGCAAAAGAACCAGGAGAAAACCACCUCAUAUAUACACGAUAUAUAUCCAAAGGAUAAUAUAUCAGAUACAAGAUAUAUAUCGAGAUAUACAAAGUAUAUCAGAUAUAUAUCGAUCAGAGAUCAAGGAUCUCGAUCGUAUUAAAGUGUGUAUAUGUGAUCGGAAACUGCCUUACAAAAGAUAAAGGUCGAAAGAACCGGUACGAAAGGAACAGUUUAAAAAAAAG'
p204
aF0.8936170212765957
aa(lp205
S'Headless Bug on Windshield'
p206
aS'AGAGGCAAAAGGACACAAUGCAGUUAAAAAAAAAAAAAAAAAAAAAAAAAGUCAGUUAAGUGAUCAAAGCAACAACCAAGGUAAGUGAAAAAACGAAAGUGAAAAAAAAGGUCAAAAAAGGUAUACCUAAAAAAAGACAAGUACAUUCGUCGCACAAAAAAAAAAAAAAAGUCAAGAACAAUAUACGGUCAAAGAAAUGG'
p207
aF0.98
aa(lp208
S'Pokeball'
p209
aS'AAAGAUAUACAAAAGAUACCGAGGCAAUCAAACGAGCAAGAUGCCCAGGAAAUUAGGAUUCGGAAGAAGGAAAUCAGGAGCGUAUAUCAAAAAAAAUAUCAACAAAAGAAAGAAAAGCUUCUAACCAGUCCAUAUGUAAACGAAAGGAUUAAUUAGGAGGGGGAUGCUAUCAUCGUUGAUAAAA'
p210
aF0.967391304347826
aa(lp211
S'Variation of a crop circle'
p212
aS'AAAGCCAAAACGAAAAUAAAAAUAGUGAAAGUAAGGUAGACAAAAUAAAAAAAUCGAAAAAAUCAAAAAAAAAGGAAAAAAAAAAAAA'
p213
aF0.9545454545454546
aa(lp214
S'Loop next to a Multiloop'
p215
aS'AAUUGAGAUGAAAAAAUCGUCGUGCAAAAGUACGAGGAGAAAGAAAACUUUUUCAGUAAAAAGUAUCGAAGCA'
p216
aF0.9726027397260274
aa(lp217
S'Snowflake 4'
p218
aS'GAUCAAAAAUUCAAUCGUGAAAAGAUAUCAUGCUACUCAAGGCGAUAUCUAUCGAAUGAAAAGCGUAACGAUCGGUACUCGAAAGAGUAGCUACGAUGAUAAAAAGGGCUCCUACAAAGUAGAAGCUCAAAGAGCAAGUCUCAAAAGAUAUCUAACCAUUGAAAAAUUCUAUCCUACUAUGUAGAAGAUCGAUGAUCGAUAGCCAAAGGGGAUAGAGUUAUGCCAAAAGGAUAUUGGACAAAGUCUAAGAGCAAAGUUCAGUAUCCAAAUGUUAUAAAACUAGGUCUAAUGGCUCACGUUUAAAGAGCAAGGUCAAAGACUGUGAGCCAAAGCGCUUAGAAGAUAUAUAAAAAUGAUUGCAUCGAAGAUA'
p219
aF0.8864864864864865
aa(lp220
S'Mat - Cuboid'
p221
aS'GGACUAAAACCAAUGAAAAUCGAGAAAAACAAGCAUACAAACACAAGCAAACAAAAGGAGCGAGAAAAUAAAAGGAAAGAAGGAUGGAAAAGCAAUAAAGAAAGAAAGUAAAAACCAUCAGCCUUGCAGGGAAAAGCAACUACCCGUCCAACUAACCAAAAGCUGCCGAACCACCUUGAUUCGAAAAGAUGCAUUCAUUCCACGCAGCCAAAAAAGGACGCUAGGAUUGCUGGAUUCCGAUAUAUGGCCGUUAGGGAGCGGGCAGCGGGAGGGAGGAGGGCUCAGGUAAGGCGGGGAGCACAAUUAGUCAAUGAAGCUCUACCAGAUAACCACGAGCGCGUAACGUAGGCAAGUGCUAGAUACCUAAGUCAGAGGGGGAA'
p222
aF0.8631578947368421
aa(lp223
S'Misfolded Aptamer 6'
p224
aS'AAAAAGCGCAAAAAAGUUCUACGAAAGACAAAAAAAGGUCAAAAGGAAAUGAACAAAAAAAGCGAAAAAAAAAAA'
p225
aF1.0
aa(lp226
S'Snowflake 3'
p227
aS'GAACCGAAAGGAGGCCUCAAAACAGAAAAUCAAAUCAAGAUAAAAAUCCAAUGCAAAAGACUCAAAGAGCCUAAUGGUAUGCUCAAAAGAGAAGAUCGCUACAAGACAAAAGUCCAAAGAAAAAGCCUUAAAGAGCCAAAAGGAUUGCGCAAAAGAGAACGAGACUACAAGACAAAAGUCCUUACCAAAAGACCCAAAGGGCCAAAAGAAGAGCUCGAAAGAGAAGUAGACUGCAAGGCAAAAGCCCUAACCUAAUGCGUAAAAGACACUAAUGGAUAGCGCAAAAGCGAAGCAGACUACAAGACGAAAGUCCUUAGUAAAAGCCUCAAAGAGAAAAAAGGAGAACUCAAAAGAGAAGUCGGGAUUAAGGCAAAAGCUGCCACCAAAAGGUUC'
p228
aF0.821882951653944
aa(lp229
S'Hard Y and a bit more'
p230
aS'AAAAGCUAUCGCAGAUCCUAAUGUAUGGGGGUUACUUCAGUAUCCAAAGGUGAGUAUACAAAAAAGUAUGAGGGUGUAUUGAUAGAAAAAAAAAAAAAAAAAAAAA'
p231
aF0.9716981132075472
aa(lp232
S'Mat - Lot 2-2 B'
p233
aS'GAAGCCGUGUAGUUCCAAAAUCAUCUGCAAAAGUGAAAAGACGGGGAUCUAAAAGCAAGGACAAGCAAGCUACGUAACGCAAAAAUUUCGUCCGACAAAAGCAAAAGCGUGUGAAAUAUGAAGUGCGAGACCUUCGAAGCAAAAGAUCGAUUAAUAAGAAAAGAGAGUAAGAAAUUAAAAGCGAUCCUGAUUAAAAGAUACAUGAUGCAAGGAAGCGCCCCCAAAAGCUACGCCUCCCAAAAACAAAAGUGGUCGGAAGACGAAGCGGAUGCGCAAGUAACUAA'
p234
aF0.8309859154929577
aa(lp235
S'Shapes and Energy'
p236
aS'AAAAAAGUCAUCAGGGCGCAACGCACCAAAUAAAACGGUUGGAAAGCCUGAAGUAAAAAAAGCGAAAGCUUCUGGAUGUCAAAAAAAAAAAAAAAAAAAAA'
p237
aF0.9801980198019802
aa(lp238
S"Spiral of 5's"
p239
aS'UGAAGGAUACUAAGGUACAAAGAUACAAAAGAUACAAAUAUACAAAGAUACUAGAUACAAAGGAUACAAGGAUACUAAGAUACAAGAUACAAAGAUACAAAGAUACGAGAUGCAAGGAUGCAAGACACAGGAUACUAGUUACAAAGAAAGGAUGCGGAUAUAGGUUGAAAAGACCUGUCAAAUAUCAAAAAGUAUCAAAAAUUUUUAAAAAGUAGCAAAAUGUAUCAAAAAGUGUCAAAAAGUAUCAAAAAGCAUCAAAAAGUAUCGAAAAGUAUCAAAAAGUAUCGAAAAGUAUCAAAAUGUAUCAAAAAGUAUCAAAAAGUAUCGAAAUGUAUCAAAAAGUAUGAAAAAGUAUCAAAAAGUAUCAAAAAGUAUUAAAAUGUAUCAAAAAGAAAAA'
p240
aF0.9949622166246851
aa(lp241
S'Campfire'
p242
aS'AAAAGAUGACAAGUCAAGAUGAACAUUAAAAGAAUGGAUCUCAAAGAGAAUCAAUAGAUACGGGCAGCAUCCCGAAAAGAAACGGUGCGGUUCAAAAAAAGGGAAAUCUUUUAGACAGACAAAGGUACGAAUCAGGGAAUGUAUACUCCACAACGCAGAGAGAUAGAGCAAAAGCUCAUCUUCGAAGUAUUUAUUAGUAUAUGCGGAGCAUC'
p243
aF0.8584905660377359
aa(lp244
S'Anemone'
p245
aS'AAUUAAGCAAAAGUGCUUAUCAGCUAAUGCUGAGGGGUUAAAGAACCUCGAUGUGAAAAUAUCCGGAUUAAAGAAUCUGGGGAUGACAAUCCCGCCACUAUUGUGGCGGUGCCAAAGGGCACCACGUAUUAAUAUACGGGGCGUGAAAACGUCCGGGGGGAAACCCCCGAGAGCGAAAGUUUUCGAGUGGAAACGCUCGAGCUGGAAACAGCUC'
p246
aF1.0
aa(lp247
S'Fractal 3'
p248
aS'AAAAUGAUGAGUGAACAAAAGCGCAAAAGCACUCACACAAGAAAACUGCAAAGGCUGUGUGACUGCAAAAGUCGGAAACGUGUUAGUCUGAAAAGGCGAAAAGUUUGAAGCGCUUAAAA'
p249
aF0.8823529411764706
aa(lp250
S'Kyurem 5'
p251
aS'AAAAUCUUAGCAACCUUAUGGUUAGAAAAGAUUAUAAAAACGCGAAAAGCGUUAUGACUAAAAUGUUAGAUCAUGGGCAAUAAGUAAAAAAAAAAAAAAAAAAA'
p252
aF0.9423076923076923
aa(lp253
S'Snowflake Necklace ( or v2.0 )'
p254
aS'GAUAUAUAUAUAUACACCUAUAGCAAAAAUGAGCAAAAGGCAGCAAAAAGCAACAAAAAGAUGCAAAAAGCUGAAGGGCACAAAAAGUGAAGUCCAGCAAAAAGCAGAGAAAAGCGCGAAAAACGAGCAAAAAGCAUCAAAAGGCGGUAUUAGGCGAAAAGCCAGGUACAGUAAAAAGCACCAAAAAGGAGGAAAAAUCGCCAAAAAUGAGCAAAAAUCGGUAUCAGGCAAAAAGCCAGAUAGAGCAAAAACCUGCAAAAGCUUCCAAAAAGGACCAAAAAGGAGCAAAAAGUAUUGCCGCACAAAAAGUCAGAGACAGCAAAAGGCACCAAAAAGGAGCAAAAAGCGGCAAAAAGGACCAAAAGGGUGUCUCAGUAUAUAUAUAUAUC'
p255
aF0.9177377892030848
aa(lp256
S'Methaqualone C16H14N2O Structural Representation'
p257
aS'AAAAAAAGAUCGGGCCAGGCUGGCAAAAGUCAGACGCUCAAAAGAGACUCAGACAAAAGUCAGACGCACAAAAGAGAGACAAAAAAAGUCAGUCAGAGAAUCUGUCAGAAACAGGCCAGAUCAAAGCACUCAAAGCAAAACAAAAAAAAGAGGGGGAGACAAAAGUACUAAAAAUACCGCAAAAGCGCCCAGCAAAGAUCACACACAGACAGAGACGCAGAUCAUCAGAAGACAAAAGUCAGAAAGCGUAAGCGCGAUCAUAGGAAACUAAGUGAGUCAAAAGACACUCCAUCUACAAAGGUAGUUGAAAAACAGACAAAAGUUGCUACUCAGAUCAAAGAUCAGAUCAAAAAAA'
p258
aF0.8985915492957747
aa(lp259
S"Cat's Toy 2"
p260
aS'AAAGAAUGAGCUAAAAGUUUUAAAAAAAAAAAAAAAAAAGGUCCGAAAACUAAUGUGAAGUAAAACUGAAAAAAGCGAAAAAUGCGGCUUGUUAAAA'
p261
aF0.979381443298969
aa(lp262
S'Zigzag Semicircle'
p263
aS'AAAGUAUUUCACAUAAAAGGAUAUAAGCUAAAAA'
p264
aF0.9411764705882353
aa(lp265
S'Short String 4'
p266
aS'AAAAAUCGAGCAACCAAUAAACAGCAUGAAAACCUAAAGAAAGAUCAUCCAAAAGGUAGAAAUAAAAGGGAAGCAGUAAAAAAAAAAAAAAAAAAAA'
p267
aF0.9381443298969072
aa(lp268
S'Gladius'
p269
aS'UAAAGAAAAGAAUAAAGGAAAUGAAGUAAAACACACAAAGAGUAAAGACUCACAGAUUUGGGCGGAGGGGCUGAUAGUCCAAAAGAUAUAUGACAUAUCAGAUACAGACCAGUUCAGGAUCUAUGAUCAGAAACGGUCGAUAUCGAGUAUGUGAUAUAUCAGGGGGGCAGAAAGCCGACACGCAACCGUCUGAGUGAAAGCCAUAGACAUAAGACUCGAGAUUUGAAGAGCAGAAGUUAUUCAGUCAUUAGUUGUAAUCAUGAGACCGAUAUCAAAAGAUAUUUAGUCGAAUGGAAAUAAGGGAUGGAAGGAUAGCGCAGGCUCGCACGAUCGGUAGUCAAAAGUUUGAGUGCAAAAGUAUAAAGGCAGUUGAUCAACUGUAAAAAUUAAAUGACAAAAG'
p270
aF0.89
aa(lp271
S'Thunderbolt'
p272
aS'GGAGGAUAUAAAAAAAAUAGCAAGCGGAAAAAGAAAAUGGAUAUAUCGAAAAAAAGGCAAAAAAGAUCAAAAAGAUCAAAAAAACAAAUCUCACAAAAAAAGUGCAAAAAAUAACAAGCUGCCAAAAAAAAAAUAGAUCAAAAAGACAAAAGUUACCAGUAACAGGACGAAAAGGUCAGUUCAAAUAAAAAAAGUGUAGAAAAUCAGGACAAAAAAAGAAAGAACAAAAAAAAGACCGCGGGUUAUACGAAGUAUAUAGGAUCCAAAAAAAAAAAGGUUUAAAAAAAAAAAGUUUAAAAGUUAUAGAAAAAGGAAAAAAACAAAAGUUGUAGAAAAACGAAGAUAUAUCAAAAAAAACAGCGAGCAAAAAAAGAAAAAAACAGUAUCAAUCA'
p273
aF0.9438775510204082
aa(lp274
S'Mutated chicken feet'
p275
aS'AAAAAAAGAAGCAGUAAAGAGGGAAAACAAAGCUCAAGAUUGGGAAACCGUCCAAGAUAAGACCAGCGGCAUCAAAGGGUUAAAAGAAAUCCCGAAAAAA'
p276
aF0.86
aa(lp277
S'Chicken Tracks'
p278
aS'AAAAAAAUUAUAAAGCGUUAAAGGACGAACAACGAAAGUUGAAGCCCGAAAGGGCCUUUAUAUAGAGCUCCAAAGGAGAAGAUCGAAGAUCAAGGUGGAACGCCCUCAAAAAAAAA'
p279
aF1.0
aa(lp280
S'Looking Back Again'
p281
aS'GGCAAUACUUACAAAAAGAUAUCAAAGGUAUCAGUAAAGGACCUCAAGACAAAAUCGAGACUAUCAAAGGUCAAAAGAUCAAAAGAUAGAACUCAAGAAAAUGACGAAAAAAAGAUACAAAAGUAUCAAAAAAAUCGAUUCCCAUCAAAGGAAACUAUCAAAGAUAGCUAUGCCCAAGUUUAAGUGAGAGAACCACAAAAGUAGGGCAUAACGAACAGGCCCAAAAGGGAAGUAUAGAAAGUUUCGUCAGUACACAGUUCGAAAAAGUGAGAUAAAAAAAAGAUCUAAAUGAUCAUCUAAAUUCAGGGGCAUCAAAAAAGUCUAGACAAAAGUUUAGAAUCACCAAGGGAAGAUCAAAGAUUGGAUGCACAAAAAAUGGUAUCAAAGUC'
p282
aF0.8791773778920309
aa(lp283
S'Multilooping 6'
p284
aS'AGGAGACGUCGUAUAGAAAGAUAAGCUAUGAAAAUAGCCAUGACUUAUCUAAUGAUGGCGGAGUAAUCGCUAUUCGUUUCAA'
p285
aF0.926829268292683
aa(lp286
S'Cesspool'
p287
aS'GAAGAAGAAAACAAGAGGUUAGAGACAAAGUUAACAAGGACUCAACUUGAAAACAACAGUGUAAAAGAACGCAACUGAAAGAACUAAGAGUAUAAGGAAACAAGAUUUGAGAGACAAGGUCAACAACAAAUCAAGUAUAAAAAGACUAAUUAAAAAAACGCAACGAAAGUAAGGACAAGCUUUAUGAAAACUAGAAUUCAGAAUGAAACGGAAUAAAAAUUUAACUUGAAAACAAGGGAUUAAAAGAGCACAACGGAAAUAAAACGCAAUCCUAAAGAAAACAUGCGGGUAGUGUGAAACACAUCAGAACCCGUAGAGGAAAACAAUACUAUGAAGGAAGGCCACAAAAAUAACAAGA'
p288
aF0.7318435754189944
aa(lp289
S'Hoglafractal'
p290
aS'AAAAGUAAAAUACAAAAGAUACAAAAAAGUAUCGUGUUGAUAAAAAAUGAAAAGCAUUGAUACUCAAGACGAAAGUCGAGCGCUUAAAAACAAAGAGCUAAAAUGCUCGUUUAUCAAGACUAAAUCUAGACCCAGCAAAAGCGGAAAACAAAAGACAAGACAAAAAAGUCGUCCCAGAAAAAGGAGGAAAAAAAUAGAGCGAUAAAAAGCAGCAAAAAAGCAUCUCAAAAAGAGCUGAAAACGGAUAUCAAAAAAUACAAAAAAGUAAUAAAAAGUGAAGAGAUACAAAGUAUUUCAAAAAAAGAUGUCAAAAAGGUCGCAAAAAUAACAAAUUGCAAAACGACAAAAAACAGAUUAAAAGGAAAAACGCAAAAGCCUAUACAAAGUAUAGAAAACGUAU'
p291
aF0.8925
aa(lp292
S'Bullseye'
p293
aS'AAAGCCGGACUAUGUGCAUAAUGGAACGUUUAGGACUAUGCUCGUCGAAAAAAAUGCCGGCAAAGCUGAAUAUAAAAUAUAAAGAGGAAGCUUCGAGGAAAAAAGGAGGAUCAAACAUCAGGAUCAAGGACUAAAUAUAACAUACGACAAAAAAAAGCAUUACUAUGUAAAAGGUCAAAGAUCAAGAUUUAUGAUCUUCAAA'
p294
aF0.8168316831683168
aa(lp295
S'Shooting Star'
p296
aS'UAUAUCGUACGAUACACAAAGAGAGCGAGAGAGACAGCAAAGGACGUACCUCAUAGAACCGAGUGUAUCAGACAUUCCAGUUCCAGACAGCUACAGGCAGAUCAGGAAAAUACGAUACGCCGAUGGACGUCAGAGAACGAAGGCAAACAAUGUCGAUCCUGUCAAAGACAGAGGUUAAAAUAACCAAGGAAACACAGAUCAGUACAGGUGACAUGAAAGAUAUACAAAGUAUAUCAUAUCCAAAGGAUCCAUGGAUAUGCAAAAUAUAUCAGAUAGAAGGUACUUACCGAUGCAGGAAACUUUCAAGAAUAUGUACGGUGAUGCAAAAGACAUUAUGUAAGAAAUACGGAAACAUCAGAUAUGA'
p297
aF0.8406593406593407
aa(lp298
S'Teslagon'
p299
aS'AAAAAAAAAAAAAAACAAUCAAAAAAACCAAUAAAAAAAAAAAAAAAGUAAAAAAUUUCGAAAAAAAAAAAAAAAUCAAGAAAAAAAAAAUCAAAAAAAACAAAAAAAAAAAAAAAGGAAAAAAGGGAGCAAAAAAACUAGCGAAAAAAAAAAAAAAGAAAAAAAUUACAAAAAAAAAAAAAAAAUGGAGAAAAAAGGCAGUAAAAAAAUUAAAAAAAAAAAAAAAAAAAAAAAAAGAGCAAAAAAAUCUGCAAAAAAAAAAAAAAAGCUAAAAAUUAGAAAAAAAAAAAAAAAAUUAGGAAAAAAAGGUGCAAAAAAACUAAAAAAAAAAAACCAAAAAAAAAAAAAAAGGAAGGAAAAAAGAAGGAAAAAAAUUAAAAAA'
p300
aF0.9057591623036649
aa.