(lp0
(lp1
S'Simple Hairpin'
p2
aS'AUAUCAAAAAAGAUAU'
p3
aF1.0
aa(lp4
S'Arabidopsis Thaliana 6 RNA - Difficulty Level 0'
p5
aS'AUAUAUCAAAAGACAAAAAAAAAAAGUCCUAUAUACAAGAUAUAUAUAUAUGAUAUCAAAGAUACAAAAAAGUAUCAGAUAUCAAUAUAUAUAUAUCAAGUAUAUAGAAGAUAUAU'
p6
aF1.0
aa(lp7
S'Prion Pseudoknot - Difficulty Level 0'
p8
aS'GAUGACAGAUCAAAAGAUCGUCAAUCAAAAAAAAAA'
p9
aF1.0
aa(lp10
S'Human Integrated Adenovirus - Difficulty Level 0'
p11
aS'GAUAGACAUAGGUUAGAUUUCUAAAAAAAAAAGGUCGUAUGGGCAAAAACCGGAUACAAAAGGUGAUAUAUAUUUAAAAAAUGAUAUAUAUCCAAAACCGUAUCGAAGCGGGCCAAAACAUACAAACUUUACGAAAAAAGUGGAGGAUCGAAAAAAAAAAUGAAAUCGGAUCAAAAUAUGUCAAAUGUCAAA'
p12
aF1.0
aa(lp13
S'The Gammaretrovirus Signal - Difficulty Level 0'
p14
aS'AGGUGGGGGUUUCAAAAGAGACCAACUCAAAAAAGAGCAAGACAGAUCCUAUUAAAAGAUGGAAAAGAUCGUCGUUCAGUAUAUAUCAAAAGAUAUAUAAA'
p15
aF1.0
aa(lp16
S'Saccharomyces Cerevisiae - Difficulty Level 0'
p17
aS'GCUUAACGCGAAAAAAAAGUCGCUGGGAAAAAAAAAAAAAACCAAAGCUGGCAAAAAAGGCUAGGUUAAGCAAAGGUUUCGGAAGAGUGAAAAAAAGCUCCCGGAAAAAAAAAAAACGGAAAAGAUACAAAAAAGGUAUCCCGGAACAAAGGAUAGAGAACCUCAAAAAAAGGAGGGAUGUCGAAAAAAGAUGUCAAAAGUUGCAAAAAAGGUAACCUCUAUUAAAUGUCAUGGAAGACUUAAAAAAUGGUCGGUGUGUAAAAAUUAUACCAAAAGUGGCAAAAAAGGCUACCCGUGACUAAGUGAUCAUAAGCUUUAAAAAAUGAGCGGGAACAAAAAAGGUUUCCUAAACACGCGAAAAAAGUGUGAUGAUCAAAAA'
p18
aF1.0
aa(lp19
S'Fractal 2'
p20
aS'AAAAAGCUAUAUCAAAGAUAUAUAUCUAGAUCGAAAAAAAAAGAUCGAGAGCGAAAAAAAAAGUUCAACAUCAAAAAAAAAGGAUGAUGAUAUAUAUCAAAGAGAUACAACGGUCGUAAAAAAAAAAGCGAAGGGUCUAAAAAAAAUGAUCAACUUCAAAAAAAAAGGAAGAAGUUGUAUUUCAACGAGGUAUGUCAAGAUCGAAAAAAAAAGAUCAAGGUGGAAAAAAAAACACCAAGAUGUAAAAAAAAUUAUCAAGACAUACCUCUAAGAUAUAGCAAAAA'
p21
aF1.0
aa(lp22
S'G-C Placement'
p23
aS'GAUCAAAGAUCA'
p24
aF1.0
aa(lp25
S'The Sun'
p26
aS'GACAGAAGGUUGAAGACCAAAUCGUAAAAGACACGUGCGCUAUGAGAAAAUCGGCAAAGACAGAUGAUCAAACAUCAAACUGUCAAAGAAAGAUGUUCAAGGAACAAGUGGUCAAUUAUAGACGAUCAAAGAUCAAGUCGGCUAGAACAGGUAAUCAAGGAUUGAACCCUCAAUGGUAUAAGAACGAAGUUCAAUCAGCCUAUAAGAUACGGGGAAGCUCCUAAUACUUUAAUGAAGAUGAUGUAUUGUCAAAUCUCA'
p27
aF0.7596899224806202
aa(lp28
S'Frog Foot'
p29
aS'AAAAAAAAAAGUACGAAUGUACGCACAAAAGUGCCUGGAAACCAG'
p30
aF1.0
aa(lp31
S'InfoRNA test 16'
p32
aS'GUUCACUCACUCUUUUAAUAAAGAUGUAGUGUGAAC'
p33
aF1.0
aa(lp34
S'Mat - Martian 2'
p35
aS'GUCUUAAUGGACAAGGAUAUACAAUGUAUACAAAAAAAGUAUAUAGUAUAUCAAGGAUAUAUCUAAAAAGAUAUACAGAUAUUUAAAAAAAAAAUAUCGUAUAUCGAUAAUAUAUGAUAUACAAAAAAAGUAUAUCAAUAUAUUUAAAAUGAUAUAUCAAAGAUAUAGGAUAUACAAAAAAAGUAUAUCAACUAUAUCAAAGAGUAAAAACUC'
p36
aF1.0
aa(lp37
S'square'
p38
aS'AUAUAUCCUAUACCUAUAUCCUAUACAAAGUAUAGAAAAGAUAUAGAAAAGUAUAGAAAAGAUAUAU'
p39
aF1.0
aa(lp40
S'Six legd turtle 2'
p41
aS'AAAAACGAAACGGAAACGGAGUUAAAGAGAAAGCUAAAGCAAAGUAAACAUAAAACAAAGGCCAAACAAAAUCUAACAAAAAAAAAAAAAAAAAAAAA'
p42
aF0.9591836734693877
aa(lp43
S'Small and Easy 6'
p44
aS'UCUGUGAAAAGCCCGCGAAAAAACAUCCGG'
p45
aF0.9333333333333333
aa(lp46
S'Fractile'
p47
aS'AAAAAAAAAAAAGCGAAAGCAAAGCAAACCAAAAGGAAUCUAAGCAAAAGCGAUGAAAGCAAAAGCAAAGCAAGCAAAAGCGAAAAAAAAAAAAAAAAAAAAAAA'
p48
aF1.0
aa(lp49
S'Six legd Turtle'
p50
aS'AAAAUAGAAAAGAUAAAACGAAAGUGAAAACAAAUGCAAAAGGUAAAGGAAAACCAAAAGUAAAAGAAAAAGCGAAAGGAAAACGUCAAAAAAAAAAAAAAAAAA'
p51
aF0.9619047619047619
aa(lp52
S'snoRNA SNORD64'
p53
aS'AACGGCGAAAAGUCAAAAGUCUAUGAGACAAAAAAAAAAAAGGUUUCUAAUGACAGGACAAGUCGUU'
p54
aF1.0
aa(lp55
S'Chalk Outline'
p56
aS'AAAAAUAUCAGAUGCAAAAGCAAUCGGACAUAUAAAAAUAGUCAGUUAGGGAAACCAUAGCGCGGUCAAAAGACACGGAUAAAAAAAAAAAAAAAAAAAAAAAA'
p57
aF1.0
aa(lp58
S'InfoRNA bulge test 9'
p59
aS'AUAUAUCAGAGAGAGAUAUACAAAAGUAUAUCCCCGAUAUAU'
p60
aF1.0
aa(lp61
S'Tilted Russian Cross'
p62
aS'AAAAUCACAUAUCAAAGGAUAGACGAUAUCGAAAGGUGGUUACUAAUGUAGCAGGUCAAAGGACCCGUCCUGGGAAACUACUGAGUAAAAAAAAAAAAAAAAAAA'
p63
aF0.9809523809523809
aa(lp64
S'This is ACTUALLY Small And Easy 6'
p65
aS'AAAAAAAAAAAAAAAAAAAAAAAAAAAAAAAAAAAAAAAAAAAAAAAAAAAAAAAAAAAAAAAAAAAAAAAAAAAAAAAAAAAAAAAAAAAAAAAAAAAAAAAAAAAAAAAAAAAAAAAAAAAAAAAAAAAAAAAAAAAAAAAAAAAAAAAAAAAAAAAAAAAAAAAAAAAAAAAAAAAAAAAAAAAAAAAAAAAAAAAAAAAAAAAAAAAAAAAAAAAAAAAAAAAAAAAAAAAAAAAAAAAAAAAAAAAAAAAAAAAAAAAAAAAAAAAAAAAAAAAAAAAAAAAAAAAAAAAAAAAAAAAAAAAAAAAAAAAAAAAAAAAAAAAAAAAAAAAAAAAAAAAAAAAAAAAAAAAAAAAAAAAAAAAAAAAAAAAAAAAAAAAAAAAAAAAAAAAAAAAA'
p66
aF1.0
aa(lp67
S'Shortie 4'
p68
aS'GCAAAAGCAGCGAAAGC'
p69
aF1.0
aa(lp70
S'Shape Test'
p71
aS'AAAAAGUGAGCAAGAUAUGAAAAAAAAUAUCAAGAUAGACAGAUACAAAAAGUAUCAGAUCAAAAGAUCAGUCGUCAAGUUCUCAAAAAAAAAAAAAAAAAAAA'
p72
aF1.0
aa(lp73
S'The Minitsry'
p74
aS'CGCAAAAGGACAAAAAGGCAAAAAGACAAAAAGACGAAAAAAAGUCAGUCAGCCAGUCAGCG'
p75
aF1.0
aa(lp76
S'stickshift'
p77
aS'AAGAUAUCCCAAAAAGGAGAUAUCAA'
p78
aF1.0
aa(lp79
S'U'
p80
aS'AAAAAGAUACAGAGAGCAGAGAUAUAUACAAAAGUAUAUAUCCGCCCGUAUCAAAAA'
p81
aF1.0
aa(lp82
S'Still Life (Sunflower In A Vase)'
p83
aS'AAAGAUCAAAAUGCGAAAAGCAUUAGGUGAGAAGCUUACAAUAUACGAAAAGUAUAAAGUUUCGAAUAAGGAAAAUGGAAAAACCAUUAAUUUGAAAAAGUGAACGUAUAUACAGAUAAAUAUAUAUAUGAUACAAAAAGGUAUCAGAUACAAAAAAAAAAAAAUAUCAAAAAAAAAAAAAAAAAAAAAAAAAAAAAAAAAAAAAAAAGGAUAAAAAAAAAAAAAAGUAUCGAUAGGAAACUAUCAGUAUAUAUAUUUAUUUGUAUAUGAAAGCGCAAAAAGCGUUAACUUACUAAAUGUAAGAAUGUUAAAAAAUAACAGAUUUCCAAAAAGGAGAAACUCAACAAGGUAGGAACUAUCAAAAGGGUAGGGAUCAAA'
p84
aF0.9735449735449735
aa(lp85
S'Quasispecies 2-2 Loop Challenge'
p86
aS'AAAAAGAUCCCGCAAGAUCAAAAGAUCAAGCGGAGGGCAACAAAGGGGUCCAAAUCAGCAUGACAAAAAGUCUAGAGGAUUGAUCAAAAAAAAAAAAAAAAAAAA'
p87
aF1.0
aa(lp88
S'Corner bulge training'
p89
aS'AGAUAUCCUAUCAAAGAUAGAAAAGAUAUCA'
p90
aF1.0
aa(lp91
S'Spiral'
p92
aS'AAAAAGAUCAGAUAUCAGACAGAUACAGAUCAGAUCAGCAGCAGCAGCAGCAGCAAAAAGCGCGCGCGCGCGAUCGAUCGUAUCGUCGAUAUCGAUCAAAAA'
p93
aF1.0
aa(lp94
S'InfoRNA bulge test'
p95
aS'AAAAAAAAAAAAAAAAAAAAAAAAAAAAAGAGCGAAAAAGAGCAAAAGAGCAAAGAGCAAGAGCAGAGCAAAAAGCAUCAGCAUCAAGCAUCAAAGCAUCAAAAAGCAUCGAAAAAGCAUCA'
p96
aF1.0
aa(lp97
S'Worm 1'
p98
aS'AAAAAAAAGGUUUUGGGAAAAUAGAAAACGGUGUCACAGUAAUAU'
p99
aF0.8222222222222222
aa(lp100
S'just down to 1 bulge'
p101
aS'AAAAAGAGCAGAUACAAAAGUAUCAGACAAAAGUCAGCAUCAAAAGAUCAGACAAAAGUCAGACAAAAGUCAGAUCAAAAAAAAAAAAAAAAAAAA'
p102
aF1.0
aa(lp103
S'Iron Cross'
p104
aS'AGAGAGACGAUGCCAGACUAUAACAAUCGAAAGAUAUGCUAAGGCAGUUAAAGGACGUACAAAGUGAGCAGAAGAGAGUCAAAAGACAAUCAAAUUCAGAAGAAGUCUGACAAAGGCUCUCGA'
p105
aF0.9512195121951219
aa(lp106
S'loops and stems'
p107
aS'AAAAAGAUAUACAAAGAUCAAAGAUUAAAGAUCAAAAAAAAAGAUACAAAAAAAAAAAAGUAUCAAAGAUCAAAAGACCAAAAAAAAAAGGUCGAAAAUCAAAGACAAAAAAAAGUCAAAGAUCAAGCAAAAAAGCAAAGUAUAUCAAAAA'
p108
aF1.0
aa(lp109
S'Water Strider'
p110
aS'AAAAAGCUUGGAACGCAAAACGAAAUUUGACUAAUGUUGACAAAAAGGGCUUUAACGAGGGCAAAAGACACUCAUGACAUGCAAAAAAAAAAAAAAAAAAAAA'
p111
aF0.941747572815534
aa(lp112
S'The Turtle(s) Move(s)'
p113
aS'AAUCCAAAAGGUAAGGUGUUGUACAAAAAAAAGGUACAAUAUAAAUGACCAAAAGCGUUUAAAAGCCAAAGGGCAAAGAUCUUAAAAAUAGGUCAAAAUACAAGACUAAUGGAAAAUUCAAAAAUGAUAAAGAUAUCAAAAAAAGGUAUCAAAACUUAAAAGGGAAAAAGAUAUCAAAAACCAAAAAAAGUUAAGACAAAAAAAAGUCAAAUGUACUAAAAUGUACGGAGGCUCUAAAUGGGCAGGAUAUUAAAAAAAAAGCAAAAGCAAAAACUAAAAAGAAAAAAGAGACAAAAAAAAAGCUUUCAAAAAAGUC'
p114
aF0.9810126582278481
aa(lp115
S'Adenine'
p116
aS'AUAGCAGGUAUAGGAUGUCGGAUAUCGUAUAUAAGCUAUGAAAAGAUAUCGAAAAAGAUAUCAUAUAGCAGAUACAAAGACACGCAAGGUGUGUCGUAUCGUAUAUGGGAUAAGUUAUACAAAGUAUAACAAAUUAUCAGAUAUCAAAAGAUAUCAAAAUAUGCCAAAAGCUAU'
p117
aF1.0
aa(lp118
S'Tripod5'
p119
aS'AGGACCCCUAUAAAUUGGGGGGGAAAAGCCCCGGUCAA'
p120
aF1.0
aa(lp121
S'Shortie 6'
p122
aS'GGAAAACCAGCAAAAGCAGCAAAAGCAUCGAAAGA'
p123
aF1.0
aa(lp124
S'Runner'
p125
aS'AAAAGUAUCGAAUAAAAAAGAUCGAAGAUCGUGUGAAGGUGGAGGUCGACUAGCGAAAACCUACGAUGAAGGCAAAAGAAGACAAGGAGAAAUCAAAAGUGAGUUCAGAAGAAAAA'
p126
aF0.9310344827586207
aa(lp127
S'Recoil'
p128
aS'AAAAAGAUACAAGCAAGCAAGACAAGACAAGCAAGCAAAGCAGCAGUCAGUCAGCAGCAGUAUCAAAAAAAAAAAAAAAAAAAAA'
p129
aF1.0
aa(lp130
S'[CloudBeta] An Arm and a Leg 1.0'
p131
aS'AAAAGGACAGCGUCAAAGGGCCGCGUCAGCAAAAGCGACAGUCAAAAAAAAAAAAAAAAAAAA'
p132
aF1.0
aa(lp133
S'[CloudBeta] 5 Adjacent Stack Multi-Branch Loop'
p134
aS'GAUACCUGCUAAUGCAGCAUACGAAAGUAUGGAUACUAAUGUAUCGCUCUAAUGAGCGUAUCA'
p135
aF1.0
aa(lp136
S'Triple Y'
p137
aS'AAAAGAACCGUAGAGAAGAAAAUCACACUGAAAGGUGGUAUGCGCACCGGAAACGGUGCUUGCAACCUUGUGCGGUUAAAAAAAAAAAAAAAAAAAA'
p138
aF0.9175257731958762
aa(lp139
S'Misfolded Aptamer'
p140
aS'AUCCGAAAAAGGCGCAAAGCGACCGAAAGGGAAAAAAAACCGAAAAGGAU'
p141
aF1.0
aa(lp142
S'Flower power'
p143
aS'AAAAGUAACACUCCAAGAUUAGUCUGGGCAAAGAUCAAAAAAUAAUUUUGAUGAGGAAGGUGGAACAAGCCUAAGAAGGUUGAAAAAAAAAAAAAAAAAAAA'
p144
aF0.8431372549019608
aa(lp145
S'Kudzu'
p146
aS'AAAAAGGUGUGAUGGUGGUAAAUGAGCAAGGCCGAUUUCACGUGGUAGUCAGUGGAGCUCAAAGAGAAAUGCAAGUGGGCCGAAAAAAAAAAAAAAAAAAA'
p147
aF0.9603960396039604
aa(lp148
S'"1,2,3and4bulges"'
p149
aS'AAAAGGAGCAGAAUCAAAAGAGAAAGACAGGUAAAACUUAAUAUAAAAAUCUGUGAAGAAAAAAAUCAUCGUAAUCGAUGGAAGAAAAAAAAAAAAAAAAAAAAA'
p150
aF0.9428571428571428
aa(lp151
S'medallion'
p152
aS'AUAUACACGUAGAAAAAUUUAUGGGAGAAAAUGUAGUCUAAUGACAGAAAUCUAAUGAUUUCAUCCAAAAGGAAGAUAAGAAAAUUUAUCAGAUUAAUAUCAGAGGAAAUUCGGAUAACGAAAGUUAUCAGAGAAAAAACAGAGAGCAAAAGUUCUCACACUAAAGUGAUACAAAAGGCAGAUAUCAAAAGAUAUCAGCCAAAAUGCGGAUUGCAAAAGUAAUCACAGAAAACUGGGGCUAAUGCCAGAAGUAAAAAUAUUUCACAGGAAAUUCGGGUAAUAAAAGUUACCACCCGAAAGGGGGACGAAAGUCAGUGAUAUAAUUAUUACAGUAUAU'
p153
aF0.9614243323442137
aa(lp154
S'[RNA] Repetitious Sequences 8/10'
p155
aS'AGCAAAAAAGCAAAAAAGCAAAAAAGCAAAAAAGCAAAAAAGCAAAAAAGCAAAAAAGCAAAAAAGCAAAAAAGCAAAAA'
p156
aF1.0
aa(lp157
S'Documenting repetitious behavior'
p158
aS'AAAAAAAUCAAAAAAAAUGCAAAAAAAAAACAAAAAAAAAGAAAAAAAAAAGCAAAAAAAAAGCAAAAAAAAACGGAAAAAAAAGCAAAAAAAAAGUGAAAAAAAAGCUAAAAAAAAUCAAAAAAAAGGCAAAAAAAAAACAAAAAAAAAGCAAAAAAAAAGCAAAAAAAAAGCAAAAAAAAAGCAAAAAAAAAGAAAAAAAAAAGCAAAAAAAAACCAAAAAAAAAGAAAAAAAAAAACAAAAAAAAAGGAAAAAAAAAAUAAAAAAAAAGCAAAAAAAAAGCAAAAAAAAUGCAAAAAAAAAAUAAAAAAAAAGCGAAAAAAAAGGAAAAAAAAAGCAAAAAAAAAGCAAAAAAAAAGAAAAAAAAAAUCGAAAAAAAAGUUAAAAAAAAGAAAAAAA'
p159
aF0.96
aa(lp160
S'7 multiloop'
p161
aS'AGCGGGGGGGAAACCCCCGAUCCUAAUGGAUCCUGGCAAAAGCCGGUAAGUGAAAGCUUAUAAUCGAAAGAUUACUUUCGAAAGAGAGCGCU'
p162
aF1.0
aa(lp163
S'Kyurem 7'
p164
aS'AAAAUAUAAUCUCUAAAAGUAGCGAAUCUGAACAGUGAAAAGCACGACGCGCAAAAAAGUGAAAUUUGAUCCUCAGGAUUAUUAAAAAAAAAAAAAAAAAAA'
p165
aF0.9411764705882353
aa(lp166
S'JF1'
p167
aS'GAUAGAUGAUAAGAUACAAGAUACAAAAGAUAUCAAGAUACAAAGAUACAAGAUAUCAGAUAUAUAUAUAUCAAAAGAUAUAUAUAUAUCAAGACAAAAGUCAGAUAUAUACAAAAGUAUAUAUCAAGAUACAAAAGUAUCAGAUAUCAGUAUCAGUAUCAGAUAUCAAAGAUAUGACAAAAAGUCAAUAUCAAGAUAUAUAUAGAUAUAUAUAUAUCAAAAGAUAUAUAUAUAUCAUAUAUAUAUCAAAGAUACAAAAAAGUAUCGAUAUAUAUCAAAAGAUAUAUAUCAAAGAUCAAAAGAUCAAGUAUCAAGUAUCAGAUCAGACAGACAAAAGUCGUCGAUCAGAUAGAUACAAAAGUAUCAUAUCAUAUCAAUCAUAUCAAA'
p168
aF1.0
aa(lp169
S'multilooping fun'
p170
aS'UUUUUAUGCUAAUGAGAAAGCGGGUAAUAAAAACGA'
p171
aF0.8055555555555556
aa(lp172
S'Multiloop...'
p173
aS'AUAUUAGUUAGAUAAAAAUAGGAUAAAGGUCAAAUAAAGGCCGUAGUAAUGUGAUUAGAAAUGAAGUCAAAAGACUGACUCGGUAGAAAAAACUACCUUGAAAAUGGGUGU'
p174
aF0.9279279279279279
aa(lp175
S'hard Y'
p176
aS'AAAAUGCUUCUACCUAUUUGUAAUUAAAUGGAGCGGAUAUACAUCGAAAGAUGUAUAUCGAGCUAAAA'
p177
aF0.9705882352941176
aa(lp178
S'Mat - Elements & Sections'
p179
aS'AAAAAGAUUAGGAAGAGAUGAGAGAUAACAAGAGUAUCGUAUAAAAGUAAGAGGUUCGUGUAUCGAAACACAUCGUAAACAGAUCGAAAAAAAAAAAAAAAAAAA'
p180
aF0.9619047619047619
aa(lp181
S'Chicken feet'
p182
aS'AAAAAGUAAGAGCCAAAUGCGAAAGGAAACCACGUCAUAAACAAAGUGAGUAUACAAAGAGAAAAAA'
p183
aF0.8507462686567164
aa(lp184
S'Bug 18'
p185
aS'AGCGUCACGAGCGACCGAGCGGCAAAGCAAGCAGGAGCAACGAGGAAAAAGCA'
p186
aF1.0
aa(lp187
S'Fractal star x5'
p188
aS'AAAAUGUUAUAUAUACUUCAAAGGAAGAGCACAAAAAUGUGAGGAUCAAAGGAUCAGGGUAAAAGUACCAUUAUAUAACUAAAAGUUUUAGCAAGGGAAAAGUCCCGAGAGCAAAAGCUUAAUCGUAAAGACGAGAGAUCAAAGGAUUGAGUUAGAGCAAAAAGAUUGAUUAAGUUCUAAUGAACAAGACAUAAUUGUCAACAGCGAAAGCUGGAGAUCAAAGGAUCAAGAUCGAUCGAAAAGUUGCAUCUAGGUCGAAAGACUCAGUUCAAAGGAACAUGAUCGAAAGAUCUGGCUUAAAGAGGUAUGAUGCAGCGAAAACCUGUUUCAAGGGCAAAAGCCCGUGUUCAAAAGAGCUAAAUCAAAAGAUUAAGAUCAAAAGAUCAAGAGACAGGGAAAA'
p189
aF1.0
aa(lp190
S'Crop circle 2'
p191
aS'UGUAAGAAAAAUAUAAAGGCAAAAAAAAAAGUAAAAAAAAAAAAAAAAAAAAAAAAAAAAUCUAAAAAAAAAAAAAAAGAAAAAAAAAUAAGAAAAAAGCAAAUUAAAAA'
p192
aF0.9636363636363636
aa(lp193
S'Branching Loop'
p194
aS'AGAGCGAAAAAAAUCCGGCUAAUGUUGACGUUCCAAAAAA'
p195
aF0.95
aa(lp196
S'Bug 38'
p197
aS'AGUUACAGGAUUGAAAAAGACAACGAAUGCACGCCA'
p198
aF0.9444444444444444
aa(lp199
S'Simple Single Bond'
p200
aS'AAAAAAGAAAAAAAAUGACCAAAAAGGUUUAAAAAAAGCGAAAAAAAAAAAAAAAAAAAAA'
p201
aF1.0
aa(lp202
S'Taraxacum officinale'
p203
aS'GGGGGAAACACUCAGCCCAAAAGAGUAGGCUCGAAAGAAGCGUAUCGAAAGAAUAAGAGGCAAACACUCGUCUUGAAUAAAGAAGGUCUAUAGAGGAAACAUGAUCAAAGAUCAAUGUUUCUGAAACAAGAGAAAUAUCAUGAGAUUUAAAGAAUUUCUGAUAUUUUUCGAUCAGGUCUAAAAUAGACUGAUCGUUUCUAACUUUAUAGAUCGUAAGUAAUUAUCGAUCUCGAAAGAAGAAGGUGAAAGUAAGAAAGUCAAAAGAUCUAAUUGAAAAUAAAU'
p204
aF0.8794326241134752
aa(lp205
S'Headless Bug on Windshield'
p206
aS'AGCUUCAAAAAGAGCCUAAGUAGACAAAAAAAAAAAAAAAAAAAAAAAAACUCAGUGAUGCAAUCAAAGGUACAGACAAUAAAAGAUAAAAAAGUGAAAACGAAAAAUUAUUAGAAAAAGUCAGCCUAAAAAAAAGAAAAGCUAGUCAUGCCAAUAAAAAAAAAAAAAAAGUUCUCCUAGGCAAGCAGUCAACGAAGGCA'
p207
aF0.92
aa(lp208
S'Pokeball'
p209
aS'AAAGCGAUGUAAAAGUAAGGAAGACGAGCAAGUGAGAGAUCAAGCAAGCAAAGCAGCAGGAAUCAGCAAGCAGUCACCGGCAUAUCGCAAAAAAAAGGUAUCCAAAAGCAAGCAAGACAAUCAAGCAACAGAGAAACCAAGCAAAGCAGGAAUCAUGGGCAAGAAGUCGGCAGCGGAUAUCAAA'
p210
aF1.0
aa(lp211
S'Variation of a crop circle'
p212
aS'AAAAUUAAAACUGAAAGUAAAAUCAAGGUAGCUAUCCAAGAAAAAGGAAAAAAACAAAAAAAGGGAAAAAAAGAGGAAAAAAAAAAAA'
p213
aF0.9545454545454546
aa(lp214
S'Loop next to a Multiloop'
p215
aS'AAGAUAUAUCAAAAAAUAGGAUAGCAAAAGCUAUCAGAUAUACAAAAGUAUAUCAUUAAAAAGGAUAUAUCAA'
p216
aF0.9726027397260274
aa(lp217
S'Snowflake 4'
p218
aS'CAUCAAAGAUGCCACCGGAAAAGCCUAUCGUGAUGCGCAAAAACGACGCGAUGAAGCAUCAAGAACAAAGUUGGCGUCGCAAAAGCCCAGCUAGAUGUCAAAAGGGCUAUCCUACUAUGUAGAAGAUCAAGGAUCGAUAGCCAAAGCGAUAUCGAGAUACCCAAAGAGCUGUCCUUCAAAGAAGAAGAUCAAGGAUCGAUAGCAUAAUGGGUAUCAAUAUAUCCUAAUGGCGAUGCUACGAAGUAGAAGAUCAAAGAUCCGUUGCCAAAAGGAUAUAAAGAUACUUUAAUGAAAGACGAGCAAAGCUCAAUAUCAAGGGUAGUAUCGCAAAAGCCUAUCAAGAUAGCCAAACGGAGUAGCUACUAUGUAG'
p219
aF0.845945945945946
aa(lp220
S'Mat - Cuboid'
p221
aS'GAAGCAAAAGCAAGUAAAACCAAGCAAAAGAAGCAAGCAAAAGCAAGGAAGCAAAAGAAGUAGGCAAGCAAAAGUAAGCUAGCAAGCAAAAGUAAGCAAGCGAGAAAGCAAAAGGAAGCAAUCAAGCAAACAAAAGCAAGGAAGUAACCAAACAAUCAAAAAUAAGCUAGCAAGUAAGCAAGCAAAAGUAAUCAAACAACAAAGUAAAGAAAAAAUCAAGCGAUGAAGUAAGAGAGCGCAAGCAAGCAAGAAUGCAAGUGCAAGUAAGCGAGCAAGCAAGUGCAACCAAACAAGCAACCGCAAUCAAGUAAGCAAACGCAACCAUGCAAACGCAAGCAAGCAACGCAAUCAACUGCAAGCAACGCAAGCAUAAGCGUAAC'
p222
aF0.8342105263157895
aa(lp223
S'Misfolded Aptamer 6'
p224
aS'AAAAAAGACAAAAAAGAUCUAGAAAUGACAAAAAAAAGUCUAAGCGAAAUGAUCAAAAAAAGUCGAAAAAAAAAA'
p225
aF1.0
aa(lp226
S'Snowflake 3'
p227
aS'AUCCUAAAAAGGGAUGAAUAAUUUCAUCAUGGGAUCAAGGCAAAAGCCGACGGCAAAAGCGACAAAGUCGCGAAAGCAGUCGACGAAAGUCAAGAUCAGAUUAACGCAAAAGUCCACAGCAAAACAUACAAAGUACCAAAAGCAGUGCACAAAAGGGAAAAUCGGUACAAAGCGAAAAACGGCGGCCAAUUUGAUAAAGUCUUAAACGAAGUCGCCAAAGGUUAAGUACGGAUGGAGACUAAUGUUGAGAGCAAAAGCGAUAAAAUCGCAAAGGCACUCAACUAAUGUUAAUAUCAGGAGAAGACGAAUGUCUACCGCAAAGGCGUCAAAGACGCAAAGGCGGUGCACUAAUGUCAGGACCACAUGUAAUAUAAGUUUGUCAAAAAAAUCGGU'
p228
aF0.8625954198473282
aa(lp229
S'Hard Y and a bit more'
p230
aS'AAAAUAGUACAAUCAUACUAAUGUAUCGCUGCAUAAGGUACAUCAAAGGAUGGACAGACAAAAAGGUCUGAUCCAUAUGCGUAUAUAAAAAAAAAAAAAAAAAAAA'
p231
aF0.9716981132075472
aa(lp232
S'Mat - Lot 2-2 B'
p233
aS'GAAGGUAAGACGAUGCAAAAUUAAUCUUAAAAAAAAAAUGAAGAGCUAACAAAAUCAAGCCCAAGCAAGUAACCGCAAGCAAAACAAGGAGCAAGCAAAAUAUAAUUGGCAAGCAAAUUCAAGCGCAAGCCCGGAGAAGCAAAAGCGCAGGAGGAGGCAAAACCAGAACUAAAAGGAAAAUUAGGGGCAACCAAAAUCAAGCUUAACGAAGGAGGGGUGAACAAAAGCAUAAGGAAGUAAAAUCAAAAGGACAACCAAAAUCAAUCGCAAGCGCGAGGAACAAC'
p234
aF0.8063380281690141
aa(lp235
S'Shapes and Energy'
p236
aS'AAAAAACAUUAGUAGCCAAAAGGAAUGUUGGGAAACAAGCAGUACGUUAAUAAAAAAAAUUUAAAAGUAAGACUAUAAGGGAAAAAAAAAAAAAAAAAAAA'
p237
aF0.9603960396039604
aa(lp238
S"Spiral of 5's"
p239
aS'GAAAAGAUACAAGGAUACAAAGAUACAAAAGAUAGAAAGAUACAAAGAUACAAGAUACAAAAGAUACAAAGAUUCAAAGAUACGAGAUACAAGGAUACAAAGAUACAAGAUACGAAGAUACAAGAUACAAGAUACAACAUACAAGAUACAGAUACAGAUAGGUUACAAAAAGUAACAAAAAUUAUCAAAAAGUAUCAAAAAGUAUCAAAAAGUAUGAAAAAGUAUCAAAAAGUAUCAAAAAGUAUCAAAAAGUAUCAAAAAGUAUCGAAAAGUAUCAAAAAGUAUCAAAAAGUAUCAAAAAGGAUCAAAAAGUAUCAAAAAGUAUCAAAAAGUAUCAAAAAGUAUCAAAAAUUAUCAAAAAGUAUCAAAAAGUAUCAAAAAGUAUCAAAAGUAAAAA'
p240
aF0.9949622166246851
aa(lp241
S'Campfire'
p242
aS'AAAAAAUUAAGAGACAAGCUCAAGUUCAAAAGGAGCGUUGAAGAAGUCAAACGAUCCAAGACAGCAGUAGAUGUGAAAGCAAUUACGCCUGGCGGCAGCAGUAAACGCGCGCGAUCCGACAAAGGUACGAAUCAAGCACAAGUUGGUCGUCUUCGCGGGCAGACAGGUCUAAUGAUCGUUGCCCGUUACUCAAAGGGAUAAACGAGCGAGCC'
p243
aF0.8820754716981132
aa(lp244
S'Anemone'
p245
aS'ACAGGAAGCAAAAGCAAACGGUUCGAAAGGACCGAUUUCGAAAGGUCACAAUACAAAAGUAAUGCAGGAAAAGUCUUGCUAUAAAAAAGAAUCGGACUUAAUGUUUCUAUAGCGAAAGUUAUGAGCAAGUAAUUUUGCAAUAUGUAAUGCUCUCGUUGCAAAAGUGACGAUUCCAAAGGGCGUUAAACUUAAUCGCUCGAUGGCGAAAGCCAUC'
p246
aF0.7757009345794392
aa(lp247
S'Fractal 3'
p248
aS'AAAAAGCUGAGACCGCAAAAAACCAAAAGGUCUUAGUGAGCAAAUGUACAAAGGCUUGCGUACAUUAAAAAAUCGAAUGCAGUGAGUUUCUGAAAAUGCAAAAGCUAACAGAGUAAAAA'
p249
aF0.8907563025210085
aa(lp250
S'Kyurem 5'
p251
aS'AAAAAGGAGACGCUCGAAAGGGAAGAAAAGAUCCUAAAAAGUCAAAACAAGUUAGAUGGAAAAACAGAGAUAGUCUGUGAUAUCGUAAAAAAAAAAAAAAAAAA'
p252
aF0.9615384615384616
aa(lp253
S'Snowflake Necklace ( or v2.0 )'
p254
aS'AUAUAUAUUUAUAUCGGUUUCAGCAAAAAGCAACAAAAAGAAGUAAAAAGCAGGAAAAACCGAAAAAAAGUAGAAACAGACGAAAAGUUGCAUACAUCAAAAAGAAUCAAAAAGAAGCAAAAAGUAUCAAAAAGGAGCAAAAAGCAAUUUCAUACAAAAACUGAGAUGAAGGAAAAACCAUCAAAAAGAAGUAAAAAAUGGGAAAAAGCAGCAAAAAGCAUCAUCAGCCAAAAAGGCUGUUAGGGUAAAAAGCAACAAAAAGUAGCAAAAAGCAGUAAAAAGUAGCAAAAAGCACUAGCUGUUAAAAAGACAGACAAAACAAAAACCGCGAAAAACCACUGAAAAGGAGCAAAAAUAAACAAAAAGCAGUAUCAGAUAUAAAUAUAUAU'
p255
aF0.8611825192802056
aa(lp256
S'Methaqualone C16H14N2O Structural Representation'
p257
aS'AAAAAAAGAUCGGAUCUAACAAACAAAACUCAGACAGACGAAAGUUGCACUGGAAAAAUUCUGAGAAACAAAAGUUAGAGAAAAAAAGUCACACGGUGAGUAAGUUAUAAAGUGAUCAGCUCAAAACACAUAAAGCAAAGCAAAAAAAAGGGAGACACACGAAAGUGGAAAAAGUUCAACAAAAGUCCUCAGCAAAGACCAUAAGCGGAGAGACAGACGGUAGGAUAAAAGACAAAAGUCGGUCAUGGAAAACUAAUGCUGGUAAAAGUCUGACGUACGAAAGUAAGUCAGACCUCAAAAGAGCUCAAAAGAGAGAGAAAAGUCGUCGUUCAGAUCAAAGAUCGGAUCAAAAAAA'
p258
aF0.8788732394366198
aa(lp259
S"Cat's Toy 2"
p260
aS'AAAAAAUCUAUUAAAAUGAACAAAAAAAAAAAAAAAAAACGGUCAAAGGAAAAAUCAAAGGUAAUCCAAAAAAAGUGUAAAAUUAGAUAGAUUAAAA'
p261
aF0.9587628865979382
aa(lp262
S'Zigzag Semicircle'
p263
aS'AAAGUUAGUCUUUGAAAAUGCAAGCGCUGAAAAA'
p264
aF0.9411764705882353
aa(lp265
S'Short String 4'
p266
aS'AAAAAAAAAGGAAAUAAGAAAAUAAGGUUAAUGGUAAAUAAAUAGUGAGUAAAAACAAACAACAAACAGUAACCGGAAAAAAAAAAAAAAAAAAAAA'
p267
aF0.9381443298969072
aa(lp268
S'Gladius'
p269
aS'GGAAACAAAGAAAGAAAGAACACAACAAUGACGGACGAAUAGCGAAAGUUAAGUUUCGCGACUCAGAGGCUCAGGGGUGGCUCAGAUUUAGAAGGUGUGACAUAGAGGUUACGAUACUAAGUAUCUUGCAUCAGGACCCAUAUGCAAUAUCUAUUAGAUUAAAUCCGCAAGAGAGUAAUAGAGAGACGAAACAGUCAAAGACAGGCACAAAGUACAAAAGACCGGCAGAUCAAAAGUAAAAUAGCUAGCACAGACAGGUACUAGACGGUGUUCAAAGGAGUACAGGUCAAGUACACGUCUCGGUUAGACAUUUUACGUGAGGUUAUAAGGUCAUAGGUGAUAGGUGUCAGAUUAAAAAAUCAACGUCAGUCUAGGAAGCGAGCAAGUAAAAUGAUAAAAG'
p270
aF0.9075
aa(lp271
S'Thunderbolt'
p272
aS'GCAAGUUGUAAAAAAAAGAGCAAGCAUAAAAAGAAAACGGAUAUAUUAAAAAAAAGGCGAAAAAGAUGAAAAAUAUCGAAAAAGCAAUGAAAGCAAAAAAAUAAGAAAAAACGAGAAGCAAGCGAAAAGAAAACGCUACAAAAAUACAAAAAGAAGCCGAAAAAGCAACGAAAAGUAAGAUCGAAGUAAAAAGGAAGUGCAAAGCUCAACAAAAAAUCGAAGAUCAAAAAAAAGUAGAAAAGCAUAUCAAAGAUAUGAGCAAGCAAAAAAAAAAAGCGAUCUAAAAAAAAGAACAGAAACUUAUACAAAAUCAAAAAAAAGUAAAAGUAUAACAGAACAAAGAUACAUCAAAAAAAAGAGCGAGCGUAAAAAGAAAAAAACAGCAGCAAGCA'
p273
aF0.9591836734693877
aa(lp274
S'Mutated chicken feet'
p275
aS'AAAAAAAUCAAGAUCGAAGCUGAAAAACUAACAGCCGGAACGGAAAGUCAGCAAAGUAAAGUUCGUCAACUGUAAAGCAGAUAUUCAAUGCGCAAAAAAA'
p276
aF0.82
aa(lp277
S'Chicken Tracks'
p278
aS'AAAAAAAUGAUGCACGAUCAAAAGAUCAAGAUCGAAAGGUCGAGACAGAAAUGUCGUGCAUCUGGGCCGCCAAAGGCGAAGCUCGAAGAGCAGUGUCAAAGACAGCCAAAAAAAAA'
p279
aF1.0
aa(lp280
S'Looking Back Again'
p281
aS'AUCAAGACCUACAAAAAUUGAUCAAGGAUUGAGGUAGAAGACAUUAAGACGAAGCCGAUAGUUGGAAGGAUGAAAAUAUCAAAGCCAAUAACUCAAGUCAACCUCGAUAAAAAACUAUAAAAGUAGUGAAAAUGUCUAUGCGAUACAAAGUAUCAUCACAAAGUGAAUAAAUCCAUAUAAGAAGAGUAAGAGUAGCAAAAGCUGAACGGAACCAGAUUGGUUAAAAAGGAAGAUUUAAAAGUGUAGAAGAAAUACAGACCAAAAAACAUGUUUAUGGGGGGUAUCUAAAUAAUAAAGAAAAAAUAGAUCGGUUAAAAAAUGGUAUACGAAAGUGUAUAAGAACCGAAGGAGUUAAAAAUUAUCACGUCUAAAAAGUCUGUAUCGAAGAU'
p282
aF0.8740359897172236
aa(lp283
S'Multilooping 6'
p284
aS'GAGGCAUAAUGCGGCGAAAGCCGCGUAGGGAAAUCUACAUAAGUGGCGAUAAUUUGCCCUAGCGAAAGUUAGGUGAUGUCGA'
p285
aF0.926829268292683
aa(lp286
S'Cesspool'
p287
aS'GAAGGAAAAAAUACAACAAGAGAGUCAAAGCCAAGGAAAAGCCAAGAAGAAAACAACAGGAGGAAACAACAAAAAGAAAACAACAACAAGUAGGAGAAAACAAGACAAGAGAGACAAACUCCACAACAAGAUAAGACGCAAACAACGAAAGAAAACAAUAAAAAGAAAACAACAUCGAUCAAGAAUAAAAGGAGGGAAAAGAAGGAAACGCAACAAUAAUCCAAGAAGAAAAUGACAGUAGAAAACAUCAAAAAGGAAAUAACAAGAAAGGAAGAAGAAAACAACCCAAGAGGGGCAAAGUCAACAACGAAGGAAGAAGGAAAUAACAGAUCGAAAGUACAAAAAGAAAACAACAACC'
p288
aF0.770949720670391
aa(lp289
S'Hoglafractal'
p290
aS'AAGAGAAAGAUACAAAAGUUAUAAAAAAGUAGCGGGUCGCGCAAAGAUCAAAAAGAUUGUGCGAUAAUAUAAAAGUAGUCGGACAAAGAUCAAAGAUCAAAAAAGAUCGAUCGACAAGACAAAAAGUCCCCACAGCAAAAGCGCAGGUCAAAAAACAAGACGAAAAAGUCGUCGCAGCGAAAAGCGCGUAGAAAGUGAGAUAGAAAAAGCAGCAAAAAAGCGCGACAAAAAGUUGCAAAGGCUUAUAUCAAAAAAGACAAAAAAGUCCCAAAAAGGAAAGAUACACAAAGUGUAUCAAAAAAAGAUAUAUAAAAACUAUCAAAAAGACCGAAAGUCAAAUCAACAAAGAGCAGAUCAAAACCAAAGGCGCAAAAGCGACCUCGAAGGGAUCAGUUCGCAC'
p291
aF0.9
aa(lp292
S'Bullseye'
p293
aS'AAGAGCUACCAAAGAUAAGGAACAAAGAGCAAUCUCAAAGAGAGCUAAAAAAAUGUCAUACAAAAUAUAAGAUGAAAUAUCAAGAGGAAAUUUUGACUACAAAAAUGCAAUUAAAGAUUAAACCCGAAGGGUAAGAUCGAACGUUGUAGAAAAAAAGACCUAUAAGGUAAAAGGGGAAACCACAAGAUCAAAGUGCGUCAAA'
p294
aF0.7970297029702971
aa(lp295
S'Shooting Star'
p296
aS'GAUCUAGAGCCGAUAUGUAAUAGGCUCAGACAGACACCAAAGGAGGUACGUCGGAAAACAAUCAUAUUGAGAUACUAGAGUAGCGGACAUAUAGAGACAGAUCAGCUAAUGACGAUACGUCCAUAUACGUCAGACAACUAUGGAAAACAAUAUGUGAUAUAUUCAAGAGAUAGAGACAAAGUUUCUAUAAAAAGCAAAUAAGUUCAGACCAGACCAAAGUAACACCAAGUGUUGCAGUAAGUAUCUUACGAACGAUAUACAAAGUAUGGCAGAUAAUAAGCCUCGGUCGAACAAGGAAACGGAGCGGGAGGGGACCAGAUCACGAAAACAGGAUACGGCACAACAACACAACGAUCAUGGAUCA'
p297
aF0.8379120879120879
aa(lp298
S'Teslagon'
p299
aS'AAAAAAGUGAAAAAACGAGUGAAAAAAGCGGCAAAAAAAAAAAAAAACCGAAAAAAAUCAAAAAAAAAAAAAAAAGGAGUGAAAAAAACGUCGAAAAAAGCAAAAAAAAAAAAAAAGGGAAAAAAGAAUCGAAAAAAUCUUCAAAAAAAAAAAAAAAUCUAAAAAAAUGUAAAAAAAAAAAAAAAGCUGAGAAAAAAGAGGAGAAAAAAGCAAAAAAAAAAAAAAAGCGAAAAAAGUAGGGAAAAAAAUAGUAAAAAAAAAAAAAAAACAAAAAAAAUGCAAAAAAAAAAAAAAAUCUAUGAAAAAACCGUCGAAAAAAGAAAAAAAAAAAAUGCAAAAAAAAAAAAAAGCCUUCGAAAAAAGGAUGGAAAAAAGUAAAAAA'
p300
aF0.9109947643979057
aa.