(lp0
(lp1
S'Simple Hairpin'
p2
aS'GAUACAAAAAAGUAUC'
p3
aF1.0
aa(lp4
S'Arabidopsis Thaliana 6 RNA - Difficulty Level 0'
p5
aS'GAUAUACAAAAGACAAAAAAAAAAAGUCGAUAUAUCCCCAUAUAUAUAUAUAUAUACAAAGAUACAAAAAAGUAUCAGUAUAUAAUAUAUAUAUAUGAAGAUAUAUCAAGUAUAUC'
p6
aF1.0
aa(lp7
S'Prion Pseudoknot - Difficulty Level 0'
p8
aS'GAGAUCAGAUCAAAAGAUCGAUACUCAAAAAAAAAA'
p9
aF1.0
aa(lp10
S'Human Integrated Adenovirus - Difficulty Level 0'
p11
aS'GAGAUAUAUGGAUGGGAUAUCGAAAAAAAAAAGGUCCAUAGGCGAAAAAGCGAUAUCCCAAGCGAUAUAUAUACAAAAAAAGGUAUAUAUAUAAAACGCGAUAUAAACCGCCGCAAAACUAUGAAAGAUAUGUAAAAAUUAUAUCGACCGAAAAAAAAAAAGAUAUCACAUCAAAACAUAUAAAAUCUCAAA'
p12
aF1.0
aa(lp13
S'The Gammaretrovirus Signal - Difficulty Level 0'
p14
aS'AAGAGAACAUACCAAAAGGUAUGGGUACAAAAAAGAUGAAGACAGGGCCAUACAAAGGUAUGAAAAGCUCGUCCAUCGAGAGAUGUGAAAAUAUAUUUCGA'
p15
aF1.0
aa(lp16
S'Saccharomyces Cerevisiae - Difficulty Level 0'
p17
aS'GAUAAAGCGCUGAAAAAAAGAUCGUAUAAAAAAAAAAAAAUUAAAAACCUGCGAAAAAAGUAGGCUAUAUCAAAAGAGACAGCACAGCGAAAAAAAGUUGCACUAAAAAAAAAAAUGGGAAAAACAGGGAAAAAACCUGUCUAUCUCGAAUGGUAGAGAAAGACGAAAAAAAGGCUGAACUGUAAAAAUCAGUUCAAAAGGUUGUAAAAAUUAUUCCCUUACAUAAAGGGUUAGAAGGUCCAAAAAAGGAUCGAUAUCGAAAAAAGAUGUCAAAAGUACCAAAAAAAGGUACCUAGCUCGAAUGCUACAGAAGAUCAAAAAAAGGAUCCAUAUCGAAAAAAGAUAUGAAAAGACACUAAAAAUGUGUCCUGUAGCUAAA'
p18
aF0.9894459102902374
aa(lp19
S'Fractal 2'
p20
aS'AAAAAGAUGAAUCAAACAUAGAUGUGUAGUUCAAAAAAAAAAGAACGAUGUCAAAAAAAAAAGACAAAGAUCAAAAAAAAAAGAUCAUCAUAUUUAUGAAAGGUGUGUAUGAAGGCUGAAAAAAAAAAGUCAAGAUCAAAAAAAAAAGAUCAACAUCAAAAAAAAAAGGUGAACAUAUACACCAAAAACAUAUAUGAAGAUGAAAAAAAAAACAUCAAGAUCGAAAAAAAAAGGUCGAGAUCAAAAAAAAAAGAUCGACAUAUAUGUUAAAGAUUUAUCAAAAA'
p21
aF1.0
aa(lp22
S'G-C Placement'
p23
aS'GAUCAAAGAUCG'
p24
aF1.0
aa(lp25
S'The Sun'
p26
aS'GACACAGAUCCUAUGGAUAACUGGUCAAUGCGAGAGAUACUAUGUAUAACCCUGCUAUGAUAGAGAUACAAAGGAUAACACGUCUAGUGGAGUGAUACAAUGUAUAACACCCGAAAGAUAGAUAUCCGAACGAUAAGUGAUUAAAGUCAGAGCUAGAAACGAGAACUCGAGGAGGAUAGAGAUACAAACUAUAACUCAUCAAAGUCAGGGAUGCGAAGUAUAACUCGACAAAGAUAGCGAGAGAAGCUCUAACUCAUC'
p27
aF0.8488372093023255
aa(lp28
S'Frog Foot'
p29
aS'AAAAAAAAAAUAACUAAUGUUAGAUCGAAAGAUCGGUCAAAGACC'
p30
aF1.0
aa(lp31
S'InfoRNA test 16'
p32
aS'GAUAUAUCUGAUAUCUAAUGAUAUACGUGUUAUAUC'
p33
aF1.0
aa(lp34
S'Mat - Martian 2'
p35
aS'GAACAAAAGUUCAAAGAUAUACAAGAUAUACAAAAAAAGUAUAUCGUAUAUCAAAGAAUAUACAAAAAAGAUAUACAGAUAUACAAAAAAAGUAUAUCGUAUAUCAAAGAUAUAGAUAUAUCAAAAAAAGAUAUAUACUAUAUCAAAAAAGUAUAUUCAAAGAAUAUGAUAUUACAAAAAAAGUAAUAUAACAUAUUCAAAGAUCAAAAGAUC'
p36
aF1.0
aa(lp37
S'square'
p38
aS'GAUAUACCAUAUCCAUAUACCAUAUCAAAGAUAUGAAAAGUAUAUGAAAAGAUAUGAAAAGUAUAUC'
p39
aF1.0
aa(lp40
S'Six legd turtle 2'
p41
aS'AAAAUUUAACCAAAAAACUAGGCAAAAGCAAUGCUAACUAUAUGCAAAUGCUAACAUAAUUGAAAUCAAAAGAAAAACUAAAAAAAAAAAAAAAAAAA'
p42
aF0.9591836734693877
aa(lp43
S'Small and Easy 6'
p44
aS'GGCGCGAAAAGCAACCGAAAAAAAAGGGCC'
p45
aF1.0
aa(lp46
S'Fractile'
p47
aS'AAAAAAAAAAAAUGGAAAUAAAAGCGAAGGAAAGGUAAUGAAUUUUAAAGAUAAUGAAGCAAAAGCAAAGUAACGAAAACGAAAAUAAAAAAAAAAAAAAAAAAA'
p48
aF0.9619047619047619
aa(lp49
S'Six legd Turtle'
p50
aS'AAAAAAGGAAAGUAAAUAUAAAAGAAAAAUUAAAUGAGAAAUCUAAACCGAAAGGAAAAGAAAAACGGAAAUCAAAGUCAAAAACAAAAAAAAAAAAAAAAAAAA'
p51
aF0.9619047619047619
aa(lp52
S'snoRNA SNORD64'
p53
aS'GAUAUCAAAAAGACAAAAGACAAAGAUACAAAAAAAAAAAAAGUAUCAAAAGUCAAGUCAAGAUAUC'
p54
aF1.0
aa(lp55
S'Chalk Outline'
p56
aS'AAAAAGAUCAGAGACAAAAGUACUCAGACAGACAAAAGUCGUCAGAUGACAAAAGUACAUCAGGAUCAAAAGAUACCGAUCAAAAAAAAAAAAAAAAAAAAAAA'
p57
aF1.0
aa(lp58
S'InfoRNA bulge test 9'
p59
aS'CAUAUACAGAGUGAGCAAUAGGAAACUGUUGCCCCGUGUAUG'
p60
aF1.0
aa(lp61
S'Tilted Russian Cross'
p62
aS'AAAAAGAUCCGUCGAAAGAUGCAGCAGCACAAAGGUGCGAGGCGAAAGCUUCAGGUCUAAUGACCGUUGGAACGAAAGUUCGAUCAAAAAAAAAAAAAAAAAAAA'
p63
aF1.0
aa(lp64
S'This is ACTUALLY Small And Easy 6'
p65
aS'AAAAAAAAAAAAAAAAAAAAAAAAAAAAAAAAAAAAAAAAAAAAAAAAAAAAAAAAAAAAAAAAAAAAAAAAAAAAAAAAAAAAAAAAAAAAAAAAAAAAAAAAAAAAAAAAAAAAAAAAAAAAAAAAAAAAAAAAAAAAAAAAAAAAAAAAAAAAAAAAAAAAAAAAAAAAAAAAAAAAAAAAAAAAAAAAAAAAAAAAAAAAAAAAAAAAAAAAAAAAAAAAAAAAAAAAAAAAAAAAAAAAAAAAAAAAAAAAAAAAAAAAAAAAAAAAAAAAAAAAAAAAAAAAAAAAAAAAAAAAAAAAAAAAAAAAAAAAAAAAAAAAAAAAAAAAAAAAAAAAAAAAAAAAAAAAAAAAAAAAAAAAAAAAAAAAAAAAAAAAAAAAAAAAAAAAAAAAAAAA'
p66
aF1.0
aa(lp67
S'Shortie 4'
p68
aS'CCAAAAGGAGCGAAAGC'
p69
aF1.0
aa(lp70
S'Shape Test'
p71
aS'AAAAAGUGAGCAAGAUACAAAAAAAAGUAUCAAGACAGACAGAUACAAAAAGUAUCAGUACAAAAGUACAGUCGUCAAGCUCUCAAAAAAAAAAAAAAAAAAAA'
p72
aF1.0
aa(lp73
S'The Minitsry'
p74
aS'GACAAAAAGACAAAAAGAGAAAAAGACAAAAAUACAAAAAAAAGUAAGUCACUCGGUCGGUC'
p75
aF1.0
aa(lp76
S'stickshift'
p77
aS'AAGAUAUCCGAAAAACGAGAUAUCAA'
p78
aF1.0
aa(lp79
S'U'
p80
aS'AAAAAGAUACAGAGAGCAGAGAUAUAUACAAAAGUAUAUAUCCGCCCGUAUCAAAAA'
p81
aF1.0
aa(lp82
S'Still Life (Sunflower In A Vase)'
p83
aS'AAAGAUCAAGAAUCAAAAAGAUUCAAGGAGCAAAGUUCCGAGAAACGAAAAGUUUCAGAAUGCAAGGCAUUAAAAUACUAAAUGUAUUAACCUAGAAAAGCUAGGAGAAAGAUCCAGAGAUAUAUAUAGGAUAGGAAAAACUAUCAGAUAGAAAAAAAAAAAAUGAAUUAAAAAAAAAAAAAAAAAAAAAAAAAAAAAAAAAAAAACCUGUUCUAAAAAAAAAAAGCUAUCGGAUCAAAAGAUUCACUAUAUAUAUCUCUGGAUUUUUCGACUUACGAAAAGUAAGAAGCAGCGAAAAGUUGCGAGAUUCGAAAAGAAUCAAGAUAGGAAAACUAUCGAUCUAAGAAAUUAGGAAUAGUCUAAAUGACUGAGAUCAAA'
p84
aF1.0
aa(lp85
S'Quasispecies 2-2 Loop Challenge'
p86
aS'AAAAAGAUAGAUUCGAAUCAAAAGAUUAAAAUCAGGUCACCCAAGAGGACCCUAUCCCCCCGACAAAAAGUCUAGAAGAUAUAUCAAAAAAAAAAAAAAAAAAAA'
p87
aF1.0
aa(lp88
S'Corner bulge training'
p89
aS'AGAUAUCGAUACAAAGUAUCAAAAGAUAUCA'
p90
aF1.0
aa(lp91
S'Spiral'
p92
aS'AAAAAGAUCAGAUAUCAGACAGAUACAGAUCAGAUCAGCAGCAGCAGCAGCAGCAAAAAGCGCGCGCGCGCGAUCGAUCGUAUCGUCGAUAUCGAUCAAAAA'
p93
aF1.0
aa(lp94
S'InfoRNA bulge test'
p95
aS'AAAAAAAAAAAAAAAAAAAAAAAAAAAAAGGGGGAAAAAGGACAAAAGUGCUAAGUACAGCGACAGGACAAAAAGUACCGGUACGAGGUAACGAUGUGACGAAAAGUACCAAAAAACCACCA'
p96
aF1.0
aa(lp97
S'Worm 1'
p98
aS'AAAAAAAGUCUGGAAGAGAAGUGAAAAAUUAUAUUGGGUCUUGUC'
p99
aF0.9111111111111111
aa(lp100
S'just down to 1 bulge'
p101
aS'AAAAAGGACACAUACAAAAGUAUGAGACAAAAGUCAGUACCAAAAGAUCAGACAAAAGUCAGACAAAAGUCAGAUCAAAAAAAAAAAAAAAAAAAA'
p102
aF1.0
aa(lp103
S'Iron Cross'
p104
aS'AGUGAAUAAAAGAGACUUAAAGGGGUUCAAGAGAGACUCAAAGUCAAUCAAAGGAUGGAUAAAUGCAGUUGAAGGGGCUAGAAAUGGACAGAAACUGACCCAAAGACGCCCAAAGGGCUGCAA'
p105
aF0.943089430894309
aa(lp106
S'loops and stems'
p107
aS'AAAAAGAUAUACAAAGAUCAAAGAUCAAAGAUCAAAAAAAAAGAUACAAAAAAAAAAAAGUAUCAAAGAUCAAAAGAACAAAAAAAAAAGUUCAAAGAUCAAAGACAAAAAAAAGUCAAAGAUCAAGCAAAAAAGCAAAGUAUAUCAAAAA'
p108
aF1.0
aa(lp109
S'Water Strider'
p110
aS'AAAAAUGUAGAAGACAUGGUUUAAUAGUGUCGAAAGACCGCAAAGAUCAGUCGAAAGGUAUCAAAAGUCAUGCUCAGCUUCGGAAAAAAAAAAAAAAAAAAAA'
p111
aF0.941747572815534
aa(lp112
S'The Turtle(s) Move(s)'
p113
aS'AAAACCAAUGAGAAUGAGAUACUCAAAAAAAAGGGGUAUCUCUAAUGAUGAAAAAUAUCUGAGUAUAUAAUGGUCAGGAUACUAAAAAUGUAUCAAAAGGCAAGGCGAAAGCAGAUCGGGAAAACCCAAAAGUUAUCGAAAAAAGAUAGCAAAAGGCAAAACCCAAAAAGAGAUGAAAAGACCAAAAACGUCAAGUCUAAAAAAUGACAAACAUACAAAAAAGUAUGAAGGAUUAAAAGAAUCAACAUCUCAAAAAAAAAGCAAAAGCAGUGAGCGAAAGCGAAAAGGAUACAAAAAAAAAAGUAUCAAAAAACUU'
p114
aF0.9620253164556962
aa(lp115
S'Adenine'
p116
aS'UAAGCAAGUAUGGGAGGUGGGAGGCCAGAUAUAAGUUAUCCAAAGCUAUCAAAAAAGAUAGCCGAUAACAGACACAAAGAUAUACAAAGUAUAUCGUGUCAUAUAUCAGAUAGAUAUAUCAAAGAUAUAUAAACUAUCAGGUCUCAAAAUAUCUCAAAAUAUAUUAAAGGCUUA'
p117
aF1.0
aa(lp118
S'Tripod5'
p119
aS'AUGAAGUCACAAAAGGUGAGAGAGAAAAUUUCCUUCUA'
p120
aF1.0
aa(lp121
S'Shortie 6'
p122
aS'GCAAAGGUAGAAAAAUCGGGAAAGCUGAUAAAGGU'
p123
aF0.8857142857142857
aa(lp124
S'Runner'
p125
aS'AAAAAGGUGAGGUAGUAAAUUUCAAAGAAAAGAUCAAAGAUGAGAGAUGUAUUGUAAACGAAGAAUCAAACGUAAACUUAGUCAAGAACAAGCAGAAAAUUGAGACGUAUUAAAAA'
p126
aF0.896551724137931
aa(lp127
S'Recoil'
p128
aS'AAAAAGAUACAAGCAAGCAAGACAAGACAAGCAAGCAAAGCAGCAGUCAGUCAGCAGCAGUAUCAAAAAAAAAAAAAAAAAAAAA'
p129
aF1.0
aa(lp130
S'[CloudBeta] An Arm and a Leg 1.0'
p131
aS'AAAAAGACAGAGACAAAAGUACUCGACAGCAAAAGCGUCAGUCAAAAAAAAAAAAAAAAAAAA'
p132
aF1.0
aa(lp133
S'[CloudBeta] 5 Adjacent Stack Multi-Branch Loop'
p134
aS'GACUCGACCGAAAGGUCGGGGCGAAAGUUCCCAUGCGAAAGCAUGGUCCGAAAGGACGAGUCA'
p135
aF1.0
aa(lp136
S'Triple Y'
p137
aS'AAAAGAAUAAGUCGAUCAAAAGGUCUAGCAAAGGUAGGAGUUGGUAAUGAAAGCGUCGGUGCAAGUAUAAUCAUAUUAAAAAAAAAAAAAAAAAAAA'
p138
aF0.9175257731958762
aa(lp139
S'Misfolded Aptamer'
p140
aS'GCUCAAAAAGGUGGCAAGGCCCAAAAAGUUAGAGGAGGGAAAAAAAGAGC'
p141
aF0.92
aa(lp142
S'Flower power'
p143
aS'AAAAUGUUCUGUCAAGGGCUACUAAGAUCGAAGCUUAAGGCCGAAGGUCGCGGUCUGUGAAAUUAGAUGGCGAAGCCAGGGCUAAAAAAAAAAAAAAAAAAA'
p144
aF0.9215686274509803
aa(lp145
S'Kudzu'
p146
aS'AAAAAGAGUAAUGAGAGGGUGGCUACGAAACGAGACCUAGUUGGCAAAGCACCAUAAGCCGAAGGUGAACUCGCUAUUCUCGAAAAAAAAAAAAAAAAAAA'
p147
aF0.9603960396039604
aa(lp148
S'"1,2,3and4bulges"'
p149
aS'AAAAUGGAGACGCCGUAACUGAAAAGCGGUAGAAAGCUUAUUACCUAAGGCGUAAGUGAAUAAAAUUGUACGAAAGUAGGAAAGCAAAAAAAAAAAAAAAAAAAA'
p150
aF0.9809523809523809
aa(lp151
S'medallion'
p152
aS'GUUAUCACUUACGAAAACGUAAGGCACAAAAGUGAGACAAAAGUGGCAUAUCAAAAGAUAUGAAACAAAAGUCACAUAUAAAAAUGUCUGGCUCAAAAGAGACAGAAAACUAUCGUAUCAAAAGAUAUGACGAAAAAGCGACGUUUUAAAAGAAACGAUACUAAUGUAACUCAAAAGUGAGAUACCUAAUGGUAUUACACAAAGGAAACAAAUAAAAAUUUAUGACGCAAAAGUGACACAAAAAUGACCUAACAAAAGUUAGGAUACGAAAGUAACAUAACAAAAGUUGUGAAACAAAAGCGAGUCAAAAGGUACAUCUCAAAAGGGAUGAGAUAGC'
p153
aF0.8753709198813057
aa(lp154
S'[RNA] Repetitious Sequences 8/10'
p155
aS'AGCAAAAAAGCAAAAAAGCAAAAAAGCAAAAAAGCAAAAAAGCAAAAAAGCAAAAAAGCAAAAAAGCAAAAAAGCAAAAA'
p156
aF1.0
aa(lp157
S'Documenting repetitious behavior'
p158
aS'AAAACAUUUAAACUUAAACUAAAUCCAUAGAGACUUAAAUUGUAUUUAAAAACUAAUUUAAAUCUAAUUACAAUCAAAUUUAAAGAGAAAUUGAAGGGUAAAAAAGACAAAAAAAUAGCAAAAAAUCAGCAAACAAUUAGCAAAAAACUGGCAAAAAAUUCUGAAUCAAUGUUGGAAAAAUUCAUAAAAAAAUAGCUCAAGAAAUGCAAAUUUAAGAUUAAUUCAAACGUUACUUCAACCCAAUUAAAAGCAACUUUAAAGCGAAUAUAAGCUGAAUUCAAUGUCAGCUUCAGCGAAAAAAAAAUCAAAAAAUUAUUGAAAAAUUUUAAAAAAAUUUUGGAAAAACUUGUAAAAAACUUUGUAACAAUUAAUAAAAACUCUAGGAAAAAACUGAUAAAAA'
p159
aF0.76
aa(lp160
S'7 multiloop'
p161
aS'CGGCGCUCUGAAAAGAGCCUAUCGAAAGGUGGCGUGCUAAUGUAUGGGGAAGAAAUUCCCCCCGCGAAAGUGGGGAGACGAAAGUUUCGCCG'
p162
aF1.0
aa(lp163
S'Kyurem 7'
p164
aS'AAAAGGAUCCGCCCCGAAAGGGGAAAAAUCAGGAUAUGAAAAAGGGUACCUCCAAAAUGAGAAAGGACCUGGUCGCGAGAUCAAAAAAAAAAAAAAAAAAAA'
p165
aF0.9411764705882353
aa(lp166
S'JF1'
p167
aS'GAUAUAGAUAUAGAUACAAGAUACAAAAGAUAUCAAGAUACAAAGAAUCAAGAUAUCAGAUAUAUAUAUAUCAAAAGAUAUAUAUAUAUCAAGACAAAAGUCAGAUAUAUACAAAAGUAUAUAUCAAGAUACAAAAGUAUCAGAUAUCAGAUUCAGUAUCAGAUAUCAAAGAUAGAUCAAAAAGAUACUAUCAAGAUAUAUAUGCAUAUAUAUAUAUCAAAAGAUAUAUAUAUAUGACAUAUAUAUCAAAGAUACAAAAAAGUAUCGAUAAUAUACAAAAGUAUAUUAUCAAAGAUCAAAAGAUCAAGUAUCGAGUAUCAGAUCAGACAGACAAAAGUCGUCGAUCAGAUGAUAUCAAAAGAUAUACAUCAAUAUACUAUUAUCAAA'
p168
aF1.0
aa(lp169
S'multilooping fun'
p170
aS'CCCCAACUUUAAAAAUGAAAAGGAGGAGUUAACAGG'
p171
aF0.8333333333333334
aa(lp172
S'Multiloop...'
p173
aS'GGUAAGAGCAGCUAAAAGGCAGACAAAAGUCAGAGAAAACUCAGUCGAAAGACAAACGAAAGUUAGGCAAAAGCCAGUUCAGAUACGAAAAAGUAUCGACGAAAGUCUACC'
p174
aF1.0
aa(lp175
S'hard Y'
p176
aS'AAAAGGGUGGGACCUAUCUUAAAGAAGAUGGCGCCCAGCUAUACUAAAGGGUAUAGCUGCACCAAAAA'
p177
aF1.0
aa(lp178
S'Mat - Elements & Sections'
p179
aS'AAAAAGAUGUGGAGUUGGUGUUAGAUUACGAGGGUUAUAGAUAAAAGUCAAAUGCUCAACGAUCAAAGAUCGCCUGAGACUCAUCGAAAAAAAAAAAAAAAAAAA'
p180
aF0.9619047619047619
aa(lp181
S'Chicken feet'
p182
aS'AAAAACCAGCAUAAAGGGGACAACGUAAAGAGUGCCAACAGUAAAGCUCGAAACUUAGGUGGAAAAA'
p183
aF0.8805970149253731
aa(lp184
S'Bug 18'
p185
aS'AGGUCGAGCACAGAAUAUGUAGAAAAUAAGGUUACAUAAGGAGGCGAAAUCCA'
p186
aF0.9622641509433962
aa(lp187
S'Fractal star x5'
p188
aS'AAAAAGAUAUAUGAAGAGCAAAAGCUCAAGGUCAAAAGAUCAGGUCGGAAUUGACAAGAUAAAAAUAUCAGCAUAUAUCAAAAAGACAGGGGUACAGCAAAAGUUGAAGAUCAAAAGAUUACGAUUAAAAGGUCAAGAUAAAAAUAUCGUUCUCUGUCAAAAAGAUAUAUUAGGUUGGAAAUAGCAGGAUCAAAAGAUCAAGGUCGAAAGACCAAGAAUAAAAGUUCAAAAUAUAUCAAAAAGGUAUAUGAUCUGAAAAAUCGGUUGCAUCAAAGUGCUAAGUCAAAAGACUGUGAGCGAAAGCUUCCCAUAUACCAAAAAGAUAAAUGGAGAGGAAAACCUCAAGAUCAAAGGAUCGUGGUGAAAAUACCUAGAGCAAAAGCUCAACAUUUAUCAAAAA'
p189
aF1.0
aa(lp190
S'Crop circle 2'
p191
aS'UCAAAGAGAAGAGUAAAUGAAAAAAAAAGGCAAAAAAAAAAAAAAAAAAAAAAAAAAAAAAACAAAAAAAAAAAAAAGGCUAAAAAAAUCUAAAAAAAACGAAAAAAAAA'
p192
aF0.9636363636363636
aa(lp193
S'Branching Loop'
p194
aS'UGAGUAUAAAAAAUUUGGCGAAAGCUACAACUCUAAAAAA'
p195
aF0.95
aa(lp196
S'Bug 38'
p197
aS'GGGAUUGUUAAUUUGAAAUAGGAAGAAAAUAAAUUA'
p198
aF0.9444444444444444
aa(lp199
S'Simple Single Bond'
p200
aS'AAAAAGUGAAAAAAAACUUAAAAAAUGAGGAAAAAAAAGAAAAAAAAAAAAAAAAAAAAAA'
p201
aF0.9672131147540983
aa(lp202
S'Taraxacum officinale'
p203
aS'GUGGAAAGCAGGAAGAUGAAAACAAACAGGGGUAAUCACUCGUCCCAAAAGAGGAAGCUCAAAAGUGACAGCGGAAAACACUGUGAUAUAUAUAUGAUUUCGAUGCAAGGUAUACGAAAUCAGGUAUAAAAUUUAUAUGAAGAUAUACAAAGUAUAUCACAUGUAAAUUCAUCACAUCUCUAUGAGAUGGGUGGUACCAAAAUAUAUAUAUCUGAGGGAAACACUCAGUACAAAAGAUAAAUGUGAAAGCAGUGAAAGUAAAUGACUCAGGGGAAAACAUCC'
p204
aF0.9078014184397163
aa(lp205
S'Headless Bug on Windshield'
p206
aS'AGCGGCAAAAAGGAUAGAAGCAGACAAAAAAAAAAAAAAAAAAAAAAAAAGUCGACAAAUAUACCGAGGCAGCAAGCAUGUUAAGCGAAAAAAGAGAAAUCAAAAAAAGCAACUAAAAAACUGAAGCCGAAAAAAAACGAGGAUCGCCCGCGGACAAAAAAAAAAAAAAAGUCAAGCAAGUGUGCUAGUUAAUGAACUCA'
p207
aF0.97
aa(lp208
S'Pokeball'
p209
aS'AAAGGUACUCAAAAGUUAGUGAGUUAAGUAGUGAAGGCCGUGGCGAGGGUAUGGACGAACCACCACAAAAGAAGCAACUACGGGUAUCAAAAAAAAGGGUUGUAAAGGAUGGAGAGCCAAUCACCUUAGGAACGGACGGCCGAAAACUCGAACGCUUUAGAGGAGGCCAUCAUUAUAGUCCAAA'
p210
aF0.9565217391304348
aa(lp211
S'Variation of a crop circle'
p212
aS'AAACACAAAGCCAAAACCAAAAUAGUCCAAUUAACCGGGGAAAAAAAAAAAAAGCAAAAAAAGCAAAAAAAAAUUAAAAAAAAAAAAA'
p213
aF0.9545454545454546
aa(lp214
S'Loop next to a Multiloop'
p215
aS'AUGAUAUAUCAAAAAAGCGGUUAUCUAAUGAUAACAGAUUUAAUAAUUUAGAUCGGAAAAAAAGAUAUAUCUA'
p216
aF0.9726027397260274
aa(lp217
S'Snowflake 4'
p218
aS'GAUGAAGGAUCUAUACGGAAAAGCCUGACAAGAUAUCCAAAGCGCAUAAGAGCAAAGUUCAAGCUCAAAGAGCUUAUGCGAAAGAGAUGUCGUGAUAGGCUAAUGAUAUACCAUCAAAGAUGAAGAUCAAUUCGAGUAUAACAAAAGCUUAUCUUGAAACUCAAAGGCAAUCCCAUGGAACAUGAAGAUCAAAGAUUGGAUUGCAAAAGUGAUUCUAGAUAGGGAAAACCGGUCCCAUGAACCAUGAAGUUUAAAGAACGGAUCAUUAAUGUCUAUCAGGAUAGCGGAAACGCUUACGAUGUAUUAUCAAGCUCAAGUAGCGAAGGCAGAAACACUGUCAAGUCGGCGAAAGCGGUAUAGAUAAAAUAUC'
p219
aF0.8918918918918919
aa(lp220
S'Mat - Cuboid'
p221
aS'GAGGCAAAAGCAAGCAAAAGCAAGCAAAACAAGAAAGCAAAAGCAAGCAAGCAAAAGAAACAAACAAGAAAAAGGAAGCAAGCAAGCAAAACGAAGCUAGCAAGGAAUUAAAAGCUCCGCCCGCCCGCCUGAAAAGCCCUGCCCGCCCGCCCCCCCGAAAAGCCCCGCCCGCCCGCCCGUCCGAAAAUCACCGACCGCCCGCCCGUACGAAAAAACGGUCGAACGAACGAACGAGGGCGAACGAACGAACGAACGAAGCCGAACGAACGAACGAACGAAGCCGAACGAACGAACGAAGCACAAUCAAGAGUGCCACCACAAGCAAGCAACCGCCAGCAAGAAACGCAACCGGGCGCAAGGUAGGCAAGCGCAAGCGCAAC'
p222
aF0.9421052631578948
aa(lp223
S'Misfolded Aptamer 6'
p224
aS'AAAAAUGCCGAAAAGCCUCGGCAGGACUAGAAAAAAGUGGGGAGGAAAAAGAGGAAAAAAAGGCUAAAAAAAAAA'
p225
aF1.0
aa(lp226
S'Snowflake 3'
p227
aS'UACGUAAAAACAUACUACAAAGGGGAACAUCAGAUUAAGGCAAAAGUCAAGAGAUAAUGCUACAAAGUGGCAAAAACACUUGACAAAAGACAAAAUCGGAGCAAGAAUAAUGUCCACUGCAAAAUCGGCAAAGCCGCAAAAGCUGUGGAGUAACUUCAGGCUCAGGUGAAGGCAAAAGCGGGUAAGAAAAUUACGAAGUUUUCUAAUGCAGACAAUAAAAGUCAGUACCAGUUUAACACGAAAGUGGACAUCGAAAACGUGAAACACGAAAAAGCAGUCGAGGAAACCCAGAAGCAGAGCAAGACAAAGAUAGACGGGGAAAGCGGUAAAAUCGCAAAAACAGUCCAGAAAGGUCAGGCUCAGAUGAAUACAAAAGUGGUAAGCAAAAGCGUG'
p228
aF0.8473282442748091
aa(lp229
S'Hard Y and a bit more'
p230
aS'AAAAAAACGCGGCCAUGGUAAUCCAUAUUUGUUACAGCGAUAUUAAAAGAAAAAGAUGCAAAAAGGCGUUGAGCGGUAGCGCGUUAAAAAAAAAAAAAAAAAAAAA'
p231
aF0.9716981132075472
aa(lp232
S'Mat - Lot 2-2 B'
p233
aS'GAAGGCCCUGGCAUACAAAAGAACAGACAAACGUAAAACUAAGUCUUAGUAAAACAAAGCCGAAACAAGCCCCGCGGGCGAAAAGCCCCGCCCUCCAAAAACAAAACUCGUAGCAAAACGAAGCCGAAUCGUCCCGAAGGAAAAUCUCCCAGACCGAGAAAAGCCUUGACAAAAGUAAAAUGUAGCCGAAGUAAAACGAAGGCGAAACAACCAAUCCUCCUUAAAAACGUCGAUCAAGAAAAUCAAAAGGUUAAAUAAAACGAAGGAGAAGGGUGACGAACUAC'
p234
aF0.8063380281690141
aa(lp235
S'Shapes and Energy'
p236
aS'AAAACACAGUAAGCAUCAAAAUAAGGUAUUGGAAAUUGAGUAAGAGAUAGGCUAAAAGAGGUCAAAUAACGGCAUGGCGCGAAAAAAAAAAAAAAAAAAAA'
p237
aF0.9603960396039604
aa(lp238
S"Spiral of 5's"
p239
aS'CGAAAGAUACAAAGAUACAAUGAUACAAAUGAUACAAAGAAACAAAGAUACAAGAUACAAAAGAUACAAAGAUACAAAGAUACAAGAGACUAAGAUACAAACAUACGAGAUACGAAGACACAAGAUACAAGAUACAAGAUACAAGGUACGGAUACAGAUAGAUAUCAAAAAGAUAUAAAAACUAUUAAAAAGUAUCGAAAGGUACCAAAAAGUAUCAAAAAGUAUCAAAAAGUAUCGAAAAGUGUCAAAAAGUAUCAAAAAGUAUGAAAAAGUAUCGAAAUGUCUCAAAAAGUAUCAAAAAGUAUCGAAAAGUAUCAAAAAGUAUCAAAAAGUAUCGAAAAGUUUCAAAAAGUAUCUAAAAGUAUCUAAAAGUAUCAAAAAGUAUCAAAAAGAAAAA'
p240
aF0.9949622166246851
aa(lp241
S'Campfire'
p242
aS'AAAAGAGGGAAAUUGAAGAUGAAGUGCUAAAUGCACACGAUUAAAGAUACGUCAUCUGGUUGAGGAGCAGUGACGAAAGAACACGCCCGGGGCAGCACUAGAUAAUUCGGGCUAUCGGAGAAAACUAAGCGGAAGGCACUACAAAUCGCACUUGACGCACAGAGAUUCCAAAGGGGGUUCGUGUCGAGAUCAAGGAUAGUACGCAGUCACAC'
p243
aF0.8443396226415094
aa(lp244
S'Anemone'
p245
aS'AAAAGUAGAAAAGUUUACCUACCGAAAGCGGUAGGAUAGGGAAUGCAGCGGAACGAAAGUUCCGAGAGGGAAACCUCUCUAUACUAAUGUAUGUGUCCAAAGGGAUAGACGUCUAAUGGCGUCAGAUCCGAAAGGAUCGGUGUCAAAGGACACCGGGUUGAAAAAAGAUAUAUGAAAGCAUAUGGAUGCUAAUGCAUCGGGGUUGAAAAAUUCC'
p246
aF0.8785046728971962
aa(lp247
S'Fractal 3'
p248
aS'AAAAAGUUCAUUGAGUAAAAGCGCAAAAGCACACACAUGUGAAAAACCUAAAAGGAAACAGACUAAAAAUUUGCAAAAGCUUUCGAUCGGUAAAAACUGAAAACGAGGUAGAACAAAAA'
p249
aF0.9327731092436975
aa(lp250
S'Kyurem 5'
p251
aS'AAAAGAAGGAGCGCAAAAGUCCGACAAAAGAUCGAUUAAAGCCUAAAUGGCGGUCUGUUAAAAUACACGAUCCUUGCUAACCUUAAAAAAAAAAAAAAAAAAAA'
p252
aF0.9230769230769231
aa(lp253
S'Snowflake Necklace ( or v2.0 )'
p254
aS'GAUAUAUACUUCGACAGAUACAGGGAAAAUAACGAAAAACGACGAAAAACGACCGAAAACGAUAAAAAGGAAGUAUCGGACAAAAAGCAAGUCAGAGUAAAAAGCACGAAAAACGAUCAAAAAGAACGGAAAACGACGAAAAACGACCGUCGAUCAAAAACACAGACAUAGCAAAAGGCAUCAAAAAUAGCAAAAAAUGAUAAAAAGGUAUAAAAAACGUGUGUUCGCAGAAAAGCCAGAGAGAGGAAAAGGCACGAAAAACGGGUUAAAUGUAUUGAAAAAAUCCAAAAGCCAUUCGCGGAGAAAAAGUCAGAUAGAGGAAAAGGCAUUAAAAAAAAGCAAAAAGGGCGGAAAACGACCAAAAAAGGUUAUCGGUUGGAGUGUAUAUC'
p255
aF0.8431876606683805
aa(lp256
S'Methaqualone C16H14N2O Structural Representation'
p257
aS'AAAAAAAGAUCAUCGCAGAAAUAGAAAAUUAAGUCAGACAAAAGUCAGGCAGAUGAAAGCCAGACAUCGAAAACGGAAACAAAAAAGGUUAGUCAGCCAGACAUUCAGAAAUAGCGAAGUACAAAGAGCGCGAAGAAAAUAAAAAAAAACCGAGAGAGCAUAAUUCCGAUAAAAUUCGUCAAAAGACCUCAUCAAAGCUCGGGGAUGGCUAGACAGUCACACAGAUAAAGGACAAAAGUCAAUCAGAAAAAGUUCAGUGAGAGAAAACUCGGGCAGUCAAAAGGCAGUCAGAUUUGUAAUCAAGGGAAAAUCCAGAAAAAAAUCAUCAGGCAGAACAAAGUACAGAUCAAAAAUU'
p258
aF0.9014084507042254
aa(lp259
S"Cat's Toy 2"
p260
aS'AAAAGGUUUAGCAAAAGGUGGUAAAAAAAAAAAAAAAAAUCAUUCCAAUUUAAAGUAAGUCCAAUGAAAAAAAAAAAUAAAAUCGGCUAAACCAAAA'
p261
aF0.9587628865979382
aa(lp262
S'Zigzag Semicircle'
p263
aS'AAAGACUGGGACUAAAAAUAAUAUAUUAGUAAAA'
p264
aF0.9411764705882353
aa(lp265
S'Short String 4'
p266
aS'AAAAAAGCAUCAUAGAAGUACGAUCAUCAAAGACGCAGCAAAGAGCACGCAAAAGUAGGCAAUAAUCACUUGCCGAAAAAAAAAAAAAAAAAAAAAA'
p267
aF0.9381443298969072
aa(lp268
S'Gladius'
p269
aS'UGAAAGAAUGGGCUAAAUUGUAGAAGUAACACAGCGAAAGAUAAAAAUAUCUGAGACAAACCACAAUGGCCAGAGCGACCAAGUGAUAUAUGAGAUCUGAGGUGGAGAUCAGAUCAGGGUCAAAGAUCAGAUACGAUCAGCAUCCAAGAUCAAGUGUAUCUACCGGUCAAGGUGGCAAAGGUGAAUGGUCUCUUGCAAGGACGCAAUUGGAUUACAAAAGAUCAGUCGGGGAAAAGAUAUCCAGAAUACAGAUACAGACAUCAGACGAUUAUAGAAAUGUAGUAAGUCGAAUGUACGUAUACGUAUUCCGGAUAUCAUUGCACUCAGUGGUCAGGAGUAUCAGAAUUGGGUACAAAAGUACAAAGACAGUGAUUCGACGGAUAAAAGAGUAAAAUAAAAG'
p270
aF0.89
aa(lp271
S'Thunderbolt'
p272
aS'CCAAGAUAGAAAAAAAGGUCGAAGCGGAAAAAGAAAUCAGCUAUAUUUAAAAAAAAUUAAAAAUUAACAAAAAGGUGUAAAAAGAAAACUCGCGAAAAAAAGGCUAAAAACGAAUAUGCAUCCAAAAAGUAAUCAGACUAAAAAGACAAAAGGCACGUAAAAUAUGGACAAAAGGUCAGCUCAAAGUAAAAAACCCCGGCGAAGCAGAAGAAAAAAUUGAAGAGUAAAAAAAAAGUCAAAAAGAAGUGAAACUUUUCACCAAGGUAAAAAAAAAACGAAAAAUAAAAAAAGAAAUAAAGAGAGUGGGAAAUGAAAAAAAACUAAAAUCAUUCAAUGACAAUAAUAUAGCAAAAAAAACCGCGGACUCAAAAACAAAAAAAGACUAUCAGGGA'
p273
aF0.9107142857142857
aa(lp274
S'Mutated chicken feet'
p275
aS'GAAAAAAGCAGCAACGAAGUGACAAAGUAAACCGAAGCACCUGGUAUCCUGCAAAGUAAAGGGCAGUAACACCAAAGAUGUAAAGCUAAGCACGAAAAAA'
p276
aF0.82
aa(lp277
S'Chicken Tracks'
p278
aS'AAAAAAAAGCUAUAUCAUCAAAAGAUGCUGAUCAAAAGAUCUAGAGCAAAAGCUUGUGUAGCAAGAGGAUCAAAGAUCAAGGCCUAUGGCCAACAGCAAGGCUGCUCAAUUAAAAA'
p279
aF1.0
aa(lp280
S'Looking Back Again'
p281
aS'GCGAAGACAUGCAAAAAGUUAUCUAUGAUAACGGUAUAAGUAGUCAAGACUAUGUCGGCAGAUAUAAAGAUCGAAAGAUAGAAUGUAUCGAUGCAAAUCAGGAUGUUCAAAAAGAGACGAAAGUUUCAAAAAAGAAGAGCGGAUGGAAACCAUCCUUCCAAAGUAACGGUAUCCAAAAACCAAAAUCGAACCGACCGAAAGGUUGAUGUUGCGCAUGUGGGUGAAAGUCAAAAUACCUGACGCUCCAUCGCGUACAUUUAAAAAAAGGGAGGGAAAAAAAAGAUCGAAAAGAUCCCUUAAACCCAUAAAGUACAAAAAACGGAGAUCAAAAGAUCUCAAGCUCAUAUCGAUAUGCAAAGCAUAAAAGGAGAAAGGUACGUACGAAAAGC'
p282
aF0.8920308483290489
aa(lp283
S'Multilooping 6'
p284
aS'AAUCAAUGGUGUUUAUAGUGGAACAGAACGAAAGUUCUGUGGCCCGAACGAAAGUUUGUCGGUGAAAACUGCAGCAAUGAGA'
p285
aF0.9512195121951219
aa(lp286
S'Cesspool'
p287
aS'GAACAAGAAAACAAGAUUCAAGAUCCCAAGGAAAGAAGAAGUGAGGAUUAAAAAUACAGCCCAAAUGAACAGAGAGAAAAUGAAUAUAAGCCCAAUUAAUGAAGACCCCAGAGGAAAACCUAACAAGCAGAGAAACAUAAAAAGACAUACCGAAAGAAGAGAAGGAAAACACGAACAAGCCGCAAGAAAACAAGACCCCAGUGAUAAAAUCUACAAGAAGUCAAACCUGAAAAAAUUGCCCGAAAGAACACAACUGAAAAGCGAAGCAACCCCCAAGAAAACAAAACCCCUGUUUCAAAAAAAUCUAAAAGUUAAGCCGGAAAUAACAGCCAUAAUUAACAGAGGAAAAAAACGAAGC'
p288
aF0.7346368715083799
aa(lp289
S'Hoglafractal'
p290
aS'AAUAGGAACAUACAAAAGAUCCAAAAAAGGAUCGCAAGCAAGAAAGGCCGAAAAGGCUGAUCAACAACACUAAUGUCGUCAGAGAAAGAUCAAAGAUCAAAAAAGAUCGAUCGAAAAGCCAAAAAGGCUUUGCAGCAAAAGUGCGGAUCAAAAAAAAAGACGAAAAAGUUUUCAAAUCAAAAAGGGCCACAAUAGUGAAUUACAAAAAGGAGCUAAAAUGCCCGACAAAAAGUCGUAAAAGCAGAUAUCAAAAAGGACAAAAGAGUCACAAAAAGGAAGUAUUUACUAUGUAGAUGAAAAAAGGAUAUCAAAAAAGUAAUAAAAAGAUCAAAACACAAACCAAACAAGCGCAGAUCAAAAGCAAAAGCGGAAAAGCUAUAUCAAAGAUAUGCGAUCGCAC'
p291
aF0.91
aa(lp292
S'Bullseye'
p293
aS'AAUCACCAUCGAAGGUAAGGCCCAUGUGUCAACGUCGAACUCGGCCUAAAAAAAGAUGCCCUAUGAAUAUGAUUGAUAAUAUAUAACAAAGUUAAACGAAAAAAGAUCGAUCGAAGGUCAGGCGCUAUGCUCAAGGGCUAUGACCGGUAAAAAAAGAACAGUAAACCAUUAGUGUCGAGGAAGAAGUUUAAAGGAUGUCAAA'
p294
aF0.7871287128712872
aa(lp295
S'Shooting Star'
p296
aS'GAUAUAGAAGCUUAUAGUAGGAGCCCGAGACAGGCAGGAAAACACGCACGUCACCGUACGAUCUAUAACAGACUAGACAGGACGGGAGAGAUGCAGGUAUAGGAUGGAAACAGCCUAGGAUGUCAUAGCUCACAGAAAGAACGAAAACCACAUCGCUCGAUAUUAUAUAUUAUAUCGAAAGUAUGCAGAAAACGGACGGCACUCCAGUUGAGCAGAAAGAUAUCCGAAGGAUAUCGGAUAUAAGGUAUCCGACGAUAUACGAAGUAUAUCAGGUAAAAGCUGCCCAGCUUUGAAGAAAACGACCAUGCCCGGAGACAGAUGAAGAAAACAAUAUACGUCACAGGAACUGAAUCAAGAUAUAUCA'
p297
aF0.7774725274725275
aa(lp298
S'Teslagon'
p299
aS'AAAAAUUCAAAAAAGGUAUCAAAAAAAUCAGAAAAAAAAAAAAAAAAACAAAGAGAAAAGAAAAAAAAAAAAAAACUAGGAAAAAAAGGAGUAAAAAAGUCAAAAAAAAAAAAAAAGUAAAAAAAUCAGCAAAAAAAGAAUAAAAAAAAAAAAAAAAUAAAAGAGAAAGUAAAAAAAAAAAAAAACUAGCAAAAAAAGCACUAAAAAAAGCAAAAAAAAAAAAAAAGUGAAAAAAGGAUCAAAAAAGGGGGCACAAAAAAAAAAAAAGGAAAGAGAAAGUAAAAAAAAAAAAAAAGCAUCAAAAAAUGAAAGAAAAAAAGGAAAAAAAAAAAAUUAAAAAAAAAAAAAAAAAAUCAAAAAAACUGUCAAAAAAAGGUAAAAA'
p300
aF0.9083769633507853
aa.