(lp0
(lp1
S'Simple Hairpin'
p2
aS'GAUACAAAAAAGUAUC'
p3
aF1.0
aa(lp4
S'Arabidopsis Thaliana 6 RNA - Difficulty Level 0'
p5
aS'GCAUGUCGAAAGAGGAAAAAAAAAACUCGAAUCUUCAAGAUUAAUGAAUUUCUGCUUAAAGAUACGAAAAAGUAUCGGGGCAGCAAAUUUAUUGAUCAGGAAGAUUCAAGACAUGC'
p6
aF1.0
aa(lp7
S'Prion Pseudoknot - Difficulty Level 0'
p8
aS'GUAGAGAGAUCGAAAGAUCCUCAUACAAAAAAAAAA'
p9
aF1.0
aa(lp10
S'Human Integrated Adenovirus - Difficulty Level 0'
p11
aS'GAUAAUGGAGCGUCAGCUAUAAAAAAAAAAAGUAGCGCCUGUCCAAAAGCCCGUUGCAAAAGCGAGAGAUUCGUAAAAAAAGACGAAUCUUUUAAACGCGCGACAAAAGGGGGAUAUUCAGGCCAAAGGGAGUAAAAAUCUCCUUGCUGAAAAAAAAAAAGUGUAGUGGAUGAAACCUCCAUAAAUAUCAAA'
p12
aF1.0
aa(lp13
S'The Gammaretrovirus Signal - Difficulty Level 0'
p14
aS'AACUCGGUUUAUGGAAACAUAGGAAGCGGAAAAGGAUCAAUAGAGUCUCAUGCGAAAGCAUGGAAAAGGCCUAGAUCAAGAGUUGUCAAAGGAUAAUUCAA'
p15
aF1.0
aa(lp16
S'Saccharomyces Cerevisiae - Difficulty Level 0'
p17
aS'GCUGUUCGUAUUAAAACAUAUACAGAUAAAAAAAAAAAAAUUCGAAAAAUAUUAAAAAUAUAUUGAGCAGCAAAUGCAGAUCAAGACUUAAAAAAUGGUCGGGAAAAAAAAAAAAACCCAAACGGUAUUAAAAAUGUACCGAUCUGCUAAAGGCUGUUAAGAUGAAAAAAAGCCUCGCGUCGAAAAAAGCGGAGCAAAAGUUGCAAAAAAAGCAACGACAGCCGAAAUGUUCUUAAGUUGAAAAGAAUUAGCGUUAUGUAAAAAUCAUGACAGAAGGUCCUAAAAAUGGAUCGGGAAUAGAAUUCCCUUUAAAAAGUAAAAAAUCCUUCUUGUGGAAAAAACACAGGAACAGAUAUUAAAAAUGUAUCGAAUGGGUAAA'
p18
aF0.9894459102902374
aa(lp19
S'Fractal 2'
p20
aS'AAAAAGCAUGUUGAAAGAUAAAGAUCAAGAGCAAAAAAAAAAGCUCAAGAGCAAAAAAAAAAGCUCAACAUGAAAAAAAAAACAUGAAGAUCUUUAUCAAAGAUAUAGAUCAGGAGCAAAAAAAAAAGCUCAAGAGCAAAAAAAAAAGCUCAAGAGGGAAAAAAAAACCUCAAGAUCUAUAUCAAAGCCAUAGUUCAAGAGCAAAAAAAAAAGCUCAAGGUCAAAAAAAAAGGAUCAAGAUGAAAAAAAAAACAUCAAGAACUAUGGCAAAUAACAUGCAAAAA'
p21
aF1.0
aa(lp22
S'G-C Placement'
p23
aS'CUUGGAACGAGA'
p24
aF1.0
aa(lp25
S'The Sun'
p26
aS'UAGAGCAAUUCAAAGAAUAAUGCCUGAAGGAGAGCAGUUCAAGGGGCAAGGCCUCAAAGAGAGCGCGGCAAAGCUGAACGCCUCAAAAAGAACAGGUCUAUGACCAAUGCCUCAAAGUGAGCGGGGAGAAUCCCAACGCCAAAAGCAGAGGAGUGCAAAGCAUAAUCCCUGAAGGAGUGCCGAGCAAGGCUCAAGGCCUCAAAGAGAUCCAUGGAAACCAUAAGGACUCGACACGAGCAAAGGAAGUCUUAAUGCCGU'
p27
aF0.9263565891472868
aa(lp28
S'Frog Foot'
p29
aS'AAAAAAAAAAAUACGAAAGUGUCCGCUAAUGCGGCGCCAAAGGCG'
p30
aF1.0
aa(lp31
S'InfoRNA test 16'
p32
aS'GCUUUGUCCAACUUCGAAAGAAGUGUGAGUCAAAGC'
p33
aF1.0
aa(lp34
S'Mat - Martian 2'
p35
aS'GAUCGAAAGAUCAAAGCAUGUCAAGCAUGUCAAAAAAAGACAUGCGACAUGCAAAGCAUGUUGAAAAAAGCAUGUCAGCAUGUCAAAAAAAGACAUGCGACAUGCAAAGAUAUAGAUAUAUCAAAAAAAGAUAUAUACUAUAUCAAAAAACAACAUGCAAAGAUAUAGAUAUAUCAAAAAAAGAUAUAUAACUAUAUCAAACUAGAAAACUAG'
p36
aF1.0
aa(lp37
S'square'
p38
aS'GCAUGUCGAGUACCAGGUUCGAUGUCAAAGACAUCAAAAGAACCUGAAAAGUACUCAAAAGACAUGC'
p39
aF1.0
aa(lp40
S'Six legd turtle 2'
p41
aS'AAAAACAGAAGCAAAAGCAAAGGUAAUCUAAAUUUAAUGAAAACGAAAACCAAACAUAAUUGAAAAGUAAUCGAAAUAAAAAAAAAAAAAAAAAAAAA'
p42
aF0.9183673469387755
aa(lp43
S'Small and Easy 6'
p44
aS'GUUCGAAAAAUCAAUGGAAAAAAAAUGGGC'
p45
aF0.8666666666666667
aa(lp46
S'Fractile'
p47
aS'AAAAAAAAAAAACCAAAAGGAAAGGAAAGGAAAACCAAGCAAGGGGAAACUAAAGCAAGCAAAAGCAAGCCAAGCGAAAGCAAAAAAAAAAAAAAAAAAAAAAAA'
p48
aF1.0
aa(lp49
S'Six legd Turtle'
p50
aS'AAAAUGAGAAAGUAAAAGCCAAAUUGAAAGCGAAAGAGAAAAUAAAAACUAAUGUAAAUUGAAAGAGUAAAUGGAAACAAAAAUAAAAAAAAAAAAAAAAAAAAA'
p51
aF0.9428571428571428
aa(lp52
S'snoRNA SNORD64'
p53
aS'GCUAUGAAAAAGAAAAAAGAGAAAGAUACAAAAAAAAAAAAAGUAUCGAAACUCAAUUCAAUAUAGC'
p54
aF1.0
aa(lp55
S'Chalk Outline'
p56
aS'AAAAAGAUGAGAAGCGAAAGCAUUCAAUGACACGAAAGUGCAUAGCUAGCGAAAGCAUAGCAGGGAUUAAUAUCACCCAUCAAAAAAAAAAAAAAAAAAAAAAA'
p57
aF1.0
aa(lp58
S'InfoRNA bulge test 9'
p59
aS'GCAUGUCAGAGAGAGCAUGUCGAAAGACAUGCCCCGACAUGC'
p60
aF1.0
aa(lp61
S'Tilted Russian Cross'
p62
aS'AAAAAGUUGUAGCGAAAGCUAGAUGAGCUCGAAAGAGUCAUACGAAAGUAUGAGAUCGAAAGAUUCAUCGAUCGAAAGAUCCAACAAAAAAAAAAAAAAAAAAAA'
p63
aF1.0
aa(lp64
S'This is ACTUALLY Small And Easy 6'
p65
aS'AAAAAAAAAAAAAAAAAAAAAAAAAAAAAAAAAAAAAAAAAAAAAAAAAAAAAAAAAAAAAAAAAAAAAAAAAAAAAAAAAAAAAAAAAAAAAAAAAAAAAAAAAAAAAAAAAAAAAAAAAAAAAAAAAAAAAAAAAAAAAAAAAAAAAAAAAAAAAAAAAAAAAAAAAAAAAAAAAAAAAAAAAAAAAAAAAAAAAAAAAAAAAAAAAAAAAAAAAAAAAAAAAAAAAAAAAAAAAAAAAAAAAAAAAAAAAAAAAAAAAAAAAAAAAAAAAAAAAAAAAAAAAAAAAAAAAAAAAAAAAAAAAAAAAAAAAAAAAAAAAAAAAAAAAAAAAAAAAAAAAAAAAAAAAAAAAAAAAAAAAAAAAAAAAAAAAAAAAAAAAAAAAAAAAAAAAAAAAAAA'
p66
aF1.0
aa(lp67
S'Shortie 4'
p68
aS'GGAAAACCAGGGAAACC'
p69
aF1.0
aa(lp70
S'Shape Test'
p71
aS'AAAAAGAGAUGAUGAUACAAAAAAAAGUGUCUUGUGACUGGGAUACAAAAAGUAUCAGACCGAAAGGUCACAGCGCUACAUCGCAAAAAAAAAAAAAAAAAAAA'
p72
aF1.0
aa(lp73
S'The Minitsry'
p74
aS'GGCGAAAGUAGAAAAACAGAAAAGGUCGAAAACAGAAAAAAAACUGAGACACUGGCUAAGCC'
p75
aF1.0
aa(lp76
S'stickshift'
p77
aS'AAGCAUGCGCAAAAAGCAGCAUGCAA'
p78
aF1.0
aa(lp79
S'U'
p80
aS'AAAAAGAUACAGAGAGGAGAUCAUGUUAGAAAACUAACAUGACCCCCGUAUCAAAAA'
p81
aF1.0
aa(lp82
S'Still Life (Sunflower In A Vase)'
p83
aS'AAAGACGAACAUUGGAAAACAAUGAUCUACGUAUGGUAUUGAUAUUAAAAGGAUAUAACUCGUGAAGCGAGGAUCAUGGAAAACAUGGAAUUUUCAAAAAGAUGAAGAUAUAUAUUUCUACAUAGGUAUCUAUGAAAAAAUAUGGAGAUAAUAAAAAAAAAAAAGAUGAAAAAAAAAAAAAAAAAAAAAAAAAAAAAAAAAAAAAACCGCAUCAAAAAAAAAAAAUUUAUCGAUACGAAAGUAUCAAUACCUAUGUAGAAAUAUAUAUCAAGAGACAAAAAGUCUCAAGUUUCAAAACGAAACAAUCUGUAAAAGGCAGGGAGAUGCAAAAGUUAUCAAGGUACGAAAGUAUCAAGAAUCGAAAAGAUUCGCGUCAAA'
p84
aF0.9894179894179894
aa(lp85
S'Quasispecies 2-2 Loop Challenge'
p86
aS'AAAAUGGUGGAUCAAUAUCUAAUGGUAAAGAUCAGAACGACAAAGGAGUUCGGAGCGAGAAUAGUAAAUCUAAGCAAGCUCCACCUAAAAAAAAAAAAAAAAAAA'
p87
aF1.0
aa(lp88
S'Corner bulge training'
p89
aS'AGCUAUGCUAUGAAACAUAGAAAACAUAGCA'
p90
aF1.0
aa(lp91
S'Spiral'
p92
aS'AAAAAGAUCAGCUAUGAGAGCGAGACAGAUCAGAGCAGGAGGAUGAGGAGGAGGAAAAGCCCCCCCACCCCGUUCGAUCGUUUCUUCCAUAGCGAUCAAAAA'
p93
aF1.0
aa(lp94
S'InfoRNA bulge test'
p95
aS'AAAAAAAAAAAAAAAAAAAAAAAAAAAAAGAGCAAAAAAGAGCAAAAGGCCAAAGAGCAUGGGCAGAGCAAAAAGCAUCAGCACCUAGCAUCGAAGGACCAAAAAGCAUCAAAAAAGCAUCA'
p96
aF1.0
aa(lp97
S'Worm 1'
p98
aS'AAAAAAAGAGAAUGUGCCUAGUUGAAAACUGCGGGUCUAUUGUCC'
p99
aF0.8666666666666667
aa(lp100
S'just down to 1 bulge'
p101
aS'AAAAAGAGCAGAUACGAAAGUAUCAGAGAAAACUCAGCAUCAAAAGAUGAGAGAAAACUCAGAGAAAACUCACAUCAAAAAAAAAAAAAAAAAAAA'
p102
aF1.0
aa(lp103
S'Iron Cross'
p104
aS'AGACAGAUAAAGGCAGACAAAGUCAUAGAAAACUAAGCCAAAGGCAGAGAAAACUCAGAGAAACUCAGCCAAAGGUACACAAAAGUGAGAGAAACUCAACCAAAGUCAGAGAAACUCGGUCGA'
p105
aF1.0
aa(lp106
S'loops and stems'
p107
aS'AAAAAGCAUCUCAAAGAUGAAAGAUGAAAUAGGGAAAAAAAAGAUUAAAAAAAAAAAAAUAAUCAAACCUAGAAAGCUGAAAAAAAAAACAGCAAACAUCAAAUAGAAAAAAAACUAAAAUAUCAAGGAAAAAACCGAAGAGAUGCAAAAA'
p108
aF1.0
aa(lp109
S'Water Strider'
p110
aS'AAAAAGGAAGGAGAGACAUGUGAAAAUACCCUAAUGGGGUGAAAAAUAUGAGAAAACCGUCUAAAAUGCAAAAUCAAUCGCGAAAAAAAAAAAAAAAAAAAAA'
p111
aF0.9320388349514563
aa(lp112
S'The Turtle(s) Move(s)'
p113
aS'AAAGGGAAACCAAAAGCGAUGUUCAAAAAAAAAGAACGUCGCAAAAGAUCAAAAAGAUCAAAAAGUCGAAAGACGAAGAUACAAAAAAAGUAUCAAAAGCAAAAGGAAAACCAAAAAGCGAAAAAGCAAAAGCUAGGAAAAAAACUUAGCAAAAGGGAAAACCCAAAAGGCCUUGUAAAUUGAAAAAAACGGAAGAGAAAAAAAAAUCGAAGAUGCAAAAAAGCAUCGAAGAUCUAAAUAAUCAUCAGGGCAAAAAAAAAGACAAACCAAAAAACAAAAGUAAAAAAGAUACAAAAAAAAAAGUAUCAAAAAAUGC'
p114
aF0.9873417721518988
aa(lp115
S'Adenine'
p116
aS'GAUACAGCUAUGAGCUAUGAGCUAUGAGCUAUAAGCUAUGAAAAGCUAUGAAAAAAUAUAGCACAUAGCGCUAUGAAAGCAUGUCAAAGACAUGCCAUAGAUAUAGCAGAUAUAGAUAUCAAAGAUAUCUAAAGUAUCACAUAGCAAAACAUAGCAAAACAUAGCAAAAGUAUC'
p117
aF1.0
aa(lp118
S'Tripod5'
p119
aS'AAGGUGGCGGGAAAACCGCGUGCAGAAUGCACCAUCGA'
p120
aF1.0
aa(lp121
S'Shortie 6'
p122
aS'CCUAAUGGAGGGAAACCAGGAAAACCAGCGAAAGU'
p123
aF1.0
aa(lp124
S'Runner'
p125
aS'AAAAUGAUGACUGUUAAAGUUCGUAUCGGUAGAACGAAUCCUAUAUAAAAUGUUCAAAGCAAGUGUAAAAUACAAACUGUGUCGAAUCGAAACCGAAAACGGCCCAACAUCUAAAA'
p126
aF0.9051724137931034
aa(lp127
S'Recoil'
p128
aS'AAAAAGAUACAAGGAAGGAAGAGAAGAGAAGGAAGCAAAGCACCACUCACUCACCACCAGUAUCAAAAAAAAAAAAAAAAAAAAA'
p129
aF1.0
aa(lp130
S'[CloudBeta] An Arm and a Leg 1.0'
p131
aS'AAAAAGAGAGAGCCUAAUGGACUCGAGACGAAAACGCUCAUUCAAAAAAAAAAAAAAAAAAAA'
p132
aF1.0
aa(lp133
S'[CloudBeta] 5 Adjacent Stack Multi-Branch Loop'
p134
aS'AUAGCGAUCGAAAGAUCGAUACGAAAGUAUCGAUACGAAAGUAUCGCUCGAAAGAGCGCUAUA'
p135
aF1.0
aa(lp136
S'Triple Y'
p137
aS'AAAAAGAUUGACCUUGCUAAUGAAAGAUGGAAACAUCCCUCGAUGGUGCGAAAGUGCCAUGGAAAUAUGAUUCAAUCGAAAAAAAAAAAAAAAAAAA'
p138
aF0.9175257731958762
aa(lp139
S'Misfolded Aptamer'
p140
aS'GCUUAAAAAUGGCCGAAGCGGAGCUAAUGCGAAAAAAAACCUAAAAAAGC'
p141
aF1.0
aa(lp142
S'Flower power'
p143
aS'AAAAGAAUGCUGAAAAACGGAGACGAAUUGAAAAUCAUUUUCAACGAGGCAUCUCUAUGAUAUAUGGUGUGAAGCCCGCAUUAAAAAAAAAAAAAAAAAAAA'
p144
aF0.9215686274509803
aa(lp145
S'Kudzu'
p146
aS'AAAAAGGGGCAAGUCUCGGCCAGCAGGUAUCAGUAUCUUUCAAUAUAUUCAUUGGAUGUAAAACAUUAAGGCUCAGGACUCAAAAAAAAAAAAAAAAAAAA'
p147
aF0.9801980198019802
aa(lp148
S'"1,2,3and4bulges"'
p149
aS'AAAAGGUGGGAAUUGAAACCGGAAAAUCACAAGAAAUUGCGCAACAAAAUCGUUGAGUAAUUAAACAUGGAGAAAUUCUCUAAGAAAAAAAAAAAAAAAAAAAAA'
p150
aF0.9047619047619048
aa(lp151
S'medallion'
p152
aS'GUUAUGGGGCGUGGAAACACGCCUGUGAAAACAAUCAGAAAGCUAGUGCAGCUAAUGUUGCAAGUAAAAACACGUCUAUGAAAGUAUAGGAUAUAAAAAUAACACAAAACAUGGCGUGCAAAAGCACGUGGCGAAAAUGGAGAUUGGAAAACCAAUCGGUGAAAAGACGCAGAAAAGCUAGGUACGAAAACGUAUCAUUGGAAACAGAGCUAUCAAAAGAUAGCAGGGGAAACCCAGGGGAAACCCAGCUGUGAAAACACAGCGCGAACAGUCAGGCUAAGGAAACUUAGCAGUGAAAGCACACUGAAAGCAGACUAUUCAAAUCACAACGCAUAAC'
p153
aF0.9317507418397626
aa(lp154
S'[RNA] Repetitious Sequences 8/10'
p155
aS'AGGAAAAAAGCGAAAAAGCAAAAAAGGAAAAAAGCAAAAAAGCAAAAAAGCAAAAAAGCAAAAAACCAAAAAACCAAAAA'
p156
aF1.0
aa(lp157
S'Documenting repetitious behavior'
p158
aS'AAAAAAAGAGAAAAAAAAGUGAAAAAAAAGGAAAAAAAAAUGAAAAAAAAAGGAAAAAAAAAAUUAAAAAAAAUGUAAAAAAAUGCUAAAAAAAUCGAAAAAAAAAUGGAAAAAAAACGAAAAAAAAAGGAAAAAAAAGAUGAAAAAAAAUGAAAAAAAAAGCGAAAAAAAAGGAAAAAAAAAACAAAAAAAAACUUAAAAAAAUAGAAAAAAAAGGUGAAAAAAAACGAAAAAAAAAGCGAAAAAAAGCGGAAAAAAAAAGAAAAAAAAACCAAAAAAAAACGAAAAAAAAACGGAAAAAAAAUGUAAAAAAAGGUUAAAAAAAUUAAAAAAAAAUAUAAAAAAAAAUGAAAAAAAAGCAGGAAAAAAGGUGAAAAAAAAGUAAAAAAAAAUCAAAAAA'
p159
aF0.92
aa(lp160
S'7 multiloop'
p161
aS'GGUCGAGACGAAAGUUUCCUUGGGAAACCAGGCAAACGAAAGUUUGGAUACAAAAGUAUCCACUCGAAAGAGUGUAAUCGAAAGGUUAGACC'
p162
aF1.0
aa(lp163
S'Kyurem 7'
p164
aS'AAAAAGUAUGGCGACGAAAGUCCCGAAAACCGGUGAGAAAAGCUCUGCCCUCGAAAAAGAGAAAGGUCCGGCGGGCCAAUGCAAAAAAAAAAAAAAAAAAAA'
p165
aF1.0
aa(lp166
S'JF1'
p167
aS'GAUAGAGUGUUAGAUACAAGAUACAAAAGCUAUGAAGAUACAAAGAUACUCGCUAUGUGAUAUAGAUAUAUCGAAAGAUAUAUCUAUAUCAAGAGAAAACUCAGCAUGUUAGGAAACUAACAUGCAUGGCACGAAAGUGCCUCAUAGCCGUAUCAGUAUCACAUAGCAAAGCAUGGUCAAAAAGACACGUGCAAGGUAUAUAUAGAUAUGUAUAUAUCGAAAGAUAUAUAUAUAUUAUAUAUGUACCAAAAGUACAAAAAAGUACUGAUAUAGAUCGAAAGAUCUAUAUCCAACAUGAAAACAUGAAGUAUCAAGUAUCAUGGCAGAGAGAGAAAGCUCCUCGCUAGGCAUAUUAGAAAACUAAUAGUGCAAACACCUCAUAUCAAA'
p168
aF1.0
aa(lp169
S'multilooping fun'
p170
aS'GCUCAUUAUUAAUAAUAAAGGGAUAGGGAAAAUUGU'
p171
aF0.8333333333333334
aa(lp172
S'Multiloop...'
p173
aS'GCGCAGAUGAGACAAAAGUCAGGGUAAUCCCACAGGAAACUGACACAAAAGUGGGCUAAAAAGCAGAGGAAACUCACAUCAGAUACAAAAAAGUAUCCAGGAAACUGGUGC'
p174
aF1.0
aa(lp175
S'hard Y'
p176
aS'AAAAGGAUGGGACCGUGUUCGAAAGAAUACGCGCCCAUAUACACCGAAAGGUGUAUAUGCAUCAAAAA'
p177
aF1.0
aa(lp178
S'Mat - Elements & Sections'
p179
aS'AAAAAUUGCUCAAUGAGAAUAGGAAACAUUAGUCCAGGAGGGUAAUUCUUGGCGGACGUGAAUUAAAACAGUACGCUACGUGUGGAAAAAAAAAAAAAAAAAAAA'
p180
aF0.9619047619047619
aa(lp181
S'Chicken feet'
p182
aS'AAAAAGCAUGAAUUAUACAGUAAGACAAACCACAUGCCGAGCAAAGUAGGAAACGGAACGGCGAAAA'
p183
aF0.9701492537313433
aa(lp184
S'Bug 18'
p185
aS'ACUACAUUGGGGUAGAUAUUAUGAAACCAAGAUUCCCUUACAAUUGAAAAGCA'
p186
aF0.9245283018867925
aa(lp187
S'Fractal star x5'
p188
aS'AAAAAGCAUGUGCAAGAUCGAAAGAUCAGGAUCGAAAGAUCAAGAUCGAAAGAUCAAGAUGAAAACGUCAAGUACAUGUAAAAAGCAUGUUGAAGAUCGAAAGAUCAAGAUCGAAAGAUCAAGAUCGAAAGAUCAAGAUAAAAAUAUCAACAACAUGCAAAAAGCAUGUUGAAGAGCGAAAGCUCAAGAUCGAAAGAUCAAGAUCGAAAGAUCAACAUAUAAUUAUGAACAACAUGCAAAAAUCAUGUUUAAGAUUGAAAAAUCAAGAUCGAAAGAUCAAGAUCGAAAGAUCAAGACAAAAAUGUCAAAAACAUGGAAAAAGCAUGUUGAAGAUCGAAAGAUCAAGAUCGAAAGAUCAAGAUCGAAAGAUCAAGAGCGAAAGUUCAACAACAUGCAAAAA'
p189
aF1.0
aa(lp190
S'Crop circle 2'
p191
aS'CGUAGGGUAAAAAGAAAAUGCAAAAAAAUGGAAAAAAAAAAAAAAAAAAAAAAAAAAAAAGUUAAAAAAAAAAAAAAAUGGAAAAAAAACUGAAAACUGCAAAUUGAAAA'
p192
aF0.9272727272727272
aa(lp193
S'Branching Loop'
p194
aS'UUGUUAUAAAAAAUAGGUUAAAGAACCGCAACAUAAAAAA'
p195
aF0.95
aa(lp196
S'Bug 38'
p197
aS'UUGGGCAGGAACGAAAAAUAUGGCUGAGUAAAACGU'
p198
aF0.9444444444444444
aa(lp199
S'Simple Single Bond'
p200
aS'AAAAAAUGAAAAAAAUUAUGUAAAUUUUAUAAAAAAAAAGAAAAAAAAAAAAAAAAAAAAA'
p201
aF0.9672131147540983
aa(lp202
S'Taraxacum officinale'
p203
aS'GGCCGAAAGCGGUAGCCCGAAAGUGGCAGCUAAAAGUAUGAUGACCGAAAGAGUCUUGCGGAAAAUGUGAGACCGAAACAGUGGGGGAUUGGUGCGUUAUAGAUACAAGGUAUACUAUAACUGAUACAAGGCAUAGCGCAGGCAUGUCAAAGACAUGCAGCGCUAUGCCGAUCAGCGAUGGAACAUCGCGAUCGUAUCUAAGCAUCAAUUUCAUUUAGAAAGUAGGGGAGCGAAAGACUCAGAUCGAAAGAAUUAGUCAUAAUUAGACGGACCGAAAGAGUC'
p204
aF0.9929078014184397
aa(lp205
S'Headless Bug on Windshield'
p206
aS'UAGUGUAAAAAGAGGCAAAUGAGAUAAAAAAAAAAAAAAAAAAAAAAAAAAUCGCAAAGGCCAUCAAAACUCCCAGUAACCUAAGAGAAAAAAGGAAAACCAAAAAAAGCACAGAAAAAAAGAGGGUGAAAAAAAGGGGAGUACGAGACGGAGAUAAAAAAAAAAAAAAAGUCAACAAACUCAAACACCCGACGAACGUG'
p207
aF0.96
aa(lp208
S'Pokeball'
p209
aS'AAAGCAUGGCAAAAGGAAGGAAGAGAAGGAAGGAAGGAAGGAAGGAAGCAAAGCACCGACCACCACCAACCACUCACCACCGCCAUGCAAAAAAAAGCAUGUCAAAAGGAAGUAAGAGAAGGAAGGAAGGAAGGAAGGAAGCAAAGCGCCAACCACCACCAACCACUCAGCACCGACAUGCAAA'
p210
aF1.0
aa(lp211
S'Variation of a crop circle'
p212
aS'AAAGGGGAAGUGAAAGUGUAAGGUGUAGAUGGAAGCUCAGUAAAAAAAAAAAUCUCAAAAAACAAAAAAAAAAUUAAAAAAAAAAAAA'
p213
aF0.9545454545454546
aa(lp214
S'Loop next to a Multiloop'
p215
aS'AAGCAUAGUUUAAAAAACGGCUACUUAAUGGUAGCGGCAGGUGGAAAUACUUGCUGGAAAAAUAAUUGUGCAA'
p216
aF1.0
aa(lp217
S'Snowflake 4'
p218
aS'GACCGAAAAUCCACGUGGAAAACCGGGAUAUGAGGAGGAAAGCGGGGGAGCUUAAGAGUCAAGUUAGAAGAGCUCUUCAAGAAACCUCUUCUGGAUAGGGAAAUCCUCUAUGAGGGAACCUCAAGGUCAAGGAUCAUACGGGGAAACCCUAUUAUCAUACGUAAAGACGCUUCGGUUACGAACCAAGAACAAAUCCUGAAGCGGUAAUACGUAUGUAGUUAGAGAAAACCCCGAAGAUUAAGGAACAAGGGAAAAUCCCUUUGGCAAAAAUGUUAGCAAGUUUCUUGAAACGGGUCCCCUGGAACAGGAACUAAAAGCUAGGUAUCGGCAAUUUGAAGCGAGUCCCAGAAAGCCGCGUGGAUCAAAGUUU'
p219
aF0.8648648648648649
aa(lp220
S'Mat - Cuboid'
p221
aS'GUAGAAAAAGGAAGGAAAAUGAAGGAAAAGAAGGAAGUAAAACGAAGGAAGGAAAAUAAGGUAGGCAGCAAAAGCAAGUAAGGCAGUAAAAAAAGGUAAGAAAUGAAGGAAAAGGAAGGAAUUAAGUAAGGAAAAGGAAGGAAGGAAGGAAGGAAGGAAAAGGAACGAUUUAAGGAAGGAGGGAAAAGGUAGUAAGGGCGGAAGCAAGCAAAAAAGCGGGCAGCCUCCCAAACAACCCCAACCAGCCAACGUACGAACCCCAACCAAUCAACCAACCAGCCCUAAACGAAAAACCAACCCCAACAAAUUAAGCAAUUGCAAACAAACAAGCCUAAUAAUUCAAACCAACCAAUCGCAACCAAUCCAAUCCCAAUCUGAUU'
p222
aF0.9289473684210526
aa(lp223
S'Misfolded Aptamer 6'
p224
aS'AAAAAAGAGAAAAAACGCCAAGUAAAGCGAAAAAAAACGCAAAUCGAAAAGGUGGAAAAAACUCGAAAAAAAAAA'
p225
aF1.0
aa(lp226
S'Snowflake 3'
p227
aS'CCGGGUAAUCUAGAAGUUAAAAGACAAGAGCAGAUCAAGAGAAAGCUCGAGGGGAAAAGCGAUAAAAUCGAAAAACCACUCUAGAAAGCUCAAGGUCAGCAGUAAAUAAAAAACGCGAUGAAAAAAGAGAAACUCGGGAAACCACGCGAGAAAAGUCAUUAGCACAUGAAGAGAAAACUCGACGGGAAAAUCCACAAAGUGCUUAAUGCAGUCGAGAAAACUCAAUAUGGGAUCAAGGAAAAAUCCGGGCGCAAAGCCGGGAAACCCGGAAAACCACUCCUGAAAACAGAGUAACAGAUGAAGCGAAAACUCGACGCCGAAAUGUAGGAACUGGGAAAAUCAGUCGAGAAAACCUAAUAUAAGCUCGAGAGAAAACUCUUCAGGAAAACUUGG'
p228
aF0.811704834605598
aa(lp229
S'Hard Y and a bit more'
p230
aS'AAAAAGAUGCAUAUAUACGAAAGUAUUCUUGAUGUGCUAAGAGCAAAGGUUCAAGUUACGAAAAAGUAACAAGGAGCAUCGUAUUGAAAAAAAAAAAAAAAAAAAA'
p231
aF0.9716981132075472
aa(lp232
S'Mat - Lot 2-2 B'
p233
aS'UAAGGGAAGAUCAAGGAAAAGGGAGAACGAAAGUAAAAUCAACCCCAAGGAAAAUCAACGUGAGAGAAUGAUGGGGAAGAAAAAGGAAGAUCUACGAAAAGAUAAUCACGAUGAAAAAUCAACCGAAACCGGAACCAAGGUAAUCAACAAGUGCAAGGAAAAGGAAGACUGAAAAGAAAAUCAACCCCAAGCAAAAGCAAGUGAAACGAAUAUACAGGAAAGAAAAGGAAGAGCAAGAAAAACCAAAACGUCAAGCAAAAUCUCCACUAACACCAGCCAACAGA'
p234
aF0.8274647887323944
aa(lp235
S'Shapes and Energy'
p236
aS'AAAAAAGAGAUAUUCAUCUACCGAAGAGAAGAAAGCACUUUAAAUUUGAAUCGAACAAAUUCCAAAGGGAGGCUGAUAGCUAAAAAAAAAAAAAAAAAAAA'
p237
aF0.9603960396039604
aa(lp238
S"Spiral of 5's"
p239
aS'GAAAAGUUACAAAGAUACAAAGAUACAAAAGAUACAAGGAUCCAAAGCUAUAGGAGACAAAAGAUACAAUGCUACAAAGAUACAAGUUACAAAGUUACAAAGAUGCAAGAUACAAAGAGACAAGAUGCAAGAUACAAGAUACAAGAUACACAUCCAGAUAGGCAUUAAAAAGAUGCAAAAAUUAUCAAAAAGGAUCAAAAAGUAUCGAAAGGUAUCAAAAAGUAUCAAAAAGCAUCAAAAAGUCUCAAAAAGUAUCAAAAAGUAUCAAAAAGUAACAAAAAGUAACGAAAAGUACCAAAAAGUAUCUAAAGGUAUCAAAAAUUUUCAAAAAGUAUCAAAAAGGAUCAAAAAGUAUCAAAAAGUAUCAAAAAGUAUCAAAAAGUAGCAAAAAUAAAAA'
p240
aF0.9949622166246851
aa(lp241
S'Campfire'
p242
aS'AAAAGGCCAAGAGUAAAGAUGAAGACCAAAAGGGUCAUGGAGGAACUUCCUUCAUCCAUCGGAGUAGGACCGGCGAAAGCACGGCCCUCCUGCGGGACCAGGAAAACCGGCCGAUGUGGCGAAAGCACCAGUCAAGCACGCCCGAAGGUGCUCGAGAUUGACUGAGUUCGAAAGGAUCGGCAAGCAACGUGUCUUACACUGUGCACACGGUC'
p243
aF0.9339622641509434
aa(lp244
S'Anemone'
p245
aS'AAACUUAUCAAAGGAUAAGGAAUCGAAAGAUUCGCGGCAAAAGUGCUGCGAGACGAAAGUUUCGAUACUUAAUGGUAUCGAUACGAAAGUAUCGCUGCGAAAGUAGCUCCGUGAAAGCACGGAAGAUCCGAAAGGAUCCCGAUGUAAUCGUUGGGAUGUGAAAAUAUCGUCAUCAAAGGGUGACGUUGCGAAAGUAACCUAUGGUAAUCCAUGG'
p246
aF1.0
aa(lp247
S'Fractal 3'
p248
aS'AAAAGUAACAGAAUGGAACACCUGAAAGCGUACCAUAUGGUGAAAGAAAAAAGACAAUAUGCAUUGAAAAGACGGAAACGUUUCUGGAAGUAAAAGGUGGAAACAAGUCGGUAAAAAAA'
p249
aF0.8403361344537815
aa(lp250
S'Kyurem 5'
p251
aS'AAAAGUCAAGCCAAAAAAGAUCGCGCAAACAACCCUUAAAUCAGAAAAGAAAGUCGUGAAAAAUUACAGGUGCUAUUCAAUUGGAAAAAAAAAAAAAAAAAAAA'
p252
aF0.9423076923076923
aa(lp253
S'Snowflake Necklace ( or v2.0 )'
p254
aS'GAUAUAUAUAUAUAGAGAUACAGGAAAAACCAGGAAAAACCAGGUAAAUCCAGGAAAAGCCAGCAAAAAGCAGUAUCAGAGAAAAACUCAGAGCGCGGUAAAACCAGGAAAAACCAGGAAAAAUCAGGAAAAACCUAUAAAAACUCCGCUCAGUCAAAAAGAUAGAUAUGCGAAAAACGAGGAAAAACCAAGAAAAACUAGGAAAAACCAGGAAAAACCAAUAUCAUAGAAAAAUUCAUAGAGAUGAAAAACGAGGAAAAACCACGAAAAACCAGGAAAAACCAGGAAAAACCACUCUAAGACUAAAUGUCAGCUACAGGAAAAACCAGGAAAAACUAGGAAAAACCGUUAAAAAGCAGGAAAAACCAGUAGCAUUAUAUAUAUAUAUC'
p255
aF0.8766066838046273
aa(lp256
S'Methaqualone C16H14N2O Structural Representation'
p257
aS'AAAAAAAGAUAAGAUCACACUCAGAAAGCUUUGAGCGAGAAAACACAGCUAGAGAAAAUUCAAAGUCGGUAAUUUGGGAUAAAAAAAGUCUCCUAAGCACUCAGUGAGAAACAGAUAAGUUUAAAGAAGAGAAUUCAAAGGUAAAAAAACUCAGAUAGAUUAACCUCGAGAAAAAUUGGGAAAACCCGUCAUCAAAUAUCAGAAACAGAGGGAGGCAGAGGGAGAGGAAACAGAAAACUGACUCAGAGAAAAUUCACUCGGAUAAAACUCACUCAGCGAAUACUAACUCAGUCUGGAAAACUAGGAGAAAUCUAUAGAAAACUGGACACUCAGAUCAAAAAUCGUAUCAAAAAAA'
p258
aF0.8507042253521127
aa(lp259
S"Cat's Toy 2"
p260
aS'AAAAGAUUUUUUAAAAGGUAUAAAGCAAAAAAAAAAAAAGGAAGUGAUAGUAAGCUGAAUGAAACUGAAAAAAAAGGGAAACUCCAAAGAGUCAAAA'
p261
aF0.9381443298969072
aa(lp262
S'Zigzag Semicircle'
p263
aS'AAAAAACACCAUUCAAAAUAAUAUAGAGUUGCAA'
p264
aF0.9411764705882353
aa(lp265
S'Short String 4'
p266
aS'AAAAAAGGUGGAAGGAAGAAAGCUAAUGUAAACACUAAUAAAGAGGAUAGAAAGGUUAUCGACAAACACCGAUCCCAAAAAAAAAAAAAAAAAAAAA'
p267
aF0.9381443298969072
aa(lp268
S'Gladius'
p269
aS'GGAAACAAGUAAAGUAUGAAUUCAAAAAAGGCAGGUAAAGAAUUAAUGAAUAGGUCCAAUUGCGAGAUGGACAAGGGACCAUAAGUCGUAUCAGUUAUGGGAUUGCGAGGAGCUCAGUGUGAAGUACGAGAGACCUUCAAGAUCAAGUAACGAGUACGAUAGCGGGUUAAAAGUCCAUGACGUUACAGGACCAAUCAAAGUCAUAUACGAAAGAGUUAAGGUCAUAGGAUCACAAAUGGUAGAGGGUUUACGAUCAGCAAUCAUGUAGCCAUGGAAACAUGGCAAACGGAGUUGACGGUCAGAAACCACCUAUUAUAGAGGAUCAAAAGACCAAUUCUCGUAAGUAUGACAUCUAAUGAUGAAGGGCGCACAAACAGAAGAAUCACCAAAUUAAGAAAAC'
p270
aF0.89
aa(lp271
S'Thunderbolt'
p272
aS'CUUGUAUACGAAAAAAUGAGGAAGGACAGGGGCGAAAGAGCAUGUUUUAAAAAAAAGUAAAAAAGGUCAAAAAGACCAAAAAACCAAAGGAGUGAAAAAAAAAACUAAAAUGAAUAAGGAAGGAAAAUGAAAGAAGUACAAAAAGUCAAAAAGAAGGACUAUGACCAACAAAAAGACAGAGUUAAGAGAAAAAUAGCAGCAAGGUCCAAAGAAAACACAGAACUCAAAAAAAAGUAUGAAGGCAUGUUAAAAACAUGCUCAAACCGAAAAAAAAAACAACCCCAAAAAAAUAAGCAAAAGGUAAUGAAAAAUAAAAAAAAAAAAAACAUUACAACAAAGAUAAACAUGCAAAAAAAGGGCCAACCGCUAAAACAAAAAAAGAGUAUAAUAGA'
p273
aF0.9438775510204082
aa(lp274
S'Mutated chicken feet'
p275
aS'AAAAAAUAGAGUGGAUAUUCAGAAAACUCAAGUACCGGAGGGCCAAAGCGGGUAACCAAACCCCUUGGUCGGGAAAUCAGAAAGUCGAAGAAGAAAAAAA'
p276
aF0.77
aa(lp277
S'Chicken Tracks'
p278
aS'AAAAAAAAGCAUGUCGAUCGAAAGGUCAAGAUUGAAAAAUCGAGUCCGAAAGGACGGCAUGCAAGACGGUUAAAGACCAAGAACAAAGUUCAAGACCAAGGGUUGUCAAAAAAAAA'
p279
aF1.0
aa(lp280
S'Looking Back Again'
p281
aS'CCCGAGACGAUGGAAAGGGCAUGAAACAUGUCAUAUCAAGACGAGAUAAGAAACUUCCCAGAUACAAAGUUCGAAAGAGCGAAAGUAUCAAGUCGAGUCAUGGUCGAGAAAAAGCUAGGAAACUAGCAAAAAACUCUAUACGAUUCAAACAAUCGAUACAAAGUAUCGCCUGCAAAUGAAGAAGAAUAAGAAGAUCGAAAGAUCAACAGAGCCAACUUUGGGUAAUCCCAAGCAGGCAAAGUAUGGACCUGAUAAACAUGUAAAAUACAAUCUAAAAAAAAGAUUAAAAAAAUCGCGCAAAUCGAGAUGGUAGAAAAAAGCCGUAUGUAAUCAUGUGAAGGUCAAAGCGAGACACAAAGUGUCAAAUCGCAAAGCCUCGUGUCAAAGGG'
p282
aF0.8868894601542416
aa(lp283
S'Multilooping 6'
p284
aS'AAUCGAGGACGUCACGAAAUGACUGUCGCAAAGGCGACCCUUAGUCGUCGAAAGACGAAGUUUAAAGAACACCCUCUUGAGA'
p285
aF0.926829268292683
aa(lp286
S'Cesspool'
p287
aS'GAAGAGGAAAACAUUGAAAGACAGAAAACCUCAGCAACAACUCCAGAAAAAAAUAGCGGAAGAAAACAACAAAAAAAAAAUAACAAUAAGAAUAAGAAAACAACAGAAGAGACAGAAACUGAACAACAACUGAGGAAGAAAACAACACUAGAAAACAUCAAAAAGAAAACACAAACAACGAAUAAGAAAACAAGAGAAUAAAGAGAAACUCAAUAAAAACUCAAAAAAAAAAUAAUACAAGAAAACAAGAAAAAGAAAACACAAAGGAAGGAUUAAGAAAACAGGUAAAGUGUGCGAAACGUAUCUACAGUACAAAAGAAAAAAAACAUAGGGAAACAAGAAAAAAAAAAUACAUACC'
p288
aF0.770949720670391
aa(lp289
S'Hoglafractal'
p290
aS'AUGUACAACUAUUAAAAGAGAGAAAAAACUCUCCAUCGGACGAAAAUGGAAAAACCAUGAUUGAGAACCGAAAAUCGCUCAGACAAAGAUAAAAGAUUAAAAAAGAUCGAUCGAGAAGCGAAAAGCGCCUCGGACGGAAACGCCAGAUAGAAAGAGAACGUGAAAAAGCGCAGGCACGGAAAACGGAAGGAAAUGUCAGAUACAAAAAGGAGAAAAAAACCCAGACAAAAAGUCCUAAAAACAGCUAUGAAAAAAGGCAAAAAAGCACGAAAAACGGAUGCUUGGCAAAGUCAGGCUAAAAAAUAUGGCAAAAAAGUAUCAAAAAUGUCAAAAGUCAAAGCAUCUAAAAAGAGAUGAAAACGGAAACGGGAAAACCGAAAUCGAAGAUAUCCCAUCCCGU'
p291
aF0.915
aa(lp292
S'Bullseye'
p293
aS'AAGGACCGCCAAAGGCCAACAUCAAAGACGGAGACUGAAUGUCGUCUAAAAAAAUCCGAGCAAGAUUCAAUUACGAAGUAAAAUACCAAGGGCCGCGCAAAAAACGACGGCGAAAGGUCAUUGACUAUCUUAUAGACAUAUUGUCGUCGAAAAAAAGAUGCUCAAAGAUCAUGAGAAAAUUUCUAGAUCAAAGAAAGUCCAA'
p294
aF0.8514851485148515
aa(lp295
S'Shooting Star'
p296
aS'UCCAUGUGACGCAUGUCGAUGAGAGGAGGAGAGACAGUGAAAGACGUACCUCAGACAACCGAGACGUGCAGAUUGAAAAGAAGGGAAGAGCUACAAUGAUGGCAGGGAAACACGCCAAUGUGAUAGACCUUACACAACCAACGAAAACAAAAGCGUUCGAGUCAAAGGCUCAGAAACAAAGUUGUGAAGAAACACAAAGCAGACCAGAGGAAAUGAAGUGAUGUCAAAGACAUCAAGAGACGAAGUUUCCAUUGUGUUUCGAAGAGGUACAGAUGCAAAGCAUCCUUCAAUUAAGAAAACCAAAAUGAAGUCGGGGUGUUCAGGAAAACACGAGAACCCAGAUCAACACGAGAAUCACGUGGAA'
p297
aF0.8351648351648352
aa(lp298
S'Teslagon'
p299
aS'AAAAAGGCAAAAAAAGGAGCAAAAAAAGGUGCAAAAAAAAAAAAAAAGCUAAUAAAAAGGAAAAAAAAAAAAAAACCACCAAAAAAAGUAGCAAAAAAAUGGAAAAAAAAAAAAAACAAAAAAAAGAGGGAAAAAAAGGAUCAAAAAAAAAAAAAAAGAAAAUAAAAAUGAAAAAAAAAAAAAAACAACCAAAAAAAGCAGCUAAAAAUGUAAAAAAAAAAAAAAAACUAAAAAUGCAUUAAAAAAAGCAGGAAAAAAAAAAAAAAAACAAAUAAAAAGGAAAAAAAAAAAAAAACCGGCGAAAAAAAAAGCAAAAAAAGAAAAAAAAAAAAAGGAAAAAAAAAAAAAAGCCGUCGAAAAAAGCAUUAAAAAAAACAGAAAA'
p300
aF0.9319371727748691
aa.