(lp0
(lp1
S'Simple Hairpin'
p2
aS'GAUACAAAAAAGUAUC'
p3
aF1.0
aa(lp4
S'Arabidopsis Thaliana 6 RNA - Difficulty Level 0'
p5
aS'GCGAUGCAAAAGAGAAAAAAAAAAACUCGCGCUGUCUUGCGCUGUGAUAUGAUAUACAAAGAUACAAAAAAGUAUCAGUAUAUACAUAUCACAGCGCUUGACAGCGCAAGCAUCGC'
p6
aF1.0
aa(lp7
S'Prion Pseudoknot - Difficulty Level 0'
p8
aS'GAGAUCAGAUCAAAAGAUCGAUACUCAAAAAAAAAA'
p9
aF1.0
aa(lp10
S'Human Integrated Adenovirus - Difficulty Level 0'
p11
aS'GCGGCUGAGAUAUCUGGAUAGAAAAAAAAAAAGGCCUAUAGAUCCGGAGUAGCUGUUAAAAGCGGUGAUAUAUCGAAAAAAAGAUAUGUCAUAAAACGCAACAGAAAAAUAGAUAAAACUAUAAAAGCAUAUAAAAAAGAUAUGCGGCCAAAAAAAAAAAAUUAUCCUGAUAAAAAUCUCAGAAACCGCAAA'
p12
aF0.9791666666666666
aa(lp13
S'The Gammaretrovirus Signal - Difficulty Level 0'
p14
aS'CGGUGUAUCAGAGAAAGCUCUGACUCUCAAAAAAGAUCAAGAGAGAUCGAUGUGAAAGCAUUAAAGGAUCCUCGGUCAGGGGGUGACUAAUGUCACCUCAA'
p15
aF1.0
aa(lp16
S'Saccharomyces Cerevisiae - Difficulty Level 0'
p17
aS'AUAUGUUCAUCAAAAAAAAGAUGAGUGGGGGGGAGGGGGAAGUAAAAGGUACAAAAAAGGUAUCAACAUAUAAAAGCGAAGCAAGAUCGAAAAAAAGAUCCGCGAAAAAAAAAAAAGCGAAAACAUGUAAAAAAGGUGUGGCUUCGCAAAAGUGACGCAAGAUCAAAAAAAAGAUCCGGGAUAAAAAAAAUUCCGAAAAGAUACUAAAAAUGUAUCGCGUCACGAAGGCUAUGCAAGAGCAAAAAAAAGUUCCGAUGCAAAAAAGGCAUCGAAAACAUACGAAAAAAGUAUGGCAUGGCAAAGGCGAUGCAACGACGAAAAAAAGUCGCGAGGCAAAAAAAGCUUCGAAAAGAUACGAAAAAAGUGUCGCAUCGCAAAA'
p18
aF0.9947229551451188
aa(lp19
S'Fractal 2'
p20
aS'AAAAACCGCUGUUAAUGGCGUAUAUGAUGAGCAAAAAAAAAAGCUCUUGAGCAAAAAAAAAAGUUCUUGGUCAAAAAAAAAAGACCUACAUAUACGCCUAGGUGCUGUUUCAGCUACAAAAAAAAAGGUAGAAGUACAAAAAAAAAAGUACAUGGUGGAAAAAAAAAUACCUAGAAACGGCGCAAUUAGCUGUGGCAAUCGCAAAAAAAAAAGCGGAGGGCUGAAAUAAAAAAGCCAAGGCCAAAAAAAAAAGGUCAAGUCACAGUUGUAAGACAGCGGAAAAA'
p21
aF1.0
aa(lp22
S'G-C Placement'
p23
aS'GUUGGAACAACA'
p24
aF1.0
aa(lp25
S'The Sun'
p26
aS'GUCAGGGUCUCAAGGGUGAACCCGACAAAAAGAGCCGAGCUAUGCUCAAGGCCUUGAGGAGAGGGGUACUAUGUGUAAUCCCUUAAUCAGAGCCACGCGAAGCCUAACGCAUGUAACAGAGGGGAGGGAAUCCAAACCCCUGAAGCAGAGCGAAGCGAAGCUGAAAGCCUCAAAUGGAGCGUCUAAAAGGGGUACGCCUAAAAUAGAGGGAGGCGAAGUCUAACUCCUAAAACAAAGCGGUGGAAGCCACAACGCUUG'
p27
aF0.8527131782945736
aa(lp28
S'Frog Foot'
p29
aS'AAAAAAAAAAUUAUGAAAAUGAGGUCUAAUGAUCGUCCGAAGGAC'
p30
aF1.0
aa(lp31
S'InfoRNA test 16'
p32
aS'GCAUAGAGAGCAUAGAAAACUAUGACUACACUAUGC'
p33
aF1.0
aa(lp34
S'Mat - Martian 2'
p35
aS'GAUCAAAAGAUCAAAGCGAUGCAAGCGAUGCAAAAAAGGCAUCGCGCAUCGCAAAGCUAUGAGAAAAAAGCGAUGCAGCGAUGGAAAAAAACCAUCGCGCAUCGCGAAGCGCUGGAUAUAUCAAAAAAAGAUAUAUACCAGCGCAAAAAACUCGUAGCAAAGCUAUGAUAUAUACAAAAAAAGUAUAUAAAUCAUAGCAAAAUACAAAAGUAU'
p36
aF1.0
aa(lp37
S'square'
p38
aS'GCGCUGCGAGUAGCGCUGUCAAUGAGGAACUCAUUAAACGACAGCGAAAACUACUCAAAAGCAGUGC'
p39
aF1.0
aa(lp40
S'Six legd turtle 2'
p41
aS'AAAAAGGAAAGUAAAUGCAAAAAGAAAUUAAAUGGAAAUUGAAUUAAAAGAAAUAUAAAAGGUAAAGAAAGCAGAGUCAAAAAAAAAAAAAAAAAAAA'
p42
aF0.9591836734693877
aa(lp43
S'Small and Easy 6'
p44
aS'GAGGUGAAAAAUAAUCAAAAAAAAGGAAUU'
p45
aF0.8666666666666667
aa(lp46
S'Fractile'
p47
aS'AAAAAAAAAAAAUAAAAACAAAACCAAAUCAGAAGAAGGUGAAGCAAAAGCGAAAAAAGAAAAGACGAAUCAAGCGAAAGUAAAAAAAAAAAAAAAAAAAAAAAA'
p48
aF0.9619047619047619
aa(lp49
S'Six legd Turtle'
p50
aS'AAAAAACGAAAGAAAAAACAAAGUGUAAUCGAAAAUCAAAGGAGAAGACGAAAGUAAAAUAUAAUUGAAAGCUGAAAAGAAAAGGCAAAAAAAAAAAAAAAAAAA'
p51
aF0.9619047619047619
aa(lp52
S'snoRNA SNORD64'
p53
aS'GCAUAGAAAAAGAGAAAAGAGAAAGAUACAAAAAAAAAAAAAGUAUCAAAACUCAACUCAACUAUGC'
p54
aF1.0
aa(lp55
S'Chalk Outline'
p56
aS'AAAAAGCUCAGAGACGAAAGUACUCACUCAGAGGAAACUCGGGUGCAGCCAAAAGGACUGCUCGGGCAAAAGUCACGGAGCGAAAAAAAAAAAAAAAAAAAAAA'
p57
aF1.0
aa(lp58
S'InfoRNA bulge test 9'
p59
aS'GCGAGGCAGAGAGUGCGCUGAAAAGUCAGCGCCCCGCCUCGC'
p60
aF1.0
aa(lp61
S'Tilted Russian Cross'
p62
aS'AAAAAAAUCCCAUUAAUAUGGAGUGCGAUCGAAAGAUUGAUUCAAAAGAAUCAGAACUAAUGUUCUAUGGUUCAAAAGAACAACUGAAAAAAAAAAAAAAAAAAA'
p63
aF0.9238095238095239
aa(lp64
S'This is ACTUALLY Small And Easy 6'
p65
aS'GAAAGAAAGAAAGAAAGAAAGAAAGAAAGAAAGAAAGAAAGAAAGAAAGAAAGAAAGAAAGAAAGAAAGAAAGAAAGAAAGAAAGAAAGAAAGAAAGAAAGAAAGAAAGAAAGAAAGAAAGAAAGAAAGAAAGAAAGAAAGAAAGAAAGAAAGAAAGAAAGAAAGAAAGAAAGAAAGAAAGAAAGAAAGAAAGAAAGAAAGAAAGAAAGAAAGAAAGAAAGAAAGAAAGAAAGAAAGAAAGAAAGAAAGAAAGAAAGAAAGAAAGAAAGAAAGAAAGAAAGAAAGAAAGAAAGAAAGAAAGAAAGAAAGAAAGAAAGAAAGAAAGAAAGAAAGAAAGAAAGAAAGAAAGAAAGAAAGAAAGAAAGAAAGAAAGAAAGAAAGAAAGAAAGAAAGAAAGAAA'
p66
aF1.0
aa(lp67
S'Shortie 4'
p68
aS'GCAAAAGCAUCGAAAGA'
p69
aF1.0
aa(lp70
S'Shape Test'
p71
aS'AAAAAGAGAUCAAGAUCCAAAAAAAAGGAUCAAGAGAGAGAGAUACAAAAAGUAUCAGAUCAAAAGAUCACUCCUCAAGAUCGCAAAAAAAAAAAAAAAAAAAA'
p72
aF1.0
aa(lp73
S'The Minitsry'
p74
aS'GCUAAAAAGUGAAACAGAGUAAACGCGGAAAACAGAAAAAAAACUGACGCUCUCCCACGAGC'
p75
aF1.0
aa(lp76
S'stickshift'
p77
aS'AGGCUACCGCGAAAAGCAGGUAGCAA'
p78
aF1.0
aa(lp79
S'U'
p80
aS'AAAAAGAUACAGAGAGCAGAGCGCUGUGCAAAAGCACAGCGCCGCCCGUAUCAAAAA'
p81
aF1.0
aa(lp82
S'Still Life (Sunflower In A Vase)'
p83
aS'AAAGAAGGACAUGGAAAAACUGUGAUCCUGGAAACCAUAUUUAUAGAAAAAAUGUGUUCCUAAUAUCUAGGUACGUUCAAAAAGGACGAACAUGGAAAAACCGAGAGCGCUAGGAUGUAUAUGUAUACCCAUCAAAAAAAUGAUGAGGUUCAAAAAAAAAAAAAGAACCCCCCCCCCCCCCCCCCCCCCCCCCCCCCCCCCCCCCAAAAGUUCAAAAAAAAAAAAAGAACCGAUACAAAAGUAUCAGGUAUACAUAUAUAUCCUAGCGCAAGAUACAAAAGGUAUCAACAGAGAAAAUUUUUGAACGUAGAAAAAUUUUGAACAUAGGAAAACUAUGAACAGACAAAACUAUGAACUUAAAAAAACGAGUACUUCAAA'
p84
aF0.9470899470899471
aa(lp85
S'Quasispecies 2-2 Loop Challenge'
p86
aS'AAAAUGACUGAUUAGGAUCAAAGGAUCAGAAUCUUAGCUAUAAGAUUGUUGUACGCAUGAGUAGAAAAAUUAAGUUGGCGUGCUCUUAAAAAAAAAAAAAAAAAA'
p87
aF0.9809523809523809
aa(lp88
S'Corner bulge training'
p89
aS'AGCAUAGCAUAGAAACUAUGAAAACUAUGCA'
p90
aF1.0
aa(lp91
S'Spiral'
p92
aS'AAAAAGAUCAGCAUAGAGAGAGAUACAGAUCAGAUCAGCAGCAGCAGCAGCAGCAAAAAGCGCGCGCGCGCGAUCGAUCGUAUCCUCCUAUGCGAUCAAAAA'
p93
aF1.0
aa(lp94
S'InfoRNA bulge test'
p95
aS'AAAAAAAAAAAAAAAAAAAAAAAAAAAAAGCAGAAAAAAGGAGAAAAGGGGAAAGGAGUAGGAGAGGAGAAAAACUACCGCUACCGUCUACCAAACCACCAAAAACUACCAAAAAACUAGCA'
p96
aF1.0
aa(lp97
S'Worm 1'
p98
aS'AAAAAAAUGGUUGGAGAUUGCGAAAAAACGAGGAGGCACAGGGAG'
p99
aF0.9111111111111111
aa(lp100
S'just down to 1 bulge'
p101
aS'AAAAAGGACACAUAGAAAACUAUGAGAGAAAACUCAGUACCAAAAGAUCAGAGAAAACUCAGAGAAAACUCAGAUCAAAAAAAAAAAAAAAAAAAA'
p102
aF1.0
aa(lp103
S'Iron Cross'
p104
aS'ACGGAGAUAAUGCCUAGUUAUGUUUCUCUAAUCAGAGGCUAAGAGUGGCAAAAGCCGCGGGAUCUGUCUUAAAUAGUUGUGAAAACGAAAGGAAUUCUCUAGAGCAUUUGGGAAACGUUCGAA'
p105
aF0.8861788617886179
aa(lp106
S'loops and stems'
p107
aS'AAAAAGCGAUGCAAAGAUCAAAGAUCAAAGAUCAAAAAAAAAGAUACAAAAAAAAAAAAGUAUCAAAGAUCAAAAGAGCAAAAAAAAAAGCUCAAAGAUCAAAGAGAAAAAAAACUCAAAGAUCAAGCAAAAAAGCGAAGCAUCGCAAAAA'
p108
aF1.0
aa(lp109
S'Water Strider'
p110
aS'AAAAAGAAGCUAGAGUGAACGUAAUUGCUCGUAAUCGAAAGAAGUAUGAGAGUAAUCUUCAUGAAAAUGACUCGCGUGCGUCGAAAAAAAAAAAAAAAAAAAA'
p111
aF0.9223300970873787
aa(lp112
S'The Turtle(s) Move(s)'
p113
aS'AAAGCAAAAGCAAAUGCGAUGUGUAAAAAAAAGGCACAUCGCUAAACAUGAAAAACAUAAAAAAGACAAAAGACGAACAUUUAAAAAAAGGAUGAAAAACAAAAUAAAAAGCAAAAGCGGAAAACCGAAAAGCCUAGAAAAAAGCUAGGCGAAACAGAAAACUGAAAAGCGAUGCAAAAGAGUAAAAAUCUCGGCAGUAAAAAAUCUGAAACAUAGAAAAAACUAUGGAACACGAAAAACGUGAAGCAUCGAAAAAAAAAGCAAAAGCAAAAACAAAAAUCGUUGAAGAUACAAAAAAAAAAGUAUCAAAAAAUGC'
p114
aF0.9873417721518988
aa(lp115
S'Adenine'
p116
aS'GAUACAGCAUAGAGCAUAGAGCAUAGAGCAUAGAGCAUAGAAAAGCAUAGAAAAAACUAUGCACUAUGCAGAUACAAAGCGAUGCAAAGCAUCGCGUAUCACUAUGCAGCGCGAUGUAUCAAAGAUACAUAAACGCGCACUAUGCAAAACUAUGCAAAACUAUGCAAAAGUAUC'
p117
aF1.0
aa(lp118
S'Tripod5'
p119
aS'AAGAUCCCUCGAAAAGGGGGCUGUAAAUUGGCGAUCAA'
p120
aF1.0
aa(lp121
S'Shortie 6'
p122
aS'GUGAAAACAGAGAAAUCCCAGAAAUGAGCGAAAGC'
p123
aF1.0
aa(lp124
S'Runner'
p125
aS'AAAAAGAUGGGGGGGUAAAGAUGAAAUCUAAUAACGAAAAGAAGAUAAGGAACCGCCGAUUUCCGUGUAACAUAAAAGAGCUCAAAGCAAAGGAUGAAAGUUAGGCACAUUAAAAA'
p126
aF0.9827586206896551
aa(lp127
S'Recoil'
p128
aS'AAAAAGAUACAAGCAAGCAAGAGAAGAGAAGCAAGCAAAGCAGCACUCACUCAGCAGCAGUAUCAAAAAAAAAAAAAAAAAAAAA'
p129
aF1.0
aa(lp130
S'[CloudBeta] An Arm and a Leg 1.0'
p131
aS'AAAAAGAGAGAGACAAAAGUACUCGUCAGCAAAAGCGACACUCAAAAAAAAAAAAAAAAAAAA'
p132
aF1.0
aa(lp133
S'[CloudBeta] 5 Adjacent Stack Multi-Branch Loop'
p134
aS'GACACCACCGAAAGGUGUCUUCAAAGGGGGAGUCCGGAAACGGAUGGAGAAAGCUCCGUGUCA'
p135
aF1.0
aa(lp136
S'Triple Y'
p137
aS'AAAAGUAUUGAUCGAUUAAAGGGCUUCUGUAAUCAGGAAACGGUAUAUUUAAUGAUGGCUUAAAAGAGCUACUAAUGAAAAAAAAAAAAAAAAAAAA'
p138
aF0.9175257731958762
aa(lp139
S'Misfolded Aptamer'
p140
aS'CCGAGAAAAUGGCCGAAACGGAGGAAAACCGAAAAAAAACCUAAAAUUGG'
p141
aF1.0
aa(lp142
S'Flower power'
p143
aS'AACAAUUAGGUAGUAUCAACGGCGAGGAAUAUGACAAAGGUGAAGUACCAAGACGGAACGUAGUGCACAACGAAGGAGAUGAGAAAAAAAAAAAAAAAAAAA'
p144
aF0.9215686274509803
aa(lp145
S'Kudzu'
p146
aS'AAAAAGACAGAAGAGAGCGCGGAGAGCAAAGCCUACCCGGCAGCCAAAGGACUGCAAGAGAAACUCGAACUCACGACAGUCAAAAAAAAAAAAAAAAAAAA'
p147
aF1.0
aa(lp148
S'"1,2,3and4bulges"'
p149
aS'AAAAAGGACUGAGUCUAAUGAGAAACUCGCGGUAAUUCGAAUAUCGAAAGGAGUGAGGACAUAAGUCAUAGUAAUCCGUGAAACCUAAAAAAAAAAAAAAAAAAA'
p150
aF0.8666666666666667
aa(lp151
S'medallion'
p152
aS'CUUCAGCGAUGUCAAAAGAUAUUGUUCAAAAGAGAUACAAAAGUAAUGAAUGAAAAGAUGAAACUGGAAUUGAAUAUUUUAAAAAAAAUAAUGGGAAACGCAGAGAAAACUCAUAAAUCGAAAGAUUUAGUAGAAAACGAGGCUAUAAAAAUAUGUCAUGGAAAAACAGUAGAAAAAUAACAAAUUAAAAGAUUUAAUAAGAAAUUAGUCUUUGGAAACAGAGGUUACAAAAUUAAUUGGAAACGAGAAUAUCGAAAGAUCUAAUCUAAAAGCAAUAGACCAAAGGGUCUGGUAUUAAUGUAACAAUAAUUUAAAAUAAAGAAAGUAUUUACUGAAG'
p153
aF0.7863501483679525
aa(lp154
S'[RNA] Repetitious Sequences 8/10'
p155
aS'AGCAAAAAAGCAAAAAAGCAAAAAAGCAAAAAAGCAAAAAAGCAAAAAAGCAAAAAAGCAAAAAAGCAAAAAAGCAAAAA'
p156
aF1.0
aa(lp157
S'Documenting repetitious behavior'
p158
aS'AAAAAAACUAAAAAAAAAGGAAAAAAAAAUCGAAAAAAAACCAAAAAAAAAGCAAAAAAAAAGCAAAAAAAAACAAAAAAAAAACAAAAAAAAAAGGAAAAAAAAAACAAAAAAAAAGGAAAAAAAAAACAAAAAAAAAUUAAAAAAAAAGCAAAAAAAAAGCAAAAAAAAACCAAAAAAAAAGCAAAAAAAAAUAUAAAAAAAUUAAAAAAAAAAGCAAAAAAAAAGGAAAAAAAAAGCAAAAAAAAAGCAAAAAAAAAAAAAAAAAAAGGCAAAAAAAAACCAAAAAAAAAGCAAAAAAAAAGCAAAAAAAAAUGAAAAAAAAAUGAAAAAAAAAGCAAAAAAAAAACAAAAAAAAAGAAAAAAAAAAGGAAAAAAAAAUCAAAAAAAAAGGAAAAAA'
p159
aF0.96
aa(lp160
S'7 multiloop'
p161
aS'GCCCGAUACGAAAGUAUCCAUGCAAAGGCAUGCAUCUGAAAAGAUGGCUAUAAAAAUAGCGUUCGAAAACGAACGACAUGAAAAUGUCGGGC'
p162
aF1.0
aa(lp163
S'Kyurem 7'
p164
aS'AAAAUUUGAGAUGUCGAAAGGCGUGAAAAGAUGAACCAAAAAGGUGGGGGCUGCAAAAGGCAAACUCGGUCUGCAUUAUCGGUAAAAAAAAAAAAAAAAAAA'
p165
aF0.9411764705882353
aa(lp166
S'JF1'
p167
aS'GCGGCUGCUAGACAUAGAAGAUACAAAAGCAUAGAAGAUACAAAGAGACAAGAUAGCAGCGCUGUGAUAUACAAAAGUAUAUCACAGCGCAAGAGAAAACUCACGCGUAUACAAAAGUAUACGCGAACAUGGAAAACCAUGAGUUAUCAGUCUCAGUAUCACUAUGCAAAGCGCGAUCAAAAAGAUACGCGCAAGCGCUUUGAGAUAUAUAUAUAGACAAAAGUCUAUAUAUAUAUACUCAGAGCGCAAAGAUACAAAAAAGUAUCCGCGCAUAUCAAAAGAUAUGCGCGAAACAUGAAAGCAUGAAGUAUCAACUAUGGGAUCAGAGAGAGAAAACUCCUCGAUCAGCGGCUAUCAAAAGAUAGACCGCACUAGACAGACCGCAAA'
p168
aF1.0
aa(lp169
S'multilooping fun'
p170
aS'GCACAAUGUGAAAGUUGAAAAAGGGGGCAAAAGAGC'
p171
aF0.8611111111111112
aa(lp172
S'Multiloop...'
p173
aS'GAUCAGGUCGUAGGAAACUGAGCAAAAAUGCAGAGGAAACUCAGAGAAAACUCAGAGAAAACUCAGCCAAAGGGCAGACCAGGUACAAAAAAGUACCGAGGAAACUCGAUC'
p174
aF1.0
aa(lp175
S'hard Y'
p176
aS'AAAAGGAUAGGACCGGUGUGAAAGCACAUCGCGCCCCGCUGUAACAAAGGUUACAGCGGUAUCAAAAA'
p177
aF1.0
aa(lp178
S'Mat - Elements & Sections'
p179
aS'AAAAAGACAGGCAGCAGAAGAUAGAACAGGAGGCCGUAAAUGAAAAAACAUCGGGUCUACGUUCGAAAAGCUACGGAAACAUGUCAAAAAAAAAAAAAAAAAAAA'
p180
aF0.9619047619047619
aa(lp181
S'Chicken feet'
p182
aS'AAAAACGAACUGCAAAGCGGUAAUGCAAAGUUUAUAAGAAGGUAUUUGGAUAAUCAAAUCUCAAAAA'
p183
aF0.8805970149253731
aa(lp184
S'Bug 18'
p185
aS'AUGAAAGUCGGCAAUCGACAGUGAAUAGAAUCAGGAGUAAGGAACCCAAAUGA'
p186
aF0.9622641509433962
aa(lp187
S'Fractal star x5'
p188
aS'AAAAAUCUCCACGAGGGUCUAAUGACCGUUAUCUAAUGAUAUUGACCAAAAGGUCUCCCGGACAGUCGGAAUGUGGAGAAAAAAUGGUGUUGGAGAUCAAAGGAUCAAGACUAAAGAGUCGAGAUGAAAGCAUCAUCGGCGAAAGCCGUAUAGCGCCGAAAAACGAACAGGAGCAUCUAAUGAUGAAGCUCAAAGGAGCGGCUUCAAAAGAGGAACAAGGAAACUUGAACCUGUUCGGAAAACGCUUCAAGAGAAUAAAAGUUCAUCGGUGAAAGCCGUGAGUCAAAGGACUAAGUUAUAAUUGACGAUUGAGGUGGAAAGCGGGUAUGAAGAUCAAAGGGUCGGGAUUGAAAGGUCAACAUUAAAGAAUGAACAGCGAAAGUUGAAUAUACUCGAAAAA'
p189
aF1.0
aa(lp190
S'Crop circle 2'
p191
aS'GGUAACGAAAGUAAAAAUAGAAAAAAAAAGUGAAAAAAAAAAAAAAAAAAAAAAAAAAAAAACGAAAAAAAAAAAAAAUCUAAAAAAAAUGAAAAAAAGCAAAUCCAAAA'
p192
aF0.9636363636363636
aa(lp193
S'Branching Loop'
p194
aS'AUGCGCUAAAAAAUGAGUCGAAAGUCUAAGAUGGAAAAAA'
p195
aF0.95
aa(lp196
S'Bug 38'
p197
aS'ACAUUCGAGGAUAGUAAAGUUAGUUAAGGUAAAUGA'
p198
aF0.9444444444444444
aa(lp199
S'Simple Single Bond'
p200
aS'AAAAAAGAAAAAAAAUGAUCGAAAAGGUUUAAAAAAAGCAAAAAAAAAAAAAAAAAAAAAA'
p201
aF1.0
aa(lp202
S'Taraxacum officinale'
p203
aS'GAGCGAAAGACUCAUAGUAAAAGAAUGACAGAAAAAUACUGACAGCUAAUGACCGUCAGCGAAAGACGGUCUGAAAAAUACCGGGCGCUGUACUCGCGCUGCAGGCAAAGUUUAGCAGCGCAGUUACAAGCGCUGUGACAGUAUAUGCAAAGCAUAUAAGUCACAGCGCGAUCAUUAUAGAAACUGUAAGAUCGUAACGAAGAGUACAGCGCAGAGCAAAAGACUCUGUGCAAAAGACACUGAGCUAAUGAUUCACAGCAAAGGACAGACUGGAAAAGGUUG'
p204
aF0.8971631205673759
aa(lp205
S'Headless Bug on Windshield'
p206
aS'UUGGGCAAAAAAAAUAAAAGCAGUGAAAAAAAAAAAAAAAAAAAAAAAAAUACAGCGAAUGUAUUAAAGCACCUGAGAUGAGAAGGGAAAAAAUUGAAAGGAAAAUAAUCCUCUAAAAACAUAGAUACGCAAAAAGGGUUUGCGCGGGGCCAUUGGGGAGGGGGAAGGGACAAAAGAUACACAUUGUCUUAAGUAAAUCA'
p207
aF0.92
aa(lp208
S'Pokeball'
p209
aS'AAAGGUAUGUAAAAGAGUGCGCGGCGGGGUUCCAACGUAUGGAGAGAGGAAAUCAUUAGCGUCGGGAUUCGAGUCAGCUUCGCGUAUCAAAAAAAAGCGAGAUAAAAGCGAAGGAUACAUCGUUGCAAGGAAGAUACUAAUUAAAGAAGUGUACACCACUUUCCUGUAAUUAGCAUCUCGCAAA'
p210
aF0.967391304347826
aa(lp211
S'Variation of a crop circle'
p212
aS'AAAAGAUAAAGAGAAAGUAAAAAGUAAUAAGAAAAUCGCGGAAAUUCAAAAAAGUAAAAAAAUUAAAAAAAAAUUAAAAAAAAAAAAA'
p213
aF0.9545454545454546
aa(lp214
S'Loop next to a Multiloop'
p215
aS'AUUCGCUGCUUAAAUAACGGCAUAGGAAACUAUGCAGCGAAGCAAAAGCUUCGCAGGAAAAAUAGCAGCGAUA'
p216
aF1.0
aa(lp217
S'Snowflake 4'
p218
aS'GCUCGAAAAUCUGUGGCUAAAAGUCGUAGGAUAUAGUUAAAAGACUUAGUAACAAGGUUAAACAUCGAAGAUGCUAAGCCGAAAAGUUAUGAUGAUACCCGAAAGGCGAACUAGCGAAGCUAAACAUCAAGGAUGGUUCGCCGAAAGGGUAUCUAGAAGACCAAAUGGCGGUUUAUAGAAUAUAAACAUCAAGGAUGAAUCGCCUAAUGGUUUUCAAGAGACCCUAAUGGCGAUCGAUCAAAGAUCAACAGCAAGGCUGGAUCGCCAAAGGGGUUUCAAGAUACGGAAAGACCCAGGGAAGGAAUACCAAGCGCAAAGUUCCCUGGACGAAAGGGUAUAAAUUACGCCAAAACGCUAUGGAUGAAAGACC'
p219
aF0.8162162162162162
aa(lp220
S'Mat - Cuboid'
p221
aS'GAAAUAAAAGCAGACAAAAUCGAGCAAAAGAGGAGAGGAAAGGCAUGGACGCAAAAGAAGCUUCCAAACAAAACGAACGAAGCAUUCAAAAAGUAGCGAGCGAACAAAUAAAAGAUUGAUUGUGUCCUAGCAAAAUAUGGGGAACGAGAUAACUUUUUAAACUUAAAAGGAGGACUUGCAGUCAAAUGAAGUCGGGUACGUUGGUAGGAAAAAAUUUAGGCAUACUUUUAUCAGAUCAAAGGCCCGUAAGCCGGGGUACAGAUGUGUUCUUGUUUUAAUGAGCUUAGUAAAUUUCAUGCACCAGUAACCAAGCGACUGAUACCAACCAGCGGGAGGGUUUCAACGUAAUCUACUCCCAGCAGCCUUCGGGCAUGUAUAAC'
p222
aF0.6552631578947369
aa(lp223
S'Misfolded Aptamer 6'
p224
aS'AAAAAAGUGAAAAAAGUUCAACAAAAGAGAAAAAAAACUCGAAGGGAAAAGAACAAAAAAACGCAAAAAAAAAAA'
p225
aF1.0
aa(lp226
S'Snowflake 3'
p227
aS'GAGCCGAAAGGUGAGGCGGAAACUCAAGAUGAUAUCAAGAGAAAGCUCGAGGGCAAAGGCUAGAAAAUAUGAAAAUGAUUCUAGGAAACUCAAAAAAGGAUCAAGAUAAAAAUCCUGGGUAAAAACUAGGAAGUAUGAAAAUAAUAGCAGAAAACUGAAGAUCAGUGGAACAGGAAACUGCAGACCAAAAGGUACAAACUAUGAAAAUAAUUGCGGGAAACUGAAUCACAUAUAAAUGGGAAACCACAGAGCAAAGCCUAGAUACUACUAAAGAAAUUCUGGAAAGAUGAACAUGAGCACUAUUUGAAAAGGCAUAGCGAAAGCCUGAAACUACCAAAAGGAUUGCGGAAAGCAGAUUUACAGAUCAACAGAAAACAGUCCUGCAAAGGCAUC'
p228
aF0.732824427480916
aa(lp229
S'Hard Y and a bit more'
p230
aS'AAAAAGAAGCGUCGAUUUGAAAAGAUACGGAUGGAAGUAGUGUUGAAAGACAAGGAGAGAAAAAAUUUGCAUACAUCUGCGCUUCAAAAAAAAAAAAAAAAAAAAA'
p231
aF0.9716981132075472
aa(lp232
S'Mat - Lot 2-2 B'
p233
aS'GGUGGGGGAGAGUUGUAAAAGCUGCCAAGAAAUUAAAAGCAUGCUCUUCUAAAAAUAACCUAAAACAAGCAGGCGAAAGGAAAAGUGACACUGAGCAAAACUGAAAAGGCGAAGAAAACGGUACCUGGUUGCCUGCAGGUGAAAAUGCGAGGAGUGGAAAAAUCUGCGUUUAAUGCAAAUGCACGAGCGUCGAAAACCCAGCGCAUGCAAGUAGCAGCAUUAAAAAACAAGGAGUAGGAAAAGAAAAGUCUCGACGAAAACCAUGUGAUGGCAGAAUAAACUAC'
p234
aF0.7288732394366197
aa(lp235
S'Shapes and Energy'
p236
aS'AAAAAAGAGGUCAAGUCAAAAGAAAGAUCGCGAAAGAGAUCGAGCGACUACGGCUUUUUAACCGAAAGGUUCCAGACCGCAAAAAAAAAAAAAAAAAAAAA'
p237
aF1.0
aa(lp238
S"Spiral of 5's"
p239
aS'AGAAAGAUACAAAGAUAGAAAGAUAGAAAUGAUACUAAGAUAGAAAGAUAAAAGAUACGAAAGAUACAAAGAUAUAAAGAUAAAAGAUACAAAGAUAGAAAGAUACAACAUACAAAGAUACAAGAUACACGAUACAUGAUACGAGAUGCAGAUACAGCGCGAUGUCUAAAUGACAUGGGGGCGCGCGAAAAGUAUCAAAAAGUAUCUAAAAGUAUCUAAAAGUAUCUAAAAGUAUCAAAAGGUAUCAAAAAGUAUGAAAAAGUAUCAAAAACUAUCAAAAAGUAUCAAAAAUUAUCAAAAAAUAUCAAAAAGUAUCAAAAAGUAUCAAAAAUUAUCAAAAACUAUCAAAAUGUAUCUAAAACUAUCAAAAACUAUCAAAAAGUAUCAAAAAUAAAAA'
p240
aF0.9949622166246851
aa(lp241
S'Campfire'
p242
aS'AAAAGUUCAAUAUACAGGAUCAAGAGCGAAGAGACAGCGAUCGAAAGUAAGCUCAUGAGAAGAGGAUGAGCCUCAAAAGAAGUCUGUCGGUGCAGAAGCAUCUAAUAAGCUCGAGCAAAGGAAACUAUGAUUCAGGCAGCGCUUACGGGUAUAGAGGGAUAGACAUAGGGAAACUUAGUCAUCGAGAGCCGAAAUAGACUACCUACUUGAGC'
p243
aF0.8537735849056604
aa(lp244
S'Anemone'
p245
aS'AUCUAAUUGAAAGCGAUUACUUCCUAAUGGAAGCUAUUUGAAAAAAUGGGUUACGAAAGUAGCGAACUAGAAAUGGUUCCAUUCUAAUGAAUGGUCACGAAAGUGACGCAUAGGAAACUAUGCAGAUACAAAGGUAUCGGGUGGGAAACCGCCCGUUAGUAAGCUGACCCGUAGAAAACUACGGCGUAGGAAACUAUGGCGUCUAAAAAGAUGC'
p246
aF1.0
aa(lp247
S'Fractal 3'
p248
aS'AAAAAACGCAAUCCAUAAAGGCGAAAAAUCUGAGAGAGAGCAAAAACGCAAAAGCGCAGAUUAGGCAAAAAGGUAAAAACGUGGCGUGAACGAAAGUGCGAAAGCUCGCUGGGUAAAAA'
p249
aF0.9243697478991597
aa(lp250
S'Kyurem 5'
p251
aS'AAAAUGCUCGUGCUGGAAUCAGGUGAAAAGGUAAGUGAAAGUAGAAAAUGCUAUCGGUGAAAAAACCAUACCCGUCACUAGAGUUAAAAAAAAAAAAAAAAAAA'
p252
aF0.9807692307692307
aa(lp253
S'Snowflake Necklace ( or v2.0 )'
p254
aS'GCGCUGUGAUAGAACUGAUACGGCAAAAAGCAUAAAAAAGAAUGAAAAACAAUCAAAAAAAGUCAAAACGAAGUAUCAGAGAAAAACGCAGAUACAGCAAAAAUCGUCAAAAAGGACCAAAAAGGCGCAAAAAGGACCAAAAAGCAGUAUCAGCAAAAAAUGGACGAACAGGAAAAACCAUCAAAAAGAAUCAAAAAGAAUCAAAAAGAAUAGAAAAGAACUUCCACAUAAAAAAUUCGAAACAGUAAAAAGCAUCAAAAAGAGUUAAAAAGAAUCAAAAACAAUCAAAAAGAAGUUUCAGUAAAAAACAUAGAUAGACAAAAAAUCAUCUAAAUGAGUCAAAAAGAAUUAAAAAAAUGCAAAAAGAUGUAUCUGUUUUAUCACAGUGC'
p255
aF0.8277634961439588
aa(lp256
S'Methaqualone C16H14N2O Structural Representation'
p257
aS'AUUUUAAGUUCAGAUUAGGUAAUCAAAAGAUGGUGACCGGAAACGGAUAGGGAUAAAAGUCUGAGAGUCAAAAGACACAGGAAAAAACUGAUUCUCUAACUCGGCCAGGAACGUAUCAGUAGAAAGCAUAGAAAGCAAAGCAAAAAAAACCAAGAGAGAGAAAACUCUAGAAAACUAUUGAAAGCAACUUAGCAAAGAUUGGAAACAGAGUCAGACAGAUAGAGAGAAAAGGGAAAACCCAAUCACUCAAAAGGGACUAUGACAAAACUCUCUGGGAUAAAAAUCAUAUUCACGAAAAAAUUCAGUUAAUGUAACAGAAAACUGCUUGCUCAGAUCAAACGACAGAACAUUUAAA'
p258
aF0.8732394366197183
aa(lp259
S"Cat's Toy 2"
p260
aS'AAAAAUGGUUUCCAAAUGUGGUAAAAAAAAAAAAAAAAAUGUAUCUAAUAUAAUUAGAUUAAAAUUGUAAAAAAUGGAAAAAUGGGGAACCAUAAAA'
p261
aF0.9381443298969072
aa(lp262
S'Zigzag Semicircle'
p263
aS'AAAUAGAGUUGAUGAAAAUGCGAAAUUUUAUAAA'
p264
aF0.9411764705882353
aa(lp265
S'Short String 4'
p266
aS'AAAAAAGGAGCUUUGGAGAAAGGUGAGGGAAACCCGAACUAUAUACGGCAGAAAUGUAGUUAUUAGCGCAUAGCCUAAAAAAAAAAAAAAAAAAAAA'
p267
aF0.9381443298969072
aa(lp268
S'Gladius'
p269
aS'GGAAACAUUAAAAGAAUUAAUCCUAGAAUGACAGUCGAAGAUCAAAAGAUCAGAUACAAGAGAGAAUAGAUGAAUAAAUCGAGGGCGCUUGUAGCAUGCAGGUUUGGGUCGUAUCCUGAUCAAAGAUCUGAUAAGAUCGAAACCGACAUGCAACGAGCGCAACAGAUUGAAAUAUCAAAAUUCAACAGUAUCGGACAAAGAGACAAAGAUAGGAGGGAUGCUCAGAAGAUUUGGAGAUAAACACCAUAGACAUACAGCAUCCAGAGAGCAUGGGAAACCAUGCAACUCGAGAUGAAGUAUUACUAUGAGGUUUAUCACAUAACUACGAGAGCUCAACUCAAAACUUUGGGAGCGAAAGCUCGAACUCGGCGUAAGAUCAGAAAUAAUAAAAGUACAAAAG'
p270
aF0.8925
aa(lp271
S'Thunderbolt'
p272
aS'GGUGGAGAGAAAAAAAAGAGUAGACACAGACAGAAAACAGCGUUGUUAAAAAAAAAGCUAAAAUGACCAAAAAGGUCUAAACUGGAAACCUAGUUAAAAAUCGGUAAAAAAGAAGUAGCCUGUAAAAAUUAAUCAGACUAAAAAGAGAAAACAAUUCAUAAAGAGGUUUAAAAACUCAGAUCAAGCAAAAAAACUCUGGCGAAGCAAUUGAAAAUACGAACGAUCAAAAAAAAAGUCUGAGAGCAGGGAAGUUCUGCAGCUUGCAAAAAAAAAGUGCUAGGAAAAAAAAAGAUUCAAAAGCGAUUCAAAAAUAAAAAAAAGAAAAAGGAUCGAAAUUUAAAAACAAUGCAAAAAAAAGAGCAGGCAUAAAAAGAAAAAAACACUUUCAUCCA'
p273
aF0.9285714285714286
aa(lp274
S'Mutated chicken feet'
p275
aS'AAAAAAAUAAUGGUCUAUGGUGAAAAGCUAACCGGAGAAGCACUAAGGGACCUAUGCAAGGCACACUAUCGAGAAAGCUAGAAAUUGAAGGCGAAAAAAA'
p276
aF0.86
aa(lp277
S'Chicken Tracks'
p278
aS'AAAAAAAACCCAUGCUGCCUAAUGGCAAAGCUCAAAAGAGCAAGCUCUAAUGAGUGCAUGGGGGGACUUAUAAAGGAUAAGACCAAGGGGCCAGUACAAAGUGCGAUAAAAAAAAA'
p279
aF0.9482758620689655
aa(lp280
S'Looking Back Again'
p281
aS'CAGAAGGGAUAGAAAAUCCAUAGAAGCUAUGGUCUGUAAAAGCAGAAUAGAAGCUGCUGGGAUACAAAGAACAAAAGUUCGAAAGUAUCAAUUUAACUCAAUAUCGAAAAAAAUAUACAAAAGUAUAAAAAAACGUGAGUCCAUACAAAGUACCCAUAGAAAUUAUGGCGCUUUCAAAAUUAAGUUUAAGUUGAUCAAAAGGUCUUCAGUUUGUGUAGAGAUAAAGGUCAAAAGCGCAAAGUAUCGAUGGGCUACAAGUCAAAAAAGCGAUGUAAAAAAAAGACCAAAAAGGUCGCAUAAACGCGGAUCGUAGGAAAAAGCCAACGCUAAUGCGUUGAAGUGUUAAAGAGUAUAAAAAUUAUAAACACGCAAAACUACGUAGCAAGCCG'
p282
aF0.9023136246786633
aa(lp283
S'Multilooping 6'
p284
aS'AGGAGACGAGCAUGAAAAGCCACGGUUACAAAGGUAGCAUCUAGAAUCAAAAGAGAUGAUAAUUAAUAUUACUUGGUCUCAA'
p285
aF0.926829268292683
aa(lp286
S'Cesspool'
p287
aS'GAAGUAGAAAACAAUAGUUUAGAGUGAAACGCAACAGAUUUUGGAGUUGAAAACUUCAGUAUAAAAAGUUAAAAAGAAAACAUUAACAAGUUGAGUGAAAAAACAGUUUAGACGGAAACUCAACAGAUUUUGAAGGUGAAAACUUCAGUUUAACAAUUUAAAAAGAAAACACCCUCAAGCAUGAGAAAAACAACUGUAUUGCGAGAAACUUAACUUAUUUGGAGGGUGAAAGCUUCAGUUUAAAAAUUUAAAAAGAAAACACUUGGCAAGUUUGACGAAAACAACCGUUUAGAGAGAAACUCAACGAAUUUGGAAGUAGAAAACGUCAGUUUAAAAAUUUAAAAAGAAAACACAUUAC'
p288
aF0.6312849162011173
aa(lp289
S'Hoglafractal'
p290
aS'AAGAGGAACAUAGAAAACAUACAAAAAAGUAUGUUGUGCAACAAAGAUCAAAAAGAUCGUUGCAGAAGAGAAAACUCGCGUGAGAAGGUUCAAAGAUCAAAAAAGAUCGAACCAUAUGAGAAAAAGUCAUGACACCAAAAGGUUUUAUCAAAAGAGAAGAGAAAAAACUCCCCCGAGCAAAAAGCGGCAGAAAACUGGGAUAGAAAAAGCAGCAAAAAAGCGCCAGGAACAUUACAAAAAUGAGCUAGGAAAAACGUGAAAAAGCACAAAAAAAUAGACCGCAUAGAAACUAUGCGAAAAAAACCUAGCAAAAAGUCAUCAAAAAGGUAUAAGCUCCAACCAACGAAGAGCAGACCUAAAGCAAAAGCACGAAAGUUAUAGCAAAGCUAUAUGGUCGCAC'
p291
aF0.8775
aa(lp292
S'Bullseye'
p293
aS'AAAAAUUAUCAAAGCUAAAGAUUAAAGAUCAAACACAAGGAUCAUUAAAAAAAGGGGGGAUAAAGUCUAAAAUAGAAUAUUAAGAAUAAAGCCCCUCAAAAAAAAGAGGCAAAAAGGUCAUGAGGUAUGUUAUAAUGCAAGGAGUCUUAAAACAACCAGACUGUAUCGUUAAGUAGAAAUUACAAGUACAAGGUUAUUUAAA'
p294
aF0.8118811881188119
aa(lp295
S'Shooting Star'
p296
aS'AUAUAUGGUCGCUAUGCAAGCAGAUGCGGAGAGAAAGCAAAAGACUUACCUCAGACUGCGAAGCAUAGCAAAUCCUUGAAAUGGAGAUAGAUGCAGAUAGAUCAGCAAAGGACGAUACGUCGACAUACAUCACCCCUUCUUGGUAAUUAAGAUUAAGCCAGCGCAAAAAUGACAGAUAAAAUCUGGUGGAAACUCACCUUAGACCAGAUAAGAUGAAAGCGAUGCAAAGCAUCGCACAUAGAAACUAUGCAUGGCGUUGCCAAGCAACGCACGUUGAAGCGACGGAGCCCAGACCGAAAGAGAAAAGAUUAGAGAGAGCUCAGCAAAAGACGAGACCUCGCACCUGUAGUAUUUGCAGUAUAUA'
p297
aF0.8159340659340659
aa(lp298
S'Teslagon'
p299
aS'AAAAAAGUAAAAUAAGCAGUAAAAAAAUCGAGCUAUUAUUUUUUUAAUAUAUCAAAUAGUGGUGGGGGGGCGGAAACACCAAAAUAAGCAGAAAAGAAAACUUUUUUUAAUUUUAAGCUAAAUAAUCGGCACAAAAUGGAUCUUUUUUUUUUUUAAUGAUAUUAAAUAACUGGGGAGGGGGAGAAGUAGCUAAAUAAGCGGGAAAAAAAGCUUUAUUUUUUCUUAAGUAAAAUAAUUGGCAAAAAAGGCUUCGUUUUUUGUUUUUAACGUAUCAAAUAGCGGGGGGGGGGGGGCAGCUGCAAAAUAAGCAAGGAAAAAGCGAUAAAAAAAACAGCUUUUUUUUUUUUUAAGCACGAAAAGAACUAGUGAAAAACGCAAAAAA'
p300
aF0.6178010471204188
aa.