(lp0
(lp1
S'Simple Hairpin'
p2
aS'GAUACAAAAAAGUAUC'
p3
aF1.0
aa(lp4
S'Arabidopsis Thaliana 6 RNA - Difficulty Level 0'
p5
aS'GGGACACGAAAGACAAAAAAAAAAAGUCGUUGUAUGGAGAUAUACAUAGAUUGAUGACUAGAUACAAAAAAGUAUCAUUAUUGCAUUUAUGUAUAUCAACAUACGACAAGUGUCCC'
p6
aF1.0
aa(lp7
S'Prion Pseudoknot - Difficulty Level 0'
p8
aS'GAUGGCAGUACAAAAGUACGCUAAUCAAAAAAAAAA'
p9
aF1.0
aa(lp10
S'Human Integrated Adenovirus - Difficulty Level 0'
p11
aS'GAGAUAUUAUGAUGACUCUGGGAAAAAAAAAAGUCCCGUCGCGUGGCCCGUUUCGUCAAAAGCGGGGGGCUGAUAAAAAAAGAUUAGCCCCUAAAGCGCGACGAACAAGACCCGAAAGCAGUGCAGGUUUGCUAAAAAUCUAGAUGGACGAAAAAAAAAAACUGGAGGUAUUAAAAGUGAUGAAUUUUCAAA'
p12
aF0.9791666666666666
aa(lp13
S'The Gammaretrovirus Signal - Difficulty Level 0'
p14
aS'AAGGCAAUUAUGCAAAAGCAUAAGGGACGAAAAUGAACAAGGCAUACCGUUCUGAAAGGAGCCCAAGGUAGCCGUUCUAGUGGUGCUAAAGGGUACCACAA'
p15
aF1.0
aa(lp16
S'Saccharomyces Cerevisiae - Difficulty Level 0'
p17
aS'GUGACUCGGGUAAAAAAAAACCCAGGGAAAAAAAAAAAAAACCAAAACGGAUAAAAAAAAUCUGGGGUCACAAAAGCGACGAAAGCGCUAAAAAAUGCGCGCCAAAAAAAAAAAAGGGCAAAAUACACUAAAAAUGUGUAUCGUCGCGAAUGGGGCAGAAUUGCAAAAAAAAGCAAGAGGUUAAAAAAGAACCUUAAAAGAUACGAAAAAAGUAUCCUGUCUCUAAAGUGUCACAAGCACAAAAAAAGGUGCUAGAUUAAAAAAGAAUCUAAAAAAAUACGAAAAAAGUGUUGUGACACGAAGGGCGCACAAAGUCGAAAAAAAGACUGAGAUUGAAAAAAAAUCUCUAAAGUCACAAAAAAAGUGACGUGUGUCAAAA'
p18
aF1.0
aa(lp19
S'Fractal 2'
p20
aS'AAAAAGCGGUAUGUAAUAGUUGGAUUAAGACCAAACCCAGCCGGUCGGGGGCUCAAAAAAAUGCCCAAGAGCAAAAAAAAAAGUUCAAAAUCCAACUGGAAGGCGUUGGUGUCGGGCGAAAAAAAAAGCCCAAGUUAGAAAAAAAAAUAGCAUCGAGGAAAAAAAAAUUCGUUUACCAACGCCAAAUUUGCGGGUUGUUUGGAAAAAAAAAACCAGUAGUGAGAAAAAAAAAUCACAGAUCCAAAAAAAAAAGGAUAAGACCCGCGGAGAUUAUACCGCGAAAA'
p21
aF1.0
aa(lp22
S'G-C Placement'
p23
aS'AGACAAGGUCUG'
p24
aF1.0
aa(lp25
S'The Sun'
p26
aS'GACAGUGGGACGAAGUCCAACACGUCAAAAGGAGCUGUAUAAGAUCACAGACCACGCGAUCAGUGCUGCAAAGCAGAACACGAUAAACGCAUAACUAUAAGGUACAAUAAGCAGAGAGUAGGGUUAGAAGCUAGAACCAACUAAAAGAAGUGGACCGAACUUCAACACGCUGAGAGCACUCCACGAAGGUUGAAGAGGCUAAAACCAGUGAUACAAAGUAUAACACGGUAAAGACGUGGGUACGAAAGACAACUGGUC'
p27
aF0.8527131782945736
aa(lp28
S'Frog Foot'
p29
aS'AAAAAAAAAAAUUAGAAAUGGUGUACAAAGGUACCUGCGAAGCAG'
p30
aF1.0
aa(lp31
S'InfoRNA test 16'
p32
aS'GUAUGCUCACGUUACGAAAGUAACAGUAGUGCAUAC'
p33
aF1.0
aa(lp34
S'Mat - Martian 2'
p35
aS'GUACAAAAGUACAAAGUGACACAAGUGACACAAAAAAAGUGUUACGUGUCACAAAGUGGUAUGAAAAAAGUGACACAGUGAAACAAAAAAAGUUUUACGUGUCACAAAGAUAUAGGAUUCUUAAAAAAAAAGAAUCACUAUAUCAAAAAACAUACCACAAAGAUAUAGGAUUGUUAAAAAAGAACAAUCAACUAUAUCAAAAUACAAAAGUAU'
p36
aF1.0
aa(lp37
S'square'
p38
aS'GCGGUACCGGGAGCGGUUGCGAGUACAAGGUACUCAAAAGCAACCGAAAACUCCCGAAAAGUACCGC'
p39
aF1.0
aa(lp40
S'Six legd turtle 2'
p41
aS'AAAAAACACGCGAAAAGAAAAGCAAAGGAAAAGUAAAAACAAACCAACCCGGAUCCAAAAUGGAGUCAAAAAAAAAAUGAAAAAAAAAAAAAAAAAAA'
p42
aF0.9387755102040817
aa(lp43
S'Small and Easy 6'
p44
aS'GCAGAAAAAGUCAAUCGAAAAAAAAGACGC'
p45
aF0.8666666666666667
aa(lp46
S'Fractile'
p47
aS'AAAAAAAAAAAAUCGAAAGGAAUGGAAAGUAAAAGCCAGUAAUAAAAAAUUUAAACAAGCUAAUGCGAGUCUAGCAAAAGUGAAAAAAAAAAAAAAAAAAAAAAA'
p48
aF0.9619047619047619
aa(lp49
S'Six legd Turtle'
p50
aS'AAAAUGCAAAAACAAAUGUAAAAUUGAAAAAAAAGUGGAAACAAAAAGUGAAAGCAAAUAGUAAUCGAAAGUAGAAAUGAAAACCUAAAAAAAAAAAAAAAAAAA'
p51
aF0.9619047619047619
aa(lp52
S'snoRNA SNORD64'
p53
aS'GUAUGCAAAAAGACAAAAGACAAAGAUACAAAAAAAAAAAAAGUAUCGAAAGUCAAGUCAAGCAUAC'
p54
aF1.0
aa(lp55
S'Chalk Outline'
p56
aS'AAAAUAACUAGAUGUAAAGACAAUCAAUCAUAGGAAAUUAGGUUGUUUAAAAAAUUAGGACCGUGAGAAAUUUCAGAGGUUUAAAAAAAAAAAAAAAAAAAAAA'
p57
aF0.9807692307692307
aa(lp58
S'InfoRNA bulge test 9'
p59
aS'GUGACACAGAGAGAGUGACACAAAAGUGUCACCCCGUGUCAC'
p60
aF1.0
aa(lp61
S'Tilted Russian Cross'
p62
aS'AAAACUCAUGUUCGAAAGAAUUUGUUGAUCAAAGGAUCGCUCUUAAUGGAGAACUACUAAUGUAGGUAAUAACGAAAGGUAGUACUGAUAAAAAAAAAAAAAAAA'
p63
aF0.9809523809523809
aa(lp64
S'This is ACTUALLY Small And Easy 6'
p65
aS'AAAAAAAAAAAAAAAAAAAAAAAAAAAAAAAAAAAAAAAAAAAAAAAAAAAAAAAAAAAAAAAAAAAAAAAAAAAAAAAAAAAAAAAAAAAAAAAAAAAAAAAAAAAAAAAAAAAAAAAAAAAAAAAAAAAAAAAAAAAAAAAAAAAAAAAAAAAAAAAAAAAAAAAAAAAAAAAAAAAAAAAAAAAAAAAAAAAAAAAAAAAAAAAAAAAAAAAAAAAAAAAAAAAAAAAAAAAAAAAAAAAAAAAAAAAAAAAAAAAAAAAAAAAAAAAAAAAAAAAAAAAAAAAAAAAAAAAAAAAAAAAAAAAAAAAAAAAAAAAAAAAAAAAAAAAAAAAAAAAAAAAAAAAAAAAAAAAAAAAAAAAAAAAAAAAAAAAAAAAAAAAAAAAAAAAAAAAAAAAA'
p66
aF1.0
aa(lp67
S'Shortie 4'
p68
aS'GGGAAACUAGGGAAACC'
p69
aF1.0
aa(lp70
S'Shape Test'
p71
aS'AAAAAGAUUACAAGAUACAAAAAAAAGUAUCAAGACAUACAGAUACUAAAUGUAUCUGCACAAAAGUGCUGUAGUCAAGUGAACAAAAAAAAAAAAAAAAAAAA'
p72
aF1.0
aa(lp73
S'The Minitsry'
p74
aS'GCCAAAAAGACAAAAAGCCAAAAGGACAAAAGGACAAAAAAAAGUCAGUCAGGCAGUCAGGC'
p75
aF1.0
aa(lp76
S'stickshift'
p77
aS'AAGUGACCGCAAAAAGCAGGUCACAA'
p78
aF1.0
aa(lp79
S'U'
p80
aS'AAAAAGUUACAGAGAGCAGACUGGUAUGUGAAAGUAUACUAGCGCCCGUAGCAAAAA'
p81
aF1.0
aa(lp82
S'Still Life (Sunflower In A Vase)'
p83
aS'AAAGUACAACACGCGAAAACCGAAAAUAAAUAAAGUUUGAAUAGACAAAAGGUCUAAAGAAAGACGCUUCGUACAACCUAAAUGCCUAGAGAGACGAAAAGUCUUAGAUAUGUAUAUAUAUAUAGAUGUGGUACAAAAAGGUACCAGUUCGAAAAAAAAAAAAAUAACUAAAAAAAAAAAAAAAAAAAAAAAAAAAAAAAAAAAAAUCUGUUGAAAAAAAAAAAAGCGAAUGAGACGAAAGUCUCAAUAUUUAUAUAUAUAUACAUAUUAAGAUAUAAAAGAUGUCGAUAGCCAAAAAGGCUAGGCCUAUAAAAGGUAGGAUCUGGGUAAAUUCCAAAAGCCUGAAAAAGGGCAAUAUACAAAAGGUGCAGGUACAAA'
p84
aF0.9470899470899471
aa(lp85
S'Quasispecies 2-2 Loop Challenge'
p86
aS'AAAAAGUACGUACAAGGGAAAAAUUCCAAGUACAGUAGGACAAAGGACUACAGAUCAAGAAGAAAAAAAUUCGGCAAGAUUGUACAAAAAAAAAAAAAAAAAAAA'
p87
aF1.0
aa(lp88
S'Corner bulge training'
p89
aS'AGUAUGUGAUACAAAGUAUCAAAAACAUACA'
p90
aF1.0
aa(lp91
S'Spiral'
p92
aS'AAAAAGUACAGUAUGCGUACAGAUACAGGACAGGGCUACAGCAGCAGCAGCAGCAAAAGGCGCGCGCGCGUGUCCGUUCGUAUCGUGGCAUACGUACGAAAA'
p93
aF1.0
aa(lp94
S'InfoRNA bulge test'
p95
aS'AAAAAAAAAAAAAAAAAAAAAAAAAAAAAGGGGUAAAAAACGCAAAUGGAGAAAGAGAAAGGGGAGUGCAAAAGGCUACGCCACCGGUCAUUGAACUACCUAAAAGCUGUAAAAAUCCACCA'
p96
aF1.0
aa(lp97
S'Worm 1'
p98
aS'AAAAAAAAUAAUAGGCAUAUACGCAAAUGCGUUUAUGACGGUUUU'
p99
aF0.9111111111111111
aa(lp100
S'just down to 1 bulge'
p101
aS'AAAAAGCCAAGACACUAAUGUGUCGGUCUAAUGAUUUGAGCAAAAAUACAUACAAAAGUAGGACAAAAGUCAGUAUAAAAAAAAAAAAAAAAAAAA'
p102
aF1.0
aa(lp103
S'Iron Cross'
p104
aS'ACGGUCGCAAAGGUAUACGAAGUGAUGGGAAAGAAGGCCAAACGCUGCUGAAAGGCUGAAAAACUCAGCCAAAUGUGGAGUAAUGACAGCUAAGAGCGGUAAAAGUGAGACAAAGUCUUUGAA'
p105
aF0.926829268292683
aa(lp106
S'loops and stems'
p107
aS'AAAAAGUGACGCUAAGUAUAAAGUACAAACUGCAAAAAAAAGGAUACAAAAAAAAAAAAGUAUCAAAGCGGGAAAGUACCAAAAAAAAAGUACAAAGUACAAAGAUAAAAAAAAAUCAAAAUACAAGCAAAAAAGCGAUGCGUCACAAAAA'
p108
aF1.0
aa(lp109
S'Water Strider'
p110
aS'AAAAACGGGGGGCUGAUCAGGAAAGCUUUAUAAAAAUAAUCGCCGGCGACAAAAAGCUGGAAGAAAUUCAGUGAGAACCACGAAAAAAAAAAAAAAAAAAAAA'
p111
aF0.9223300970873787
aa(lp112
S'The Turtle(s) Move(s)'
p113
aS'AAAAAAAAAAGGAAAGCGUUAGGGGAAAAAAAACCUUGGCGUAAUGAACUGAAAAAGAGAAAAAUACGAAAGUGCGAGUUGGAAAAAAGCCAACAAAAAUAGAAAUAGAUAGGAAAAGACAAAAGUCAAAUGUACAUCAAAAAAGUGUGGUAAGGGGUAAUGCCAAAAAGUACCGGAAAGUCAAAAAAAGACAAUACGAAAAAAAGUAGAGAAUGCAAAAAAGCGUUAAAUGUGAAAAACGCAAACGGUACAAAAAAAAAGGGAAAACGAAAAACGAAAGUAAAAAAGAGUCAAAAAAAAAAGUCUCAAAAAAUAU'
p114
aF0.9683544303797469
aa(lp115
S'Adenine'
p116
aS'GAUACAGUAUGCAGUAUGCAGUAUGCAGUAUGCAGUAUGCAAAAGUAUGCAAAAAAGCAUACAGCAUACAGAUACAAAGUGACACAAAGUGUCACGUAUCAGCAUACAGAUAGGAUAUAUAAAAUAUAUCAAACUAUCAGCAUACAAAAGCAUACAAAAGCAUACAAAAGUAUC'
p117
aF1.0
aa(lp118
S'Tripod5'
p119
aS'AAGCACGUUCAAAAGGAACGGAAUAAAUUUCCGUGCAA'
p120
aF1.0
aa(lp121
S'Shortie 6'
p122
aS'GUGAAAACAGCGAAAGCAGGGAAACUAAGGAAACU'
p123
aF1.0
aa(lp124
S'Runner'
p125
aS'AAAAGGGUCAAUACAAAAGGCCUUAUAUGCGGUAUAAUGGAUACUAAAAGAAUGGAAAGGUGACGCUGAAAGCGAAGUUUGCCAAGGAUUAUGCCAAAAGGCCGUCAGAUCAAAAA'
p126
aF0.9827586206896551
aa(lp127
S'Recoil'
p128
aS'AAAAAGAUACAAGCAAGCAAGACAAGACAAGCAAGCAAAGCAGCAGUCAGUCAGCAGCAGUAUCAAAAAAAAAAAAAAAAAAAAA'
p129
aF1.0
aa(lp130
S'[CloudBeta] An Arm and a Leg 1.0'
p131
aS'AAAAUGACAGGCACAAAAGUAGCCGACAGCGAAAGCGUCAGUCUAAAAAAAAAAAAAAAAAAA'
p132
aF1.0
aa(lp133
S'[CloudBeta] 5 Adjacent Stack Multi-Branch Loop'
p134
aS'UUAUGGCUGAAAGUUGCGAUCUGAAAAGAUCUAAACUAAUGUUUAGGCAAAAGUCCUCAUAAA'
p135
aF0.873015873015873
aa(lp136
S'Triple Y'
p137
aS'AAAAAGUUCGUCCUCAAAGAAUUAGGCUCUAAUGAGCGGACCAUUGUAUGAAAAUACGAGCAAAAGAUCGGAAGAACGAAAAAAAAAAAAAAAAAAA'
p138
aF0.9175257731958762
aa(lp139
S'Misfolded Aptamer'
p140
aS'GUACAAAAAAGGGACAAAGUCAGCAAAAGCAAAAAAAAACCAAAAGGUAC'
p141
aF1.0
aa(lp142
S'Flower power'
p143
aS'AAAAUAGAAAUGGUAUUCAUAGUAUCUUCUAUGGAGAAGCAGAAACUGUGAGGUCUAUGAGCGCACAUCUAAAAGGGAUUCUUAAAAAAAAAAAAAAAAAAA'
p144
aF0.9019607843137255
aa(lp145
S'Kudzu'
p146
aS'AAAAAGAGAGUCGGGAUGGAGUUGACCGAAGCUAAACGAUUACAGGAACUAGUAGAAGAAUAUUUCAAAAUCACAUCGUACAAAAAAAAAAAAAAAAAAAA'
p147
aF0.9405940594059405
aa(lp148
S'"1,2,3and4bulges"'
p149
aS'AAAAAUGCAGUGCGGAAAGACCAAGACGAAGAAAAGUCUGGGAGGAAAUAGUAAUUUUAAUAAAAAGGGUUAAAGGCCAUGAACUUAAAAAAAAAAAAAAAAAAA'
p150
aF0.9238095238095239
aa(lp151
S'medallion'
p152
aS'GUGUGUCUUCGUAAAAAUACGAAGGAAAAAGUUCAGAUGAAAGUCACUGUGCGAAAGCACAGGGAGAAAACACAAGAUUCAAAAGAAUCUGGACAAAGCGCAGACGAAAGUCAGGCUUUUAAUGGGGUGAGACAAAAGUCAGUGUUCUAAUGGAUACAGAAGAAAUUCAGAGAAAAGCUGGUAUGUAAAAACAUACGAACUAAUGUUAUUUCGCAAAAGUAGGCAGAUGAAAGUCAGCCUAAUGGCAGUAUGCAAAAGCAUACAGGGAAAACCCAGGAUUCAAAAGAAUCCAGACAAAAGUCAGACAAAGGCCGGAAAGCAAAGGCUUUUAACACAC'
p153
aF0.9287833827893175
aa(lp154
S'[RNA] Repetitious Sequences 8/10'
p155
aS'AGGAAAAAAGCAAAAAAGCAAAAAAGCAAAAAAGUAAAAAAGCAAAAAAGUAAAAAAGCAAAAAAGCAAAAAACCAAAAA'
p156
aF1.0
aa(lp157
S'Documenting repetitious behavior'
p158
aS'AAAAAAAGGAAAAAAAAAGGAAAAAAAAAGGAAAAAAAAAGGAAAAAAAAAGGAAAAAAAAAGGAAAAAAAAAGGAAAAAAAAAGGAAAAAAAAAGGAAAAAAAAAGGAAAAAAAAAGGAAAAAAAAAGGAAAAAAAAAGGAAAAAAAAAGGAAAAAAAAAGGAAAAAAAAAGGAAAAAAAAAGGAAAAAAAAAGCAAAAAAAAAGCAAAAAAAAACCAAAAAAAAACCAAAAAAAAACCAAAAAAAAACCAAAAAAAAACCAAAAAAAAACCAAAAAAAAACCAAAAAAAAACCAAAAAAAAACCAAAAAAAAACCAAAAAAAAACCAAAAAAAAACCAAAAAAAAACCAAAAAAAAACCAAAAAAAAACCAAAAAAAAACCAAAAAAAAACCAAAAAA'
p159
aF1.0
aa(lp160
S'7 multiloop'
p161
aS'GGGCCUUACUAAUGUAAGUAGACUAAUGUCUAGCUGGGAAACUAGCGUUUCGAAAGAAACGGUAGGAAACUACCGUAUGGAAACGUACGCCU'
p162
aF1.0
aa(lp163
S'Kyurem 7'
p164
aS'AAAAGUACAAAGGGAAAAGUUAUGAAAAAGUCCGGAAUAAAUUUAACCACACUAAAAUGUGAAAUGGGCACGCGCUUCUGUAAAAAAAAAAAAAAAAAAAAA'
p165
aF0.8921568627450981
aa(lp166
S'JF1'
p167
aS'UAUGGUAGUAUAAUAGGAAGAUACAAAAGUAUGCAAGAUACUACGAUACAAGGAUGUAUAUAGAGAUAUAUUUAAUGAUAUAUCUUUAUAACGACAAAAGUCCUAGGAUGGUGAAAACCGUCCUAUAGAUACGAAAGUAUCAACAUCCAGUAUCCGUAUCGGCAUACAAAGUGGCAUGAAAAACAUAGCCACAAGAUAUAUAUGCAUAUAUAUAUAUUGAAAGAUAUAUAUAUAUGAUAUAUAUAUUGAAUCUAUAAAAAAAUAGAAAUGAUGGUUAAAGGACCAUCGUUAAAGUAAAAAAUUACAAGUAUCAACUUAUAUAGGAGACAGACAAAAGUCGUCCCUAAGUGGGUUGCAAAAGCAACACCACAAUACAUACACAUAAAA'
p168
aF1.0
aa(lp169
S'multilooping fun'
p170
aS'AUAGGGGAAUACUUGUAAACAACAAUGGAAAAUUGU'
p171
aF0.8888888888888888
aa(lp172
S'Multiloop...'
p173
aS'GGUCAGUGUGGUCGAAAGGCAGAGAAAACUCAGACGAAAGUCAGACGAAAGUCAGACAAAAGUCAGCUAAAAAGCAACACAGGUACAAAAAAGUAUCGACGAAAGUCGGCC'
p174
aF1.0
aa(lp175
S'hard Y'
p176
aS'AAAAUGGCCCCUAGGGUCUCAAAGGAGACUAGUGGUAGGUGCUUUUAAUGAAGUACUUAGGUCUAAAA'
p177
aF0.9705882352941176
aa(lp178
S'Mat - Elements & Sections'
p179
aS'AAAAAUUAGAGGAACGCAAUAGAUGAUAUAAUGUGGAGUCACUAAUGUGUCACGAAGUGCGUCGAAAGUGGUAGAGGAACGUUAAAAAAAAAAAAAAAAAAAAAA'
p180
aF0.9619047619047619
aa(lp181
S'Chicken feet'
p182
aS'AAAACCCAGUGGUAAGGCAGUAAGGAGAAACGCUGGAAGUCGAAAUAGGCUAUGCAAUUUUUAAAAA'
p183
aF0.8805970149253731
aa(lp184
S'Bug 18'
p185
aS'AUUAGCUGGACCGUAAAAACAAUAAAGCGAGGAUUUGUAGACCUGCAAAGAGG'
p186
aF0.9622641509433962
aa(lp187
S'Fractal star x5'
p188
aS'AAAAACUUGGUGCAACCUCGAAAGAGCAGCAGUAAAGACUGAAGUACAAAAGUACAGUAUGGAAACAUAAAGACUCGAUAAAAGUUUAAUAAAGGUUCAAAAGAACAAUGUGAAAACCCAAAAGUCAAAAGGCUAACAGCAAAGGUUGAAUUGUGAAGAAAAACCAUGUACAAGUACAAAGGUGCAAUAGGAAAGCCUAGAGGAGAAAACUCCAUGAGGAAAACCUCUAGUCCGUGGAAAAAUUAGUUACAACUAUAAAGAUGGGACAGGGAAACCUGAAAUCCAAAGGGAUAAUGGGGAAACCUAAAGUAACUAGAAAAAAUAUAUCCAAAAAGAAAAUUUGAAUAGAGAAAUCUAAAGUGCAAAAGUACAAUAGGAAAACCUAGAGUACGAAAAAAAA'
p189
aF0.945
aa(lp190
S'Crop circle 2'
p191
aS'GUAAACGUAAGUGGAAAGGUUAAAAAAAAGUGAAAAAAAAAAAAAAAAAAAAAAAAAAAAAGUAAAAAAAAAAAAAAUACAAAAAAAAAUAAAAAAAUCGAAAGACAAAA'
p192
aF0.9636363636363636
aa(lp193
S'Branching Loop'
p194
aS'GCAGCGGAAAAAAACGAGCAAAUGCCUACGUUCAAAAAAA'
p195
aF0.95
aa(lp196
S'Bug 38'
p197
aS'AGCGAUAGCAUUGGUAAAGAAAUGCGAAUAAAAGCG'
p198
aF0.9444444444444444
aa(lp199
S'Simple Single Bond'
p200
aS'AAAAAAGAAAAAAAAUAUGCGAAAAGCAUUAAAAAAAGCGAAAAAAAAAAAAAAAAAAAAA'
p201
aF1.0
aa(lp202
S'Taraxacum officinale'
p203
aS'CCGUAAAAGAAUGAUAACGAAAGACACGUAGGGAAACACUAUCCAAAAAGUACGGUCAGAUAAUCACUAAGCGGAAAAUACGCAGGCAAGUGUAUGGUAAAUGUGUUAUAUACAAUUUACCUGAUACAAUAGGAUUCUUGGUUGUCUUAAGAAGACAAGGAGGGUCCUACUACAGUAGGCAAAGUCUACGUAGGUAUCUAAAUAUAUUUGUCAUGAUAAAGAACAGGUAGGGAAACACUAAUGGCAAAACCUUGAUAGCUAAUGGCUAAGAGUAAAAGACUC'
p204
aF0.9078014184397163
aa(lp205
S'Headless Bug on Windshield'
p206
aS'AGCUGAAAAAAUGUGAAAGGUAAUCAAAAAAAAAAAAAAAAAAAAAAAAAGUUAACAAAGUAACGAAACCUACAGGCUAGACCAGGAAAAAAAUCAAAAGAGAAAAAAGCGUCAAAAAUGGUAAUGAUGAAAAAAGGCAAACUAGACAAGAACAUGAAAAAAAAAAAAAAAUCAAUCGAGUCAUGUAGCGAAAUAAUAUA'
p207
aF0.98
aa(lp208
S'Pokeball'
p209
aS'AAAGUGAUGCAAAAGCAAGCAAGACAAUCAGACUAUUAACAGAGCAAGGUAGUGGGGAAUGAAGUGCAAGAACUCGGCACCGUGUCGUGAAAAAAGCUCUCACAAAAGGAAGUAAUUUAAGCAAGUAAGCAAGGAAUAAAGAAAAUCAUGGAGCAGAAGCGGGCGGAAAGCGUCGUGAGCCAAA'
p210
aF0.9565217391304348
aa(lp211
S'Variation of a crop circle'
p212
aS'AAAUUUAAAAGGAAAGCGUAAAACAAGUGAUCUAUCGAAGAAAAAGGAAAAAUACAAAAAAAUCAAAAAAAAGGAUAAAAAAAAAAAA'
p213
aF0.9545454545454546
aa(lp214
S'Loop next to a Multiloop'
p215
aS'AUGUGGUAUGAAAAAAAGAGUAGGCAAAGGCCUGCGGUAGCAGAAAAUUGUUACAUGAAAAAACAUACCACUA'
p216
aF0.9726027397260274
aa(lp217
S'Snowflake 4'
p218
aS'UGGGAAACCAAGAAUUUUUAACGAUAGAAUAGGCACACAAAACUUGGACGUGCAAAGCACAAGAAGGAACUUCGUCUAUAAAAAGUGUGCCAGGUUAAUGGAAAUAAUAGCCAGCAAAACUGAAUACCAAGGGUAGCUAUGGAAAACCUUAGCAGGAUGCAUAAAAGAAUAGCCAGGAAAGCUGAAUUCGAAAUCGAGAUAUAUAAAAGUGUAUCAGGCUUCAGUAAUUAGGAGGGCGCGAAGCGCAAUAGGAAGCCUACCUUCUAAAAGCCGAAGCAAGUUACGCAAAGUCUAGCCUUUGAAGUAACAAUAGGAAACUUGGGCUAAAAAAGUCGUAGCAUUUCUAGCUAAUGCAAUUUGGACGAAGUCC'
p219
aF0.9135135135135135
aa(lp220
S'Mat - Cuboid'
p221
aS'GAUGCAAAAUGGAUCAAAAGGAACAAAAAGCAGGAAGCAAAAGGAAGGAAGCAAAAGAAGGAAGGAAGCAAAAGGAAGUAAGGAAGCAAAAGCAGGGAAAGAAUUAAGGAAAAGUGAGCAAGCAAGGAUACAAAAUCAACCAAGCAGGCAAGAAAGCAAAAGGAAGAAAGGAAGAAAGCAAGCAAAAUCAAGCAAGCGAGUAAGGAUGCAAAAAAGCUGGCAAGCAAGCAUGCAGGAGCAAGCAAACAAUCAAUCAACGGCGACCAAGCAAGUAAGGAAGAGCUACCAAGCAAGCAAACCCAAAAAAUUAACCAAGCGCAACCAAACAACCGCAGCUAACCAACGCAACCAACCGCAACCAACUGAACUGAAACCGUUAU'
p222
aF0.9842105263157894
aa(lp223
S'Misfolded Aptamer 6'
p224
aS'AAAAAGGGCAAAAAAGUGCUACAAAAGACUAAAAAAUGUCGAAGGGAAAUGCACAAAAAAAGUCAAAAAAAAAAA'
p225
aF1.0
aa(lp226
S'Snowflake 3'
p227
aS'GACUCAAAAAAAGACUAUAAAAGUAAGUUACUGUAAAAGAAAAAAGUCUACAUCGAAAGAGACAAACUUUCAAAAGGAUAAAGCAAAACACAAUUUCUUUACGAGACAAAGAGCUACAUCAAAAGAGACUAUGUUGUAAAAACGGGAAGCGAAAGCCAAGUAGAGUACAAGGCAAAAGUAUACGGCGAAAGUAACAAAGUUGCAAAAGCAGUAAGUAAAGACCAAGUAAAUUCCCAGAGAAAACUCGAGAUCAAAAGAGGCAAAGUUUCAAAGGGACCUCGCAAAAGCGUUGUAGUGAACAAGUCAAAGGGCGUCAUAAAAAUAGACUAUGUUGCUAAUACAGACGGCAAAAGCUAAGUUCAGUAAAAGACAAAAGUCGUCAUGAAAAGAGUU'
p228
aF0.7582697201017812
aa(lp229
S'Hard Y and a bit more'
p230
aS'AAAAUUUACGAAUCCUCAUAAUUGUGAGCUGUUAGAGCUACUCGAAAGUGAGGAGGACAGCAAAAUGUUUGUGCGCUAGCCGUAGUAGCAAAAAAAAAAAAAAAAA'
p231
aF0.9716981132075472
aa(lp232
S'Mat - Lot 2-2 B'
p233
aS'GAAGCCAAGUGCAAGCAAAAUCGAGAGUAAAAACAAAAUCAAGGGCAAGCAAAAGCAAGGUGGAGCAAGCAGGUGGUGGCAAAAGCAAGUGUAGGCAAAAGCAAAGGCGCAAGCAAAACCGAGCGAGUGUGGGAGGAAAGAAAACAUAAAGUACAGCUAAAAGCAAGUGUAAAAGCAAAAGCGGGCACUACUAAAACGAAGCCGAACCAAACAAGCGCAAGCAAAAGUAACUUCAAGCAAAAUCGAAAGGGCAAGGAAAAGCAAACGCAAGCGCGACGAAUAAU'
p234
aF0.8169014084507042
aa(lp235
S'Shapes and Energy'
p236
aS'AAAAAUGUGGUCAAGAAAAAUGGAGGGACAUUAAUCGGUCUAAACUGCUAGCGAAAAACUUCUGAAAGGGGCGUGGCCUCUAAAAAAAAAAAAAAAAAAAA'
p237
aF0.9603960396039604
aa(lp238
S"Spiral of 5's"
p239
aS'UAAAAGAUACAAAGAUACAAAGAUACAAAAAAGACAAAGAUACAAAGAUACAAGAUACAAAAGAUACAAAGAUACAAAGAUAGAAGAAACAAAGAUACAAGGAUACAAGACUCAAAGAUACAUGAUACAACAUAGAAGAUUUGAGUUAGACAUACAUACGCGAGGUAAAAAACCUCUGGGCAUUUAAAAAAAUAUCAAAAACUAUCAAAAAAAACCAAAAAUUAUCAAAAAGUAUCUAAAAGUAUCAAAAAGAGUCAAAAAGUAUCAAAAAGUAUCAAAAAGUUUCGAAAAUUAUCAAAAAGUAUCAAAAGGUAUCAAAAAGUAUCAAAAAGUAUCGAAAAGUAUCAAAAAGUCUUAAAAAGUAUCGAAAAGUAUCAAAAAGUAUCAAAAGGAAAAA'
p240
aF0.9949622166246851
aa(lp241
S'Campfire'
p242
aS'AAAAGUAAACGAAACAAGCACAAGUAGAAAAGUUCGGACGGCUAUGCCAGUCACACGGACGCAUGAGAAGUCGCAAAGGUAGGCGCCAAAGAGGCCACCAGCGAAAGUGGGCGAGAAGCCCAAAGGACUACAUAAGCAUUCAACAUUAGUUGUAUCAGAUACAGAGGUGGAAACAUCUUCGUAGUGGUAUCGAAGAUAAGCCACGUGUUUAU'
p243
aF0.7877358490566038
aa(lp244
S'Anemone'
p245
aS'AAAUUUUUCAACAGAAAAAGAUUUGAAAAGAUCCUUUGCAAAGGCAGAGGGUACGAAAGUACCGUCAGCUAAUGCUGACGAUACGAAAGUAUCCCUACUAAUGUAGGGUGUGCGAAAGCAUACAGGUACAAAGGUGCCGUAUCCAAAAGGAUACCAUCCUAAUGGAUGUCAUGCGAAAGCAUGAGGCACGAAAGUGCCCUAUCCGAAAGGAUAG'
p246
aF1.0
aa(lp247
S'Fractal 3'
p248
aS'AAAAGGGGCAAUUAGCAAAAGACGAAACCGAAGUACAGAGAAAAACCGCGAAAGCACUGAGUAAUAGAAAGAACAAAAUCAUGGAGUAACCAAAGGGGCAAAGGCAGAUCGCCCAAAAA'
p249
aF0.9243697478991597
aa(lp250
S'Kyurem 5'
p251
aS'AAAAUGUAAGCCCUUAAUGAGCGGCAAAAGUGAGCCCAAGCGCGAAAAGCGGGGCAUUGAAAAAAAGAUCACACUGGCAAUUACUAAAAAAAAAAAAAAAAAAA'
p252
aF0.9326923076923077
aa(lp253
S'Snowflake Necklace ( or v2.0 )'
p254
aS'AAUAGAUAUUUAUAUUGUUACAGCGAAAAGCUGCAAAAAGCUUCAAAAAGGAGGAAAAACCACCAAAAAGCGGUAACUGAAAAAAAAUCACACUCAUGAAAAAUAUGCGAAAAGCUGCAAAAAGCGGCAAAAAGCACCGAAAAGGAGUCUGACACAAAAAGUGACAUGCGGUAAAAACCAGUAAAAAGCAGCAAAAAGCGCCAAAAAGCACCGAAAAGGAGCAUGACACAAAAAGUGACAGGGUGAAAAAAUUGGCAAAAAGCACCAAAAAGGAUCAAAAAGAAUGAAAACCCUCCCUGACACAAAAAGUCACAGACAGGAAAAACCGGCGAAAAGUAGGAAAAACCAGCAAAUGGCAGCAAAAGGCAGCCCGGAUAUAGAUAUUUAUU'
p255
aF0.897172236503856
aa(lp256
S'Methaqualone C16H14N2O Structural Representation'
p257
aS'AAAAAAACUUGAGUACAGUCAAACAAAAGUCGGGCAGACAAAAGUCAUACAGACAAAAGUUAGACAUGCAAAAGUAAGACAAAAAAAGUCGGUCAGUGAGCCAGUCAGAAACAGUGCAGGACAAAGCGGAGAAAGCAAAACAAAAAAAACUCGGUCAUAUAAAGGUAGACAAAGGUCGAUAAAAGUCGCCAGCAAAGUACGUAAAAAGACAUGAUUAUAGUGGGCCAAAGGACAAAAGUCAGGCAUUCAAAAGGAACGCAGAAAAAAUUCAGUAAGACAAAAGUCUCCAAUACCAAAAAAGUGGGCAAAAGUCACACAAAAAUGGUAAGUCAGCCCGAAAUCCGUGAGAAAAAAA'
p258
aF0.9211267605633803
aa(lp259
S"Cat's Toy 2"
p260
aS'AAAACGGUCGGGGAAAUCGACAAAAAAAAAAAAAAAAAAGGCUGGAAAAGAAAACAGAAUGAAAACAAAAAAAAGCCUAAAAAGACUUAAUUGAAAA'
p261
aF0.979381443298969
aa(lp262
S'Zigzag Semicircle'
p263
aS'AAAUGGUGCGAGAAAAAAGUAAGGAGUACUUAAA'
p264
aF0.9411764705882353
aa(lp265
S'Short String 4'
p266
aS'AAAAAAGUAGAAAGCUAGAAAGAAAAGAAAAAUCACAACAAAGGGAAAAUAAAAGUAAUCUAUAAACUCCAAUCGCGAAAAAAAAAAAAAAAAAAAA'
p267
aF0.9381443298969072
aa(lp268
S'Gladius'
p269
aS'AAAAGUAACGCAAAUAAGAAUUGGAGAAGGACAGUCAAAGGACUAAUGCCCGGAUGCAAGCGACAAGGCGACUAUAUUACAAGGGUUAUAGCAGGUGUGCUAAAAAGUACCCUUGGUGUAGAAGUUACUCAAAGGUACUAUUUAUGACACUGACUAUAGCAACGGUAGAAAGGUCGAGCGGUCUAUAGUAUCGGCCAAAGGCAGACAAAUAGGAUAAUGGCGCUUAUGCACAGAGGAAAGAUAGAAUAUCUUUACAGCAUGGAGACAGUUUGUUAAUGCAAACAGGUCGGUGUGAAGUAGCAAUAUUACGUUUUUUACAAGUGCUAGUGUGCUUAAGUCAGAAUUGUCAGUACAAAGGUACAAGGCCAGUCAAGCGAUAAAAUAACACCAUGUAUAAAAG'
p270
aF0.89
aa(lp271
S'Thunderbolt'
p272
aS'AGAAUAUACAAAAAAAAAAGGAAACAGAGAGAGAAAACAGUGGCAUGGAAAGCAACGCAAAAAACUCCGAAAAGGAGAAAAAGGCAAAGUAAGAAAAAAAUAAAGGAAAAAUAAUUAGAAAGCUAAAAGUAAUCUCUAGAAAAAGUAAAAAAGAAGGAGAAACAUCAACAAAAGGAGGGUCGGAAAAAAAAAAUAAGAGCUAUGUACAGAAAAAAAAUAAAUGACAAAAAAAAUUACUGGGGGUAUGCAAAGCGUACUGCAAUCAAAAAAAAAAAACAAGAAAAAAAAAAAAAUGAAAACGAGAUCAAAAAGGAAAAAAACAAAAAGAUCUCAAAAACAAGUAAAUCACAAAAAAAAUAGUAACCAGGAAAAGAAAAAAACGGUGUGGACUA'
p273
aF0.923469387755102
aa(lp274
S'Mutated chicken feet'
p275
aS'AAAAAAAGUAGCAACUAUGUAACUAUCUAAAGCAUGUAAUCGCUAAAGGAGCAAAGCAAGGAUCUGCAGCAGAAAAGGGGUAAAGCAAAGCGCUAAAAAA'
p276
aF0.86
aa(lp277
S'Chicken Tracks'
p278
aS'AAAAAAAAUUCACGCAUGCGAAAGCAUAAGCACUAAUGUGCAACGACAAAGGUCGGCGUGACAAGUCGAAUAAGGUUCAUGUACGAAGUACUAGUGUUAUCCACGGCAAAAAAAAA'
p279
aF0.9482758620689655
aa(lp280
S'Looking Back Again'
p281
aS'UCCAAGAAGUUGGAAACGGAUGUAAAACAUUCACAACAAGAGACCAAGACAAAGUCGGCAGCUAAAAGGUACAAAAGUACAAAAGUAUCACUUCAAUUCGAGAUUGCUAAAAAGGUAUGAAAAUAUUAAAAAAAGCCAAACGAUAGGAAUUAUCGCUAUGAAGUAGCGGGGUCCGGAGAUGAAGAACGGGAAUUACAAAAGUAGAACAGAACCUACACGGCCAAAAGGCAAGACCCCAAAGUAUCGAUCAGAUACAUAGUAAAAAUGUGGUACAAAAAAAAGUACAAAAAGUACGAAUAAACACUACUAGUACAAAAAAGACUAGGCAAAGGCCUAGAAGUCCCGAAGGACAUACAAACUAUCAAGACUCAAAGGUACGUAACAAAGGA'
p282
aF0.9125964010282777
aa(lp283
S'Multilooping 6'
p284
aS'AUGGGAUGUGUGACUGAAAGAUCAGGAAUGAAAACUCCCGCGUUUUUUCGAAAGAAAAAUACGAAUGUUUAUCGGGUUCCUA'
p285
aF0.926829268292683
aa(lp286
S'Cesspool'
p287
aS'GAAGAAGGAAACAACAGAGGAGAUACAAAGUCAACAACAACUGAAAGAUAAAAGAACGUAAGAAAACAAAAAAAAGAAAACAACAAUAGCAAGAGAAAAAUAAUGCAAGUAACAAAAAUUGAAUUACAAGUAAAAAAUAAAAAAAUAGAAGAAAACAACAAAAAUAAAAUAGGAACAAGCAAGAAGAAAACAAAAGAAGAUACACAAAGUAAGAAACAAACUAAAAAUAAAAAGAGAUAAGAAAACGAAAAAAAGUAAUCAUCAAGCAAGUAAGAAGAAAACAAUUCAAGAGAGACAAAGUAAACAACGAGCAAAAAAAAAAACAGCAUAAGAAAACAAAAAAAAGAAAACAACAAGC'
p288
aF0.8044692737430168
aa(lp289
S'Hoglafractal'
p290
aS'AACGGAAAUUGACAAAAGAUACAAAAAAGUAUCGCCGACUUGAAAGGACAAAAGGUCCAAAGCAGAAGACAAAAGUCUUAGUGCAAAGUACAAAGUAUAAAAAAAUACGUACGGAAAGACAAAAAGUCUCUCCACCAAAGAAGCAGUUCGAAAGCCCGGACGAAAAAGUCGGUGCAAUAAAAAGUGCUCCAAAAGGGAGAUACAAAAAUCAGUAAAAAAAUUAGACUAAAUGUCGUAAAAACAGUAGUGUAAAAAGAUGAAAAAAUCGAAAAAGUCGAAUAGUUACGAAGUAACUAAAAAAAUCAUUACAAAAAAGUAUCAAAAAGAAUAAAAGUAAAACCUAGAAAGAGGAGUAGGAAAUAGAAAUAGGAAGGGUGGUGCCGAAGGCAUUACUUCCAAC'
p291
aF0.8875
aa(lp292
S'Bullseye'
p293
aS'AAACGGGGAGAAAUUCCAGGUACAAAGUACAACUACAAAGUACCCGAAAAAAAGGGUUUUGAAGCGAGAGGUAUAAAGUACAAGAACAAACUGCACUAAAAAAAAGGCGUACGAACUAUAAGUACAAAGUAUGAAUACAAAGUAUGCUGAAAAAAGUUUCUAUUAUGUAGAAUACGAAAGGUGAAGUGCAAAGUACAAAAAA'
p294
aF0.8514851485148515
aa(lp295
S'Shooting Star'
p296
aS'AUGAACGGACGAAACACGAGGAGAAGGAGAAAGACAAGUAAUAAUGUACGUCGCACAGCCAAGUGUUUCAGCUAUUAGAUGGGGAGGUAGAUGUAGGCAGCUUCGGUAAUCACAAGUCGCCAAUAUACAUCUCACAAACGUGGGAAACAGUAAUGUGGUAGGCAAGAUCUAAUAAUCAAAGAUAGUAGAAAACGAACUAUAGACCAGCACAAUGAAACGUAAAAUAAAAUUUUACUUAGAGGAAGUCUGUCAUUGAACACAAAGUGUCUCAUAACCAAAGUCUAGUGAGCCGAAGGAAACCAGGAGUCGGGCGGGCAGUAUAUGAAAACACAAAACGUCACAACAAGACAAGCUAUAUGCUCCA'
p297
aF0.7554945054945055
aa(lp298
S'Teslagon'
p299
aS'AAAAAAGGAAAAAAAAGGGGAAAAAAAGUGGCAAAAAAAAAAAAAAAGCAAAAAAGAGGCUAAAAAAAAAAAAAUCCAGGAAAAAAAUUAGAAAAAAAAUCGAAAAAAAAAAAAAAGAAAAAAAAACAGAUAAAAAACCAGCAAAAAAAAAAAAAAAGCAAAAAAGAGCGAAAAAAAAAAAAAAACCAUGAAAAAAUACAGGAAAAAAAGCAAAAAAAAAAAAAAAGCAAAAAAACAAGGAAAAAAAGUAGCGAAAAAAAAAAAAAAGUAAAAAAAAAGGAAAAAAAAAAAAAAGCCGGCGAAAAAACCUCGAAAAAAAGGAAAAAAAAAAAAGGAAAAAAAAAAAAAAAUCACCGAAAAAACUUGGAAAAAAAUCAAAAAA'
p300
aF0.9214659685863874
aa.