(lp0
(lp1
S'Simple Hairpin'
p2
aS'GAUACAAAAAAGUAUC'
p3
aF1.0
aa(lp4
S'Arabidopsis Thaliana 6 RNA - Difficulty Level 0'
p5
aS'GAUAGACAAAUGACAAAAAAAAAAAGUCGAUAGAUCCUGAUAUAUAGAUAUAUAGAUAAAGAUACAAAAAAGUAUCGAUCUAUAAUAUCUAUAUAUCUAGAUCUAUCAAGUCUAUC'
p6
aF1.0
aa(lp7
S'Prion Pseudoknot - Difficulty Level 0'
p8
aS'GAUAGCAGAUCAAAAGAUCGCUAAUCAAAAAAAAAA'
p9
aF1.0
aa(lp10
S'Human Integrated Adenovirus - Difficulty Level 0'
p11
aS'GUAAGAUAAUAGACAGAUAUCAAAAAAAAAAGGAUCGAGAUUUCGCGGCGAGAGAGCAAAAGGUUCGUUGUUUGUAAAAAAUCAAGCAACGAAAAAACCGUUCUAAAACUCGAGAUAUAUCUCAAAAAUAGUGAAAAAAGCUAUUGAUCAAAAAAAAAAAGGAUAUCGGUCUAAAAGUUAUCAAAUUACAAA'
p12
aF0.9583333333333334
aa(lp13
S'The Gammaretrovirus Signal - Difficulty Level 0'
p14
aS'UAGAGAGGAAAGCAAAAGCUUUCAGCGCAAAAAAGAUCAAGACAGAUUCGGUCAAAAGACCGGAAAGAUCGUCGAUCAAGAUAGAUCAAAAGAUCUAUCAA'
p15
aF1.0
aa(lp16
S'Saccharomyces Cerevisiae - Difficulty Level 0'
p17
aS'CUAAGACAGGACAUAUAACUCUUUUGACUCCAACUCCUCACGAAAUCGAUACAAAAAAACUGUCGUCUUAGAAAUGAUAGAUAAGAUCAAAAAAAGGAUCCGGUAAAAAAAAAAAUUCGAAAUUCUACGAAAAAAGUGGAAUCUAUCUAAAAAUAGCAAAGGUGGAAAAAAACACCCCGGUAAAAAAAAUACCGGAAACAAAAGAAAAAAACUUUUUGCUAUUGAAAGCACUGUAAGGGCGAAAAAAAGCUCCAUAACGAAAAAAGUUGUGAAAUUGUACUAAAAAUGUAUAAUAGUGUGAAAGCUUGUUCAGAUCGAAAAAAAGAUCCAGUUAAAAAAAAUAACUGAAACACCAUGAAAAAAGUGGUAAUAAGCGAAA'
p18
aF0.9894459102902374
aa(lp19
S'Fractal 2'
p20
aS'AAAAGGAUAGAUCAAACAUAGGUCCAGGGAUCAAAAAAAAAAGAUCAAGAUAAAAAAAAAAAUAUCGGGAACAAAAAAAAAAGUUCAAUGGGCCUAUGAAAUCGAUCUAAUAAGAGCGAAAAAAAAAGCUCAAGAGGAAAAAAAAAACUUCAAGACAUAAAAAAAAUUGUCAAGUUAGGUUGGGAAGACUGGUAGAAAGGUUAAAAAAAAAAAACCAAGAUCAAAAAAAAAGGAUCAUGAUGAAAAAAAAAGCAUCCAUCUACCGGUUAAAGAUCUAUCAAAAA'
p21
aF1.0
aa(lp22
S'G-C Placement'
p23
aS'GAUCAAAGAUCG'
p24
aF1.0
aa(lp25
S'The Sun'
p26
aS'GCCAGACUCAGAAACUGAAAAUCGGCAAACCCAUUUCGGGAAGAUCGAAAAGGUGGAACCUUGUUGAAAAAACUGAUAAGCACGAAAGGCAGACGCACAAGGAGUAAGUCGGGAAACUAAUAAAGACAAAGUCUAAAUGUCAGAACUCAUCUGGAUAAGGUCCAAAGCGAGGAAUAAAGCGAAAAAAGUUGUACCGCGUAGAGCUAAGAUAGAGAAGCUCUAAAUCAUGAAACGCAGGUAGUCUAUGGCGAAGCCGCG'
p27
aF0.8682170542635659
aa(lp28
S'Frog Foot'
p29
aS'AAAAAAAAAAGGUCGAAAGAUCGGUCUAAUGACCGCUCUAUGAGC'
p30
aF1.0
aa(lp31
S'InfoRNA test 16'
p32
aS'GAUAACUCGUAGACCGAAAGGUCUCGCAGUGUUAUC'
p33
aF1.0
aa(lp34
S'Mat - Martian 2'
p35
aS'GAUAAAAAUAUCAAAGAUAGACAAGAUAGACAAAAAAAGUCUAUCGUCUAUCAAAGAUAGAUCAAAAAAGAUAGACAGAUAGACAAAAAAAGUCUAUCGUCUAUCAAAGAUAUAGGGAUAUAAAAAAAAUAUAUCCACUAUAUCAAAAAAGAUCUAUCAAAGAUAUAGGGAUAUAAAAAAAAUAUAUCCAACUAUAUCAAAGAUCAAAAGAUC'
p36
aF1.0
aa(lp37
S'square'
p38
aS'GAUAGACCGGUUCCGGUUGCCGGUUCAAAGAACCGAAAAGCAACCGAAAAGAACCGAAAAGUCUAUC'
p39
aF1.0
aa(lp40
S'Six legd turtle 2'
p41
aS'GAAAUAGAAACGUAAUCGAAAGCGAAAGUAAAUCUAGUGAAAAGUGAAAAGAAAGUUAAUGCGAGCCAAAAGGAAACUUAAAAAAAAAAAAAAAAAAA'
p42
aF0.9591836734693877
aa(lp43
S'Small and Easy 6'
p44
aS'CACUUGAAAAGAAAGUUAAAAAAAUAGGUG'
p45
aF0.8666666666666667
aa(lp46
S'Fractile'
p47
aS'AAAAAAAAAAAAGAAAAAUUAAAGAAAAUGGAAAUAGAUGGAAGCGAAAGCAAAUGAAAUAAAAGUAAGACAAGGAAAACCAAAAAAAAAAAAAAAAAAAAAAAA'
p48
aF0.9619047619047619
aa(lp49
S'Six legd Turtle'
p50
aS'GAAAACUAAAGGUAAAAAUAAAAGAAAAGGUUAAUUAGAAAUGUAAAAGAAAAUUGAACCCUAAUGGUAAAAGAAAACUAAAGAAAAAAAAAAAAAAAAAAAAAA'
p51
aF0.9428571428571428
aa(lp52
S'snoRNA SNORD64'
p53
aS'GAUAGCAAAAAGACAAAAGACAAAGAUACAAAAAAAAAAAAAGUAUCAAAAGUCAAGUCAAGCUAUC'
p54
aF1.0
aa(lp55
S'Chalk Outline'
p56
aS'AAAAAGAUCGGACCGGAAACGAGUUAGACAGUCGAAAGACGUCAGAUAACUAAUGUAUAUCGGCUAGGAAACUACGUGAUCAAAAAAAAAAAAAAAAAAAAAAA'
p57
aF1.0
aa(lp58
S'InfoRNA bulge test 9'
p59
aS'GAUAGACAGAGAGAGAUAGACAAAAGUCUAUCCCCGUCUAUC'
p60
aF1.0
aa(lp61
S'Tilted Russian Cross'
p62
aS'GAAAGCAGAGGGCGAAAGCCCGCGCAGUUCGAAAGAACGUGGUGAAAGCCGCAGACUAAAGAGUCGCGCCCCUUAAUAGGGUCUGAAAAAAAAAAAAAAAAAAAA'
p63
aF1.0
aa(lp64
S'This is ACTUALLY Small And Easy 6'
p65
aS'AAAAAAAAAAAAAAAAAAAAAAAAAAAAAAAAAAAAAAAAAAAAAAAAAAAAAAAAAAAAAAAAAAAAAAAAAAAAAAAAAAAAAAAAAAAAAAAAAAAAAAAAAAAAAAAAAAAAAAAAAAAAAAAAAAAAAAAAAAAAAAAAAAAAAAAAAAAAAAAAAAAAAAAAAAAAAAAAAAAAAAAAAAAAAAAAAAAAAAAAAAAAAAAAAAAAAAAAAAAAAAAAAAAAAAAAAAAAAAAAAAAAAAAAAAAAAAAAAAAAAAAAAAAAAAAAAAAAAAAAAAAAAAAAAAAAAAAAAAAAAAAAAAAAAAAAAAAAAAAAAAAAAAAAAAAAAAAAAAAAAAAAAAAAAAAAAAAAAAAAAAAAAAAAAAAAAAAAAAAAAAAAAAAAAAAAAAAAAAAA'
p66
aF1.0
aa(lp67
S'Shortie 4'
p68
aS'UCGAAAGGAGCGAAAGC'
p69
aF1.0
aa(lp70
S'Shape Test'
p71
aS'GAAAAGAGAUCAAGAUACAAAAAAAAGUAUCAAGGCAGACAGUAUCAAAAAGAUACGGAUCAAAAGAUCAGUCGCCAAGAUCGCAAAAAAAAAAAAAAAAAAAA'
p72
aF1.0
aa(lp73
S'The Minitsry'
p74
aS'CGGGAAAAGACGAAAAGCCUAAAUGAUAAAAGUCAAAAAAAUAUGAAAUCUGGUAGUCACCG'
p75
aF1.0
aa(lp76
S'stickshift'
p77
aS'AAGAUAGCCCAAAAAGGAGCUAUCAA'
p78
aF1.0
aa(lp79
S'U'
p80
aS'AAAAAGAUACAGAGAGCAGAGAUAGAUAGAAAACUAUCUAUCCGCCCGUAUCAAAAA'
p81
aF1.0
aa(lp82
S'Still Life (Sunflower In A Vase)'
p83
aS'AAACAGCAAGAAACAAAAAGUUUCAGCAGGCGAAGCCUGAAGAUGUAAAAGGCAUCAGCCCGCAAAGCGGGAAGUUACAAAAGGUAGCAAGUUACAAAAGGUAGCGGAUAUAUAGACCUAUUGAUAUAUGAUACAAAAAAGUAUCAGAUACAAAAAAAAAAAAAGAUCGCCCCCCCCCCCCCCCCCCCCCCCCCCCCCCCCCCCCAAAAGAUCAAAAAAAAAAAAGGUAUCGGAGUGAAAAUUUCAAUAUAUCGAUAGGUCUAUAUAUCAGAAUUCAAAAAGAAUUAAGGAGUAAAAAACUCCAAAACACAAAAAGUGUUAAGAUCGAAAAACGAUCAAGAUAGAAAACUAUCAUUAAACGAUAAGUUUGGGCUGAAA'
p84
aF1.0
aa(lp85
S'Quasispecies 2-2 Loop Challenge'
p86
aS'GAAAAGAUCGAUCUGGAUCGAAAGAUCGUGAUCAGCUCACCAAAGAGGGGCGAAACUUUAAGACGAAAAGUCGGAUUGUUUGAUCAAAAAAAAAAAAAAAAAAAA'
p87
aF1.0
aa(lp88
S'Corner bulge training'
p89
aS'AGAUAGCGAUACAAAGUAUCAAAAGCUAUCA'
p90
aF1.0
aa(lp91
S'Spiral'
p92
aS'AAAAAGAUCAGAUAGCAGACAGAUACAGAUCAGAUCAGCAGCAGCAGCAGCAGCAAAAAGCGCGCGCGCGCGAUCGAUCGUAUCGUCGCUAUCGAUCAAAAA'
p93
aF1.0
aa(lp94
S'InfoRNA bulge test'
p95
aS'AAAAAAAAAAAAAAAAAAAAAAAAAAAAGGACCGAAAAAGCGGAAAAGACGGAUGACGGAAGCCAAGGCAAAAAGCACUGGGUCUAAUGCUCUAAUGAUCGAAAACCAGCGAAAAAGGAUCA'
p96
aF1.0
aa(lp97
S'Worm 1'
p98
aS'AAAAAAAGGGUUUUCAGGAUCUGGAAAACAAGACUAUCAGAACAC'
p99
aF0.8666666666666667
aa(lp100
S'just down to 1 bulge'
p101
aS'GAAAAGAGCAGAUACUAAUGUAUCAGAGGAAAUUCAGCAUCAAAAGAUCAGACAAAAGUCAUAUAAAAGUGAGAUCAAAAAAAAAAAAAAAAAAAA'
p102
aF1.0
aa(lp103
S'Iron Cross'
p104
aS'AGACAUCUAAAGGAGCUCAAAGGGACCUAAAAGGGAUCUGAAGGGAAUCAAAAGGGGGACAAGGUCGCACGAAUACAUAGAAAAUUAGUUCAAGGCUAGGGGAGAUUAGGAAAGUAUUGUCAA'
p105
aF0.943089430894309
aa(lp106
S'loops and stems'
p107
aS'AAAAAGAUAGGCAAAGAUCAAAGGUUAAACUUCAAAAAAAAAGAUACUAAAAAAAAAAUGUAUCGAAGAAGAAAUGAACGAAAAAAAAAGUUCUAGGACCAAAGACAAAAAAAAGUCAAAGAUCAAGCCAAAAAGCAAAGUCUAUCAAAAA'
p108
aF1.0
aa(lp109
S'Water Strider'
p110
aS'GAAACCCAAAAAACCGCAGGUUAAUAUCCACGAAAGUGACGCGGGCUACCUCUAAUGAGGCCAAAAUGUAGUAGUGAUUGUGUAAAAAAAAAAAAAAAAAAAA'
p111
aF0.9611650485436893
aa(lp112
S'The Turtle(s) Move(s)'
p113
aS'AAAGCAAAAGCGAAGGAUUGAUAGAAAAAAAAUCUAUCGAUCAAAAGUUCAAAAAGAACGAAAGCGCGAAAGCGAAAUAUAUAAAAAAGAUGUAGAAAAACGAACCAAAAUUGAAAACCUGAAAACGGAAAGAUUGCAAAAAAAGCAAUCAAAACACGAAAGUGAAAAGCAGAUAAAAAGACAAAAAAAGUCGUGUCCAAAAAACGGCUAAGAUAUGAAAAAGUAUCAAAUAUCAAAAGGAUGAAUAUCUGAAAAAAAAAUCAAAGGGAAAAGCCAAAAGGGAAAUACGUAGAAAAAAAAACUUAUGAAAAAAGUU'
p114
aF0.9873417721518988
aa(lp115
S'Adenine'
p116
aS'GAUACAGAUAGCAGAUAGCAGAUAGCAGAUAGAAGAUAGCAAAAGAUAGCAAAAAAGCUAUCAGCUAUCAGAUACAAAGAUAGACAAAGUCUAUCGUAUCAUCUAUCAGAUAGGUUGAUAAAAUAUCAACAAACUAUCAGCUAUCAAAAGCUAUCAAAAGCUAUCAAAAGUAUC'
p117
aF1.0
aa(lp118
S'Tripod5'
p119
aS'AUGGUCCCCGGAAAAUGGGGGGUUAAAUACCCGACCUA'
p120
aF1.0
aa(lp121
S'Shortie 6'
p122
aS'GGAAAACCAGCAAAGGCAGCAAAAGCAGCGAAAGC'
p123
aF1.0
aa(lp124
S'Runner'
p125
aS'AAAAUUAACUUAUUAAAACUAUGAAACGUAAGAUAAAGGACUAUACACCUAUGAUAAAAUCCGCCCCAAUCCGAAAAUGUGUUAAAGUCAAAGAGAAAACCCGGGUUGUUGAAAAA'
p126
aF0.9482758620689655
aa(lp127
S'Recoil'
p128
aS'GAAAAGAUACAAGCAAGCAAGACAAGACAAGCAAGCAAAGCAGCAGUCAGUCAGCAGCAGUAUCAAAAAAAAAAAAAAAAAAAAA'
p129
aF1.0
aa(lp130
S'[CloudBeta] An Arm and a Leg 1.0'
p131
aS'GAAAAGCCUCGCACGAAAGUCGCGUUGCGCGAAAGCCAAUGGCGAAAAAAAAAAAAAAAAAAA'
p132
aF1.0
aa(lp133
S'[CloudBeta] 5 Adjacent Stack Multi-Branch Loop'
p134
aS'GAGAGCGUCUAAUGAUGGAUACUAAUGUAUCGGUACUAAUGUACCGUGCGAAAGCGCCUUUCA'
p135
aF1.0
aa(lp136
S'Triple Y'
p137
aS'GAAAAGUAUGAGCGCACAAAGGUGCAAUCAAAACAUGGUUCAACACACUGAAAAGUGAUUCAAAGGAUUUAUUAAGCGAAAAAAAAAAAAAAAAAAA'
p138
aF0.9175257731958762
aa(lp139
S'Misfolded Aptamer'
p140
aS'GAUGGAAAAUGCGCCAAGGGCAGUGAAAACGAAAAAAAAGCUAAAAUAUC'
p141
aF1.0
aa(lp142
S'Flower power'
p143
aS'GAAAGACUUAUCUAACAGAUUCCGCCCGGGAACAGGAACAGAAAGCCUGAAGACCAAGCGUCGCUGUCGGAUAUGCCGGGGUAAAAAAAAAAAAAAAAAAAA'
p144
aF0.9803921568627451
aa(lp145
S'Kudzu'
p146
aS'GAAAAUACUCAUGGCUGGCAAAUUAGAGAAUCAACCUGGCAUCGCAUGGCAGAUGAUUGGAAGUUGUAAUUGAUUGUUGUAGAAAAAAAAAAAAAAAAAAA'
p147
aF0.9801980198019802
aa(lp148
S'"1,2,3and4bulges"'
p149
aS'AAAAUGCGCAUAAAGGAAACUAAAAUUAUCGCAAAAGUGUGCACUUAAGCUUUUUGGGAAACAAACAGCAUGAAAAUGUAAAAGUAAAAAAAAAAAAAAAAAAAA'
p150
aF0.9428571428571428
aa(lp151
S'medallion'
p152
aS'GAUGGCACGGAACAAAAGUUCUGGCUUGAAAAGGUCGGAAAAACGUCAGAUCGAAAGAGCUGAAGAUAAAUAGACAGUUCUAAUGAGCUGGCAGGAAAUUGGUGCGAAAUCGAGACACCUAAUGAGAACAUCAAAAGUGGAUAGGUGAAAAUAUCUCACGCAAAAACGGGGCAAAGGCUAGAGAUUUAAUAAUCUCAACCAAAGGGUAUUACUCAAAAGAGUGGACGCGAAAGCGAUGUGAAAGCGACAGAUCGAAAGAUCUGAUACUAAUGUAACAGAGCACAAUAUUUUACGCGAAAGCGAAUCGAAAGAUACAAAACUAAUGUUUUGAGCCAUU'
p153
aF0.8961424332344213
aa(lp154
S'[RNA] Repetitious Sequences 8/10'
p155
aS'AGCAAAAAAGCAAAAAAGCAAAAAAGCAAAAAAGCAAAAAAGCAAAAAAGAAAAAAAUCAAAAAAGCAAAAAAGCAAAAA'
p156
aF1.0
aa(lp157
S'Documenting repetitious behavior'
p158
aS'AAAAAAAGCGAAAAAAAAACGAAAAAAAAGCAAAAAAAAAGCAAAAAAAAAGGAAAAAAAAAGGAAAAAAAAAGGAAAAAAAAAGUAAAAAAAAAGCGAAAAAAAAGCAAAAAAAAAAAGAAAAAAAAGCAAAAAAAAAGCAAAAAAAAACCAAAAAAAAAGUUAAAAAAAAACAAAAAAAAUGCGAAAAAAAAGCAAAAAAAAAGCAAAAAAAAAGUUAAAAAAAAGUAAAAAAAAUGUAAAAAAAAAGUAAAAAAAAAGCAAAAAAAAACCAAAAAAAAAGUAAAAAAAAAACAAAAAAAAAGAGAAAAAAAAGUAAAAAAAAAUCAAAAAAAAAUCAAAAAAAAAGAAAAAAAAAAACAAAAAAAAAGCAAAAAAAAAGAAAAAAAAAAGUAAAAAA'
p159
aF0.945
aa(lp160
S'7 multiloop'
p161
aS'GCGCGAGGUGAAAGCUUCCCGGCUAAUGCCGGCCUAGUAAUUUAGGGUCCCGAAAGGGACGACAAGAAAUUGUCCGUCCAAAUGGAUGGCGC'
p162
aF1.0
aa(lp163
S'Kyurem 7'
p164
aS'GAAAGUUCGGGACGUGAAAGCAGUCGAACGGCAUGACAAAAUGACUGCAAUCAAAAAGGAUAAAGGGGGUUCACUUCACGGGAAAAAAAAAAAAAAAAAAAA'
p165
aF0.9215686274509803
aa(lp166
S'JF1'
p167
aS'CAUAGACGUAUACAGAGAAGAUACAAAAGAUAGCAAGAUACAAAGAAACAAGAUAGAAGAUAUAGAGAUAUAAAAAUAUAUCUCUAUAUCAAGACAAAAGUCAGAUAGAUAGAAAACUAUCUAUCAAGAUACAAAAGUAUCAUCUAUCAGUUUCAGUAUCAGCUAUCAAAGAUAGGUCAAAAAGACACUAUCAAGAUAUAUAGAGAUAUAGAUAUAUAAAAAUAUAUAUCUAUAUUAUCUAUAUAUCAAAGAUACAAAAAGGUAUCCUAUAGAUUCAAAAGAAUCUAUAGAAAUAUCAAAAGAUAAGGUAUCAAUUCUGAGAUCAGACAGACAAAAGUCGUCGAUCAGAUAGAUAGAAAACUAUCAUAUCAAUACAGUCAUAUGAAA'
p168
aF1.0
aa(lp169
S'multilooping fun'
p170
aS'UUAGGAAUAGAAAUUAAAAAUGUGAUAAAAAAUGAG'
p171
aF0.75
aa(lp172
S'Multiloop...'
p173
aS'GAGCAGAGCGGCCAAAAGGCACACAAAAGUGGGGCGAAAGUCAGUCAAAAGACGGUCAAAAGACAAGGAAAACCUAGCUCAGAUACAAAAAAGUAUCGAGGAAACUCGCUU'
p174
aF1.0
aa(lp175
S'hard Y'
p176
aS'AAAAGGAUGACCAAUAGUUCUAAUGAGCUAAGCGAUAUAUAUGGGAAAGUCCAUGUAUACAUCAAAAA'
p177
aF0.9705882352941176
aa(lp178
S'Mat - Elements & Sections'
p179
aS'GAAAAUAGAAAUAUCUUAACAGAGAUCCGCAGUAAAGGAAUCGAAAGUUGUACUUACGACGAUCAAAGCGGUUGUGUAAUGAUCAGAAAAAAAAAAAAAAAAAAA'
p180
aF0.9619047619047619
aa(lp181
S'Chicken feet'
p182
aS'AAAAGGGAAGAUCAAAGAGUCAAAGCAAUUAUCAGCAACGUGAAGUAAUUAAAAGAAAGCACAAAAA'
p183
aF0.8805970149253731
aa(lp184
S'Bug 18'
p185
aS'AGGAGCGGUUUAAAAGAAGAUCCUAUUCACUUUUUAAGAAAUAAACUAAAUUA'
p186
aF0.9245283018867925
aa(lp187
S'Fractal star x5'
p188
aS'AAAAACUUAUAGAUACAUUGAAAGAUGAAGUUCAAAAGAACAAGACAGAAAUGUCAAUUUAGAAAUAAGGUUUUAUAAGAAAAAGUGUUAGCAUCAUCAAAAGAUGUAGCUCAAAGGGGCAAGUUCGAAAGAACAAGAUUAAAAAAUCACGCUAACACAAAAACAGAAAGGUAUCUCUAAUGAGAAGGAUCAAAAGAUCAUAAUCGAAAGAUUUAGUCUAAAAGGGCAUCCUUUCUGGAAAUCAUAUAGAAAUGCCAAAAGGCGAAUCUCAAAAGAGAAAGCUCAAAAGAGCAAGGUCAAAGGACCAAUCUAUGUGUAAAAUGGUCUGAAGUCCUAAAAAGGGGGGGGCAAAAGUCCAAUGUCUAAAGGCAACGAGUAAAAACUCCAUCAGGCUAAAAAA'
p189
aF1.0
aa(lp190
S'Crop circle 2'
p191
aS'GAAAUAGUAAAUCUAAAAGAAAAAAAAAAUCAAAAAAAAAAAAAAAAAAAAAAAAAAAAAAGUGAAAAAAAAAAAAAACCAAAAAAAAUAGAAAAAAUUUUAAAUUAAAA'
p192
aF0.9636363636363636
aa(lp193
S'Branching Loop'
p194
aS'GUUGCGAAAAAAAUUUGGCGAAAGUCAACGUGAAAAAAAA'
p195
aF0.95
aa(lp196
S'Bug 38'
p197
aS'AUUCCGAAUUAAGAGAAACUUUGGUAGUGCAAGAGA'
p198
aF0.9444444444444444
aa(lp199
S'Simple Single Bond'
p200
aS'AAAAAAGGAAAAAAAUACUUGAAAAGAGUUAAAAAAAACGAAAAAAAAAAAAAAAAAAAAA'
p201
aF1.0
aa(lp202
S'Taraxacum officinale'
p203
aS'AGACAAAGGAUCUAGUUCAAAAGAAGCAGAUGGAAACAAUCGGAUUGAAAAAAUCAUAAAUAAUCAUUGGCGGCGAAAGAUCGAGGCAGAUAGAUGUUAGAAUGAUUAUAUCAUUUUUGGCAGCGGCAAGAUAGAUAGGAAGAUUGGCAAAGCCGAUCGUCUAUCUGUCCAUCGAAUAGCUAUGCUAUUGAUGGUCGCGAAAUCUAUCUGUCGGUACGAAAGAUGCACCUCAAAGAAAGGGGGUCGAAAGAACCAGAUCGAAAGAAUUAGAAGAAAACAUGA'
p204
aF0.9574468085106383
aa(lp205
S'Headless Bug on Windshield'
p206
aS'AGCAGGAAAAAGGGUCAAUGUAGAUAAAAAAAAAAAAAAAAAAAAAAAGGGUUACGUAAUGCAUAAAACCAGCGUAGAAUAGAAUCGAAAAAAUAGAAAUAGAAACGAGAUUAAAAAAAUAACGAAACAAAAAAUGAAUGGGAAGGCUAGCAUGCGCCCCCCCCCCCCAAGCAGAGAGCGUCGACUUUUCUAGGGAUGCG'
p207
aF0.96
aa(lp208
S'Pokeball'
p209
aS'AAAGAGGUCCAAAAGCAAGAAAGGGAAGAGAGCAAGGGAGAUACCUUAGAAAUUUGGCUUCAUCAGCGGUCGCCCAUCAGCGGAUCUCGAAAAAAACAGAGACAAAACGAUGCAUCACAAUGGAGGGUCCAAUUAGGUUACUAAAGGUACACGAAGGUCCUAUGAGUGGGCUCGGUCUUUGAAA'
p210
aF0.967391304347826
aa(lp211
S'Variation of a crop circle'
p212
aS'GAAAGUAAAAGUAUAUGUAAAGGGUGGACGGCUAUUCAUUCAAAAUCAAAAAAACUAAAAAAGUAAAAAAAAAGCGAAAAAAAAAAAA'
p213
aF0.9545454545454546
aa(lp214
S'Loop next to a Multiloop'
p215
aS'AAGAGAGACUUAAACGGCGGAUAGCGAAAGCUAUCAGAUAGACUAAUGUCUAUCAGAAAAAAUAGUCUUUCAA'
p216
aF1.0
aa(lp217
S'Snowflake 4'
p218
aS'UUACAAAGUAACGCUAGUAAAAGUCUGAGAAUUUUCUGAAAAGACGGAAGAUCAAAGAUCUACAUGAAAUAUGUUCGGCCAAAGGGGAAGGAAGUUACCCAAAAGGGUUAUCGGCAAGGCCGUAUAUCGAAGAUAGUGGCGCAAAAGUGUAACAAUAUACCCUAAUUGCAGACCCGCAAAGCGGAAAUUUAAAGAGUGUCUGCUUAAUGGGUAUAGAGAUCAUCAAAAAAUAGACGGUCAAGGGCCAAUAGCAAGGAUAGUCUGCCAAAGGUCGAUCAUGAUGCUCAAAAACGAGACGAUGGAAGACCAAGCUCGAAGAUCGUCUCUAGAAAGGGUGUCUACUCAGCCAAAGGGCGGCGGGUCAAAGAUC'
p219
aF0.8864864864864865
aa(lp220
S'Mat - Cuboid'
p221
aS'GAUGCAAAACCGGGCAAAAGCAAGAAAAAGAACCAAGCAAAAGCAAGGGAUCAAAAGAGGCAACCAACCAAAACAAGGGAACUUAAUAAAACGGAUUAAGCAAGCAGCGAAAUGCGAGCGUUCUUGCUAUCAAAAGAUGGCGCACUUGGUCGUCAGCAAAAGCAUGGGCUUCUGCUGGUAUGCAAAAGAGACCUGGGCUGCAAGCUUAGAAAAAACUUUGCCGGCCAUCAAGGGAUCGCUGGCAUCCACAAAACCAGGCGCGAGCACCCAAGUUAGUAAUCGACUGCAAGAAAGCGAGCCGAGGCGAGCAAAAAACUGUGUGAAACAAGGGGGAAGCAAGCAAUGAAAUCAAGGGCAAACUGUGUAAGUCCAAGGGCCAU'
p222
aF0.8473684210526315
aa(lp223
S'Misfolded Aptamer 6'
p224
aS'GAAAAAGGCAAAAAAGAGCAGGGAAAGACAAAAAAAAGUCAAAACAAAAAGCUCAAAAAAAGUCGAAAAAAAAAA'
p225
aF1.0
aa(lp226
S'Snowflake 3'
p227
aS'GACCCAAAAGGAGGCGGUAAAAAAUAAGAUCAGGUCAAUAUAAAAGUACGCAGCAAAAGCUCCAAAGGAGCUAAUGCAGCGUGCAAAAGCGAAAAUCGGAUCGCGACAAAAGUCCGCAGCGAAAGCUACAAAGUAGCAAAAGUAGCGCCCAAAAGGGAAGAUGGGAUCAAGACAAAAGUCCUCUGGAAAACCUACAAGCUAGCAAAAGCAGAGCGCAAAAGCGAAGACCGGUUCAAGACAAAAGUCCGCAGCAAAAACAACAAAGUUGCAAAAGCAGGGCCCAAAAGGGAAGAAGUGAUGAAGACAAAAGUCCACAGCAAAAGCUGCAAAGUAGCAAAAGCAGCUCGCAAAAGCGAAGAUCUGAUCAAGUGAAAGUACGUCAGAAAAGGCGUC'
p228
aF0.811704834605598
aa(lp229
S'Hard Y and a bit more'
p230
aS'GAAAUGAUAGUUAGCUAGUAAUCUAGGGGGAUUGAGUCAAGAGCGAAAGUUCGAGACAGGAAAAACUGUCGAGGCUUAGUCUAUCUAAAAAAAAAAAAAAAAAAAA'
p231
aF0.9716981132075472
aa(lp232
S'Mat - Lot 2-2 B'
p233
aS'GAGGGUAAGAUCUUGUAAAAGCGAUAUAAAAAUAAAAAUGGAGCACAAGGAAAAUCGAGCCGGAGCAAUCUAGUUCAGGCAAAAGAUUUAACUGUCAAAAGCGAAAGGGCAUGUAAAAUGAAUCGCAAGGGAGUGCAAGCAAAGGUUAUAGAGCAGGCAAAACCUUGAGCUAAUGCAAAAUCUAGGGCAGGUAAAAUCGUUGGCAAGCAAGCGAUAGAUUUCAAAAGCACGAUCUUCGAAAAGGAAAAUCUGAAGAAAAAGCCGGCUCUAGCGUAAAGAACAAU'
p234
aF0.7922535211267606
aa(lp235
S'Shapes and Energy'
p236
aS'GAAAAGGAAAUGGUGAUAUAAGUAAUGUGGUGAAAAACAUGCAUCGAGGAUCGGGGGAGUUUAAAAGUAGGGGUGGUAGUAAAAAAAAAAAAAAAAAAAAA'
p237
aF0.9603960396039604
aa(lp238
S"Spiral of 5's"
p239
aS'UAAAAUAUUGAAAGAUACAAAGAUAGUAAAGAUACUAAGAUACAAAGAUACAAGAUAAAAAAUAUACAAGGAUACGAAGAUACAAGAUACGAGGACUCAAAGAUACUAGAAACAAUGAUACUAGAUAGAAGAUACAAGACACAAGAUACAAGUACUGAUAGGGAGCAAAAAGCUCCGCCAGCUAUCAAAAUGUACUAAAAGGUAUCGAAAAGUGUCGAAAGGUAUCAAAAGCUGUCGAAAUGUAUCUAAAAGUUUCAAAAUGUAUCAAAAAGGGUCAAAAAGUAUCAAAAAGUAUCAAAAAGUAUCAAAAAGUAUAAAAAAUUGUCAAAAGGUAUCAAAAAGUAUUAAAAUGUAUCAAAAUUUAUCAAAAGGUAUCAAAAACAGUAAAAAAGAAAAA'
p240
aF0.9949622166246851
aa(lp241
S'Campfire'
p242
aS'AAAAUAUCAAUGCGCAAGCUGAAGCCUGGAAAUAUAAAAUAGGCACUAAUUUCAACGACAUAAGAAGUGAUAACAAAGGUGAUCUUGCGAUACUGCACGAGAGAAAUCCGGCGCUCAGACUACUGUAAGAAGCACGUAAUCUGUCGGCGCAUGUACGCACAGAUAUGGCAAAGGUCGAUCGUGGUGAAGUCAACGGCAUCACACAGUGGGUA'
p243
aF0.8632075471698113
aa(lp244
S'Anemone'
p245
aS'AGCUCUGGAAAAAAUGACAGAUACUAAUGUAUCUGGAGGGAAACCUCUACAGUGAAAGCACUGCUAAUCGAAAGAUUCCCGUUCAAAAGGACGUGUGCUAAUGAGUGGCUGGCGAAAGCCAGCACUGCAGAAAUGCGGCGCUCAGAAAUGAGCGUGUAUAAAGGUAUACAGGUCAAAGGACCUGGCAAAAAAGAUGGUCAUAUCUAAGGAUGUG'
p246
aF0.9813084112149533
aa(lp247
S'Fractal 3'
p248
aS'AAAAAGAGAGUGUGGCAAAGGCUGUAAUCAAGUCAGACCGCAAAACUUUGAAAGGGGUAACAUUCCUAAUGGGCUAAAGAAAUGACGCGUAUAAGUCGCAAAAGCCGUCAUUUUAAAAA'
p249
aF0.7983193277310925
aa(lp250
S'Kyurem 5'
p251
aS'GAAAGCGCAGAUUACGAAAGGAGAAAAAAGGUCUAUCAAAGUAAAAAGUAUGAUAUACGAAAAAAUCAGGCAGUCAUCAAUGUGAAAAAAAAAAAAAAAAAAAA'
p252
aF0.9230769230769231
aa(lp253
S'Snowflake Necklace ( or v2.0 )'
p254
aS'UAUGCAUAACUAAGGAGAAAUACCAAAAAGUAGCAAAAAGAUGCAAAAAGCUACAAAAAGCGUCAACAAGAAGCUUCGGGAAAAAGUAAAUAUACGCCAAAAAGGAGCUAAAUGCUCCAAAAAGAUCCAAAAAGAAGGAAAAAUCGGAAUAAGACAAAAAGUCAUUUCCAGCAAAAAGCGGUCAAAGGAAGUAAAAAAUAGAAAAAAUCAGCAAAAAGCAACCUAGGACAAAAAGUCAUAGACACCAAAAAGGAGUAAAAAGCGCCGAAAAGGAACAAAAGGCGUGUAAAUGGGGUAUAGGCAAAAAAUGCAUAGACGGCAAAAAGCGCCGAAAAGGAUCAAAAAGAGUCAAAAACAACCAAAAAGGAGACUAACUUUAGUUAUGUAUA'
p255
aF0.8354755784061697
aa(lp256
S'Methaqualone C16H14N2O Structural Representation'
p257
aS'ACCCCAAGAUCAGAUCGGACAGACAAAAGUCGGACACGUAAAAACGAGAAAAACAAAAGUUAGAUAGACAAAAGUCAGGCAAAAAAAGUCAGUCAUUCAGUCAGUCAAAAAUGGAUCAUAUCAAAGAACGCAAAGGAAACCAAAAAAAAGCGAGAUAGAUAAAACUCUACAAAAGUAGUUAAAAGUCAUCGUCAAAUCAGAGUAUCAGACGGACACGCAAACAUACGAAAGACAAAAGUUAGUAAGGCAAAAGCCAGUUAGAUAAAAAUACGCGAGACAAAAGUGAGUCAGAUUGUAAAAGUAGGCAAAAGCUACCCAAAAGGCAUCAGUGACUAGAAAGAUAAGGUCCCCCAAA'
p258
aF0.9211267605633803
aa(lp259
S"Cat's Toy 2"
p260
aS'AAAGGACGGGGUUAAAUUCUGUAAAAAAAAAAAAAAAAAUCUAUUAACGCAAAGGCUAACCAAAAGGAAAAAAAAGGUAAAAAGAAUCCCGUCAAAA'
p261
aF0.9587628865979382
aa(lp262
S'Zigzag Semicircle'
p263
aS'AAACGUCAAGCUAGCAAACAUUCCUAUUGCAAAA'
p264
aF0.9411764705882353
aa(lp265
S'Short String 4'
p266
aS'GAAAAAGUAUCAAGUUAGUAGGACCAGUAAAAGUGGAACAAAUACUUUUCAAAACGUUGUGAAAAUCUUCGAGAACGAAAAAAAAAAAAAAAAAAAA'
p267
aF0.9381443298969072
aa(lp268
S'Gladius'
p269
aS'GGAAACAAUAAAAUAAAGAGCGGAACUAAGUCAGACAAAGAUCAAAAGAUCGGAAACAAUAUGCAAGAAUCGUAGGGUUAAAGAGAUGUAGGGGAUGUAUAAGACAUGGGACCUAAAGAUCGAAGAUCGUAGAGCCCGGCUCUUUAACAUUAACUAUAUCGACGUAGCAAGUUAAUAAGGAUGAAACGUAUAAGACAAAGCCAGAUGCAGAGUACGGUGGAGUAAAAGAUGUCAAGGUAGAAAGUACGGCGUGGUAGAGAUGAGAGAUAUAACUAAUGUUAUGAACUCCAAUUUACACCAAUUCGUGACUUUUACCAGAUCAUCAUAAACUUAUAAGUAACAAGCAUCGGAGCAAACGGUCAAAGUCAGACAAUGGACAGUACAAAAGAAAGAACAAAAG'
p270
aF0.895
aa(lp271
S'Thunderbolt'
p272
aS'GCUAGAUGCAAAAAAAACGCCGACCAUAAAAGCAAAAGAGCUAGUUCAAAAGAAAAGCGAAAAGCAUCAAAAAGAUGAAAAAAGCGAAGCUGCCGAAAAAAGUCCUAAAAUAUACAAGCCUGCAAAAAGAAAACGGAUUAAAAAGACGAAAUCACGAAGGAGCGUCCAGUAAAAGUCAGAUCAACGAAAAAAAAGGGAGCAAAGCAUAGAGAAACGCCAAAGAUCAAAAAAAAAAUCAAAAAGAGUGCUAUGCACUCGGCUAGCAAAAAAAAAAAGGACGCAAAAAAAACGUUUCGAAAGCAUACCAAAAACAAAAAAAAGGAAAAGGUGUGAAAAAUUAAGAACUAGCAAAAAAAAGGGGAAGGAGAAAAAGAAAAAAACAGCAUCAUGCA'
p273
aF0.9489795918367347
aa(lp274
S'Mutated chicken feet'
p275
aS'AAAAAAUGUACCGGCAAAGAAAUAAAGUUAAGCUUUACAGAAGGGAACCCCCAAAGUAAAGCGCGUUAGGAACAAAGUGGAGAAGUAAGCCGCAAAAAAA'
p276
aF0.86
aa(lp277
S'Chicken Tracks'
p278
aS'GAAAAAAAGAAAGAUGAAUAAAAGUUCAUGUUGAAAGGAUCUAGGUUAAAAGAGCGUCUUUCAGGAGGAUGGAACAGCAAGAUCUAGGAUCAAAAGAGAAAUUCGUCAAAGAAAAA'
p279
aF0.9310344827586207
aa(lp280
S'Looking Back Again'
p281
aS'UGCAAGUCAAUCGAAAAAAUGUCAAAGGCAUUAGAUUGAUACGGGAAAACGAAGUCUUGAGAGACAAAGACCGAAAGGUCGAAGGUCUCAACACAACACAAGAGUAACGAAAUGGUAUAAACGUACCUAAAAAGUCGACACGGUUCGAAUAAUCAAGACAAAGUCUCGAUAGCUGAAUUUUAAAUGUAAGGAGAUGAAAGUAUCGACGAAAUAAAAAUACGCAAAAGCGAAGCUAUCAAAGUGUCGCUCGGAGAAAGAUCAAAAACGACAGGUAAAAAAAAGCGGAAAAGCUGCAUCUAAAGUCAGAUAGAGCAAAAAAGCCUGACCGAAAGGUCAGAAGCCCCGAAGGUGAUGCAAACCAUCUAGGUGUAAAGGUUCUUCUCAAAGCA'
p282
aF0.9023136246786633
aa(lp283
S'Multilooping 6'
p284
aS'AAGAGAGGACGCAAGUAAUCUUGCUGGAUAAAGUUUCAGUGCGUGGGAGUAAUAACCCGAUACAAACGUAUCAUGUUCUCGA'
p285
aF0.9024390243902439
aa(lp286
S'Cesspool'
p287
aS'AAAGAAGACAACAAGACUUUAUAGACAAAGUUAAAAAAAAGUCAAGAUUAAAAGAACAUUUGAAAAUAAGAAAAUUACAAAUACUAUAAAUUAAAGAAAAAAAGGCAUUAGUUACAAAGUAUACAAAUGGUCAAUUCGAAAACAAAAGUUUAAAAGAACGAAAUGAAAACACUAACAAGAUUUAAGAAAACAAGAUAGUAUAGUCAAGGGCAAGGAAAAGUCAAGUUUAAAAGAAUAGUUAAAAAAAAUGAAAUGCAAAUACAAAGGAAGCUUUAAGAAAACAAACCUUUAGAUACAAAGUAAACAAGAAGGUAAGUUGAAAACAUCAGUAUAAAAAAACAAAAUUAAAAGAGAAAGC'
p288
aF0.7150837988826816
aa(lp289
S'Hoglafractal'
p290
aS'AAUACAAACAGACAAAAGAUUCAAAAAAGGAUCGUCUGCUGCAAAACUCGAAAAGAGUGCAGAACAAUAAAAAACAUGUUACCCAAAGAGCAAAUAUCGAAAAAGAUGCGUUCGUAAGACAAAAACUGGCGCAACCUAAUCGUAGUUGAGAAAACCAAGAGAAAAAACUCGGCCGAACGAACAGAAGCGGGAAAUUGAGAUACAAAAAGGAGGAAAAAAGUCCCGGGAAAAUGGCAGAAAUGAGAGAGUAAAAAAGAGAAAAAACUCAAAAAAGUUAAAAAACAACUAUGUUGUUUAAAAAAAGCUUUCGAAAAAGUAUCAAAAAGCAAAAAAGUCAAAUCAACAAAGUAAAGUGAAAAAACAAAGGUCCAAAGGAGAAGGCUAUGCCUUCCUCGCAUAC'
p291
aF0.8725
aa(lp292
S'Bullseye'
p293
aS'AAAGGGUAUCAAAAAUGGACAGUAAAGUUGAAGGUGAAAGACAUCCGAAAAAAAUGCAAUGAAACGUUAAGCUUAAAGAGCAAUGGCAAAGUCAGCAAAAAAAAAGGCCUACGGAGUAGAUGAACAAAGUUCUAGGAUGAAGACCGUUAAAAAAAGUACCGUCAAAGAUCAAGCUUAAGAAGCAAGCUGAAAUAUCGUAAAA'
p294
aF0.8415841584158416
aa(lp295
S'Shooting Star'
p296
aS'UUUGGCUAUCAUUAGGCAAGGAGUGGGGGGCAGGCAGCUAAAGACGUACGUCCGACAACCAAGUUUAAUAGAUAGAAGCCGUUCGGAUAAAGAUAGAUACAACAGCAAAGGUCCUUAGAUCGCACUUCGUCAGAAAAGCGACGCUCCCACUAACGGGUCUGUCUAUGACGGAUUGACGAAGUCGAGAGAAAACACAGAUAAGGCAAGGCAAGUUAAAAAUUAGUCAAAGACUAACGGAUUUAAGGGAUCUGGAGAUAAGCGAAGUUUAUCAGGCACUAUGUGCCUACUGAUGAAUGAAACGUACAUGAACUCGGAUAAAUCAGCAAAAGACGAUACAUCACUAAAGCGAAUCCUUGAGCCAAGA'
p297
aF0.7664835164835165
aa(lp298
S'Teslagon'
p299
aS'AAAAAAGGGAAACGAGCAUCGAAAAAACCGGCCCCCCCCCCCCCCAAGCAAAAAAAGAUCGUCCCCCCCCCCCAAGGGGCGAAACGAUCGUUAAAAAAUGACCCCCCCCCCCCCAAUCUAAACGGGCCGUAAAAAAAUCAGCCCCCCCCCCCCCCAAGCAGAAAAAAUGCCUCCCCCCCCCCCAAGCAGAGAAACGAGCGGCAAAAAAAUCCCCCCCCCCCCCCAAGCGAAACGAGCGCCGAAAAAUGCAUUUCCCCCCCCCCCCAAGAAAAAAAAUUCUUUCCCCCCCCCCCAAGGAGCUAAACGAGCAGGGAAAAAAGUAAAAAAAAAAAUGACCCCCCCCCCCCCAAUUUGCGAAACGAUCAGUGAAAAAAUCAAAAAA'
p300
aF0.8717277486910995
aa.