(lp0
(lp1
S'Simple Hairpin'
p2
aS'GAUACAAAAAAGUAUC'
p3
aF1.0
aa(lp4
S'Arabidopsis Thaliana 6 RNA - Difficulty Level 0'
p5
aS'GAGAUACAAAAGACAAAAAAAAAAAGUCGAGAUAUCAACAGAUAUAUAUAUGAUAUCAAAGAUACAAAAAAGUAUCAGAUAUCAAUAUAUAUAUCUGAAGAUAUCUCAAGUAUCUC'
p6
aF1.0
aa(lp7
S'Prion Pseudoknot - Difficulty Level 0'
p8
aS'GAUGACAGAUCGAAAGAUCGUCAAUCAAAAAAAAAA'
p9
aF1.0
aa(lp10
S'Human Integrated Adenovirus - Difficulty Level 0'
p11
aS'GAUAUAGUACGAUUUGAUGUCGAAAAAAAAGUGAAAACGAGGUUCAGGACCGGACCCAAAAGACGUAUAUAUUCUAAAAAAUGGAUAUGUGCAAAAGUCGGGUCGUAGCGGGAGUAAAUUCGUAAACAUAUCAAAAAAGGAUAUGUUUUUAAAAAAAAAAAGAUAUCUGAUCCAAAGUAUUAAAAUAUCAAA'
p12
aF0.9791666666666666
aa(lp13
S'The Gammaretrovirus Signal - Difficulty Level 0'
p14
aS'AAGGCAGUAUAUCGAAAGAUAUGAGGACAAAAAAGAUCAAGACAGAUUCUAGCGAAAGUUAGUAAAGAUCGUCGAUCAAGAGAUAUCUAAUGAUAUCUCAA'
p15
aF1.0
aa(lp16
S'Saccharomyces Cerevisiae - Difficulty Level 0'
p17
aS'GGUGUGCGCUUUAAAAACUAAGCGGGGAGGAAAAAAAAAAACCAAAACGUUGAAAAAAGUAACGGCACGCUAAAAGAGAUCGAAGCUGAAAAAAAAUAGCCGCAAAAAAAAAAAAAGCGAAAAGGUGUAAAAAAAGCAUCCGAUCUCAAAAUCGGUGGAAGAUCAAAAAAAGGAUCCCGCACAAAAAAAGUGUGGAAAAGUUGUAAAAAAGGCAACCUACUGGAAAAGAAACACAAGCUCAAAAAAAAGAGCCAUACCUAAAAAUGGUGUGAAAAGGUAAUAAAAAUUUGCCGUGUUUCGAAAGGGAUACAAGGUCGAAAAAAAGAUCUCUAUCGAAAAAAGAUGGAAAAAGGUACUAAAAAUGUACCGUAUCCCAAAA'
p18
aF1.0
aa(lp19
S'Fractal 2'
p20
aS'AAAAAGAGAUACCGAAGAGAUAUUUCGAGAGCGAAAAAAAAAGCUCAAGAGGAAAAAAAAAAUCUCAAGCUUAAAAAAAAAAGAGCGAGAGAUAUCUCGAGGAGAUAUCGGUAGAGCUAAAAAAAAUGCUCAAGACGAAAAAAAAAACGUUAAGAUCAAAAAAAAAAGAUCAUCUGGUAUCUCAAGGACAUAUAUCAAGCGCGAAAAAAAAAGCGCAGGAGCAAAAAAAAAAGCUCAAGAUCAAAAAAAAAGGAUCGGGAUAUAUGUCAAAGGUAUCUCAAAAA'
p21
aF1.0
aa(lp22
S'G-C Placement'
p23
aS'AGACAAAGUCUG'
p24
aF1.0
aa(lp25
S'The Sun'
p26
aS'AUCAGAUUAUGAAGCAUAAAGUCGGUAAGCUCAGUAUAUCAAGGAUAAAUACGAGAAAGGCAGGGUAUCCAAGACGAACCCGUCGAAAUCAGAGAAUCAAAGCUCAACCCGAUAAACACAGGUGCUCUAUGAGCAAGCCGUGAAGUUCAGCGGCUGGUAUAGUAACGCGAAAAAUUAAGAGAAACAAAGUUUAAUCCUAGAAGCCCAAAGUAUCGAAGAUAAACGUGGGAAACUUAGCAGAGCAAGGAUAAACGAGAG'
p27
aF0.875968992248062
aa(lp28
S'Frog Foot'
p29
aS'AAAAAAAAAAGAUCGAAAGAUCGAUCGAAAGAUCCUGCAAAGCAG'
p30
aF1.0
aa(lp31
S'InfoRNA test 16'
p32
aS'GAUAUCCGCAGAUACAAAGGUAUCAUGACUGAUAUU'
p33
aF1.0
aa(lp34
S'Mat - Martian 2'
p35
aS'GAUCGAAAGAUCAAAGAGAUACAAGAGAUACAAAAAAAGUAUCUCGUAUCUCAAAGAGAUAUCAAAAAAGAGAUAUAGAGAUACAAAAAAAGUAUCUCGUAUCUCAAAGAGAUAUGAUAUACAAAAAAAGUAUAUCAAUAUCUCAAAAAAGAUAUCUCAAAGAGAUAGGAUAUACAAAAAAAGUAUAUCAACUAUCUCAAAGAUCGAAAGAUC'
p36
aF1.0
aa(lp37
S'square'
p38
aS'GAGAUACCAGUGCCAGUGUCCAUGUCAAAGACAUGAAAAGACACUGAAAAGCACUGAAAAGUAUCUC'
p39
aF1.0
aa(lp40
S'Six legd turtle 2'
p41
aS'AAAAAGCAAAGUGAAAGCAAAGCGAAAGUGAAACGAAAGUAAACCGAAAGGAAAUCGAAAGGAAACCGAAAGGAAAGCAAAAAAAAAAAAAAAAAAAA'
p42
aF1.0
aa(lp43
S'Small and Easy 6'
p44
aS'GCCGCUAAAUGCAAGGGAAAAAAAACCGGC'
p45
aF1.0
aa(lp46
S'Fractile'
p47
aS'AAAAAAAAAAAAGCGAAAGCAAAGCAAAGCGAAAGCAAGCAAAUCGAAAGGGAAGCAAGGGAAACCAAAGCAAGCGAAAGCAAAAAAAAAAAAAAAAAAAAAAAA'
p48
aF1.0
aa(lp49
S'Six legd Turtle'
p50
aS'AAAAACCAAAUGCGAAAGCUAAGCCGAAAGGAAAACCGAAAGGAAAACAGAAAUGAAAACCGAAAGGAAAACCGAAAGGAAACGGAAAAAAAAAAAAAAAAAAAA'
p51
aF1.0
aa(lp52
S'snoRNA SNORD64'
p53
aS'GAUAUCAAAAAGACAAAAGACAAAGAUACAAAAAAAAAAAAAGUAUCGAAAGUCAAGUCAAGAUAUC'
p54
aF1.0
aa(lp55
S'Chalk Outline'
p56
aS'AAAAACAUCAGAUGCGAAAGCAAUCAGACAGACAAAGGUCGUCAGAUAGCGAAAGCAUAUCAGGAACGAAAGUUACCGAUGAAAAAAAAAAAAAAAAAAAAAAA'
p57
aF1.0
aa(lp58
S'InfoRNA bulge test 9'
p59
aS'GAGAUACAGAGAGAGAGAUACGAAAGUAUCUCCCCGUAUCUC'
p60
aF1.0
aa(lp61
S'Tilted Russian Cross'
p62
aS'AAAAAGAACGACCGAAAGGUCCACCAGAUGGAAACAUCGUUACAAAGGUAGCAUAGAUAAUUCUAGGUGCAUCGAAAGAUGGUUCAAAAAAAAAAAAAAAAAAAA'
p63
aF1.0
aa(lp64
S'This is ACTUALLY Small And Easy 6'
p65
aS'AAAAAAAAAAAAAAAAAAAAAAAAAAAAAAAAAAAAAAAAAAAAAAAAAAAAAAAAAAAAAAAAAAAAAAAAAAAAAAAAAAAAAAAAAAAAAAAAAAAAAAAAAAAAAAAAAAAAAAAAAAAAAAAAAAAAAAAAAAAAAAAAAAAAAAAAAAAAAAAAAAAAAAAAAAAAAAAAAAAAAAAAAAAAAAAAAAAAAAAAAAAAAAAAAAAAAAAAAAAAAAAAAAAAAAAAAAAAAAAAAAAAAAAAAAAAAAAAAAAAAAAAAAAAAAAAAAAAAAAAAAAAAAAAAAAAAAAAAAAAAAAAAAAAAAAAAAAAAAAAAAAAAAAAAAAAAAAAAAAAAAAAAAAAAAAAAAAAAAAAAAAAAAAAAAAAAAAAAAAAAAAAAAAAAAAAAAAAAAAA'
p66
aF1.0
aa(lp67
S'Shortie 4'
p68
aS'GCGAAAGCAGCGAAAGC'
p69
aF1.0
aa(lp70
S'Shape Test'
p71
aS'AAAAACUUAUCAAGAUACAAAAAAAAGUAUCAAGACAUAGAGAUACAAAAGGUAUCGGAUGGAAAUAUCACUAGUCAAGAUAUGAAAAAAAAAAAAAAAAAAAA'
p72
aF1.0
aa(lp73
S'The Minitsry'
p74
aS'ACCAAAAAGAUGAAAGGUAAAAAGGGCGAAAAGCAUAAAAAAUUGCAGCCAUACAGUCGGGU'
p75
aF1.0
aa(lp76
S'stickshift'
p77
aS'AAGAGAUCCCAAAAAGGAGAUCUCAA'
p78
aF1.0
aa(lp79
S'U'
p80
aS'AAAAAGAUACAGAGAGCAGAGAGAUAUACGAAAGUAUAUCUCCGCCCGUAUCAAAAA'
p81
aF1.0
aa(lp82
S'Still Life (Sunflower In A Vase)'
p83
aS'AAAGAUCAGAAGUGUGAAUUCUAUACGUAGGGAUCUUAGAACCAAGAAAAAUAUGGCAUCGGUGAAGCUGAGACAAUGGAAAACAUUGAACUGAGUAAAUCUCAGGGAGAUAGAUAUAUAUACUUAAACGACACAAAAAGGUGUCAGAGAGUAAAAAAAAAAAGCAUCUAAAAAAAAAAAAAAAAAAAAAAAAAAAAAAAAAAAAAAAUGAUGAAAAAAAAAAAAUCUCUCAUCGCGAAAGCGAUAGUUUAGGUAUAUAUAUUUAUCUCGAGAUCCAAAAAGGAGCGGCUCCUUAAACGGGAGAGCGGUCGAAAAGACCGAGCCACCGAAAAGGAGAAAGUUUCGAAAGAAAUAACUCUGAAAAGUAGAGGGAUCGAA'
p84
aF0.9894179894179894
aa(lp85
S'Quasispecies 2-2 Loop Challenge'
p86
aS'AAAAAGAGCGAUCAACUACGAAAGUAGAAGAUCAGAUCAACAAAGGGGAUCAUAUCAACAACUCAAAAAGAGAAGAAGAUAGUUCAAAAAAAAAAAAAAAAAAAA'
p87
aF1.0
aa(lp88
S'Corner bulge training'
p89
aS'AGAUAUCGAUACAAAGUAUCAAAAGAUAUCA'
p90
aF1.0
aa(lp91
S'Spiral'
p92
aS'AAAAAGAUCAGAUAUCAGACAGAUACAGAUCAGAUCAGCAGCAGCAGCAGCAGCAAAAAGCGCGCGCGCGCGAUCGAUCGUAUCGUCGAUAUCGAUCAAAAA'
p93
aF1.0
aa(lp94
S'InfoRNA bulge test'
p95
aS'AAAAAAAAAAAAAAAAAAAAAAAAAAAAACUGUGAAAAACACCAAAGGGCUAAAGAUCAACUGCGGCACUAAAUGUAGCAGCAAGAAGACUCGAAAGACCAAAAAGGAUGGAAAAAGCGAGA'
p96
aF1.0
aa(lp97
S'Worm 1'
p98
aS'AAAAAAAGCGAGUGGCUGAUACGAAAAAUACCCCUUCUCAAGCUC'
p99
aF0.8666666666666667
aa(lp100
S'just down to 1 bulge'
p101
aS'AAAAAGACGAGAAACGAAAGUUUCGAACGAAAGUUGCGCUCAAAAGGUCAGGCGAAAGUCAGACUAAUGUCAGACCAAAAAAAAAAAAAAAAAAAA'
p102
aF1.0
aa(lp103
S'Iron Cross'
p104
aS'AGACAGAGAAAUGCACUCAAAGAGAGACGAAAGUCAGCGAAAGGCACUCGAAAGAGAUACAAAGUAAGCCAAAGCCACUCGAAAGAGAUACAAAGUAAGGCAAACUCACUCAAAGAGAGUCGA'
p105
aF1.0
aa(lp106
S'loops and stems'
p107
aS'AAAAAGAGAUACAAAGAUCAAAUAUCAAAGAGCAAAAAAAAAGAUACAAAAAAAAAAAAGUAUCAAAGCUCGAAAGAUCAAAAAAAAAAGAUCAAAGAUAAAAGACAAAAAAAAGUCAAAGAUCAAGCAAAAAAGCAAAGUAUCUCAAAAA'
p108
aF1.0
aa(lp109
S'Water Strider'
p110
aS'AAAAACCAGGAUGAUAGAUACAAAGGUGGUUCAAUAUCCUCGAGGGCUACCAGAAAGACCUGGAAAUUCAGGGUCUAUUGGGAAAAAAAAAAAAAAAAAAAAA'
p111
aF0.9611650485436893
aa(lp112
S'The Turtle(s) Move(s)'
p113
aS'AAAGCGAAAGCAAAAGAGAUAUACAAAAAAAAAGUAUAUCUUAAAAGAUCAAAAAGAUCAAAAACUCGAAAGAGGAACUAUCAAAAAAAGAUAGAAAACCCAAAGCGAAAGCAAAAUCUGGAAACAGUAAACAUAUCAAAAAAAGAUAUGAAAAUUCGAAAGAGAAAAACAAAUCAAAAGACAAAAAAAGUCAACUCAAAAAAAAGAGAAACUCGCAAAAAAGCGAGAAACUAGAAAAACUAGAAGAUUUGAAAAAAAAAGCGAAAGCAAAAACCGAAAGGAAAAAAGAUACAAAAAAAAAAGUAUCAAAAAAGGG'
p114
aF1.0
aa(lp115
S'Adenine'
p116
aS'GAUACUGAUAUCAGAGAUGGGAUAUCAGAUUUCAGAUAUCAAAAGAUAUCAAAAAAGAUAUCAGAUAUCGGAUACAAAGAGAUACAAAGUAUCUCGUAUCAGAAAUCAGUGACGUAUUUCAAAGAAGUACAAAGUCACAGAUAUCAAAACGUUUCAAAAGAUAUCUAAUGUAUC'
p117
aF1.0
aa(lp118
S'Tripod5'
p119
aS'AAUGACCUGGGAAAAUCAGGGUCUAAAUGGCCGUCAGA'
p120
aF1.0
aa(lp121
S'Shortie 6'
p122
aS'ACGAAAGUAGCGAAAGCAGCGAAAGCAGCGAAAGC'
p123
aF1.0
aa(lp124
S'Runner'
p125
aS'AAAAAGACCAAAUUAGAAACAUUUAAAAUGGAAUCCAAGAGUGGUCGGCAAAGCCUAAGACGCGGACAAAAUCGAAUUCUGUCGAAGCGGAUGCCGAAAGGUUUGUAGGGUAAAAA'
p126
aF0.9482758620689655
aa(lp127
S'Recoil'
p128
aS'AAAAAUAUACAAGCAAGCAAGACAAGACAAGCAAGCAAAGCAGCAGUCAGUCAGCAGCAGUAUAAAAAAAAAAAAAAAAAAAAAA'
p129
aF1.0
aa(lp130
S'[CloudBeta] An Arm and a Leg 1.0'
p131
aS'AAAAAUACAGAUACGAAAGUCAUCGUCAGAGAAAUCGACAGUAAAAAAAAAAAAAAAAAAAAA'
p132
aF1.0
aa(lp133
S'[CloudBeta] 5 Adjacent Stack Multi-Branch Loop'
p134
aS'GCCUUGACCGGAAGGUCGACACUAAUGUGUCCAGCUGAAAGGCUGUAUCGAAAGAUAAAGGCA'
p135
aF1.0
aa(lp136
S'Triple Y'
p137
aS'AAAAAUAUCAUCUGAUCGAAAGAUCCCUCAUAGGAGUGGAUGAUCGAUCUAAUGAUCUAGGUGAUCCUGGACCAAUAAAAAAAAAAAAAAAAAAAAA'
p138
aF0.9175257731958762
aa(lp139
S'Misfolded Aptamer'
p140
aS'GAUCUAAAAAGGGACAAAGUCAGCGAAAGCAAAAAAAAACCAAAAUGAUC'
p141
aF1.0
aa(lp142
S'Flower power'
p143
aS'AAAAGCAUCCAGGUAGCCGGUGGAAGCUAAAGCAGUAGGGUCAAACAGUAAUGGUAAACUCAGUCCGGACUUAUGAUAGAGGAAAAAAAAAAAAAAAAAAAA'
p144
aF0.9019607843137255
aa(lp145
S'Kudzu'
p146
aS'AAAAGUUUUGUAAGUGCCCAGUUCACUAAAAGGAAACGAAAGAUUAAAGAAUAUUAAGAAAAAUUCAAAUCAAUGUCUGAGAAAAAAAAAAAAAAAAAAAA'
p147
aF0.9405940594059405
aa(lp148
S'"1,2,3and4bulges"'
p149
aS'AAAAACCGCAGUCUCGAAAGGAAAAGGGAGUCGAAAGACGACAUGAAAUCAAGACCGGAAACAAAGAAUUCGGAAGGGCCUACUGGAAAAAAAAAAAAAAAAAAA'
p150
aF0.9619047619047619
aa(lp151
S'medallion'
p152
aS'GACAUAACAUAUCUAAUGAUAUGAGAAAAAGUUCAGUCGAAAAACAGUUAUGGAAAUAUAACUUACGAAAGUCUGAGAGCAAAGGCUUUUAGGGGAAAUUCAUACGAAAGUAAGAUAUCGAAAGAUAUCAUACGAAAGUGAGAUAUCGAAAGAUAUCAGACGAAAGUCAGACGAAAGUCAGCAAUCGAAAGAUUGCAGAUAAAGGUCAGGUAUCUAAUGAUACUAGAGGAAACUCAGACGAAAGUCAUAUCUCGAAAGAGAUGAGAUGAAAGUCAGAUAUGGAAAUAUAUCAGACGAAAGUCAGACGAAAGUCAGAUAUCGAAAGAUAUCAUAUGUC'
p153
aF0.9821958456973294
aa(lp154
S'[RNA] Repetitious Sequences 8/10'
p155
aS'AGGAAAAAAGCAAAAAAGCAAAAAAGCAAAAAAGCAAAAAAGCAAAAAAGCAAAAAAGCAAAAAAGCAAAAAACCAAAAA'
p156
aF1.0
aa(lp157
S'Documenting repetitious behavior'
p158
aS'AAAAAAAGGAAAGGGAAAUGGAAGAGAAAAGAAAGGGAAAUUAAAGGGAAAUGGAAGGGAAAAAAAAGGGAAAAAAAAGGGAAAAGAAAGGGAAACGAAAAAAAAAUGAAAAAAGGGAGAAAAAAGGGGGAAAAAAGGGAGUGAAAAGGGUGGAAAAAGGGGGAAAAAAGGGGUUAAAAAGGUGGAAAAAAGGGAAUAAAAAAAUGUAAAGAGAAAACUAAGGGAAUUUAAAAGGAAACUAAAGAGAAACAAAAGGGAAUGAAAAGAGAAACCAAAGUGAAACCAAAGGGAAACGGAAAAAAAACGGAAAAAGGGAUAAAAAAGGGUAGAAAAAGGGAUAAAAAAGGGUGAAAAAAGGGAGGAAAAAGGGAUGAAAAAGGACAGAAAAAGGCCCAAAAAA'
p159
aF0.865
aa(lp160
S'7 multiloop'
p161
aS'GGUGCGUUCGAAAGGACGGACAAGAAAUUGUCCUACCGAAAGGUAGCGUACGAAAGUAUGGAUACGAAAGUAUCGAUACGAAAGUAUCCACC'
p162
aF1.0
aa(lp163
S'Kyurem 7'
p164
aS'AAAAAUGAUGUCGCCAAAAGGCGGGAAAAGAGCGGUCGAAAAGACAGGCGUCAAAAAGGACAAAGCCGCUCCCCGACAAUCAGAAAAAAAAAAAAAAAAAAA'
p165
aF1.0
aa(lp166
S'JF1'
p167
aS'GAGAGAAGGUUACUAUCAAGAUACAAAAGAUAUCAAGAUACAAGGAUACAAGAUAUCACAGAUAUAUAUAUCGAAAGAUAUAUAUAUCUGAAGGCGAAAGUCAAAGAUGUACGAAAGUACAUCUUAACUAGCGAAAGCUAGAGAUAUCAGUAUCAGUAUCAGAUAUCAAUGAGAUGUCAAAAAGACAAUCUCUAGAUAUAUAUAGAUAUAUAUAUAUCGAAAGAUAUAUAUAUAUCAUAUAUAUGUCAAAGAUACAAAAAAGUAUCCAGAUAUAUCGAAAGAUAUAUCUGAGACUAAAAAAUUAGAAGUAUCGAGAUAGAGAUCAGUCAGGCGAAAGCCGACGAUCAUGAGUAUACGAAAGUAUGCCUCAAAACCGUUCAUCUCAAA'
p168
aF1.0
aa(lp169
S'multilooping fun'
p170
aS'UGUUGACGUGAAUGUAAAAAGUGAAAUUAAAAGUGA'
p171
aF0.8333333333333334
aa(lp172
S'Multiloop...'
p173
aS'GAUCAGAUCAGACGAAAGUCAGACGAAAGUCAGACGAAAGUCAGACGAAAGUCAGACGAAAGUCAGACGAAAGUCAGAUCACAUACAAAAAAGUAUGGACGAAAGUCGAUC'
p174
aF1.0
aa(lp175
S'hard Y'
p176
aS'AAAAAGCGCAUAGGAGUAUCAAAGGAUACUCAUGUUAGGUGUAUCUAAUGAUACAUCUAGUGUAAAAA'
p177
aF0.9705882352941176
aa(lp178
S'Mat - Elements & Sections'
p179
aS'AAAAUAGUUAGGAGGAUCUUAGGCGCGAAGAGGAGUAGGGACUAAUGUCACACCUCCCAGAGCGGAAAGGGAGGGUAAAUGAGCGUAAAAAAAAAAAAAAAAAAA'
p180
aF0.9428571428571428
aa(lp181
S'Chicken feet'
p182
aS'AAAAAACAUUUCAAAGAAAUUGAAGGGAUAACUAGAAGUUACAAAGGUAUCAUAUUAAGCUCAAAAA'
p183
aF0.8805970149253731
aa(lp184
S'Bug 18'
p185
aS'CGCGGCAGAGGCAAAAGACACUAAAAUCUUGCGGUGGCAGGUUGUUAAAAGCA'
p186
aF0.8867924528301887
aa(lp187
S'Fractal star x5'
p188
aS'AAAAACAGAUAUCAACUACGAAAGUAGAACUACGAAAGUAGAACUACGAAAGUAGAACUACGAAAGUAGAAGAUAUCUGAAAAACAGAUAUCAACUACGAAAGUAGAACUACGAAAGUAGAACUACGAAAGUAGAACUACGAAAGUAGAAGAUAUCUGAAAAACAGAUAUCAACUACGAAAGUAGAACUACGAAAGUAGAACUACGAAAGUAGAACUACGAAAGUAGAAGAUAUCUGAAAAACAGAUAUCAACUACGAAAGUAGAACUACGAAAGUAGAACUACGAAAGUAGAACUACGAAAGUAGAAGAUAUCUGAAAAACAGAUAUCAACUACGAAAGUAGAACUACGAAAGUAGAACUACGAAAGUAGAACUACGAAAGUAGAAGAUAUCUGAAAAA'
p189
aF1.0
aa(lp190
S'Crop circle 2'
p191
aS'GUGAAGUGAAAGUAAAAAGCAAAAAAAAAUAUAAAAAAAAAAAAAAAAAAAAAAAAAAAAUUGAAAAAAAAAAAAAAAGUGAAAAAAAGACAAAAAAAGCGAAAGAAAAA'
p192
aF0.9454545454545454
aa(lp193
S'Branching Loop'
p194
aS'UAAUCUCCAAAAAAAUGUAUCAUUAAAAAGAAUUAAAAAA'
p195
aF0.95
aa(lp196
S'Bug 38'
p197
aS'UCCUGCGGAAGACGGAAACUGCAUUAAGUUAAAGUU'
p198
aF0.9444444444444444
aa(lp199
S'Simple Single Bond'
p200
aS'AAAAAAGGAAAAAAAUAGCCUAAAUGGCUUAAAAAAAACGAAAAAAAAAAAAAAAAAAAAA'
p201
aF1.0
aa(lp202
S'Taraxacum officinale'
p203
aS'GAUCGAAAGAAUCACUACGAAAGAUAGACUACGAAAGAUAGACUACGAAAGAUAGACUACGAAAGAUAGACUACGAAAGAUAGAGAGAUAUAUACGAGAUAUGAUCAAAGAUCAAUAUCUCAGAUACAACAGAUAUAUCAAGAGAUACAAAGUAUCUCAGAUAUAUCUGGAUCAGAUAUCAAAGAUAUCGAUCGUAUCAAAGUAUAUAUCUCAGAUCGAAAGAAUCACUACGAAAGAUAGACUACGAAAGAUAGACUACGAAAGAUAGACUACGAAAGAUAG'
p204
aF1.0
aa(lp205
S'Headless Bug on Windshield'
p206
aS'UCUGGAAAAAAGACACAAAACGUAGUAAAAAAAAAAAAAAAAAAAAAAACCCGAGUGCAGUGAUCAAAUCAAUCGACAGGGCAAUGAAAAAAACCGAAAGCAAAAAAACCGCCAAAAAAGUAGGAGAAAAAAAAAGACAAUCAAGUCAACCAGUCAAAAAAAAAAAAAAAGUCAAGGAAGAUAAGAAGUCAAAGAAAUCA'
p207
aF0.95
aa(lp208
S'Pokeball'
p209
aS'AAUGCGGUGCAAAAGCAAAGAAGAAAGCGAACUAAGCAAGAAACCUACGAAACGUGGAUUGAGCAAGAAGGAUUCACCGGCGUAUCGCUAAAAAAAUAGCUUCAAAAUCAGUCAAGUCAAGCAAAUAAGUAAGCAACUAAGGAAGCGAAGAAGCAACGGUAAGCAGACAGGAGGGAGGCUAAAA'
p210
aF0.967391304347826
aa(lp211
S'Variation of a crop circle'
p212
aS'AAAGGUAAAAGGAAAGAGAAAAGCUAUGAGCUAAAGUAACAAAAUGCAAAAAAUGAAAAAAAUCAAAAAAAAAACAAAAAAAAAAAAA'
p213
aF0.9545454545454546
aa(lp214
S'Loop next to a Multiloop'
p215
aS'AACUGAUAUCAAAAAAGAGGAGAACAAAGGUUCUCAGAGAUACGAAAGUAUCUCAUAAAAAAAGAUGUCAGGA'
p216
aF0.9726027397260274
aa(lp217
S'Snowflake 4'
p218
aS'CAUCAAGGAUCGUUUGCAGAAAAGCGGUGAAGGUUCGGGAAACCCUAUUUUACAAAGAAGAACUCCGAAGGAAAAUAGCCGAAAGGGAACCGAGAUACUCGAAAUACUUCCCUACAAAGGAGAACUAGAAAGUAGGGAGGCUGAAAGGGUAUUAAUAUACCCGAAAGAUAUACCUACAAGGUAGAACAAAAAAUUUGGUAUGGCGAAAGGGUAUAAACACAUCCAAAGGGGAAAUCUAUAAAAUAGAACUUCAAGGGAGGUUUCCCUAAUGCAUGGGAAGAAACUCGAAAGGCUAACGAACAAAAUCCAACAAAAAAGUCUGUUAGUCGAAAGGGUUUCGACAUAGGGGAAAGCCAAACGAUGGAAUGUC'
p219
aF0.8108108108108109
aa(lp220
S'Mat - Cuboid'
p221
aS'GAACCAAAAGCAAACAAAAGCUAGCAAAAUAAUCAAGCAAAAGCAACCAAGAAAAAGAACCAAGCAAGGAAAAGCAAACAAGCAAUUAAAAGGAAGCAAUUAACCAAGGAAAAGAAACUAACCAACCAAUCAAAAACAAGCAAUGAACCAACGAUCAAAACGCGACCAACCAACCAACCAACCAAAAGCAACAAACUAACCAACCUACCAAAAAAGGAUGGAAGGAAAGAAUGAAGUGGAAGGAAGGAAGGAAGGAAGCAGUAUGAAGGAACGAAGCAAGUGAAAGGAAGGAAGGAAUCCCAAGGAAGAGAGCAACCAGAAGCAAGUAAGUGAGAGCAGGCAACGAAAGCAAGAGAAACAAAAGCAUACGUAAGGGCAAC'
p222
aF0.9342105263157895
aa(lp223
S'Misfolded Aptamer 6'
p224
aS'AAAAAAGACAAAAAUGUGCAACAAAAGACUAAAAAAUGUCAAAGGGAAAAGCACUAAAAAAGUUGAAAAAAAAAA'
p225
aF1.0
aa(lp226
S'Snowflake 3'
p227
aS'CAGCCGAAAGGUUACCUUGAAAGAGGUUGGCAUACCAAGUCGAAAGGCCCCGUGGAAACAUACUAUGUGUCGAAAGAAGGGCGCGAAAGUGAAGGUGAGAUUAAGACGAAAGUCUUCGCCGAAAGGUACGAAGUAGCGAAAGUAGAACUCGAAAGAGAAACUCAUAUAUAGACGAAAGUCCUCACCGAAAGGAGAAAACUAUCGAAAGCCGAGCACGAAAGUGAUUAUGGGCCUAAGACGAAAGUCGUCACCGAAAGGCACGAAGUACCGAAAGGAAACCUCGAAAGAGAAAAUCAGAUCAAAACGAAAGUUCUUACCGAAAGUCGCAAAGCGACGAAAGUAGGGCGGGAAAUUCAAGAUCAGCCAUAGUCGAAAGGCAUAUUCGAAAUACUG'
p228
aF0.8880407124681934
aa(lp229
S'Hard Y and a bit more'
p230
aS'AAAAGGUUGUAUAUCUUCAAAGCAGGCAGUGAAAAUUUGUCAUCAAACGAUCUAGAAUCUAAAAUGAUUCAAAAUGUGUUGUAUCAAAAAAAAAAAAAAAAAAAAA'
p231
aF0.9716981132075472
aa(lp232
S'Mat - Lot 2-2 B'
p233
aS'GAAAGGCAGUCGAUCCAAAAUCAACUGUGAAAGUAAAAGGAGACGGUGCUAAAAGGAACACCAAGCAAGCAGGUCCAACCAAAAGCAACUGCAACCAAAAGUGAAAACGGAAGAAAAAGGUAGGGGGAUGUCAAGAAAGCGAAAGUGCAAGUGCAAUCAAAAUCAAUAUUGAAAGAAAAAGAAAGAGGGAGCAAAAGCAAGCCCAACGAACUAAGGGCAAUCAAAAGUAACUCUAAAGAAAAUUGAAAGACUAAAGAAAAGGAAGAGGAAGUCCAAGGAAUAAU'
p234
aF0.8274647887323944
aa(lp235
S'Shapes and Energy'
p236
aS'AAAAAAAUAGGAAUUUGAAAAGUAGUAUCUGAAAGCUGAUGAAUCGAAAAAGGAAAAAAUUUCGAAAGAAACCGGUGCUUGAAAAAAAAAAAAAAAAAAAA'
p237
aF0.9603960396039604
aa(lp238
S"Spiral of 5's"
p239
aS'AAAAAGAUACAAAGAGACAAGGAUACGAAUGAUACAAUGAUACAAAGUUACAAGAUACAAAAGAGACAAGGAAACAAAGAUGGAAGAUACAAUGAUGCAAAGAUACAGGAUACAAAGAUACAAGAUACAAGCUAGAUCACACAAGGUACACAGUAAUUAACGUGUCAAAAAGACACCGUAGGUUGGGAAAAUGCUGAAAAGGUACCAAAAAGUGUGUAAAAUUAGCAAAAAGUAUCAAAAGGUAUCGAAAAGUAUCAAAAAGUAUCAAAAAGCAUCUAAAAGUAUCGAAAACCAUCGAAAAGUUUCAAAAAGUUUCAAAAAGUAUCGAAAAGUAACAAAAAGUAUCUAAAAGUAUCUAAAAGUAUCAAAAAGUUUCAAAAAGUAUCAAAAAUAAAAA'
p240
aF0.9949622166246851
aa(lp241
S'Campfire'
p242
aS'AAAAGAGCACAUAUGAAGAUCAAAAUCUAAAUCCUUAAUCUUGAAGAGAAUCGGUAGGUGGCAAAACCCUAUGUUAAUGCACUGGGUCGCCGCAGGAGCAACGAAAGCGCCCGACCAACUAAAGGGAUGAGUCAGGCAGCAGACAACCCAAGGCGAUGCCAGAUAGAUCGAAAGAUCAUCGACCACCGGACAAGGACAAGAGUCUUAGGCUC'
p243
aF0.8867924528301887
aa(lp244
S'Anemone'
p245
aS'AAAGAUAUCGAAAGAUAUCGAUGCGAAAGUAUCAUUUGCUAAUGCGAAUAUAUCAAAUGUUGUUAUGACUAAUGUCGUACAGUCUAAUGACUGCAUACGAAAGUAUGGUCAUGAAAGUAUUGCAGUAACGAAAGUUGCGAUGCCCAAUGUUAUCGGUCCGAAAGGAUCUCUAUACAAAUGUAGAAGCUCUAAUCGGCUUACAACAGAGGUUAUC'
p246
aF0.9906542056074766
aa(lp247
S'Fractal 3'
p248
aS'AAAAAGAUCAGGCGGCGAAAGCGAUAAAUCAGCCAGGCAGCGAAAGCGCGAAAGCAGCCAGACAGCGAAAGCGCGAAAGCAGUCGAACAGCGAAAGCGCGAAAGCAGUUAGAUCAAAAA'
p249
aF1.0
aa(lp250
S'Kyurem 5'
p251
aS'AAAAGGUGCACCAGCUAAUGGUUAAAAAAGCGCGUUGAAAGGGGAAAACCUUAGCGGAAAAAAGCUCAGAUCUAGGGUAAGUGCAAAAAAAAAAAAAAAAAAAA'
p252
aF0.9230769230769231
aa(lp253
S'Snowflake Necklace ( or v2.0 )'
p254
aS'GCGUUGGAGAUAUGCAGAGACAGAAAAAAUCAGUAAAAAACAUCAAAAAGAAGCAAAAAGCAGCAAAAAUUGGUUUCAUACAAAAAGUAAGCUGCAGCAAAAAGCUGGAAAAAUGAUCAAAAAGAGCCUAAAUUCAGAAAAAAGCGGUAGCAGUCAAAAAGACAGAUAUAGAAAAAAGCAGCGAAAAGAAGCAAAAAGCAUCAAAAAGAACCAAAAAGCAAUGUCGGCGAAAAACGCAGCUACGGUAAAAAACAGCAAAAAGCAUCAAAAAGAAACAAAAAGUGGCGAAAAGGAGUGUCAUGUGAAAAGCAAUCUAUGGCGAAAACCAUCAAAAAGGAGCUAAAUGCAGCGAAAAGCACUAAAAAAGAAUAGCAGUAUAUCUUCAACGC'
p255
aF0.8457583547557841
aa(lp256
S'Methaqualone C16H14N2O Structural Representation'
p257
aS'AAAAAAAGAUCGGAUCAGACAGUCGAAAGACAGACAAUCGAAAGAUAAAGAGGCAAAGGCCAGGCACUCUAAUGAGUCUUAAAAAAAAAGUGGCUCUUAGUCGGUCAGAAACGGAUCAUAUUAAAGCAUUCAAAGCAAAGCAAAAAAAAGCGAGAUAGACGAAAGUCGACGAAAGUUUACUAAUGUAAUCUGCAAACAUCAGAAGCAGACAGUCACUCAGAGCUACAAAAGACGAAAGUCGGUAUCCCGAAAGGGCCUCAGGCGAAAGCCAGAGAUACGAAAGUGAGGCAGAUCAGAAAGUAAUGCGAAAGCAAAACUAAUGUGAUCAGUCAUAUCGAAGAAGAGAUCAAAAAAA'
p258
aF0.9267605633802817
aa(lp259
S"Cat's Toy 2"
p260
aS'AAAGGAGAUACCCAAAGCAAAGAAAAAAAAAAAAAAAAAAUAAGUAAAUCGAAAGAGAAAUGAAAGUGAAAAAAGACAAAAAAGCGGUAUCUCAAAA'
p261
aF0.9587628865979382
aa(lp262
S'Zigzag Semicircle'
p263
aS'AAAGGAUUGGAUUGAAAAUGAUCUACCGGCAAAA'
p264
aF0.9411764705882353
aa(lp265
S'Short String 4'
p266
aS'AAAAAUGUACAAAGAGUGGCAAACCAACAAAGGUGGGAUAAGAAGUUAAAUGAUUCAUACAAAAAAAUACGAUCGGUAAAAAAAAAAAAAAAAAAAA'
p267
aF0.9587628865979382
aa(lp268
S'Gladius'
p269
aS'GGAAACAAUAAAAGGAUGAAGAGGAGAAAGUCUGACAAAGAUCGAAAGAUCAUAUAAGGAAGACACGAGAUCAGUGGAUUAAGGGAGAUAUGCGAUACCAGUUACAUAUCAGUACGAGAUCUAUGAUCAGUAACGAUAGAUAACGAGUAUCCAAUAUCUCAAUAGAUCAAGAGAUUAAUAGUCAGAAUAAUGAGUAUAAGACAGAUACGGAAGACUUAAGCUGUCUAGAUCAGGAGAGAUACAGGAUGCUAUAUCAGGAUGCAGACAGGUAUCGAAAGAUAUCAAGUCGACAUCACGAUAAUGUAUCACGUAUCUCGAAAGAUCGGAUUAGCACAUGUCACAAGUAUCAGAUCGAAAGAUCAAAGUUUAACGAGCAGCGCAACUAACAAAAAAAGAAAAC'
p270
aF0.905
aa(lp271
S'Thunderbolt'
p272
aS'AGAGGGUAGAAAAAAAUUCGCUACGUGAAAAAUAACUGAGAGUUAUUAAAAAAAAACCAAAAAAGAUGAAAAAUAUCAAAAAAGGAAAGGAACCAAAAAAGCAACGAAAAAGAAGAAGCGAUCAAAAAGAAAACAGGUUAAAAAGACAAAAACAAUCUUAAAAAGGAAGGAAAAACCAAAUGAAAUGGAAAAAGGAAUGCGAAGCAUGAAGAAAAAAAAAAUAUUAAAAAAAAAAUCAAAAAGAAAAGAAAAUUAUCGCAGAACAAAAAAAAAAAGGAGCCAAAAAAAAUGUAGCGAAAGCGUCUCAAAAGAAAAAAAAAUAAAAAGAGGCGAAUAUGUAAAAUAACUCAAAAAAAAUUCGAUGCGGUAAAACAAAAAAAGGCUACCAACUA'
p273
aF0.9540816326530612
aa(lp274
S'Mutated chicken feet'
p275
aS'AAAAAAUUGAGUGGCUAUGCAGCAAAGCGAGACGCUCCAGCUAGAAAUUUCCGAACGAAUCUGCAGAAGCUUGGAACAAUCUAUGGUAUCCGCAAAAAAA'
p276
aF0.82
aa(lp277
S'Chicken Tracks'
p278
aS'AAAAAAAAGAGAUACCUACAAAGGUAGAAGAUCGAAAGAUCAAGAUGGAAACAUCGUAUCUCAAGACGGGCUAUGCCCAAGAUGAAACAUCAAAGCCAAAGGCUGUCAAAAAAAAA'
p279
aF1.0
aa(lp280
S'Looking Back Again'
p281
aS'GACAGGACUAUUAAAAAGAUACUAAAGGUAUCGUGUAAACGACGUAAGUCAAAUAAACGAUAUCAAAAGAUCGAAAGAUUAAAGUGAUAAACUCAAGUCAAGCACACCAAAAUUUUACGAAAGUAGAUAAAAUGUUUGUCCGAGACAAAGUUUCAGCACGAAGUGCUGGGACCCCAAGAACAAGAGGAAGAAAUCCGAAAGGAUAAUAGAAUGAAUGGGAACGAAAGUUAAGGUCCCAAAGGACAGCGCAGAUGCACAACAAAAAAGAGUAUGUAAAAAAAACUCGAAAAGACUCAUAAUUCUCCGUUGGAUCAAAAAAGCCAUAUCAAAGGAUAUGAAGACUCGAAGAGUGUGCAAAGCACAAAGUCGCAAAAGAUCGCAUCGAAGUC'
p282
aF0.8946015424164524
aa(lp283
S'Multilooping 6'
p284
aS'AAUUUGCAGCAAUUCAAAGGAAUGGCUACGAAAGUGGCGGCGAAGAACUGAAAGGUUCGUUACGAAAGUAGCUUAGCAAGAA'
p285
aF0.926829268292683
aa(lp286
S'Cesspool'
p287
aS'GAAGGGGAAAACAAUGCAACACGGAUAAAAGCAAUAAGAAUAAAACAAGAAAACAAAGAAGAGAAAUAAUAAAAAGGAAACGACAACAAGUAUAAGGAAAUAAGAGAAGAGGACUAAAGGUAAUAACAACUCAACAAGGAAACAAGAUUACGAAAGGUGAAAAACAAAUGAAAAAUAGGCAAUAACAAAGGGAGCGAAUAGGGUCAAAGAGAAUAAGAAAUCAGGAAUAAAAAAAUAUAACGAAAGAAGAAAAAUGAAAAAAAAACCAAGCAAUAAGAAAACAACUGAACAAAGGCAAAGUCACUAAGAAUAGAAGAAGAAAACAAUACGACGAAAGAAGAAAAAGGAAAUAAAAAGC'
p288
aF0.7988826815642458
aa(lp289
S'Hoglafractal'
p290
aS'AGGGGGAAGAAGCAAAAGAUACAAAAAAGUAUCGCAACGAUGAAAGACUAAAAAGCUGUACCCUUAAGACAAAGGUCGAGUGCUUAAGAUCAAACUUCAAAAAAGAAGGAUACACAAUAAGAAAAGUAGAGCCAGCGAAAGUGGACAGAAAAAUACAAGACAAAAAAGUCGUGUUAACAAAAGUCAAUUGGAAACGAAGAUAGAAAAAGCAGCAAAAAAGCGCCUCAAAAAGAGUCGAAAGCAUAAAUCGAAAAAGUCAAAAAAGGCGCAAAAAGCAAACGCAUACAAAGUAUGUGAAAAAAAGAUUUGAAAAAACUAUCAAAAACAUCGAAAAUCACACCAAGAAAUAGCGGAUGGAACCCGAAAGAUUUAAUGAGUAUACGAAGUAUGGACAUCGUAA'
p291
aF0.89
aa(lp292
S'Bullseye'
p293
aS'AAAUUCGAGUGAACCUCAUGGUCAAAGACCUACAUCAAAGUUAGAAAAAAAAAUCUCGGACAAAGUACAAUCUAGAAGAAGGACAUCAAAAAUAGAGUAAAAAAAGUCAAUGAAGAAUCAAGUUCAAAGAUUAAGGCAAAAAAUCGGUGAAAAAAAGUCGAAGGAAGAGUAAGAUUAAAGAUCGAGAUCAAGCUUCGAUAAA'
p294
aF0.8514851485148515
aa(lp295
S'Shooting Star'
p296
aS'AGAUACGGUCGAGAGACGAGGAGAACCAGACAGUCAGCGAAAGACGAACGUCGGAGAACCAAGUUUCUCACAGACAGCAUAACCAGACAGUAUCAGACACUAUAGCGAAAGACGUAAGGUCGAAUAAUGUCGGAGAAGGAAGGGAAACAGUUUGGAUCAUGUCAAAGACAGACUAGCAAAGCUAGCGGAAAACAAAGAUCAGACCAGAUGAGGUCAAAUAGAUACAAAGUAUCUGAGGAGCAAAAAGUGGAUCGAGGUGCUAUGCAUCUCAGAGUAAAAGACUUUAUCGCGUAAUGAAAGGAUCAGCAACAGACACAGUACAGCGAAAGAUGUAACGUGGCAGGAGUAGUAAGAACAGUAUCUA'
p297
aF0.8516483516483516
aa(lp298
S'Teslagon'
p299
aS'AAAAAAGGAAAAAAAGGGGGAAAAAAAGCAACAAAAAAAAAAAAAAAGUAAAAAAAAGUUAAAAAAAAAAAAAAAUAAGAAAAAAAGACAGAAAAAAAAUCAAAAAAAAAAAAAAAGGAAAAAAAUUAGAAAAAAAAGUACUAAAAAAAAAAAAAAAACAAAAAAAAAGUAAAAAAAAAAAAAAAACAGCAAAAAACUCACCAAAAAAAGUAAAAAAAAAAAAAAAGCAAAAAAACGAGUAAAAAAAGAACGAAAAAAAAAAAAAAACGAAAAAAAAACGUAAAAAAAAAAAAAUCGAGUAAAAAAAACUGAAAAAAAAGAAAAAAAAAAAAAGCAAAAAAAAAAAAAAAGCAUAGAAAAAACCUUCAAAAAAGCCAAAAAA'
p300
aF0.9267015706806283
aa.