(lp0
(lp1
S'Simple Hairpin'
p2
aS'GUGACAAAAAAGUCAC'
p3
aF1.0
aa(lp4
S'Arabidopsis Thaliana 6 RNA - Difficulty Level 0'
p5
aS'CACAUGCAAAUGACAAAAAAAAAAAGUCGACAUGGCUUCAUAUAAUUAUAAAAUAACAAAGUGACAAAAAAGUCACAGUUAUUGUUAUAAUUAUAUGUUGCCAUGUCAAGCAUGUG'
p6
aF1.0
aa(lp7
S'Prion Pseudoknot - Difficulty Level 0'
p8
aS'GUGAUCAGAUCAAAAGAUCGAUACACAAAAAAAAAA'
p9
aF1.0
aa(lp10
S'Human Integrated Adenovirus - Difficulty Level 0'
p11
aS'GUUACAGGUUAUUCGGUUCUCGAAAAAAAAAUGAUCCAGUUAGCGUGGCGCCGCAGCAAAAGAGAUGAUCUAACAAAAAAAGGUUAGAUCAUGAAACUCGCUGUAAACGUUGUAAAAAAACUGAAAAUAUACGAAAAAAGUAUAUGAUCUAAAAAAAAAAAGAGAACAGAAUAAAAGACCUGAAAUAACAAA'
p12
aF0.9791666666666666
aa(lp13
S'The Gammaretrovirus Signal - Difficulty Level 0'
p14
aS'AUGUGUUCAUACCAAAAGGUAUGUUCUCUAAAAGGAUCAAGAACAUGCGAAGGUAAUCCUUUGAAAGCAUUUCGAUCAAGAUAUGGCAAAAGCCAUGUCAA'
p15
aF1.0
aa(lp16
S'Saccharomyces Cerevisiae - Difficulty Level 0'
p17
aS'GACAUUCGAACUAAAAAAUGUUCCGGGAAAAAAAAAAAAAACCAAAUGUUACUAAAAAUGUGACGAAUGUCAAAAGCGAUGCACCAUGGAAAAAAACAUGCGCUAAAAAAAAAAAUGCGAAAUUAGAAGAAAAAAUUCUAGCAUUGCAAAAAGCAUGCAACAUGUAAAAAAUCAUGGUUACCAAAAAAGGGUAACAAAUGUGACGAAAAAAGUCACGCAUGCUCAAAGACAUGCAAGAUGAAAAAAAACAUCGAUACCGAAAAAAGGUAUUAAAUGUGACUAAAAAUGUCACGCAUGUCAAAAGACGUACAAGAUGAAAAAAAACAUCGAAACUAAAAAAGAGUUUCAAAUGUAACAAAAAAGGUUACGUACGUCGAAA'
p18
aF1.0
aa(lp19
S'Fractal 2'
p20
aS'AAAAAGAGAUCGCAAACAAAUGAAUUAUGAGUAAAAAAAAAAACUCUAUGGCAAAAAAAAAAGCCAGAGCCGAAAAAAAAAGCGGCAAGAUUCAUUUGAAACACGUGGUUUAAGCUCCAAAAAAAACGAGUAAGCCCUAAAAAAAAUGGGUAAAUGGAAAGAAAAAACCAUGGGAACCAUGUGAAUGACGCUUGUUAAGAGCAAAAAAAAAAGCUCAAGAGCAAAAAAAAAAGCUCGAGAUGGAAAAAAAAACAUCGAGAUAAGUGUUUAAGUGAUCUCAAAAA'
p21
aF1.0
aa(lp22
S'G-C Placement'
p23
aS'UCAGAAGCUGGA'
p24
aF1.0
aa(lp25
S'The Sun'
p26
aS'UACAGAUUAGCAAAGCUAAAUUCGUAAAUGACAUCCAAACUAUUCUUAAGCGGUCUAAGACAGAUUUGUAAAAUGGAAAUCGUCGAAGACACACAAGCAAAGCUUAAGUGGACAAACACAGACAGGGAAACCUUAAGUCGUGAAAUGCAGACAUCCAAGACAUAAGUUGGAGAUCACACACUUGUGAAGAAGAAGUCGCCAAAGGUAGGCAUGCAAAGUAUAAGUCAGCGAAUAGAGACGUGCGAAGCACAAGUCCUA'
p27
aF0.937984496124031
aa(lp28
S'Frog Foot'
p29
aS'AAAAAAAAAAGAUCAAAAGAUCGGUCAAAAGACCCACCAAAGGUG'
p30
aF1.0
aa(lp31
S'InfoRNA test 16'
p32
aS'CAUACAUCACAAUACUAAUGUAUUAGUAGUUGUAUG'
p33
aF1.0
aa(lp34
S'Mat - Martian 2'
p35
aS'UUUCCAAGGAGAAAAGACAUGCAAGACAUGCGAAAAAAGCAUGUCGCAUGUCAAAGACAUGGCAAAAAAGAUAUGCAGACAUGCAAAAAAAGCAUGUCGCAUGUCAAAGAUAUAGAUAUAAUAAAAAAAAUUAUGUACUAUAUCAAAAAAGCCAUGUCAAAGAUUUAUAUAUAAUAAAAAAAAUUAUAUUAAUAAAUCAAACGUUAAAGAACG'
p36
aF1.0
aa(lp37
S'square'
p38
aS'GACAUGCCAGGUCCAGGUUCCAAGACAAAGUCUUGAAAAGAACCUGAAAAGACCUGAAAAGCAUGUC'
p39
aF1.0
aa(lp40
S'Six legd turtle 2'
p41
aS'AAAAAAUAAAUCAAAGAAAAAAAUAAUUUAAGGAAAAAUUAAAUGAAAAUGAAAUCAAAGAGAAACCUAAUGGAAAGUAAAAAAAAAAAAAAAAAAAA'
p42
aF0.9591836734693877
aa(lp43
S'Small and Easy 6'
p44
aS'GCCGGAAAAACCAACCAAAAAAAAAGGGGC'
p45
aF1.0
aa(lp46
S'Fractile'
p47
aS'AAAAAAAAAAAAGCAAAAGCAAAGCAAAGCAAAAGCAAGAAAAGGAAAACCGAAUCAAGCGAAAGCAAAGCAAGGAAAACCAAAAAAAAAAAAAAAAAAAAAAAA'
p48
aF1.0
aa(lp49
S'Six legd Turtle'
p50
aS'AAAAAGCAAAAUAAAAGUGAAAAUAUAAUUAAAAUUAGAAAUAUAAAUGAAAACAAAAACCAAAAGCGAAAGCUAAUGAAAACGUAAAAAAAAAAAAAAAAAAAA'
p51
aF0.9238095238095239
aa(lp52
S'snoRNA SNORD64'
p53
aS'GAUACCAAAAAGACAAAAGACAAAGUGACAAAAAAAAAAAAAGUCACAAAAGUCAAGUCAAGGUAUC'
p54
aF1.0
aa(lp55
S'Chalk Outline'
p56
aS'AAAAACAUGAGUGACAAAAGUACACAGACUGACUAAUGUCGUUAGGGACCAAAAGGAUUCCAGCCUCAAAAGAGAGCCAUGGAAAAAAAAAAAAAAAAAAAAAA'
p57
aF1.0
aa(lp58
S'InfoRNA bulge test 9'
p59
aS'GACAUGCAGAGAGAGACAUGCAAAAGCAUGUCCCCGCAUGUC'
p60
aF1.0
aa(lp61
S'Tilted Russian Cross'
p62
aS'AAAAAGAUGGAGCGAAAGUUCGGUGAGCUGGAAACGGCGUGCCAAAGGGCACAGAUCUAAUGGUCCACCCUCCAAAGGGAGCAUCAAAAAAAAAAAAAAAAAAAA'
p63
aF1.0
aa(lp64
S'This is ACTUALLY Small And Easy 6'
p65
aS'AAAAAAAAAAAAAAAAAAAAAAAAAAAAAAAAAAAAAAAAAAAAAAAAAAAAAAAAAAAAAAAAAAAAAAAAAAAAAAAAAAAAAAAAAAAAAAAAAAAAAAAAAAAAAAAAAAAAAAAAAAAAAAAAAAAAAAAAAAAAAAAAAAAAAAAAAAAAAAAAAAAAAAAAAAAAAAAAAAAAAAAAAAAAAAAAAAAAAAAAAAAAAAAAAAAAAAAAAAAAAAAAAAAAAAAAAAAAAAAAAAAAAAAAAAAAAAAAAAAAAAAAAAAAAAAAAAAAAAAAAAAAAAAAAAAAAAAAAAAAAAAAAAAAAAAAAAAAAAAAAAAAAAAAAAAAAAAAAAAAAAAAAAAAAAAAAAAAAAAAAAAAAAAAAAAAAAAAAAAAAAAAAAAAAAAAAAAAAAAA'
p66
aF1.0
aa(lp67
S'Shortie 4'
p68
aS'GCAAAAGCAGCGAAAGC'
p69
aF1.0
aa(lp70
S'Shape Test'
p71
aS'AAAAAUGACUGAAGUGACAAAAAAAAGUCACAAGACCACCAGUGCCAAAAAGGCACAGAUCAAAAGAUCAGGUGUCAACAGUGGAAAAAAAAAAAAAAAAAAAA'
p72
aF1.0
aa(lp73
S'The Minitsry'
p74
aS'GGGAAAAACAGAAAAAAAUAAAAAGCCAAAAAGCCAAAAAAAGGGCGGGCGAUUGCUGGCCC'
p75
aF1.0
aa(lp76
S'stickshift'
p77
aS'AAGACAUCCCAAAAAGGAGAUGUCAA'
p78
aF1.0
aa(lp79
S'U'
p80
aS'AAAAAGUGACAGAGAGCAGAGACAUGGUUGAAAAACCAUGUCCGCCCGUCACAAAAA'
p81
aF1.0
aa(lp82
S'Still Life (Sunflower In A Vase)'
p83
aS'AAAUCUCAAGGGACUAAAUGUCCCAACUCGCAAAGCGAGGACUCGCAAAAAGCGAGAAGGCAUUAUGUGCCGUGUGGAAAAAGUCCAUUAUUUGUAAAAAGCAAGGGCUAGAAUUUAGUAUACUAAUGCGGAACAAAAAGGUUCCAGGGGCAAAAAAAAAAAAUGACGAAAAAAAAAAAAAAAAAAAAAAAAAAAAAAAAAAAAAAAAACGUCUAAAAAAAAAAAAGUCUCGUAUUGAAAGAUACAGCAUUAGUAUACUAGAUUCUAGCAUGUCACAAAAAGUGACUACGAUCGAAAAGAUUGAACCGUGGGCAAUACGGGAGUAGCAAAAGGCUAUGACUAGCGUAAGCUAGGACUGGCGAAAAGCUAGAGAGAAAA'
p84
aF1.0
aa(lp85
S'Quasispecies 2-2 Loop Challenge'
p86
aS'AAAAAGGUGGUCGGUCAACAAAAGUUGUACGACAGUUGGACAAAGGACAGCAAUUCUCGGACACAAAUAGUGGAUUUGAAUUACCAAAAAAAAAAAAAAAAAAAA'
p87
aF1.0
aa(lp88
S'Corner bulge training'
p89
aS'AGAUACCGUGACAAAGUCACAAAAGGUAUCA'
p90
aF1.0
aa(lp91
S'Spiral'
p92
aS'AAAAAGAUCAGAUACCAGACAGUGACAGAUCAGAUCAGCAGCAGCAGCAGCAGCAAAAAGCGCGCGCGCGCGAUCGAUCGUCACGUCGGUAUCGAUCAAAAA'
p93
aF1.0
aa(lp94
S'InfoRNA bulge test'
p95
aS'AAAAAAAAAAAAAAAAAAAAAAAAAAAACUGGGAAAAAGCUGGAAAAAUUGUAAGAAUCUCAACAUAUACAAAGUAAGUGGUAUCCUCAAUCGAUUACGUGAAAGCAAGGAAAAAAUCAAGU'
p96
aF0.8688524590163934
aa(lp97
S'Worm 1'
p98
aS'AAAAAAACGGGGAAAAAGUAAUGCACACAAAUAGAAUGGGCACAG'
p99
aF0.9555555555555556
aa(lp100
S'just down to 1 bulge'
p101
aS'AAAAAGACGAGUGACAAAAGUCACAGACAAAAGUCACGAUCAAAAGAUGAGACAAAAGUCAGACAAAAGUCACAUCAAAAAAAAAAAAAAAAAAAA'
p102
aF1.0
aa(lp103
S'Iron Cross'
p104
aS'ACAAAGAGAAAUGCACACAAAGUGGGACAAAAGUCUGCGGAAGGCACACAAAAGUGGGGCAAAGCCAGCCAAAGGCACAGAAAACUGAGACAAAGUCAGCCAAACUCAGGCAAAGCCAUUGGA'
p105
aF1.0
aa(lp106
S'loops and stems'
p107
aS'AAAAAGACAUGCAAAGAUUAAAGAUGAAAGGUGAAAAAAAAAGUGACAAAAAAAAAAAAGUCACAAACACCGAAAGAACAAAAAAAAAAGUUCAAACAUCAAAGACAAAAAAAAGUCAAAAAUCAAGCAAAAAAGCGAAGCAUGUCAAAAA'
p108
aF1.0
aa(lp109
S'Water Strider'
p110
aS'AAAAAGGAUCAUUCUUAAGACCAAAGUCGAUUAAAAUGUGAGGAGCGAGUUAAAAAUAAGAGGAAACUCACUCGAAAGAUUCCAAAAAAAAAAAAAAAAAAAA'
p111
aF0.941747572815534
aa(lp112
S'The Turtle(s) Move(s)'
p113
aS'AAAGCAAAAGGAAACGAGUUACAUAAAAAAAAAGUGUAAUUCAAAUGAGGAAAAACUUCUAAAAGACAAAAGUCGGGUAAUAAAAAAAGUCUUAAAAAGCCCAAGUAAAAUGAAAAUGACAAAAGUCCAAAGAUAGGAAAAAAAUCUAUCGAAAGUGGAAACACAAAAAGAUACAAAAAGGGAAAAAAAUUCAACACAAAAAAAGGUGGAACUAGGAAAAAAUUGAGAAACAAGGAAAACUUGAAGGUAUAAAAAAAAAAACAAAAGCAAAAAAUAAAAGUGAAAUGGUUACUAAAAAAAAUGUAGCAAAAAAGGC'
p114
aF0.9810126582278481
aa(lp115
S'Adenine'
p116
aS'GUGACAGAUACCAGAUACCAGAUACCAGAUACGAGAUACCAAAAGAUACCAAAAAAGGUAUCAGGUAUCGGUGACAAAGACAUGCAAAGCAUGUCGUCACACGUAUCAGAUACAACUAUCAAAGAUAGUUAAAGUAUCAGGUAUCAAAAGGUAUCAAAAGGUAUCAAAAGUCAC'
p117
aF1.0
aa(lp118
S'Tripod5'
p119
aS'AAGACCGACGGAAAAUGUCGCUUAAAAGGAGCGGUCGA'
p120
aF1.0
aa(lp121
S'Shortie 6'
p122
aS'CAGAAAUGGGCAAAGGCGGGGAAACUAGGGAAACC'
p123
aF1.0
aa(lp124
S'Runner'
p125
aS'AAAAAGAACGAAGGGAAAAGGGAAAGUCUCAUUUCAAAGUAGAGUCUGGGAAUAGAACGUCGUUUCUAAGAGAAAAGACAUACAAAUACGAGCAAAAAGUCGAGUAGAGGUCAAAA'
p126
aF0.9655172413793104
aa(lp127
S'Recoil'
p128
aS'AAAAAGUGACAAGCAAGCAAGACAAGACAAGCAAGCAAAGCAGCAGUCAGUCAGCAGCAGUCACAAAAAAAAAAAAAAAAAAAAA'
p129
aF1.0
aa(lp130
S'[CloudBeta] An Arm and a Leg 1.0'
p131
aS'AAAAAGACAGUGACAAAAGUACACGGCAGCAAAAGCGCCAGUCAAAAAAAAAAAAAAAAAAAA'
p132
aF1.0
aa(lp133
S'[CloudBeta] 5 Adjacent Stack Multi-Branch Loop'
p134
aS'UCAGGGGUCGAAAGACCGGGGCGAAAGCCUCGUUACGAAAGUAACCGGGGAAACUUGCCUGGA'
p135
aF1.0
aa(lp136
S'Triple Y'
p137
aS'AAAAAUUUGCGAAGAGCAAAGUAUCUAUUUAAUAAUGGUCGAAUAAGUCUAAUGACUCAAUGAAUGCUCCUACUAGGGAAAAAAAAAAAAAAAAAAA'
p138
aF0.8865979381443299
aa(lp139
S'Misfolded Aptamer'
p140
aS'GAUGUAAAAAGGGACAAAGUCAGCAAAAGCAAAAAAAAACCAAAAUCAUC'
p141
aF1.0
aa(lp142
S'Flower power'
p143
aS'AAAAAGAUUGGGUGAAACACAGAGUAGCAAAACAUUAGGGCAAAAUGCCAGCAACAAGGGGGGCACAUAUAAAGUAUGAAGCGAAAAAAAAAAAAAAAAAAA'
p144
aF0.9215686274509803
aa(lp145
S'Kudzu'
p146
aS'AAAAUUAUUUAUUGGCCGGAGUCAAGCAAGACUAAGUCCGAUAGCAAAGUAUAUUAAGCAAAAUGCGAAGUCAGUGAUGUCUUAAAAAAAAAAAAAAAAAA'
p147
aF0.9801980198019802
aa(lp148
S'"1,2,3and4bulges"'
p149
aS'AAAAAGGGUAGCCAUAAAAAUAAACGACUAACUAAUGUUUACAUUAAAAAAGUUGAGAAAGGAAAUCUGUCAAAGGCCUAUAAUUGAAAAAAAAAAAAAAAAAAA'
p150
aF0.9428571428571428
aa(lp151
S'medallion'
p152
aS'GAGACUAGAAACCAAAGGGUUUCGUCCAAAAGCAACACAAAAAGAAAUUUGCUAAUGUGAGGAUAUAAUAGAGAGAUAACAAAAGUUAUCGCAGGAAACUGAGACGAAAGUCGAUUACCAAAGGGUAAUACACAAAACUUACAUAUGGAAACGUAUGGUCAAAAACGAGGAUAAAAAUGCCGUACCAAAAGGUACGAAUCGAAAGGAGCAUUCCAAAAGGGAUGGGUGAAAACAAAGACAAAAGUCACAUCUCUAAUGAGAUGACACCAAUGCGACAAACCAAAAGGUUUGACACAAAAGUAAAUCAAAAGGGGCAGAUUGAAAAGUUUGAAGUUUC'
p153
aF0.9228486646884273
aa(lp154
S'[RNA] Repetitious Sequences 8/10'
p155
aS'AGGAAAAAAGCAAAAAAGCAAAAAAGCAAAAAAGUAAAAAAGCAAAAAAGUAAAAAAGCAAAAAAGCAAAAAACCAAAAA'
p156
aF1.0
aa(lp157
S'Documenting repetitious behavior'
p158
aS'AAAAAACCAAAAAAAAAAGUUAAAAAAAAUUGAAAAAAAUAGAAAAAAAAAAAGAAAAAAAGGGCAAAAAAAAGGAAAAAAAAGGGGAAAAAAAAGGAAAAAAAAAGGAAAAAAAAAGGAAAAAAAAACGCAAUAAAAAGGAAAAAAAAAUGAAAAAAAAAAGAAAAAAAAAAGGAAAAAAAAGGAAAAAAAAAUUAAAAAAAAGGAAAAAAAAAACCGAAAAAAAGCUAAAAAAAAGGGGAAAAAAAACGAAAAAAAAACUGAAAAAAAACAAAAAAAAAACCGAAAAAAAACCAAAAAAAAAUCAAAAAAAAAUCAAAAAAAAGUCAAAAAAAAAUCAAAAAAAAAUCAAAAAAAAGCGUAAAAAAAAGAAAAAAAAAUCCAAAAAAAAAUCAAAAAA'
p159
aF0.91
aa(lp160
S'7 multiloop'
p161
aS'GGCCCAUGCGAAAGCAUGCGUGAUAAUUCGCGGUGACGAAAGUUACGGUGCUAAUGCACCCUCUGUAAUUAGAGGUUUCGAAAGAGACGGCC'
p162
aF1.0
aa(lp163
S'Kyurem 7'
p164
aS'AAAAUUCUUGACUCAAAAAUAAGGAAAAAUGUUGGCCAAAAGGCGAAAGGGUAAAAAAGCCAAACGUCAUUAUCGUUAAGGAUAAAAAAAAAAAAAAAAAAA'
p165
aF0.9215686274509803
aa(lp166
S'JF1'
p167
aS'AUAAAACAAUCGGUGAUAGGUGACAAAAGAAACCAAGAUACAAAGUAUGAAGAUACCUGAUAUAGAUAUAAUGAAAAUUAUAUCUAUAUCAAGACAAAAGUCACAGGAUGUCAAAAGACAUCCUGAACUUGCAAAAGCAAGAGGUAUCACAUACAGUAUCAGGUUUCAAUGACAUGGCAAAAAGCCAAUGUCUGGAUAUAAUAUAAUAUAAUAUUAUGAAAGCAUGAUAUUAUAUUAAUAUUAUAUCAAAGUGACAAAAAAGUCACGACGUGGUUCAAAAGAACCACGUCAAACAAGAAAACUUGAAGUCACAAAUCACAUAGCAGACAGACAAAAGUCGUCGCUAAGUCAGGGUUGAAAAACCCAUGGCUGAUUAGUUAUUAUAAA'
p168
aF1.0
aa(lp169
S'multilooping fun'
p170
aS'UGAUUAUUCUAAUAUGGCAACAAUAAGCAAAAGGCG'
p171
aF0.8611111111111112
aa(lp172
S'Multiloop...'
p173
aS'GAUUAGAUGGUCCAAAAGGAAUACAAAAUUAAAAUAAAAAGUGGGCAAAAGUCGGAGAAAACUCAGGAAAAACUCACAUAAGAUGCAAAAAGGCAUUUAGAAAAUUGAAUC'
p174
aF0.9459459459459459
aa(lp175
S'hard Y'
p176
aS'AAAAAGUUAGUAGAUUUGGAUAAUUCCAGAUUCACAGGAUUGAUUUAAUAAUCAAUCCUUGGGGAAAA'
p177
aF0.9705882352941176
aa(lp178
S'Mat - Elements & Sections'
p179
aS'AAAAAGUUCGCAAAUGAAAAGGAAAUCAAUAUGUCAACGGAGAAAACUCAGGAGAUAGACGAUUAAAACGUUUUGAAAAGAGAACAAAAAAAAAAAAAAAAAAAA'
p180
aF0.9619047619047619
aa(lp181
S'Chicken feet'
p182
aS'AAAAAACAAGAGUUAUACGGGAAGGUGAACAGAGGGAUGAGAUUCUUCGAAAAGGGAGCACCAAAAA'
p183
aF0.8507462686567164
aa(lp184
S'Bug 18'
p185
aS'AAGUCUAAUGACAAAGUAACACAAACGAAACCUGCGGGAGAUACGGGAAAUUA'
p186
aF0.8867924528301887
aa(lp187
S'Fractal star x5'
p188
aS'AAAAAGUUGUAGCAAGAUGAAAACAUCAACUACAAAGGUGGAUUAGCAAAAGUUAUGCGAUAAAGAUCGAAGUUACAACAAAAAUACCUGGGAAAAGUAAAUGCUUAACCGGGAAACUGGAAUAACGAAAGUUAGUCAUGAAAACAUGUACCCAGGUAGAAAAGACCGGGCAGGCUCAAAAGAGCAACAUUGAAAAGUGAACAGCAAAGGUUGAAUCUGAAAGUAGAAAGUUUGGUCAAAAUAACAUGGCAAGGUCGAAAGACCGAUAACAAAAGUUGAACCGUAAAAACGGGACAGUGAAAAUUGGAGCCAUGUUUAAAAGCUAUGGGAUGAUUGAAAAAUCUAGCUCGAAAGAGUGGGAACAAAAGUUUAAAUCCAAAGGGGUAACCUGUAGCAAAAA'
p189
aF1.0
aa(lp190
S'Crop circle 2'
p191
aS'GUUAAAGAAAAUCAAAAGACGAAAAAAAGUUAAAAAAAAAAAAAAAAAAAAAAAAAAAAAGGAAAAAAAAAAAAAAAAGUAAAAAAAAAGAAAAAAAACUGAAUGCAAAA'
p192
aF0.9636363636363636
aa(lp193
S'Branching Loop'
p194
aS'UCCCAGGAAAGAAAUGAAGGAAACUUCCGCGGGUAAAAAA'
p195
aF0.95
aa(lp196
S'Bug 38'
p197
aS'AACUCCAACAAGCGAAAAUAGUGGCAAUGUAAUGGA'
p198
aF0.9444444444444444
aa(lp199
S'Simple Single Bond'
p200
aS'AAAAAAGAAAAAAAAUAGUUUAAAUGACUUAAAAAAAGCAAAAAAAAAAAAAAAAAAAAAA'
p201
aF1.0
aa(lp202
S'Taraxacum officinale'
p203
aS'GAACAAAGGAAUCACUACGAAAGAUAGUCAUGAAAGGAAUCACCAGUAACUAUGGAGGACAAAAGAUUCAGAAUAAAAGAUUCAGAUGGGAUAUCCUCGGUAUUACAAAGUAGCUACCGAGAGGCCGAAAGGGUAUAUCAAGACAAGCAAGGCUUGUCGGGUAUACCCUGAUCAGAUAUCUAUGGUAUCGAUCCGGUCAAAGGUAUCCCAUCGGUAUAAAAAACGCACUACGAAAGAUAGACAAUAAAAAAUCGAAAAGAAAAUAUUUGAGUCAAAAGACCG'
p204
aF0.8723404255319149
aa(lp205
S'Headless Bug on Windshield'
p206
aS'UGCAGCAAAAAUUAUUGAAUCUAACAAAAAAAAAAAAAAAAAAAAAAAAAGUUUGAGAAAAUAAAAAAGCGAUAUUGAAGAAACUGAAAAAAAGCAAAAGUAAAAAAACAUUAAAAAAAUGAAGGGAAAAAAAAAGACAAGUUCCCUUGGCUGACAAAAAAAAAAAAAAAGUUAUUCAUGGCAUACCGUCAGUCACCUCG'
p207
aF0.93
aa(lp208
S'Pokeball'
p209
aS'AAAGCCAUGUAAAAGUAGCCAAGACGAUGUUCCGAGGAAGGUUCUAAGCAAAGCGAGGUCCACCAGGUUCGAGUCCGGAACGCAUGGCAAAAAAAAGACAUGCCAAAACAGCGAAGACAAGGUUACGAGGAAGGUUCUGCCGAAACGAAGUUCCACCAGUUUCCAGUCACGAGUGCAUGUCAAA'
p210
aF1.0
aa(lp211
S'Variation of a crop circle'
p212
aS'AAAGUCAAAGGAAAAAACAAAACGAACCAACGAAAACGGGUAAAGUAGAAAAAGUAAAAAAAGCAAAAAAAAGGAAAAAAAAAAAAAA'
p213
aF0.9545454545454546
aa(lp214
S'Loop next to a Multiloop'
p215
aS'AAUACAGGGUUAAAAAACGGUAUUCAAAAGGAUACAGACAGGCGAAAGCCUGUCGGGAAAAAUGCCCUGUAGA'
p216
aF1.0
aa(lp217
S'Snowflake 4'
p218
aS'GAUCUAUGAGCGGACUGAAAAAACCUAGCAACUUACGCGAAAGCGUAUGGAUCAAAGAUCAAUAACAAACUUGCAUACGAGAAAUCGUAAGAACUGACGCUAAUGUGCAAUCACCAAAGGUGAAUGACAAAAUCGGUUCCGCUAAUACAUCAGGAAUUACACUAAUGUGAUACCCACAAGGUUGAACAACGAAGUUGGUGUUGCUAAUGCGUUAUAAGUGUCCAUAAUUGUUUAACAACGAAAUAGAACAACCAGGUUGUUAAAUUAAAAGGGGCACAACUUAUGUAAAAGCGUAUCGAUCAAGGAUCAACCACAAAGUGGGAUACGGAAAAACAUGAGAGGCUAGGUAAAGACGGUCUGGUAAAAGUUC'
p219
aF0.845945945945946
aa(lp220
S'Mat - Cuboid'
p221
aS'AAACAAAAACUGGGCAAAAUAAAACAAAAUUAGCACACAAAAGCAAGAAAGAAAAAGAGUCACGUCUUUAAACGCAAUGGGCUGAGCAAAAAGUAGGACGGUGGCCAGUAAAAGCACUCGCACUUGCAAGCAAAAUAGACCCGUCGGCAUUUCUUCCAACAGCUUCCUUCCUUCUUGUCGACCAUAAACUGGGUUCGUUCCUCGCUUUAGAAAAAUAUUGUACGGUUUGUUCCCUGUCGGAGGUUGGUCGGUUGGUUGUGGUUGCUUUGAAGAUAGGGAUAACGGGCCUGCAAGAGGUAAUAGGAAUCAGAAGCUCCCCGAUGAAUAAGGCGAUAACGGGCAAUUCGAGCGAGGGUUAGCAAGGUAACCGCAAAGGGAAU'
p222
aF0.7894736842105263
aa(lp223
S'Misfolded Aptamer 6'
p224
aS'AAAAAGGGCAAAAAGGGAGUACAAAGGACAAAAAAAAGUCAAAGGGAAAUCUCCAAAAAAAGUCAAAAAAAAAAA'
p225
aF1.0
aa(lp226
S'Snowflake 3'
p227
aS'GGCCUUAAUGGUGAGCACAAAAGUGAAGUUAAGAUGGAGAAAAAAUGCGGCAUUGAAAAAGACAAAGUCACAAAAAUGGAUGGCAAAACUCAACAUCAGUUGAAGACAAAAGUCGGCUACAAAGGUGUAAAAUGCCCGAAAGGUGUCUACAAAAGUCAACAUCGAAUUAAGACGAAAGUCGACAUGAAAAGAGACAAAGGCCCAAAAAGAGUCGAAAAAAGUCAAGAUUUGACGAAGCUAAAACGCGACUCCAAAAGGGACAAAGUCUCAAAAGGUGUCGGCAAAGGUCAACCCCUGAAGGAGAAAAAAGUCCGAAACGAAACUGUUAAAGACAUAAAACGAUUGGACAAAAGUCAACUUCAUAGCGAGAUAAAAGUCCUCUAGAAAAUUGCC'
p228
aF0.8142493638676844
aa(lp229
S'Hard Y and a bit more'
p230
aS'AAAAGUUUUGGAUGUGUCAAAGGGCAGUUUGUCAAUGCUAGAUCUAAUGAUCAUUUGCGGAAAAAUGCAGUUGCUUUGACCGAAAAAAAAAAAAAAAAAAAAAAAA'
p231
aF0.9716981132075472
aa(lp232
S'Mat - Lot 2-2 B'
p233
aS'UAAUUCGACACACACUCAAAUUAAGUUCGAAAGGAACAAUGGGGGGUUUGAUAAGGUGCAAGGAGCAAGAUGCGUCUUCCAAAAGGGGUCGUGACUAAAAUCGAAAGAAGGAACAAAAUGAACCGGUUACGUGAUGAAGCGACAGUGCAGAGACAACCAAAAGGAAUUAUAAAGGUAAAAAGGGUGGAGUGUAAAACUAGGUAAGAGCAACGACACGAUACGAAAAAAGAGAAUAUCCAAAAGGCAAGCCGGAGAUAAAACCGAUUUGGUGCGCCACUAAGAAA'
p234
aF0.7323943661971831
aa(lp235
S'Shapes and Energy'
p236
aS'AAAAAAGAGAUGGGUGCAAAAGGAAUACCGGGAAACAGGUAAAACGCACAAGGAAAAAUCUACAAAAGUAGCCGCAUCGCGAAAAAAAAAAAAAAAAAAAA'
p237
aF1.0
aa(lp238
S"Spiral of 5's"
p239
aS'GAAAAGUGACAAAGUGGAAAUGUGAAAAAAGUGCCAAGGUGAAGAAGUGAAAAGUGACUAAAUUGAAAAAGUGAAAAAGGGAUAGGUGACAAAGUGAAAAAUUGAAAAGUGCCAAGGUGAAAUGUGACAAGUGGCAUGAGACUUGUGACAGUGGCAAGUGUGGGUCAAAAAGAUCCGGUGGACACUAAAACGUCACAAAAAGUCACUAAAUGUCUCUAAAGGCCACAAAAAGUCACUAAAAUUCGCAAAAGGGCACAAAAAUUCAGAAAAAUUCACAAAAAGUCACAAAAAGUCUUGAAAAUUCACAAAAAUUCAAAAAAUGUCACAAAAAUUCACAAAAAUUCACAAAAAGGCACAAAAAUUCACUAAAAUCCACAAAAAGUCACAAAAAUAAAAA'
p240
aF0.9949622166246851
aa(lp241
S'Campfire'
p242
aS'AAAAAAAGAGUUAAGAACAUUAAUAGCAAAAGGUUAAUGGGGUAUCUCAUAUGAUUGGUAACAUUAGCAUAGACACAGGCAUAAGCAACUCCAUAGACUACAGAAAUGAGUCGAUUAGGUAAAAGCACAAAUCAUUGAGCGGGUGAUCUUAGGGAGUGAGAGACAACUGGAAAUAGUGUCUUUGGCGAGGCAAGGCUAAUAGUAUUUCCCUU'
p243
aF0.8584905660377359
aa(lp244
S'Anemone'
p245
aS'AAACUGAUCUAAUGGUCGGCCACAAGAGUGUGGGGAACGAACGUGUUCCCUUACGAAAGUAGGGAUACCGAAAGGUAUCGAGUUGAAAGACUCGUUACGAAAGUGACGAUAUCAAAGGAUAUCACCUGUAAAAGCGGGGUGUCUGAAAGGACACGUCAGGAAAUUGACCUUCCCGAAAGGGGAGCCCCCGAAAGGGGGGGUACCGCAAGGUAUC'
p246
aF1.0
aa(lp247
S'Fractal 3'
p248
aS'AAAAAGAUUAAGGACCAAAUACGGAAAACCACCUUGUGAGCAAAAGUCCGAAAGGAUACUAAAAGGAAAAGCGCGAAAGUAUUUAGAUAUGCAAAUAAAAAAAUUCGCAAAAUCAAAAA'
p249
aF0.9327731092436975
aa(lp250
S'Kyurem 5'
p251
aS'AAAAUAUGUUGCAUGAAAACAUAAUAAAAGAUGGAUUAAACACUAAAUGGGGGUCAUUGAAAAGGGUAGGUCAUGACAAAGCAUUAAAAAAAAAAAAAAAAAAA'
p252
aF0.9230769230769231
aa(lp253
S'Snowflake Necklace ( or v2.0 )'
p254
aS'GAUAUAAUGUAAUAAAAUGAUACCAAAAAGGACCGAAAAGGGCCAAAAAGAUCCAAAAAGGAACAAAAGGGAAUCAUGGACAAAAAGCGAUAGAUAGGAAAAACCACCAAAAAGGACCAAAAAGGACCAAAAAGGUACAAAAAGUCGUCUACGACAAAAAGUCAUAGACAGCAAAAAGCACCAAAAAAGACUAAAAAGGCCUAAAAGGGAUCUAAACUGAGACUAAGAUAAAAAAUCGUAGUUGGCAAAAAGCGCCAAAAAGGACCAAAAAGGGCCAAAAAGGUACAAAAAGUUAUCUAAGUCAAAAAGACAUAGACAGCAAAAAGCACCAAAAAGAAUGAAAAACGAUCUAAAUGAACCAAAAACGAGUCUAAUUAUUACAUUAUAUC'
p255
aF0.87146529562982
aa(lp256
S'Methaqualone C16H14N2O Structural Representation'
p257
aS'AAAAAAAUAGGAGAUGAGACAAGCAAAAGCUAAACAUACAAAAGUAAGACAGGCAAAAGCCAGACGGACAAAAGUCACAUAAAAAAAAUGAGUCAGUCAGUCAGUCAGAAACACAUCAGAUCAAAGAACAGAAGGCAAAGCAAAAAAAAAUGAGACAGGCAAAAGUCCAGAAAAGAGCACAAAAGUGGUCAUCAAAGAGGUGAAACUGACGGAUAGACACUGUGACAAAAAACAAAGGUUGGUCACACAAAAGUGUCAGAGACAAAAGUCGGUCAGACAAAAGUCAGUCAGACCACAAAAGUGUGGAAAACAGAGACAAAAGUCGUCAGGCUCCUCAAACAUCACUUCAAAAAAA'
p258
aF0.8901408450704226
aa(lp259
S"Cat's Toy 2"
p260
aS'AAAGUAGAUUGCAAAAGGAAGAAAAAAAAAAAAAAAAAAGCGUUCAAAGUAAAGGCGAUGAUAACUUAAAAAAAAGGUAAAAGCUGCGAUUUAAAAA'
p261
aF0.9587628865979382
aa(lp262
S'Zigzag Semicircle'
p263
aS'AAAAAUUUCCGGUGAAAAUCACACAGGAGUGAAA'
p264
aF0.9411764705882353
aa(lp265
S'Short String 4'
p266
aS'AAAAAGCGAGAAACGAGGGAUUACUAUCAAAAGGCGGAGAAAGGAUAAGAACAGUAGAGUAACAAACAUAAGUCAGAAAAAAAAAAAAAAAAAAAAA'
p267
aF0.9381443298969072
aa(lp268
S'Gladius'
p269
aS'UAAAGAAUAAAGGGAAAGAUGGGAAGAAAGACAGACAAUGAUGAAAACAUCUGUGACUAGAGACAAGAGAUUAAGUGAUGAAGAGAUAUAGCAUUAUACAGGAUCAUAUUAGAUGAUGAUCAAAGAUUUCAUAUAAUAGAAUCCGAUAUAAGACUAUAUCAACACAUCAUCAAAUCAACAGUCAACUGUCACGGGAAAAGACUGUAUCAGGACACAGAAAAAUAGAAGGUCAAGGGAUAUGUAUUAUACAAUAUCUAAUAUCAGAUAGAUACGAAAAUGUAUCAAGUCGAAUAUAUGAUAAUGUAUAAAGCAUAUCAUAAGAUCAUAGUUUUACGAGUGACAAGAUAUUGAACAAAAGUUCAAAGUCAGUCGAACAACGCUACAAACAAAAUUACAAAAG'
p270
aF0.905
aa(lp271
S'Thunderbolt'
p272
aS'CGAGCUGACAAAAAAAGCGACAUGGGGAAAAGUGAAAAGGAAAGCGUAAAAAAAAGCAAAAAAGGUUAAAAAGUAACAAAAAGUCAAAAGUUCCAAAAAAAUAAAGAAAAACCCAAAGAUUCCUACAUAAAAAUAGAUGAAAAAGACAAAAAGUUUUACGAAGAAGUUCCAAAAGUCAAAUUAAAGAGAAACGGGGUAACAAAGUAAAACAAAAACAUAACGAUUAAAAAAAACAUCUAAAGUUUACUAAAAGUAAAUGGUUGCAAAAAAAAAAAGGUACUAGAAAAAAAGUAACAAAACGGUAUGAAAAACAUAAAAAAGGAAAACAUCUCAAAGUCAAAACCCUGUCAAAAAAAACGUCUUGUGGAAAAAGAAAAAAACAGUCAGAACGA'
p273
aF0.9591836734693877
aa(lp274
S'Mutated chicken feet'
p275
aS'AAAAAAGGCAAUUGCGAAACGAUAAAAUAAUGUGCAGAAGGAGCGAAUAUACAAGGCUGACCGCAUCAGCAGGAAGGCAGCAAAGAGAAGCGAAAAAAAA'
p276
aF0.79
aa(lp277
S'Chicken Tracks'
p278
aS'AAAAAAAUGACAUGCUCUCGAAAGAGAAGGUUCUAAAGAACAACAGUUAAUACUGGCAUGUCUGGCGGAGGGAACCUCAAGGUAGAAUACCAAGCUCGAAGAGUCGCAAAAAAAAA'
p279
aF1.0
aa(lp280
S'Looking Back Again'
p281
aS'GACUGGCGGAGGGAAAAGAUACCAAAGGUAUCACCUCAAGACCACAAGCCAAAAGCGUGAGUGACAAGAAUCAAAAGAUUAAAGGUCACGAGUCAACGCAAGUCCGUCAAAAAGUGAGAAAACUCACAAAAAAGGCGUGCAAUGAGAAACUCAAGCGAUGCAAUCGCGAGAUCCCAAGUAAAAGUUUAAGUUCAUUGAAAAGUGUUCAGAUCAUAUAGGUUCAAAAGGAAAGAUUACAAAGCAACGGACGGGGGCAAAACAAAAAAGACGUGCAAAAAAAAGAUGAAAAACAUCGCACAAAGUCAGUCUGCUGAAAAAACUCAUAGCAAAAGCUAUGAAGACACGAAGGAGUGCCAAAGGCACAAGUCAAAAAGCGGCGUCUAAAUGUC'
p282
aF0.8766066838046273
aa(lp283
S'Multilooping 6'
p284
aS'AAGGACUCUGUGGGGAAAGCCCCAGGCAAUGAUUUGCCUAAAUUGGUCAUAAUUGGCCGCACUAAAGGGUGCUGCAGUUCGA'
p285
aF0.926829268292683
aa(lp286
S'Cesspool'
p287
aS'GAUGAAGGAAACAAGAGAAAAGGGAAAAGGCCAACGGCGGCCUAAAAUUAAAAGCGUAAUACUAAUGGUAAAAAGGAAAACAAUUACAAAUUUAAAAAAAUAAUUGCUCGGUGAGUAUCUCAUCUAGUUGGAAACAGCAAACCUGGAAAUGAAAACUGUAAAACGAAAACCAUGGACAGCUUUAAGAAAACAACAUUAUUGAGACAAAGUCAACAAGGUAUGAAAUUAUAAUUUUUGGGUGGAAAUUAUUAAAUGAAAACAAAUUGCAAGCUCUUAGGAAAUAGUAGGUUAGCGAAAAAGUCCACGAGUUUUGAAGUUGGAGACUUUAGAGUGAAAAAGUAAAAUUAAAAAAUAUAGU'
p288
aF0.6815642458100558
aa(lp289
S'Hoglafractal'
p290
aS'AAGAGGGAGUGGCAAAAGUGACAAAAAAGUCACGUCAAGAUGAAAGAUGAAAAGCAUCCAUCGGCAAAAGAAAGGUGGCCAGACAACGCGCAAACAUUAAAAAGGAUGGCGCGAGAAGACGAAAAGUCCUCGGAGUAAAAACCCUCAACGAAAGACAACACAAAAAAGUGGUUCAAGCAAAAAGCUGCACAAAAGUGAGACAUAAAAAGCAGCAAAAAAGCGCAACAAAAGGAUCUAAAAGGGGAUACCAAAAAAUACAAAAAAGUGCCAAAAAGAGACCAGAUACAAAGUAUCUGAAAAAAAGGUAUCAAAAAGGUGUCAAAAAAUUGUAAAGUCAAACCGACAAAGAUCAGAGGGAACGCAAAAGCCCAAAACAGGUACUUAUGGUACUACUUCGGAC'
p291
aF0.8925
aa(lp292
S'Bullseye'
p293
aS'AAUGGCGAGGGAAUCUGAAGAUCAAGGAUCGACAACAAAGUUGGGGUAAAAAAGGACGGUCAAAGAUCAAGAUAGAAGAUCAAGUGCAAAGUAUUCCAAAAAAAAGCGGGGUGAAAUUGAGGAUCAAACAUCAAAAUAAAGGAUCUGCAAAAAAAAGACGACCUAUCGUCAUGAACAAGAUUCUAGACGGAAUAUCGUCGAA'
p294
aF0.8613861386138614
aa(lp295
S'Shooting Star'
p296
aS'AUACAGGGAGGACAUGCAAAAAUUGCCAGAGAGACAGCAAAAGACGUAUUUCAGAGUUAUAAGCAUGUCAGUGACUUCAGUACCAGAUAGUGACACACACCUCAGAAAAAGACGAUACGUCGACCAAAGUCGGAUGUCAUUGGAAAACAGUCACGAUCCAAUGUAUGGUUGACUGGCAAAGCCAGGAGUAAUCACAGAUCAUUCCAGAGGAGAUGAAAGACAUGCAAAGCAUGUUAAGUAAAAAUCAAGCAUCGGGUGGUAAAACCAUCCACUAGCAAAGCUAGCCUCGAGGAACAAAACAUUUAAGGUUAGUGUCCGAUCAAUAAAAGGUGAUACGCGGGAGGUACAGUUUAUUUACUGUAUA'
p297
aF0.8159340659340659
aa(lp298
S'Teslagon'
p299
aS'AAAAAAGGAAAAAAAGCAGGAAAAAAUAGAGGAAAAAAAAAAAAAAAGUAAAUAAAUGGCAAAAAAAAAAAAAAAGUACAGAAAAAAUCAGAAAAAAAAGCAAAAAAAAAAAAAAAGCGAAAAAAACAGGAAAAAAAGUGGGAAAAAAAAAAAAAAACCAAAUAAAUUCCAAAAAAAAAAAAAAAGGUAAAAAAAAAUCAGAAAAAAAAGGAAAAAAAAAAAAAAAUCAAAAAAAUCGGGAAAAAAAGGUGCAAAAAAAAAAAAAAAUCUAAUAAAUAGUAAAAAAAAAAAAAAAGCAACAAAAAAACGAACAAAAAAAGGAAAAAAAAAAAUGUAAAAAAAAAAAAAAAGCUUCGAAAAAGCCGUCGAAAAAGCUAAAAAA'
p300
aF0.9214659685863874
aa.