(lp0
(lp1
S'Simple Hairpin'
p2
aS'GAUACAAAAAAGUAUC'
p3
aF1.0
aa(lp4
S'Arabidopsis Thaliana 6 RNA - Difficulty Level 0'
p5
aS'GAUAUACAAAAGACAAAAAAAAAAAGUCGAUAUAUCUUGAUAUAUAUAUACGUUGUAAAAGAUACAAAAAAGUAUCAUACAACAGUAUAUAUAUAUCUUGAUAUAUCAAGUAUAUC'
p6
aF1.0
aa(lp7
S'Prion Pseudoknot - Difficulty Level 0'
p8
aS'GAGAUCAGAUCGAAAGAUCGAUACUCAAAAAAAAAA'
p9
aF1.0
aa(lp10
S'Human Integrated Adenovirus - Difficulty Level 0'
p11
aS'GCUAGUGAUAUCUGUAACACGUAAAAAAAAAAAGCGGACUCUGGGAAGAUCAUGGACCCCAGGUCUAGAUAUAGUAAAAAAUUUAUAUCUAGAAAACCCGUACGAAAAUGACUAAAAUGAAUGGAAACUCGGAAAAAAGCCGAGUGGCUGAAAAAAAAAAUUGUGUUUUAGAAAAAUAUCGCAAAUAGCAAA'
p12
aF0.9791666666666666
aa(lp13
S'The Gammaretrovirus Signal - Difficulty Level 0'
p14
aS'AAGUGUUGGCCCGAAAACGGGCCUUCUCGAAAAAGAUCAAGGCCGAUGGAUCGUAAUCGGUUAAAACAUUGCCGAUCAUGAUAUAUCUAAUGAUAUAUCUA'
p15
aF1.0
aa(lp16
S'Saccharomyces Cerevisiae - Difficulty Level 0'
p17
aS'ACUCGGGGGACGAAAAAAAGUUCAGGGAAAAAAAAAAAAAACCAAACGAUCCGAAAAAAGGAUCCCUGAGUAAAGGAGGUAGUACUGCAAAAAAAGGCAGGAGGAAAAAAAAAAAACUCAAAAGAUCCUAAAAAUGGAUCCUAUCUCAAAAGAAAUACAACGGGAAAAAAAGCCUGCAUUUGGAAAAAACAAAUGAAAAGUUACUAAAAAUGUAACGUAUUUCAAAUGUAAUGAAACGGUGAAAAAAAACCGGACCCGAAAAAAGCGGGUCAAAACGUAUAACAAAGAUGCGUCAUUGCUAAAGUGAUACAACAGUUAAAAAAUACUGGAUACAGAAAAAAUGUGUCAAAAUACACAAAAAAGGUGUAGUAUCGCAAAA'
p18
aF1.0
aa(lp19
S'Fractal 2'
p20
aS'AAAAAGAUAUAUCAAGUAUAUAUAUCAAGAGCAAAAAAAAAAGCUCAAGAGCAAAAAAAAAAGCUCAAGAUCAAAAAAAAAAGAUCAAGAUAUAUAUGAAAGAUAUAUAUCAAGUGCAAAAAAAAAAGCACAAGAGCAAAAAAAAAAGCUCAAGAUCAAAAAAAAAAGAUCAAGAUAUAUAUCAAAGAUAUAUAUCAAGAGCAAAAAAAAAAGCUCAAGACCAAAAAAAAAAGGUCAAGAUCAAAAAAAAAAGAUCAAGAUAUAUAUCAAAGAUAUAUCAAAAA'
p21
aF1.0
aa(lp22
S'G-C Placement'
p23
aS'AGAGAAACUCUA'
p24
aF1.0
aa(lp25
S'The Sun'
p26
aS'AUCAGGCGUUCUAUGAAGAAGCCGAUAAAGAAAGAGGCUCUAUGAACAAUUCGUCAAAAAGGGACCAUCAAGGGUGAAGUACGUAAAGUUAGAAGGUGUAUGAUCAAUUCAACAAAAUCAGUCUUUGAAACAGAAAGGCGAUGAAUGAAGACGUUGGAAUAACAAGUCGUAAAGGACAGACGUUUAAGGACAAAGUCCUCAAGGGUACACCCUCAAAUAGGAAGUAGCUAAAGACAAACGUUCUAUGGACAAGUUGUC'
p27
aF0.8294573643410853
aa(lp28
S'Frog Foot'
p29
aS'AAAAAAAAAAGAUCGAAAGGUCGAUCGAAAGAUCGGGCAAAGCCC'
p30
aF1.0
aa(lp31
S'InfoRNA test 16'
p32
aS'GACACGGGAGAUAUCGAAAGAUAUACUACGCGUGUC'
p33
aF1.0
aa(lp34
S'Mat - Martian 2'
p35
aS'GAUCGAAAGAUCAAAGAUAUACAAGAUAUACAAAAAAAGUAUAUCGUAUGUCAAAGAACGUUCAAAAAAGAUAUACAGAUAUACAAAAAAAGUAUAUCGUAUAUCAAAGAUAUACGUUGUCCAAAAAAAGGACAACAGUAUAUCAAAAAAGAACGUUCAAAGAACGUCUCUAUACAAAAAAAGUAUAGAAAGACGUUCAAAGAUCGAAAGAUC'
p36
aF1.0
aa(lp37
S'square'
p38
aS'GAUAUACGAGCGGGCGAUGGGCGAUGAAACAUCGUAAAACCAUCGUAAAACUGCUCAAAAGUAUAUC'
p39
aF1.0
aa(lp40
S'Six legd turtle 2'
p41
aS'AAAAAGGAAAAGAAAAUCGAGGCAAAAGCAAAUUAAAGCAGAAGGAAAAGUAAGGGGAAACCAAAGGUAAUCGAAACCAAAAAAAAAAAAAAAAAAAA'
p42
aF0.9591836734693877
aa(lp43
S'Small and Easy 6'
p44
aS'UUCUGUAAAUUCAAGUUAAAAAAAUACGAA'
p45
aF0.8666666666666667
aa(lp46
S'Fractile'
p47
aS'AAAAAAAAAAAAGUGAAAGCAAAGGAAAGGAAAACCAAGGAAAUGAAAACGGAGCCAAGCAAAAGCAAACCAACUGAAAGGAAAACAAAAAAAAAAAAAAAAAAA'
p48
aF1.0
aa(lp49
S'Six legd Turtle'
p50
aS'AAAAAGUGAAAUGGCAACGAAAACAGAAACGGAAUCAGAAAUGUUACGUGAAAACAAAGCCGAAACGAAAAACAAAAGUGAACCCGAAAAAAAAAAAAAAAAAAA'
p51
aF0.9238095238095239
aa(lp52
S'snoRNA SNORD64'
p53
aS'GACACGAAAAAGACAAAAGACAAAGAUACAAAAAAAAAAAAAGUAUCGAAAGUCAAGUCAACGUGUC'
p54
aF1.0
aa(lp55
S'Chalk Outline'
p56
aS'AAAAUCCUCUUAGAAUAAUUUACGGUAUGAGAUAAAGCUCCGUAGGGGGGAAAACCACUCCGUUGAGGAAAUUCACAGAGGUAAAAAAAAAAAAAAAAAAAAAA'
p57
aF0.9807692307692307
aa(lp58
S'InfoRNA bulge test 9'
p59
aS'GGUGUACAGAGAGAUAAGUUCGAAAGGAUUUGCCCGUACGCC'
p60
aF1.0
aa(lp61
S'Tilted Russian Cross'
p62
aS'AAAAAGGCGGUAUGAAAGUACGGUCAGAUCAAAGGAUCGAUACUAAUGUAUCACUGCUAAUGCAGGACCCCUCGAAAGAGGCGCCGAAAAAAAAAAAAAAAAAAA'
p63
aF1.0
aa(lp64
S'This is ACTUALLY Small And Easy 6'
p65
aS'GAAAAAAAAAAAAAAAAAAAAAAAAAAAAAAAAAAAAAAAAAAAAAAAAAAAAAAAAAAAAAAAAAAAAAAAAAAAAAAAAAAAAAAAAAAAAAAAAAAAAAAAAAAAAAAAAAAAAAAAAAAAAAAAAAAAAAAAAAAAAAAAAAAAAAAAAAAAAAAAAAAAAAAAAAAAAAAAAAAAAAAAAAAAAAAAAAAAAAAAAAAAAAAAAAAAAAAAAAAAAAAAAAAAAAAAAAAAAAAAAAAAAAAAAAAAAAAAAAAAAAAAAAAAAAAAAAAAAAAAAAAAAAAAAAAAAAAAAAAAAAAAAAAAAAAAAAAAAAAAAAAAAAAAAAAAAAAAAAAAAAAAAAAAAAAAAAAAAAAAAAAAAAAAAAAAAAAAAAAAAAAAAAAAAAAAAAAAAAAA'
p66
aF1.0
aa(lp67
S'Shortie 4'
p68
aS'CCGAAAGGAUCGAAAGA'
p69
aF1.0
aa(lp70
S'Shape Test'
p71
aS'AAAAACGGAUCAACUGUCAAAAAAAAGAUAGAAGACAGACAGAUACAAAAAGUAUCAGAUCGAAAGAUCAGUCGUCAAGAUCGGAAAAAAAAAAAAAAAAAAAA'
p72
aF1.0
aa(lp73
S'The Minitsry'
p74
aS'CCCGAAAAGACAAAAGGACAAAAAGGAAAAAAAACGAAAAAAAGUUAUCCGGUCAGUCAGGG'
p75
aF1.0
aa(lp76
S'stickshift'
p77
aS'AGGAUGGCCUAAAAAAGAGUUAUCAA'
p78
aF1.0
aa(lp79
S'U'
p80
aS'AAAAAGAUACAGAGAGGAGAGAUAUAUACGAAAGUAUAUAUCCCCCCGUAUCAAAAA'
p81
aF1.0
aa(lp82
S'Still Life (Sunflower In A Vase)'
p83
aS'AAAGGUCAAGAUUAAAAAAUCGCCAAGGUGCAAAAUAUAAAUAUACGAAAAGUAUGGAGUCUUUAUGAGACAACAUAUGAAAAAUAUGAGCAGUGAAAAACAUCGCGAGAGAGUUAUAUUUAUACAUACGAGCCAAAAAAGGCUCAGAUUUAAAAAAAAAAAAGGAUCAAAAAAAAAAAAAAAAAAAAAAAAAAAAAAAAAAAAAAACCGAUCAAAAAAAAAAAAAGGAUUGAAGAUAAUUAUUCAGUAUGUAUAGAUAUAAUUCUUUCAUGCCAGAAAAAUUAGCUUGAAUUAAAAAGUUCCCCGAGACAAAAAGUCUCAUGAUUCAAAAAGGAUCAAGAUGCGAAAGUGUCAAGUAAAAAAAAUUUACAGACCAAA'
p84
aF0.9735449735449735
aa(lp85
S'Quasispecies 2-2 Loop Challenge'
p86
aS'AAUAAUACCCUUGUUGCUCGAAAGAGCUUCAGGAUGUCGACAAAGGAGACAGGAUCUAGGAUACAAUACGUAGACAUGAUCGGUAGGAAAAAAAAAAAAAAAAAA'
p87
aF1.0
aa(lp88
S'Corner bulge training'
p89
aS'AGACACGGAUACAAAGUAUCAAAACGUGUCA'
p90
aF1.0
aa(lp91
S'Spiral'
p92
aS'AAAAAGAUCAGACACGAGACAGAUACAGAUCAGAUCAGGAGGAGGAGGAGGAGGAAAAACCCCCCCCCCCCGAUCGAUCGUAUCGUCCGUGUCGAUCAAAAA'
p93
aF1.0
aa(lp94
S'InfoRNA bulge test'
p95
aS'AAAAAAAAAAAAAAAAAAAAAAAAAAAAGUCCUAAAAAAGAGAGAAAGUCUAAGUGGCAGGCCUUUGAUAAAAGAUACAUAGUGCAGGCACGAAGAGUACAAAAAUCAUCGAAAAGAGAGAA'
p96
aF1.0
aa(lp97
S'Worm 1'
p98
aS'AAAAAAAAUUUAUGAGAUGAGCAUAAAAGUGUAUUACAUUUUGAU'
p99
aF0.9111111111111111
aa(lp100
S'just down to 1 bulge'
p101
aS'AAAAAGAGCAGAUACGAAAGUAUCAGACGAAAGUCAGCAUCAAAAGAUCAGACGAAAGUCAGACGAAAGUCAGAUCAAAAAAAAAAAAAAAAAAAA'
p102
aF1.0
aa(lp103
S'Iron Cross'
p104
aS'ACAUGGGUAAAGUUAGGAGAACCGAGUCGAAAGGUAAACAAAUAAUCAUAAAAGUGCGCGGAACGUAUCAAAAACAAUCGAAAACAAAGCCAAAGGAGUGAAAGAUCACGGAAACCGAUUGCA'
p105
aF0.983739837398374
aa(lp106
S'loops and stems'
p107
aS'AAAAAGAUAUACAAAGAUCAAAGAUCAAACUGUAAAAAAAAAGAUACAAAAAAAAAAAAGUAUCAAAGCAGGAAAGAGCAAAAAAAAAAGCUCGAAGAUCAAAGACAAAAAAAAGUCAAAGAUCAAGGAAAAAACCGAAGUAUAUCAAAAA'
p108
aF1.0
aa(lp109
S'Water Strider'
p110
aS'AAAAUUCUACAAGGGAGAUGGGAAACCAAUAUAAUCACGACACGCACAGGAUGAAAGUCGGAGAAAUCUAUGGUCUACCUGAUAAAAAAAAAAAAAAAAAAAA'
p111
aF0.9611650485436893
aa(lp112
S'The Turtle(s) Move(s)'
p113
aS'AAAGGAAAACCAGAAGAGAUAUACAAAAAAAAAGUAUAUCUCAAAAGAUCAAAAAGAUCAAAAAGACGAAAGUCGAAGAGACAAAAAAAGUUUCAAGAGGCAAAGGGAAACCAAAAAGACGAAAGUCAAAGGACACGAAAAAAACGUGUUAAAAGACGAAAGUCAAAAAGGCAGGAAAAGACGAAAAAAGUCAAGGCCAAAAAAAGCCGAAAAUGCAAAAAAGCAUUGAAGAUGAAAAACAUCAACUUGCUAAAAAAAAACCAAAAGGAAAAAUGGAAACGAAAAAAGAGUUAAAAAAAAAAGACUCAAAAAAGCC'
p114
aF1.0
aa(lp115
S'Adenine'
p116
aS'GAUACAGACACGAGACACGAGACACGAGACACAAGACACGAAAAGACACGAAAAAACGUGUCACGUGUCGGAUACAAAGAUAUACAAAGUAUAUCGUAUCAUGUGUCAGAUACGUUGUCCAAAGGACAACAAAGUAUCACGUGUCAAAACGUGUCAAAACGUGUCAAAAGUAUC'
p117
aF1.0
aa(lp118
S'Tripod5'
p119
aS'AAGACCGUGCUAAAUGCACGGCCAAAAGGGCCGGUCGA'
p120
aF1.0
aa(lp121
S'Shortie 6'
p122
aS'CGGAAACGGGCUAAUGCUUCGAAAGAUGGGAAACU'
p123
aF1.0
aa(lp124
S'Runner'
p125
aS'AAAAAGUUCAGGUCGCAAACAUAGAAUAUUGCACUAAAGAGUAGGCGACAAAGUCAAACACUCGUGAAAAGUUAAACGGUUUUAAAGAGGAGUUCGAAAGGGAUUCGGAGCAAAAA'
p126
aF0.9224137931034483
aa(lp127
S'Recoil'
p128
aS'AAAAAGAUACAAGGAAGGAAGACAAGACAAGGAAGCAAAGCACCAGUCAGUCACCACCAGUAUCAAAAAAAAAAAAAAAAAAAAA'
p129
aF1.0
aa(lp130
S'[CloudBeta] An Arm and a Leg 1.0'
p131
aS'AAAAAGACAGAGAGAAAACUACUCGACAGGAAAACCGUCAGUCAAAAAAAAAAAAAAAAAAAA'
p132
aF1.0
aa(lp133
S'[CloudBeta] 5 Adjacent Stack Multi-Branch Loop'
p134
aS'AAGGCGAUCGAAAGAUCGGUGCGAAAGCACCGAUACGAAAGUAUCGGCGAAAACGCCGCCUUA'
p135
aF1.0
aa(lp136
S'Triple Y'
p137
aS'AAGAGCGUUCCGCUUUCGAAAGAGGGAUGGAAACAGCGCGGGGCGGGGUGAAGAUAGGCGUGAAAACGCAGCCGAUUAAAAAAAAAAAAAAAAAAAA'
p138
aF0.979381443298969
aa(lp139
S'Misfolded Aptamer'
p140
aS'GAUCGAAAAUGCGAGUAUCUCAGGAAAGCCAAAAAAAAAGCUAAAAGAUC'
p141
aF1.0
aa(lp142
S'Flower power'
p143
aS'AAAAUUAUAGAAAGAAUUUCUUGGUAGUCCAAGGCUAAGUCGAAAGGGGGAAGUCGACGGUGGCAGUUCGGUAUCCGACAUGCAAAAAAAAAAAAAAAAAAA'
p144
aF0.9019607843137255
aa(lp145
S'Kudzu'
p146
aS'AAAAAGUGUCAAGGUUGGGGGGUGGCGAAACACGCCCACUACCCCUACCGAGGUCAAGCCAAAGGCAAACGAGCGGCUUGCGAAAAAAAAAAAAAAAAAAA'
p147
aF0.9801980198019802
aa(lp148
S'"1,2,3and4bulges"'
p149
aS'AAAAUGAGUAAUUUGUAAACAAAAAGGCGGGAGAAAUCCUACAUAUAAAGCGCAUAGUAAUAAAAUCAAAGCAAUUCUGGCAAGCAAAAAAAAAAAAAAAAAAAA'
p150
aF0.9809523809523809
aa(lp151
S'medallion'
p152
aS'GACACGAGACACGAAAACGUGUCAGAUGAAAAUCACGCUCAAGCGACGGCUCGAAAGAGCUGUCAAAAAAAUGUCAUCUUGAAAAAGAUGGCCGAAAACAGACUAAAAACGGGCGUCUCUAAUGAGACGACAGAAAACCGACAUGUCGAAAGACAUGAUAUAAAAGAAGCAGAAAGCACGCAUGUUGAAAAAUAUGGGUGAAAAUACACAUCUAAAAGUAGAUGGCCAAAAAAGGAUAGUAAUCUGAACUAGCGAAAGCUAGUGCACAAAAGUGACAUCGCAAAGAUGCUGAUGUAAAAAAGACAUGAAAAUGACAGCUCGAAAGAGUUGACGUGUC'
p153
aF0.9020771513353115
aa(lp154
S'[RNA] Repetitious Sequences 8/10'
p155
aS'AGGAAAAAAGGAAAAAACCAAAAAAGCAAAAAAGGAAAAAACCAAAAAAGGAAAAAACCAAAAAAGCAAAAAACCAAAAA'
p156
aF1.0
aa(lp157
S'Documenting repetitious behavior'
p158
aS'AAAAAAAGGAAAAAAAAAAGAAAAAAAAAGUAAAAAAAAAGGAAAAAAAAACGAAAAAAAAAGGAAAAAAAAAGUAAAAAAAAAGGAAAAAAAAAAGAAAAAAAAAGGAAAAAAAAAUGAAAAAAAAAUCAAAAAAAAAUAAAAAAAAAAAGAAAGAAAAAAGAAAAAAAAAUGAAAAAAAAAUGAAAAAAAACCGAAAAAAAAAUGAAAAAAAAAUAAAAAAAAAAUAAAAAAAAAAUAAAAAAAAAAUAAAAAAAAAAUAAAAAAAAAAGAAAAAAAAAACGGGAAAAAAGGCCAAAAAAAACGAAAAAAAAAUCAAAAAAAAAACAAAAAAAAACUAAAAAAAAAUGAAAAAAAAAUCAAAAAAAAAACAAAAAAAAAUUAAAAAAAAAUCCAAAAA'
p159
aF0.8675
aa(lp160
S'7 multiloop'
p161
aS'UCCGAUUGUGAAAAAAUAAACCGGAAACCCUUUCUGCGAAAGCAGGGUUAUAAAAGUUACAAUUCAAAGGGAGUUGGAUUAAUAUCCGUGGA'
p162
aF0.9565217391304348
aa(lp163
S'Kyurem 7'
p164
aS'AAAAAUAUAGGUCGCGAGAGUGUGCAAAAGAUCUAACGAAAACUAUGACUACAAAAUCGGAACAGACGAUCGCGGUCAUAUCAAAAAAAAAAAAAAAAAAAA'
p165
aF0.9411764705882353
aa(lp166
S'JF1'
p167
aS'GAUAGACAAUCAGAUACAAGAUACAAAAGACACGAAGAUACAAAGAGAGAAGACACGAGAUAUACAUAUAUCGAAAGAUAUAUGUAUAUCAAGACGAAAGUCAGAUAUAUACGAAAGUAUAUAUCAAGAUACGAAAGUAUCACGUGUCACUCUCAGUAUCACGUGUCAAAGAGACGUCGAAAAGACAGUUUCAAGAUAUAUAUAAUAUAUAUAUAUACGAAAGUAUAUAUAUAUAUAUAUAUAUAUCAAAGAUACAAAAAAGUAUCACUCAGAGAGAAAACUCUCUGAGUAAAGAUGAAAACAUCAAGUAUCAAGUAUCAAGAGAGACAGACGAAAGUCGUCCUCUAGAUAGAUACGAAAGUAUCAUAUCAGAUUGGUCAUAUCAAA'
p168
aF1.0
aa(lp169
S'multilooping fun'
p170
aS'GGUCAGCUCGAAAGAUGAAAGUUAAUAUAAAUAUUC'
p171
aF0.8888888888888888
aa(lp172
S'Multiloop...'
p173
aS'GAUCAGAUCAGACGAAAGUCAGACGAAAGUCAGACGAAAGUCAGACGAAAGUCAGACGAAAGUCAGACGAAAGUCAGAUCAGGUGCAAAAAAGCACCGACGAAAGUCGAUC'
p174
aF1.0
aa(lp175
S'hard Y'
p176
aS'AAAAGGAUCGGAAGCGACACUAAUGUGUUGUAGCCGCUAAUUAUAGAAAUAUAGUUAGCGAUCAAAAA'
p177
aF0.9705882352941176
aa(lp178
S'Mat - Elements & Sections'
p179
aS'AAAAAGAUCACAAUCGUUGGGCUGAUCAAGAGAUUUCGUAACGAAAGUUUCACAAUCUACGAUCAAAUGGCCGAAGUAAGGGAUCAAAAAAAAAAAAAAAAAAAA'
p180
aF0.9619047619047619
aa(lp181
S'Chicken feet'
p182
aS'AAAAAGUAGGGUCAAAGCGUAUACCUAAACUCCAUCACGUUGAAACGUGCGAAGUAAACCGAAAAAA'
p183
aF0.8656716417910447
aa(lp184
S'Bug 18'
p185
aS'AGCUUGAUGAAAAAUGUGUGAGCAAAGCCAGAUUGAUCCACAGAUAUAAGGCG'
p186
aF0.8867924528301887
aa(lp187
S'Fractal star x5'
p188
aS'AAAAAGAUAUUUCAACUGUGAAAGCAGAAGAUCGAAAGAUCAAGAUCGAAAGAUCAAGAUAAAAAUAUCAAGAGAUAUCAAAAAGAUAUAUCAGCUGUGAAAGCAGAUGAUCGAAAGAUCUAGAUCGAAAGAUCAAUACGAAAACGUGGAGAUAUAUCAAAAAGAUAUAUCAACUGUGAAAGCAGAGGAUCGAAAGAUCAAGAUCGAAAGAUCAAGAGCAAAAGCUCAAGAUAUAUCAAAAAGGUAUAUCAACUGUGAAAGCAGAACAUCGAAAGAUGAAGAUCGAAAGAUCAGGAUAAAAAUAUCAAGAUAUACCAAAAAGAUAUAUCAACUGUGAAAGCAGAAGAUCGAAAGAUCAAGAUCGAAAGAUCAAGAUCGAAAGAUCAAGAUAUAUCAAAAA'
p189
aF1.0
aa(lp190
S'Crop circle 2'
p191
aS'ACUAAAAAAAACCAAAAUUGAAAAAAAAAGUAAAAAAAAAAAAAAAAAAAAAAAAAAAAAGGCGAAAAAAAAAAAAAUAAAAAAAAAAGGGAAAAAAAUCAAAUGUAAAA'
p192
aF0.9454545454545454
aa(lp193
S'Branching Loop'
p194
aS'GGAUCUGAAAAAAAGGAAUGAAAAGUCUAGGCAAAAAAAA'
p195
aF0.95
aa(lp196
S'Bug 38'
p197
aS'GGGUCCAGGUUGGACAAGGGCCUCCGAGGUAAAUCA'
p198
aF0.9444444444444444
aa(lp199
S'Simple Single Bond'
p200
aS'AAAAAAGGAAAAAAAUGUUCUAAAUGAAUUAAAAAAAACGAAAAAAAAAAAAAAAAAAAAA'
p201
aF1.0
aa(lp202
S'Taraxacum officinale'
p203
aS'UAUAAAAACACUAAAUGGAAAACAGACCCCGGAAAAGACUCAUGGGAAAACAUCCGGUAGGAAACACAAGAUGUAAAGAAAAGACAGCGUUACGCGGUAUAGGAUGAAGUAUCACUAUGCCAGAUACAAUAGAGGUAUUGACAUAGACUAUGUCUAUGAAAUACCUCUAUUAGACUCAAGGAACUUGAGCUGAGUAUCUAAGUGUAGCGCUGGGGGCGAAAGACUCUAUGCAAAGAACAGUUAGGGAAACACAGGGACCUAAUGAAUAAGAAAAAAACGUUC'
p204
aF0.8652482269503546
aa(lp205
S'Headless Bug on Windshield'
p206
aS'AGGAACGAAAACAUUGUAGGGUGUAGAAAGAAAGAAAAAAAAAAAAAAAAUAAUCCAAACGAAUGAAAGUAUUAUCGAAGGCAAGGAAAAAAGUGGAAACGAAAAAAACCGUCAAAAAAUGAAUAUUCAAAAAAAGGCACUAUUGAAUUGGGGAGAAAAAAAAAAAAAAACUCAACCGUUUCUUUAAGUCAAGAAAGUAG'
p207
aF0.95
aa(lp208
S'Pokeball'
p209
aS'AAGUGCAGACAAAAGGGGGGAAAUCGCAGAGUGGAGAAACAUGCUUCGAGAAUUUACAUUGAUCACAAGUCAGGUACCACCGUCUGUAAAAAAAAAGAGGUGUAAAAGGUUGUAAGACAGGUUUUGAGGAGAGUGUGGGUGGUAUCCAUGUAGCAACGCAUAGCAGUCGACUCCACGCUUCAAA'
p210
aF0.9130434782608695
aa(lp211
S'Variation of a crop circle'
p212
aS'AAAACCAAAAGCGAAGCCAAAUGUAUGCAGCGAAACGAGGCUAAGACUAAAAAGGAAAAAAAGCGAAAAAAAGGGGAAAAAAAAAAAA'
p213
aF1.0
aa(lp214
S'Loop next to a Multiloop'
p215
aS'AUCAUAUAUUUAAAAAGCGGACGGGAAAGCCUGUCAGAUAUACGAAAGUAUAUCAGAAAAAAUAAUAUAUGUA'
p216
aF1.0
aa(lp217
S'Snowflake 4'
p218
aS'CGUUGAAGAUCUAUAGACGAAAGUGGUACAGCAUACGGGAAACCAAAAAGUUCAAAGAACAAUGUCAAAGACGUUUUUGGAAAGCCGUAUGAUGGGAGGGAAAGCGCGAGUUGUCAAAGCUAAAUUACUAUGAUAAUUCGAGGAAACCUUCCCUAGGUAGAGUAAUCUACACUUGGCAAAGCUCAAGAGCAAGGUACAGUGUUGAAAACGUAAUCAAGCUAGGCGAAACAACAACUGGUAAAGAUAAAUGUCAAAGGUGGUUGUGUAAAAGUUUAGCAGGAUACGUAAAAGCAAAACGGUCAAAGACCAAGUGCAAAGCACGUUUUGUUAAUGCGUAUCAAGUGCCGGGAAACCUUAUAGAUCAAAGAUC'
p219
aF0.8594594594594595
aa(lp220
S'Mat - Cuboid'
p221
aS'UAACGAAAAGCAAGGAAAAUCAAGGUAAAGAAGUAAAGAAAAGCAAGCAAGGAAAAGAAGCAGGGAAGGAAAAGCGAGUAAGCAAGGAAAAUCAGUCGAACAAUCAAAGAAAACGGGGGUUGGAGGGUCGCAAAAAUUAGUGUGGUGGGUUGAUUUGCAAAGGUAGGUUGGUUGGUUGGUUGCAAAAAGAUGCUUUGUUUGUGGAUUGGAAAAUACUUUUCAUCGUUCGUUGUUGCUCCUUUCUUCCUUCCUUCCGUCCCGUUUCAUCCUCCCUAGCGUACCCUUUCAUCCUUCCAACGCUAACAAAGUAAAAAAGCCCAAACAAUCAAGCCCAAUCAAGGGACCCAAGUAAGCGCAAGCGACCCAGGACCAAGCCGAAA'
p222
aF0.8736842105263158
aa(lp223
S'Misfolded Aptamer 6'
p224
aS'AAAAAAUGGAAAAAAGAUCAUCGAAAGACAAAAAAAAGUCAAAAGUAAAAGAUCAAAAAAACCAAAAAAAAAAAA'
p225
aF1.0
aa(lp226
S'Snowflake 3'
p227
aS'GACCGUAAUCGAGACGUCGAAAGACAAGAUCAGAUCAAGAAUAAUCUCACUAGUGAAAGUUCCAAAGGAUUUAAUGGGAGUGAAUAAUGUCAAGAUCGAAACAAGAUUAAUGUCAUAACUGAAAGGCUGAAACAGGAAAAACCAUAGGACGAAAGUGGAGUUUAUGGCAAGUCGAAAGACAUAAAUGAAAGCGGCGAAAUCGGAAAACCAUACGACUAAUGUCCAGCCAUUGGGAAGAGGAAACUCAUAACUGAAAAGGAUGAAGACCGAAAACGAUAGGACGAAAGUCGAUCCGUGGGCAAGACGAAAGUCCUAACAGAAAUGUAGAAAGUCGCAAAAGAAUACGACGAAAGUCCAGCCUGGAUCAAGGCAAAAGUCGUCAGUGAAAGUGUC'
p228
aF0.8193384223918575
aa(lp229
S'Hard Y and a bit more'
p230
aS'AAAAAGAGACUGAGGACCUAAUGGUCACCGGAUGGUACUAGAUCGAAAGAUCAACAUAUGAAAAAGUAUGAUGUUCCAUCGUCUCAAAAAAAAAAAAAAAAAAAAA'
p231
aF0.9716981132075472
aa(lp232
S'Mat - Lot 2-2 B'
p233
aS'AGGGGCUAGAACUAGGAAGCGGAUGAUCGAAAGGAAAAUUCGCCCUUUCUCUAACCGUGCCAAGGAAACGUACAGGUUGUAAAACGCUGUUUUAAGAAAAGUAAAACUCUCUGGAAAAUCUUCGGCUUCCGGUAUAAAUUGAAAAGAUAGUAGCUAGGAUAUGGGAUUCGGAAAUGAAAAUGGGCCCCUUCCCAAAUGACAUUAGUCUAAUCUUCGGGAUGGAAAAGGUAGAGCUCGGAAAACGGAAACCCAUUGCAAAAUCGUCCCCUGCCUUACUGAACAAU'
p234
aF0.7570422535211268
aa(lp235
S'Shapes and Energy'
p236
aS'AAAAAAGUGUUGCUGGGCAAAGUAGCAAUUGUAAUCUCUUCAAACUCCGAAUAAAAAAGGUUUAAAUAAGCAGAUAUCUUAAAAAGAAAAAAAAAAAAAAA'
p237
aF0.9603960396039604
aa(lp238
S"Spiral of 5's"
p239
aS'GAAAAGAUACAAAGGUAGUAAGAUAGAAAAUAUACAAUGAUAGAAGGAUAGAAGAUACAAAGGAUUCAAAGAUAGAAACAUAGGAGAUACUAUGAUAGAAAGAUAUAAGAUACAAAGAUAGAAGAUACAAGAGACUAGAUACAAGAUACAGAUACAGGUCAGUUGCAAAAAGCAACACGCGUGAUCAAAAAGUAUCAAAAAGUAUCAAAAAGUAUCAAAAUGUUUCAAAAAGUAUCAAAAACUAUCAAAAAGUAUCAAAAAAUAUCAAAAACUAUCUAAAUGUAUCGAAAACUAUGAAAAACUAUCAAAAAGGAUCAAAAAGUAUCGAAAACUAUCAAAAACUAUCUAAAAGUAUAAAAAACUAUCAAAAUCUACCAAAAAGUAUCAAAAACAAAAA'
p240
aF0.9949622166246851
aa(lp241
S'Campfire'
p242
aS'AAAAGGUAAGCUGCCAAUAUCAAAUGGAAAAGCCAUACGGCAUAUGGCACGUGAUAGACGUUACUAAGAUUGUUUAAUCGACAACCAGGAGAAUUCACCAGGUAAUCCGGGGAAGGAAGCGAAAAUUUCACUCAUAUACUCGACAGUCGGCGGGUGUGAGACGCAGACCGAAAGGUCGCGCUUCGUAAAGUCAGCUUCUAAGACUCUAUACC'
p243
aF0.8915094339622641
aa(lp244
S'Anemone'
p245
aS'AAACAUCCCUAAUGGGAUGCUAGGGAAAUCUAGUCCGCGGAAACGCGGAGCAGCAAAGGCUGCCUCACAAAAGUGUGAGCAUGCGAAAGUAUGGUGAAUAAUUUCGCGAGGCGGAAACGUUUCUCUGUCUAAUGAUAGCUAGCCAAAGGGCUGGGGGGUUAAUGCCCCGACGCCAAAGGGCGUCGAGAAGAAAUUCUCGAUUAGGAAACUAAUC'
p246
aF1.0
aa(lp247
S'Fractal 3'
p248
aS'AAAAAGGGCGCACCGGAAAAAUGCGAAACUAGUGCGACUGGGAAACCGUAAAACCUGUCAUACAGGAAAGCCCCUAAUGGGGUAGGCCUCGAAAGCGACGAAAGGUCUCAGCUCGAAAA'
p249
aF0.8991596638655462
aa(lp250
S'Kyurem 5'
p251
aS'AAAAAGACACUAUCAUAAUGGAUUUUAAACGUAGGUCAAAGGUUAAAUGCCGACCCACUAAAAUGUCAUAACAGUCGAAAUGUCGAAAAAAAAAAAAAAAAAAA'
p252
aF0.9326923076923077
aa(lp253
S'Snowflake Necklace ( or v2.0 )'
p254
aS'UAGCGAUAUAUCUAUAGUUACACUAAAAAAGGUCUACAAGAGUCAAAAAGCAGUUAAAUGUAACAAAAAGAAGUAUCACACGAAAAGUGACAUACACUAAAAAAGAAUAAAAAAAAUCAAAAAUCAUCAAAAAGAAUCAAAAGGAAGUAUGAGGUAAAAAACCGGAUUGACUAAAAAAGCGGAAAAACCUAGAAAAGGAUUCAAAAAGAUGCAAAAAGUACAAUCAGGCAAAAAGCCAGAUCCCCUAAAAAAGGUCGAAAAGAAUCGAAAAGUAUCAAAAAGAAUCGAAAAGAAGGAUCAGGGAAAAAGUCGAAUACACUAAAAGAUAUGGAAAACGGUCAAAAAGAGUCAAAAAGAAGCAAAAAAUAGUACCAAUGGAUAUAUUGCUG'
p255
aF0.8200514138817481
aa(lp256
S'Methaqualone C16H14N2O Structural Representation'
p257
aS'AAAAAAAGAUCACGGUAGACAGAUGAAAAUCUGUCAGACGAAAGUCACACAGAUUAAUGUCAGGCGGACAAAAGUCGGACGAAAAAAGUCAGUCAGUCAGACUGUUGGAAGCAACCGAUUAGAAAGUACAGAAAUGCAACAAAAAAAAACCGAGCCAGCGAAAACGUGACAAAAGUUGUCGAAAGACGGCCCCUGAGAUCAAAAGUAGCAAGCGAGUCAGAGGCAGAAAGCACGAAAGUGACUAAGACUAAAGUCACUCAGUAGAAAUACAGAUACGCAAAGGCGACGCGGACAACGAAAGACCACGAAAGUGUGAAGAAAUUCGUCAGGAAGAUCAAACUAAAGAUCAAAAAAA'
p258
aF0.9380281690140845
aa(lp259
S"Cat's Toy 2"
p260
aS'AAAGUGCAUUGGCAAAGUACAGAAAAAAAAAAAAAAAAAAUAGUUAAAGGCAAGCCGAUUGGAAAUAUAAAAAAAAAAAAAAAUCCUGAUGCGAAAA'
p261
aF0.979381443298969
aa(lp262
S'Zigzag Semicircle'
p263
aS'AAAUUUUAGGAUUCAAAAUGCUAUACUAAAUAAA'
p264
aF0.9411764705882353
aa(lp265
S'Short String 4'
p266
aS'AAAAAAACAUUAAGGAUGAGUCAUCAGAGAAAUCUGUAGUAAGUCGUUAGUAAUCUUUCGUUAAAACUCGAAAGGUAAAAAAAAAAAAAAAAAAAAA'
p267
aF0.9381443298969072
aa(lp268
S'Gladius'
p269
aS'GGAAACAAAUAAAGAAGGGAUGGGACAAAACCAAUCAAACUGUGAAAGCAGACUGUCAAGAUCCAAUUUCGUAGCGGAUGAGCAGAGUUUCAUUACAAACAAUACACGACGGGUUAGGAGCAAAGUUCAAAUGAGUUGGAUAUUUAUUGUGUAGGAAUUCGAGACGUCAAGAACGGUAAGGGAGACAGAUAGAGAUAAAGAAACUCUUGAGAGACAGAAGAACGUAAGAUGAGAAAAUAUUGACGUUCGAAGGUCAGGUGCGAGACAGGCACCAAAAGGUGCCAAGUCCAGCACAGGACCCACGAACAGUGAUAUUACUGCAUCAGAAGUUCAAAAGUCAUAAAAGAGAGUGCAAAGGCGCAAGUUCAGGUAAAGGACGAAACAAGCAAAUUAACGAAAG'
p270
aF0.915
aa(lp271
S'Thunderbolt'
p272
aS'ACGGUGUACAAAAAAAACGGCGAGGGGAAAAGCGAAAGAGACAUUUGAAAGAAAAUGGCAAAAAUUCCAAAAAGAAGGAAAAAACUAUGGUUGCAAAAAAACGAGAAAAAAUUUGAAAGGUGGAAAAACGAAAGAGUGGAAAAGACGAAAAAUUUGAGAAAAUAUCUUGAAAAGCGUAGUUGAAACUGAAAAAUUUUAUAAAAUAAAUGAAAAAAAUGAAGUAGCUGGAUAAGCCACACAAGGACACGAAACGUGUCACUGUCCAAAAAAAAAAAGCUCCCUAAAAAAAAGUUGUCAAAGACUCAUGAAAACAAAAAAAAGAAAAAGUGAGUAAGCUUAAAUAGAUGUCAAAAAAAACUCCAAGCGGGAAAAGAAAAAAAUGGUACAAAGUA'
p273
aF0.9183673469387755
aa(lp274
S'Mutated chicken feet'
p275
aS'AAAAAAAAUAUGGUAAAAUGACCAAGGCGAGCAAUAGUACUAGCAAGGUGGAAAAUCAAAAAGCAUGAGGACGAAAUUGUGAAGCGAAAACUAAAAAAAA'
p276
aF0.85
aa(lp277
S'Chicken Tracks'
p278
aS'AAAAAAAAGAGAUAAGGGUAAAGACCCAAGGUUAAAGAAUUAAUCACGUAAGUUGUUAUCUCGACGCAACGGAAUCUUCAGCGAGAAGCGCGAUCACUACAAGCAUCGAAAAAAAA'
p279
aF0.9655172413793104
aa(lp280
S'Looking Back Again'
p281
aS'CGCAGGACGGAUGAAAGGACAGUGAAACUGUCAGUCCAAGAGGAUAAGAUUAUAUCGACAGCUAGAAAGCUGGAAAUAGCGAAAUUAGCAACUCAAGUCAAUCGUGAUAAAAAAAGGCGAAAGUUUUGAAAAAAUCGCUAACGUACAAAGUACGGAUGCAAAGUAUCUAUAUCUAAUGUUUAAGUAAAAGUUGAUCAAAGGAUUUUCACGUCAUUUUUAUAGGAAACUAACUAUAUAAAAUUAGCAUGAGCUAUCACAGGAAAAAUCAGAGAGAAAAAAAAGAUCAAAAAGAUCCUCUAAACUGACCUGCUAGGAAAAAGGGAAAAGAAAACUUGUCAAGACACAAAGAGUAGAGUAUCUCUAACAUCCCAAAACUAGGGUAGACAGCG'
p282
aF0.8791773778920309
aa(lp283
S'Multilooping 6'
p284
aS'AAGCUGUGAGGAUCGGAAACGAUCUGUACAAAGGUAUGCUUGUUUGAACUAAUGUAUGGUUACUAAUGUAAUAAAAUAGGGA'
p285
aF0.926829268292683
aa(lp286
S'Cesspool'
p287
aS'AAAAAGGUAAUUAUAAAACUACAUCUAUGGGGAACGAAUAUUUUACUGGAAAAUUGGAGUUUGAAGAUUUAAAAAGAAAACAAAAAUAAUUUAAUCAAUACAAGGGCGUACUAUGAAACAUUGGAGAAGCCCAAAUUGAAAAUUCUAGGUCAAAGCGUUAAAAAUAAAGAACGACGGAGGUUGAAGAAAACGACUGUAAGGUAAAAAAUUUUAUAAUUUUACGAGUGGAAAGCUACAGUAAUUAUAUUUAAAAAGAAAACAACUUCCAAGCAUGAAGAAAACAAGCGUAGAGAUUGAAAAAGAACUACGUUUCAGGUUCAAAACUUCAGUAUGAAAAUUUAAAAACAAAAGAACUUGC'
p288
aF0.659217877094972
aa(lp289
S'Hoglafractal'
p290
aS'AACUGCGACUGACAAAAGAGCGAAAAAAGUACCGUCAGUUACAAGAGCAAAAAAUGCGGUAGGACAAGGCGAAAGUCGUCAGGCAAAGAUCAAAGAUCAAAAAAGAUCGAUCAUGAAGGUGAGAAGUCAAGGGAGGGAAACCCCUAAGUAAAAGUCGAAACGAAAAAAUCGACUUAGGUAAAUCCAGGACUAGUGUCCCAGUCUAAAACGAGGAAAAAACGCCAGCAAAAAGCACCGAAAGGAGUCUUGAAAAAAUGUAAAAAAGUGAGUUAAUGCGACGAUAAACAAGGUUUAUCAAAAAAAUAAGCCAAAAAUGAUUGAAAAAACCUUAAGGACAAAACUAGGAAAAAUAGAUUAAAACGAAAGCCGAAAAAUCGAGACGAAACGUUUCCAAUCUUAU'
p291
aF0.885
aa(lp292
S'Bullseye'
p293
aS'AAGGACAACCGAAGGUUAAGGUAAAAGACCAAGAGCAAAAAUCGGCAAAAAAAAAAGGAGCAAAGACUAAGAUUAAAAAUCAAUGUCAAACACCCUUAAAAAAAAAUCCAUAAAAUAUGAAGGGCAAGUCUCAAACUAUAUGUUCGAUAAAAAAAAGAGACUCAAAGGUCAUGAUUAAAAAUCUAGAUGAAAGACACUCAAA'
p294
aF0.8217821782178217
aa(lp295
S'Shooting Star'
p296
aS'GCGCCUGGUGCUUAUAAUAGGAGGAGGAGUCAGCGAUGCAAUCAAGGACGACGCCCGACCAUUUAUCAGAGAUGAGAGAGUUAGAGUUAGGUCAAGACAAAUCAGAGAAAUACGAUAUGUCGAGACACGGUGGUCUAUUGAGAGAAAUACCAGCGACGGAUAGAAAUUAUCAGUUAGGCAUUAACAAGAAAACAUAAGUUACACCACUGCACUGCAAACAGUGAGAAACUCACUGAUACACGAAGUAUGGCAGGAUAUACAAAGUAUAUCAGACACUAUGUGUCGCAGGGUCAACGAAAGUUGUAAGUUUCAGAUCAGAUCAAGAAAAUGUGAUACGAUAUAAAUUUGGAUGGACCAAGGCGUA'
p297
aF0.8791208791208791
aa(lp298
S'Teslagon'
p299
aS'AAAAAAUGUAAAAAAUGGAUUAAAGAGUCGCGGAAAAAAAAAAAAAAGGAAAAAAAAAGUAAAAAAAAAAAAAAACUAGAAAAAAAUCCAACAAAAAAUGCAAAAAAAAAAAAAAAGUUAAAAAAGUAGAAAAAGAACUCCGAAAAAAAAAAAAAAAUGAAAAAAAAAGGAAAAAAAAAAAAAAACCAGAAAAAAAAUCGAGAAAAAACUCAAAAAAAAAAAAAAAGGAAAAAAACAAGCAAAAAAAUGUCGAAAAAAAAAAAAAAACGUAAAAAAAAGGAAAAAAAAAAAAAAACCAUAAAAAAAGCAGAUUAAAAAUGUGAAAAAAAAAAUAGAAAAAAAAAAAAAAAUAAACUAAAAAAGGGAAGAAAGAUCGAGAAAA'
p300
aF0.8769633507853403
aa.