(lp0
(lp1
S'Simple Hairpin'
p2
aS'GAUACAAAAAAGUAUC'
p3
aF1.0
aa(lp4
S'Arabidopsis Thaliana 6 RNA - Difficulty Level 0'
p5
aS'GAUAUAUAAGUCACAAAAAAAAAAAGUGGAUAUAUCUCCAUAGAUAUAUAUAUAUCUAAAGAUACAAAAAAGUAUCAGGAUAUAAUAUAUAUCUAUGUGGAUAUAUCAAAUAUAUC'
p6
aF1.0
aa(lp7
S'Prion Pseudoknot - Difficulty Level 0'
p8
aS'GAUAUCAGAUCAAAAGAUCGAUGAUCAAAAAAAAAA'
p9
aF1.0
aa(lp10
S'Human Integrated Adenovirus - Difficulty Level 0'
p11
aS'CUUUGCAAGGCUACGGGUAUCAAAAAAAAAAUGUCGGGAUGAUCCACGGUGAUUGAUCGCAGGAAGUUAUAUAGAAAAAAAGUUAUAUAACUGAAACCCGACACGAAAUUCGAGAAUUCAUAUGCUCGUACCAAAAAAGGAGACGCGACUGAAAAAAAAAGGAUAUUAGUAGAAAAUCUUGUAACGGAGGGA'
p12
aF0.96875
aa(lp13
S'The Gammaretrovirus Signal - Difficulty Level 0'
p14
aS'AACUGUCCAUUGCUAAUGCGAUGUUCUGGAAAAAGACCCCAUCAUUGCCAUAUGAAAGUAUGGAAAGCAAGAUGGUCGAUAGAUUUCAAAAGAGAUCUAGA'
p15
aF1.0
aa(lp16
S'Saccharomyces Cerevisiae - Difficulty Level 0'
p17
aS'AGUAUAGCAUCUAAAAAAUGAUGAGGAAAAAAAAAAAAAAACCGAGUGUUAUGAAAAAAAUAAUCUGUACUAAAUACAUCUGAAUAUCAAAAAAAGGAGGCCCACAAAAAAAAAAAGGGGAGCGGAAUUAAAAAUGUUCCCAAGUGUUAAGUAUUCCCAACCGCGAAAAAAAGUGGGAGAUCGAAAAAAGAUCUCAAGCGUAGCGAAAAAAGCUGCGGGAAUAAAAGUCUGUUCAUAUCCGAAAAAAAGGAUCAAAUUGAAAAAAGGUUUGAAAUUUUACAAAAAAGGUAAAGAACAGGAAAGGAUAUAGAAGAGCAAAAAAAGGUUCGAGAGGAAAAAAGCUUCUUAAGUGAUACUAAAAAUGUAUCCUAUAUCAAAA'
p18
aF0.9894459102902374
aa(lp19
S'Fractal 2'
p20
aS'AAAAUGAUUUAUCGAUGAAUGAAUGGGAGCUCAAAAAAAAAGGAGCAUGAUAUAAAAAAAAUUAUCUAACGUAAAAAAAAAGACGUAACCGUUCAUUCUAAGAUCUAUAUGAAUUCGAAAAAAAAAACGAAAAGAUCAAAAAAAAAAGGUCAAUAUCGAAAAAAAAAGAUGGACAUAUAGAUCAAUGUUGCUUAUCAAGGAUAAAAAAAAAAAUCCAAUCGUAAAAAAAAAAGCGAAAGUUCAAAAAAAAAAGAGCAAGAUAAGUAACUAAGAUGAAUCUAAAA'
p21
aF1.0
aa(lp22
S'G-C Placement'
p23
aS'GAUCAAAGAUCG'
p24
aF1.0
aa(lp25
S'The Sun'
p26
aS'GACAGCUAUGGAAGAUAUCAAGGGCUAAAGUCACAAGUAUGAAGUACCGGUCGACAAGAAAGGAUUAAUAAGACGGAAAUCUUAAAAAAGAGAUAGAUAAGGUUUAAAUUUAUGAAAGAACGACUAUGAAAUAUAAAUGGUUAAAUUCGGACUCGGAGGCCGGAAGUCACGGAACUGAGGGGGUUAAGAGAUAAUCCUAUGAGAACAUGUAUUUAAGAAAUAAAUUGUUAAAAGCGAUAUUGUUAUACAAACGGUGAU'
p27
aF0.7248062015503876
aa(lp28
S'Frog Foot'
p29
aS'AAAAAAAAAAAAUCGAAAGAUUCGUCAAAGGACGGUGCAAAGCGC'
p30
aF1.0
aa(lp31
S'InfoRNA test 16'
p32
aS'AGGAUCAGAGAGGUCAAAAGACCUGCUGCGGAUUUU'
p33
aF1.0
aa(lp34
S'Mat - Martian 2'
p35
aS'GAUCAAAAGAUCAAAACCAUACAAGAUGUAGAAAAAAGCUAUGUCGUAUGGUAAUCAAUAUAUUAAAAAUGUGUAUAGAUAUUUAAAAAAGAAAUAUCAUAUAUAAAAGAGAGAUAUAUAUUAAAAAAAAAUAUAUAGUUUUUCAAAAAUAUAUGUUGUAUGAGGGCUUAUUGUGGAAAAAAUGCGAUGAAAGCCCUCUAUAGGUGAAAGCCU'
p36
aF1.0
aa(lp37
S'square'
p38
aS'GAGGUAUGUAUAGGUAUAUGAACUACGAAGUAGUUGAAACAUAUACAAAACUAUAUAAAGAUGCUUC'
p39
aF1.0
aa(lp40
S'Six legd turtle 2'
p41
aS'AAAAAGCGAGUCGAAAGAAAAUGGAAACGAAAUCGAAAGGGAAAGGAAACUAAGGCGAAAGCAAAGUGAAAGCAAAGCAAAAAAAAAAAAAAAAAAAA'
p42
aF1.0
aa(lp43
S'Small and Easy 6'
p44
aS'UAUCCUAAAUGCAAGAUAAAAAAAUCUAUA'
p45
aF0.8666666666666667
aa(lp46
S'Fractile'
p47
aS'AAAAAAAAAAAAGCAAAAGCAAACCAAAGCAAAAGCAAGAAAAGCGAAAGCGGAUCAACCAAAAGGAAAGGAACAGAAAUGAAAAAAAAAAAAAAAAAAAAAAAA'
p48
aF1.0
aa(lp49
S'Six legd Turtle'
p50
aS'AAAAAACAAAGCCGAAAGGAAAUCGGAAAUGUAAAUGGAAAUCCAAAGUGAAAUUGAAGCCAAAGGGAAAUUGGAAACGCAAAGAAAAAAAAAAAAAAAAAAAAA'
p51
aF0.9619047619047619
aa(lp52
S'snoRNA SNORD64'
p53
aS'GAUAUCAAAAAGACAAAAGACAAAGAUACAAAAAAAAAAAAAGUAUCGAAAGUCAAGUCAAGAUAUC'
p54
aF1.0
aa(lp55
S'Chalk Outline'
p56
aS'AAAAAGGUGAGAUACAAAAGUAAUCAGAUAGAUGAAAGUCAUCAGAUGGCGAAAGCACAUCAGCAUCGAAAGAUAGCCACCAAAAAAAAAAAAAAAAAAAAAAA'
p57
aF1.0
aa(lp58
S'InfoRNA bulge test 9'
p59
aS'GAUAUAUUGAGAGAGAUAUAUGAAAGUAUAUCCCCAUAUAUC'
p60
aF1.0
aa(lp61
S'Tilted Russian Cross'
p62
aS'AAAAAGGUGGAGAGAAAUUAUCAGGAUGGUUAAUGAUGUUUAAAAAAAUAGUCACUAAAAGUAGGGUUGUCUGUAAUGGAGUACCGAAAAAAAAAAAAAAAAAAA'
p63
aF0.8571428571428571
aa(lp64
S'This is ACTUALLY Small And Easy 6'
p65
aS'AAAAAAAAAAAAAAAAAAAAAAAAAAAAAAAAAAAAAAAAAAAAAAAAAAAAAAAAAAAAAAAAAAAAAAAAAAAAAAAAAAAAAAAAAAAAAAAAAAAAAAAAAAAAAAAAAAAAAAAAAAAAAAAAAAAAAAAAAAAAAAAAAAAAAAAAAAAAAAAAAAAAAAAAAAAAAAAAAAAAAAAAAAAAAAAAAAAAAAAAAAAAAAAAAAAAAAAAAAAAAAAAAAAAAAAAAAAAAAAAAAAAAAAAAAAAAAAAAAAAAAAAAAAAAAAAAAAAAAAAAAAAAAAAAAAAAAAAAAAAAAAAAAAAAAAAAAAAAAAAAAAAAAAAAAAAAAAAAAAAAAAAAAAAAAAAAAAAAAAAAAAAAAAAAAAAAAAAAAAAAAAAAAAAAAAAAAAAAAAA'
p66
aF1.0
aa(lp67
S'Shortie 4'
p68
aS'UGGAAACAGCGGAAACG'
p69
aF1.0
aa(lp70
S'Shape Test'
p71
aS'AAAAAGAACUCAAGAUUGAAAAAAAAUAAUCAAGUUAGAUGGACACAAAAAGUGUCAGAUAAAAAUAUCGAUCAACAAGAGUGCAAAAAAAAAAAAAAAAAAAA'
p72
aF1.0
aa(lp73
S'The Minitsry'
p74
aS'GACAAAAAGACAAAAAGAUGAAAGGAUAAAAAAUGAAAAAAAACAUGAUUAAUCGGUCGGUC'
p75
aF1.0
aa(lp76
S'stickshift'
p77
aS'AUGAUAUCUCGAAAAGACGAUAUCUA'
p78
aF1.0
aa(lp79
S'U'
p80
aS'AAAAGGUUACAGAGAUUAGACAUAGGUGUUAAUGCACCUAUGCAACCGUAGCAAAAA'
p81
aF1.0
aa(lp82
S'Still Life (Sunflower In A Vase)'
p83
aS'AAGUCUUAAAGAUCUAAAUGAUCUAAAUCGGUAUCCGGUGAAUGAAUAAAAUAUAAAAAUACCGUAGGUGAAUGUAGCAAAAGGGGAAUACAAGGAAAAACCUAGAAUAAUUAUUUGUAUAUUUAUAUGGGGAUAAAAAAAUUCCACAUGCAAAAAAAAAAAAGCAUGGAAAAAAAAAAAAAAAAAAAAAAAAAAAAAAAAAAAAAGGACAUGAAAAAAAAAAAAAGCAUGUAAUCUAAUGAUUGACAUAUAGAUAUACGAAUGAUUAUGUGAUGCGAAAAGUAUCAAAGUUCGAAAAUGGUUGAAUAACGAAAAGUUAUGAGUAUGGAAAACGUAUAAGUUUCUAAUGAAAUAGACAUGAAAAAUAUGUAGGAGAAA'
p84
aF0.9629629629629629
aa(lp85
S'Quasispecies 2-2 Loop Challenge'
p86
aS'AAAAAGGUCGAUUAAUAGAGAAAUCUGGGGAUCAGAAGGACAAGGGACUUCAGGUAUUUAGUUCGAAAAGAAAGAUUUAUCGGCCAAAAAAAAAAAAAAAAAAAA'
p87
aF1.0
aa(lp88
S'Corner bulge training'
p89
aS'AGAUAUGGAUACAAAGUAUCAAAACAUAUCA'
p90
aF1.0
aa(lp91
S'Spiral'
p92
aS'AAAAGGAGCACUUGGUUCCGAGACGCUGUCAAGUUCAGCACGUGGAGGCGGAGUUAAAUGCCCCCCCCGGCGAACUGGCGCGUCCGGAUUAAGGUUCAAAAA'
p93
aF1.0
aa(lp94
S'InfoRNA bulge test'
p95
aS'AAAAAAAAAAAAAAAAAAAAAAAAAAAAUAUGCAAAAAAGUACAAAGGUAGAAAGACGGAAGUUUCUGUGAAAAACAGGUAUAUUGACGUGCGAGCUCGCACAAGGUAACGAAAAAGUAGUU'
p96
aF0.9672131147540983
aa(lp97
S'Worm 1'
p98
aS'AAAAAAAUAUGCGUGUAGCAGAAUAAAAGAGGAGCGGAAAGAAAA'
p99
aF0.8666666666666667
aa(lp100
S'just down to 1 bulge'
p101
aS'AAAAAGAACAGAUACAAAAGUAUCAGAUGAAAGUCAGUAUCAAAAGAUCAGAUGAAAGUCAGAUGAAAGUCAGAUCAAAAAAAAAAAAAAAAAAAA'
p102
aF1.0
aa(lp103
S'Iron Cross'
p104
aS'GUUUAAAAGAAGACGCGAAAAUCGAGAUUAAUGUCGCUCGAAGCGAAUCUAGUCAAACUAUAUUUGAGACGCAUGCACCUAAAAGGCGUAAAAGAUGAGCAGAAGUCGAGCAAAGUUAAGAAA'
p105
aF0.8943089430894309
aa(lp106
S'loops and stems'
p107
aS'AAAAAGAUAUAUAAUGAUGAAAGUUCAAAGAUCAAAAAAAAAGAUACAAAAAAAAAAAAGUAUCAACGAUCGAAAGAGCAAAAAAAAAAGCUCAAAGAAUGAAGACAAAAAAAAGUCAAACAUCUAGCAAAAAAGCAAAAUAUAUCAAAAA'
p108
aF1.0
aa(lp109
S'Water Strider'
p110
aS'AAAAAUCGGUAUUUAUGAAGCAAAACUAUAUGAAAGUGAAAGGGGGAUCGAUAAAAGUUGAUGAAAGGUAGAUAGUGGCAGGAAAAAAAAAAAAAAAAAAAAA'
p111
aF0.941747572815534
aa(lp112
S'The Turtle(s) Move(s)'
p113
aS'AAUACGAAAGUUAGGGACGUUGUGAAAAAAAAACACGAUGUCAAUGGAGCUAAAUGCUCAGAACUACGAAAGUGAGUUGCGGAAAAAAACGGUAAAAAACCCAGGAAAAAUUAGAGACGUGAAAGCGGAAUGUUUCUAAAAAAAAGAAACUAAAAUAUAAUGAUAAAAAGGUAGUAAAAGCACAAAAACUGCGAAUCGAAAAAAAGAUAAGACAUCAAAAAGGAUGUAAAUGACAAAAAGUCAGAACUACCAAAAAAAAGGAAAAAGCAGAGUAGAAAAAUUAAGAGGCUACGAAAAAAAAAUUACCAGAAACGGU'
p114
aF0.9556962025316456
aa(lp115
S'Adenine'
p116
aS'GAUGCGGAUAUCGGAUAACGGAUGUCGGCUUUCGUCUACCAAAAUAUCUCUAAAAUGAGAUAAGGUGGGGGAUCCAAAGCUAUGUGAAAUAUAGCGGAUCAGAGAGCAGAUAUAUAUAUCAAGGAUAUAUAAAGUAUCAGACAUCAAGAGUUAUCGAGAGAUAUCGAGAGUAUC'
p117
aF1.0
aa(lp118
S'Tripod5'
p119
aS'AGGAGCCAGCGAAAAGUUGGAUCGAAAAGAUCGCUCAA'
p120
aF1.0
aa(lp121
S'Shortie 6'
p122
aS'CUGAAAGGAGAGAAAUCGGCAAAAGCAUCGAAAGA'
p123
aF1.0
aa(lp124
S'Runner'
p125
aS'AAAAAUGGCAGCUCUAAAAGCUCAAACAGCUGAGCAAUUUAUAACAGGCAAAGCGACGCGACACAUUUAUGUAAACCAGUGAGUAAGGGAAACGUAAAGGCGACUCGGUCAGAAAA'
p126
aF0.9310344827586207
aa(lp127
S'Recoil'
p128
aS'AAAAAGAUACAAGCAAGUGAGAUGGGACAAGCAAGCAAAGCAGCAGUCAGUCAGCAGCAGUGUCAAAAAAAAAAAAAAAAAAAAA'
p129
aF1.0
aa(lp130
S'[CloudBeta] An Arm and a Leg 1.0'
p131
aS'AAAAAGAUGGGUACAAAAGUGACCGACAGAAAAAUCGUCAAUCAAAAAAAAAAAAAAAAAAAA'
p132
aF1.0
aa(lp133
S'[CloudBeta] 5 Adjacent Stack Multi-Branch Loop'
p134
aS'GCCGGGCUCUAAUGAGCCAGCCAAAGGGCUGGGUUCUAAUGAACCGUGGUAAUCCACCCGGCA'
p135
aF1.0
aa(lp136
S'Triple Y'
p137
aS'AAAAGUGAUGGAUCUUCGAAAGAAGUCUUUAAAGAGGCCUCGAGGUCACUAAUGUGAGGGUGAAAACCCCCUGAUCAAAAAAAAAAAAAAAAAAAAA'
p138
aF0.9175257731958762
aa(lp139
S'Misfolded Aptamer'
p140
aS'GACCAAAAAAGCUACAAGGUGCAAUAAUCCGGGGGGGGGUAGAAAAGAUC'
p141
aF0.92
aa(lp142
S'Flower power'
p143
aS'AAAAAUAUUUUCAGAAAUAUUUUCGCUUCAAGUAGCCGCGGCAAGGUCGAGAGAUCAAGUCUAGAAUGUAAUAUUAACGAUAAAAAAAAAAAAAAAAAAAAA'
p144
aF0.8431372549019608
aa(lp145
S'Kudzu'
p146
aS'AAAAAGACACGAGUGGACCACACGAAGAAACUUGAUGCUAUGAUUCAACAGUGGUAGCCGGGACGGAAAUCCUCGAGGAUCGAAAAAAAAAAAAAAAAAAA'
p147
aF0.9405940594059405
aa(lp148
S'"1,2,3and4bulges"'
p149
aS'AAAAGCGGGAGAUUCGAAAGGGAAAAACGAUCGAAAGGUGAGACGAAAAACUACAGGUACAUAGAUAAACUAAAGAGCGUCAAGUAAAAAAAAAAAAAAAAAAAA'
p150
aF0.9428571428571428
aa(lp151
S'medallion'
p152
aS'UAUUUCAACAUUUGAAAGGAUGUGAUCAAAGGGUGAUCAAAAGAUAGUACAUAAAGGUGUACAGAGAAACCAUGAUAUUGGCAACGAUAUAUUCGAAAGAAAAUCGAAAGAUUGGAUAGAAAGCUAUUUAACCAAAGGGAAAUAUAUGAAAGUAUAUAGUCAAAAGAUAAGAAAAGUCUUAUAUCUGAAAGGAUAUUGGCAAAAGAUAUUAUAUGAAAGUAUAAAAUUAAAGAAUAGUAAAAAGAUAGUAUAUGAAAGUAUACAAUAAAAAGAUAUGAUAUGAAAGUAUCAGCUCAAAAAAGAGUGCAAAGGUAAUAUCUGAAAGGAUAUAGAGAUA'
p153
aF0.9109792284866469
aa(lp154
S'[RNA] Repetitious Sequences 8/10'
p155
aS'AGCAAAAAAGCAAAAAAGCAAAAAAGCAAAAAAGCAAAAAAGCAAAAAAGUAAAAAAACAAAAAAGCAAAAAAGCAAAAA'
p156
aF1.0
aa(lp157
S'Documenting repetitious behavior'
p158
aS'AAAAAAUACAAAAAAAAAUCAAAAAAAAAGUAAAAAAAAAGCAAAAAAAAUUAAAAAAAAAAUCAAAAAAAAACCAAAAAAAAAGUAAAAAAAAGGAAAAAAAAAAACAAAAAAAAAGUAAAAAAAAAUCAAAAAAAAAGCAAAAAAAAGGCAAAAAAAAGGAUAAAAAAAACCAAAAAAAAGGGAAAAAAAAAGAAAAAAAAAAUCAAAAAAAAACGAAAAAAAAAGCAAAAAAAAUGCAAAAAAAAAGCAAAAAAAAAGUAAAAAAAAAGCAAAAAAAAAGCAAAAAAAAAACAAAAAAAAAUCAAAAAAAAGGAAAAAAAAAAGCAAAAAAAAAGGAAAAAAAAAUGUAAAAAAAAUCAAAAAAAAAGCAAAAAAAAAGAAAAAAAAAAGUUAAAAA'
p159
aF0.96
aa(lp160
S'7 multiloop'
p161
aS'GCCCCAGACGAAAGUUUGCGUUGAAAGCAACGGACGGUAAUUCGUCGAUGCGAAAGCAUCCAUAGGAAACUAUGGGUAGGAAACUACCGGGU'
p162
aF1.0
aa(lp163
S'Kyurem 7'
p164
aS'AAAAUGCGCAACUCCUGAUGUCAGGAAAAUAUUAGUCAAAAGGACGAUGAACUAAAAAGUUAAAUGGUAAACUGCUAAGCGUUAAAAAAAAAAAAAAAAAAA'
p165
aF0.9215686274509803
aa(lp166
S'JF1'
p167
aS'AUACGAACUUGAGCACUAAGGCUUAAAAGAUAUCAAGAUACAAAGAUACGGGUUACAAUUAUAUACGUAUAUGAAAGUAUGUGUAUAUAGAAGUUGAAAGACAAUACUUAGCUAAUGUUAAGUAUAAAGCUCAAAAGAGCUGUGUAACGGUAUCAGUGUCAGAUAUCGAAGAUAUAUCAAAAAGAUAAUGUCAAGAUAUUUAUCCGUAUAUGUAUAUGAAAACAUAUACAUAUACGAGAUAGAUAUCAAAGAUGAAGAAAAUCGUCGAUAUGUAUAAAAAUAUACAUAUCAACACGUAAAAGCGUAAAGGUCAAGGUGCAUCUUAGAUAGAUGAAAGUCAUCAGGAAGAUGGAUAGGAAAUUAUCGCAUCACAAGAUUCAGUAUGCA'
p168
aF1.0
aa(lp169
S'multilooping fun'
p170
aS'GCACUGGACACAGGCCGAAACACAGACAAAAACGGU'
p171
aF0.8333333333333334
aa(lp172
S'Multiloop...'
p173
aS'GGGCAGAUCUUACGAAAGUAUGCUAAAGAGCAGCCGAAAGGUAGAUGAAAGUCAGUCACAAGACGGGUGAAAACCAGAUCGGAUACAAAAAAGUAUCCACGAAAGUGGCCC'
p174
aF1.0
aa(lp175
S'hard Y'
p176
aS'AAAAUGAUUGACACUUAUUUAAAGGAAUAGGAUUUUAUGUAUUUUAAAGAAAGUAUAUAAAUCUAAAA'
p177
aF0.9705882352941176
aa(lp178
S'Mat - Elements & Sections'
p179
aS'AAAAAGAGCAAAGAGAAAUCAUUACUGCGGAGAUCAUUGGAUGAAAGUCAACGGAUCGACUAGUCAAUAGGAUUGCAAGUGGCUCGAAAAAAAAAAAAAAAAAAA'
p180
aF0.9619047619047619
aa(lp181
S'Chicken feet'
p182
aS'AAAAAGCACGAGCACGGUAGUGUCGCGAGCUGCAAUAUUACUGAAGGAGGAGGGUCAAGCAUGAAAA'
p183
aF0.7910447761194029
aa(lp184
S'Bug 18'
p185
aS'AGCGCCAUCAGCAGAGAACGACCAAAGGAACGACUAGCAGGAAGGGAAAAGCA'
p186
aF1.0
aa(lp187
S'Fractal star x5'
p188
aS'AAAAAGUAUAGCUAAGAUCGAAAGAUCAAAUAUGAAAGUAUAAAUGGGAAAUCAUAAGGUGAAAGUAUCGGAGCUGUAUAAAAAGUGCGUACAUGAUAAAAAUAUCUGAUGUGAAAAUAUAAAUAUGAAAAUGUGAAGAAGAAAUUCUAAGUAUGUACAAAAGAUAUUGACAAGGUCAAAAGAUCAUAUAUGAAAGUAUUAAUUAGAAAUAAUAAUUGUGAAAGCAGGAGUCGAUAUAAAAAGUAGAUUUUACAUCAAAAGAUGAAAUACGAAAGUAUAAUUUUGAAAGAAGAAAGACGAAAGUUUAUAAGUUUAUAAAAGGCAUAUAUAAAGUCGAAGGAUUAACUUAGAAAUAAGGAAGAUGAAAGUUUAAGGUGGAAUCGCUAAAUAUAUGCAAAAA'
p189
aF1.0
aa(lp190
S'Crop circle 2'
p191
aS'UCAAACUAAAGGAGAAAUCGUAAAAAAAAGUUAAAAAAAAAAAAAAAAAAAAAAAAAAAAUGCAAAAAAAAAAAAAAUCCUAAAAAAAAGCAAAAAAGAGAAAUGGAAAA'
p192
aF0.9636363636363636
aa(lp193
S'Branching Loop'
p194
aS'GGUUUGAAAAACUAAUAAUGAAAAUUGGUUGAUAUAAAAA'
p195
aF0.95
aa(lp196
S'Bug 38'
p197
aS'UGAUGGUAGUAUUAGAAACGGGGGUGUCCUAAAUCU'
p198
aF0.9444444444444444
aa(lp199
S'Simple Single Bond'
p200
aS'AAAAAUUUAAAAAAAGGACGAAAAAUGUUAAAAAAAAUAUAAAAAAAAAAAAAAAAAAAAA'
p201
aF0.9672131147540983
aa(lp202
S'Taraxacum officinale'
p203
aS'GUAGAAAAGAUAUAAUAGGAAACAUAUGAAGCGAAAGACUUACACCAAAGGAAUGGAGGCGAAAGACCUGUGUAAAAGUAAAUGGAGAUCUAGUUGAUAUAUAUAUAAGAUAUGAUAUAUCAGAUUAAAUUAUAUAUAUAAGAAUCUAGAAUAGAUUCAGUAUAUAUGAGAUCAGAUAUCGAAGAUAUCGAUCUAAUCGAAAAUUGGGUCUUAGGAGAAAACAACCAGAUGUAAUCAAUCGAGCAAAAGUAGUCAAUUGUAAACAGCUAGAGGAAAACACUC'
p204
aF0.8865248226950354
aa(lp205
S'Headless Bug on Windshield'
p206
aS'AUAAGCAAAAAUCAUCAAUGCAUAUAAAAAAAAAAAAAAAAAAAAAAAAAAUGAGAUGAGGUAAGAAACCAUAGGAGAAGAGAACUACAAAAAGCAAAAGCGAAAAAGAGCUCGAAAAACUCUGACACAAAAAAAGAUAUGUUCGAUAACUAUACAAAAAAAAAAAAAAAGUAGGAAGAAUGUGAAUGUCGUGUAAGUCG'
p207
aF0.98
aa(lp208
S'Pokeball'
p209
aS'AAAGGCACUUUAAAGCAUAGGGGCUUACCACUAGUGGAUAUGGUCAACCAAUGGAGGCAAUCUUAGGCGAGUGUCAUAUGCGAGUGCCAAAAAAAAGAUAUAUAAAAUUUACCUCGCCAAACGUGUAUAUUUGAAUCCAUCGAAACGGGGUGUCUGUUGCUGGUAGGCUGUUCUAUAUAUCAAA'
p210
aF0.8913043478260869
aa(lp211
S'Variation of a crop circle'
p212
aS'AAAAUCAAAACGAAAAACUAAAACAGUAGGUACAACAAAGGAAAAUCCAAAAUGCAAAAAAAUGAAAAAAAAAGGAAAAAAAAAAAAA'
p213
aF0.9545454545454546
aa(lp214
S'Loop next to a Multiloop'
p215
aS'AAGAUAUAUUUAAAAAACGGUAUUUGAAAGAAUACAGAUAUAGGAAACUAUAUCGGGAAAAAUAAUAUAUCAA'
p216
aF1.0
aa(lp217
S'Snowflake 4'
p218
aS'AACGUAUAGUAUAUGGGUGAAAACGUAACAUACUCCGGAAAACCGAAACGUGCGAAGUACCAAUAUGAAGUACGUUUAGAAAAAGCGCAGUUAGAACCGCAAAAGCGAAUCUAGCAAGGCUAAAAUAUAAGAUAUGAUUCCCAAAAGUGGUUCGAAAUACGCGAAAGUGAUGCUAUAAACUAUUAAAUAUGAAACCAGUGUCGGAAAACCGCCCUAUGGUACGCCAAAUUGAAGCUUGGAAAGGGGAAAUAUAAAAGCUGCUUCGCUAAUGCGUACCUAGUUUUUUGAAAGAUACUUCCUCAAAGAGGAAUUGUGAAACAAAAGCCGGAAAAGCACAUCAAGUUGCGCUAAUGCCUAUAGGCUGAAAGUC'
p219
aF0.7810810810810811
aa(lp220
S'Mat - Cuboid'
p221
aS'AAAACAAAAUCAAGCAAAAGCAAGCAAAAGAAGCAAGCAAAACCUAGCGAGUAAAAGAAGCCGAGAACCAAAAGCAAGCAAUGAAGCAAAAGCAAGCAACCAAGCAACUAAAAGCUCUUCACUGCCUCAGUAAAAGCUCCACACUCGCUCAACCACUAAAAGCGUCACACUCAAUGCCUCGAUAAAAUCUACUCCGACUCUCCCUCGUUAAAAAGAGAAAAGAAGUAUUUAAGCGAGACAAAGGAAGGACGUAAGCAGUGGGAGUCAAGAAAGCAUGCGGUAGGAAGGAAUGAAGCGGUGGAAGCAAGGAAGUAAGUGCAACAAAGCAAGUGGAAUUAUGCAAGUCAAGCAUGGCCAAGCAAGGCAAGCGCGAGAGUAAC'
p222
aF0.8552631578947368
aa(lp223
S'Misfolded Aptamer 6'
p224
aS'AAAAAAGCGAAAAAAUAUCAACAGAGUAGAAAAAAAGCUGACGGGGAAAAGAUGAAAAAAACGCGAAAAAAAAAA'
p225
aF1.0
aa(lp226
S'Snowflake 3'
p227
aS'GACCCAAAAGGAGGCGAGGAAAGUCAAGAUUAUAUUAAACUGAAAGGUGACAAUGAAAGUCUGAAAUAGAUGAAAGUGGUCGAUGAAAGUCAAAAUAGGAUCAAGAUGAAAGUUGACAAUGAAAGUAUAAAAUAUCUGAAAAAGGUGGAUGAAAGUCAAGAUCAGAUCAAGAUGAAAGUCGACAAUGAAAGUAUGAAAUAUAUGAAAGUGGUCGAUGAAAGUCAAGAUCAGAUCAAGAUGAAAGUCGAAUAUGAAAGUAUCAAAGAUAUGAAAGUUUUCGAGGAAAUUCAAGAUCAGAUCAAGUUGAAAGACAACAAUGAAAGAAUGAAAUAUAUGAAAGUGGUCCAUGAAAGUCAUGAUCAAAUCAAGAUUAAUAUCGCCGUUAAAGGAGUC'
p228
aF0.811704834605598
aa(lp229
S'Hard Y and a bit more'
p230
aS'AAAAAUGUUAUUCAGAUUAAAGAAUACUAAGAACUGGCAAAGUCGGAAGAUUGAGAUUCUAAAAUGAAUCAAGCAAGUUGCGAUAAAAAAAAAAAAAAAAAAAAAA'
p231
aF0.9716981132075472
aa(lp232
S'Mat - Lot 2-2 B'
p233
aS'GGAUUUAUCGAACCGUAAAACUGCCUACGAAAGUAAAAGCCAGUACGAUUAACAUGUGGAUGUAGCAAGGUGCGGCGACGAAAUCCUUCAUCUCAUAAAAGCGAAAGUAUGAGAAAAAUGCUGACGCAGUGCUAGUAAGUGAAAGCGAUAGGCUGCCGAAAAGCUGCUGCGAAAGCAAAAGGAGGCCGUAAUAAAAGUGGGCAAGUGCAACGAGUCACGCCCAAAAGUGCCUAUCACUAAAAGAGAAAGUAGAAAUAAAAGGCAAUAGCAAGGCAUCAAAAAAC'
p234
aF0.7887323943661971
aa(lp235
S'Shapes and Energy'
p236
aS'AAAAAUGUUAUAGGAGCAAAACAAAAAACUGAAAGUUAUUAGGGGGCUCGUGUCCGAGAGUACGAAAGUACAAAUAUAUCUAAAAAAAAAAAAAAAAAAAA'
p237
aF0.9603960396039604
aa(lp238
S"Spiral of 5's"
p239
aS'GAAAUGAUACAAAAAUACAAAGAUACGAAACACACGAAGAUACAAAUAUGCAUGAUAGUAAAUAUACAAGGAAUCUAAGACACAAGUUACAAACAAACAAACAGACGGAAUACUAAGAUACUAGUUAGAAGAUAGAAGAGACAUGUAACUGAACCGAGGGAAUAUGUAAAUCAUGUGGGGGUCCCUAAAAGGGUUCUAAAAGUUGCUAAAAGUUUCAAAAACUAUCAAAAAUUAACAAAAUGUAUCAAAAUGUAUUAAAAAGUCUGAAAAAGUUUGCAAAAGUAGUGAAAGGUAUCAAAAUGAUUCAAAAAGUAUAAAAAUCUAUCUAAAGGUAUGAAAAAGUAUCAAAAAGUGUGAAAAAGUAUCAAAAAGUAUUAAAAAGUAUCUAAAGUAAAAA'
p240
aF0.9949622166246851
aa(lp241
S'Campfire'
p242
aS'AAAAGGAAGGUAGCUAAGUUGAAGGUUAAAAGAACCGAUAAUAAGGAUAACCUGACGGGGAUAGCAGCAGAUAUGAAAGUAAUCGCGUGAUCCGGCAGCGGCAAAGGUUCGCGAGCACGUGAAAGCAGGACUCAAGUAGUUGCUAUACGUCAGGGCUUACAGGUAUAUCAAAAGAUGACCGUAGUUAGAAUGAAAACACUAGACUGUCUUCC'
p243
aF0.8066037735849056
aa(lp244
S'Anemone'
p245
aS'AAAUAGGACAAAGGUCUUACGGGGGAAACCUCGGAGCUUAACGGAGCUCCCCACAUAGGUGGGCUCAUCUAAUGAUGGGGCUAGAAAGCUAGCGAGACGAAAGUUUCCCUAUCGAAAGGUAGGAACUUGGAAACAGGUGAUAGGGACAUUUAUCCACGGGAAACUGUGCCUAAUGAAAAUUAGGGUUGCAAAGGCAACGAUUUAGAAAUAGAUC'
p246
aF1.0
aa(lp247
S'Fractal 3'
p248
aS'AAAAACCAGCGCCAAGUAAUCUGCGAAAGUGGGCAAAUUGGAAAAUCAUAAAGAUUGUUACACCUGAAAGCGGGGAAAGCAGUGAGACAGGAAACCUAUGAAAAUGGUAAUUGGAAAAA'
p249
aF0.8907563025210085
aa(lp250
S'Kyurem 5'
p251
aS'AAAAAGAUUUAGGAUAAAGUACUAUAAAAGGUCGGUUAAACGUGAAAAGCGGUUCCUUGAAAAAAGGAGACGAUGCUAAAAAUUAAAAAAAAAAAAAAAAAAAA'
p252
aF0.9230769230769231
aa(lp253
S'Snowflake Necklace ( or v2.0 )'
p254
aS'GAGAUUUUGAUAUAUUGAUUCGAGGAAAACUAAUGAAAAAUGAUGAAAAAUACUUAAAUAGAGCAAAAAGCGGAGUCAGAGGAAAACUCAGAUACGAUGAAAAAUAAUGAAAAAUGGAAAAAACCUAGGAAAAGUAAAGAAAAAUAGCAUCAGAUUAAAUAACAGCUACAAUAAAAGAUGGCAAAAAGCAGUGAAAAAUAAAGAAAAGUAAAGAAAAUUGGUAGCACCCGAAAAGGGAGCUACUAUGAAAAAUUUCUAAAUAAAGCAAAAAUCAGAAAAAAGCUAUGAAAAAUUGUAUCAGAUGAAAAGUCAAAAUCAAUGAAAAAUGGUGAAAAACAAUGAAAAAUAAUGAAAAAUAGCUAAAUGCAGAUUUUAUAUAUUGAAAUUUC'
p255
aF0.8406169665809768
aa(lp256
S'Methaqualone C16H14N2O Structural Representation'
p257
aS'AAAAAAAGGUCACAGCUGACAGUUGAAAGGCAGAAAAUCAAAAAAUACACGGUUUAAUAAUAGGCAAUCAAAAGAUAGUCCAAAAAAGACGGUCAGUCAUUCAGGCUUAAAGAGCUGAGUCCAAUGAAAGCAAAGCUAUGCAAAAAAAAGUUAGCACAACGAAAGACUAUGAAAGUACAUGAAAUUUUUCAUAUAAGCUCAGAAGCAGACGGACACCCAAUAAGACGAAAGACGAAAGUCAGUCAAUUGAAAGAUUUAUAGAUGAAAAUCAGGGAGAUGAAAAUCAGUCACACCAUUAAUGUGUGCAAAAGUAAACAUAAUUGUGUGAAGCAGAGCAAGGGACAGACCAAAAAAA'
p258
aF0.8788732394366198
aa(lp259
S"Cat's Toy 2"
p260
aS'AAAAGGUAUCUCGAAAUCUAAAAAAAAAAAAAAAAAAAAGUAUGUAAGGAAAAAUCAAACCAAAAGAGCAAAAAGACUAAAAUGAGGGGUACCAAAA'
p261
aF0.9381443298969072
aa(lp262
S'Zigzag Semicircle'
p263
aS'AAAACGCACGGCAGAAAAGGAUACAGUGCGGAAA'
p264
aF0.9411764705882353
aa(lp265
S'Short String 4'
p266
aS'AAAAAAUAACGUACCUUUGAUUACUAGCGAAAGUAGAAGUAACAUCUAAUGAAUAUGGGGGGGAAGAUGGACCGUCGAAAAAAAAAAAAAAAAAAAA'
p267
aF0.9381443298969072
aa(lp268
S'Gladius'
p269
aS'GGAAACAAUGGGAGGGAGAAGAGAAGCGAGAUUGUCAAAGAUCAAAAGAUCAGAUUCAAGAGAUAAGAGAUCAAAAUAUCAAAUGAUAUCGGCGAAAUGAGAUUGAGAUCACAUCAAGAUCAAAGAUCAGAUAGGAUCAAGAUCCAAUUUCCAUGAUAUCUAUAGAUAAAUAGAUCAACAGUCAACAGAAUCGGACAAAAAUGGAAUAAGAAGAUGUAAGAUCAGGAGAUUAAAAGAUAUAUAGUAUGUAGAUACACUAUUUAGAGGGAUAUCAAAAGAUAUCAAGUCAUAAUAAGGUAUACAUAUAACAUAUAUCAUAAGAUCAAAAUAUCAGAAAUCAAGAUAUUCAGAUCAAAAGAUCAAAAUUUGUCAAAUAACAUAACAAAUAGUGAGACAAAAG'
p270
aF0.89
aa(lp271
S'Thunderbolt'
p272
aS'GGAAGAUAAAAAAAAAAGAGCAAACCGGGGGCGGAAAGGGAUAUCUGAAAGACGAUGGAAAAAAAAGAUAAAUUUUUAAAAAACCAAAACGACUAAAAAAGGAAAUAAAAUUAAUAAGCUGUUAAAAAUAAAAACCAUUAAAAAUACAAAAGGACCCAAAAAUGGGAGCAAAAAGUGAGAUGGAAGGGAAAAGUGGGACCGAAACGGAGGAAAAAAAUAGCUAUCCAAAAAAAGAUGAGGGGGAUGUGAAGUAUAUGAGGAGGCAAAAAAAAAAGAUCAACAGAAAAAAAUGAACAAAAGAAUUACAAAAAGAAAAAAAACAAAAAGUGAUUAAGUAGGAACAGAUAUCAAAAAAAACGGUAAGUACAAAAAUAAAAAAAGAUUAUCAACCA'
p273
aF0.8877551020408163
aa(lp274
S'Mutated chicken feet'
p275
aS'GAAAAAGGCGGCUGUAAAGCUCCAAGCCAAGGUGCAGCAGAGGCAAAGCUGCAAAGCUAAAGGCAGAACAUUAAAAUAUUCAAAGAUAAGAUCAAAAAAA'
p276
aF0.88
aa(lp277
S'Chicken Tracks'
p278
aS'AAAAAAAAGAUAUACGUUCAAAAGAACAAGAUCAAAAGAUCAAGAUCAAAAGAUCGUAUAUCAAGAGGAUCAAAGAUCAAGACCAAAGGUCAAGCCCAAAGGGCCUCAAAGAAAAA'
p279
aF1.0
aa(lp280
S'Looking Back Again'
p281
aS'CUGCAGGAGCUCAAAAUGAUAUCAAAGAUAUCUGAGCAAGAGCAUAAGAUGAAAUCUUGGCAAACAAAGGUCAAAGCAUCCAAAGUUUGAAUUCAAUCCAAGUAGGAAAAAAAGAUAGAAAGCUAUCAAAAAAUUCGAUGCGUAAGAAAUUUGCGGGAUAAGAUCUGUACACCUCAAACACAAGUCGUUGUCGUUCAAAAGAACUGCAGUUCGGCGGGAGAUGAAAGUCAAAAUGUGAAAGUGUCCUACAGAUAGAAUAGAAAAAAGUCCGAUAAAAAAAAGCCCAAAAAGGGCAUCGAAUGGCAAUAUGUACAAAAAAGCGUCAUCUAAUGAUGACAAGAGUAAAAUAAGAUACAAAGUAUCGAUACGCAAAACUGCCUAUCAAGUAG'
p282
aF0.8740359897172236
aa(lp283
S'Multilooping 6'
p284
aS'AAGCUUAAGGCCGACAAAGGUAGGGCGCUAAAGAGCGCCUUCUUGAUCCGAAAGGAUCGCGGGAAAGCUCGCGGGACAGUGA'
p285
aF0.926829268292683
aa(lp286
S'Cesspool'
p287
aS'GAAGAAUGAAAGAAACCUACUGAGAUGAAAUCCACUAGGGGAUAUAGCUAAAAGGUCUAGACAAAAGCUCAGAGGGAAAACAACAGCAGAGGUCAGAAAAUUAAUUGGCGGGGUCGAAAACAACAAGCAGAUGAAGAUAAAAAAACAAGAGAAAACUACAGAGAGAAAACGGCAAUAAGCUCGAACUAACCGUUUAGCUACAUCUGCAAUCAAGAAGCACAUUAAUGCAAAAUAUAAAGUCAAAAUCACAGACUGAAAAAAGAGCGCAAACUCGUAGGAAAUAAAUAACCAGGCAUGAAAACAACGAGAGGAUAAAGAGAAAACGACACGCCAAAAGGAGAGAAAUAAAAGAUCUGGC'
p288
aF0.6536312849162011
aa(lp289
S'Hoglafractal'
p290
aS'AACGGUUAUAUAUAAAAUGUUCAAAAAAGGACGAUAUAUAGGAAAGAUAAAAAAUAUCUCUAGUGAAUAUGAAAGGGCACGGUCAAAGGCCAAAUGUCGAAAAAGACAGCCCGAUAAUAUGAAAAGUAAACGGCGAAAAAGUCCAAAACAAAAGCGGAGAUAAAAAGACCCGCGCAGCAAAAAGUGCAUCGUAAGGCAUGAUCGAAAGCCGGCAAAAAAGUUCGAGAAAACCGCACAAAAGUUGAUAGAUAAAAAGGUAAAAGAACCGGAAAAAUUAAACUGUUGCUAUGUAAUAGAAAAAAUUCUAUCUAAAAAGGUAAAAAAAAUUUGAAAGGCGAAACUACAAAGUGAGGAUGAAAAGCGAAAGCCCGAAAGGUACGUCAAAGACGUAUCAUGUCUC'
p291
aF0.8475
aa(lp292
S'Bullseye'
p293
aS'AAGCUGCAUCAAAGAUCAUUAGCGAAGCUUUAGACAGAAGGAUCAUAAAAAAAAAUGUGCAUAUUGUCAAGGUCAAAGACCGAUAUUAAAAAUGAAUGAAAAAAAUUUCAUCAAAGAUCAACUACAAAGUAGAAGAACUAUGCUUAAGAAAAAAAGCCUGAUAAAAGAUCAAUCCUAAAGGGGAAGAUCAAGGAUCAAGAAA'
p294
aF0.8267326732673267
aa(lp295
S'Shooting Star'
p296
aS'GUUGUCGAUCGAAAUACAAGGAGUCCCGCAUAGAUAGCAAAAGACAAACAUCAGAGCGACAAGUAUUUUAGAGGUUCCAGUGUGUGAUAGAUGCAGUUAGGUCAGCAAAAGACGACAUAGCGACAUACAUCUUAGCGCGCGAGAAAACAGUCUCAAUGCUUGGAAACCAGGAAGAGGAAACAUCCGAGAAAACAUGUAUCAAAUAAGUUGAAUAUGGGGUUAUAUGAAAUAUAUCAACAUCUAUGAUGUAUAUGAUAUAUGGAAUAUAACACGAUCAAACAUAUCAACGUAUAAAAAAAUAGCCAAGUCCAGAGAUAGAUCAGGGAAAGACGAUACAUCACAAGCGCAAGUAAUACAGACAGCA'
p297
aF0.7307692307692307
aa(lp298
S'Teslagon'
p299
aS'AAAAAAUCAAAAAAAUCUUUAAAAAAAGCUACGAAAAAAAAAAAAAAGUUAAGACUGUGGAAAAAAAAAAAAAAGUAGGUAAAAAAAAGAGCAAAAAAAGCAAAAAAAAAAAAAAAGCAAAAAAGGCUGAGAAAAAACCAACGAAAAAAAAAAAAAAGAGAAGAGUUUGCGAAAAAAAAAAAAAAGUUGGAAAAAAAUCUGAAAAAAAUGCAAAAAAAAAAAAAAAGUUAAAAAAUUUGAAAAAAAAGCACCAAAAAAAAAAAAAAAGGUCAGAGUAAGCAAAAAAAAAAAAAAAGUGGCAAAAAAAUAAGGAAAAAAAUCAAAAAAAAAAAUUCAAAAAAAAAAAAAAAGAUGAGAAAAAACCUGAAAAAAAAGUAGAAAA'
p300
aF0.8717277486910995
aa.