(lp0
(lp1
S'Simple Hairpin'
p2
aS'GAUACAAAAAAGUAUC'
p3
aF1.0
aa(lp4
S'Arabidopsis Thaliana 6 RNA - Difficulty Level 0'
p5
aS'GGUAUAGAAAAGUCUAAAAAAAAAUGACGGUAUAUCGGUAUAUUAUUAUAACAUUAGAAAGAUACAAAAAAGUAUCACUAAUGCUUAUAAUAAUAUGAAGAUAUACCAACUAUACC'
p6
aF1.0
aa(lp7
S'Prion Pseudoknot - Difficulty Level 0'
p8
aS'AAGGUCAGAUGAAAACAUCGACACUUAAAAAAAAAA'
p9
aF1.0
aa(lp10
S'Human Integrated Adenovirus - Difficulty Level 0'
p11
aS'UGUGGAAAUAUAGCGGGUAUGGAAAAAAAAAGGAUCCAGAACGGCCUUAGGAGUCGUAAAAGGAGAGACUAUCAUAAAAAAUUGGUAGUCUCAAACUCCACGACAAAAUCCCCGAAAUUUCUGCAUGGUAUGGAAAAAACAUACCGAUCAAAAAAAAAAAAUAUACCAGCUAAAAAUAUUUCAAACACAAAA'
p12
aF1.0
aa(lp13
S'The Gammaretrovirus Signal - Difficulty Level 0'
p14
aS'AAGAGGGUGGAUGAAAACAUCCGAACGCAAAAAAGAUGAAUUCAGAUCCCGAGAAAGUUCGGUAAAGGUCGAACGUCAAGGUAUAUGGAAAUAUAUACCAA'
p15
aF1.0
aa(lp16
S'Saccharomyces Cerevisiae - Difficulty Level 0'
p17
aS'ACGUGUCUUGCUAAAAAAGGUAGUUGUAAAAAAAAAAAAAUUAUAAAGAGACAAAAAAGGUUUCGACACGUAAAGGCGGUCCAAGAGGAAAAAAAGCCUCCCCUAAAAAAAAAAAUGGGAAAACAGACAAAAAAAGUUUGGGAUUGUAAAAGGGAAGUAAGUGGAAAAAAAACCGCCUGGUUUAAAAAUAACUAGAAACCGUUCAAAAAAAGAACGAUUUCUCAAAUGGUACGGAAGACAAAAAAAAGUGUCCAGGAGGAAAAAACUUUUGAAAAGAAACGAAAAAAGUUUCCUGUAUCUAAGGUCCUACCAGAUGUAAAAAAUCAUCCAGGAUAAAAAAGAUCCUGAAAAGAGUCAAAAAAAGACUCGUAGGACAAAA'
p18
aF0.9894459102902374
aa(lp19
S'Fractal 2'
p20
aS'AAAAUGGCUUAUCAAAGAGAUGAUACAAGAGGAAAAAAAAAAUCUCAAUAGCGAAAAAAAAAGUUAAAGAUGAAAAAAAAAACAUCGAGUAUCGUCUCAAAGAGAUGCUAAAAGAGGAAAAAAAAAACCUCAAGAGGAAAAAAAAAACCUCAAGAUGAAAAAAAAAACAUCAAUUAGCAUCUCGAAGAGAUGAUUAAGGAGGAAAAAAAAAACCUCAAGAGGAAAAAAAAAACCUCAGCUCGAAAAAAAAAGCGAGAAUAAUCAUCUCAAAGAUAGGCCUAAAA'
p21
aF1.0
aa(lp22
S'G-C Placement'
p23
aS'AAGCUAUGCUUA'
p24
aF1.0
aa(lp25
S'The Sun'
p26
aS'GGCAACAUUGCAAAGCAAAAUGUGUCAAACUUCCGACAGCUAUGGUGCAUCGGAGAAUGACAGGAAUGCAAGGCAUAAUCCAUCUAACUCAGGAGAGCGAAGCUCAAACCCAGGAACUGAAGACACCUAUGGUGAAUCACAGGAGCAAAGGAUAGGUAUCCUAAAUCGGCGAAAUUCAAGGUCGCAAAGCUAACUCCGAAAAACUCAGGAUAUCAAAGAUAAAUCUGAGAAACUUAGGAAAGUAAGUUUUAAUUCGAG'
p27
aF0.8178294573643411
aa(lp28
S'Frog Foot'
p29
aS'AAAAAAAAAAGUUGGAAACAACCUGUUAAUGCAGCGCCGAAGGCG'
p30
aF1.0
aa(lp31
S'InfoRNA test 16'
p32
aS'GGUAUGUCUACAGGAUUAUUUCUGAUACGUCAUACC'
p33
aF1.0
aa(lp34
S'Mat - Martian 2'
p35
aS'GCGGAAAACUGCAAAGGUAUAGAAGGUAUAGGAAAAAACUAUACCCUAUACUAAAGGAUAGAGAAAAAAGGUAUAGAGGUAUAGAAAAAAACUAUACCCUAUACUAAAGAUAUUAAAAUAUCAAAAAAAGAUAUUUAUAAUAUCAAAAAACUCUAUCCAAAGAAAUAAUAAUAUCAAAAAAAGAUAUUAAAUUAUUUCGAAGCUCAAAAGAGC'
p36
aF1.0
aa(lp37
S'square'
p38
aS'GGUAUACCAGAUCCAGAUGCCAGAUGAAACAUCUGAAAAGCAUCUGAAAAGAUCUGAAAAGUAUACC'
p39
aF1.0
aa(lp40
S'Six legd turtle 2'
p41
aS'AAAAACCAAAGCGAAAGCGAACCGAAAGGAAACCGAAAGGAAACAGAAAUGAACCCGAAAGGAAGCCGAAAGGAAAGGAAAAAAAAAAAAAAAAAAAA'
p42
aF1.0
aa(lp43
S'Small and Easy 6'
p44
aS'UCGCAGAAAAUGUUACGAAGAAAAAGUCGA'
p45
aF0.8666666666666667
aa(lp46
S'Fractile'
p47
aS'AAAAAAAAAAAGGCGAAAGCAAAGCAAAGCGAAAGCAAUCAAAGGAAAACCAAGGAAAGAGAAAUCAAAGCAAGCGAAAGCAAAAUAAAAAAAAAAAAAAAAAAA'
p48
aF1.0
aa(lp49
S'Six legd Turtle'
p50
aS'AAAAAUGAAAAUCUAAUGAAAAGUUGAAAAGAAAACGAAAACGAAAAUUAAAGAGGAAAAGGAAAGAAAAAAGGAAAUUGAAUCGGAAAAAAAAAAAAAAAAAAA'
p51
aF0.9333333333333333
aa(lp52
S'snoRNA SNORD64'
p53
aS'GGUAUGAAAAAGUCAAAAGUCAAAGAUAGAAAAAAAAAAAAACUAUCGAAAGACAAGACAAUAUACC'
p54
aF1.0
aa(lp55
S'Chalk Outline'
p56
aS'AAAAGCAUGGGAGACGAAAGUACUCAAUCAGUCGAAAGACGAUAGGUAUUGAAAAAUUAUCACUCACGAAAGUGCAGCAUGAGAAAAAAAAAAAAAAAAAAAAA'
p57
aF1.0
aa(lp58
S'InfoRNA bulge test 9'
p59
aS'GUUAUAGAGAGAGAGGUAUUGAAAGCAAUACCCCCCUAUAAU'
p60
aF1.0
aa(lp61
S'Tilted Russian Cross'
p62
aS'AAAUAUGGAGCAUGAAAAUUCAUCUACAUGAAAGCAUGGUGCGUUAUUGCACUCUGAGAAAUCAGCGGGGCGGGAAACCGCUCUCAAAAAAAAAAAAAAAAAAAA'
p63
aF0.9809523809523809
aa(lp64
S'This is ACTUALLY Small And Easy 6'
p65
aS'AAAAAAAAAAAAAAAAAAAAAAAAAAAAAAAAAAAAAAAAAAAAAAAAAAAAAAAAAAAAAAAAAAAAAAAAAAAAAAAAAAAAAAAAAAAAAAAAAAAAAAAAAAAAAAAAAAAAAAAAAAAAAAAAAAAAAAAAAAAAAAAAAAAAAAAAAAAAAAAAAAAAAAAAAAAAAAAAAAAAAAAAAAAAAAAAAAAAAAAAAAAAAAAAAAAAAAAAAAAAAAAAAAAAAAAAAAAAAAAAAAAAAAAAAAAAAAAAAAAAAAAAAAAAAAAAAAAAAAAAAAAAAAAAAAAAAAAAAAAAAAAAAAAAAAAAAAAAAAAAAAAAAAAAAAAAAAAAAAAAAAAAAAAAAAAAAAAAAAAAAAAAAAAAAAAAAAAAAAAAAAAAAAAAAAAAAAAAAAAA'
p66
aF1.0
aa(lp67
S'Shortie 4'
p68
aS'GCGAAAGCAGCGAAAGC'
p69
aF1.0
aa(lp70
S'Shape Test'
p71
aS'AAAAACUGAUGAAGAUACAAAAAAAAGUAUCAAGUGACUCGGAUAAAAAAAUUAUCUGGUCAAAGGACCUGAGCAUAACAUCUGGAAAAAAAAAAAAAAAAAAA'
p72
aF1.0
aa(lp73
S'The Minitsry'
p74
aS'GUCAAAAAGUGGAAAGGUAAAAAAGCUGAAAGGACAAAAAAAAGUCGGGCGUACACACGGGC'
p75
aF1.0
aa(lp76
S'stickshift'
p77
aS'AAGGUAUGCCAAAAAGGACAUACCAA'
p78
aF1.0
aa(lp79
S'U'
p80
aS'AAAAUAAUACAGAGAGCCGAGCUAUAUAAAAAGUUAUAUAGCCGCCCGUAUUUAAAA'
p81
aF1.0
aa(lp82
S'Still Life (Sunflower In A Vase)'
p83
aS'AAAGAUGGAGUAGUAAAAAACUACGGUUAUCGAAGAUACAGAUUGGAAAAAAUGAGAAAAGUCGAAGGCUUAACCAGUAAAAAACUGGGACCAGAGAAAAUCUGGACAUAUUUUGAUAUAAUAUUAUUACUAGCAAAAACGCUAGAGAGGCGAAAAAAAAAAAUUAUAUCACACACACACACACACACACACACACACACACACAACAUUAUAUGAAAAAAAAAAAGCCUCCUGUGAUAGCACAGAUAAUAGUAUUAUAUCAGAAUAUGAUGACAGAAAAACUGUCUACAGUCAAAAAGAUAGAAAUAGUGAAUAACUAUGACUCGUGAAAAACGAGAAGUCUUGCAACGUACGUAUAGUAAAAAACUAUUCAUCGAA'
p84
aF0.9735449735449735
aa(lp85
S'Quasispecies 2-2 Loop Challenge'
p86
aS'AAAAUUCUCCUGGAGUAUUAAAAGAUAAGCCAGAUAUGGGCGAAGAACAUAAGAUGUGCGACGGAAAAACUGGAGAUCAUCGAGAUAAAAAAAAAAAAAAAAAAA'
p87
aF1.0
aa(lp88
S'Corner bulge training'
p89
aS'AGGUAUGCUAGCUAUGCUAGAAAACAUACCA'
p90
aF1.0
aa(lp91
S'Spiral'
p92
aS'AAAAAGAUCAGGUAUGAGUCAGAUACAGAUCAGAUCAGCAGCAGCAGCAGCAGCAAAAAGCGCGCGCGCGCGAUCGAUCGUAUCGACCAUAUCGAUCAAAAA'
p93
aF1.0
aa(lp94
S'InfoRNA bulge test'
p95
aS'AAAAAAAAAAAAAAAAAAAAAAAAAAAAACAGGAAAAAGGAUGAAAUGAGGAAAGAAGGGGGACUCACGAAAAACGAUGUGUACCAACUAUCGAGCCAUCUAAAGUACUCAAAAAACCAUGA'
p96
aF1.0
aa(lp97
S'Worm 1'
p98
aS'AAAAAAAGAGGGGGACACCCGAACAAAAGGUGUGGAGACACACUC'
p99
aF0.9555555555555556
aa(lp100
S'just down to 1 bulge'
p101
aS'AAAACGAGGAAUAGUUUAAGCUAUACUAGAAAUAGACCGUCAAAAGACGAGUCGAAAGACAGUCGAAAGACACGUCAAAAAAAAAAAAAAAAAAAA'
p102
aF1.0
aa(lp103
S'Iron Cross'
p104
aS'AGUCAGAAAAAGAAGUAGCAAGUAAGUUGAAAGACGGCCAAAGAUACAGUGAUACAGGUCAAGCAUACUAAAAGGUAUAGAAAACUAAUCGAAACGAAACCAAAUGCCAAGAAAGUUGGACGA'
p105
aF0.983739837398374
aa(lp106
S'loops and stems'
p107
aS'AAAAAGGGAGAGAAAGUUCAAAGAUGAAACACAAAAAAAAAACAUAUAAAAAAAAAAAGGUAUGAAAUGUGGAAGGCGGAAAAAAAAAACCGCAAACAUCGUGGUCGAAAAAAAGACAAAGAACAAGCAAAAAAGCGAACUUUCCCAAAAA'
p108
aF1.0
aa(lp109
S'Water Strider'
p110
aS'AAAAAAGUGCAACCUUCAGCCAAAGGGAGCCGAAAGGCCGGGCCAGCUUGUCGAAAGAUGUGAACGUACAAAGACGAGUUCUAAAAAAAAAAAAAAAAAAAAA'
p111
aF0.9611650485436893
aa(lp112
S'The Turtle(s) Move(s)'
p113
aS'AAAGCGAAAGCAAAAGGGAUAGAGAAAAAAAAACUCUAUCCUAAAAGAUGAAAAACAUCAAAAACUCGAAAGAGGAACUAGUAAAAAAAACUAGAAAAGGCAAUGCGAAAGCUAAAACUCGAAAGAGGAAAGGUAUGAAAAAAACAUACCAAAACUCGAAAGAGAAAAACAGAUGAAAAGUCAAAAAAAGACAACUCAAAAAAAAGAGGAACUCGUAAAAAAACGAGGAACUAGGAAAACUAGAGCAUCUGAAAAAAAAAGCGAAAGCAAAAACCAAAAGGAAAAAAGAUAGAAAAAAAAAACUAUCAAAAAAGCC'
p114
aF1.0
aa(lp115
S'Adenine'
p116
aS'GAUACACGUAUGGGGUAUGAGGUAUGUGGUAUGAGGAAUGAAAAGGUUUGAAAAAAUAAACCACAUUCCGGAUACAAAGGUAUAGAAGCUAUAUCGUGUCACAUACCUGAUAGGUAUAUCGAAGAUAUACAAACUAUCACAUACCGAAACAUACCAAAACGUACGAAAAGUAUC'
p117
aF1.0
aa(lp118
S'Tripod5'
p119
aS'AGGAUGGUAGGAAAACUACGGAAAAAAGUUCCCAUCAA'
p120
aF1.0
aa(lp121
S'Shortie 6'
p122
aS'GGUAAGCCAGCGAAAGCGGAGAAAUCAGCGAAAGC'
p123
aF1.0
aa(lp124
S'Runner'
p125
aS'AAAAAGACUGGACGAGAAAGAUUGAAAAUCGCGUCAAUGUCAAGAUACGUAUGGUAAACUAGUGGGAUAUGACACAUCAAGGAUAGUGCGAUUGCGAAAGUAAGCAAGAUCAAAAA'
p126
aF0.9827586206896551
aa(lp127
S'Recoil'
p128
aS'AAAAAUAUAGAAGCAAGCAAGUCAAGUCAAGCAAGCAAAGCAGCAGACAGACAGCAGCACUAUAAAAAAAAAAAAAAAAAAAAAA'
p129
aF1.0
aa(lp130
S'[CloudBeta] An Arm and a Leg 1.0'
p131
aS'AAAAAUGAAUAGACGAAAGUACUACUCAGCGAAAGCGAGAUCAAAAAAAAAAAAAAAAAAAAA'
p132
aF1.0
aa(lp133
S'[CloudBeta] 5 Adjacent Stack Multi-Branch Loop'
p134
aS'AUGAGCCCUGAAAAGGGACGAUAUAGGUCGUGAUACGAAAGUGUCGCUGGAAACAGCCUCAUA'
p135
aF1.0
aa(lp136
S'Triple Y'
p137
aS'AAGCUUUUGGUAGCUUAGAAACAGUGUAGGAAACUAGCAGCCCUUCCCGGACUAUUACCCCGAAAGGGGCGCGCCAGUAAAAAAAAAAAAAAAAAAA'
p138
aF0.9175257731958762
aa(lp139
S'Misfolded Aptamer'
p140
aS'GAUGUAAAACGGCUCAAAGAGAGCGAAAGCGAAAAAAAACCAAAAUCAUC'
p141
aF1.0
aa(lp142
S'Flower power'
p143
aS'AAAAAAAUUUAAGAAAUUUGCGUCUGGUGUAUAGCUAUUUCGGAACCGAUAGUGCAUGGUACGGGUAGAGCGACGAUCGAUUGAAAAAAAAAAAAAAAAAAA'
p144
aF0.8431372549019608
aa(lp145
S'Kudzu'
p146
aS'AAAAGUACAGGUGGGGCGGUGAUGAGAAAAUCUACUCCCUGAAUCUAUUAGUUCGAAGGCGAAGCCGAAGCCACUACACCAAAAAAAAAAAAAAAAAAAAA'
p147
aF0.9603960396039604
aa(lp148
S'"1,2,3and4bulges"'
p149
aS'AAAAAUAGCUGAUGUGAAAACUAAAAUUUCCUGAAAGACGUAAUGAAAAGGGGAGAUGAAAGCACUAAACGUAAUUGUACAAAGCGAAAAAAAAAAAAAAAAAAA'
p150
aF0.9238095238095239
aa(lp151
S'medallion'
p152
aS'AGUAUUACAGAGGAAAACCUCUGAAUCGAAAGAUGUCCAAAAGGAAUGGCUAAAAAUAGCCAAAGAAACGUAAAUGGAGGAAAACCUUCAAUAGGAAACUAAUUGAAAAUGAAAGUAUGAAAGCGUCCCGUACCAAAGCAAUGCAUGGAAACAUGCAAUAGUAAUCUAAUAAAAAACGAGUGGAAGAAAGCUUCUAAUAGAAAACUAUAAGAUGAAAACAUCCAUUAGACAUUUAAUAGUAAUUCAAUCUAGGAAAACUUAGAACACAAAACUGAUGGGGGGAAACCUCAAAUUUCAAAGGAAGGGAAAACCCAUGGUUGAAAACAGCCAGGAUACU'
p153
aF0.8694362017804155
aa(lp154
S'[RNA] Repetitious Sequences 8/10'
p155
aS'AGGAAAAAAGCAAAAAAGCAAAAAAGGAAAAAAGCAAAAAAGCAAAAAAGCAAAAAAGCAAAAAACCAAAAAACCAAAAA'
p156
aF1.0
aa(lp157
S'Documenting repetitious behavior'
p158
aS'AAAAAAAGGAAAGGGAAGCGUAAGGGAAGGCAAAGGGAAAUCAAAGGGAAAUGUAAGGGAAAUUAAAGGGAAAUGAAAGGGAAAAGAAAGGGAAAUGAAAAAAAAAUUUAAAAAGGGGCAAAAAAGGGGCAAAAAAGGGGGAAAAAAGGAGCCAAAAAGGCGCGAAAAAGGGGCAAAAAAGGGCCAAAAAAGGAGGAAAAAAAAAAUGAACCGAAACGAAAGGGAAAGCAAAGGGAAACCAAAGGGAAUGCAAAGGGAAGGGAAAGGGAAAGUAAAGGGAAAGGAAAGGGAAUGAGAAAAAAAACAGAAAAAGGGUUGAAAAAGGGCAAAAAAAGGGGAAAAAAAGGUGAAAAAAAGGGGAAAAAAAGGGGCAAAAAAGAUCGUAAAAAGGGCCAAAAAA'
p159
aF0.9025
aa(lp160
S'7 multiloop'
p161
aS'GGCCCUAGUAUAAACUAGCAGAUGAAAAUCUGGGUCAUUAUUGAUCGGAUUGAAAAAUCCCUCGAAUAGUCGAGGCGAAGAAAUUCGCGGCC'
p162
aF1.0
aa(lp163
S'Kyurem 7'
p164
aS'AAUAUUGAACUUUCUUAAUGGUAGUAACUAAUGUCGGAAAAGCCGUAGGUGUAAAAAAGCAAAACUCCAUGAUUGGUAUUCAUAAAAAAAAAAAAAAAAAAA'
p165
aF0.9411764705882353
aa(lp166
S'JF1'
p167
aS'GAUAGAGGUCUACUAGUAAGAUAGAAAAGGUAUGAAGAUACAAAGAGACAAGAUAGGACUAUAUAUAUAUAGAAAACUAUAUAUAUAUAGAAGUCGAAAGACACAGAUGAUCGAAAGAUCAUCUGAACUAGUUUAAGCUAGACCUAUCAGUCUCAGUAUCACAUACCAAAGGUAGACCAAAAAGGUACUACCAACUAUAUUAUAAUAUUAUAAUAUUAAAAAUAAUAUUAUAAUAUAUAUAAUAUAGAAAGAUACAAAAAAGUAUCCUAGACUAUCGAAAGAUAGUCUAGAAACUAGAAAACUAGGACUAUCCAACUAGAAAUCAGUCAGUCGAAAGACGACGAUUAUGGACUAGUUUAAGCUAGAUCCAAGGACACUCAUAUCAAA'
p168
aF1.0
aa(lp169
S'multilooping fun'
p170
aS'UUUCCAUGGGACAAAGCAAUAUAGAUUAAAAAUAAA'
p171
aF0.8333333333333334
aa(lp172
S'Multiloop...'
p173
aS'GAUGAGAUGAGUCGAAAGACAGUCGAAAGACAGUCGAAAGACAGUCGAAAGACAGUCGAAAGACAGUCGAAAGACACAUCAGAUACAAAAAAGUAUCGUCGAAAGACCAUC'
p174
aF1.0
aa(lp175
S'hard Y'
p176
aS'AAAAUGGACCCUGUGGUUGCAAAGGCAACCAAUGGGAGAUGUUCUUAAUGGAACAUCUCGUUCUAAAA'
p177
aF0.9705882352941176
aa(lp178
S'Mat - Elements & Sections'
p179
aS'AAAAAUCUGUCGAACGAAUGGGUAAUCACGAGAGCACCUGUCGAAAGACGGAGGUUCCUGGAUUUACUUGUGAUACCAAGUCGAAAAAAAAAAAAAAAAAAAAAA'
p180
aF0.9619047619047619
aa(lp181
S'Chicken feet'
p182
aS'AAAAAUCAGGAUUAAAUAGUCAAAGAAAAGCGAACGAGCAACAAAGUACAAAGGAGAGUCUCAAAAA'
p183
aF0.8507462686567164
aa(lp184
S'Bug 18'
p185
aS'AGAGGUCUAUGCAGGCAUGCUAUGAAGAUUGGGGGAGUAUGGUAGUUAUAUCA'
p186
aF0.8867924528301887
aa(lp187
S'Fractal star x5'
p188
aS'AAAAACAGAUGAGAACUACGAAAGUAGAACUACGAAAGUAGAACUACGAAAGUAGAACUACGAAAGUAGAACUCAUCUGAAAAACAGAUGAGAACUACGAAAGUAGAACUACGAAAGUAGAACUACGAAAGUAGAACUACGAAAGUAGAACUCAUCUGAAAAACAGAUGAGAACUACGAAAGUAGAACUACGAAAGUAGAACUACGAAAGUAGAACUACGAAAGUAGAACUCAUCUGAAAAACAGAUGAGAACUACGAAAGUAGAACUACGAAAGUAGAACUACGAAAGUAGAACUACGAAAGUAGAACUCAUCUGAAAAACAGAUGAGAACUACGAAAGUAGAACUACGAAAGUAGAACUACGAAAGUAGAACUACGAAAGUAGAACUCAUCUGAAAAA'
p189
aF1.0
aa(lp190
S'Crop circle 2'
p191
aS'GGUAAUCUAUUGCUAAAUUGAAAUAAACCGUAAAAAAAAAAAAAAAAAAAAAAAAAAAGACGAAAAAAAAAAAAAAAUCCUAAAAAAACCUUAAAAAUCCGAAUCCAAAA'
p192
aF0.9454545454545454
aa(lp193
S'Branching Loop'
p194
aS'AGAAUAUAAAAAAUAUAGGGAAACAUACAGCUUGAAAAAA'
p195
aF0.95
aa(lp196
S'Bug 38'
p197
aS'AUCCUCUUGAUGAAGAAAUAUUUCAAUGAAAAAGAA'
p198
aF0.9444444444444444
aa(lp199
S'Simple Single Bond'
p200
aS'AAAAAUGAAAAAAAAAUGUGGAAAACAUGGAAAAAAAAUUAAAAAAAAAAAAAAAAAAAAA'
p201
aF0.9672131147540983
aa(lp202
S'Taraxacum officinale'
p203
aS'GAGCGAAAGACUCACUGCGAAAGACAGACUGCGAAAGACAGACUGCGAAAGACAGACUGCGAAAGACAGACUGCGAAAGACAGAGAUAGACUAUCCUAGUUAGAUCAAAGAUCAUAACUAGAGAUAGAAGAGAUGAUACAAGAGAUGCAAAGCAUCUCAGUAUCAUCUCGAUCAGGUAUGAAACAUACCGAUCCUAUCGAAGAUAGUCUAUCAGAGCGAAAGACUCACUGCGAAAGACAGACUGCGAAAGACAGACUGCGAAAGACAGACUGCGAAAGACAG'
p204
aF1.0
aa(lp205
S'Headless Bug on Windshield'
p206
aS'UUUGAUGAAAAGAACCAAAGCGUCAGAAAAAAAAAAAAAAAAAAAAAAAAGGAAGUGCGUGAAUUAAUAUAAAUGUCAUGUCAAGCAAAAAAGUUGAAAAGAAAAAAGGCGACUAAAAAGACAGUAAGUAAAAAAGAGAAGGGGCAGGGUCUCUCAAAAAAAAAAAAAAAGAGAUAGAACUGGACCACCCAUCUAAUACA'
p207
aF0.95
aa(lp208
S'Pokeball'
p209
aS'AAAGCUUGAGAAAAGAGACGGUCUGAAGUGGUCGGCAAGUAAAUUAAGGAAACCGAAGGUGAUGACGAAGAACGGUCGAUCCUGGAGCAAAAAAAUGCUAGAAACAAGCGAGGAGGGAUAGAGGUAGAGAAACCGGAAGGCAAAGUGAAUAAGGGUCAUAAAUCUCUCGCAAGCUUCCAGCUAA'
p210
aF0.967391304347826
aa(lp211
S'Variation of a crop circle'
p212
aS'AAAAUUGAAAUGGAAAUGAAAAUCAAGAUUGUUAUGCUAACAAAAGCAAAAAUCAUAAAAAACGUAAAAAAAAAGGAAAAAAAAAAAA'
p213
aF0.9318181818181818
aa(lp214
S'Loop next to a Multiloop'
p215
aS'AAGGUCUAAGUAAAAAUGGGUUAUGGAAACAUAGCAGGUAUCGAAAACGGUACCAUUAAAAAUCUUAGACCGA'
p216
aF0.9726027397260274
aa(lp217
S'Snowflake 4'
p218
aS'GGUCGAAGAUCGAGAGGCGAAAGACUAAAAAGAUGGGCAAAGGUCUAGUGUACGAAGUACAACGCCAAAGGUGGCUAGGCGAAAGCCCAUCGGAAUAAGCUAACGCCCGAUCUGUAAAGCAGAACUACAAAGUAGGUCGGGGGAAAUUUUAUUAAAAUUGCCGUAAAGCUGACGUAUAAAGUACAACUCUAAAAGAGGUCAGUUAAAAGGCUUUUAGCAGUGGUGAAAGACAUAUAUACUAUGUAUAAAUGCGAAGUGUGUAUGUUGAAAAGCACUAAAUAAAUCGGAAACGCGUGUCUACGAAGUAGAACUAUAAAAUAGGCGCGGGGAAAUCAUUUAGAUUUAGCGGAAAGCCUCUCCCAUAAAAUGG'
p219
aF0.8783783783783784
aa(lp220
S'Mat - Cuboid'
p221
aS'GUAGUAAAAGCAAGCAAAAUAAAGAAAAAGAAGCAAGCAAAAGCAGGCAAGCAAAACAAGCAAGCAAGCAAAAUCAAGGAACCUAGCAAAAGCUAGAAAGCAACCAAGUAAAAGCGGAAGGUGUGUGGGUGAAAAUCUGUUGGUGGGUUGGUGGAUGAAAAGCGGUGGGUGGGUGGGCGGGUGAAAAGCGGCGCUGGGGUGGGUGGGUGAAAAAACAAACGAACGAACCUACGAAGCCGAACGAACAAACGAACGAAGCCGGACGAAGGAACAAAAGAUGCCGAACGAUCGAAUUAAGUACAAGGAAGCGAGCGUGUGCAUGCAACCAAGAGCAAGGGAGCGGGGCAAGCAAGCGCAAGCAGAUCAAGAACAAGCGGUUC'
p222
aF0.9263157894736842
aa(lp223
S'Misfolded Aptamer 6'
p224
aS'AAAAAAGUCUAAAAAUGUGUAGAAAUGUCAAAAAAAAGACUAAGCGAAAUCACAGAAAAAUGACGAAAAAAAAAA'
p225
aF1.0
aa(lp226
S'Snowflake 3'
p227
aS'GGCUGGAAACAACUCCUCGAAAGAGAAGAUGAGAUGAAGUCUAAUGACCAUAGCGAAAGCUUCAAAGAAUGAAAGCAAGGGCUCGAAAGAGAAUAUCAGAUGAAGUCGAAAGACCGAAGUGAAAGCGUCAAAGAUCGAAAACGAUUGCUCGAAAGGGAAUAUCGGCUGGAUUCGAAAGGACCAAGCGAAAGUAUGAAGUAAUGACAACAAUGGCUUAAAGAAGAAUAGCAUAUUGAGCCGAAAGGUCGAUGCGAAAGCCGCUAUGAGUGAAAACAUGUGCUCGAAAGAGAAGAUCGGAUGAAGUCGAAAGACCGAAGCGAAAGCGUCAAAGAUUCAAAGGGAUCGCUCGAAAGAGAAUAUCACAUUAAGUUGAAAGACGACAGCGAAAGCGAC'
p228
aF0.7837150127226463
aa(lp229
S'Hard Y and a bit more'
p230
aS'AAAAAUUCAGACGUGAUGAAAACAUUUAGUGUAUGAGCAUGAUUGAAAGAUCUUAGUGGUAAAAUCCAUUUAGCAAAUACUCAAAGAAAAAAAAAAAAAAAAAAAA'
p231
aF0.9716981132075472
aa(lp232
S'Mat - Lot 2-2 B'
p233
aS'GAGUGCGCUGUCAAUUAAAAACGUCCUUUAAUGAAAAAGGUAGUAUGGGAAAAUCGUACUUCGAGCAAGCGGUGUCGAGGAAAAGGAGUGCGAUGGAAAUGGAAAGUCAAAGCAAAAAUGUAUACGGAGGAGUGGGAAGAGAAAUCGGAGUUUUGGCCAAAAGUAAUGCGGAAACGAAAACCGUGAGGAAGAAAAAGGAGCCCCAACCAACCAAGCCAGGGGAAAAGCAGCUGGAGUGAAAGGCGAAAGCCGAGCCAAAAGGAGGCCCAAUUGAAAGAACAAGC'
p234
aF0.8063380281690141
aa(lp235
S'Shapes and Energy'
p236
aS'AAAGAGGACUUGACUAAAAAAGAAAAUUAGUGAAAGGUGAUGAGCCAAGGACCUUAACCGUCAGAAAUGAGUGACAAGGCAAAAAAAAAAAAAAAAAAAAA'
p237
aF0.9603960396039604
aa(lp238
S"Spiral of 5's"
p239
aS'UAAAAGAUACUAUGAUGAAAAGAUAAAAAGGGUACGAAUAUAAAAAGAUAUAAGAUAGAAAAGAUGCAAAGAUAAAAAGAUAAAAGAUAUAAAGAUAAAAAGGUAAAAGAUAUAAAGAUAAAAGAUACAAGAUACAAGAUACAAGAUACGGAUACAGUUAGGUGUCGAAAAGACACAUCAUCUAAUAAAAAGUAUUAAAAAGUAUCAAAAAGUAUCGAAAAGUAUCAAAAAGUAUCAAAAAUUAUCAAAAAAUAUCAAAAAUUACCAAAAAUUAUCGAAAAAUAUCGAAAAUUAUCAAAAAUUAUCAAAAAGUAUCAAAAACUAUCAAAAAGUAUCGAAAAUUAUGGAAAAGUAUCAAAAAUUAUCGAAAGUUAUCUAAAUGUAUCAAAAAAAAAAA'
p240
aF0.9949622166246851
aa(lp241
S'Campfire'
p242
aS'AAAAGAUCGAGCGGGAAGAUGAACUUUGAAAAAGUGGGAGAUGAAGGUAUCCCAUCCGUAUGAGCAGGAGAUACGAAAGUAAUCUCGUCUGCGUUCACCAGCGAAAGCAGGAAGGUAGCCAAAGGGACAAUCUAUCGACAGGAUCAGACCUGCCGCAGUCAGGCAGACCUAAUGGUCGCCGACGGACGCGCUAUGCAGUGAUCCGGAGGAUC'
p243
aF0.9198113207547169
aa(lp244
S'Anemone'
p245
aS'AAAGUGCGGAAAACCGAGCGACAUGAAAGUGUCGGGUCGUAAUUCCCGGGAUGUGAAAGCAUCAGACUAGAAAUAGUCCGCAACUAAUGUUCUGCUCCAAAAGGAGCGGUAUGGAAACAUACCAGAUACGAAAGUAUCCGAUGGGAAAGUGCUAGUAUAGAAAUGUACUUUGCGUAGUCGUAACGCUACGAAAGUAGCAUUAUAGAAAUAUAGC'
p246
aF0.9532710280373832
aa(lp247
S'Fractal 3'
p248
aS'AAAAAGAUGACUAAGCGAAAGCGGGAAACCAUAGAUUCAGAGAAAUCGCGAAAGCAGAAAGUCAGCGAAAGCGCGAAAGCAGACGGUGGGCGAAAGCGUGAAAGCACACACAUCAAAAA'
p249
aF1.0
aa(lp250
S'Kyurem 5'
p251
aS'AAAAGUGGAGCUGACGAAAGUUAUAAAAAUAUCGGUUACACUGUAAAUUAGAAUCGCUAAAAAGCAUAGUCGGAUCUUAAUUCAAAAAAAAAAAAAAAAAAAAA'
p252
aF0.9230769230769231
aa(lp253
S'Snowflake Necklace ( or v2.0 )'
p254
aS'GCGAUAAUAUUGUAAGUGUAGAGGAAAAAUCAUGAAAAACAAUGAAAAACAAUGAAAAACAUUCAAAAAGAACUACCAGACAAAAAGUCUAUUAGAUGCAAAAGCACGAAAAACGAUGAAAAACGACUGAAAACAAGGUAAAACAACUAAUAAUCAAAAAGACAUAUAAAGGAAAAAGCACAAAAAAUGACAAAAAAUAAUGGAAAACAAAGAAAAACUAUUAUAAGUCAAAAAGAGAGGUGGAGCAAAAAGCACGAAAAACGAUAAAAAAUAAUUAAAAAGAAUGAAAAACAACUACUAGUCUAAAUGAUAUUAAGAGCGAAAAGCGCCAAAAAGGAUCAAAAACUAUGAAAAACAGCGAAAAGCGACUUAGAUUGUGAUAUUAUCGC'
p255
aF0.8251928020565553
aa(lp256
S'Methaqualone C16H14N2O Structural Representation'
p257
aS'AAAAAAAGAUGUGAUGACUCGAUCGAAAGAUAAUCGCUCGAAAGAGGGUCAAUCGAAAGAUAGUCACUUGAAAGGGACUCGAAAAAAGGGAGACAGACAGAUGGAGGGGAACACAUCAGAGGAAAGGAUUGAAACCAAAGGAAAAAAAACAAGGGCAGUUAAAAGACCUCGAAAGAGCCCAAAACGGGUCACCAAAGAUGAGAAACAGUCAGGAAUUCAGGGAAUGAAAAGUCGAAAGACAGACACUCGAAAGAGACUCGGUCAAAGGACCGAGACUCGAUAGAAAUACAGACCUCGAAAGAGCCCGAAAGGGGAGCGAAAGUUACCAGAAGCAGCGAGUCGCUUAUCAAAAAAA'
p258
aF0.971830985915493
aa(lp259
S"Cat's Toy 2"
p260
aS'AAAAGGGAUAUCCAAAGACUCGAAAUAAAAAAAAAAAAAAGUUCCAAUGAAAAGACUAAGGUAAUUCAAAAAAAAGGUAAAAAUCGAUGUUUCGAAA'
p261
aF0.979381443298969
aa(lp262
S'Zigzag Semicircle'
p263
aS'AAAGUGUGGGCUCUCAAAACUGACAUUACAAAAA'
p264
aF0.9411764705882353
aa(lp265
S'Short String 4'
p266
aS'AAAAAAUCACAAAUCAAGAAGCAACGGCAAAAACUUAACAAUGUACGGUGAAAUCGAAGCACCUAACGCGAAUGGAAAAAAAAAAAAAAAAAAAAAA'
p267
aF0.9381443298969072
aa(lp268
S'Gladius'
p269
aS'UAAAAAAUGUACUGAAAGAGGAGAAGUAAGGCAACCGAAGAUGAAAACAUUAGAUGCGAGGGUCAAGAGAUGAACAGAUGAAAUGAUAUUAACUCUAGCAGAUAAAGAUCAUUAGAAGUUCAAAGAAUACUAAGGAUCAGUAUCACCUAGACAUAAUAUCUGCGCAUCAUGACAUCAGCAGACAACAGUAUCAGGUAAAGUCACUAGUAGAAGAGGGAGGAGGAGAAUAUGAGAAGAUAUAGAGUCGAGAGAUUCAAGGUCAAGUCACGGAUGAAAGCAUCCGAAGACGGGACCAUGGAUACCUCGGACCUAUAUUACAACAUAACAACUUCAAUACUCACAAACUAGAGAACUAAUGUUCAAGGACAGCCAAUAGGAGCAGCAAAAAAAUUUACGAAAG'
p270
aF0.905
aa(lp271
S'Thunderbolt'
p272
aS'AGAUGAUACAAAAAAAAGAUCAAGUGUAUACGGAAAACAGAUAUAGCAAUUAGUCUCCAAAAAUCAAGAAAAACUUGUAAAAAGGAAAGCGUCAAAAAAAUGAGUAAAAAAAAGCUGGCGGUCGAAAAGAAAACAGAUGAAAAGGUCAAAAAGGGUGAGAAUUGCGAAUAAAAAGACAGAUGAAAGAGAAAAAGAGUUGGAAAGCCGAGCAAAAAAACAAACAUCAAAAAAAGUAUCAUAUGCGUCUGAAACAGACGAGGAAGCAAAAAAAAAAAGAAAGCAAAAAAAAAGGUGAAAAAUCCUAAGGAAAAGAAAAAAAACGAAAAUUUAGGCAUAACAAAGCUAUAUCAAAAAAAAGGUUAAGAACAAAAAGAAAAAAACAGUAUCUACUA'
p273
aF0.9183673469387755
aa(lp274
S'Mutated chicken feet'
p275
aS'AAAAAAACUAUGGUCAAAGCAGAAAAUCAAAGCAGCGUAGAUGCAAAGCAGCAAAUCGAAUCACAUGAUGAAGAAAACACGAAACGAAACAGAAAAAAAA'
p276
aF0.84
aa(lp277
S'Chicken Tracks'
p278
aS'AAAAAAAUGCUAUGGAUAGUAAUCUAUAUGGGGAAAGCUCCUAGCGGAAAACCGCCCAUAGGUAAUCAGAGCAUGUUUAAGAUCGAAGAUCAACCGAAAUCAGUGAAGGAUAAAAA'
p279
aF0.9482758620689655
aa(lp280
S'Looking Back Again'
p281
aS'CUCAAGUCCAUGUAAAUGGUAUGAAGCAUACCUCAUGAAGUCGUUAAGUCAAGGACAAUGGAUACUAAGAGGUAAUCUUCGAAUGUGUUAAGACAAUACAUGCUCCCGUAAAAGGUACGAAAGUACCAAAAAAUACCCAGGGAGACAAAGUCUUCGCUUCAAGGUUGGUUUUGUCAAGCAUAAUGGUAGGAGAAUUAAAAAAUUAGCAGAAGGGAAAGAGUCGAAAGACAUCAGAACAAAUCUAGGACCUGGAAGUGCGGAAAAAUCAAAGACAAAAAAAGUUUGCAAAUCAAAGCAUAAAUAUUCAGCCUAUAAAAAAACCAGUUGAAAACAACUGAAUACUCGAAGGAUAUUGUAUCAAUAAAGUAGUGAAGCCAGCCUUUUAAGAG'
p282
aF0.87146529562982
aa(lp283
S'Multilooping 6'
p284
aS'AUCACUAUGAUACUCUAUUGAGUACUGGGUUGUCCUAGAUGGAAAAUGCAAAGGCAUUGGCGGUAAUCCGUCUCCUAGUGGA'
p285
aF0.9146341463414634
aa(lp286
S'Cesspool'
p287
aS'GAAGAAGAUAACAAGCGGGUACUUUCUAUGAAAAGAAAAACAGACGGAAAAAAUAAGAGGGUUUAAAAACGAAAAGAAAGCCACCUCAAGGGGAAUAAAAGAGCUAGGUAGUGGGAAACCCAACAAAAAUAGAAGGGGAAAAUAACUGAGAUUAAAAAUUAAACGAAAACACAAACAAGCGAUAAGAAAACAAAUUGGUAAAGUGCAACAGAAAAAAAAAAUGACGGGACAACGAGAGGGUACGGGAACAAAAGGGAAAUACAAAGAAAGCGCUAAGAAAACAACUUAGCCGACGCAAAGUUAACGGAAGAGGGAGGGGAAAACAACAAAGUUCAAAAAUAAAAAUAAAAGACAAAGC'
p288
aF0.7067039106145251
aa(lp289
S'Hoglafractal'
p290
aS'AAGAAAAACUAGGAAAAGGUACAAAAAAGUACCCCUAGGAUAAAAGUUGAAAAACAGCUAUCGGCAACGCUAAUGCGGUCUGCCUAACACAAAAUAUGUAAAAUUAUAUGUCCUAAAGUCAAAAAGACUGCUAACCAAAGGGUAAGUUGAAAAGUCGAAUCAAAAAAAAUGACCAAGUAAAAAGCGGUUCGAAAGAAAGAUAGAAAAAGCAUUAAAAAAAGGCCUCGAAAAGAGGGGAAAUUAGGUAUCAAAAAAGCCAAAAAAGGCCCAAAAGGGGAACAGAUCCUAUGGAUCUGAAAAAAAGAUACCAAAAAACUAUCGAAAACGGCAAAUGACUAAUAAAAGAAGAACACAUGAAAGCCGAAAGGAGGAAACAUAACAGAAACUGUUACCAUGUUGC'
p291
aF0.8625
aa(lp292
S'Bullseye'
p293
aS'AAAUCCUUACAAAGUAGAAGAUCAAAGGUCAAGAACAAAGAUCGGGAAAAAAAAAUUGAUCAAAAAACAUGAGCAAAGUUCUAAAUCGAAGAUCAAUAAAAAAAACGACUACGAAGAAGAAGCUGAAAUAGCAAGAUCGAAUAUAUCGAAAAAAAAGGCGAGGAAGCCUCAAUAACAAGGUUAGAGAUCAAGGAUCGUCAAA'
p294
aF0.8415841584158416
aa(lp295
S'Shooting Star'
p296
aS'AGUAGAGUUGCUGCUGCAAGUGCGUUCAUGAAAUCAGCUAAUGACGAAUGCGAGAGUAGCAAGCGGCGGAUACGCCUUACGUUCUGUUAUUAUGAGGCAGGAGAGCGAAAGACUAAUCGCCCAGUAAAGAAUGAGUAGAUAGAUAAUUACAGUACUCCGAAUUAAGGUUAGACUAGGAAGCCUAGGGAGAAAUACAGGCGACCGAAUAUUAGAUGAAAGGUAGAUAAAAUCUACCAGUUAUAAAGUAAUCAUCGCGAAAGAAGAUAUGCGACGCGUAAAGCGAGAAAGUUGGAAGAAAGCGGCGAAGGGUGGAAUCAUUAUAGAGAAAUACGUAAGGAUACAGGAACGUAACCCGAAUCUAUUA'
p297
aF0.7802197802197802
aa(lp298
S'Teslagon'
p299
aS'AAAAACGGUAAAAAAAGAGAAAAAAAAGUAGGAAAAAAAAAAAAAAACCUUAAAAAUUCUGAAAAAAAAAAAAAAGCACUAAAAAAAGCAGUAAAAAAAGGAAAAAAAAAAAAAAACCAAAAAAAACAUCAAAAAAUCGAUGAAAAAAAAAAAAAAACAUAAAAAAUAGGAAAAAAAAAAAAAAACGAUGUAAAAAAGAGACAAAAAAAAGAAAAAAAAAAAAAAACUGAAAAACGUAGCAAAAAAUCGAAAAAAAAAAAAAAAAAAUAUAAAAAAAUCGAAAAAAAAAAAAAAACCACGUAAAAAAGCAAUAAAAUAAAAAAAAAAAAAAAUCCAAAAAAAAAAAAAAACCUUUAAAAAAAAUAUCAAAAAAUCCAAAAAA'
p300
aF0.900523560209424
aa.