(lp0
(lp1
S'Simple Hairpin'
p2
aS'GAUACAAAAAAGUAUC'
p3
aF1.0
aa(lp4
S'Arabidopsis Thaliana 6 RNA - Difficulty Level 0'
p5
aS'GAUAUACAAAAGGCAAAAAAAAAAAGCCGAUAUAUCAAGAUAUAUAUAUAUAUAUACAAAGAUACAAAAAAGUAUCAGUAUAUAAUAUAUAUAUAUCAAGAUAUAUCAAGUAUAUC'
p6
aF1.0
aa(lp7
S'Prion Pseudoknot - Difficulty Level 0'
p8
aS'GAUAUCAGAUCGAAAGAUCGAUAAUCAAAAAAAAAA'
p9
aF1.0
aa(lp10
S'Human Integrated Adenovirus - Difficulty Level 0'
p11
aS'GAGAGUGAAAUAUCUCAUAUUGAAAAAAAAAGGCUCCAUCUACUCUAAAUAGUUAUCAAAAGACAUAGAUACUCAAAAAAAGGAGUAUUUAAAAAAGGCGAUAAAAAAAUGAAUUAAAAGAUGCAAAUUAUGGAAAAAAUAUAAUGAGCAAAAAAAAAAAAAAUAUGUGAUAAAAAUUUCAUAAAUCUCAAA'
p12
aF0.9791666666666666
aa(lp13
S'The Gammaretrovirus Signal - Difficulty Level 0'
p14
aS'AGGUCGAGAUAGCGAAAGUUAUCAAGUCAAAAAAUACCAAGGCAGAGGCGAUCGAAAGAUCGGAAACCUCGCCGGUAAAGAUAAAUUGAAAAAUUUAUCAA'
p15
aF1.0
aa(lp16
S'Saccharomyces Cerevisiae - Difficulty Level 0'
p17
aS'GGUCUGCGCUGUAAAAAAUCAGUAGGGAAAAAAAAAAAAAACCGAAAAAUACGAAAAAAGUAUUGCGGAUCAAAUGUUAUACAAGAGCAAAAAAAGGUUCGCCAAAAAAAAAAAAGGGCAAAAAAUAGGAAAAAACUAUUGUAUAACUAAACUGAGGCAAGAUCGAAAAAAAGAUCGGUAACAAAAAAAGUUACCAAAAGAUACGAAAAAAGUAUCGCCUCAGGAAGGAUAAACAAGACCAAAAAAAGGGUCGAUUGCGAAAAAAGCGAUCAAAAGUGACUAAAAAUGUUACGUUUAUCAAAUGGAGGAGAAUGCCAAAAAAAAGGUAGCUGGUGAAAAGAACUAGCCAAAGAAACGAAAAAAGUUUCCUCCUCCUAAA'
p18
aF1.0
aa(lp19
S'Fractal 2'
p20
aS'AAAAGGAUAGAUGAAAGAGAAUUAAUAAGCGCUAAAAAAAAUGCGUAAGAGCAAAAAAAAAAGCUCAAGAGCAAAAAAAAAAGUUCGGGUUAGUUCUCAAAAUUAUAUAUGAAGUCCAAAAAAAAAAGGGCAAGAGCAAAAAAAAAAGCUCAAGAUCAAAAAAAAAAGAUCAAUAUAUAUAAUGAAGGUAUAUAAGUAGCGGUAAAAAAAAUCCGCAUGAGCAAAAAAAAAAGCUCUAGAACAAAAAAAAAGGUUCAUCUUAUAUACCAAAUAUCUAUCAAAAA'
p21
aF1.0
aa(lp22
S'G-C Placement'
p23
aS'UUGCGAAGCGAA'
p24
aF1.0
aa(lp25
S'The Sun'
p26
aS'GGCAGAUAUAAGAAGUACAAAAUCGCAAUCGCAGAUAUAACAGUUAUUAGUCGCGGAUGGCAGAUGUGCAAAGCAUAAAUCGCCUAAGGUAGCUACACUAACUGUAAGGCACCGAAAGCACAGGAACUAUGUUAAAAUUGCUGAAGGUAGAUAAAUUAUGCGUUAAUCGCCAAUUGCAGAUAUCUAAGAGAUAAGUCGCAUAAGUCAGCUAUACAAGGUGUAAAGCGGCGAAGAGAGAUAGACUAUGUGCUAACCCUC'
p27
aF0.8488372093023255
aa(lp28
S'Frog Foot'
p29
aS'AAAAAAAAAAGAUCGAAAGAUCCAUCGAAAGAUGCGUCAAAGACG'
p30
aF1.0
aa(lp31
S'InfoRNA test 16'
p32
aS'GAUUCCUCAUAUUUCGAAAGAGAUCAUAGUGGAAUC'
p33
aF1.0
aa(lp34
S'Mat - Martian 2'
p35
aS'GAUCGAAAGAUCAAAGAUAUACAAGAUAUACUAAAAAUGUAUAUCGUAUAUCAAAGAUAUAUCAAAAAUGAUAUACAGAUAUAUAAAAAAAAUAUAUCGUAUAUCUAAGAUAUAUAUAUAUCGAAAAAAGAUGUAUAAUAUAUCAAAAAAGAUAUAUCAAAGAUAUAUAUAUAUCAAAAAAAGAUAUAUCAGUAUAUCAAAGAUCGAAAGAUC'
p36
aF1.0
aa(lp37
S'square'
p38
aS'GAUAUACGGGUACGGUGUACGGUGUCAAAGACACCAAAAGUACACCAAAAGUACCCAAAAGUAUAUC'
p39
aF1.0
aa(lp40
S'Six legd turtle 2'
p41
aS'AAAACGCAAAGCGAAAUCAAUUUAAAAGGUAAACAAAAUUAAUAUAAAAAUAAAGAAAAAACAAAGGUAAACCAACCCAAAAAAAAAAAAAAAAAAAA'
p42
aF0.9591836734693877
aa(lp43
S'Small and Easy 6'
p44
aS'GGCGCUAAAUGCAAGGGAAAAAAAACCGCC'
p45
aF1.0
aa(lp46
S'Fractile'
p47
aS'AAAAAAAAAAAAGCAAAAGCAAAGGAAAGCAAAAGCAAGGAAAGGAAAACCGAACCAAGGAAAACCAAACCAACCGAAAGGAAAAAAAAAAAAAAAAAAAAAAAA'
p48
aF1.0
aa(lp49
S'Six legd Turtle'
p50
aS'AAAAGGGAAAAUGAAAGGGAAAGCAAAAAGAAAAAUGGAAACAAAAGGUAAAAAUAAAAAGGAAACUGAAACUUAAUGGGAAGCCAAAAAAAAAAAAAAAAAAAA'
p51
aF0.9619047619047619
aa(lp52
S'snoRNA SNORD64'
p53
aS'GAUAUCAAAAAGGCAAAAGGCAAAGAUACAAAAAAAAAAAAAGUAUCGAAAGCCAAGCCAAGAUAUC'
p54
aF1.0
aa(lp55
S'Chalk Outline'
p56
aS'AAAAAGACCAGAUACGAAAGUAAUCAGGCAGGAGAAAUCCGCCAGAUAGCUAAUGCAUAUCAGGGACGAAAGUUACCGGUCAAAAAAAAAAAAAAAAAAAAAAA'
p57
aF1.0
aa(lp58
S'InfoRNA bulge test 9'
p59
aS'GAUAUACAGAGAGAGAUAUACGAAAGUAUAUCCCCGUAUAUC'
p60
aF1.0
aa(lp61
S'Tilted Russian Cross'
p62
aS'AAAAAGAUCCAGUGAAAACUGCAUGAGAUCGAAAGAUCGAUGCGAAAGUAUCAGACCUAAUGGUCCAUGGAUGGAAACAUCGAUCGAAAAAAAAAAAAAAAAAAA'
p63
aF1.0
aa(lp64
S'This is ACTUALLY Small And Easy 6'
p65
aS'AAAAAAAAAAAAAAAAAAAAAAAAAAAAAAAAAAAAAAAAAAAAAAAAAAAAAAAAAAAAAAAAAAAAAAAAAAAAAAAAAAAAAAAAAAAAAAAAAAAAAAAAAAAAAAAAAAAAAAAAAAAAAAAAAAAAAAAAAAAAAAAAAAAAAAAAAAAAAAAAAAAAAAAAAAAAAAAAAAAAAAAAAAAAAAAAAAAAAAAAAAAAAAAAAAAAAAAAAAAAAAAAAAAAAAAAAAAAAAAAAAAAAAAAAAAAAAAAAAAAAAAAAAAAAAAAAAAAAAAAAAAAAAAAAAAAAAAAAAAAAAAAAAAAAAAAAAAAAAAAAAAAAAAAAAAAAAAAAAAAAAAAAAAAAAAAAAAAAAAAAAAAAAAAAAAAAAAAAAAAAAAAAAAAAAAAAAAAAAAA'
p66
aF1.0
aa(lp67
S'Shortie 4'
p68
aS'GGAAAACCAGGGAAACC'
p69
aF1.0
aa(lp70
S'Shape Test'
p71
aS'AAAAAGUGAUCAACAUAAAAAAAAAAUUAUGAUGACAGGCAGAUACGAAAAGUAUCAGAUCGAAAGAUCAGCCGUCUAGAUCUCAAAAAAAAAAAAAAAAAAAA'
p72
aF1.0
aa(lp73
S'The Minitsry'
p74
aS'GUCGAAAGGGCAAAAGGGCAAAAAGCCAAAAGGCGGAAAAAAACGCAGGCGGCCGGCCAGGC'
p75
aF1.0
aa(lp76
S'stickshift'
p77
aS'AAGAUAUCCGAAAAACGAGAUAUCAA'
p78
aF1.0
aa(lp79
S'U'
p80
aS'AAAAAGAUACAGAGAGGAGAGAUAUAUACGAAAGUAUAUAUCCCCCCGUAUCAAAAA'
p81
aF1.0
aa(lp82
S'Still Life (Sunflower In A Vase)'
p83
aS'AAAGAUCAAUGGUCAAAAAGAUUAAAAAUAUAAGUUAUCAAGAUUCUAAAUGGCUCAAGGUAAAAAAUAACAUGACCCAAAAAGGGUCUGGGGACAAAAAGUCCCAGAUAUCUAGAUACAUAUAUAUACGAUCCAAAAAAGGAUCAGGUAUGAAAAAAAAAAAACGUCGAAAAAAAAAAAAAAAAAAAAAAAAAAAAAAAAAAAAACCAGACGGAAAAAAAAAAAAGUACCGUUGCAAAGGUAACAGUAUAUAUAUGUAUUUGGAUAUCGAGAUAUAAAAAGUCUCAAGCUACAAAAAGUAGUGAGGGACGAAAAGUCUUAUGAAAAGAUAAUUUACUAGAUAGGAAACUGUCAGGAUAAAAAAGGCAAUAGAUCGAA'
p84
aF0.9735449735449735
aa(lp85
S'Quasispecies 2-2 Loop Challenge'
p86
aS'AAAAAAGGCCAUCAGGAAAGAAAUUUCAAGAUGAGAGCAACAAGGGGGUUCAGCUCAACAAGGCAAAAAGCCAAGAAGAGCGCCUAAAAAAAAAAAAAAAAAAAA'
p87
aF1.0
aa(lp88
S'Corner bulge training'
p89
aS'AGAUAUCGAUACAAAGUAUCAAAAGAUAUCA'
p90
aF1.0
aa(lp91
S'Spiral'
p92
aS'AAAAAGAUCAGAUAUCAGGCAGAUACAGAUCAGAUCAGGAGGAGGAGGAGGAGGAAAAACCCCCCCCCCCCGAUCGAUCGUAUCGCCGAUAUCGAUCAAAAA'
p93
aF1.0
aa(lp94
S'InfoRNA bulge test'
p95
aS'AAAAAAAAAAAAAAAAAAAAAAAAAAAAAGUGUGAAAAUCAGCGAAGCGUCAUGCCGCGGUAGGAUCCCGAAAAGGCGAACCAUAAAGCAGGAAGGAGCGAAAAAGCAUGUAAAAAGCGACA'
p96
aF1.0
aa(lp97
S'Worm 1'
p98
aS'AAAAAAACAGACUGUCUGGUCAAUGUAUGGUUUCUUGUCCUGCGG'
p99
aF0.9555555555555556
aa(lp100
S'just down to 1 bulge'
p101
aS'AAAAAGAGCAGAUACGAAAGUAUCAGGCGAAAGCCAGCAUCAAAAGAUCAGGCGAAAGCCAGGCGAAAGCCAGAUCAAAAAAAAAAAAAAAAAAAA'
p102
aF1.0
aa(lp103
S'Iron Cross'
p104
aS'AGGCAGGGAAAAGCAGGCAAAGCCAGGCGAAAGCCAGCUAAAGGCAGGCGAAAGCCAGGCAAAGCCAGCCAAAGGCAGGCGAAAGCCACGCAAAGCGAGCCAAACCCAGGCAAAGCCAGCCGA'
p105
aF1.0
aa(lp106
S'loops and stems'
p107
aS'AAAAAGAUAUACAAAGAUCAAAGAUCAAACCUCAAAAAAAAAGAUACAAAAAAAAAAAAGUAUCAAAGAGGGAAAGAUCGAAAAAAAAAGAUCAAAGAUCAAAGGCAAAAAAAAGCCAAAGAUCAAAGAAAAAACUAAAGUAUAUCAAAAA'
p108
aF1.0
aa(lp109
S'Water Strider'
p110
aS'AAAAUGGAGUAGCGCUCACAUUAAUGUGGGCAAAAGCCGAGCGGGAAGUGAUAAACAUCGGGGAAACCCAGUCGCAGGCGCCUAAAAAAAAAAAAAAAAAAAA'
p111
aF0.9611650485436893
aa(lp112
S'The Turtle(s) Move(s)'
p113
aS'AAAGGAAAACCAAAGGAGAUAUACAAAAAAAAAGUAUAUCUCAAAAGAUCAAAAGGAUCAAAAAUGCGAAAGCAAAAGAUCCAAAAAAAGGAUCAAAAGGCAAAGCAAAAGCAAAAUGGCGAAAGCCUAAGGCUAUCGAAAAAAGAUAGCAAAAGGCGAAAGCCAAAAAGUUAUGAAAAGGCAAAAAAAGCCAAGGCAAAAAAAAGCCAAAGAUGCAAAAAAGCAUCAAAGAUGAAAAACAUCAACAUAACAAAAAAAAAAGGAAACUAAAAAGGAAAACCAAAAAAGAUACAAAAAAAAAAGUAUCAAAAAAGCC'
p114
aF1.0
aa(lp115
S'Adenine'
p116
aS'GAUACAGAUAUCAGGUACCGGGUUUCACGCAUGAGUAAUCGCAAGAUAUCAAAAAAGAUAUCAGAUUGCUGAUCCAAAGAUAUACAAAGUAUAUCGGAUCUCAUGUGACAUGGAUAUAUCAAAGAUAUAUAAACUAUGAGAGAUCAAAAGGUACCAAAAGAUAUCGAAAGUAUC'
p117
aF1.0
aa(lp118
S'Tripod5'
p119
aS'AAGAUCCAUUGAAAAAAUGGACCAAAAAGGUCGAUCAA'
p120
aF1.0
aa(lp121
S'Shortie 6'
p122
aS'GCAAAAGCACUGAAAAGGACGAAAGUAUCGAAAGA'
p123
aF1.0
aa(lp124
S'Runner'
p125
aS'AAAAUAAGCAGAAAAAAAGGCCUGAACGGCGUUUCAAAGGCACGACGUCGAAGACAAAGUCGGGGUCCAAGGUGCAUUUAGCCAAAGGAAAUGGCGAAAGCUGUCCAGUGUUAAAA'
p126
aF0.9482758620689655
aa(lp127
S'Recoil'
p128
aS'AAAAAGAUAGAAGGAAGGAAGGCAAGGCAAGGAAGCAAAGCACCAGCCAGCCACCACCAUUAUCAAAAAAAAAAAAAAAAAAAAA'
p129
aF1.0
aa(lp130
S'[CloudBeta] An Arm and a Leg 1.0'
p131
aS'AAAAAGGCAGCUACGAAAGUAAGCGUCAGGAAAACCGACAGCCAAAAAAAAAAAAAAAAAAAA'
p132
aF1.0
aa(lp133
S'[CloudBeta] 5 Adjacent Stack Multi-Branch Loop'
p134
aS'ACGACCGGGGAAACCUGUAGACGAAAGUCUACCUACGAAAGUAGGGAUCUAAUGAUCGUCGUA'
p135
aF1.0
aa(lp136
S'Triple Y'
p137
aS'AAAAUAACCAGUAUAUUGAAUGUUAUUUCGUAAACAAUAUUGAAAGGUCGAAAGAUCGAUCGAAAGAUUCUUCGGACUAAAAAAAAAAAAAAAAAAA'
p138
aF0.9175257731958762
aa(lp139
S'Misfolded Aptamer'
p140
aS'GAUCUAAAAAGGGGCAAAGCCAGGAAAACCAAAAAAAAACCAAAAUGAUC'
p141
aF1.0
aa(lp142
S'Flower power'
p143
aS'AAAAGGAUCUUUUUAUGUACAGAUCGAGGUACUCUCAUGCUCUAUGAUCAAGUUUUAUAAGCGAUCGCACAAAAUAUGGGUCAAAAAAAAAAAAAAAAAAAA'
p144
aF0.8627450980392157
aa(lp145
S'Kudzu'
p146
aS'AAAAAGCGUGAGGAGUCGGAGAUGAUGAAACACAAUCUCCGUGUUAAGGGUUAUGACCCGUAUCGGAAAGGUAUAACUUGCAAAAAAAAAAAAAAAAAAAA'
p147
aF0.9405940594059405
aa(lp148
S'"1,2,3and4bulges"'
p149
aS'AAAAAUACCGCAUGGCAAUUGGAAGAUGAGUAGAAAUGCGGGCAAAAAAGAGAUGAUAAAGAAAACCUGGUGAAAGCCAUUAAUCGAAAAAAAAAAAAAAAAAAA'
p150
aF0.9619047619047619
aa(lp151
S'medallion'
p152
aS'GAGGUCAGAUAUCGAAAGAUAUCAGGCGAAAGCCAGGCGAAAGCCAGAUAUCGAAAGAUAUCAGGCGAAAGCCAGAUAUCGAAAGAUAUCAGGCGAAAGCCAGGCGAAAGCCAGAUAUCGAAAGAUAUCAGGCGAAAGCCAGAUAUCGAAAGAUAUCAGGCGAAAGCCAGGCGAAAGCCAGAUAUCGAAAGAUAUCAGGCGAAAGCCAGAUAUCGAAAGAUAUCAGGCGAAAGCCAGGCGAAAGCCAGAUAUCGAAAGAUAUCAGGCGAAAGCCAGAUAUCGAAAGAUAUCAGGCGAAAGCCAGGCGAAAGCCAGAUAUCGAAAGAUAUCAGACCUC'
p153
aF1.0
aa(lp154
S'[RNA] Repetitious Sequences 8/10'
p155
aS'AGGAAAAAAGGAAAAAACCAAAAAAGGAAAAAAGGAAAAAACCAAAAAAGGAAAAAACCAAAAAACCAAAAAACCAAAAA'
p156
aF1.0
aa(lp157
S'Documenting repetitious behavior'
p158
aS'AAAAAAAGGAAAAAAAAAGGAAAAAAAAAGGAAAAAAAAAGGAAAAAAAAAGGAAAAAAAAAGGAAAAAAAAAGGAAAAAAAAAGGAAAAAAAAAGGAAAAAAAAAGGAAAAAAAAAGGAAAAAAAAAGGAAAAAAAAAGGAAAAAAAAAGGAAAAAAAAAGGAAAAAAAAAGGAAAAAAAAAGGAAAAAAAAAGGAAAAAAAAACCAAAAAAAAACCAAAAAAAAACCAAAAAAAAACCAAAAAAAAACCAAAAAAAAACCAAAAAAAAACCAAAAAAAAACCAAAAAAAAACCAAAAAAAAACCAAAAAAAAACCAAAAAAAAACCAAAAAAAAACCAAAAAAAAACCAAAAAAAAACCAAAAAAAAACCAAAAAAAAACCAAAAAAAAACCAAAAAA'
p159
aF1.0
aa(lp160
S'7 multiloop'
p161
aS'UUUACACUGGAAACGGUGGCCGGUAAUCCGGCGAUCUGAAAAGAUCGGUGAAAAAUCGUUUGAACAAAGGUUGCACAAAGAACUGUCUCCCG'
p162
aF0.9021739130434783
aa(lp163
S'Kyurem 7'
p164
aS'AAAAUUGCCGUGAUCGAAAGAUCCGGAAAGAAGUUCAAAAAGUUAUGGGUGCAAAAAGGCGAAAUUUCAUCCGGCACAGCUGUAAAAAAAAAAAAAAAAAAA'
p165
aF0.9215686274509803
aa(lp166
S'JF1'
p167
aS'GAUACAUAUAUUUAUACAAGAUACAAAAGAUAUCAAGUCACAAAGAUACAAGAUAUCGGAUAUAUAUAUAUCGAAAGAUAUAUAUAUAUCAAGGCGAAAGCCAGAUAUAUACGAAAGUAUAUAUCAAGAUCCGAAAGGAUCAGAUAUCAGUAUCAGUGGCAGAUAUCAAAGCGAUAUGAAAAACAUAAUUGCAAGAUAUAUAUAGAUAUAUAUAUAACAAAGGUUAUAUAUAUAUCUUAUAUAUAUCAAAGAUACAAAAAAGUAUCGAUAUAUAUCUAAUGAUAUAUAUCAGAGAUCAAAAGAUCAGGUAUCAAGUAUACAAUCAGGCAGGUGAAAGCCGCCGAUUCCAUGGAUACGAAAGUAUUGCAUGAAUAUAAUGAUAUCAAA'
p168
aF1.0
aa(lp169
S'multilooping fun'
p170
aS'AUAGGGUUCAAAAGGUUAAUGUAAGCAUGAAAACGU'
p171
aF0.8611111111111112
aa(lp172
S'Multiloop...'
p173
aS'GAUCAGAUCAGGCGAAAGCCAGGCGAAAGCCAGGCGAAAGCCGGGCGAAAGCCAGGCGAAAGCCAGGCGAAAGCCAGAUCACAUACAAAAAAGUAUGGGCGAAAGCCGAUC'
p174
aF1.0
aa(lp175
S'hard Y'
p176
aS'AAAAUAGUGCGUCAUAGAUAGAAAUAUCUACCGCCGACAUAUAUCAAAGGAUAUAUGUCCAUUUAAAA'
p177
aF0.9705882352941176
aa(lp178
S'Mat - Elements & Sections'
p179
aS'AAAAGGAACCGAAAGAAUCCAAUUGUCCUUAGUUUUAGUGCUGAAAGGCUCCUAAACGAGGCCAGUAUUGGGAUGGAUGUUGUUUAAAAAAAAAAAAAAAAAAAA'
p180
aF0.9619047619047619
aa(lp181
S'Chicken feet'
p182
aS'AAAAAUGACUCGUAAGAGCAGAAACUGAAAGUUAUCAUUACGAAACGAACUAUGUCAAAAGAAAAAA'
p183
aF0.9402985074626866
aa(lp184
S'Bug 18'
p185
aS'CUUACUGCAAGUAAGAAACCAGCCAGGCGAAGAUCAAUGACGAAGUAAAAAAA'
p186
aF0.9622641509433962
aa(lp187
S'Fractal star x5'
p188
aS'AAAAAGAUAUAUGAAGAUCGAAAGAUCAAGAUCGAAAGAUCAAGAUCGAAAGAUCAAGAUCGAAAGAUCAACAUAUAUCAAAAAGAUAUAUGAAGAUCGAAAGAUCAAGAUCGAAAGAUCAAGAUCGAAAGAUCAAGAUCGAAAGAUCAACAUAUAUCAAAAAGAUAUAUGAAGAUCGAAAGAUCAAGAUCGAAAGAUCAAGAUCGAAAGAUCAAGAUCGAAAGAUCAACAUAUAUCAAAAAGAUAUAUGAAGAUCGAAAGAUCAAGAUCGAAAGAUCAAGAUCGAAAGAUCAAGAUCGAAAGAUCAACAUAUAUCAAAAAGAUAUAUGAAGAUCGAAAGAUCAAGAUCGAAAGAUCAAGAUCGAAAGAUCAAGAUCGAAAGAUCAACAUAUAUCAAAAA'
p189
aF1.0
aa(lp190
S'Crop circle 2'
p191
aS'AUUAAAAUAAAGCAAAAGUGUAAAAAAAAGGAAAAAAAAAAAAAAAAAAAAAAAAAAAAAGCCAAAAAAAAAAAAAAUGAAAAAAAAAACCGAAAAAUCUAAAUAUAAAA'
p192
aF0.9636363636363636
aa(lp193
S'Branching Loop'
p194
aS'GUAGAGGAAAAAAGCCUUAGAAAUAAGGCUCUGAAAAAAA'
p195
aF0.95
aa(lp196
S'Bug 38'
p197
aS'AUUAUAGCGAAGAAUAAAAGUCCCAAAUAAAAGAAA'
p198
aF0.9444444444444444
aa(lp199
S'Simple Single Bond'
p200
aS'AAAAAAGGAAAAAAAUAUUCUAAAUGAAUUAAAAAAAACGAAAAAAAAAAAAAAAAAAAAA'
p201
aF1.0
aa(lp202
S'Taraxacum officinale'
p203
aS'GAUCGAAAGAAUCAGAUCGAAAGAAUCAGAUCGAAAGAAUCAGAUCGAAAGAAUCAGAUCGAAAGAAUCAGAUCGAAAGAAUCAGAUAUAUAUACGAUAUAUGUACAAAGUACAAUAUAUCAGAUACAAGAUAUAAAUCAAGAUAUACAAAGUAUAUCAGAUUUAUAUCGAUCAGAUAUCAAAGAUAUCGAUCGUAUCAAAGUAUAUAUAUCAGAUCGAAAGAAUCAGAUCGAAAGAAUCAGAUCGAAAGAAUCAGAUCGAAAGAAUCAGCUCGAAAGAAGC'
p204
aF1.0
aa(lp205
S'Headless Bug on Windshield'
p206
aS'AGGAGGAAAAACAGAGAAAGGAGUGAAAAAAAAAAAAAAAAAAAAAAAAAUGCACCAAACUCAUGAAACCACCAGGUAAAGCAAGGAAAAAAUUCAAAAGAUAAAAAACCGCUAAAAAACCCAGAUGAAAAAAAUGUCGAGGAAGGCGAUUAGGAAAAAAAAAAAAAAAGGCCAAGAGAGUCAACCAGACUAUUAAAUCG'
p207
aF0.99
aa(lp208
S'Pokeball'
p209
aS'AAAGAAAUACAAAAGGAAGGAGGGCAAGGAAUGAAGGAAGGAAGUAAGCAAAGCAGCAACCACCACGAACCAGCCACCACCGUAUUUCAAAAAAAAGUUAUACAAAAGGACGGAAGCCGAGGAAUGAAGGAAGGAAGGAAGCAAAGCACCAACCACCACAAACCAGGCACCACCGUAUAACAAA'
p210
aF1.0
aa(lp211
S'Variation of a crop circle'
p212
aS'AAAUGGUAAGGAUUAAGGAAACUCAAAAAAGGAAUCCCGUUAAAUGAAAAAAAUUAAAAAAUUCAAAAAAAAUCCUAAAAAAAAAAAA'
p213
aF0.9318181818181818
aa(lp214
S'Loop next to a Multiloop'
p215
aS'AGGAUCGUUUAAAAAAACAGAUGUCGAAAGACAUCGGAGCUACGAAAGUAGUUCAGAAAAAAAGAAUGAUCAA'
p216
aF0.9726027397260274
aa(lp217
S'Snowflake 4'
p218
aS'UCCCAAGGGGGCGGUGUGUAAUCGGUUACAAGAUAGGGAAAACCACCACGAUCAAAGGUGAAGGGCGAGGCCCGUGGUGGAAAACUUUAUCAAGGUACGGAAAACCGCUUCGAACGAAGAUCAAGCUCAAAGAGCGGAGCGGAAAAGCGUACCAAUAUACAGAAAAUAUCUACGAACUAUGUUUAACGCCAAAGGUGGUAUAAGAAAACCGGAUAAACAUAGGGAAAACCGUUAGGAUCGAACUUCAAGAUCGAAGAUCCUAGCGGAAAACCUUAUGAUAAAGCGUGAAAGCGAUACGAUCAAAGCUUAAGAUCAAAGUUCGUGUCGGAAAAUCGCAUUUAGUGGCUGAAAACGCACCGGACGGAAGGUC'
p219
aF0.8594594594594595
aa(lp220
S'Mat - Cuboid'
p221
aS'AAAGUAAAAGGAAGGAAAAGGAAAGAAAAGAAGGAACGAAAAGGAAGUAAGGAAAAGAAGGAAGGAAUGAAAAGGAAGUAAGGAAGGAAAAGGAACGAAGGAAGGAAGGAAAAGGAAGGAAGGAAAGAAGGAAAAUGAAGCAAGGACGUAAAGAAUGAAAAGGAAGCGAGGAAGGAAGGAAGGAAAAGGAAGGAAGGAAUGAAGGAAUGAAAAAACGAACCAACAAACCAACCAACCCCAACCAACCAACCAAGCAACCCAAAUUAACUUACCAAGCAAAGCAAACCAACCAACCAACUCCAACCAACCAACGAACUCCAACUAAACAACCCGAACCAACCAACCCAACCAACCUGAACCAACCUAACCUCAACCCCAAU'
p222
aF0.9947368421052631
aa(lp223
S'Misfolded Aptamer 6'
p224
aS'AAAAAAGGCAAAAAAGAUCAGCAAAAGGCAAAAAAAAGCCAAAGGAAAAAGAUCAAAAAAGGCCAAAAAAAAAAA'
p225
aF1.0
aa(lp226
S'Snowflake 3'
p227
aS'AUUCCGAAAGGAUCCGGCGAAAGCCAAGCUCAUAUCAAAGCUAAUGCUCGCAUGAAAGGCGACAAAGUCUGAAAACAAGCGGGCGAAAGUCAAGAUAGGAACAAGUGUAAUUGCAGCAGGAAAGCCCGCAAAGCGUGAAAACCAGCUGGAGAAAUCCAGGUUCAGCUCAAGGAGAAAUCCGACAGGGAAACCGGCAAAGCCUGGAAACGCGGCGGAGAAACCCAAGAGCGGUUCAAGACGAAAGACGCCAGGAAAACCGGGAAACCCGGAAAGCCAGGCGGGUAAACACAAGAGCAGUUCAAGGCGAAAGCCGGGAGGAAAACCGCCAAGGGCAUAAAAAUAUCCGGCGAAAGCCAGGAACGGAGCAAGGGGAAAUCCGGAAUGGAAACGGGC'
p228
aF0.8778625954198473
aa(lp229
S'Hard Y and a bit more'
p230
aS'AAAAUGCGGAGGCUAGACGAAAGUCUCGCCCUUGAAUGAAGUUCAAAGGGACGAGAUACAAAAAGGUAUCGACAGUCAGGCUCGCUAAAAAAAAAAAAAAAAAAAA'
p231
aF0.9716981132075472
aa(lp232
S'Mat - Lot 2-2 B'
p233
aS'UAAGGAAUACCCACCUAAAAGCAAGAUCGAAAGAAAAAUUAAACGGUACAAAAAGUUGCCGGAGCGAACGAACGACGAGGACAAUAUAAUUCAAGGAAAAGGGAAACCCCAGGAAAAAGUAAUCCUAAGUGGAAGGAACCUAAUGGGGAGGAGUAAAGAAGAUGUAGAUCGAAAGAAAAAUCAUCAUGAAAUAAAAUCAGCUCCAACCAACGAAUGACAAGGAAAAGGAUCUUCGAGGAAAAUGGAAACACCAAGAAAAAUUUACCCCAGGUCGAACCAACAAG'
p234
aF0.8380281690140845
aa(lp235
S'Shapes and Energy'
p236
aS'AAAAAGGAGCUCACGUCAAAAGAAAGGUUAGGAAACAGACCGAGCGACGAAGGAAAAAUCAUCGAAAGAUGCCAGGGUGCAAAAAAAAAAAAAAAAAAAAA'
p237
aF1.0
aa(lp238
S"Spiral of 5's"
p239
aS'CAAAAGAUACAAGGAGACAAAGAUACAAAAUAAACAAAGAUACAAAGAUACAAGAUACAAAACAUACAAAGAUUCAAAGAUAGGAGAUACAAAUAUACGAAGAUAUAAGAAUCAAAGAUAGAGGGUACAAGAUAUAAGAGACAAGAUACAGAUACAGACAUUUAUCAAAAGGAUAAGGGGUAUGUCGAAAAGUAUCGAAACGUAUCAAAAAGUCUCAAAAAGUAUCAAAAAGUAUCAAAAAUUAUCAAAAAGGUUCAAAAAGUAUCAAAAAGUAUAAAAAAGUAUCGAAAAUUAUCAAAAAGGAUCAAAAAGUAUGAAAAAGUAUCAAAAAGUAUCAAAAAGUAUCAAAAAGUUUAAAAAAGUAUCAAAAAGUCUCAAAAAGUAUCAAAAGGAAAAA'
p240
aF0.9949622166246851
aa(lp241
S'Campfire'
p242
aS'AAAAGGGGAGUGGACAUAGUUAACAUGAAAAGCGUGAAAUUCUAUUGCAUAUGUUUGAUCUCAGGAGCAGAUAUUAAAGUGAUCGGCCCAUCCUGGAGCAGGAAAGCCGCCCGGUUAAAGGAAACUAUUAACUAGGGAAUGGAGAAUCGACUACCGGGGCAUGCAGGUUGAAAGAUCGCGGCUUAGAGACCAAAGCUACCACUAACCGCCCC'
p243
aF0.8915094339622641
aa(lp244
S'Anemone'
p245
aS'AAAGAUCUCGAAAGAGAUCCAUACGAAAGUAUGGGUAGCUAAUGUUAUCGAUACAAAGGUAUCGAUAUCGAAAGAUAUCCAGACGAAAGUUUGCGUGCAAAGGCACGGAUGUAAAAGUACAUCAGGAACAAAGGUUCCGAUAUCGAAAGAUAUCCAAACGAAAGUUUGCAUAUCGAAAGAUAUGGAUGCGAAAGUGUCGACAGUGAAAGUUGUC'
p246
aF1.0
aa(lp247
S'Fractal 3'
p248
aS'AAAAAGCACUGAGAGGAAAACCUGGAAACAACUCUGACAGGUAAUCCGGAAAGUUAGCCAGUCGAAAAAAUAGAAAAGACAGGAGGACAUGAAAACGGGAAAAUCGGCCUGUGCGAAAA'
p249
aF0.8823529411764706
aa(lp250
S'Kyurem 5'
p251
aS'AAAAGGGUAUUUUCCUAAUGGGAGUAAAACUGCGAGCAAAGAUAAAAGGCAGCUCAGCUAAAAUGCUGGAUGACGUACAUAAUCAAAAAAAAAAAAAAAAAAAA'
p252
aF0.9423076923076923
aa(lp253
S'Snowflake Necklace ( or v2.0 )'
p254
aS'AAUAUAAAUAGAUACUGUUACACCAAAAAGGAGGAAAAGCCAGGAAAAACCAGGAAAAACCAUUAAAAAGGGGUAGCCGCCAAAAGGGCAGUUACACCAAAAGGGAGUAAAAACCGAGAAAAACUAGGAAAAAUCGUGAAAAACAAGUAGCACGCAAAAAGCGGCGUACAUCAAAAGGAAUAAAAAAUGAGGAAAAACCAGGAAAAACCGGGAAAAACCAGUACGAGGUAAAAAGCCAUAUAUUCGGAAAACGACGAAAAACCAGGAAAAACCAGGGAAAACCACGAAAAACGUAUAUAAGGCAAAAAGCCGGUUACACCAAAAAGGGGGAAAAACCAGGAAAAACCAGGAAAAACCAGGAAAAACCAGUAUCAGUAUUUAUUUAUGUU'
p255
aF0.8868894601542416
aa(lp256
S'Methaqualone C16H14N2O Structural Representation'
p257
aS'AAAAAAAGGUCAGUGUAGGCAGGCGAAAGCCAGGCAGUCGAAAGACAGUCAAUCGAAAGAUAGGCAGGAGAAAUCCAUGCAAAAAAAGCAAGCCAGACAGCCGGCCAGAGACAAAGUAGGAGAAAGGAUCAAAUCGAAACCUAAAAAAAUGCAAGCAGUGGAAAUUGGGCGAAAGCCGUAGAAAUGCGCCAGGAAAUAUCAGAAACAGGCGGACAUGGUACUAGGCGAAAGGCGAAAGCCAGCCAGGCGAAAGCCGAGUUGGUGAAAGCCACCAUCGCGAAAGCGAGUCAGGACGCGAAAGCGGUCGAAAGACAGUCGAAAGAUUCCAGCCAGAUAGAACUCCAGAUCGAAAAAA'
p258
aF0.9492957746478873
aa(lp259
S"Cat's Toy 2"
p260
aS'AAAGUGGGUGCAAAAAUUAAGGAAAAAAAAAAAAAAAAAACAACGAAAUCAAAAGAGAAUAAAAAUGAAAAAAAAUCGAAAAAUGUGUACUUAAAAA'
p261
aF0.9587628865979382
aa(lp262
S'Zigzag Semicircle'
p263
aS'AAAUGAGUUGAUACAAAAGAUACCAUAUUGUAAA'
p264
aF0.9411764705882353
aa(lp265
S'Short String 4'
p266
aS'AAAAAAGUAUGAAGUUAGGAAGUUUAGGAAAACGGGAUCAAAGGGGGGGGAAAGUCAACCGAUAAACUACAACAACAAAAAAAAAAAAAAAAAAAAA'
p267
aF0.9381443298969072
aa(lp268
S'Gladius'
p269
aS'GGAAACAACAAAUAAAAGCUGUUAGCAAAGGCUGUCAAACAUCGAAAGAUGACACACAAGACGCUUGUUGUGAUGGCAUCAAGAGACAUGGAUGCUAGAUGACAAUGAUCAGAUCAAGGUCAAAGAUCAGAUACGAUCUAUGUCCACUAGCCAUCAUGUCAAAAGAUGAACACACAUUCUGCCAAUAGUGUGAGACGACGGCACAUACUUUAUGCAUUUCCGGUGAACAUCGUAAGAUAUACCUAAAACAGAUACAGAUAUAAGGCAGAUUCCGAAAGGGAUCAAGUCUAAUAUACGUAUACGUUUUAAGUAUGUCAAAAGAUGACGUCUGCUAAGGCAUGAUGUAUGAGAAAGAAAUUUUAAAGCUUGCUAAGGAACCCUACGAAUUAAACAAGAAAAC'
p270
aF0.905
aa(lp271
S'Thunderbolt'
p272
aS'GGAAGCUUCGAAAAAAAUAGGAGGGAGAAAAAGAAAACAGAGACACCAAAAAAAAAGCAAAAAGGACUAAAAAGGUUAAAAAAGCAAGGGAAGCAAAAAAACAAUAAAAAGAAAGAACGAACAAAAAUGGAAAUGGUUCAAAAAUACGGAAACAACUAGAAACAAGAGGAAAAAGUGAGUUCAAACAGAAAAAUAGGGCGAAACGAUAAGUAAAAAGGAGGGAACAAAAAAAAGAACUAAAAUAUUUUAAAGAGAUAGGCAAACAGAAAAAAAAAGCAACCAAAAAAAAAGAGCCAAAGGGUGAUUGAAAAGGAAAAAAACGAAAAGAUUACAACAACAAAGGUGUCUCAAAAAAAACGCCAACCAAAAAAACGAAAAAAGAGAAGCAACCA'
p273
aF0.9540816326530612
aa(lp274
S'Mutated chicken feet'
p275
aS'AAAAAAAGGAGAAGGAAAACGAGAAACUGAGUCCCAGGAGGGCGGAACGAUGAAAUCAAGUCCCGGUAGGGCGAAACGCGCAAAACAAACUAUAAAAAAA'
p276
aF0.86
aa(lp277
S'Chicken Tracks'
p278
aS'AAAAAAAAGAUAUACCAUCUAAUGGUGAAGAUCGAAAGAUCAAGACCGAAAGGUCGUAUAUCAUGGCGUGGAAACCACAAGAUCAAAGAUCAAGACCAAAGGUCGCCUAAAAAAAA'
p279
aF1.0
aa(lp280
S'Looking Back Again'
p281
aS'CGGAACGCUAUCGAAAGUAUCGCAAGGCGAUGAGAUAAAGGGGGCAAGGAAAGUCCGCCGGAUAUAAUGGUCGAAAGACCUAAGGUAUCAACCCAAGCCAUGCACGACAAAAAGAUACUAAUGUAUCAAAAAAGCCCAUAUAGUCUGAAAGACGGAGACUAAGUCUCGUUAUCAGUUGAACAAGGUCAAGGACCACGAAAGUGGAACAGUACGGAAUCUGUCGAAAGGCAAGAUAACAAAGUAUGAGGCUGUCACAGAUCAAAAAAGAGCUGCAAAAAAAAGAGCAAAAGGCUCACAUAAAACCGGAACUUGCUAAAAAGCGACAUGGAAACAUGUCAACAGUCGAAGGAUAUACAAGCUAUGGACCGUCAAAUGCAAGUGGCAAGCAG'
p282
aF0.8894601542416453
aa(lp283
S'Multilooping 6'
p284
aS'AAGAUACUCAGAAACGAAAGUUUCCAUACUAAUGUAUGUCCAGAUAUACGAAAGUAUGCGGAUAAAGGUUUGUCAGUAUCGA'
p285
aF0.926829268292683
aa(lp286
S'Cesspool'
p287
aS'GAAGAAGAAAGCAAGGUGACACAGUCAAAAAAAAGAAGAAACUAUAGGAAAAAUAACUUAAUGAAAAAAAUAAAAGAAAACAACAACAAGAAAAAGGAAACAAGGAAACAGAGGGAAACCCAACAAGAAGCAAAUAAAAAAAUAAGAGAAUGAAAAAGCAAAAAGAAAACACUAACAAGGAGAAAGAAAACAAUGAAACAAAACCAAAGGUAAUAAGGAGCAAAUGAAAAAAUAAAAGAUGGAAAUUACAAAAGUAAAACACCAACAAAGGAGCAAGAAAACAAGCGAACAGAGGCAAAGUCAAUAAGGGCGCAAGAGAAAAAUAACAGAAAGAAAUGACAAAAAGAAAACACAAACC'
p288
aF0.8128491620111732
aa(lp289
S'Hoglafractal'
p290
aS'AAAAGAAACAUACAAAAGUUACAAAAAAGUAAUGUAUGAGUGAACGUUCUAAAUGGACCAUGUCCAAGGCGAAAGCCGGCGGGCAAAAAUCAAAGAUCGAAAAAGAUCGGUGGCGAAAAGAAAAACUCCCCGGAGGAAAACCCCAGAUCAAAAGACGAGGUAAAAAAGUCACCGCAUGAAAAACAGCGAGGAAAGUCACAUAUUAAAAGGAGGAAAAAGACCGCGCAAAAAGCCGGAAAACCAGAUAUCAAAAAACGGUAAAAUCCGGGGAAAACCAAUGAUAUAUAAAGUGUCUCUAAAAAAGAUAUCAAAAAUGUAUGAAAAAGGUCAAAGGCCAAAUCAAUAAACGGGAGACCAAAAGAUAAUUCGGAAAACCGAUAUCAAAGAUAUCGGAUCCCAG'
p291
aF0.9175
aa(lp292
S'Bullseye'
p293
aS'AAAGGGUCGUAAAAGUGAGGCACGAAGUGCAAGGGCGAAGCCCCACAAAAAAAAUACCAUGAAGCAUAAACUGAUAUUCGGGAUGGCAAGGCUAGAGGUAAAAGGCGGCUAGGAACUGGAAGAUCAAAGAUCGGUUGCGAAAUGAUGCAAAAAAAUGGGUAUGAAGUGCAAGGAGCAAGGCUCAAUAUCAAGCAUGCCCUAA'
p294
aF0.8613861386138614
aa(lp295
S'Shooting Star'
p296
aS'UAUGUCGAUGUCUAUACUAGGAGAAGUAGGCAGAGAGGGAAACACUUACGGUAAACAACCAUGUAUAGGAGAUACAGGAAAGGGGGGCAGAUACAGGCAGGUCAGGAAAACACGAUACGCCGAUGUACGCCACACAAACAAGCGAAAGAGUAUCCAAUCACACAAAUUGAAAGAAUCUAUGAUUCGAGGAAACAUAGAUGAAGGCAGAUUACAAGAAAGCUAUACAAAGUAUAGCAGAUACUAUGUGUCCUUGGACUUGCAAACCAGCUCCCAUAUAAAACAUGCAUUAGUGAAGUAAUAAGACAUGGGCAGGGGCAGAUCAAUAAAAGUCGAUACGCCACGAGAACUGAACCAUCAGACAUAA'
p297
aF0.8021978021978022
aa(lp298
S'Teslagon'
p299
aS'AAAAAAUGAAAAAAAGAAGAAAAAAAAGAUUCGAAAAAAAAAAAAAAGUUAAAAAAAGGGAAAAAAAAAAAAAAACCACCAAAAAAACCAGGAAAAAAGGAAAAAAAAAAAAAAAACCAAAAAAACUGGGAAAAAAAUGUAAAAAAAAAAAAAAAAAUUAAAAAAAAAGAGAAAAAAAAAAAAAAUCACGAAAAAAACCAAGAAAAAAAGGAAAAAAAAAAAAAAAUCGAAAAAACCAGUGAAAAAAGGAUCUAAAAAAAAAAAAAUGAAAAAAAAAAGGAAAAAAAAAAAAAAACUACCGAAAAAACCAAGAAAAAAAUGGAAAAAAAAAAAGGAAAAAAAAAAAAAAACCAACGAAAAAAUUGCCAAAAAAACGAGAAAA'
p300
aF0.9109947643979057
aa.