(lp0
(lp1
S'Simple Hairpin'
p2
aS'GAUACAAAAAAGUAUC'
p3
aF1.0
aa(lp4
S'Arabidopsis Thaliana 6 RNA - Difficulty Level 0'
p5
aS'CGCGUACAAAAGGCAAAAAAAAAAAGCCGGCGUAUCUUGAUAUUAUAAUAUAAUAUCAAAGAUACAAAAAAGUAUCAGAUAUUAGUGUUAUAAUAUCUUGAUACGCCAAGUACGCG'
p6
aF1.0
aa(lp7
S'Prion Pseudoknot - Difficulty Level 0'
p8
aS'AAGAUCAGAUCGAAAGAUCGAUACUUAAAAAAAAAA'
p9
aF1.0
aa(lp10
S'Human Integrated Adenovirus - Difficulty Level 0'
p11
aS'CUUACCAACAGGUGUGGUAUCAAAAAAAAAAUCGUCGGCAUGGCCAACAGCCGAGACAAAACCGACAGUAAUAUGAAAAAAAAUAUUAUUGUGAAACGGGUCUCAAAGGGCGCCCAGAGUGCCAAAGGGGUAGAAAAAAUAUCUUGACGUAAAAAAAAAAGGAUACCUCGCCAAAAUGUUGGAAAUAAGAAA'
p12
aF1.0
aa(lp13
S'The Gammaretrovirus Signal - Difficulty Level 0'
p14
aS'AAGCGUUGGUUACGAAAGUAACCUCCUCAAAAAGGAGCAAGGCAGACUGAUGCGAAAGCAUCCGAAGGUCGCCGCUCAAGGCGUAUCGAAAGAUACGCCGA'
p15
aF1.0
aa(lp16
S'Saccharomyces Cerevisiae - Difficulty Level 0'
p17
aS'UCUGGGCGAACGAAAAAAAGUUCCGUUAAAAAAAAAAAAAUAUAAAAGUUAAAAAAAAAUUAGCGCUUAGGAAAUGUCAACCAGGAUCGAAAAAAAGAUCGGGCCAAAAAAAAAACCCCCAAGGGAACGAAAAAAGUUCCAGAGGGUUAAUAGCGUAGCAGAACGAAAAAAAGUUCCAUAUCAAAAAAGGAUAUGAAAAGAUCCAAAAAAGGGAUUCUGCGCUUAAAGUACUGCAACGGCGAAAUAAAGCUGGUUAACAAAAAAGGUUAACAAAUGACCCGAAAAAAGGGUCGUAGUACAAAAGCCGUACAACUUCUAAAAAAUGAGGCAUUUCUAAAAAUGAAAUGAAAACUUACGAAAAAAGUAAGGUACGGCGAAA'
p18
aF0.9894459102902374
aa(lp19
S'Fractal 2'
p20
aS'AAAAAGGCGUAUCAAAGAGAUGUAAGAAGAGCAAAAAAAAAAGCUCAGUGGCAAAAAAAAAAGCCAAAGAUCAAAAAAAAAAGAUCAACUUACAUCUCAAAAAGAUGUAAGAAGAGCAAAAAAAAAAGCUCAAUGGGUAAAAAAAAUUCCAAAGCUCAAAAAAAAAAGAGCAACUUACAUCUUAAAGACAUGUUAGAAGAGAAAAAAAAAAAUCUCGAUGGCAAAAAAAAAAGCCAAAGAACAAAAAAAAAAGUUCAACUGACAUGUCAAAGAUACGCCAAAAA'
p21
aF1.0
aa(lp22
S'G-C Placement'
p23
aS'AAGCAAAGCUUA'
p24
aF1.0
aa(lp25
S'The Sun'
p26
aS'AGGACGCAUAUAAAGUAUAAGUGCUUAAACUGAGUCGCACAAAGUGUAAGAUCAGAAACGGAGGCAUUGAAGGAAUAAGCCGCGAAGCGAAGGCAUACUAUAUAUAAGCUCCGAAGUUAAGACAUUCGAAGGACAAGUCGCAAAACGGAGAUUUAAAAACUGUCAAUCCUGAAUCUGAGCCAGUGAUGUACUAAGGCCAGUAACGGAAGCAAGCAACGGAAAAGCCCUGAAAAUGAGGGAUACGAAGUAUAACCCUAU'
p27
aF0.8682170542635659
aa(lp28
S'Frog Foot'
p29
aS'AAAAAAAAAAGGUUGAAAAACUGAUCGAAAGAUCGAGCGAAGCUC'
p30
aF1.0
aa(lp31
S'InfoRNA test 16'
p32
aS'GCUAUCGGGCUGUGCGAAAGUACGCGCACGGAUAGC'
p33
aF1.0
aa(lp34
S'Mat - Martian 2'
p35
aS'GAUCGAAAGAUCAAAGGCGGACAAUGCGUACAAAAAAAGUGCGCAGUCCGCCAAAGAAGUAAUAAAAAAGGCGUACAGGUGUACAAAAAAAGUGCACCGUACGCCAAAGAUAUUAUAAUCUCGAAAAAAGAGAUUAUUAAUAUCAAAAAAAUUACUUCGAUGAAUAUGAGAGUGCAAAAAAAGCACUCUAACAUAUUCUAAGAUCGAAAGAUC'
p36
aF1.0
aa(lp37
S'square'
p38
aS'GGCGUACCAGAGCCAGAGACCAUGUCAAAGACAUGAAAAGUCUCUGAAAAGCUCUGAAAAGUACGCC'
p39
aF1.0
aa(lp40
S'Six legd turtle 2'
p41
aS'AAAAAAGAAGCGGAAACGAAAACGAAAGUAAAUAGAAAUGUAACGGAAAUGAAACUCUAUAGGAACGAAAAACAAACCAAAAAAAAAAAAAAAAAAAA'
p42
aF0.9591836734693877
aa(lp43
S'Small and Easy 6'
p44
aS'AGAUGGAAAAUAUACAAAAAAAAAGUGAUG'
p45
aF0.8666666666666667
aa(lp46
S'Fractile'
p47
aS'AAAAAAAAAAAAUGGAAACAAAAUUAAAGUAAACGCGAGUAAAUCUAACGGAAAGAAACGAAAACGAAAGAGAGGCUAAUCGAAAAAAAAAAAAAAAAAAAAAAA'
p48
aF0.9619047619047619
aa(lp49
S'Six legd Turtle'
p50
aS'AAAAAGGGAAAUGAAAACAAAAAUGUAAACAAAAAGUAAAAGCAAAAAGUAAUUUAAAAUGAAAAUAAAAGCUAAAUGAAAGAUCAAAAAAAAAAAAAAAAAAAA'
p51
aF0.9238095238095239
aa(lp52
S'snoRNA SNORD64'
p53
aS'GGUAUCAAAAAGGCAAAAGGCAAAGAUACAAAAAAAAAAAAAGUAUCGAAAGCCAAGCCAAGAUACC'
p54
aF1.0
aa(lp55
S'Chalk Outline'
p56
aS'AAAAAGAUCAGAUACGAAAGUAGUCAAUCAGGCGAAAGCCGAUAGGUAGCAAAGGCAUACCAGCCACGAAAGUGAGCGAUCAGAAAAAAAAAAAAAAAAAAAAA'
p57
aF1.0
aa(lp58
S'InfoRNA bulge test 9'
p59
aS'GGCGUUCAGCGAGAGGCUUGCAAAGGCAGGCCCCCGGACGCC'
p60
aF1.0
aa(lp61
S'Tilted Russian Cross'
p62
aS'AAAAAGGUGGCGGAAAACCGCGGUCAGAUCGAAAGAUCGAUACUAAUGUAUCAGAUCGAAAGAUCGACCCAUCGAAAGAUGCACCAAAAAAAAAAAAAAAAAAAA'
p63
aF1.0
aa(lp64
S'This is ACTUALLY Small And Easy 6'
p65
aS'AAAAAAAAAAAAAAAAAAAAAAAAAAAAAAAAAAAAAAAAAAAAAAAAAAAAAAAAAAAAAAAAAAAAAAAAAAAAAAAAAAAAAAAAAAAAAAAAAAAAAAAAAAAAAAAAAAAAAAAAAAAAAAAAAAAAAAAAAAAAAAAAAAAAAAAAAAAAAAAAAAAAAAAAAAAAAAAAAAAAAAAAAAAAAAAAAAAAAAAAAAAAAAAAAAAAAAAAAAAAAAAAAAAAAAAAAAAAAAAAAAAAAAAAAAAAAAAAAAAAAAAAAAAAAAAAAAAAAAAAAAAAAAAAAAAAAAAAAAAAAAAAAAAAAAAAAAAAAAAAAAAAAAAAAAAAAAAAAAAAAAAAAAAAAAAAAAAAAAAAAAAAAAAAAAAAAAAAAAAAAAAAAAAAAAAAAAAAAAAA'
p66
aF1.0
aa(lp67
S'Shortie 4'
p68
aS'CCUAAUGGAGGGAAACC'
p69
aF1.0
aa(lp70
S'Shape Test'
p71
aS'AAAAAGGGAUCAAGAUACAAAAAAAAGUAUCAAGGCAUGGAGAUACAAAAAGUAUCAGAUCGAAAGAUCACCAGCCAAGAUCGCAAAAAAAAAAAAAAAAAAAA'
p72
aF1.0
aa(lp73
S'The Minitsry'
p74
aS'GGCUAAAUUGGUAAAUCGGAAAAACACAUAAACGCUAAAAAAUGCGAGUGGCCGUCCAUGCU'
p75
aF1.0
aa(lp76
S'stickshift'
p77
aS'AAGGCGUCCGAAAAACGAGACGCCAA'
p78
aF1.0
aa(lp79
S'U'
p80
aS'AAAAAGAUACAGAGAGGAGAGGCGUAUAAAAAAUUGUACGCCCCCCCGUAUCAAAAA'
p81
aF1.0
aa(lp82
S'Still Life (Sunflower In A Vase)'
p83
aS'AAAGUUCAAAUUGGAAAAACCAAUAACUGAGUAUCUCAGAACGAGCAAAAAGCUCGAACGAGGAAACCUUGAAGUGUAGAAAAUACACAGCUAGCGAAAAGCUGGAGAUUUGAUAAGAUGAUAUGAUACGAUACAAAAAAGUAUCAGAGUCAAAAAAAAAAAAAGAUCUAAAAAAAAAAAAAAAAAAAAAAAAAAAAAAAAAAAAAAAUGAUCGGAAAAAAAAAAAGACUCGAAGCAAAGGCUUCAGUGUCAUAUCAUUUUAUUAAAUCAUGAGACAAAAAGUCUCUACACACAAAAAGUGUGGAGCCACAAAAAGUGGUAAAUAGAUAAAUUCUAUAACUAGCGAAAGCUAGAUCUCGCUAAAUGCGAGUGAACAAA'
p84
aF1.0
aa(lp85
S'Quasispecies 2-2 Loop Challenge'
p86
aS'AAAAAGGGCGAGCGUCUUCGAAAGAAGUAGCUCUGAUCGACAAAGGAGAUCUGAACAGUUUAGCGAAAAGCUUUGAGGUUCGCUCGAAAAAAAAAAAAAAAAAAA'
p87
aF1.0
aa(lp88
S'Corner bulge training'
p89
aS'AGGUAUCGAUACAAAGUAUCAAAAGAUACCA'
p90
aF1.0
aa(lp91
S'Spiral'
p92
aS'AAAAAGAUCAGGUAUCAUGCAGUUACAGAUCAGAUCAGGAGGAGGAGGAGGAGGAAAAACCCCCCCCCCCCGAUCGAUCGUAACGCGGAUACCGAUCAAAAA'
p93
aF1.0
aa(lp94
S'InfoRNA bulge test'
p95
aS'AAAAAAAAAAAAAAAAAAAAAAAAAAAAGGUGCCAAAAAGCAUGAAGUAUCGAUGUUCGUGGAGAAAGGAAAAGUCCUUUUGUCUUAGAAUUGAAGGAUGAAAAAGAAGAGAAAAAACAGCA'
p96
aF0.9508196721311475
aa(lp97
S'Worm 1'
p98
aS'AAAAAAAAGGAUAACAAGGAUUUGAAAAUUGAGUGGAAUGGACGC'
p99
aF0.9555555555555556
aa(lp100
S'just down to 1 bulge'
p101
aS'AAAAAGACGCGAUACGAAAGUAUUCGGCGAAAGCCUCGAUCAAAAGAUCAGGCGAAAGCCAGGCGAAAGCCAGAUCAAAAAAAAAAAAAAAAAAAA'
p102
aF1.0
aa(lp103
S'Iron Cross'
p104
aS'ACUGAGGCGAAGGGAGGCAAAGCCAUGGAAAACCAACCCGAAGUCAGGCGAAAGCCAUGCAAAGCAAGACGAAGGCAGGCGAAAGCCAGUGAAACACAGCCGAAGCCAGGCAAAGCCACAGGA'
p105
aF1.0
aa(lp106
S'loops and stems'
p107
aS'AAAAAGGCGUACAAAGAUCAAAUAUCAAAGAUCAAAAAAAAAGAUACAAAAAAAAAAAAGUAUCAAAGAUCGAAAGAGCAAAAAAAAAAGCUCGAGGAUGAAAGGCAAAAAAAAGCCAAAGAUCAAGCAAAAAAGCAAAGUAUGCCAAAAA'
p108
aF1.0
aa(lp109
S'Water Strider'
p110
aS'AAAAGUGAGCGAAGGAAAGGGGAAAUCCCCCUCAUGGGAUCGUGUUGUUUUCUAUUGAAAGUGAAAACUAAAUUUGAGCGCAAAAAAAAAAAAAAAAAAAAAA'
p111
aF0.9611650485436893
aa(lp112
S'The Turtle(s) Move(s)'
p113
aS'AAAGGGAAACCAAAAAGCCCCAUCAAAAAAAAAGAUGGGGCUAAAGGAUCAAAAGGGUCAAAAACUGAAAACAGAAACUAGCAAAAAAGGCUAGAAAAGACAAAUGAAAAUAUAAAACUCACAAGAGAAAUGGUAUGAAUAAAGCAUCUGUAAAGGUGAAAACUAACAACAUAACAAAAGGCAAAAAAAGCCAACUCUAAAAAAUGAGAAAUUAGCGAAAAAGCUAGAAACUAGAAAAGCUAGAAGUUAUGAAAAAAAAAGUAAAAGAAAAAAGCAAAAGCAAAAAUAAGAGAAAAAAAAAACUCUUAAAAAAGUC'
p114
aF0.9810126582278481
aa(lp115
S'Adenine'
p116
aS'GAUACGGGUAUCAGGUAUCGGGUAUGAGGUAUCAGGUAUGAAAAGGUAUCAAAAAAGAUACCAUAUACCGGAUACAAAGGCGUACGAAGUGCGCCGUAUCAGAUACCAGAUAAGAGAUGCAAAGCAUUUCGAAUUAUCAUAUACCAAAAGAUACCAAAAGAUACCAAAAGUAUC'
p117
aF1.0
aa(lp118
S'Tripod5'
p119
aS'AGGGGACUUCUAAAUGAAGACGCUAAAUGUGUUCCUAA'
p120
aF1.0
aa(lp121
S'Shortie 6'
p122
aS'CCGAAAGGAGCAAAAGCAGGAAAACCAGCGAAAGC'
p123
aF1.0
aa(lp124
S'Runner'
p125
aS'AAAAAGAUUACAGGUAAAAGGUAAAGUACAGGUAGAAUGGUGACUCUACUCUGUGCAAGAGGGAGACGAAAUCCAAUUCAGUGAAACACAAUGUCGAAAGCCUGGGCGAUCCAAAA'
p126
aF0.9827586206896551
aa(lp127
S'Recoil'
p128
aS'AAAAAGAUACAAGCAAGCAAGGCAAGGCAAGCAAGCAAAGCAGCAGCCAGCCAGCAGCAGUAUCAAAAAAAAAAAAAAAAAAAAA'
p129
aF1.0
aa(lp130
S'[CloudBeta] An Arm and a Leg 1.0'
p131
aS'AAAAAGGCACACACAAAGGUAGUGGAGCGGGAAACCCUCGGCCAAAAAAAAAAAAAAAAAAAA'
p132
aF1.0
aa(lp133
S'[CloudBeta] 5 Adjacent Stack Multi-Branch Loop'
p134
aS'UAGAGUAUCGAAAGAUAGAUAUGAAAAUAUCGAUACAAAGGUAUCGUGGGAAACCACCUCUGA'
p135
aF1.0
aa(lp136
S'Triple Y'
p137
aS'AAAAAGAUCUAUGGACCUAAUCAUUAAGCGAAAGUUUCAUCUAUCAAUCGAAAGAUUCAUUGAAAUAGCAAAAGAUCGAAAAAAAAAAAAAAAAAAA'
p138
aF0.9175257731958762
aa(lp139
S'Misfolded Aptamer'
p140
aS'GAUCGAAAAAGGGGCAAAGCCAGGAAAGCCAAAAAAAAACCGAAAAGAUU'
p141
aF1.0
aa(lp142
S'Flower power'
p143
aS'AAGUCUGGCGACUUAUAGACAGGUGGCUGAAGCAGCAGUAUCACAGUUCAUAAGAGAAACUUCAUCAGUGUUAUCUACUACUAAAAAAUAAAAAAAAAAAAA'
p144
aF0.9019607843137255
aa(lp145
S'Kudzu'
p146
aS'AAAAUUACGCGAAGGAAGCCAAUCACGAAACGGAAACCCGCGUGCAAGGCACUGCCUGGCAAAGUCUAAUUCACGACAGUAUAAAAAAAAAAAAAAAAAAA'
p147
aF0.9801980198019802
aa(lp148
S'"1,2,3and4bulges"'
p149
aS'AAAAGAAGCUCAAGCAAAGGCGAAAUUGGGGCGAAAGUUACCAUUAAAGAUCAAGGUCAAUAAAAUCAGCGAAAAUGAGUGAAACAAAAAAAAAAAAAAAAAAAA'
p150
aF0.9428571428571428
aa(lp151
S'medallion'
p152
aS'UGUAUCUCAGAUCGAAAGAUCUGACAGAAAACUGACGGAAAACCGAGAUAUCGAAAGAUAUUGCGGAAAACUGGCAUAACGAAAGAUAUGACCGAAAACAGGUUGUAAUCAAACCGAUCGAAAGAUCGGAGUGAAAGCACGCAUAGAAAAGUUUAUGACUAUAAUCAGACUCAAAACUAACGUAGCGAAAGCUACGACGCAAAAGGGACAUAUCCAAUGAUAUGGCUGGAAACAGAAUGAAACUAGACACUUCGAAAGAAGUGGGACGAAAGGGAUAUAUCGAAAGAUUCGGCAGAAAACUCACAGAAAAGAGAGAGGUCAAAGGACUUUUGAUACG'
p153
aF0.8902077151335311
aa(lp154
S'[RNA] Repetitious Sequences 8/10'
p155
aS'AGCAAAAAAGCAAAAAAGCAAAAAAGCAAAAAAGUAAAAAAACAAAAAAGGUAAAAUUCAAAAAAGCAAAAAAGCAAAAA'
p156
aF1.0
aa(lp157
S'Documenting repetitious behavior'
p158
aS'AAAAAAAGCAAAAAAAAACCAAAAAAAAAUUAAAAAAAAACUAAAAAAAAAUCAAAAAAAAAGCCAAAAAAAUGCGAAAAAAAAAGAAAAAAAAAGUAAAAAAAAAGGAAAAAAAAAGCAAAAAAAAAGGAAAAAAAAAACAAAAAAAAACGAAAAAAAAAGCAAAAAAAAAGCAAAAAAAAAGGAAAAAAAAUGGAAAAAAAAAUCUAAAAAAAACCAAAAAAAAAGCAAAAAAAAAGCAAAAAAAAAUGAAAAAAAAAGUAAAAAAAAAGUAAAAAAAAAGCAAAAAAAAAGCAAAAAAAAAGCAAAAAAAAAUUAAAAAAAAAGCUAAAAAAAAGCAAAAAAAAAGGAAAAAAAAAAGAAAAAAAAAAGGAAAAAAAAACGAAAAAAAAGCAAAAAA'
p159
aF0.96
aa(lp160
S'7 multiloop'
p161
aS'UCCCUAUAGAAAUCUAUAGUGACGAAAGUCGUCUAGGUAAUCUUAGCACUCUCAUAAGCGCUAUCAAUAGGUAGAGCGCGAAAGUGCUGCUC'
p162
aF0.9130434782608695
aa(lp163
S'Kyurem 7'
p164
aS'AAAAGGUGGCAUAGGGAAAGCAGCCAAAAGUGCAUAGGAAAUCUGGCCCUGGUAAAAUAUGAAAAGGGGGCGGCGUGAUUACAAAAAAAAAAAAAAAAAAAA'
p165
aF0.9215686274509803
aa(lp166
S'JF1'
p167
aS'GAUAGACCAUAACUAGCAAGAUACAAAAGGUAUCUCGAUUCUAUGAGAGAAGAUAUCAGGUAUUAAAAUGUAAAAAUGCAUUUUAAUACCAAGGCGAAAGCCACAGACAUGCUAAUGCAUGUCUGAACGAGCAAAGGCUUGAGAUAUCACUCUCCGAAUCCGAUACCAAAGGCGUAUCAAAAAGAUAGCGCCAAGAUAUUAUAAGAUGAUAUGAUAUCGAAAGAUAUCAUAUCAUUAUUAUGAUGUCAAAGAUACAAAAAAGUAUCCAGAAUAAUCAAAGGAUUAUUCUGAGACUAAUAAUUUAGAAGUAUCAAGCUAGAGAUCAGGCAGGGAAAGUCCGCCGAUCGUGGCAUGUCUAAUGACAUAGCCAAUGUGAGUCAUAUCAAA'
p168
aF1.0
aa(lp169
S'multilooping fun'
p170
aS'AUGAGAAGUGAAAGUAAAAGGAUGAAAGAAAACAGU'
p171
aF0.8333333333333334
aa(lp172
S'Multiloop...'
p173
aS'GCUCAGAUCAGGCGAAAGCUAGGAGAAAUCCAGGCGAAAGCCAGGCGAAAGCCAGGCGAAAGCCAGGCGAAAGCCAGAUCAGAUACAAAAAAGUAUCGGCGAAAGCCGAGU'
p174
aF1.0
aa(lp175
S'hard Y'
p176
aS'AAAAUGAUCGGAUCCGUAUCUAAUGAUACGGAACCGAGAUGUGACAAAGGUCACAUCUCGAUUUAAAA'
p177
aF0.9705882352941176
aa(lp178
S'Mat - Elements & Sections'
p179
aS'AAAAAGUUGGGAAUGUGAUCGGAGGUCAGUAGAUCGAGUGGCGAAAGUCUCAUGAUCAACGACCAAAACGGAUCUCUAACGUAGCAAAAAAAAAAAAAAAAAAAA'
p180
aF0.9619047619047619
aa(lp181
S'Chicken feet'
p182
aS'AAAAACGAUGACAAAACGUGCAAAGCUAACGCCAGGAGGAGCGAAGUAGGAAGUGAAAUAUCAAAAA'
p183
aF0.9701492537313433
aa(lp184
S'Bug 18'
p185
aS'ACGAACAGAUGAAGUCUUCGGUCAAGCAAACAUCAAGCUAACGGGCAAAAGGA'
p186
aF0.9622641509433962
aa(lp187
S'Fractal star x5'
p188
aS'AAAAGCGUACACUAGUAGCGAAAGCUAAAGUUUCAAAAAACAACUUCAAAAGAAGACGCGUAAAUAUGCAAGGUGUGUGAAAAUGAGCGAUGUUGUUGAAAGCAGCUACUUGAAAACAAGAAUCAGGAAAUUGAAGCGAGAAAACUCGAUCAUCGCUCUAAAAUCAAGCUCAAGAUCGAAAGAUCAACUAUAAAAGUGGAACUUGAAAUCAAGGGGUAGGAAACUACAGGAGCUUGGAAAAACCUAGAUCAAGAUUAAAGGAUCAACUAGAAAACUAGGUGUAGGAAACUACUACAACAAAAGUUGAGGAUCUAGGAAAAUCAGUGAUAGUGAGAUAAUUCUCUACUAGAAAGCUAGAACUAGGAAACUAGAACUACAAAAGUAGAAUAUCGCUGUAAAA'
p189
aF1.0
aa(lp190
S'Crop circle 2'
p191
aS'AUGAACCUAAACUAGAAACCGAAAAAAAUGUUAAAAAAAAAAAAAAAAAAAAAAAAAAAAUGUUAAAAAAAAAAAAAAGGGAAAAAAAGGGGAAAAAUGGGAAAAGAAAA'
p192
aF0.9636363636363636
aa(lp193
S'Branching Loop'
p194
aS'AGGGGAAAAAAAACGGGUUGAAAAACUAACCCCGAAAAAA'
p195
aF0.95
aa(lp196
S'Bug 38'
p197
aS'CUGCACACCAAUGUGAAAUUAGAAGUAGUAAAACAA'
p198
aF0.9444444444444444
aa(lp199
S'Simple Single Bond'
p200
aS'AAAAAAGGAAAAAAAUGGCGUAAAUUGCUUAAAAAAAACAAAAAAAAAAAAAAAAAAAAAA'
p201
aF1.0
aa(lp202
S'Taraxacum officinale'
p203
aS'CACCGAAAGUGUGACUGGAAAGCACAGAAUAGGAAACAUAUACAAGAAAACAUAGGCUUGAAAGUAAAGAAUAGAAAACAUUGGGAUAUGACAUCGAGCGGGCAUCUAUGAUGACCUGAUCAGAUACAAGAGAUGUAAGAAGAGUAUCAAAGGUGCUCGCUUACAUCUCGAUCAGGUAUUAAAGAUGCCGAUCGUAUCUAAGAUGUCAUAUCAUACCGAAAGAGUACCCACAAAACAUAGACGACAAAGCAUAGACGAGGAAAUAUUGAAUGAAAAACGUAG'
p204
aF0.8865248226950354
aa(lp205
S'Headless Bug on Windshield'
p206
aS'AGUAGCAAAAUGAACUGAUGGAGGGAAAAAAAAAAAAAAAAAAAAAAAAACCCGCCUAAGGUAUCUUAGCGAGAGUCAAGGAAAGCGAAAAAUGGAAAACCUAAAAAAGCUCCAAAAAAGGUAGAGAUUAAAAAAGCCGUGGGAUUGAUUGAUAGAAAAAAAAAAAAAAACUAAACAUGUCAGACUUGGCCUAUAACUCG'
p207
aF0.98
aa(lp208
S'Pokeball'
p209
aS'AAGUGGGCACAAAAGUAGUGAACCGAAGGUUACAAGGAAGGAUGGAGAGAAACCGCCUGCCGCUGGUUCACACGGCCAGGCGUGCCCAAAAAAAAGUUUAUAGAAAACGGAUGUAGAAAAGGUUUCAAGUAAGGUUUUGUGCAAAGAAAAUUCCAGCGAGUUGUCCUCUUUACCCUAUAAAAAA'
p210
aF0.9565217391304348
aa(lp211
S'Variation of a crop circle'
p212
aS'AAAACUAAAUUCAAAAGCAAAAGCUUGUUAUGACACGUUGGUAAUGCGAAAAAGCGAAAAAGGAUAAAAAAAAGGGAAAAAAAAAAAA'
p213
aF0.9545454545454546
aa(lp214
S'Loop next to a Multiloop'
p215
aS'AGGGCGUGUCGAAAAAAGAUGUAACGAAAGUUACAAGGCCUACAAAGGUAGGCCGUGAAAAAAGACACGCCAA'
p216
aF0.9726027397260274
aa(lp217
S'Snowflake 4'
p218
aS'GAUCAAAGAUCGAAGAGGGAAAUUCUUGCGAGUGACUAAAAGACCGGGGGAUCAAGGAUCAACUAGAAACUAGCCCCGGGAAAACUGUUACGGCAUACGAAAAAUAAAAACAUUGGAACGGCAACUAGAAAAUGGGUUUUGAAAAACUGUGUGAGGAUACGGAAAACCUAGUGCGAGAAACUCGAAAUGGUAUCCAUUACUGGGAAAACCGUAUCAAGAUCGAGAAAACCGAGCGCGAAGAACUCGACCAGGAAACCUGUGCUCCGGAAAUGGUAGAAAGAGAUGGAAAGCCCUGGGGAUCGAAGAUCAACUAGAAACUAGCCCAGUUGAAAAAGUAUCAAGCAAGGCAAAACCUCUUCCAUUAAGAAUC'
p219
aF0.8324324324324325
aa(lp220
S'Mat - Cuboid'
p221
aS'AAGUCAAAAGAAUGUAAAACAAAGCAAAAGAACCCACCAAAAACAAGCAAGUCAAAGAAACAAGCCGGGAAAAGGAAACUAGUGUAUGAAAGGUAGUAAGAGAGGAAGCAAUAGCUUUUUUACGGGGUAGGAAAAACUGGCUAGUUUGCUCGCUUGGAAAACCAGGCUGCGUGCCUUGACUGUAAAAGCUGGCCCGCUCGUUGGCUAACAAAAAACUGAGCUCGCUUAUUAGGAAGUGCUUUCUGACAGCUAUGGAGCCCCUUACUUUCUUGUUAGCAUGUCCGUGAAAAUUUAAUGGCGCCUGUUAGCACACGUUCGUUAGUAUGAGUCUCCAACGGACUAAUGCAAGUGGGUGCAAGAAGUGAAAUCGCUAGCGAAGU'
p222
aF0.6631578947368421
aa(lp223
S'Misfolded Aptamer 6'
p224
aS'AAAAAACUCAAAAAUGUUCAUCGAAUGGCGAAAAAAAGCCUAAAGUAAACGGACUAAAAAAGAGAAAAAAAAAAA'
p225
aF1.0
aa(lp226
S'Snowflake 3'
p227
aS'AGCUCAAAAGAACGCUUGAAAACAGAAGAUCGGAUCAAGGCGAAAGCCCUCAGCAAAACCCGGAAACCGGGAAAGUCAGAGCUUGAAAGAGAAGAUCGGAUCAAGUCGAAAGGCCUCAUGAAAGCGGAGAAACCGGGGAAACCGGAGCUGAAAGCAGAAGAUCUGAGCAAGGCGAAAGCCCUUGGGAAAACCGUGAAACAAGCAAAAGCAGAGAUGGAAACAGAAGCUCUACUCAAGGCAAAGGCCCUCAGUAAAACCUAGAAGCUAGGGAAAUCAGAGCUGGAAACAGAAGAGUAGAUCAAGGCGAAAGCCCUCUAGGAAACCAGGAAACCGAGAAAACUUGAGCGCAAAAGCGAAGAUCAGAUCAAGGCGAAAGCCGCCAGGAAAAGAGCU'
p228
aF0.8753180661577609
aa(lp229
S'Hard Y and a bit more'
p230
aS'AAAAGUAGACGCCUAGCCUAAUGGCUCGGUCACAGAAGCAGAUAGAAAUAUCAAGUUGGGAAAAACCAACGCCUAUGUUAGUUGAAAAAAAAAAAAAAAAAAAAAA'
p231
aF0.9716981132075472
aa(lp232
S'Mat - Lot 2-2 B'
p233
aS'AAAGCCUUGAUCUCUAAAAAUGUGUCUGGAAAUGAAAAGGAUCAUGUUGAUAAAUUUUGGCCUACGAACCUUGCGAUAACAAAAUACUGUUCAGGGAAAACUAAAAGCCCAGGAAAAAGUUUGCGUGUUCGCUGGUAAUCAAAAGCGCUGGAGCUCGUAAUAUGUAGACGGAAAUGAAAAUGUUCAGCUUGAAAAAUUAUGCACAUGUAAUUUUGCGCUUUGAACAGCUUGUUGAAGAAAAAGGAAAACCCCGUCAAAAAACUUGCCCUUGCUCGUGUAACGAU'
p234
aF0.7676056338028169
aa(lp235
S'Shapes and Energy'
p236
aS'AAAAAGCACAUCGAUUGAAAACAAGAGUAGGGAAACAUACAACACAAGUAUGUUAUAUAACCCUAAUUAGUGAUGGUGGGAAAAAAAAAAAAAAAAAAAAA'
p237
aF0.9405940594059405
aa(lp238
S"Spiral of 5's"
p239
aS'GAAAAGAUACAAAGAUACGAAGAUUCAAAAGAUACAAAGAUACAAACAUACAAGAUACAAAAGAUACAAAGAUACAAAGAUACGAGAUACAAAGAUACAAAGAUACAAGAUAUAAAGAUACAAGACCCGAGAUACGAGAUACGAGAUGCAGAUACAGAGAUAUACGAAAAACGUAAGGGAGAUCUCGAAAAGUAUCAAAAAGCAUCAAAAAGUAUCAAAAAGUAUCGAAAAGGGUCAAAAAGUAUCAAAAAAUAUCAAAAAGUAUCAAAAAGUAUCAAAAAGUAUCGAAAAGUAUCAAAAAGUAUCAAAAAGUAUCAAAAAGUAUCAAAAAGUAUGAAAAAGUAUCAAAAGGUAUCAAAAAGGAUCAAAAAGUAUCAAAAAGUAUCAAAAGUAAAAA'
p240
aF0.9949622166246851
aa(lp241
S'Campfire'
p242
aS'AAAAGAUCAUCGCACAAGGCCAAGCUCAAAAGGGGCGCCAUCAAGGAUAAGUGGCCGUUAUCAUGAGGAGAUACGAAAGUCGUCCCCGGUAAUCAGCGUAGGGAAACCAUCUACCUAGGGGAAACCACACGAUAAGCAUGCGAUAGAUGUGCGUGCGGGCAGGCAGGCCAAAGGGUCGCCGUCUUGGGAUCAAAGAUACCAUACAGCAGAUC'
p243
aF0.8584905660377359
aa(lp244
S'Anemone'
p245
aS'AAAGGUACCGAAAGGUGCCGAUCGGAAAUGAUCGGGAUCGAAAGAUUCCGGUACGAAAGUACCGAUACCGAAAGGUAUCGACACGAAAGUGUCCAUGCGAAAGCAUGGUUAUCGAAAGAUAGCACUAGCGAAAGCUAGCGUUUGCAUGCAGACGCGCCAUAAUUGGUGGAUAACGAAAGUUAUCGUAGUGAAAACUGCGUACAUAAAGGUGUAC'
p246
aF1.0
aa(lp247
S'Fractal 3'
p248
aS'AAAAAAAUCAGUGAGGGAAACCGGGAAACCACACAGCCAGAGAAAUCGGAAAACCAGGCGGGCAGCAAAAGCGCAAAAGCAGCCAGCGAGGGAAACUGCGAAAGCACGCAGAUUAAAAA'
p249
aF1.0
aa(lp250
S'Kyurem 5'
p251
aS'AAAAACGCGUACAGCGAAAGCUGGCAAAAGCUCCGGCAAAGGCUAAAUACCGUCGGUCGAAAAUCCCGGAGCGACGUGAACGCGAAAAAAAAAAAAAAAAAAAA'
p252
aF0.9230769230769231
aa(lp253
S'Snowflake Necklace ( or v2.0 )'
p254
aS'GAUAUGAAAGUGUUCAGAUACACAAAAAAUGAGGAAAAACCAGGAAAAACCAGGGAAAACCGGGAAAAAACAGUAUCAGGCAAAAAGGCCGGUGCGUCUAAAUGCAUGAAAAAACAGAAAAAACCGGAAAAAAACACCUAAAUGGGGUACCAAGGAAAAGCCCAUGGUCAGGAAAAACCAAGUAAAUCUAUGAAAAACGGGAAAAAAUCACGAAAAACGAGACCAAACAAAAAAUGUAUGCUCAGGAAAAACCAGUGAAAAGCGGGAAAAACCAGGAAAAACCAGCAAAAGGCAGAGCAAACCAAAAAGCCGUUGGCAGGAAAAAAUAGGAAAAACCUGGGAAAACCUGGAAAAACCACGAAAAGCGAGCCGAAGAGUACUUUUAUAUC'
p255
aF0.87146529562982
aa(lp256
S'Methaqualone C16H14N2O Structural Representation'
p257
aS'AAAAAAAGAUCAGAACAGGCAGGCGAAAGCCAGCUACUGGAAACAGAGGAAUGGAAAACCAAGGCAGGGGAAACCCACUGGAAAAAAUAGAGCCAUCCAGGGAGCCAAGAAUAGUUUAGCUCAACGCAGGCAAGUGAAACAAAAAAAAAGCCAUGGAACCAAAGGCCUGGAAAACCAGGCGAAAGAACCAAGCAAAGAUCGAAAACAGUCAGGGAGUCAAGGAGGCAAAAGGGGAAACCCAGCCACCGAAAACUGACUAAGGAGAAAUUCGGAUUGUCGAUAGCCUUACAGCCGGUGAAAACCUAGAAAACUAACUGAAAACAGACAGGCCAGAUCGAAGAGCAGAUCAAAAAAA'
p258
aF0.9464788732394366
aa(lp259
S"Cat's Toy 2"
p260
aS'AAAUCGCGUGUCUAAAAUUGGAAAAAAAAAAAAAAAAAAACAAAUAAGAGAAAACCAAAACGAAAGUAAAAAAAAGUGAAAAUAUGACACGCGUAAA'
p261
aF0.9381443298969072
aa(lp262
S'Zigzag Semicircle'
p263
aS'AAAUUCUAUGGGGCGAAAACCCGUAAUAGAUAAA'
p264
aF0.9411764705882353
aa(lp265
S'Short String 4'
p266
aS'AAAAAAGGAAGGAGCAGGAAUGAUCAGCAAAAAUCAAAAUAACCUGUCGGGAAACCUAUGUAGAAACUACAACGCCAAAAAAAAAAAAAAAAAAAAA'
p267
aF0.9381443298969072
aa(lp268
S'Gladius'
p269
aS'UAAAAAAAGUACACAAAGAAGGAAAGUAAGGCAGGCAAAGAUCGAAAGAUCAGAUACAACGGGUUAGAGAUCGAGAGUCCAACGUAUGUUACAGGCGCACGAGACAGAUAAGGUCAUGAUCAAAGAUCUGACAUUAUCGAUCUCUGGCGCUGAUAAUAUGAAGGGCGCAGCAGAUCAGCUAGCGCCAGUGUCGGCCAAAGGCAGUAGCGCAAGAGUUAAGAUCUGAGGAUCAGUGGUUAUGCAAGGUCCUGUGAAAUUUUUAAGGAAUGUACCGAAAGGUACAAAUCCAAGUACACUUCGAUGGACCGAGCAUAACAUAAGAUCACAUGAUCAGUACUCAGAAGCUGCAGAUCGAAAGAUCAAAGCCAGCCAAUCAAUACAACAAAGGAAUCAAUAAAAG'
p270
aF0.8925
aa(lp271
S'Thunderbolt'
p272
aS'GCAAGGUAUAAAAAAAAGGACAAGAUUAAAAAGAAAACAACCGGAUCAAAAAAAAAGUGAAAAAGAUCAAAAAGAUCGAAAAACCAAAGCCUCCGAAAAAUCUAAAAAACACCUGACGAAUUUAAAAACGAAAGUGAUGAAAAAGCGUAAAAGUUGGAAAAAUGCCUUCGAAAUUGCAUAGCAAACAGAAAAAGAUACGCAAAGCGUUCUGUAAAAAUAAAGUUGAAAAAAAACAUCAAAAAGGUAUCAAAGAUACCAGCUUGCCAAAAAAAAAAGAUAGCGAAAAAAAAGUUGAAAAAUCGUAACUAAAACAAAAAAAAGGAAAUGUUAUGAACCUCAAAGAUCCGGUAAAAAAAAGAUCAAGUGCAAAAAGAAAAAAACAGUAUCAAGCA'
p273
aF0.9540816326530612
aa(lp274
S'Mutated chicken feet'
p275
aS'AAAAAAAAGAGAAACAAAGUUCCUAAGAUAAUCAAGCGAGGGUGAAAUCAAGUAUCGAAAUACCAGCCUGGGAAAACCAUAAAACAAAAGAUCGAAAAAA'
p276
aF0.84
aa(lp277
S'Chicken Tracks'
p278
aS'AAAAAAAAAGGUUUACGUGGUAAUACGAAGUUAGAAAUAACGAUGUUGAAAAACAUGAACCCAAGGCACACAAAGAGGAAGAAUUAUGCCCAAAUUUAAGGACACCGGAAUAAAAA'
p279
aF0.9310344827586207
aa(lp280
S'Looking Back Again'
p281
aS'GGCAAGACCUAGAAAAGGGUAUCAAAGAUACCGCUAGACGGCGGAAAGGCAAAGCCUCCAAGGUAAAAGAUCGAAAGAUCAAAAUACCUAAGUCAAGCCGCGCGUGGAUAAAGGAUACGAAAGUAUCAAAAAUUCUAGUUCGAGACAAAGUAUCCAUAUAAAAUAUGGGUUUCCGAAUUUGAAGUAUAAGGAUAUCGAAAGAUGGACAAAUCAUUGGCGCUCAAAAGAGAAGAGACCAAAGAGUUGAGCAUAUACAGAUCUAAAAUGGGCUGCAAAAAAAAGAUUAAAAAAAUCGCAGAAACUCUGAUCGGUCAAAAAUGCGGAAUCGAAAGAUUCCAAGAGAUGAACGACUAUCAAAGAUGGAACAUCCAAAAGACCGUAUGAAAGCC'
p282
aF0.9203084832904884
aa(lp283
S'Multilooping 6'
p284
aS'CGGGGCUAGUGGCACAAAGGUGCCAUGCCAAAUGUGACACGACCGUGAUUAAUAUUUCGAUUGGAAAUAAUCUAUUGUGCAA'
p285
aF0.926829268292683
aa(lp286
S'Cesspool'
p287
aS'AAAGAGGAAAAAAAGGGACUAGAGGCGAAACUAACAGCUCCAUAAAGUUAAAAAUUGAGUGGAAAAUAUUAAAAGGAAAACAACUAUAGAUUUAAGGAAAUAAGUAAUGGGACGAGAAUUGGAGAACUUUACAUUUUGAACACUUCUGUUGAAAACUUCAAAAAUAAAACAAAUUCAAGCUGCAAUGAAAAAACUUUUGUGUGGCGCAGCUUACUACUACAUAACUAAAAAACGUGAGUUAAAAACGCUAAAAAGGAAACAAGUUUCAAGCUAUAAGAAAAGGGCUUUCCAGUAGAAAAGAUAACACCUUCAGAAGACUGAAAGUACAGUAAUAAUCUUCGAAAAGAAAACAAGUUAC'
p288
aF0.6564245810055865
aa(lp289
S'Hoglafractal'
p290
aS'AAGAGGAAGGUACAAAAGUUACAAAAAAGUAGCGUAUUCAGCAAAGAUCAAAAAGAUCGCUGUCGAAGCCAAAUUGCAGGGCGCGAAGAGGAUAUAUCAAAAAAGAUCCCUCCUGAACCCUAAAUGGGCAGAGAGGGCAACCCGAAUAGAAAGGGCGAGGCAAAAAAGCCACCCGACGAAAAACCCACUGAAGACAGAGAUGCAAAAAUGAGUAAAAAAGCCAGACAAAAAGUCAGCAAACCAGGUAUCAAAAAUGGCAAAAAAGCCCGGAAAACAAACCAGAGUCAAAGGCUCUGAAAAAAAGAUACCAAAAAAGUAGCAAAAGCUAUAAAAGCGAAACCAACGAAGAGGAGGGCAAAAGGAAAAUCGGAAAACCGCUACCAAAGGUAGCAGCCCCCGU'
p291
aF0.93
aa(lp292
S'Bullseye'
p293
aS'AAGGUUACACAAAGAGAAACGGCAAAGCCGAAAAUGAAAGAUUCAUAAAAAAAGCGAAUUAGAAGAAUAAGGCGAAACCGCGAGUUCGAAGCGCGUAAAAAAAAAAUUUAACGAAUUUGAAUGGCAAAGUCGAAGCUCAAAGAUCAAUAAAAAAAACUCGAUCAAGCGUCAAAGGCAAGGCCUGAUUUAAAGGAUCGGGAAA'
p294
aF0.8118811881188119
aa(lp295
S'Shooting Star'
p296
aS'ACAGGGAGUCCGCGAAAAAAAACAUGAUGGCUGUCACGUAAUCUCGAAUGCUUCGUUGCUAGCUUCGCGAGACAUGUUACGUGUAUUCCGCUCGAAGCAGUUCACAGAAAUAGGAGACGUUAAGACACGGGGAAUAUUGUAAUGAAAGAGUACCCAUGGAAACGAAAAAUCACCGGAAAGACUGGGUAGACAUUCACAGAAGGCUAGUGCAUACGAAUGGGGUUUAAAGAACCCCUCAGGCUAUGCUUGCGUAGUCCCACAAAGUGGGGCACUAGGAAAACUAGGCAUGGAUAGGGAAUCACGUUAAGUGAGAGAUACGCGAGGAAAACACCGCAGGUCGCGAUUAAUAAAUAUCCACCUUGUA'
p297
aF0.8324175824175825
aa(lp298
S'Teslagon'
p299
aS'AAAAAAUGGACAAAAGGAGCAAAAAAGGGAUGAAAAAAAAAAAAAAACAAAAAAAAAAUCGAAAAAAAAAAAAAAGCAGAAAAAAAAGCGAGAAAAAAGGCAAAAAAAAAAAAAAUGUAAAAAAACCAGUAAAAAAAGCAUGAAAAAAAAAAAAAAACAAAAAAAAAAGCAAAAAAAAAAAAAAAGGACCGAAAAAAACGGGAAAAAAAUCUAAAAAAAAAAAAAUAGGAAAAAGCCGGUGAAAAAACCAUGAAAAAAAAAAAAAAAUAAAAAAAAAAGCUAAAAAAAAAAAAAUGCGGCGAAAAAAGCAAAAAAAAAAGGGAAAAAAAAAAAGCAAAAAAAAAAAAAAAGCACCGAAAAAUAUACCGAAAAAACAAAAAAA'
p300
aF0.8900523560209425
aa.