(lp0
(lp1
S'Simple Hairpin'
p2
aS'GAUACAAAAAAGUAUC'
p3
aF1.0
aa(lp4
S'Arabidopsis Thaliana 6 RNA - Difficulty Level 0'
p5
aS'GAUAUACGAACGACAAAAAAAAAAAGUCGAUAUAUCUUUAUAUAUAUAUAUAUAUACAAAGAUACAAAAAAGUAUCAGUAUAUAAUAUAUAUAUAUAUUGAUAUAUCAAGUAUAUC'
p6
aF1.0
aa(lp7
S'Prion Pseudoknot - Difficulty Level 0'
p8
aS'GAGAUCAGAUCAAAAGAUCGAUACUCAAAAAAAAAA'
p9
aF1.0
aa(lp10
S'Human Integrated Adenovirus - Difficulty Level 0'
p11
aS'GAGACAGAUAUAUAAGGUAUCAAAAAAAAAAGGAUCGCCUCGGCUCAAAGCCAUAUCAAAAGACGUAGAGAUUCGAAAAAAAGGAUCUCUAUAAAAGUCGAUAUAAAAGGCGCCUAAAGGGGCAAACAUUUAAAAAAAGUAAAUGGAUCAAAAAAAAAAAGGAUAUCGUAUAAAAAUAUUUGAAAUCUUAAA'
p12
aF1.0
aa(lp13
S'The Gammaretrovirus Signal - Difficulty Level 0'
p14
aS'AAGUCAAGAAAUCAAAAGAUUUUGAGUCAAAAAGGAAAACGACAGAGCACGUGAAAACACGUAAAAGCUCGUCUUUCAAGAGAUAUCGAAAGAUAUCUCAA'
p15
aF1.0
aa(lp16
S'Saccharomyces Cerevisiae - Difficulty Level 0'
p17
aS'GAUUUUGCAGUGAAAAAAAACUGGGGGAAAAAAAAAAAAAACCAAUCGAUGUGAAAAAAAUAUCCAAAGUCAAAGCAUGUUCAAAGGCAAAAAAAAGUCUGGGGAAAAAAAAAAAACCCAAAUGGUACGAAAAAAGUAUCGGAUAUGAAAGUUUAGCCAAACUCAAAAAAAAGAGUGACAUCUAAAAAUGAUGUCAAAUGAGACUAAAAAUGUCUCGGCUAGAAAAAGAGAUGUAAGACCGAAAAAAAGGUCGUUAUCGAAAAAAGAUAACAAAGGAUACGAAAAAAGUAUCACAUUUCGAAGGAGAUACAAGACCGAAAAAAAGGUCGACUUCAAAAAAAGAGGUCAAAUGAUACAAAAAAGGUAUCGUAUUUCAAAA'
p18
aF1.0
aa(lp19
S'Fractal 2'
p20
aS'AAAAAGAUAUAUCAAAGAUCUAUAUAAAGAGCAAAAAAAAAAGCUCAAGAGCAAAAAAAAAAGCUCAAGAUCAAAAAAAAAAGAUCAAUAUAUAGAUCAAAGACAUAUAUAAAGAGCAAAAAAAAAAGCUCAAGAGCAAAAAAAAAAGCUCAAGAUCAAAAAAAAAAGAUCAAUAUAUAUGUCAAAGAUAUAUAUAAAGAGCAAAAAAAAAAGCUCAAGAGCAAAAAAAAAAGCUCAAGAUCAAAAAAAAAAGAUCAAUAUAUAUAUCAAAGAUAUAUCAAAAA'
p21
aF1.0
aa(lp22
S'G-C Placement'
p23
aS'GAUCAAAGAUCU'
p24
aF1.0
aa(lp25
S'The Sun'
p26
aS'GACAGGGGACCAAAGGUCAACCCGUCAAAUACAGUGAGACAAAGUUUAACACGUAAAAGAUAGAGAUGGAAACCAUAACUCAUCAAAGCCCGGGAUAGAAACUAUAACCCGGCGAAGAAAUGGAUACAAAGUAUAACCAUUCAAGGACAGAAACACAAGGUGUAAUUCGUCAAACACAUUGAUGCAAAGCAUGACAAGUGAAAGACAGAGAGACAAAGUCUAACUCGUCGAAGCAAGAGAUACGAAGUAUAACUCUGC'
p27
aF1.0
aa(lp28
S'Frog Foot'
p29
aS'GAAAAAAAAAGUUGGAAACAGCCGUCGAAAGAUGCAGCAAGGCUG'
p30
aF1.0
aa(lp31
S'InfoRNA test 16'
p32
aS'GAUAUCGCAGAUAUCAAAAGAUAUACUAGAGAUAUC'
p33
aF1.0
aa(lp34
S'Mat - Martian 2'
p35
aS'CAUCAAAGGAUGAAAGAUAAAUAAGAUAUACAAAAAAAGUAUAUCGUUUAUCAAUGAUAUAUCAAAAAAAAUAUAAAGAUAUACAAAAAAAGUAUAUCUUAUAUUAAAGAUAUAGAUAUAGAAAAAAAGUCUAUAUAUUAUAUCGAAAAAGAUAUAUCUAAGAAUUAUGUAUUCUAAAAAAAAGAAUAUCAGUAGUUCAAAGAUCAAAGGAUC'
p36
aF1.0
aa(lp37
S'square'
p38
aS'GAUAUACCGGUACCGGUAUCCGGUACAAAGUACCGAAAAGAUACCGAAAAGUACCGAAAAGUAUAUC'
p39
aF1.0
aa(lp40
S'Six legd turtle 2'
p41
aS'GAAAAAGGAAGUAAAAGUGAUGCAAAAUCAAAUGAAAACGAAAUCAAAAGAGAAGAAAAGUCGAAUUGAAACGGAACUAAAAAAAAAAAAAAAAAAAA'
p42
aF0.9591836734693877
aa(lp43
S'Small and Easy 6'
p44
aS'CCCAGGAAAAUGAAGUGAAAAAAAAGCGGG'
p45
aF0.9333333333333333
aa(lp46
S'Fractile'
p47
aS'AAAAAAAAAAAAGCAAAAGCAAAGCAAAGCAAAAGCAACCAAAGCAAAAGCGAAGGAAGGGAAACCAAAGCAAAGGAAACUAAAAAAAAAAAAAAAAAAAAAAAA'
p48
aF1.0
aa(lp49
S'Six legd Turtle'
p50
aS'GAAAAGUAAAAAGGAAAUGAAAACCAAGGGGAAAACAAAAAUGAACACUAAAAGGAAAUGUAAAAGUUAAGGCGAAAGAAAAAGUAAAAAAAAAAAAAAAAAAAA'
p51
aF0.9428571428571428
aa(lp52
S'snoRNA SNORD64'
p53
aS'GAUAUCAAAAAGACAAAAGACAAAGAUACAAAAAAAAAAAAAGUAUCGAAAGUCAAGUCAAGAUAUC'
p54
aF1.0
aa(lp55
S'Chalk Outline'
p56
aS'AAAAAGAUCAGAGACAAAAGUACUCGGUCAGACGAAAGUCGACAGAUAUCAAAAGAUUAUCAGCCUCAAAAGGGAGCGAUCAAAAAAAAAAAAAAAAAAAAAAA'
p57
aF1.0
aa(lp58
S'InfoRNA bulge test 9'
p59
aS'GAUAUACAGAGAGAGAUAUACAAAAGUAUAUCCCCGUAUAUC'
p60
aF1.0
aa(lp61
S'Tilted Russian Cross'
p62
aS'GAAAAGGGCGACCGAAAGGUCGAGCAGAUCUAAUGAUCGAUACGAAAGUAUCACAUCUAAUGAUGGCUCGAGCGAAAGCUCGCCCAAAAAAAAAAAAAAAAAAAA'
p63
aF1.0
aa(lp64
S'This is ACTUALLY Small And Easy 6'
p65
aS'AAAAAAAAAAAAAAAAAAAAAAAAAAAAAAAAAAAAAAAAAAAAAAAAAAAAAAAAAAAAAAAAAAAAAAAAAAAAAAAAAAAAAAAAAAAAAAAAAAAAAAAAAAAAAAAAAAAAAAAAAAAAAAAAAAAAAAAAAAAAAAAAAAAAAAAAAAAAAAAAAAAAAAAAAAAAAAAAAAAAAAAAAAAAAAAAAAAAAAAAAAAAAAAAAAAAAAAAAAAAAAAAAAAAAAAAAAAAAAAAAAAAAAAAAAAAAAAAAAAAAAAAAAAAAAAAAAAAAAAAAAAAAAAAAAAAAAAAAAAAAAAAAAAAAAAAAAAAAAAAAAAAAAAAAAAAAAAAAAAAAAAAAAAAAAAAAAAAAAAAAAAAAAAAAAAAAAAAAAAAAAAAAAAAAAAAAAAAAAAA'
p66
aF1.0
aa(lp67
S'Shortie 4'
p68
aS'CUGAAAAGAGCGAAAGU'
p69
aF1.0
aa(lp70
S'Shape Test'
p71
aS'GAAAAGAGAUCAGGAUACAAAAAAAAGUAUCAGGACCAUCAGAUACAAAAAGUAUCAGCUCAAAAGAGCAGAUGUCAAGAUCGCAAAAAAAAAAAAAAAAAAAA'
p72
aF1.0
aa(lp73
S'The Minitsry'
p74
aS'GACAAAAACACGAAACGAGCAAAAGACAAAAAGAGGAAAAAAACUCGGUCACUCAGUGGGUC'
p75
aF1.0
aa(lp76
S'stickshift'
p77
aS'AAACAUACCGAAAAACGAGUAUGUAA'
p78
aF1.0
aa(lp79
S'U'
p80
aS'AAAAAGAUACAGAGAGCAGAGAUAUAUACAAAAGUAUAUAUCCGCCCGUAUCAAAAA'
p81
aF1.0
aa(lp82
S'Still Life (Sunflower In A Vase)'
p83
aS'AAAGAUCGAACGCGGAAAACGCGUGAGUGAAAUGCAAUAGUGAUUCAAAAGGAAUCUAGAUCCAAAGAAUCGAGUCAAAAAAAGCAACGAGAUAGGAAAACUAUCAGACAAAAAUAGAUAUAUAUUUACGAUACGAAAAAGUAUCAUAGAUAAAAAAAAAAAAACAUCUAAAAAAAAAAAAAAAAAAAAAAAAAAAAAAAAAAAAACCUGAUGGAAAAAAAAAAAAAUCUAAAAUCAAAAGAUUUAGUAGAUAUAUAUUUAUUUUUGUCGGGACACAAAAAGUGUCAACAGUCAAAAAGACUGGACAAAGAAAAAUCUUGGAUACCGAAAAAUGAAGGAUGUAGAAAACCACAGAUACUCUAAAUGAGUGAGAUCGAA'
p84
aF0.9682539682539683
aa(lp85
S'Quasispecies 2-2 Loop Challenge'
p86
aS'GAAAGUGUCGGACGAUCUUAAAGAAGAGAGUCCAGAUCAACAAGGGGGAUCAUAGUGACAAGACGAAGAGUCGGGGAGCUAGACAAAAGAAAAAACAAAAAAAAA'
p87
aF1.0
aa(lp88
S'Corner bulge training'
p89
aS'AGAUAUCGAUACAAAGUAUCAAAAGAUAUCA'
p90
aF1.0
aa(lp91
S'Spiral'
p92
aS'AAAAAGAUCAGAUAUCAGACAGAUACAGAUCAGAUCAGCAGCAGCAGCAGCAGCAAAAAGCGCGCGCGCGCGAUCGAUCGUAUCGUCGAUAUCGAUCAAAAA'
p93
aF1.0
aa(lp94
S'InfoRNA bulge test'
p95
aS'AAAAAAAAAAAAAAAAAAAAAAAAAAAAGGCCCUAAAAUGCAGGAAUCCUCUAAGCCCCUACUCGGCUCAAAAAGAUGCAGACGUUCGGAGCGAUGACGGUAAAACUGGCUAAAAUGGAGCA'
p96
aF1.0
aa(lp97
S'Worm 1'
p98
aS'AAAAAAAUGGAGGUGUGUUCGUGGAUAACAGCUGAAGAGAACUAC'
p99
aF0.9111111111111111
aa(lp100
S'just down to 1 bulge'
p101
aS'AAAAAGCCCAGAUACAAAAGUAUCAGACAAAAGUCAGGCGCAAAAGAUCAGACAAAAGUCAGACAAAAGUCAGAUCAAAAAAAAAAAAAAAAAAAA'
p102
aF1.0
aa(lp103
S'Iron Cross'
p104
aS'AGGGAUUCAAAGGUAGUCAAAGACGCACAAAAGUGAAUGAAAUCCGUUCGAAAGAAGCUCAAAGGGAAGGAAAGGCACUCAAAGGAGAGCCCAAGGUGGCUAAACAAGCGCCAAUACAGCUCA'
p105
aF0.9024390243902439
aa(lp106
S'loops and stems'
p107
aS'AAAAAGAUAUACAAAGAUAAAAGAUGAAAGACCAAAAAAAAAGAUACAAAAAAAAAAAAGUAUCAAAGGUCGAAAGAACAAAAAAAAAAGUUCAAACAUCAAAGACAAAAAAAAGUCAAAUAUCGAACAAAAAAGUGAAGUAUAUCAAAAA'
p108
aF1.0
aa(lp109
S'Water Strider'
p110
aS'GAAACGUUGCAGCAUAGAGUCAAAAAACGGCUAAUCCACUGAAAAAGAGGCGGAAAUGUGCCGAAAGGCACUCGGAGGCUAAUAAAAAAAAAAAAAAAAAAAA'
p111
aF0.9611650485436893
aa(lp112
S'The Turtle(s) Move(s)'
p113
aS'AAUGGAAAGUCUAACGAGAUAUAUGAAAAAAAAGUAUAUCUCAAAGGAUAGAAAAUAUCACAAGGCCAAAAGGCAAAGAUUCAAAAAAAGAAUCAAAAACCAAAGUAAAAGUAGGAGGACGAAAGUCAAAAGAUAUGAAAAAAGCAUAUCGAAUGUCAAAAGACUAAAUGACAUGAAAAGACAAAAAAGGUCGAGAGGAAAAAAAUUCGAAGACGCAAAAAAGCGUCGAAGAAAAAAAGUUUCAACAUGUCUAAAAAAAAGGAAAACCAGAAAGCAAAAGCGAAAUAGAUACAAAAAAAAAAGUAUCAAAAAAGGU'
p114
aF0.9873417721518988
aa(lp115
S'Adenine'
p116
aS'GAUACAGUCUUCAGAUAUCAGAACUCGAAUUAUAUAUAUCAAAAGCUAUCGAAAAAGAUAGCGGAUAUAAGAGCCAAAGAUAUAGAAAUUAUAUCGGUUCAGUAGUUAGCUGCUUACUCCAAGGGAGUAAUACGUAGCAGAGUUCGAAGGAUAUCAAAAGAAGACAAAAGUAUC'
p117
aF1.0
aa(lp118
S'Tripod5'
p119
aS'AAACAGGAGGUAAAUUCUCGGUCGAAAAGACCCUGUGA'
p120
aF1.0
aa(lp121
S'Shortie 6'
p122
aS'CAGAAAUGAGCGAAAGUGACGAAAGUAUCGAAAGA'
p123
aF1.0
aa(lp124
S'Runner'
p125
aS'AAAAUAAUCUUGUCAAAAUGCUUAAAGGGCUCAUAUAACUAACGAGAGCGAAGCAAAACCCUAGAAAAAAAUUAAAUUGUGGGAAGGACAAAUCUAAAAAGAGGUCAGAUUUAAAA'
p126
aF0.9482758620689655
aa(lp127
S'Recoil'
p128
aS'GAAAAGAUACAAGCAAGCAAGACAAGACAAGCAAGCAAAGCAGCAGUCAGUCAGCAGCAGUAUCAAAAAAAAAAAAAAAAAAAAA'
p129
aF1.0
aa(lp130
S'[CloudBeta] An Arm and a Leg 1.0'
p131
aS'GAAAAGACAGAGACAAAAGUACUCGACAGCAAAAGCGUCAGUCAAAAAAAAAAAAAAAAAAAA'
p132
aF1.0
aa(lp133
S'[CloudBeta] 5 Adjacent Stack Multi-Branch Loop'
p134
aS'GAUACCUCCGAAAGGGGGCUACAAAGGUAGCGAUACAAAAGUAUCGGGCAAAGGCUCGUAUCA'
p135
aF1.0
aa(lp136
S'Triple Y'
p137
aS'GAAAAGAGCGGUGGACUGAAAGGUCCCACGAAACAGGCAGCCAAGCAUCAAAGGGUGGGAUGAAAGAUUGAUCGUUCGAAAAAAAAAAAAAAAAAAA'
p138
aF0.9175257731958762
aa(lp139
S'Misfolded Aptamer'
p140
aS'UAGCGAAAAUGAUAGUAUCAGAGUUAAUACGGGGGGGUCUCUAAAAGCUG'
p141
aF0.92
aa(lp142
S'Flower power'
p143
aS'GAAAAGUCUGAGCAAGGCUCAAAGCAAUCAAAGUUCGUGAUGUAUCAUCUACGCGUAUCGCACCUUAGUCCUAUGAACAGGCGAAAAAAAAAAAAAAAAAAA'
p144
aF0.8823529411764706
aa(lp145
S'Kudzu'
p146
aS'GAAAAUCAAUAUAAGAUCCAACGGAUUUAUAGGAAGAGGGACGAGCAACGAUGUUGGGUGAAGUAUGAAGAUGGUAGGUUGAAAAAAAAAAAAAAAAAAAA'
p147
aF0.900990099009901
aa(lp148
S'"1,2,3and4bulges"'
p149
aS'AAAAAGCUUGGCCUGUAAUCGAAACGGCUUACCAAUGUGAGGAGCAAAGGUCCACGGUAAUAAAACGUUACAAACGUGUGUAAACAAAAAAAAAAAAAAAAAAAA'
p150
aF0.9809523809523809
aa(lp151
S'medallion'
p152
aS'GAAAUAAAUUUACAAAGGGGAAUUGAAGAAAUUCGGACAAAAGUGAAAUUUAAAAAGAGAUUACCCAAAAGGGGCAUAUCGAAAGAUAUGACAGUAAACUGACGCAAAAAUGGCAUCUGAAAAUAGAUGACUCAAAAAGGACGUGUUAAAAGAUACGGUAAUAAUAUAACGGGAAACCGGUCCAUAAAAAUAUGGAAUACAAAAGAGGCAUAUGGAAACAUAUGAGAUAAAAAAUAGAUAAAAAUUGCAAAUAGAAAUAUUUCGAACAAAAGUCAGAAUUUAAAAGAAUUCACAAUAAAUCGCAGCUAAUAUGGCAAAUAAAAAUAUUUGGUGUUUC'
p153
aF0.8783382789317508
aa(lp154
S'[RNA] Repetitious Sequences 8/10'
p155
aS'AGGAAAAAAGCAAAAAAGCAAAAAAGCAAAAAAGAAAAAAAUCAAAGAAGAAAAAAAUCAAAAAAGCAAAAAACCAAAAA'
p156
aF1.0
aa(lp157
S'Documenting repetitious behavior'
p158
aS'AAAAAAAGGAAAAAAAAGCGAAAAAAAAAUGAAAAAAAAAGGAAAAAAAAAGGAAAAAAAAAGGAAAAAAAAAGGAAAAAAAAUUGAAAAAAAAACUAAAAAAAAAAGAAAAAAAAAUGAAAAAAAAAUGAAAAAAAAAUGAAAAAAAAAUGAAAAAAAAUUGAAAAAAAAAAGAAAAAAAAACGAAAAAAAAAGGAAAAAAAAACUGAAAAAAAAUGAAAAAAAAACUAAAAAAAAACAUAAAAAAAACAAAAAAAAAAGAGAAAAAAAACAAAAAAAAAACAAAAAAAAAACUAAAAAAAAAAGAAAAAAAAAUGUAAAAAAAAUCAAAAAAAAACCAAAAAAAAGUCAAAAAAAAAUCAAAAAAAAAUAGAAAAAAAAUCAAAAAAAAAUUAAAAAA'
p159
aF0.88
aa(lp160
S'7 multiloop'
p161
aS'GAACUUUCUAAAGAGAAAACACGGAAAUGUGGGAUCCGAAAGGAUUGUCAGAAAGGUAGUGAUAAGAAAGUAUCCAACCAAAGGGUUGGUUC'
p162
aF0.9782608695652174
aa(lp163
S'Kyurem 7'
p164
aS'GAAAAGAUACACGACGAAAGUCGGGAAAAGUCCAGUCGAAAAGAUAGAGUUCGAAAAAGAAAAUCUCGGACCCCGUGAUAUCGAAAAAAAAAAAAAAAAAAA'
p165
aF1.0
aa(lp166
S'JF1'
p167
aS'AUGAUACAUUCAGAUACAAGAUACAAAAGAUAUCAAGAUACAAAGAAUCAAGAUAGCAAUAUAUAUAUAUACGAAAGUAUAUAUAUAUAUGAGACAAAGGUCAGAUAUAUACAAAAGUAUAUAUCGAGAUACAAAAGUAUCAGUUAUCAGAUUCAGUAUCAGAUAUCAAAGCUAUAGCAAAAAGCUAAUAGCAAGAUAUAUAUACAUAUAGAUAUAUAAAAAUAUAUAUUUAUAUGUUAUAUAUAUCAAAGAUACAAAAAAGUAUCGAUAUAUAUAAAAAUAUAUAUAUCAAAGAUGGAAACAUCAAGUAUCAAGUAUCAGAUCAGACAGACUAAUGUCGUCGAUCAGAUAUAUACAAAAGUAUACUAUCGGAAUAGUAUUCAUAAA'
p168
aF1.0
aa(lp169
S'multilooping fun'
p170
aS'GUGUAAUAUUAAUAGUAAAGGGGAGGACAAAAGGGU'
p171
aF0.8333333333333334
aa(lp172
S'Multiloop...'
p173
aS'GGCCAGUACGGAGAAAGGUCAGAGAAAGCUCAAACAAAGGUAAUACAAAAGCGAAAGUAAUUUCGGACAAAAGUCAGUACGGAAUGGAAAAAGAUUCGUCAAAGGACGGCC'
p174
aF0.9459459459459459
aa(lp175
S'hard Y'
p176
aS'AAAAGAUGCACUAAUGUUUCUAAUGAGACAUUUGUGAUAGAUUUAUAAUUAAAUCUAUCUCAUAAAAA'
p177
aF0.9705882352941176
aa(lp178
S'Mat - Elements & Sections'
p179
aS'GAAAUGAGUGGGAGGAUUUAUGGGAUCAGACGUUUGACAGACAAAAGUCGGAGAAGUAACGAUCAAAACUUAAGACAAACAGCUCUAAAAAAAAAAAAAAAAAAA'
p180
aF0.9619047619047619
aa(lp181
S'Chicken feet'
p182
aS'AAAAAGCAGGAGGAACGCAGGUAUCAAAAGUGCAUUACGAAGCAAUCAGCAAGCCGAGCCACAAAAA'
p183
aF0.8507462686567164
aa(lp184
S'Bug 18'
p185
aS'AUAUGCUGCGGAAAGCAAGUGUUGAAAAAAACAACUUCGAGCUAGUUAAAUAA'
p186
aF0.8490566037735849
aa(lp187
S'Fractal star x5'
p188
aS'AAAAAGUUAUGUGAAACACAAAAGUGUGCCCUCAAAAGAGGUGGACGGAAAUGUCAGGCUAUAAUUAGCAAUACAUAGCAAAAAGGCAUCGGAUACGCAAAGGCGUUACAUAAAAAUAUGGGAAGCAAAAGUUUAGCGUGGAAACACGAACCGAUGCCAAAAAGAUAGAUGAAACAGUAAUUUGUGACAUCAAAAGAUGGAGCUCAAAGGAGCGAGAUAAAAAUGUCAACGUUUAUCAAAAAGUUACAUGGACGGCAAAGGUUGGACGUCAAAAGACGGAUAUCGAAAGAUGGAGGUAAAAAUAUCGACAUGUAGCAAAAAGCUAUAUAGGGGAUAAAAGUCUAACAUCAAAGGAUGGAGAUCAAAAGAUCGGGCUCAAAGGAGCAAUAUAUGGCGAAAA'
p189
aF1.0
aa(lp190
S'Crop circle 2'
p191
aS'GAAAACAAAAUCGUAAAAGUAAAAAAAAAGAUAAAAAAAAAAAAAAAAAAAAAAAAAAAAUUCAAAAAAAAAAAAAAAACAAAAAAAAUCCUAAAAACUCAAAGUAAAAA'
p192
aF0.9636363636363636
aa(lp193
S'Branching Loop'
p194
aS'GGAUCUAAAAAAAGAUGGGUUAUUCGGAAUAUCAAAAAAA'
p195
aF0.95
aa(lp196
S'Bug 38'
p197
aS'AGCUACCGCGGACGAAAAUAGUAGGUUGGUAAUACA'
p198
aF0.9444444444444444
aa(lp199
S'Simple Single Bond'
p200
aS'AAAAAAGGAAAAAAAUGGGCAAAAGGCCUUAAAAAAAACAAAAAAAAAAAAAAAAAAAAAA'
p201
aF1.0
aa(lp202
S'Taraxacum officinale'
p203
aS'CUGGAAAACACCGGACGGAAAACACUUAGUGCAAAAGACACGAAGCAAAAGACCCACAGCAAAAGACUGGUCCCUAAUGAGGGAGAUAUAUAUAUGAGAUAUAUACAAAGUAUAAUAUCUCAGAUACAAAUGUAUAUACAGGAUAUACUAUGUGUAUCAGUAUAUAUAUGAUUAGAUAUCUAUGAUAUCGAUCGUAUUAAAAUAUAUAUAUCAGGUAAAAAAAAUCGGACCGAAAGACUCACAGUAAAAGACUGAGAUCGAAAGAAACGUGACAAAAGAUCA'
p204
aF0.900709219858156
aa(lp205
S'Headless Bug on Windshield'
p206
aS'AGCGUGAAAAAGACUCAAAGCGUCGAAAAAAAAAAAAAAAAAAAAAAAAACGAAGCGAAGAGAUCAAACAAGCAGAGUAGACAAGGAAAAAAAGCAAAAGCAAAAAAACCGUCAAAAAUCUCAGGGCCAAAAAAAGAAAAGAUUUAUUUGCAACCGAAAAAAAAAAAAAAGGUGGGCUUAUAUUUCGUUCAAGGAACCCG'
p207
aF1.0
aa(lp208
S'Pokeball'
p209
aS'AAUCUAGUUCAAAAAGAAGAGAUAUAAGACCCCCAGAUUGAUUUAAUGGUAUACUGAUUUCUUCAGGGUUCAAUAAUCACUGAACUGGUGAAAAAAGUUUUACAAAAGUAAGUAGAACAGGAAGUGAGAUAAUAACGGCAGCGAAUCAACCGUAAAGACCAGUUAGUUAACAAUGUAAAGUAAA'
p210
aF0.8858695652173914
aa(lp211
S'Variation of a crop circle'
p212
aS'GAAAUAAAAAGCGAUCUGUAAUUAGAAGUUAGUAUUGUUGUGAAAUAUAAAAUUCGGAAAAAACAAAAAAAAAUCGAAAAAAAAAAAA'
p213
aF0.9090909090909091
aa(lp214
S'Loop next to a Multiloop'
p215
aS'AAACAUAUAUUAAAAAACGGGAGUCAAAAGAUUCCACAUAUAUAAAAGUAUAUGAGGAAAAAUAUAUAUGUAA'
p216
aF1.0
aa(lp217
S'Snowflake 4'
p218
aS'CACCAAAUUACCGGUCACAAAAGCCAGAUAAGUUACGCAAAGGGCAUAACAUCUAUGAUGGAGUACUAUGAACUUAUCGCUAAUGCGUAACGGCUUACGCGAAACCCACAGCGGCAAAGCCGGAGAUCUAUGAUCCUGUGAUGAAAUGUUAAGAAGAUACCUGAAAUUCAGAACGGCUAUGCCGAAGAUCAAAGAUCGUCUGCCUAAAGGGUAUCAGGAUAGGUAAAAAGAAGACCGGCGAAGCCGAAGAUCAAGGAUCGUCUUCCGAAAGGAUAGCAUGAGACACAAAAAUAAUGCGAACAAAGAACGAGGGCACGGUUCGCCUUGCGAAAGUGUUUCUAGUCUGGCGAAAGCGACCGCACCGAAGCUG'
p219
aF0.8702702702702703
aa(lp220
S'Mat - Cuboid'
p221
aS'GAAGUAAAAGCGAGCUAAACGGACCAAAAGUUGAAAGUAAAACUAGGCAAGCAAAAGUAGCAACCAACCAAAAGCAAGCAAACAAGCAAAAGUAAGCGAGCAGGUGGGGCAAAGCAGUCUUUGUUUCUUUCAAAACCAUUCUUUCUUUCCGUCGUUCCAAAGCGUUGUAUCUUUGUCUCAUUUACAAGGUGACAAUCUUUCUUUCUAUCAAAACAGAGUGAUUGCUUGAGUGGAUCCAAUGAGUUUAUUGAGUCGUAGCGAAUGCCUGAUUGAUUGAUGGGGAUUGAUUCACUGAUGGCCCAAGUAAGCAAGCAAACGCAAGAAAGCAAAGGGGAGCUAGCAUGUCAAGAAAACACAACCCUGGGAACGGUAAGUGCGAU'
p222
aF0.8184210526315789
aa(lp223
S'Misfolded Aptamer 6'
p224
aS'GAAAAAGACAAAAAGGGGCGACAAAUGAUAAAAAAAGAUCUGAGGGAAAAGCUCAAAAAAAGUCAAAAAAAAAAA'
p225
aF1.0
aa(lp226
S'Snowflake 3'
p227
aS'GACGCUAAUGUAUGCGGCAAAAGUUAAAAUGAUGUCAAGAUGAAAAUCGAUUACAAAAGUAGCAAAGUUUAAAAAGGAACCUAGAAAGGUCAAGCCGAGUCCAAGACAAAAGGUGAUAGCAAAGAUAGGUAUCUUGUAAAAAGAGUCGACAAAAGUCAAGGACAGCUGUAGACUAAUGUCUAAAACAAAGGUAUCAAAGAUAUGAAAAUAUAAGAAAAAAUUCCUUAGCAGUUGAUAACGAAAGUUUAAAGCAAAAAUACCGAAGAUACAAAAGAAUUAUACUAAUGUCAAUAGCAAAACAAGACAAAAGUCGGAAAUAAAAAUAUCGAAGAUACAAAAUUGUCCGUCAAAAGACAGGUUUGCAUUAAUACUAAUGUCGUAGGUAAAAGUGUC'
p228
aF0.811704834605598
aa(lp229
S'Hard Y and a bit more'
p230
aS'GAAAGGGUACCCACUGACAAAAGUCUAGGAGACGCUUUAAGAUCUAAUGGUCGAGAUACAAAAAGGUGUCAGGGUGUGGUGUAUCAAAAAAAAAAAAAAAAAAAAA'
p231
aF0.9716981132075472
aa(lp232
S'Mat - Lot 2-2 B'
p233
aS'GGAGGAUUUAUUAAUGAAAAGCUUUUCCAAAAGGAAAAGAUUGCCAGUAAAAAAUAUUUCCGAAGGAAGAAUUAACGCUCAAAAGCUGUCUCUCUCCCAAGCAAAGGCGAACGACUAAGAAUGCGACAGGGAGUGUCAGCAAGAGGGCUCGGUCCUUCAAAAGUUAGAUAGAAAUGAAAAUCGUACGACUGGAUAACUUUGCACUAUCAAUAAUGCGUUUUCAAAAGUUGUAGCCAUCAUAAGAAAAAUUGAUUGUAUAAUAAUACGAUUACCCAAGGACCCAG'
p234
aF0.7887323943661971
aa(lp235
S'Shapes and Energy'
p236
aS'GAAAACCGCAUCACCGCGAAAGGAAAUGCGUGAAAAAGCAUGAACGCGUAGAGAAAAAAUAGGGAAAUCAGCUAGAUGAGGAAAAAAAAAAAAAAAAAAAA'
p237
aF0.9603960396039604
aa(lp238
S"Spiral of 5's"
p239
aS'UAAAAGAUACAAUGAUAGAAAGAUAGUAAAGAUACAAAGAUAGAAAGAUAGAAGAUACAAAAGAUGCAAUGAUAGAAAGAUAGAAGAUACAAAGAUAGAAAGAUAGAACAUACAAAGAUAGAAGUUACAUGAUACAAGAUACAAGAUACAGAUACAGGUAUAUGUAAAAAAUAUAUAAAAAGUACCAAAAAGUAUCAAAAAGUAUCAAAAAGUAUCAAAAAGUAUCUAAAAGUAGCAAAAACUAUCAAAAAGUAUGAAAAACUAUCAAAAACUAUCAAAAAGUAUCGAAAACUAUCAAAAACUAUCUAAAAGCAUCAAAAAGUAUCAAAAACUAUCAAAAACUAUCAAAAAGUAUCGAAAUCUAUCGAAAACUAUCUAAAAGUAUCAAAAAGAAAAA'
p240
aF0.9949622166246851
aa(lp241
S'Campfire'
p242
aS'AAAAACUCGAACAUGAAGCUCGAGGUUUAAAUGACCAAAUGAUAUUCACUUAGAGCGUAAUCAAAAGCAGCGACAAAGGUACGCGCUUAAAAUGUGACCAGCGAAAGCGGCAAAUGAGGUUAAUAUAGUAAUUAAAUACUUGAUAAUUCGUGUGACGGACAGGCAUAUCAAAAGAUGGUCGUCGAGAUUUAGAAUAUAAUACUCAGUAGGGU'
p243
aF0.9056603773584906
aa(lp244
S'Anemone'
p245
aS'AAAGUGAGUACAGACUCGCGAUACGAAAGUAUCGUCUGCGAAAGCGGACGAUUGGAAACGAUCCAUAUAGAAAUAUAUGCGUACGAAAGUACGGCUGCGAAAGCGGUACCAACGAAAGUUGGUAUAGCUAAAGGGCUAGGGAUCAAAAGAUCCCCCGAUAAAGAUUGGGAAAUCAAAUGAUUUCGAAGCGAAAGUUUCCACGUCAAAGGACGUG'
p246
aF1.0
aa(lp247
S'Fractal 3'
p248
aS'AAAAAGAUCAGAACGCAAAACCUUAAAAGACUUCUGAGAUCAAAAGAAGAAAAUCAGUCUGAGGCCAAAGGGAGUAAUUUAUUCUCACAGCAAAAGCGCGAAAGCAGUGUGAUCAAAAA'
p249
aF0.8823529411764706
aa(lp250
S'Kyurem 5'
p251
aS'GAAAUGAUAGGCGAGUAAUUUCGACAAAACGUGGCUCAAAGAGGAAAAUGCGAGUCCCGAAAAAGUAACACGUUCGUAAGUAUCUAAAAAAAAAAAAAAAAAAA'
p252
aF0.9230769230769231
aa(lp253
S'Snowflake Necklace ( or v2.0 )'
p254
aS'GAUAGGUAGUGGUAGAGAACCAACAAAAAGAAUUAAAAAGGAUCAAAAAAAAUCAAAAAGAAUUAAAAAAAAUUAUCAGACUUAAUCUCGGGGGGUUCAAAAAGAACCAAAAAGGAUCGAAAAGAGUGAAAAACAGGCAAAAAGCGUUUCCAGAAAAAAAGUCAGGGACAUCAAAAAGAAGCAAAAAGUAUCGAAAAGGAGUAAAAAGUAUCAAAAAGAGGUCCCAAUUAAAAGGACAGACACAUAAAAAUGAGUCAAAAAGAGCUUAAAUGUAUCAAAAGCAAGUUAAAUGCAGUGUCGGGCGAAAAGCCUUAGACAGCAAAAAGCAUAAAAAAGAGACAAAAAGAAUCAAAAAGAAUUAAAAAGAAGAUUAAUUAUUGUUACUUAUC'
p255
aF0.8303341902313625
aa(lp256
S'Methaqualone C16H14N2O Structural Representation'
p257
aS'AAAAAAAGAUCUGAUAAGGCAGAUAAAAGUCAGACACACAAAGGUGAGACGGACAAAAGUUAUACAAUCAAAAGGUAUCCAAAAAAAGGAGGAAAGUCAGUCAGUCAGAAACAAAUCAGCACAAGGAAGUUGCAGCAAAGCAAAAAAAAAACAUACAGACAAAAAUCUUCAAAAUUAGACAAAGGUCAUAUCCAAAGAUCAGAAACGUGCAAUGACACGGGUAAUGAAAAGACAAAAGUCAUAUACCCAAAAGGGAAUCAUAGAAAACUAAGCGGGCGAAAACGCAAGUAUGAUACAAAAGUGUACUAAUGUAACAAAAAAGGGUUAAGCGCGAUCAAAGUGCUGAUCAAAAAAA'
p258
aF0.8507042253521127
aa(lp259
S"Cat's Toy 2"
p260
aS'AAAGUAGAUCCAAAAAGGAGCGAAAAAAAAAAAAAAAAAAGUAACUAAGGAAACCCGAGUCUAAUGGAAAAAAAUGGGAAAAACCUGGAUCUAAAAA'
p261
aF0.979381443298969
aa(lp262
S'Zigzag Semicircle'
p263
aS'AAAGUAUAGGUUGAAAAAAAAGAGAUUAUAAAAA'
p264
aF0.9411764705882353
aa(lp265
S'Short String 4'
p266
aS'GAAAAAUGAGGUUGCAGUAAAGACUAGCCACUGCGGAGUAAUGAGCUUUCAAAAGAUUGCAUUUAAGAGCACCCUAGAAAAAAAAAAAAAAAAAAAA'
p267
aF0.9381443298969072
aa(lp268
S'Gladius'
p269
aS'UAAAAAAAUAGAACGAAGAAGGGAUGAAAGACAGCCAAUGAUCAAAAGAUCUGAUCCAGGAGAAAAGAGGGCAAGUUCUCAAGAGAUAUAACAGAUAUGAGAUACAGAUCAAAUCCUGAUCAAAGAUCUGAUGGGAUCGAUAUUAGAUAUCGAUUAUAUUAGCAGAGGUGCAGCCCGCCAGUAAGCAGGAUCAGGCAAGCACAGAAUUGGAAGAUGGUAGAUCAUAAGAUCCCAUGAUAUACGGAAUACAGAUACAUAUAUCAGACAGAUUUCGAAAGAAAUCAGGUCGAAUAUCGGUAUACGUAUUAAGUAUAUCCGGAGAUCAAAGGAUCUUUAAUCACAAGAUUCAGAAGAAAACUUCAAAGUGAGUCAAGCUACGCAAAAAAGAAAGGAAUAAAAG'
p270
aF0.9
aa(lp271
S'Thunderbolt'
p272
aS'GUAGGAUACAAAAAAAAAAGCAGGCGGGGGGCGGAAACGGAUACGUAAAAAAAAAGGCGAAAAAGCUGAAAAACAGCAAAAAAGCAAAGGUUCCAAAAAAGACGCAAAAAAGAGUAGGCACCCAAAAAUAAAAAACAGCAAAAAGAUAAAAAGUGCUACAAGGUGGAUUAAAAGGUUUGUGCUCAGAAAAAAAAAGUAGCAAAGCGGAGUAUAAAAACGAAGUACAAAAAAAAGUUGGGGAUGACAUGUAUCAUGUCUGGUGGCAAAAAAAAAAAGGUUUCAAAAAAAAGCAAUUAAAAACAUAUUGAAAACAAAAAAAAGGAAAAGAUAUGAAAUACAAGUAUGUGCCAAAAAAAACGGCAAGCGUAAAAAGUAAAAAACGGUAUCACGCA'
p273
aF0.9362244897959183
aa(lp274
S'Mutated chicken feet'
p275
aS'GAAAAAACGGUCAGAAAAGCGUCGAAGCAAAGGCCUGCAGAUGGAAACCUACAAAACGAAGGGCUGCACCAGGAAGUCGGCAAAGAAAACGGCAAAAAAA'
p276
aF0.88
aa(lp277
S'Chicken Tracks'
p278
aS'GAAAAAAAGGUAUCGUGCCAAAAGGCGGAGAUUAAAGAAUCGAGAUCAAAGGGUUCGAUACCGAGGGCACGAAGCAAACGGAUCAAGGAUUAAAAUUAAACCUCCGUGAAAAAAAA'
p279
aF0.9482758620689655
aa(lp280
S'Looking Back Again'
p281
aS'GACAAGACGAUGAAAAAGAAAUCAAAGAUUUCAUAUUGAGAGAAGAAGACUAUGUCCCUAGUUACAAAGAUCGAAAGAUCAAAAGUAACGAUUCAAGUCAAGGACGACAAAAUGGUACAAAAGUACCUAUAAAGUCCAUAAGAUACAAACUAUUGAUACAAAGUAUCGAUAUGCCAGGUAUAAUUUAUGGUUUUGGAAAAUAGAUUCAUUCAAGACAGGGGCGAAAGUCAACAUAUCAAAGUACCCUCCGGCUACACAUCAAAAACGAGGCAGAAAAAAAAGAUCAAAAAGAUCUUGCAAACGCAGAUGGCUCAAAAAAGCUAUAUUAAAAAAUAUGGAGACCCUAUGGUUAUACGAAGUAUAUAGUCGCAAAAGAGCGUAUCAAGGUC'
p282
aF0.9023136246786633
aa(lp283
S'Multilooping 6'
p284
aS'AGUAAUGGCGUCCUCUAAUGAGGAGACCUAUAUAGGUCUGCCAGUCUCUGCAAGAAGAGCAAAUAAUUUUGUUUGCUUGGAA'
p285
aF0.9024390243902439
aa(lp286
S'Cesspool'
p287
aS'GAAGAAGAACAUCAGAUUAUAACGCCAAGGGCAAUGAAGUAUUGCAGGUGAAAGUAUGAUAUAAAAAUUUAAAACGAAAACAACAAGAAAUUGAUUGAAAGGAGAUUAAAGAUGGUAUUUAUGUAAUGUGUGUCGGUCAAAACUAGACGUUAAAAAUAGGCAACGGAAAUAGCUUUGAGGGGAAAGAAAACGAGACGAUAUCGCAUAUUGCAGACAAGAGUCCAGAAAAAAAUGGCAGGGGAAAACUUUGCAUCGCAAUUAUCAACCGAGCAUGAAGAAAAUGUGUCAUUUCAUUCAAAGAAAGCGAUUGGACUAAUACAAAAGUUUAGUUGGAAACCUCGCAACGAAAAUACCUAGC'
p288
aF0.664804469273743
aa(lp289
S'Hoglafractal'
p290
aS'AAGGGGAAUAUAGAAAUGAUAUAAAAAAGUAUCCUAUAGGUCAAACCACAAAAAGUGGAAUCAUCAAGGCGAAAGUCCACAGGGGGAGAGCAAAGUUCGAAAAAGAGCGUCCGACAAUAUAAAAAGUCGGGCUACUGAAAGACCAGAUAAAAAGUCGAGACAAAAAAGUUCGCGCAGCAAAAGGCACGUCAAACGUCAGAAACGAAAAGCAGCAAAAAAGCGCAGCGAAAAGCUGCGAAAGCAGAUGUCAAAAAAGGCAAAAAGGCCUCAUAAAGGGAAGAUAUAUAAAGUAUAUCAAAAAAAGACAUCAAAAAAGUUUCAAAAAUAUCAAAACCCGAGCCAAUAAAGGCCAGAUUAAACGCUAAAGCCCUAAUGAUAAUUCAAAGAAUUACGAUCGGAC'
p291
aF0.9025
aa(lp292
S'Bullseye'
p293
aS'AAAGACGGUCAAAAACCAGUAGCUAUGUUGAAAGUCAAGGAGUGUCGAAAAAAAGACGUCCAAGGGUCGAGUUGAAACAGCGAGAUCGAAGGUCGCUAAAAAAAGUAGGCCUAAAGGGUGAGACCGAAGAUCGAUAUCAAGGAUCUUGAAAAAAAUACAUGCCAAGAAUUGAGGUCUAUGAUCGGGAUAAAAUUGCUGUUAA'
p294
aF0.8415841584158416
aa(lp295
S'Shooting Star'
p296
aS'GAUAUCGGUCGAAGUACAAUGAAUUUCCGCCUGUCAGGAAAAGACGCACUGUGGAAAUCCUGGUACUUCAGAUGCGGUAGUUGGGGACAGAUACAUUCAGAUCGGCAAAAGAAGAUACGAAGAUAUAUGUCAGACUUUAAAGGAAAACAACAACGAACCAUACAAGGUAUGAGUUACAAAGUAUCGACAAAAGGCAGUUCAGCCCAGAUGUGGUGAAUGAUAGACAAAGUCUAUUUUAUGGAAAUUAUACGCCGAUACACUAUGUGUAUCAGAGCCAAAGGCUCCAUCUCUGAACAAAAGAUAUAUGUGCAGUUAGAGAUCAGAAAAAGAAGAUACUCCCCAAGAUCUAGUUGAGCAGAUAUCA'
p297
aF0.8214285714285714
aa(lp298
S'Teslagon'
p299
aS'AAAAAAGUAAAAAAAGCUCGAAAAAAAGCUUCAAAAAAAAAAAAAAAGCACACAAAUUACAAAAAAAAAAAAAAAGUUGUAAAAAAACCACGAAAAAAAUCAAAAAAAAAAAAAAAGAAAAAAAGCGAGGUAAAAAACCUUAAAAAAAAAAAAAAAGUGAAACAAAUUACUAAAAAAAAAAAAAGGUGGCAAAAAAUCGAGCAAAAAAAUCAAAAAAAAAAAAAAAGGAAAAAAAGCAAGAAAAAAAACUGGAAAAAAAAAAAAAAGUCAAACAAAUUGUAAAAAAAAAAAAAAAGCGGUAAAAAAACUAAGGAAACAAAGUAAAAAAAAAAACAAAAAAAAAAAAAAAAAGUUCAAAAAAACUUGUAAAAAAAACGGAAAA'
p300
aF0.9162303664921466
aa.