(lp0
(lp1
S'Simple Hairpin'
p2
aS'GAUACAAAAAAGUAUC'
p3
aF1.0
aa(lp4
S'Arabidopsis Thaliana 6 RNA - Difficulty Level 0'
p5
aS'GAUAGACUAACGACGAAAAAAAAAAGUCGCUAGAUCUUGCUAGAUAUACACAAUACUAAAGAUACAAAAAAGUAUCAGGUAUUAGUGUAUAUCUAGCCUGAUCUAGCAUGUCUAUC'
p6
aF1.0
aa(lp7
S'Prion Pseudoknot - Difficulty Level 0'
p8
aS'GAUAUCAGAUCGAAAGAUCGAUAAUCAAAAAAAAAA'
p9
aF1.0
aa(lp10
S'Human Integrated Adenovirus - Difficulty Level 0'
p11
aS'GCUAGAGUGUGCACUGCUAGCAAAAAAAAAAUGAUCCACGUGGCCCCACUACAUAAUUAAAGUUAGAUAUACACUAAAAAAUGUGUAUAUCUCAAAGGAGGUACCAAAGUAUACAAAAGCGUGAAAACAUUCAAAAAAGGAAUGUGAUCUAAAAAAAAAAGGCUAGCUGUGCAAAAACACUCAAAUAGCAAA'
p12
aF0.9791666666666666
aa(lp13
S'The Gammaretrovirus Signal - Difficulty Level 0'
p14
aS'AAGGGUAGCUAGCGAAAGCUAGCCUCGCAAAAAAGAUCAAGACAGAAGCAGUCGAAAGACUGGAAAUUUCGUCGAUCAAGCUAGAUCGAAAGAUCUAGCAA'
p15
aF1.0
aa(lp16
S'Saccharomyces Cerevisiae - Difficulty Level 0'
p17
aS'GUUAGUCUUAGGAAAAAAACUAGACGGAAAAAAAAAAAAAAUGAAAAGAUCCUAAAAAUGGAUCGGCUAACAAAGGUGAGAGGAAGGUAAAAAAAAACCCCACUAAAAAAAAAAAUGUGUAAAGGUGCAAAAAAAGUGCACUCUUACAAAGCGCAGACAAGAUGGAAAAAAACAUCCAUAGCAAAAAAGGUUAUGAAAACUAACGAAAAAAGUUGGGUCUGCGAAAGUCUAGACAAGAGGUAAAAAAUCCUCCAUUCCAAAAAAAGGGAUGAAAAUUUACAAAAAAAGUAAAGUCUAGGAAAAGUUAGGCAAGAUGUAAAAAAUCAUCCAACACAAAAAAGGUGUUGAAAAGGUAGUAAAAAUCUAUCGUCUAACGAAA'
p18
aF0.9894459102902374
aa(lp19
S'Fractal 2'
p20
aS'AAAAAGCUAGAUGGAAGGUCGAUGUCAGACUCAAAAAAAAAGGAGUAUGUGCAAAAAAAAAAGCGCUAGGCCAAAAAAAAAAGGUCAAGACAUCGACUGAAGCUGGAUAUCGGUAGCUAAAAAAAAUGCUAAAGUGCAAAAAAAAAGGCGCAAAUCCAAAAAAAAAAGGGUGAGAUAUCUAGCAAAUCUAUAAAUCAAGCGCUAAAAAAAAUGCGCGAUAGCUAAAAAAAAUGCUGAUGGUGAAAAAAAAAACACCUAGAUUUGUAGGAAACAUCUAGCGAAAA'
p21
aF1.0
aa(lp22
S'G-C Placement'
p23
aS'GAUCAAAGAUCU'
p24
aF1.0
aa(lp25
S'The Sun'
p26
aS'CAAAGAGAUACGAAGUAUAAGGCGUGAAAGUUAUAUAGAUAAGCUCUAAAUAAACGAGGACACGCAGUGAAACACUAAGUGGUCAAAGUGAGCUUGAAAAAGUCGAAAGCCACAAACUCAGCCAGACAAAGUCUGAGGGGAGAAGGAGAGCCAGAUAAAGUCUAAGGCCUCAAAGACAGUGAGACAAGGUCUAAAGCGUCGAUUACAACUAGACAAAGUCUAAAGCGUGUAAGGCAGCUAGAGAAACUCUAAGGCCUC'
p27
aF0.9069767441860465
aa(lp28
S'Frog Foot'
p29
aS'AAAAAAAAAUAUGAGAAAUUAUUAUCGAAAGAUGACGCUAUGCGU'
p30
aF1.0
aa(lp31
S'InfoRNA test 16'
p32
aS'GCUAGCGCACAUUGCGAAAGCGAUCGUAGAGCUAGU'
p33
aF1.0
aa(lp34
S'Mat - Martian 2'
p35
aS'GAUCGAAAGAUCAAAGCUAGACAAGCUAGACCAAAAAAGUCUAGCGUCUAGCAAAGCAUGUACAAAAAAGCUAGACAGCUAGACCAAAAAAGUCUAGCGUCUAGCAAAGCUAGAUAUACACUAAAAAAAAGUGUAUAAUCUAGCAAAAAAGUACAUGCAAAGCAUGUACACUAUGAAAAAAACAUAGUGAAUACAUGCAAAGAUCGAAAGAUC'
p36
aF1.0
aa(lp37
S'square'
p38
aS'GCUAGACCAGUACCAGUAUCCAGUACAAAGUACUGAAAAGAUACUGAAAAGUACUGAAAAGUCUAGC'
p39
aF1.0
aa(lp40
S'Six legd turtle 2'
p41
aS'AAAAAGCAAAGCGAAAGCAAAGCGAAAGCAAAGCGAAAGCAAAGCGAAAGCAAAGCGAAAGCAAAGCGAAAGCAAAGCAAAAAAAAAAAAAAAAAAAA'
p42
aF1.0
aa(lp43
S'Small and Easy 6'
p44
aS'ACGUUAAAAAGAAAUCUAAAAAAAAGGGCG'
p45
aF0.9333333333333333
aa(lp46
S'Fractile'
p47
aS'AAAAAAAAAAAAGCGAAAGCAAAGCAAAGCGAAAGCAAGCAAUGCGAAAGCUAAGCAAGCGAAAGCAAAGCAAGCGAAAGCAAAAAAAAAAAAAAAAAAAAAAAA'
p48
aF1.0
aa(lp49
S'Six legd Turtle'
p50
aS'AAAAAAGAAAAUCAAAGGAAAAUUCAAAGUAUAAAUUAGAAGAAAAGUCAAAAGGAAACAUAAAAGAAAAACGAAAGCGAAAAUCAAAAAAAAAAAAAAAAAAAA'
p51
aF0.9619047619047619
aa(lp52
S'snoRNA SNORD64'
p53
aS'GCUAGCAAAAAGACAAAAGACAAAGAUACAAAAAAAAAAAAAGUAUCGAAAGUCAAGUCAAGCUAGC'
p54
aF1.0
aa(lp55
S'Chalk Outline'
p56
aS'AAAAAGCUGAGGAACUAAUGUAUCCAGACAGACGAAAGUCGUCUGCUAGCGAAAGCAUAGCUCCCAUGAAAAUGAGGCAGCAAAAAAAAAAAAAAAAAAAAAAA'
p57
aF1.0
aa(lp58
S'InfoRNA bulge test 9'
p59
aS'GCUAGACAGAGAGAGCUAGACGAAAGUCUAGCCCCGUCUAGC'
p60
aF1.0
aa(lp61
S'Tilted Russian Cross'
p62
aS'AAAAAGUUGCACCGAAAGGUGGAUGAGAUCGAAAGAUCCAUACGAAAGUAUGAUCUCGAAAGAGACAUCGAGUGAAAGCUCCAACAAAAAAAAAAAAAAAAAAAA'
p63
aF1.0
aa(lp64
S'This is ACTUALLY Small And Easy 6'
p65
aS'AAAAAAAAAAAAAAAAAAAAAAAAAAAAAAAAAAAAAAAAAAAAAAAAAAAAAAAAAAAAAAAAAAAAAAAAAAAAAAAAAAAAAAAAAAAAAAAAAAAAAAAAAAAAAAAAAAAAAAAAAAAAAAAAAAAAAAAAAAAAAAAAAAAAAAAAAAAAAAAAAAAAAAAAAAAAAAAAAAAAAAAAAAAAAAAAAAAAAAAAAAAAAAAAAAAAAAAAAAAAAAAAAAAAAAAAAAAAAAAAAAAAAAAAAAAAAAAAAAAAAAAAAAAAAAAAAAAAAAAAAAAAAAAAAAAAAAAAAAAAAAAAAAAAAAAAAAAAAAAAAAAAAAAAAAAAAAAAAAAAAAAAAAAAAAAAAAAAAAAAAAAAAAAAAAAAAAAAAAAAAAAAAAAAAAAAAAAAAAAA'
p66
aF1.0
aa(lp67
S'Shortie 4'
p68
aS'GCGAAAGCAGCGAAAGC'
p69
aF1.0
aa(lp70
S'Shape Test'
p71
aS'AAAAAGAGUUGAAUAUACUAAAAAAUGUAUGGAGACAGACAGAUACUAAAUGUAUCAUCUCGAAAGAGAAGUCGUCAGCAACGCAAAAAAAAAAAAAAAAAAAA'
p72
aF1.0
aa(lp73
S'The Minitsry'
p74
aS'GGGAAAAAGAUAAAAAUUCAAAAAGACAACAAGAUAAAAAAAAAUCAGUCGGAGGAUCGCCU'
p75
aF1.0
aa(lp76
S'stickshift'
p77
aS'AAGCUAGCCCAAAAAGGAGCUAGCAA'
p78
aF1.0
aa(lp79
S'U'
p80
aS'AAAAAGAUACAGAGAGCAGAGCUAGAUACGAAAGUAUCUAGCCGCCCGUAUCAAAAA'
p81
aF1.0
aa(lp82
S'Still Life (Sunflower In A Vase)'
p83
aS'AAAUAUCAGGAACCAAAAAGGUUCAAGUUGAACAUCCCCAAGAUUCGAAAAGAGUCAAGCACCAAAGGUGCAAAGUACAAAAAGUAAUAUGGCGAAAAAACUGCCUGCUAGACUUGCACUAUAGACUGCAAUACAAAAAAGUAUUAGAUACAAAAAAAAAAAAGGAUGAAAAAAAAAAAAAAAAAAAAAAAAAAAAAAAAAAAAAAAAACAUCAAAAAAAAAAAAAGUAUCGAAUAUAAUUAUUCAGUAGUUUAUAGUGCAGGUCUAGCAAUGUUCGAAAAGAAUAAAUAAUCGAAAAGAUUGAAGGAUAUAAAUGACCCAAAAUGCAAAAAGCAUUGAGUCAUUAAUGUGGUAUGCAUUUAAAUAAUGCAGAUGAAA'
p84
aF0.9947089947089947
aa(lp85
S'Quasispecies 2-2 Loop Challenge'
p86
aS'AAAAAGUUGUAUGUUGUUCAAAGGAGCCUCAUAAGCUGUUCUAAGUCCAGCAGAUGUUCUUGACAAAAAGUCUUGUUCAUCCAGCAAAAAAAAAAAAAAAAAAAA'
p87
aF1.0
aa(lp88
S'Corner bulge training'
p89
aS'AGCUAGCGAUACAAAGUAUCAAAAGCUAGCA'
p90
aF1.0
aa(lp91
S'Spiral'
p92
aS'AAAAAGAUCAGCUAGCAGACAGAUACAGAUCAGAUCAGCAGCAGCAGCAGCAGCAAAAAGCGCGCGCGCGCGAUCGAUCGUAUCGUCGCUAGCGAUCAAAAA'
p93
aF1.0
aa(lp94
S'InfoRNA bulge test'
p95
aS'AAAAAAAAAAAAAAAAAAAAAAAAAAAAACGACUAAAAAGAAAUAAGAACAAAAGCUGUGUCGGGUAGGAAAAACCAUCAUCAGAAGUGAGUAAGUGAUUAAAAUUUAUCUGAAAUGUGGAG'
p96
aF0.9672131147540983
aa(lp97
S'Worm 1'
p98
aS'AAAAAACAGUGAUUAGACGAGCGGAAAACAGUCUGGCGGUUAAAU'
p99
aF0.9111111111111111
aa(lp100
S'just down to 1 bulge'
p101
aS'AAAAAGCGCACAAACGAAAGUUUGAGACGAAAGUCGGCUGCAAAAGAUGAGACGAAAGUCAGAUGAAAGUCACAUCAAAAAAAAAAAAAAAAAAAA'
p102
aF1.0
aa(lp103
S'Iron Cross'
p104
aS'AGACAGACAAAGGCACAGAAACUGAGUCGAAAGACAGCCAAAGGCACACGAAAGUGAGACGAAGUCAGCCAAAUGCAGACGAAAGUUAUACAAAGUAAGCAAAAGUCGCACAAAGUGAGUCGA'
p105
aF1.0
aa(lp106
S'loops and stems'
p107
aS'AAAAAGCUAGACAAAGAUGAAGGAUGAAAGUUGAAAAAAAAGGAUACAAAAAAAAAAAAGUAUCAAGCGACGAAAGAUCAAAAAAAAAAGAUCAAACAUCAAAGACAAAAAAAAGUCAAACAUCAAACAAAAAGGUGAGGUCUAGCAAAAA'
p108
aF1.0
aa(lp109
S'Water Strider'
p110
aS'AAAAAGGGGCAAGGGACAUACGAAAGUAUGGUAAGGUAAUCAGGCGAUACGAGAAAUCGAUAGAAAGGAGGAAAUAAGCAUCAAAAAAAAAAAAAAAAAAAAA'
p111
aF0.9611650485436893
aa(lp112
S'The Turtle(s) Move(s)'
p113
aS'AAAGCGAAAGCGAACGGGAUAUACAAAAAAAAAGUAUAUCCCAAAAGAUGAAAAACAUCGCAAGGGCGAAAGUCGGAGAUACAAAAAAAGUAUCAAAAGCCAAACCGAAAGGCCAACGACGAAAGUCAAAAGAUAGCAAAAAAAGCUAUCAAAAGACGAAAGUCAAAAGCAUAUCAAAAGACCAAAAAAGUCAAGACCAAAAAAAGUCGAAGAUUCAAAAAAGGAUCGAAGUUCAAAAAGAGCAAGAUAUGAAAAAAAAAGAGAAAUCACAAUGCAAAAGCUAAAACGAUACAAAAAAAAAAGUAUCAAAAAAGGC'
p114
aF1.0
aa(lp115
S'Adenine'
p116
aS'GAUACAACUAGCAGCUAGCAGCUAGCAGCUAGAAGCUAGCAAAAGCUAGCGAAAAAGCUAGCAGCUAGCGGAUACAAAGCUAGACAAAGUCUAGCGUAUCAUCUAGCAGCUAGAUAUACCAAAGGUAUAUAAACUAGCAGCUAGCAAAAGCUAGCAAAAGCUAGUAAAAGUAUC'
p117
aF1.0
aa(lp118
S'Tripod5'
p119
aS'AAGCUCGAUGAAAAACAUCGGUCAAAAAGACCGAGCAA'
p120
aF1.0
aa(lp121
S'Shortie 6'
p122
aS'GCGAAAGCAGCGAAAGCAGCGAAAGCAGCGAAAGC'
p123
aF1.0
aa(lp124
S'Runner'
p125
aS'AAAAAGAUGAGAUGAAAAAGAUCAAAGAUCACAUCAAAGACAAGACACCAAAGGUAAAGUCGGGCUCAAAGAGAAACCCAGUCAAAGACAAGGACGAAAGUCAGUCACAUCAAAAA'
p126
aF1.0
aa(lp127
S'Recoil'
p128
aS'AAAAAGAUACAAGCAAGCAAGACAAGACAAGCAAGCAAAGCAGCAGUCAGUCAGCAGCAGUAUCAAAAAAAAAAAAAAAAAAAAA'
p129
aF1.0
aa(lp130
S'[CloudBeta] An Arm and a Leg 1.0'
p131
aS'AAAAAGACACCUACUAAUGUAAGGGUCAGCGAAAGCGACAGUCAAAAAAAAAAAAAAAAAAAA'
p132
aF1.0
aa(lp133
S'[CloudBeta] 5 Adjacent Stack Multi-Branch Loop'
p134
aS'ACUGCGGUCAAAGGACCGGCUUAAAGAAGCCGAUCGGAAACGAUCGCUGGAAACAGCGCAGUA'
p135
aF1.0
aa(lp136
S'Triple Y'
p137
aS'AAAAUGGUGUGGGCAGUGAAAGAUGCAUCGAAAGAUGCUUAUUGGCACGAAAACGUGCUGGAAAACAGGCCAACACUUAAAAAAAAAAAAAAAAAAA'
p138
aF0.9175257731958762
aa(lp139
S'Misfolded Aptamer'
p140
aS'GAUGAAAAAAGGCACUAUGUGAGCGAAAGCAAAAAAAAACCAAAAGCAUC'
p141
aF1.0
aa(lp142
S'Flower power'
p143
aS'AAAAAGAUGGUGCAAAGCGCAGAUGCCUGAAACAGGAAGAUCAAAGAUCAAAGACAAAGUCUCAUCAGACCAAAGGUCCAUCAAAAAAAAAAAAAAAAAAAA'
p144
aF1.0
aa(lp145
S'Kudzu'
p146
aS'AAAAAAACGGUAAACGUAUAUAGUAGCAGGGCAUAUAAUGUCGGUAAAGCACGGUAUGCAAAAGGCAAAGUGAUGUUAGUUAAAAAAAAAAAAAAAAAAAA'
p147
aF0.9801980198019802
aa(lp148
S'"1,2,3and4bulges"'
p149
aS'AAAACUGGAUAUGAGGAAAUAGAAAAAGUCGCGAAAGUGUCCGCAUAAUAGGGGCAUGACAGAAUGCACGUGAAAACUAUAAAUUUACAAAAAAAAAAAAAAAAA'
p150
aF0.9428571428571428
aa(lp151
S'medallion'
p152
aS'GCUAGCAGCUAGCGAAAGCUAGCAGACGAAAGUCAGACGAAAGUCAGCUAGCGAAAGCUAGCAGACGAAAGUCAGCUAGCGAAAGCUAGCAGACGAAAGUCAGACGAAAGUCAGCUAGCGAAAGCUAGCAGACGAAAGUCAGCUAGCGAAAGCUAGCAGACGAAAGUCAGACGAAAGUCAGCUAGCGAAAGCUAGCAGACGAAAGUCAGCUAGCGAAAGCUAGCAGACGAAAGUCAGACGAAAGUCAGCUAGCGAAAGCUAGCAGACGAAAGUCAGCUAGCGAAAGCUAGCAGACGAAAGUCAGACGAAAGUCAGCUAGCGAAAGCUAGCAGCUAGC'
p153
aF1.0
aa(lp154
S'[RNA] Repetitious Sequences 8/10'
p155
aS'AGCAAAAAAGCAAAAAAGCAAAAAAGCAAAAAAGCAAAAAAGCAAAAAAGCAAAAAAGCAAAAAAGCAAAAAAGCAAAAA'
p156
aF1.0
aa(lp157
S'Documenting repetitious behavior'
p158
aS'AAAAAAAUCGAAAAAAAAGUUAAAAAAAAACAAAAAAAAAGGUAAAAAAAACCAAAAAAAAAGCAAAAAAAAACUGAAAAAAAAGAAAAAAAAAAUCAAAAAAAAUACAAAAAAAAAAUUAAAAAAAAGUUAAAAAAAAAGGAAAAAAAACGAAAAAAAAAUGAAAAAAAAAGGAAAAAAAAAAGAUAAAAAACGCGAAAAAAAAGUUAAAAAAAACUGAAAAAAAAGCAAAAAAAAACAAAAAAAAAAAGAAAAAAAAAUCAAAAAAAAUACAAAAAAAAUAUAAAAAAAAAGUUAAAAAAAGCCGAAAAAAAAGCAAAAAAAAAGCGAAAAAAAAGUAAAAAAAAAGCAAAAAAAAUGCAAAAAAAAAGCAAAAAAAAUGCGAAAAAAAACGAAAAAA'
p159
aF0.9275
aa(lp160
S'7 multiloop'
p161
aS'GGAGGUUGGGAAACCAACGUAGCUAAUGCUACGGUUCGAAAGAACCCCCCUGAAAAGGGGGUUUCGAAAGAAACCAGGCUAAUGCCUGCUCC'
p162
aF1.0
aa(lp163
S'Kyurem 7'
p164
aS'AAAAAGAUAGGCGUCGAAAGACGGCAAAAUUGGGGAGGAAAACUCAAGCCACUAACAUGUGAAAGCUCCGAGCCGCCAUGUCAAAAAAAAAAAAAAAAAAAA'
p165
aF1.0
aa(lp166
S'JF1'
p167
aS'GCUAGAUAUACAGAUACAAGAUACAAAAGCUAGCAAGAUACAAAGAUACAAGCUAGCAGCUAGAUAUACACUGAAAGGUGUAUAUCUAGCAAGACGAAAGUCAGCUAGAUACGAAAGUAUCUAGCAAGAUACGAAAGUAUCAGCUAGCAGUAUCAGUAUCAGCUAGCAAAGCUAGAUCAAAAAGAUACUAGCAAGCUAGAUAUACACUAUACACUAUCGAAAGAUAGUGUAUAGUGAUAUAUCUAGCAAAGAUACAAAAAAGUAUCCACGAUAUACGAAAGUAUAUCGUGAAAGAUGAAAACAUCAAGUAUCAAGUAUCAGAUCAGACAGACGAAAGUCGUCGAUCAGCUAGAUACGAAAGUAUCAUAGCAGUAUAAUCAUAGCAAA'
p168
aF1.0
aa(lp169
S'multilooping fun'
p170
aS'UGGCGGCACUAAACGGGAAACAGAAGACAAAAUGUG'
p171
aF0.8888888888888888
aa(lp172
S'Multiloop...'
p173
aS'CACCAGAGGAGGCGAAAGCCGGACGAAAGUCGAACGAAAGUUAGAGGAAACUCGGUGGAAACACAGACGAAAGUCGCUUCAAAUACUAAAAUGUAUUCGCUAAUGCGGGUG'
p174
aF1.0
aa(lp175
S'hard Y'
p176
aS'AAAAUGAUUGUUGCUAGAUCUAAUGAUCUGGACCCCGUUGGAGUUGAAAGAUUCCAACGGAUCUAAAA'
p177
aF0.9705882352941176
aa(lp178
S'Mat - Elements & Sections'
p179
aS'AAAAGCAGCUUUAACAGGUCUCUGUUCAGGCGCGGCAGGAGCGAAAGCUACACGCCAAACGAGCUAAGGUGAUCGGGAUAAGCUUAAAAAAAAAAAAAAAAAAAA'
p180
aF0.9809523809523809
aa(lp181
S'Chicken feet'
p182
aS'AAAAAACAGCAGGGAUUCAUGAAGGGAAGGUAUGGAAUCGGCUAACCAGCAAAGAGAAGAUCAAAAA'
p183
aF0.9402985074626866
aa(lp184
S'Bug 18'
p185
aS'GGCAGGAGGAGUAGUUAAGCAUCAAAGAGAGCCGGAGUAAAUAAGCGAAAGCA'
p186
aF0.8867924528301887
aa(lp187
S'Fractal star x5'
p188
aS'AAAAAGCUUAUUUAAGAUCGAAAGAUCAAGAUCGAAAGAUCGAGAUCGAAAGAUCAACAUAAAAAUAUGAAAAGUAAGCAAAAAGCUAGAUUAAGAUCGAAAGAUCAAGAUCGAAAGAUCAAGAUCGAAAGAUCAGGGAAUAAUUUUCAAAAUCUAGCAAAAAGCUAGAUUAAGAUCGAAAGAUCAAGAUAGAAAUAUCAAGAUCGAAAGAUCAAUAGAAAAAUCUAAAAAUCUAGCAAAAAGCUAGAUCUAGAUCGAAAGAUCAAGAUCGAAAGAUCAAUAUCAAAGGAUGAAGAUAAAAAUAUCAUGAUCUAGCAAAAAGCUAGAUUAAGCUCAAAGGAGCAAUAUCGAAAGAUAGAGAUCGAAAGAUCAAGUUCGAAAGAGCAAAAUCUAGCAAAAA'
p189
aF1.0
aa(lp190
S'Crop circle 2'
p191
aS'GCAAAGGGAAUCUAAAAAGUAAAAAAAAUCUGAAAAAAAAAAAAAAAAAAAAAAAAAAAAACGAAAAAAAAAAAAAAAGUAAAAAAAAAGCUAAAAAACAGAAAGAAAAA'
p192
aF0.9636363636363636
aa(lp193
S'Branching Loop'
p194
aS'GGAUCCGAAAAAAAGGGUUGAAAAACUAAGAUCAAAAAAA'
p195
aF0.95
aa(lp196
S'Bug 38'
p197
aS'AUUUCAAGAAUACAUAACAGGUGUCGGUUUAAAAGA'
p198
aF0.9444444444444444
aa(lp199
S'Simple Single Bond'
p200
aS'AAAAAAGGAAAAAAAUACUGUAAAUCAGUUAAAAAAAACGAAAAAAAAAAAAAAAAAAAAA'
p201
aF1.0
aa(lp202
S'Taraxacum officinale'
p203
aS'GACGGAAACCCUCGUACUUAAUGACUGAUUCGAAAGCAAAAGCCCUAAAGAUGGUAGGACAAAAGCUCAGUUGAAAACUACAAACCUAGAGACACGCUCGAUAUAUUAUAUAUAAUCGAGCAGUUACAAGCUAUAUAUCAAGGUAGACAAGGUCUACCAGAUAUGUAGCGCUAAGGUAGCAAAGCUGCCUGGCGUAACGAAGUGUUUCUGGGGGGAGAAAGCAACUUCCCGAAAGAAAGGUUCCAAAAGUAAUCAUAUAAAAACAUGAGGCCUAAAACUAUC'
p204
aF0.8581560283687943
aa(lp205
S'Headless Bug on Windshield'
p206
aS'AGCGGCAAAAGGAGAGGAUGCUAUCAAAAAAAAAAAAAAAAAAAAAAAAAGAAAGUUAACUCACCAAAGCAGCGUCCAGGUCAAGGAAAAAAAUCGAAAGAAAAAAAAUCGACAAAAAAGGAAGGUACAAAAAAGGCCAAUGUUGAUUUUCUUAAAAAAAAAAAAAAAAGUUGUAGGUUGUGUGUAGGGUAAAUGAACCA'
p207
aF0.99
aa(lp208
S'Pokeball'
p209
aS'AAAGCUUAUCAAACUCGUCCAGGGUAAGAUAACUGUCGACUGUUCAAAGUAAGCGGGUAAGAAUUUUGAUUAUCAAGCUUAGAUAACUAAAAAAAAGCUUUUGAAAACCCGUCGAGGCACUGCGCGAAUCAAGCCAGGGUGCUAUGCUCCCUGGAGAAUCAUUCUGCAGGAAGUCAAGGGUAAA'
p210
aF0.8206521739130435
aa(lp211
S'Variation of a crop circle'
p212
aS'AAAUGCAAAGUCAAAAGUAAAAGUUUGCGGCGAAGACAGGGUAAUGUAAAAAAACAAAAAAGGUAAAAAAAAAGCUAAAAAAAAAAAA'
p213
aF0.9318181818181818
aa(lp214
S'Loop next to a Multiloop'
p215
aS'AGGCUAUUCUUAAAAAACGGCUUGCGAAAGCGAGCAGCUAGACAAAGGUCUAGCUGGAAAAAUAGGAUAGUAA'
p216
aF1.0
aa(lp217
S'Snowflake 4'
p218
aS'GAUCAAAGCUCCGCUCGCAAAGGUUAUACGGGAAACGUGAAAGCCGUAGGAACAAAGAUCAAGAUCAAAGCGCCCAUGCGUAAUCGGUUUCAAGAUACUUUAAUGGCACACCAGCAAAGCUGAAGAUCUAUGAUCGUGUGCCUAAUGCGUAUCGAGAGUCGCUAAUGCCAUACGAGCGAAGCUCAAAAGGGAACUUUGUAUGAAUAAUUGGGUUCAAGAUCUCUUAAUAGGAUCCCUGCAAAGCGGAACAUCAAAGAUGGGAUUCCGAAAGGAGAUCAAGAUACGCAAAGGCGAUUAGCUUAAAGAGCAAGACCAAAGGUCUAAUUCCGAAAGGGUAUCCAGUAUGCCGAAAGGGAGCGGAUCUAUGAGU'
p219
aF0.8297297297297297
aa(lp220
S'Mat - Cuboid'
p221
aS'GAAAUAAAACCAAGAACAAUAUAGGAAAAGUGUCUAAUCAAACCUCGCUUGACUAAUAGUUAAACAAGAAAAAUCGCGCGAGCAAAGAAAAAUAAAUUAGAAAGUGAAUAAAAGUUCGUUGGUGUGUGGUGAAAAGUUUUGGUGCUUACUUGAGUGGAAAACCUCUCUUGGUAGCUUGCUUACAAAACCGAGAAUGCUAGAAGCUUUCCAAAAAAAGAGGGAGUCGGACUGGCGAACGCUGGCGGGAGUACAUGCUUGAGCUAUAAUGCUUGCAACAUUAACGGAGCUAACUUACUUAUGCAAGGGGCCAUGUCGGCGCAACCAAGCAAGGUAAUGUAAAAAAAGCUUGCAUAGGCGUGGAUCUCAUAAGGAGGGAUAAU'
p222
aF0.6526315789473685
aa(lp223
S'Misfolded Aptamer 6'
p224
aS'AAAAAAACCAAAAAAGAUGUGGAAAAGCAAAAAAAAGUGCAAUGCAAAAUCAUCAAAAAAAGGUAAAAAAAAAAA'
p225
aF1.0
aa(lp226
S'Snowflake 3'
p227
aS'AAAUCGAAAGAAGCCCACGAAAGUGAAGAUGUGAUUAAGACGAAAGUCCUAUGGGAAACCUACAAAGUACCGAAAGGAUGGCGCGAAAGUGAAGAUUGGGGGAAGAAGAAAUUCCAAUGCGAAAGCGCGAAAUCAUGGAAACGUAUGCACGAAAGUGAACGUCAGAUGGAGACGAAAGUCCGUAGCGAAAGCUACAAAGAGCCUAAUGGGGUGCGCAAAGGUGAACAUCGGAUGUAGUCGAAAGACCUAUGUGAAAACAACAAAGUAUCGAAAGGUUAGGACGAAAGUCAUCAUCAGCUGAAGACGAAAGUCCCGAGCGAAAGCGACAAGUUACCGAAAGGACGGCGCGAAAGCGAAUAACUCAUCAAGGCGAAAGCCGGCGGCGAAAGCGUC'
p228
aF0.8727735368956743
aa(lp229
S'Hard Y and a bit more'
p230
aS'AAAAGAAUGCUCUAAGAAGAAAUUUUCUCGGGGACUGGUAGAUAUAAUUAUCAUUACACUAAAAUGUGUAUUGCUGUCUCGUGUUAAAAAAAAAAAAAAAAAAAAA'
p231
aF0.9716981132075472
aa(lp232
S'Mat - Lot 2-2 B'
p233
aS'GAACGCUUGAUAUUGCAAAAGCUUGAUGGAAACGAAAACCUUGCGUUUUAAAAAUCUUGCUGGAGCAACCAAGCGGGUGCAAAAGCUGGACCAUGCAAAAGGGAAACCUCUGUGAAAAUUAUGCGCUAUCUCUUGCAACUAAAGAGGCUUGAUGUUACAAACGUUUGGUGGAAACAAAAACCUUGCGUUGCUAAAAUCUUGCGCUUGAUAGCGGGGUCUUCCAAAAUCUUGAUUUAUUAAAAACGAAAGUAGGUAAAAAUUCUUGAGGUGGGGCAAGAAACAGU'
p234
aF0.7711267605633803
aa(lp235
S'Shapes and Energy'
p236
aS'AAAAAUGGGAUGCCACUAAAAGGAGGGUGUCGAAAGUCACCAAACGCCGAGUGAAAAACCUCGCAAUUGUGAAAGAUCACUAAAAAAAAAAAAAAAAAAAA'
p237
aF0.9603960396039604
aa(lp238
S"Spiral of 5's"
p239
aS'AAAAGGAUAGAAGGAUACAAUGAUACAAAAGAUACAAAAAUACAAAGAUACAAGAUACAAAAGAUACAAAGAUUCAAGGAUACGAGAUACAAAGGUACAAGGAUACAAGAUACAAAGAUACAAGAUACAAGACACAAAAUACAAUAUACAGAUACCGCUAUAUAUCAAAAAGAUAUCGGGGGUAGCAAAAUGUAUCAAAAAGUAGGAAAAAGUAUCAAAAAGUGUCAAAAAGUAUCAAAAAGUAUCAAAAAGUAUCAAAAAGUAUCAAAAAGUACCAAAAAGUAUCGAAAAGUAUCAAAAAGGAUCAAAAAGUAUCAAAAAGUAUCAAAAAGUAUCAAAAAGUAUUAAAAGGUGUCAAAAAGUAUCUAAAGGUAUCAAAAACUAUCAAAAAUAAAAA'
p240
aF0.9949622166246851
aa(lp241
S'Campfire'
p242
aS'AAAAGAUGAAGAUACAAGAUGAAGGUUUAAAUAAUCGCAAGCGAAGCUAGGCCAUCGCGAGCGACAGUAUACGCGAAAGUCAUGGCGACUUCCGGGACCAUUGAAAGGGGCCGAUGAGACUUAUGUACCUAUCAAGGAAAGGGUACGCGGACACACGGCCAGACAGAUGAAAGCAUCGUUGGCGUUAAACCGAAGGUAAUAAACAGUGCAUC'
p243
aF0.9528301886792453
aa(lp244
S'Anemone'
p245
aS'AAAGCCGGCGAAAGCCGGUGAUUCGAAAGAAUCGAUUGCUAAUGCGAUCGAUACGAAAGUAUCCCAAUAGAAAUGUUGGCAUAGGAAACUAUGGGGUCGAAAGAUCCGCUAGCGAAAGCUAGCACAGACGAAAGUUUGGCUUGCGAAAGCGAGCGGACGGAAACGUCCGCUAGUAAAGACUAGCGUUGCGAAAGUAACGCAAGCUAAUGCUUGC'
p246
aF1.0
aa(lp247
S'Fractal 3'
p248
aS'AAAAAGAUGACGCAGCGAAAGCGCGAAAGCAGCGAGACAGCGAAAGCCCGAAAGGAGUCAGACAGCGAAAGCGCGAAAGCAGUCAGACAGCGAAAGCGCGAAAGCAGUCACAUCAAAAA'
p249
aF1.0
aa(lp250
S'Kyurem 5'
p251
aS'AAAAUGGCAGACUAGUAAUCUUGACAAAAAACACAUCAACGGGAAAAACUCAAUGGUCUAAAAUAGCAAGUUGUUGUCAAUGUCUAAAAAAAAAAAAAAAAAAA'
p252
aF0.9230769230769231
aa(lp253
S'Snowflake Necklace ( or v2.0 )'
p254
aS'GCUAUAGAUAGACACUGUUACAUCAAAAAGAACCAAAAAAGAGUAAAAAACAGCCAAAAGUACUAAAAGGAAGUAACAGACAAAAAUUUAGAGACAGCAAAAAGCAGCAAAAAGAAUCAAAAAGAAGCAAAAAGCAGAUAAAUUCAGUUUCAACCAAAAAGGUGAAUACGGGAAAAAUCAACAAAAAGUAGAAAAAAGAAUCAAAAAGAAGGAAAAAUCAGUAUUAGUCUAAAUGUCAAACACAGUAAAAAGCAGGAAAAACCAUAAAAAAUAUGAAAAAAGCUGCAAAAAGCAGAAUCAGACAAAAAGUCCGAUGGAUGUAAAUACAUCAAAAAGAAUCAAAAAACAGCAAAAAGCAACAAAAAGUAGUUUGUGUGUUUAUCUGUAGC'
p255
aF0.8766066838046273
aa(lp256
S'Methaqualone C16H14N2O Structural Representation'
p257
aS'AAAAAAAGAUGAGAUGUGACAGACGAAAGUCAUACACGCGAAAGCGAGACAGACGAAAGUCAGAGAGACAAAGGUCAGACCAAAAAAGUCACUAGGUCAGUAAGUCUGAAACACAUCAGAUCAAAAAAGACAAUGCAAAGCUAAAAAAGGUUAGAUAGCCGAAAGGCGAGGAACCUCCGCGAAAGUAGUCUUUAAAUAAGUGAAAGUAACAGAUACUCCGAAUGACAAAAGACUUAUGUCAGUCAUACGAAAGACUCUCAGACGAAAGUCGGAGAGGGGAAAGUCAGUCAAACCACGAAAGUGCUCGAAAGGGAGGCGAAAGCCGUUAGUCUCAUGAAACCUCGAAUCAAAAAAA'
p258
aF0.9323943661971831
aa(lp259
S"Cat's Toy 2"
p260
aS'AAAAGCUCUGUCUAAAGAACGUAAAAAAAAAAAAAAAAAAAAAUUCAAGAGAAAUCGAUAAUAAUGAUAAAAAAAGCAAAAAGUCGACAGAGCAAAA'
p261
aF0.979381443298969
aa(lp262
S'Zigzag Semicircle'
p263
aS'AAAAUGCUGUUGGGAAAAAUGAAGAUAGUGGAAA'
p264
aF0.9411764705882353
aa(lp265
S'Short String 4'
p266
aS'AAAAAAGAACAAGCCGAUAAAUAGAGGGUAAUUCGUAAAAAAGUGCGUCUGAAAGGUUUCUUCAAGGAGGAAGCUCAAAAAAAAAAAAAAAAAAAAA'
p267
aF0.9381443298969072
aa(lp268
S'Gladius'
p269
aS'AAAAGUAAGAAAAAUAAAAAGAGGAGUAAGACAAACGAAGAUCUAAUGAUCAGAUACAAGAGACAAUAGGUGAAUGGAUGGAAAGCUACAUGCGUUAGCAGAUAUAGAUCAGAUGAAUAGCAAAGUUAGCAUACGAUCAAUAUCGACUAGCCAAUGUAGCAAUACAUCAUGACACCAAAAGUCAACGGUAUCAGUUAAAGACAGGAUCAAAACUCAGAAGAUCAUUAGAUCAGAUGCUAUAGAGCUACCAAACACAGCUAGCAGACAGCUAGCAAAGGCUAGCGGGUCGACUAGACGUGUAUGGUAGACUUGUAGCUCAAGAUCGGAGGAUCGCGAGAGAGGAGAUGCAGAUCGAAAGAUCGAAGUCGGUCAAUCGACGCAAUAAAUAAAAUAACGAAAG'
p270
aF0.905
aa(lp271
S'Thunderbolt'
p272
aS'GCAAGUUACAAAAAAAAGUGUAUGAGGAUGGAGAAAGCACCUAUAUCGAAAAAAAGGGCGAAAACCUGAAAAACAGGAAAAAUGCAAGGCUUGAAAAAAAAGUCUAAAAAGAAUUAUGCUUGCUAAAAGAAAACAGAUAAAAAAGAAAAAAACUUGCAGAAACAGUUCCAAAAAUUCAGAUGAAAUAGAAAAAGUUUGCCAAAGGGAUUCUAAAAAAAAAACAUCAAAAAAAAAAUCAUCGCCAUCUUAAGGAUAUGUGCUCGCUAAAAAAAAAAGCGCGCAGAAAAAAAAGUGCAAAAGCUUAGCAAAAAGGAAAAAAAUAAAAGGCUAGGAAAUUUAAAGAUAUAGCAAAAAAAACAGCUGGCACAAAAAUAAAAAAAGGGUAUUAAGUA'
p273
aF0.8979591836734694
aa(lp274
S'Mutated chicken feet'
p275
aS'AAAAAAAGGAUCGUUCAAGAAGGGAAGCGAAGGGCGGCAGCAUGGAAGAAACAAAGCAAGGCGAAGCAGCCUCUAUGAAGCAAAGCAAUGUCUAAAAAAA'
p276
aF0.84
aa(lp277
S'Chicken Tracks'
p278
aS'AAAAAAAACGUAAGUUAUAUAAUUAUAAAGAUUGAAAAAUCGAGGUCGAAAGAUUACUUAUGGAACUAGCGUAUCGCUAAGUCCGAACAGCGAAAGGAACUUAGAGUAAAAAAAAA'
p279
aF0.9482758620689655
aa(lp280
S'Looking Back Again'
p281
aS'GAAAAGACGAGGAAAAAGAUUGCAAAGCAAUCACAGUAUGAGUACACUACAAAACGUGGAGGUAGAAAAAUCGAAAGAUUAAAGGUACCGACCGGACCCAAGGUUGCCAAAAAGCUAUUAAUGUAGCAAAGAGGGCGAUACCAUAGAAGCUAUGGGUACAAGGUGUCGCAAGCUUAAUCGUAAGUUUAAGUAUAUCAAAGGAUACUCAGUUCAAUGAGGGAUAAAGGUCACGCUUGCAAAGUAUCGAGCUGGCACAUAGGAAAAAGGUGAGAUGAAAAAAUGUUGAAAAACAGCACCCAAAUUCACAUAUAUGAAAAAAACCAUGUCGAAAGACAUGAAGACUAUAUUAAGAGAUAAAGUCUCAAGUAAUAAAACAUAGUGCCUAUGUC'
p282
aF0.8354755784061697
aa(lp283
S'Multilooping 6'
p284
aS'AGGCUACUGUCCACAGAAAUGUGGGAUAAGAAAUUAUUAAGUUAUGUACAAAGGUCUGCACGAGAAAUUGUGGGCGUGGUAA'
p285
aF0.9146341463414634
aa(lp286
S'Cesspool'
p287
aS'GAAGAGAAAAACAGGAGAUGAGGCAAAAGCUGUACAACCGCUCAAGACGUAAUCUGUAAGUGGAAAGUACGCAACGACAUCUUCAGUAUGUUUAAUGAAAAGAGCGUAAAAUGUCAAAGGAAUUAGAGCAUCAAGGCCAAUACCGCAAUUUAAAACUUUGCAACAGAAAUAAAUUUUAACCUGGAAAAAAUAGGUGUAUGGAGACAAGGUCAACAAAGUCACAAGAACUAAAGGAGUUCUCGAAAGUUGACAAUGAAAACUACUUACCUGCAAUGAGUCAAUCACUCUGUUUUGAGAAUUCCAUGCUGAACUGAACUUUAAAGUUUCAUUUUGAAAGUCAGCAAUAAAAAUAAAGGGC'
p288
aF0.6284916201117319
aa(lp289
S'Hoglafractal'
p290
aS'AAUAGCGAGAUACAAAAGAUACAAAAAAGUGUCGUAUCGUUAAAAGAGGAAAAACAUAUAGCGACAAGUCGAAAGGCGUCAGUCAAAGUUCAAAGAUGAAAAAACAUCGAACCACAAGUCAAAAAGUCGUACCAGCGAAAGCGGAGAUGAAAACCCGACACAAAAAAACCAUCCAAUCAAAAAGAGGUUAGCAAUGAAGAUACAAAAACCAGCAAAAAAGAGACACAAAAAGUGCUAAACCGAGCUAGCAAAAAAUACAAAAAAGUAGCAAAAAGUGAAGCUAGAGAAAUUCUAGCAAAAAAAGCUAGCAAAAAAGUAUUAAAAACGUAAAAAGCCAAAGCAAGGAAUGCCAGAUGAAAAGCGAAAGCGCGAAAGCCAUAUCAAGGGUAUGACAUCGAAA'
p291
aF0.915
aa(lp292
S'Bullseye'
p293
aS'AAAUGAGAUGAAACACCAGGCUGAAAUAGCAAGAUAAAGGAUCUCGAAAAAAAAGUCAGUCGAAUAUCAUGGUUGAAAAUCAACAUCAAGAAUGGACGAAAAAAGAACUCUCAAAGAGGAACCGCAAAGUCGAAUACCAAGCAUGGUCAAAAAAAAGACGAAGAAACAUAAAGGACAAGCUUCAAGAUCGAAGAUUGGCGAA'
p294
aF0.8514851485148515
aa(lp295
S'Shooting Star'
p296
aS'GCUAGUGUUCGUGAGUCCAUUAGUUGCGGACAGACAUUUAAUAAGGUACGUCAGAUUUCAUAGGGUUACAGGUCCGUGAGUGGCAGAUAGAUACAGAGAUUUGACCGAAAGAGCAGAACUCGAUGUACAUCGGAUAGCCUAGGCAAACAGGAUCGUUCCUCACAAGGUGAGAGAUACAAAGUAUCUUCUAAUGUAAAGCCAGGACAGAGGAGGGAAAACCUGUACGAAGUGCAGGAGAGGCGAAGUAUUUCUCUUGGAAGGAAUUUUCGAAUAUACGAAGUCUCCUUCCCACAAAAAAAAGGUUAAGUGAUUAGACAGGGGAGCGAAAGACCCCACGUCAGAUUUUCGGUUCGAGCAGCUAGCA'
p297
aF0.7747252747252747
aa(lp298
S'Teslagon'
p299
aS'AAAAAAGUAAAAAAGCCAACAAAAAAGGAAGGAAAAAAAAAAAAAAAGCAAAAAAUAUGUAAAAAAAAAAAAAAAGCAUCAAAAAAAUCAGCGAAAAAAGGAAAAAAAAAAAAAAACCAAAAAAAGUAGUAAAAAAAUCAUCUAAAAAAAAAAAAACGGAAAAAAUAAUCAAAAAAAAAAAAAAAGGAUUAAAAAAACCACCGAAAAAAGAAAAAAAAAAAAAAAACCAAAAAAAGCGGCAAAAAAACCAGCAAAAAAAAAAAAAAAGCAAAAAAUAAUCAAAAAAAAAAAAAAAGAGGCAAAAAAAGCGACGAAAAAAGUAAAAAAAAAAAAUCAAAAAAAAAAAAAAAGUAUCGCAAAAAGUAGGAAAAAAAACAGAAAA'
p300
aF0.900523560209424
aa.