(lp0
(lp1
S'Simple Hairpin'
p2
aS'GAUAGAAAAAACUAUC'
p3
aF1.0
aa(lp4
S'Arabidopsis Thaliana 6 RNA - Difficulty Level 0'
p5
aS'GAUAUAGAAAAGAGAAAAAAAAAAACUCCUAUAUAGAAGAUAUAUAUAUAUAUAUAGAAAGAUAGAAAAAACUAUCGCUAUAUAAUAUAUAUAUAUCAACUAUAUAGAACUAUAUC'
p6
aF1.0
aa(lp7
S'Prion Pseudoknot - Difficulty Level 0'
p8
aS'GAUAUCAGAUCGAAAGAUCGAUAAUCAAAAAAAAAA'
p9
aF1.0
aa(lp10
S'Human Integrated Adenovirus - Difficulty Level 0'
p11
aS'GAUAUAUAUAUAGCAGUAUAUAAAAAAAAAAUGAUCGAGUACCUAGAACUGGAUAUGAAAACCCGUGUGUCUAGGAAAAAAACUGGAUACAUAAAAGGGCAUAUAAAACCAAGGAAACUACUCAAAGAUGGCGAAAAAAGUCAUCGAUCUAAAAAAAAAAGAUAUACGGUUAAAAAUAUAUAAAAUAUCGAA'
p12
aF1.0
aa(lp13
S'The Gammaretrovirus Signal - Difficulty Level 0'
p14
aS'AAGAGAGGAUAUCGAAAGAUAUCAGCGCAAAAAAGAUCAAGAGAUAUCCUAUCGAAAGAUAGAAAAGAUACUCGAUCGAGAUAUAUCGAAAGAUAUAUCAA'
p15
aF1.0
aa(lp16
S'Saccharomyces Cerevisiae - Difficulty Level 0'
p17
aS'GAUAUUGCUUGAAAAAAAACGAGGGGGAAAAAAAAAAAAAACCAAAUGAUAGAAAAAAACUGUCCGAUAUCAAAUGGGAGUGAAGAUCGAAAAAAAGAUCGGCGAAAAAAAAAAAAGCCAAAAGCUACGAAAAAAGUAGCCACUCUCUAAUGCGAUUGAAGAUCAAAAAAAGGAUCUAGAUCAAAAAAAGAUCUAAAAAGAUAUGAAAAAAGUAUCCGAUCGCUAAAGCUCGAGCUGUUCAAAAAAAGGAACGAUGUCUAAAAAUGGCAUCAAAAGGCCCGAAAAAAGGGUCCUCGAGCGAAUACCAAAGAACAUCUAAAAAAUGAUGUAGAACGAAAAAAGUUCUAAAAACAUUGAAAAAAGCGAUGCUUUGGUUAAA'
p18
aF1.0
aa(lp19
S'Fractal 2'
p20
aS'AAAAAGUUAUAUUGAAAAUUUAUAUCAAUGUCAAAAAAAAAAGACGAUUAGCAAAAAAAAAAGCUGUGGAGCAAAAAAAAAAGUUCAGGAUAUAGAUUAAGCAUAUAUCGCAAUGUCGAAAAAAAAAGACAAAAGAGGAAAAAAAAACUCUAAGCGCAAAAAAAAAAGCGUGAGUGAUAUAUGAAUGAUUAGUAUCAAUACCAAAAAAAAAAGGUGAAGAUCAAAAAAAAAAGAUCAAAUUCGAAAAAAAAAGAAUAAGAUAUUGAUCUAAGAUAUAGCGAAAA'
p21
aF1.0
aa(lp22
S'G-C Placement'
p23
aS'GAUCAAAGAUCA'
p24
aF1.0
aa(lp25
S'The Sun'
p26
aS'UAUAGACUUAGGAACUAAAAGACGUAAAAUAGAUGUACGUAAAGAGUUAACACUAAAAGAAAGAUAUAGUAUCUAUAAGUCUUCAAUGACAGCUAUAGAAAUUAUAAGUUCACUAGGAGUGUCACAGAAGCAAUAACGUCUCAAAGAGAGAUAGAGAACCUUUAAGUCCUCCAAGUUAAAGAUAGAAGCUAUAAUUUGGGAAAGUUAGAUAGAGAAACUUGAAGACAGCGAAGAGACAUAGAGUAUUGUUAAGUGCCC'
p27
aF0.8062015503875969
aa(lp28
S'Frog Foot'
p29
aS'AAAAAAAAAAGAUGAAAGCAUCGGAGAAAACUCCCCCGGAACGGG'
p30
aF1.0
aa(lp31
S'InfoRNA test 16'
p32
aS'GAUAUCGCCAGACAGAAAACUGUCAUGUGAGAUAUC'
p33
aF1.0
aa(lp34
S'Mat - Martian 2'
p35
aS'GAUCGAAAGAUCAAAGAUAUAGAAGAUAUAGAAAAAAACUAUAUCCUAUAUCAAAGAUAUAUCAAAAAAGAUAUAGAGAUAUAGAAAAAAACUAUAUCCUAUAUCAAAGAUAUAUAUAUAUCAAAAAAAGAUAUAUAAUAUAUCAAAAAAGAUAUAUCAAAGAUAUAUAUAUAUCAAAAAAAGAUAUAUAAGUAUAUCAAAGAUCGAAAGAUC'
p36
aF1.0
aa(lp37
S'square'
p38
aS'GAUAUACCUAUACCUAUAUCCUAUAGAAACUAUAGAAAAGAUAUAGAAAAGUAUAGAAAAGUAUAUC'
p39
aF1.0
aa(lp40
S'Six legd turtle 2'
p41
aS'AAAAAGCAAAGCGAAAGCAAAGCGAAAGCAAAGCGAAAGCAAAGCGAAAGCAAAGCGAAAGCAAAGCGAAAGCAAAGCAAAAAAAAAAAAAAAAAAAA'
p42
aF1.0
aa(lp43
S'Small and Easy 6'
p44
aS'UGGAUUAAAUAUAAUAAAAAAAAAGGACUU'
p45
aF0.8666666666666667
aa(lp46
S'Fractile'
p47
aS'AAAAAAAAAAAAUCGAAAGAAAAGCAAAGCGAAAGCAAGCAAAGCGAAAGCAAAGCAAGCGAAAGCAAAGCAAGCGAAAGCAAAAAAAAAAAAAAAAAAAAAAAA'
p48
aF1.0
aa(lp49
S'Six legd Turtle'
p50
aS'AAAAAGCAAAAGCGAAAGCAAAAGCGAAAGCAAAAGCGAAAGCAAAAGCGAAAGCAAAAGCGAAAGCAAAAGCGAAAGCAAAAGCAAAAAAAAAAAAAAAAAAAA'
p51
aF1.0
aa(lp52
S'snoRNA SNORD64'
p53
aS'GAUAUCAAAAAGAGAAAAGAGAAAGAUAGAAAAAAAAAAAAACUAUCAAAACUCAACUCAAGAUAUC'
p54
aF1.0
aa(lp55
S'Chalk Outline'
p56
aS'AAAAUGAUCAGCGAGUAAUCUACGCAGAGAGAGGAAACUCCUCGGACAUCGAAAGAUUGUCAGCAGGUAAUCCUAGCGAUCUAAAAAAAAAAAAAAAAAAAAAA'
p57
aF1.0
aa(lp58
S'InfoRNA bulge test 9'
p59
aS'GAUAUAGAGAGAGAGAUAUAGAAAACUAUAUCCCCCUAUAUC'
p60
aF1.0
aa(lp61
S'Tilted Russian Cross'
p62
aS'AAAAGAGUUGGAGUACUCUCCUGUGAGAGUGAAAAAUCCCAUCGAAAGAUGGAGAACGAAAGUUGCACAACAAAAAGUUGUAACGAAAAAAAAAAAAAAAAAAAA'
p63
aF0.9809523809523809
aa(lp64
S'This is ACTUALLY Small And Easy 6'
p65
aS'AAAAAAAAAAAAAAAAAAAAAAAAAAAAAAAAAAAAAAAAAAAAAAAAAAAAAAAAAAAAAAAAAAAAAAAAAAAAAAAAAAAAAAAAAAAAAAAAAAAAAAAAAAAAAAAAAAAAAAAAAAAAAAAAAAAAAAAAAAAAAAAAAAAAAAAAAAAAAAAAAAAAAAAAAAAAAAAAAAAAAAAAAAAAAAAAAAAAAAAAAAAAAAAAAAAAAAAAAAAAAAAAAAAAAAAAAAAAAAAAAAAAAAAAAAAAAAAAAAAAAAAAAAAAAAAAAAAAAAAAAAAAAAAAAAAAAAAAAAAAAAAAAAAAAAAAAAAAAAAAAAAAAAAAAAAAAAAAAAAAAAAAAAAAAAAAAAAAAAAAAAAAAAAAAAAAAAAAAAAAAAAAAAAAAAAAAAAAAAAA'
p66
aF1.0
aa(lp67
S'Shortie 4'
p68
aS'GCGAAAGCAGCGAAAGC'
p69
aF1.0
aa(lp70
S'Shape Test'
p71
aS'AAAAAGAGAUCAAGAUAGAAAAAAAACUAUCAAGAGAGAGAGAUAGAAAAACUAUCAGAUCGAAAGAUCACUCCUCAAGAUCGCAAAAAAAAAAAAAAAAAAAA'
p72
aF1.0
aa(lp73
S'The Minitsry'
p74
aS'GAGAAAAAGAGAAAAAGAGAAAAAGAGAAAAAGAGAAAAAAAACUCGCUCGCUCGCUCGCUC'
p75
aF1.0
aa(lp76
S'stickshift'
p77
aS'AAGAUAUCCCAAAAAGGAGAUAUCAA'
p78
aF1.0
aa(lp79
S'U'
p80
aS'AAAAAGAUAGAGAGAGCAGAGAUAUAUAGAAAACUAUAUAUCCGCCCCUAUCAAAAA'
p81
aF1.0
aa(lp82
S'Still Life (Sunflower In A Vase)'
p83
aS'AAAGAUGGAGUUUGAAAAACAAUCGCGACAGGAACCAUGGGGAUGGGAAAACCAUCAACAUUAAAGCAAUGAAGCAGGUAAAUCUUGCAAGAUAGAAAAGCUAUCGGGUAUAAAUAUAUAUAUUUACAGUUAUCGAAAAAGAUAAAGAUAGUAAAAAAAAAAAAGAUUAAAAAAAAAAAAAAAAAAAAAAAAAAAAAAAAAAAAAAAAAAAUCAAAAAAAAAAAAUCUAUCCUACGGAAACGUAGACUGUAGAUAUAUAUAUUUAUAUCAAGUUAGUAAAUCUCGCGUGCAAACAAAAUCAGCUAAAGGGAAAAACUCUCAUUAUAGAAAAACUAUGUUGAUGAUAAUUCGCCUGGACCGAAAAAAUAUUACAUCAAA'
p84
aF0.9417989417989417
aa(lp85
S'Quasispecies 2-2 Loop Challenge'
p86
aS'AAAAAGGCCGCAGGAGACUGAAAAGUCAACUGCCGGGGCGGUAUCAACCCCUAACCGAGAAGAGGAAAACUCGGCAAGGUUGGCUAAAAAAAAAAAAAAAAAAAA'
p87
aF1.0
aa(lp88
S'Corner bulge training'
p89
aS'AGAUAUCCUAUCAAAGAUAGAAAAGAUAUCA'
p90
aF1.0
aa(lp91
S'Spiral'
p92
aS'AAAAAGAUCAGAUAUCAGAGAGAUAGAGAUCAGAUCAGCAGCAGCAGCAGCAGCAAAAAGCGCGCGCGCGCGAUCGAUCCUAUCCUCGAUAUCGAUCAAAAA'
p93
aF1.0
aa(lp94
S'InfoRNA bulge test'
p95
aS'AAAAAAAAAAAAAAAAAAAAAAAAAAAAAGGGAAAAAAAAGGCAAAAGGAGAAAGAACAAGAGCACUGUAAAAAGCGAGGGCGUCAAGUAUCGAGCUACCAAAAAGCACUAAAAAAUCACCA'
p96
aF1.0
aa(lp97
S'Worm 1'
p98
aS'AAAAAAAAACUUUUUUUUGGCCUUCAAAGUGGACACUGAUAGGGU'
p99
aF0.9111111111111111
aa(lp100
S'just down to 1 bulge'
p101
aS'AAAAAGACUGGAUAAAAAAUUAUCAGAGAAAACUCGGGAUCAAAAGUGCAGAUAAAAAUCAGCGUAAUCGCGGCACAAAAAAAAAAAAAAAAAAAA'
p102
aF1.0
aa(lp103
S'Iron Cross'
p104
aS'AGACAGUGAAAGGGAGUCAAAGACGGAGAAAACUCGCCCAAACAGACUCGAAAGAGGGCGAAACGCACUGAAAGAGGCUCGAAAGAGAGAUAAAAUCACUCAAACGCAUCCAAAGGAAGUCGA'
p105
aF1.0
aa(lp106
S'loops and stems'
p107
aS'AAAAAGAUAUAGAAAGAUCAAAGAUCAAAGAUCAAAAAAAAAGAUAGAAAAAAAAAAAACUAUCAAAGAUCAAAAGUUCAAAAAAAAAAGAGCAAAGAUCAAAGAGAAAAAAAACUCAAAGAUCAAGCAAAAAAGCAAACUAUAUCAAAAA'
p108
aF1.0
aa(lp109
S'Water Strider'
p110
aS'AAAAACAUAAUGCACUCAGACGAAAGUCGCAGACAUGGGGGCAAACGAAGUAGAAAUGUUGGUAAUGGAAGCGAGAUGGACCGUAAAAAAAAAAAAAAAAAAA'
p111
aF0.9611650485436893
aa(lp112
S'The Turtle(s) Move(s)'
p113
aS'AAAGCGAAAGCAAAAGAUGUAUAGAAAAAAAAACUAUACAUCAAAAGAUGUAAAUCAUCAAAAAGCGAAAACGCAAAGAUAAUAAAAAUUUAUCAAAAGGGAAAGGUAAUCCAAAAAGAGAAAGCUCAAAAGAGAUCAAAAAAAGAUCUCAAAGGUGAAAGCACAAAAAGAUAUCAAAAGAGAAAAAAACUCAAGAGAAAAAAAACUCAAAGAUAGUAAAAUCUAUCAAAGUCCAAAAGGGACAAGAUAUCAAAAAAAAAGCGAAAGCAAAAAGCGAAAGCAAAAAAGAUAGAAAAAAAAAACUAUCAAAAAACCC'
p114
aF1.0
aa(lp115
S'Adenine'
p116
aS'GAUAGAGAUAUCAGAUAUCAGGUAUCAGAUAUCAGAUAUCAAAAGAUAUCAAAAAAGAUAUCAGAUAUCAGAUAGAAAGAUAUAGAAACUAUAUCCUAUCAGAUAUCAGAUAUAUAUAUCAAAGAUAUAUAAAGUAUCAGAUACCAAAAGAUAUCAAAAGAUAUCAAAACUAUC'
p117
aF1.0
aa(lp118
S'Tripod5'
p119
aS'AAGAUCCCUUGAAAAGAGGGUAGGAAAACUACGGUCGA'
p120
aF1.0
aa(lp121
S'Shortie 6'
p122
aS'GCGAAAGCAGCGAAAGCAGCGAAAGCAGCGAAAGC'
p123
aF1.0
aa(lp124
S'Runner'
p125
aS'AAAAAGGUCACAUUCAAAACCCAUAUUAGGAGAUGAAAUAGAACUCUUUGAAGACAAAGGGCAAGAGAAGCUUAAGUAGACUCUAAGAUUAAGACUAAUCUUUGUCGGAUCAAAAA'
p126
aF0.9224137931034483
aa(lp127
S'Recoil'
p128
aS'AAAAAGAUAGAGGCAAGCAAGGGUUAAGAGGCAAGCAAAGCGGCACUUUCUCGGCGGCACUAUCAAAAAAAAAAAAAAAAAAAAA'
p129
aF1.0
aa(lp130
S'[CloudBeta] An Arm and a Leg 1.0'
p131
aS'AAAAGGUAACGCAUGAAAGUAGCGCCUCGGGAAACCAGGGUACAAAAAAAAAAAAAAAAAAAA'
p132
aF1.0
aa(lp133
S'[CloudBeta] 5 Adjacent Stack Multi-Branch Loop'
p134
aS'GAUAGUCACUAAUGUGAGUGACGAAAGUUAUUAACCUAAUGGUUACGAGGAAACUCGCUAUCA'
p135
aF1.0
aa(lp136
S'Triple Y'
p137
aS'AAAAAGAUCUUUGUUGAUAAUUUAGGUUUAAAGGGACCUAAAUAUAUCGUAAUUUAGCAAGAAAAGGAGGUAGUAUCGAAAAAAAAAAAAAAAAAAA'
p138
aF0.9175257731958762
aa(lp139
S'Misfolded Aptamer'
p140
aS'GCUCUAAAAAGCCUCAAAGAGAGCGAAAGCAAAAAAAAAGCGAAAUGAGC'
p141
aF1.0
aa(lp142
S'Flower power'
p143
aS'AAAAUAAGACGUUAAGAACGCGGCCUGCGAAGAGUGAGGCAAUAUUUGUAAUGUGGAAUACAGGCCGGGGCAAAACUCGCAUUAAAAAAAAAAAAAAAAAAA'
p144
aF0.8529411764705882
aa(lp145
S'Kudzu'
p146
aS'AAAAUUCUAGGAGAGGAGAAGAAUAGCUAUGCCGAUGAGGUAUUCAAGGGAGUACAGGAGAAACUCAAAGGAGAAACGGUAUAAAAAAAAAAAAAAAAAAA'
p147
aF0.9603960396039604
aa(lp148
S'"1,2,3and4bulges"'
p149
aS'AAAAUGGGGAGACCAGAAAUGAAAACGCAGAGGAAACUCGCUAUCUAAGGCGCUGACAAAAAAAAUCAUAGAAAACUAUGCAAGCAAAAAAAAAAAAAAAAAAAA'
p150
aF0.9809523809523809
aa(lp151
S'medallion'
p152
aS'GAUAUCGGAUAUCGAAAGAUAUCGGAGAAACCUAAGGGAAAACUUAGACAUGGAAACAUGUCAGAGGAAACUCGGAUGUCAAAGGAUAUCGGAGAAAGCCUACGGAAAACUGAGAUAUCUAAUGAUAUCAUGGAAAACUCUGAUAUCGAAAGAUGUCCGAGAAAGUUAAGUCAAAACAAAGGUAUCAAAGGAUAUCAGACAAAAGUCAGAUAAGAAAGCUUAUCAGGGAAAACUCGGAGAAAGCUCAGAUAUCGAAAGAUAUCGCACGAAAGACAGACAUCGAAAGAUGUCAGGAAAAAUCCCGUAAAAACACAGAUGUUGAAAGACAUCAGAUAUC'
p153
aF0.9287833827893175
aa(lp154
S'[RNA] Repetitious Sequences 8/10'
p155
aS'AGCAAAAAAGCAAAAAAGCAAAAAAGCAAAAAAGCAAAAAAGCAAAAAAGCAAAAAAGCAAAAAAGCAAAAAAGCAAAAA'
p156
aF1.0
aa(lp157
S'Documenting repetitious behavior'
p158
aS'AAAAAAAAUAAAAAAAAAGCAAAAAAAAAUUAAAAAAAAUACAAAAAAAAAGUAAAAAAAAAGUAAAAAAAAAGCAAAAAAAAAGGAAAAAAAAACCAAAAAAAAAGCAAAAAAAAGGCAAAAAAAAAGUAAAAAAAAAUCAAAAAAAAACUAAAAAAAAGGCAAAAAAAAAGCAAAAAAAAAGGAAAAAAAAAGGAAAAAAAAACCAAAAAAAAAUCGAAAAAAAAGCAAAAAAAAACCAAAAAAAAGGGGAAAAAAAACCAAAAAAAAGGCAAAAAAAAAUCAAAAAAAAAGUAAAAAAAAAGGAAAAAAAAAGCAAAAAAAAAGCAAAAAAAAGACAAAAAAAAAGCAAAAAAAAACUUAAAAAAAAAAAAAAAAAAAGUAAAAAAAAAGGAAAAAA'
p159
aF0.96
aa(lp160
S'7 multiloop'
p161
aS'CCCAGGUCGUAAUCGGAUUCAUGAAAGAAAGACUAUCUAAUGAUAGCAGAUUAACAUCGGGUCAAAAAGUUGGCCUUUCAAAGGAAAUCAGG'
p162
aF0.9130434782608695
aa(lp163
S'Kyurem 7'
p164
aS'AAAAGAUAUGCUAACUAAGGUACGUAAAAAACCAGGGGAAAACCCGGACGUCGAAAAAGACAAAGUAGGUUAAGAGAAAUUAAAAAAAAAAAAAAAAAAAAA'
p165
aF0.9803921568627451
aa(lp166
S'JF1'
p167
aS'GAUACAUAUAUGGAUAGAAGAUAGAAAAGAUUUCAAGAUAAAAAGAUAGAAGAUAUCACUAUAUAUAUAUAGAAAACUAUAUAUAUAUAGAAGAGAAAACUCAGAUAUAUAGAAAACUAUAUAUCAAGAUAGAAAACUAUCAGAUAUCGCUAUCAUUAUCGGAAAUCAAAGAUAUAUCAAAAGGAUAAUAUCGAGAUAUAUAUAUAUAUAUAUAUAUCGAAAGAUAUAUAUAUAUACUAUAUAUAUCAAAGAUAGGAAAAACUAUCGAUAUAUAUCGAAAGAUAUAUAUCAAAGAUCGAAAGAUCAGCUAUCAACUAUCAUAUCAGAGAGAGAAAACUCCUCGAUAAGAUAAAUAGAAAACUAUUAUAUCAGUAUAAUGAUAUCGAA'
p168
aF1.0
aa(lp169
S'multilooping fun'
p170
aS'GCAUGUGGUGAAGGAUGAAAGACAAGGCAAAAGUGC'
p171
aF0.8333333333333334
aa(lp172
S'Multiloop...'
p173
aS'UUUCGUCUCAUUGGAAACGGGGAUUAAUCUCGGACAAAGGGCAUUGAAAACGCACAGAAAAAUGACCGAAAGCGGAGAAAAGACAGAAAAAACUAUCGCCGAAAGGUGAUC'
p174
aF0.9459459459459459
aa(lp175
S'hard Y'
p176
aS'AAAAUGAUCGGAUAUUUAUCUAAUGAUAGAUAACCGCAUAGAGAGUAAUCUCUCUAUGUGAUCUAAAA'
p177
aF0.9705882352941176
aa(lp178
S'Mat - Elements & Sections'
p179
aS'AAAAAUGUUAUGAUGUGUUAGCCCUGGAGGAGGUGCGCAAACUAAUGUUGGACCAUUGACCCAGAAAAGAUAGCUCAAAAGGACAAAAAAAAAAAAAAAAAAAAA'
p180
aF0.9809523809523809
aa(lp181
S'Chicken feet'
p182
aS'AAAAUAUAGCAGAGAAGCUUGAAAUAAAACCGAUAUAUCAGGAAACUGUAAAGGUAGGGGACUAAAA'
p183
aF0.8208955223880597
aa(lp184
S'Bug 18'
p185
aS'ACAUGCCAGAAAGGAGAAUUACGGAACUUACAACUACUUAUUAUGUAAAUAGG'
p186
aF0.9245283018867925
aa(lp187
S'Fractal star x5'
p188
aS'AAAAGGAGGUCACAACCGGUAAUCUGGAAAAGCAAAGGCUUGUGAUGGAAACAUCUAGAUCGAAAGAUCAAGUGAUCUCAAAAAGUGGCUUCAACUAGAAAACUAGAGGGUAUAAUUACCAAUGUUGAAAAAUAAAGAUCGAAAGAUCAGGGAGUUACAAAAAGCAAAUUGAAAUACCCAGGUGUAUGAUCGAAAGGUCUAGAUCAAUGGAUCAUGUUCGAAAGAACUGCAAUUUGUAAAAGGGUUUGGCUGGUAGAAAACUAUAUGAUCGAAAGAUCUAGAUGGAAACAUCGAGAUCGAAAGAUCAUGCCAAACCAAAAUGGUUUAUCAACUAGAAAACUAGAUGGACGAAAGUUCUAGUUCGAAAGAGCGUGCCCGAAAGGGCUGGAUAGACCUAAAA'
p189
aF1.0
aa(lp190
S'Crop circle 2'
p191
aS'AUAAACCGAAAAUUAAAAGAAAAAAAAAGACAAAAAAAAAAAAAAAAAAAAAAAAAAAAAGAUAAAAAAAAAAAAAAAUUAAAAAAAAUGUGAAAAAAGGAAAAAUAAAA'
p192
aF0.9636363636363636
aa(lp193
S'Branching Loop'
p194
aS'AUAUCGUAAAAAAUUACAGGAAAUUGUAAGAUGGAAAAAA'
p195
aF0.95
aa(lp196
S'Bug 38'
p197
aS'AGAUCCGUUAUGAGAAAAGUGCUGGAAGGUAAAGGA'
p198
aF0.9444444444444444
aa(lp199
S'Simple Single Bond'
p200
aS'AAAAAAGAAAAAAAAUAUUCGAAAAGAGUUAAAAAAAGCGAAAAAAAAAAAAAAAAAAAAA'
p201
aF1.0
aa(lp202
S'Taraxacum officinale'
p203
aS'GAUGGAAACAAUCAGGGCUAAUAAAUUAGAUCGAAAGAAUCAAGCAGAAAGAAUUAGAUCGAAAGAAUCAGAACGAAAGAUUGGGAUGUAUAUAGCGAAAUAGACCGAAGGUCAUAUUUCGAGAUAGAAGAUAUUCAUCAAAAUAUGUGAAGCAUAUUGGAUGGAUAUCGUUGAGAUAUCAAAGAUAUCCGACCUAUCAAACUAUAUAUAUCGCGCAAAAACAUUGAGAUCGAAAGAAUCAGAGCGAAAGACUCAGAGCGAAAGACUCAGCACGAAAGAUGC'
p204
aF0.9929078014184397
aa(lp205
S'Headless Bug on Windshield'
p206
aS'AGCUGCAAAAUGACAUAAAAGACCAAAAAAAAAAAAAAAAAAAAAAAAAAUUGGGUAAAAUGAUCUAAGGAACAAGUAAGCCGAGCAAAAAAAUUGAAAAAAAAAAAAGUAGCGAAAAAAACCGAGCGAAAAAAAGGCAGGAAAUAGAAGCACUAAAAAAAAAAAAAAAAUGGAAGCAACUGAGUCAGCCAGCAAUUUGA'
p207
aF0.96
aa(lp208
S'Pokeball'
p209
aS'AAAGAUAUAGAAAAGCGAGAAAACUAAGCUAGUGAAGGAGCAAGUAAGCAAAGCGGCAGGCUCCGACCGGCGGGUGUCAGCCUAUGUCAAAAAAAAGAAACAGAAAAGCAAGCAAGAGGAGCGAGUGAGCAAGCAAGCAUGAGAACCGGCAAGCGGCAACAAGCACUCGGCGGCCUGUUUCAAA'
p210
aF0.9565217391304348
aa(lp211
S'Variation of a crop circle'
p212
aS'AAAAGUGAAAGGAAAAUAGAAAGGAGUCAGUUAAAGGAAGCAAAAUUAAAAAUUUAAAAAAGUCAAAAAAAAAACGAAAAAAAAAAAA'
p213
aF0.9545454545454546
aa(lp214
S'Loop next to a Multiloop'
p215
aS'AAGAUAUCUCAAAAAAGGUGAUAUCUAAUGAUAUCGUAUGUACAAAGGUAUAUAUCAAAAAAAGAGAUAUUAA'
p216
aF0.9726027397260274
aa(lp217
S'Snowflake 4'
p218
aS'GGGCAAAGUUCCUAUCUCGAAAGAGAUAGAUGAUAGCCAAAGGGCUAUCCUAGGUACUAAAAAAGCAAAGAUUGAUAAACUAAUGUCUAUCUAGAUUGCGGAAAUGCAAUCGAAGAAACUAGAAUAUCUAUGAUCGAUUGUCAAAGGACGAUCAAGAUAGUCGAAAGAUUAACCUAGAAACUAGAAGAUCAAUGAUCGUUAGACGAAAGUCUAUCAUGACACGCGAAAGCCUGUCCCAGGAACUGGAAGAUCAAAGAUUGAUAGCCGAAAGUGUGUCUUGAUAUCCGAAAGGCUAUUAUAGUAUCUAGACGUUCUCUGAACGAUAGCCGAAAGGAUAUCUACUAUCCUAAAGGGGAUAGCUGGGAACCAG'
p219
aF0.7837837837837838
aa(lp220
S'Mat - Cuboid'
p221
aS'GAAGAAAAAGCAAUAAAAAGCAAGAAAAAGAAACAUGCAAAAGCAAGCAAGCAAAAGAAGCAAUCAAGCAAAAGCAAGGAAGCGGGUAAAAGGUAGCGAGCAAGCGAGAAAAAACGAGCAAGCAAGCAAGCAAAAGCAAGCAAGCAAGGAGGCAAGCAAAAGCUAACAAGCAAUGAAUCAAGCAAAAGCAAGCAAUCAAGUAAUCAGGCAAAAAAGCAAGAAAGCAAGAAAGCAAACGCAAGAAACGAAGCAGGAGUACGCAAGCAAGCAAGUGACCAAUCGCAAGCAAAUGACCAAGAGCAACCAGGCGAGCAUCCGCAAGCAAUCAAGUGUAAGCAAUCAACACAAGCAAACGCUAGAAACGCAAGCGGAAGCUCAAC'
p222
aF0.8526315789473684
aa(lp223
S'Misfolded Aptamer 6'
p224
aS'AAAAAAGAUAAAAAAUAUGGAGGAAAUAGAAAAAAAACUGAAAACGAAAACAUAAAAAAAGAUCAAAAAAAAAAA'
p225
aF1.0
aa(lp226
S'Snowflake 3'
p227
aS'GAGGCGAAAGCUGACGUCGAAAGAUAAUAUCAGUUCAAGAGAAAACUCUAGAGCAAAGUCUGGAAACCAGCAAAGGCACUAGAGAAAACUCAAGGGCAGACCAAGAGAAAACUCUAGAGCGAAAGCUAGAAACUAGCGAAAGCACGAGGGGAAACUCAAGGUCAGAUCAAGAGAAAGCCCUACGGUGAAAGCUGGAAACCAGCGAAAGCAGUAGAGAAAGCUCAGGAUCAGAUCGACAUAAAAAUGUAGAGGGAAACCUAGAAAUUAGCGAAAGCACUAUACUAAUCUCAAGAUCAGCACAAGAGAAAAAUCUAGAGCGAAACCUACAAAGUAGAGAAAGCGUUAGAGAAAACUCAGGUGCAGAAAAAGAUAAAAGUCGUCUGCGAAAGCCUU'
p228
aF0.8040712468193384
aa(lp229
S'Hard Y and a bit more'
p230
aS'AAAAAUCGAGUUUAGCGGUAAUCUGUCGUGGUAUCGCCAAGAUCAAAGGAUCGAGAAACUAAAAUGUUUCAAGGAGAUAACUCGGAAAAAAAAAAAAAAAAAAAAA'
p231
aF0.9716981132075472
aa(lp232
S'Mat - Lot 2-2 B'
p233
aS'GAAGUGAGGAUGAAGCAAAAGCAAGAAAGAAAUUAAAGUCAAGAGUAACGAAAAGCAAAGCCAGCGAAGCAAGCCCAAGGAAAAGCAAGACCAAGCAAAAGGGAAAUCGCAAGAAAAAACAAGCCCAAGGCCAAGGUAAUGAAAACUCAAGAGCAAGUAAAAGCAAGAGGAAAGCUAAAAUCAACCGCAAGUAAAAUCAAGACCAAGGAAGCAAGCCGAUGAAAAAUCAAGAUCAAGCAAAAGCGAAAGAGCAAGAAAAAUCAGAAUCUAUGGGAAGGAACAAC'
p234
aF0.7922535211267606
aa(lp235
S'Shapes and Energy'
p236
aS'AAAAAAGAGUUCAGAUCAAAAGGAAGUUCGCGAAAGAGAACAAACGAUCAAGGUAAAAUAAUCGAAAGAUUCCAGAACGCAAAAAAAAAAAAAAAAAAAAA'
p237
aF1.0
aa(lp238
S"Spiral of 5's"
p239
aS'CAAAGGAUAGAAAAAUAGAAAGAUAGAAAAGAUACAAAGAUAGAAUGAUAGAAAAUAGAAAAGAUCUAAAAAUAGAAAGAUAGAAGACAGGAAGGUAGAAACAUAGAAGAUAGGAAGAAAUGAGAUAGAGGAUAGAAGAAAGGAGAUAGGGAUAGAGAUAUGGUGUCCUAAGCACUAAAAAAUAUCAAAAACUAUCAAAAACUAUCAAAAACUUUCAAAAACUAUCAAAAACUAUCAAAAAAUUUCAAAAACUAUCAAAAACUAUGAAAAACUAUCAAAAACUGUCAAAAACUAUCAAAAGCUAUUAAAAAAGAUCAAAAACUAUUAAAAACUAUCUAAAACUAUCAAAAAGUAUCAAAAACUAUCAAAAACUAUUAAAAACUAUCAAAAAGAAAAA'
p240
aF0.9949622166246851
aa(lp241
S'Campfire'
p242
aS'AAAAGAUCAAGAUAGAAUAUCAGGAGCAAAAGGCUCGAUCAUAAAAUUAAAAGAUGCGAUAAAUCAGCACAUAGAAAACUAAUGGCGGAUAUCGCGCCCAGCGAAAGCGGACAGUCAGAGUAAUCUAGGAAUAAAGACUAUUUAAUUUCCAUCCUCUGAGAGUGAGAUGUAAUUAUCAACCUCCUUUAUCGGAAAAAAUGAAGGUGACGAUC'
p243
aF0.7924528301886793
aa(lp244
S'Anemone'
p245
aS'AAAUUAAUCGAAAGAUUGAGAAAGAAAACCUCCGUGAUCAAAGGAUCACUUAUUAAAACUAUGGAUACCGAAAGGUAUCGGUAGAAAACUGUUCAGAGAAAGCUCUGUAUACCGAAAGGUGUAAGUUCGUAAUCGAACUAUAUCAAAGGGUAUAGAUAAAAAAUUAUUUAUAGCAAAGGAUAUAGAUAAGAAGUUAUCCAGUUUAAAGAAGUUG'
p246
aF0.8504672897196262
aa(lp247
S'Fractal 3'
p248
aS'AAAAGAUGGAGCGAGACAAAUCGAGAAAUUACACUUCGAUUAAAGGGUUGAAAGAAUGCAGCGCACGAAAGAAUGAAAGAACGAAGAGAGAGAAAAUGGGAAACUACCAGUCGCAAAAA'
p249
aF0.8319327731092437
aa(lp250
S'Kyurem 5'
p251
aS'AAAAAGAUCCCUAUCAAAGGAUCGAAAAAUGUCAUAGAAACCGUAAAUCGCCUAGGUUUAAAAUAAAAGACGGAAGUCAGUGUCGAAAAAAAAAAAAAAAAAAA'
p252
aF0.9423076923076923
aa(lp253
S'Snowflake Necklace ( or v2.0 )'
p254
aS'GAGAUAUAUAUAUAGAGGGUGAAAAAAAAUUAUCAAAAAGAAGCAAAAAGCAGCAAAAAGCAGCUAAAUGUGUACCCAAAGAAAAACUUAUAUAGAGGAAAAGCCAGCAAAAAGCCUCAAAAAGAAGGAAAAACCAGCAAAAAGCGCUAUGGGAUGAAAUGACUGAUAGAGUAAAAAACAACAAAAAGUCGGAAAAGUUAGCAAAAAACAGCAAAAGGCUCUAUCAUAGAAAAACUAAUAUAAAGCAAAAAGUGGCAAAAAAUGGUGAAAAGCAGCAAAAAGCACCAAAAAGGACUAUCAGUUAAAAGGGCGGACAGAGCAAAAAGCAGUAAAAAACAUGAAAAAUAAGCGAAAAGUAGAAAAAAGCACUGUCACUAUAUAUAUAUUUC'
p255
aF0.8611825192802056
aa(lp256
S'Methaqualone C16H14N2O Structural Representation'
p257
aS'AAAAAAAGAUCAGAGCCCCCAGAGAAAACUCAGAGACUCGAAAGAGAGGGAUAGAAAACUAAGAGACUCGAAAGAGAGAAAAAAAAAUUCACUCAAUGACUCGGGGAGAAACAGCUCGCCCGAAAGCACGCAAAGAUAUUCAAAAAAAAGUGAGAGAGAGAAAACUCUAGAAAGCUAGCGAAAACUCCUCAGCAAGGAGCUGAAACGGAGUGGGUUUAACAGACGCAAAAGCUUAAUAGCAGAGAGCGAAAAUUCACUAAGUGAAAACACAUAGAUAUGAAACGCUCUCAGAUCUAGAAAUAGCUUUAAUAAGAAUGAAUACGCCACUCGCUGUUCCAACGGGAGAUCAAAAAAA'
p258
aF0.8985915492957747
aa(lp259
S"Cat's Toy 2"
p260
aS'AAAGCUGAUAUUAAAAGUAUAGAAAGAAAAAAAAAAAAAAUUAUGAAAUCGAAAGAAAAUGGAAAUAAAAAAAAACGAAAAAAACGAUAUUAGAAAA'
p261
aF0.979381443298969
aa(lp262
S'Zigzag Semicircle'
p263
aS'AAAUGAUGAAGUUUAAAAUUCCCGAUCAUCUAAA'
p264
aF0.9411764705882353
aa(lp265
S'Short String 4'
p266
aS'AAAAAGCACACAAGUAAGAAAUAGGAACGAAAGUUCGAAGAAGGGCAAGCGAAAGCGAGCAACAAACGACAAGUCGAAAAAAAAAAAAAAAAAAAAA'
p267
aF0.9381443298969072
aa(lp268
S'Gladius'
p269
aS'GGAAACAAGAAAAGGAAGGGGCGAAGAAGGCGAGUUAAUGAUCGAAAGAUCUGAAAGACGAGAGAACCGAUCAAAGGAUCAAAAUAUUAAUGAGAUAGUAGAUAGAGAUCCGAGCAAGAUCAAAGAUUGGCUACGAUCAAUAUCGUUUAUCGAAUUAAUAAGGGGAUCAAUGGAUCCAGGCUCAAUACUUUCAGACAAAGAGAGAUUGGCAAUAUAGAAGUUCAGAAGAUCACAAGAGAUUGGAAUAUCAGAUACAGAUAUCAGAGAGAUAUCGAAAGAUGUCAACUCGAAUAUACGUAUACGAUAUAGCGAUCUCGGAAGGUCGCGAGAAUGUAAAUGGGAACAAUCAAAUCGAAAGAUUAAACUCACGCAAACAACACAACGAACAAAACGAGAAAAC'
p270
aF0.91
aa(lp271
S'Thunderbolt'
p272
aS'GCAAGAUAAUAAAAAAAGAGCAAGCGGAAAAACAAAAGAGAUAGACCAAAAAAAAAGCAAAAAACAUCAAAAAGAUGAAAAAAGCAAGUCAAGAAAAAAAAGAAGAAAAAACAGUAAGAAAGCUAAAAUAAAACACAUCAAAAAGAGAAAAAGGAGCACGAAGAGCAACAAAAACUCAGGUCUAAGAAAAAAUGAAGUGUAAAACGCGACUAAAAAAUAAUGAUCGAAAAAAAGUUGAAAAUGAGAUCAAAGAUCUCUGUAAUCAAAAAAAAAAACUGGGAAAAAAAAAAGAAAUGAAAAAGGUCGAAAAUAGAAAAAAAUUAAAACGACUUAACACCAAAGGUCUAUCAAAAAAAACGGCAAGCAUGAACAGAAAAAAACUAUAUCAAGCA'
p273
aF0.9336734693877551
aa(lp274
S'Mutated chicken feet'
p275
aS'AAAAAAGAGAUCAGAGAAUACGUAAGAGAAACCGAGCCAGCGGCAAAGCUAGAAACUAAAGCGUAAGAGGACCGCAACAUCAAGGACAAUGUUGAAAAAA'
p276
aF0.8
aa(lp277
S'Chicken Tracks'
p278
aS'AAAAAAAAGAUAUAGCCAGAAAACUGGAAGAUCGAAAGAUCAAGGUCGAAAGAUCCUAUAUCAUGUGCCGGAAACCGGAAGUCCAAAGGACAAACUGAAACAGUCACUAAAAAAAA'
p279
aF1.0
aa(lp280
S'Looking Back Again'
p281
aS'GAUUAGAUCUAGAAAAGGAUUUGUAUUAUAUCACUAGAAGACCCUAAGGGAAACUCAGGAGAUCGUAAGAGCGAAAGCUCAAAUCGAUCGAGUCAAAUCAAGACGCCUAAAAAGUUAGGAAACUAGCAAAAAAGGGCUUUCCUAUCAAAAAUAUCUUUUAAAGAGAGUUAUACGUAAGAGGAAGGAGAAUCAGAUCAAAGGAUCAAAGCGAGCAACGGCCUCGAAAGAGAAGUAUAGAAAGAUAGUGUCAGAUAGUGGUCAAAAAAGAUAUAUAAAAAAAAGAUCAAAAAGAUCGUAUAAAGUCGGACCGUAGUAAAAAGGCGAUAAGAAAUUAUCGAAUACUCAAGGAGGAACGAAACGUUCAAGUAUCAAAUCUAGCUAUCGAUCUC'
p282
aF0.8997429305912596
aa(lp283
S'Multilooping 6'
p284
aS'AAUGUGAUGACAAGUAUAGGUUAGACCGGGAAACUGGUUCCGGAAAGUUGAUGGACUUAGGCGGAAACGUUUACUUCAUAGA'
p285
aF0.9512195121951219
aa(lp286
S'Cesspool'
p287
aS'GAAGAAUGAAAGAAGAGAAGAGAGGGAAACCCAACAACAACUAAAGAAGAAAACAACAGAAGAAAACAACAAAAGGAAAGCAACAACAAGAAGAAGAAAACAGGACAAGAGCAAUAAAAACAACAACAACUAAAGAAGAAAGCAACAGAUAAAAAUAACAAAAAGAAAACAACAACAAACAAUAAGAAAAUAAGAGAAAAUAUAGAAACUAAAGAAUAACCCAAGAAGAAAACAACAGAUGAAAACUGCAAAAAGAAAGAAAAAAAUAAGAAAUAAGAAAACAACAGAAGAGAGAGAAAUUCAACAACGACUCAAGAAGAAAGCAACAGAAGAAAACAACAAAAAGAAAACAAAAAUC'
p288
aF0.7569832402234636
aa(lp289
S'Hoglafractal'
p290
aS'AUGAGUUAGAAUGAAAAGAUAGAAAAAACUAUCCGAUCAGUUAAAGAACAAAAAGUUAUAUUGUUAAUUCAAAAGUGGACAGAUAAAGAUUAAAUAGCUAAAAUAUUCGGUCCGGAAGACAAAAAGGCCUGGCAGCGAAAGCGCAGAUGAAACGUGAAGACUAAAAUGUCCACCCAGCAAAAAGCGAGAGAAAACUCAGAGUGAAAACACAGGGAAAAACCGUCUCAAAAAGAAGGGAAACCAGAUACCGAAAAAGAGAAAAAACUCGCAAAAAGCAAAGAUAUACAAAGUAUAUCAAAAAAAGGUAUUAAAAAACAUUCAAAAAGAUCAAAAGUCGAUACUGCUAAGUGCAGAUCAAACGCUAAUGCACGAAAGAGAUAUCAAAGAUAUCAGAUCGCUC'
p291
aF0.8725
aa(lp292
S'Bullseye'
p293
aS'AAGGAGCUAGAAACUAGAGGAUUCAUAACUAAGUUCAAUCAUCCUCAAAAAAAAGAGCCAGAAAGUGGAAGGUCAAAGACCAACUUCAAAGAUCCUUAAAAAAAAGAGCUCAAAGUGAGAAGAGCAAGGUUUGAGGUAAAAUGCCCUCAAAAAAAGGUGCUCGAAACGAGAAUAACAAAGUUCAAGCUCUAUAAUCCACAAA'
p294
aF0.7871287128712872
aa(lp295
S'Shooting Star'
p296
aS'GAAGUCCUACCUAUAUCAACAUGAAGCGCUCAGAGUACGAAAGACCUACGAGAGACGACUAGGAUGUAGAGAUAAAGGAGGUGCGCUCAGAUAGAGAGAGCUCAGAGAAAUACGAUACCUCCAUAUAUGAGAGAAUACCAGUUAAAAAAAUAUCAUUCCUGUCAAAGGCAGCGAUCGAAACGAUCCAGAAAGCGAAAAAGAGUAGAGAUCAGAUCAAUGAUAUAUUAUGUAUAUCUGAUAGAAACUAUCGAUCUAUUAAGAAACUUAGUAAUAUAGAAAAUAUAGAUCCUAAAACAAAGGGAACAAGAAGAGAGAGAGAUCAGCGAAAGACGAUACCUAGCAACAACGCAACCUAUAGAUUUCA'
p297
aF0.8159340659340659
aa(lp298
S'Teslagon'
p299
aS'AAAAAAGGAAAAAAAUCAACAAAAAAAGCUGCAAAAAAAAAAAAAAAGUAAAAAAAAAGCUAAAAAAAAAAAAAUGUUGCAAAAAAAGCGGCAAAAAAAGCAAAAAAAAAAAAAAGGCAAAAAAUGUAGCAAAAAAAGCAACAAAAAAAAAAAAAAAGUAAAAAAAAAGCAAAAAAAAAAAAAAAGCACCAAAAAAAUAAGAAAAAAAGAUAAAAAAAAAAAAAAAGUAAAAAAAGCACCAAAAAAAGAGGGAAAAAAAAAAAAAAACUAAAAAAAAAGCAAAAAAAAAAAAAAAUCAUUAAAAAAAGUAUCAAAAAAAGUAAAAAAAAAAAAGAAAAAAAAAAAAAAAAUCAGAGAAAAAAGGAGGAAAAAAAUCGAAAAA'
p300
aF0.8952879581151832
aa.