(lp0
(lp1
S'Simple Hairpin'
p2
aS'ACAACAAAAAAGUUGU'
p3
aF1.0
aa(lp4
S'Arabidopsis Thaliana 6 RNA - Difficulty Level 0'
p5
aS'ACAUUACGAAGGACAAAAAAAAAAAGUCGGUAUAUUAAGGUUGUUUGUUUGCCAGUUAAAGAUACAAAAAAGUGUCAAACUGGACAAACAAACAACCAGAAUAUACCAAGUAAUGU'
p6
aF1.0
aa(lp7
S'Prion Pseudoknot - Difficulty Level 0'
p8
aS'GAUAUCAGAUCAAAAGAUCGAUAAUCAAAAAAAAAA'
p9
aF1.0
aa(lp10
S'Human Integrated Adenovirus - Difficulty Level 0'
p11
aS'UUAUCGGUACAUGAGAAUAUGGAAAAAAAAAUCGCCCACUGGUUUCACGGGCAGGUCAAAAGACCUAAUUAUGUGAAAAAAAACAUGGUUAGAAAAGCCGACCUUAAAAUCGCCAAAAUAGUGCUGGCAAGCAAAAAAGGCUUGCGGUGUCAAAAAAAAAAUAUAUUAUCAUAAAAGUACCGAGAGAGGAAA'
p12
aF0.9791666666666666
aa(lp13
S'The Gammaretrovirus Signal - Difficulty Level 0'
p14
aS'AAGAGAACACGUCAAAGGAUGUGGACGCAAAAAAGAUGAAGUCAGAUCGAUUUAAAGAGAUUGCAGGAUCGACCAUCAGGAGAUUUUUAAUGGAAUUUCAA'
p15
aF1.0
aa(lp16
S'Saccharomyces Cerevisiae - Difficulty Level 0'
p17
aS'GAUAUGGGGUUUAAAAAAUGACCACUAAAAAAAAAAAAAUAGGGAAGAGUUCCAAAAAAGAAGCUUAUAUCAAAAGUAAGCCAAGGGCAAAAAAAGGCUCGACAAAAAAAAAAAAAGUGAAAGGGGCCGAAAAAAGGUCCGGUUUACGAAGGGUAGAAAAUAUCGAAAAAAAUAUGGUUAGCGAAAAAAGUUAGCAAAUGAUCGGAAAAAACGAUCUUUUAUCAAAGGUUUGAUAUGAUUGAAAAAAAGAUCUAUUUCAAAAAAGCAUAGAAAAGGUGCCAAAAAAGGGCACAAUUCUCAAAUACGUUUUAACUUCAAAACAAGGAAGGCGUUCGAAAAAAGAGCGCAAAGGAUUCGAAAAAAGAAUCAAAGCGUUAAA'
p18
aF0.8944591029023746
aa(lp19
S'Fractal 2'
p20
aS'AAAAACAUAUAUCAAAGUAUAAAUGUAAGGGCAAAAAAAAAAGCCCAAGAGUAAAAAAAAAAACUCACGAUCAAAAAAAAAAGAUCUGACAUUUAUACAAAGUUUAUCCUUAAGACGGAAAAAAAAAUGUCAGGAGCAAAAAAAAAGGCUCAACAUCAAAAAAAAAAGAUGAAAAGGGUAGACAAAGUAUAUAUUCAGGAGCAAAAAAAAAAGUUCAAGAGCAAAAAAAAAGGCUCAAGAUCAAAAAAAAAAGGUCAAGGAUGUGUACAAAGAUAUAUGAAAAA'
p21
aF1.0
aa(lp22
S'G-C Placement'
p23
aS'ACCCAAAGGGUG'
p24
aF1.0
aa(lp25
S'The Sun'
p26
aS'GACAGUUAUACAAGGUAUAAAGCGUCAAACGUAGCUCUACAAAGUAGAAAGCGCGAAACCCAGAUAUACAAGGUAUUAAUCGGGGAAGGAAUACAUGCAAAGCAAAAAAAUUGAAUCGUAGAUUGAGGAACUCAAAGUCACGUAACGUAACUGUACAGGGGAUUAGGGUCCGAAGGCCGCUACACAAAGUGUAAAGCGCCAAACAGAGGUAGUGAAAUGCUAAACCCUGAAAGGCAAAUGUACUAUGUAUUAGAUGCU'
p27
aF0.9031007751937985
aa(lp28
S'Frog Foot'
p29
aS'AAAAAAAAAAUAUCGAAAGAUGACGGGAAACCGUGGCGGAACGCC'
p30
aF1.0
aa(lp31
S'InfoRNA test 16'
p32
aS'ACAAUCGGAUGUAUCAAAAGAUACUAUACGGAUUGU'
p33
aF1.0
aa(lp34
S'Mat - Martian 2'
p35
aS'CGUGAAAAUACGAAAGAUAUACAAGAUAUACGAAAAAAGUAUAUCGUAUAUCAAAUAUAGAUCAAAAAAGAUAUACAGAUAUCAAAAAAAAUGAUAUCGUAUAUCAAAGUUUGUACGUUUGUGAAAAAAACAAACGAUACAAACAAAAAAGAUCUAUGAAAGUAUGUAUGUUUGUAAAAAAAAUAAACAAAUACAUACAAAGAGGAAAGCUUC'
p36
aF1.0
aa(lp37
S'square'
p38
aS'ACAAUACCAGAUCAAUAUACCAUAUCAAAGAUAUGAAAAGUAUAUUAAAAGAUCUGAAAAGUAUUGU'
p39
aF1.0
aa(lp40
S'Six legd turtle 2'
p41
aS'AAAACGGAAAUCAAAAAAGAAUAAAAAUGAAAUUGAAACGAAAUAAAAAGGAAAGAAAAGAUAAAUUUAAUUGAAAGUAAAAAAAAAAAAAAAAAAAA'
p42
aF0.9591836734693877
aa(lp43
S'Small and Easy 6'
p44
aS'GCCCCAAAAGGGAAGAAAAAAAAAGUAACC'
p45
aF0.9333333333333333
aa(lp46
S'Fractile'
p47
aS'AAAAAAAAAAAAGGUAAUUCAAUGAAAGUUAAAACAUAUCAGGGGUAAUCGAAAGGCUAGAAAACCUAGUCUGAAAAAAGUAAAAAAAAAAAAAAAAAAAAAAAA'
p48
aF0.9619047619047619
aa(lp49
S'Six legd Turtle'
p50
aS'AAAAAGGAAAAGCAAAGUCAAAAUCAAAGGGAAAACCAAAGGCAAAAUUGAAAAAAAAUUUGAAAGGGAAUAUUAGUCAUAAAUCGAAAAAAAAAAAAAAAAAAA'
p51
aF0.9619047619047619
aa(lp52
S'snoRNA SNORD64'
p53
aS'ACAAUCAAAAAGACAAAAGACAAAGAUACAAAAAAAAAAAAAGUAUCGAAAGUCAAGUCAAGAUUGU'
p54
aF1.0
aa(lp55
S'Chalk Outline'
p56
aS'AAAAAGAUCAGAUACAAAAGUAAUCAGACAGACAAAAGUCGUCGGAAAGCAAAAGCAUUUCAGGGACAAAAGUCACCGAUCAAAAAAAAAAAAAAAAAAAAAAA'
p57
aF1.0
aa(lp58
S'InfoRNA bulge test 9'
p59
aS'ACAAUACAGAGAGAGAUAUACAAAAGUAUAUCCCCGUAUUGU'
p60
aF1.0
aa(lp61
S'Tilted Russian Cross'
p62
aS'AAAAUGGCCGGGUGAAUAAUAUGGCAUAUGGAAACAUGCAGACGAAAGUCUGAGAGAAAAGGGUGGAAUUUCUCAAGGCAAGGCCUAAAAAAAAAAAAAAAAAAA'
p63
aF0.9142857142857143
aa(lp64
S'This is ACTUALLY Small And Easy 6'
p65
aS'AAAAAAAAAAAAAAAAAAAAAAAAAAAAAAAAAAAAAAAAAAAAAAAAAAAAAAAAAAAAAAAAAAAAAAAAAAAAAAAAAAAAAAAAAAAAAAAAAAAAAAAAAAAAAAAAAAAAAAAAAAAAAAAAAAAAAAAAAAAAAAAAAAAAAAAAAAAAAAAAAAAAAAAAAAAAAAAAAAAAAAAAAAAAAAAAAAAAAAAAAAAAAAAAAAAAAAAAAAAAAAAAAAAAAAAAAAAAAAAAAAAAAAAAAAAAAAAAAAAAAAAAAAAAAAAAAAAAAAAAAAAAAAAAAAAAAAAAAAAAAAAAAAAAAAAAAAAAAAAAAAAAAAAAAAAAAAAAAAAAAAAAAAAAAAAAAAAAAAAAAAAAAAAAAAAAAAAAAAAAAAAAAAAAAAAAAAAAAAAA'
p66
aF1.0
aa(lp67
S'Shortie 4'
p68
aS'GCGAAAGCAACGAAAGU'
p69
aF1.0
aa(lp70
S'Shape Test'
p71
aS'AAAAAGGGAUCAAGAUACAAAAAAAAGUAUCAAGACAUGCAGAUACAAAAAGUAUUGGAUCAAAAGAUCAGCGGUCAAGAUCGCGAAAAAAAAAAAAAAAAAAA'
p72
aF1.0
aa(lp73
S'The Minitsry'
p74
aS'GGUGAAAAGUCAAAAAGCUGAAAAUAGAAAAAGACAAAAAAAAGUCACUAAAGCGGACAGCC'
p75
aF1.0
aa(lp76
S'stickshift'
p77
aS'AAGAUACCUGAAAAACGCGGUAUCGA'
p78
aF1.0
aa(lp79
S'U'
p80
aS'AAAAAGAUACAGAGAGCAGAGAUAUAUAUAAAAAUAUAUAUCCGCCCGUAUCAAAAA'
p81
aF1.0
aa(lp82
S'Still Life (Sunflower In A Vase)'
p83
aS'AAUGACCAAAUUCCAAAAAGGAGUAACCAGGGAACCUGGAAUAUUCAAAAAGGAUAAAGCACCAAAGGUGUAACGUAUGAAAAGUACGAAAGACCAAAAAGGUCUAGUUUGUUUGUUGGUUAGUUUGUUUAUACAAAAAAGUAUAAGAUGCAAAAAAAAAAAAUGAUCUAAAAAAAAAAAAAAAAAAAAAAAAAAAAAAAAAAAAACCUGAUCUAAAAAAAAAAAAGUAUCGAAUCAAAAGAUUCAAACAAACUAACCAACAAACAAACAGGUUACAAAAAGUAGCAGGGAGCACAAAGCUUUAAACAUUAAAAAGAUGUGAUUGACAAAAAGUUAAAACCUCCAAAAGGGGGAAUAAUCAAAAAGAUUAAGGUCUAA'
p84
aF1.0
aa(lp85
S'Quasispecies 2-2 Loop Challenge'
p86
aS'AAAAUCACCGCUCAGGAUCAAAGGAUCAGGAGCUGCCAAACAAGGGCUGGCAUCACAAAGGGACAAAAAGUCAAUGAGUGAGGUGUAAAAAAAAAAAAAAAAAAA'
p87
aF1.0
aa(lp88
S'Corner bulge training'
p89
aS'AGAUAUCGAUACAAAGUAUCAAAAGAUAUCA'
p90
aF1.0
aa(lp91
S'Spiral'
p92
aS'AAAAAGAUCAGAUAUCAGACAGAUACAGAUCAGAUCAGCAGCAGCAGCAGCAGCAAAAAGCGCGCGCGCGCGAUCGAUCGUAUCGUCGAUAUCGAUCAAAAA'
p93
aF1.0
aa(lp94
S'InfoRNA bulge test'
p95
aS'AAAAAAAAAAAAAAAAAAAAAAAAAAAAAGAGCUAAAAACAAGGAAGCGGUAAAGAGUAAGAGCAUCUGAAAAACACGAAGCAUCGAACAUCGAAACACGAAAAACUAUGAAAAAUGCAUCA'
p96
aF1.0
aa(lp97
S'Worm 1'
p98
aS'AAAAAAAUUGGGAGUGGUGGUCAAAAACUGACAUAACUAUCACAG'
p99
aF0.9111111111111111
aa(lp100
S'just down to 1 bulge'
p101
aS'GAAAAGAGCAUAUACAAAAGUAUAAGACAAAAGUCAGCAUCAAAAGAUCAUACAAAAGUAAGACAAAAGUCAGAUCAAAAAAAAAAAAAAAAAAAA'
p102
aF1.0
aa(lp103
S'Iron Cross'
p104
aS'ACGCAGAUAAAGGCAGGCAAAGCCACACAAAAGUGAGCCAAAGGCACGCAAAAGCGAUCCAAAGGAAGCCAAAGGGACGCAAAAGCGAUACAAAGUAACCCAAAAUCACGCAAAGCGAGCGAA'
p105
aF1.0
aa(lp106
S'loops and stems'
p107
aS'AAAAGGAUAUACAAAGACCAAAGAUGAAAGAUCAAAAAAAAAGAUACAAAAAAAAAAAAGUAUCAAAGAUCGAAGGAACAAAAAAAAAAGUUCAAACAUCAAAGACUAAAAAAUGUCAAAGGUCAAGCAAAAAAGCAAAGUAUAUCAAAAA'
p108
aF1.0
aa(lp109
S'Water Strider'
p110
aS'AAAAACGAUGUUCAGGGGAACGAAAGUUGAAGCAAUUUCACCGGGAGGGCACGAAAGUGGGCUAAUGUUACGCUGUGCCGUAAAAAAAAAAAAAAAAAAAAAA'
p111
aF0.9611650485436893
aa(lp112
S'The Turtle(s) Move(s)'
p113
aS'AAAGAAAAACCAAAGGAGAUAUAGAAAAAAAAACUAUAUUUCAAAAGAUCAAAAAGAUUACAGACGCAAAAGCGAAGCGGAGAAAAAAACUCCGAAAAGUCAAUGAAAAAGAUCAGCCGUAAAAGCGAAAAGAUAUCAAAAAAAGAUAUCAAAACGGAAAACCGAAAAGUAAUAUAAAAGCCGAAAAAAGGCAUGACUAAAAAAUGUCAAAUCAGCAAAAAAGCAGGGAAUAUGAAAAACAUAAAAUAUUGAAAAAAAAAUGAAAAUGACAGACCAAAGGGGAAAGGGAUGUUAAAAAAAAGGUAUCAAAAAAGAU'
p114
aF0.9873417721518988
aa(lp115
S'Adenine'
p116
aS'ACAACGGAUAUCAGAUAUCAGAUAUCAGAAAUAAGAUAUCAAAAGAUAUCAAAAAAGAUAUCAGAUAUCAGAUACAAAGAUAUACAAAGUAUAUCGUAUCAUAUUUCAGUUUGGUAUGUCAAAGACAUACAAACAAACAGAUAUCAAAGGAUAUCAAAAGAUAUCAAAAGUUGU'
p117
aF1.0
aa(lp118
S'Tripod5'
p119
aS'AACGAGGUUCAAAAGGAACGGGCUAAAUGCCCCUCGGA'
p120
aF1.0
aa(lp121
S'Shortie 6'
p122
aS'GAGAAAUCAGCAAAAGCAGCAAAAGCGGCGAAAGC'
p123
aF1.0
aa(lp124
S'Runner'
p125
aS'AAAAGUAUGAGCUUAAAAGGGACAAAGUCCAAAGCAAGUCAAAGCGUAUAAGAUGGGACGCGAUCCCAAAGGGAAAGUUAUGGAAAGACUAUACCGAAAGGUUGUCACAUAAAAAA'
p126
aF0.9482758620689655
aa(lp127
S'Recoil'
p128
aS'AAAAAGAUACAAGCAAGCAAGACAAGACAAGCAAGCAAAGCAGCAGUCAGUCAGCAGCAGUAUCAAAAAAAAAAAAAAAAAAAAA'
p129
aF1.0
aa(lp130
S'[CloudBeta] An Arm and a Leg 1.0'
p131
aS'AAAAAGAAGGAGACAAAAGUACUCGAGAGCGAAAGCCUCAUUCGAAAAAAAAAAAAAAAAAAA'
p132
aF1.0
aa(lp133
S'[CloudBeta] 5 Adjacent Stack Multi-Branch Loop'
p134
aS'ACAACGGAUGAAAAUCCCAUGCUAAUGCGUGACUACAAAGGUAGUGCGAGAAAUCGUGUUGUA'
p135
aF1.0
aa(lp136
S'Triple Y'
p137
aS'AAAAACAGUUGUGGAGAAAAGGUUCUCACUAAUGAGGCUCAGAUCCAGGAAAACUUGUUGGAAAGCCAAGAUCGUAGGAAAAAAAAAAAAAAAAAAA'
p138
aF0.9072164948453608
aa(lp139
S'Misfolded Aptamer'
p140
aS'ACAUGAAAAACGGGUAAAGGCGGAAAAAAGAGGGGUGGACGGAAAAAUGU'
p141
aF0.92
aa(lp142
S'Flower power'
p143
aS'AAAAUUUUUCGGCUAUAUCUAUGUAGUUCUAUGGAUAGGUCCAAAGCGCAAAUUUAAAAAGUUAAGGGAGAAAGUCCCAGAAUAAAAAGAUAAAAAAAAAAA'
p144
aF0.9019607843137255
aa(lp145
S'Kudzu'
p146
aS'AAAAAUAAGAAGGGUUCUCAGGUAAGCAAACUGCACCUGGUGCGCGAAGCAGUAAAAGGUGAAAUCGAAGGAACAAUAUUGGAAAAAAAAAAAAAAAAAAA'
p147
aF0.9207920792079208
aa(lp148
S'"1,2,3and4bulges"'
p149
aS'AAAAAGCACUAUCGCUAAUACUAAAGAUGGUGAAAACACUGACUCAAAAGAGGGCUCGAAAGAAACCGCUGUAAACGCAUCAAACGAAAAAAAAAAAAAAAAAAA'
p150
aF0.8476190476190476
aa(lp151
S'medallion'
p152
aS'ACAUUCGCGUGGGAAAGGAAUUGACAGAAAACUGAUGCAAAGCGGACUAUACUAAUGUAUGGACUCUAAUGCGACAGGACAAAAGUUCUGACGGGAAACCGGCCUAAAAAGGACAACACAAAAGUGUUGUUGCAAAAGAGUCAAUACAAAAGUAUUGGCGAAAAACCGGAUAGAAAGCUACAUUACAAAAGUAGUGUUGGGAAACCGAUAAUACAAAAGUAUUAGCGUAAAAACCACACAAAAGUGAGAUCACGAAAGUGAUUAUUGUAAUUAGACAAGUUAAAGAGCUUGAAAUAAAGGUUACGCAAAAGCGAGAAUCCAAAAGGAUUUAGAGUGU'
p153
aF0.8961424332344213
aa(lp154
S'[RNA] Repetitious Sequences 8/10'
p155
aS'AGCAAAAAAGCAAAAAAGCAAAAAACCUAAAAAUCAAAAAAGAAAAAAAGCAAAAAAGCAAAAAUGGAAAAAAGCAAAAA'
p156
aF1.0
aa(lp157
S'Documenting repetitious behavior'
p158
aS'AAAACAGGGAAAAAAACGUUGAAAAAAAAGGAAAAAAAAUGUAAAAAAAAUGCAAAAAAAAAAAGAAAAAAACGGGAAAAAAAGGGUAAAAAAAGGAAAAAAAAAUGUGAAAAAAAGGGGAAAAAAAAGUAAAAAAAAAGGGAAAGAAAAGGAAAAAAAAAGGGAAAUAAAAGUGAAAAAAAGGUUAAAAAAAAUCAAAAAAAAAGAGAAAAAAAUGCGAAAAAAAAAUUAAAAAAAAAUAAAAAAAAAAUAAAAAAAAACCAAAAAAAAAGCAAAAAAAAAUCAAAAAAAAAACUAAAAAAAGUCAAAAAAAAUUCAAAAAAAAACCAAAAAAAAAAUAAAAAAAAAUGUAAAAAAAACUUAAAAAAAAUUGAAAAAAAAAGAAAAAAAAAUCAAAAAA'
p159
aF0.91
aa(lp160
S'7 multiloop'
p161
aS'ACAUCAGAGGAAACUUUGUAUUGGGAAUAAUGAAUACAAAAGUGUGACUCCAAAAGGGGUAUGUGGAAAUAGCAGAGCCGAAAUGUUCACGU'
p162
aF0.8913043478260869
aa(lp163
S'Kyurem 7'
p164
aS'AAAAACAGACAAUAAGUAAGUAACCUAAAGAUGACGAGAAAAUCGGUGGGGAAAAAAAUCUAAAAUAUAUCACCAUCACCUGGAAAAAAAAAAAAAAAAAAA'
p165
aF0.9411764705882353
aa(lp166
S'JF1'
p167
aS'UAUAGAUUUAUGCAGAUAAGAUAUAAAAGAUAUCAAGAUACGAGGAAUCAAGAUAUCAAUAUGUAUAUAUGUAAAAACAUAUAUACAUAUAUUCCAAAAGGACACAAUAUAUAAAAAUAUAUUGUCAUAUACAAAAGUGUAAGAUAUCAGAUUCAGUAUCAGGUAUCAAGGAGAUAUCAAAAAGAUAAUCUCAAGUUUGUUUGUUUGUUUGUUUGUUUAAAAAAACAAACAAACAAUACAAACAAACAAAGAUACGAAAAAGUAUCGUAUAUAUGUAAAAACAUAUAUACAAAUAUGAAAACAUAAAAUAUCAAGUCUGAGAUCAGACAGACAAAAGUCGUCGAUCAGAUAGAUAUAAAAAUAUCAUAUCAAUAGUAUCAUAUAAAA'
p168
aF1.0
aa(lp169
S'multilooping fun'
p170
aS'UUGGUAUGGAAUGUAUGAAAAGAACUAAAAAAUGAG'
p171
aF0.8333333333333334
aa(lp172
S'Multiloop...'
p173
aS'CGACAGGACAGCAGAAAUGCAUCAGAAAUGGGGUUGAAAAACAUGGAAAACCAGGACGAAGGUCAGCUAAAGGGCGGUUCACGUACUAAAAUGUAUGCGCGAAAGUGGUUG'
p174
aF1.0
aa(lp175
S'hard Y'
p176
aS'AAAAGGACCCCUCAUGUUGCAAAGGUAGUAUUUGGCGCAGGGCGAUAAUUCGUCCUGCGGGUUAAAAA'
p177
aF0.9705882352941176
aa(lp178
S'Mat - Elements & Sections'
p179
aS'AAAAAGAGAUGUAGUCCUGUUCUGAGUACUCUAGGAAUAGGGUAACCUCGAGAUAAUGAGGCUUUAAUGAACGGGAAAUCCUCUUGAAAAAAAAAAAAAAAAAAA'
p180
aF0.9619047619047619
aa(lp181
S'Chicken feet'
p182
aS'AAAAACGAACGGUAAGGCGACUAUGUAAAGACGGAGGUAGUUAAAGUACGAAAUGAAUUACAAAAAA'
p183
aF0.8805970149253731
aa(lp184
S'Bug 18'
p185
aS'GGGAACAGCAACAGAAAAUAAAUAAAACACUGCGCGGGAAACGAAAGAAAUGU'
p186
aF0.8867924528301887
aa(lp187
S'Fractal star x5'
p188
aS'AAAAUCAAUGUCUAAACCCCAAACUCUAGAUUGAAAAGGAAUAAACCUAAUAGGAAAUAUAUAAUUAUAAAGGACAUUGUAAAACAAUAUAUAAUCGCGAAAGUGAAGUUCAAAAAGGAAAAACACCAAAGUGUAAUUUGAAAAUGGAAGAUAUAUUGAAAAUGCAUAUAUAAUUGGCAAAGUAGGAUCGAAAAAUUGAAGUCAGAAAACUGUAAUAUAAAAAUAUAAAAUAUAUGCUAAAAGAGUAUAUAAACUCAAAAGGGUAGUAUGAAAACAUAAAACACUAAUGUGUAAUAGAUAAUUCUAGAAUAUACUCAAAAACUUUAUAUAAACUCAAAAGGGUAACAGCUAAUGCUGAAACGCAAAAGUGUAAUCUCAAAAGAGAAAAUAUAGGGAAAAA'
p189
aF0.94
aa(lp190
S'Crop circle 2'
p191
aS'CCAAGAUUAAAUAAAAAGUUAAAAAAAAGGCAAAAAAAAAAAAAAAAAAAAAAAAAAAAAAGCAAAAAAAAAAAAAAGGAAAAAAAAAGUAGAAAAAUGCAAAGGGCAAA'
p192
aF0.9636363636363636
aa(lp193
S'Branching Loop'
p194
aS'AGUUCGGAGAAAAAGGAUUAAAGAGUUAGGUGGGAAAAAA'
p195
aF0.95
aa(lp196
S'Bug 38'
p197
aS'UGGUAUUGAAAUUAGAAACAAGGACUGGUUAAAUGU'
p198
aF0.9444444444444444
aa(lp199
S'Simple Single Bond'
p200
aS'AAAAAAGAAAAAAAAUGGUUAAAAGAACUUAAAAAAAGCGAAAAAAAAAAAAAAAAAAAAA'
p201
aF1.0
aa(lp202
S'Taraxacum officinale'
p203
aS'ACCCGAAAGAGGAAUAUCAAAAGAAUAUUCGGAAAACAUGGAGGUUAAAAGAAUCGGCACAAAGGCAGCGGAAUACAAGAAUUGGGUGGUGAGUUUGUAUAUCGCUAAAAGUGAAUGUACAAGAUAUAAAUAUAUUUAUAUGAUAUGCAAAGUAUAUCUAUAAAUAUAUGAUCAGAUAUCGAAGAUAUCGAUCAUAUCGAUAACUUACCACCAGAAUUAGAAAAUAAUGUCAAAGGAGUAUAAUCAAAAGAGACUUAAUAAAAGAUUAAGGGUAAAAGUACC'
p204
aF0.8404255319148937
aa(lp205
S'Headless Bug on Windshield'
p206
aS'AGCUUCUAAAAGAAUCAAAGAAUACAAAAAAAAAAAAAAAAAAAAAAAAAGUAGUCAAAGGUUACAAAGACGCAAAUAAGACCAGUAAAAAAACUGAAAAGAAAAAAAAUGUCAAAAAAAUUGGAUACUAAAAAAGCCAAGGAAGACAAGCAGACAAAAAAAAAAAAAAAGUCGAGCAGGUCAACCAGGCAUGGAAAUCG'
p207
aF0.96
aa(lp208
S'Pokeball'
p209
aS'AAAGACAUUUAAAAGCGAGGAGGACAAGAAAAGAAUAGGGAAUGAGAGCUAUGCAUCUGUCAUCGUCGAUCAGUUACCAGCGGUUGAGAAAAAAAACUUAAGGAAAAGCAAGUGAGACCUGAGAGGAAGAAAGAAACCGGCGGAAUCAGGGAUCAUCGCCAAUCCGUCAAUAGCCCUUAACGAA'
p210
aF0.9782608695652174
aa(lp211
S'Variation of a crop circle'
p212
aS'AAAAGGAAAACCUGAACUGAAAUCAAUAGAGUGAAGCAAUCAAAGGAAAAAAAACAAAAAAUACAAAAAAAAAGUAAAAAAAAAAAAA'
p213
aF0.9545454545454546
aa(lp214
S'Loop next to a Multiloop'
p215
aS'AACAUAUAUUUAAAAAACGGAUAUCAAAAGAUAUCAGAUAUAUAAAGGUAUAUCGGGAAAAAUAAUAUAUGGA'
p216
aF1.0
aa(lp217
S'Snowflake 4'
p218
aS'CGUCGAAAACCCGAUUGCAAAGUUCUGGUAGUAUCCGCAAAAGCAAUUUGUUCGAAGAACAAUGUCAAAGAUAGGAUUGCAAAGGCGGAUAAGUAUACCGAAAAUGUAUUAUACCAAAGGUAAAGCACAAGCUGUUAGUACAAAAAUGGUAUGAAGAUAUUCAAAAGGCAAUCGGUCAACGAUCAAUCCCAAAGGGGGAUUGCUUAAUGCAUAUCGAUAGACUUAAAGAGCAAUCUAUCAAAGAUAAAAGACAAAGUCUGAUUGCUAAAAAGGUUUAAGUAUAUGAAAAAUCCAAUAUAUCAAAAAGGAAUACCGAAGGUAUAUUGGCUAAUACAUAUGAGGCCGGAUAAAAGCAAUUGGUUAGAAGAUU'
p219
aF0.9027027027027027
aa(lp220
S'Mat - Cuboid'
p221
aS'GAAUCAAAAGUAAGCAAAAGCAAGAAAAAGAAGUAAGCAAAAGUAAUUAAGCAAAAGAAGUAAGUAAGUAAAAGUAAGUAUGCAAGUAAAAGUAAGUAAGUAAGCAAGCAAAACCAAGAAAGAAAGCAAGCAAAAGGAAGCAAGCAAGCAAGCAAGCAAAAGCAACCAUGGAAACAAGCAAGCAAAAGCAAGCAAGCAACGAAUCAAGUAAAAAAACAAGGAACGAAGCGAGCAACCGCAAGAAAGCAAGCUAGCAAGUGCAAGCAAGCAAGCAAGCAAUCGCAAGCAAGCAAUCAAGCGCAAGCAAGCAAGCAAGCGCAAGUUAGCAAGCGCAAGCAAGUAACGCGAAGAAGCGCAAGCAACGCAAGCGCGAUCGGAAC'
p222
aF0.8210526315789474
aa(lp223
S'Misfolded Aptamer 6'
p224
aS'AAAAAAGAUGAAAAGGCUCAUCGGGUGAUAAAAAAAAAUCUAAAGUAAAGGAGCAAAAAAAAUCAAAAAAAAAAA'
p225
aF1.0
aa(lp226
S'Snowflake 3'
p227
aS'ACGCCAAAAGUGGCCGAUAAAAAUCAACAACUGAUAAAGAAAAAAGUCGCUAACAAAAGUAGCAAAGCUCAAAAGUGAAUCGACGAAAGUCAAUAUUGGCUCAAAACAAAAGUUUAGUACAAAACAAGCAAAGCUACAAAGGUUUUAGACAAAGGCCAAUCUCUGAGUAAGACAAAAGUCGACUGCAAAAGGUGCAAAGCAACAAAAGUUGUCGACGAAAGUAAGGCUCAGACCAAAACAAAAGUUGACAUCAAAAGAAGCAAAGCUAUAAAAGAAGUCCAGGAAUCUGAAGAUAAGAUCAAAUCGAAAGGUUACAGCAAAAGUACCAAAGGUACAAAAGAAGUGGCCGAAAGUCAAGAUCUGGAGAAGACUAAUGUCGGUAUCAAAAGGCGU'
p228
aF0.821882951653944
aa(lp229
S'Hard Y and a bit more'
p230
aS'AAAAAGAUACGGCAAGUGAAAAUAAUAACCGCUAAGUUUAGACUAAAAAGUCAAGAUUCAAAAAAGGAUCGUAAAUUAGCGUAUCAAAAAAAAAAAAAAAAAAAAA'
p231
aF0.9716981132075472
aa(lp232
S'Mat - Lot 2-2 B'
p233
aS'AGUGGCAGGAGCGUGUAAAAUCAAGAUGAAAAUAAAAAUCAAGAGCUAGCAAAAUUAAGGGUAGGAAAGCUAUGGCGAGCAAAAGCAGGAGCGAGCAAAAGUAAAGGCUCAAGAAAAAUCAACCACAAGACCAGGAAAGUAAAAACAGAGAAGGGUUCAAAAUCAGGUUAAAAAUGAAAAACAAGAUCCACCAAAAUUAACUUUAGGGAACGAUGAGCGGAUAAAAGCGAGAGCAAAGAAAAGUAAAGGCCCAAGUAAAAUCGAGAGCAAGCUCAGGUAACAAC'
p234
aF0.8098591549295775
aa(lp235
S'Shapes and Energy'
p236
aS'AAAAAUGAGGUCAUCCUGUAAAUGGGUUUUAGAAAUUGAGCAAUUAGGAGAAGAAAAAACUUCUAAGGAGGCUGGACUGUUAAAAAAAAAAAAAAAAAAAA'
p237
aF0.9603960396039604
aa(lp238
S"Spiral of 5's"
p239
aS'UAAAAGAUACAAAGAUACAAAGAUACAAAAGAUACAAAGAGACAAAGAUACAAGGUACAAAAGAUACAAAGAUACAAAGAUACAAGAUACAAAGAUAUGAAGAUACUAGAUGCAAAGAUGCAAGAUAUAAGAUACAAGAUACAAGAUACGGAUAGAGUAUGGGUCUAAAAAAGAUCGGGAGCAUACAAAAACUGUCCAAAAGUAUCAAAAAGUAUCAAAAAGUAUCAAAAAAUAUCAAAAAGUAUCAAAAAGCAUCAAAAUGUAUCAAAAAAUAUCAAAAAGUAUCGAAAGGUAUCAAAAAGUAUCAAAAAGUAUCAAAAAGUACCAAAAAGUAUCAAAAAGUUUCAAAAAGUAUCAAAAAGUAUCAAAAAGUAUCAAAAAGUAUCAAAAAAAAAAA'
p240
aF0.9949622166246851
aa(lp241
S'Campfire'
p242
aS'AAAAGGUCGACCGACAACAUUAAUGACGAAAAGUCGCCCAUCGAAGAUAGGGAAUGAACAAAUCCAGUAUUUCCGAAAGGAAGCGCUGUGUACAAUAAGACCGAAAGGCUAUAUGUAGGCGAAAGUACGCAUAAAGUAACUUUUAAUCGUUGGCGCAGACUGACAUAUCUAAUGAUAGUCUCCGCGUCCUGGAAAAUAGGUCGUUGCGGACC'
p243
aF0.9198113207547169
aa(lp244
S'Anemone'
p245
aS'AACGCUGUGUAAUCACAGCAGUUCGAAAGGGCAGCGGCCGAAAGGCGCUGCUAAGAAAUUAGCAUUGGCUAAUCGCCGAGCUCUAACAAGAGCGUUACUAAUGUAAUGUGCUGUAAACAGCGCACUGUUGAAAGGCAGGAUAUCGAAAGAUAUUAAUCUUAAUGGAUUGCGGUGGAAAUAUCGCGGGAUGAAAGUUCCCAUGCCGAAAGGCAUG'
p246
aF0.9532710280373832
aa(lp247
S'Fractal 3'
p248
aS'AAAAAGUGCGUAAAUGGAAACGUGGAAACGAUUAAGACAUUAAAUGAGGCAAAGCAAUUAGGCAUCAAAAGAUCAAAAGGAGAAGGCAAUCAAAAGAGUAAAAGCGCGCAUAGCAAAAA'
p249
aF0.9495798319327731
aa(lp250
S'Kyurem 5'
p251
aS'AAAAACAUACAUUUUAGCUGUACUUAAAAGAAGGAUGAAAAAGAAAAGCUUAAUCCAUAAAAAGAUUAGAGCAACACCAAUCAGGAAAAAAAAAAAAAAAAAAA'
p252
aF0.9134615384615384
aa(lp253
S'Snowflake Necklace ( or v2.0 )'
p254
aS'AUAUGUUGAUAUCUAGGGUAUACCAAAAAGUGUCUAAAUAAAUCUAAAUGAAUGAAAAAGAAUCAAAAAGAGCUAUCAUACAAAAAGUAAGAUGUACCAAAAAGGGUCAAAAAGAGUCAAAAAGAAUCAAAAAGAAACAAAAAGAAACAUCUGACAAAAAGUCUGUGAAAACAAAAACUAUCAAAAAGAAUAAAAAAUAGUCAAAAGGCAUGAAAAACAAGGUGCAAACAAAAAGUUGGAAUUAUUAAAAAGAAUCGAAAAGAAUAAAAAAUAGUUAAAAAAGAAUAAAAAAAAAGUUCUUACAAAAAGUGUGAUAAGCCAAAAAGGAUCAAAAAGAAUCAAAAGGAAUGAAAAACAGACAAAAAGUAUUAUCAUAGAUAUCAACGUAU'
p255
aF0.781491002570694
aa(lp256
S'Methaqualone C16H14N2O Structural Representation'
p257
aS'AAAAAAGGUUCGGAUGUUCCAUACAAAGGUAAAACACGCAAAAGCGAUACGCACAAAAGUGUGGCAAGCAAAAGCUAUUCAAAAAAAGGAGGUCUGUAAGGCAGGAGAAAGUUGAUCAGUACAAAGAGCGCAAAGCAAAGUAAAAAAAAGCGGAAUAGACAAAAAUAAACAAAAGUUUACAAAGGUCAUUAUCAAAGAGGACAAACAGUAUAGAGCGCAGGCAAGCAAAGCGCAAAAGUGGGCAUUACAAAAGUAACCGAGACAAAAGUCGGCGGGACAAAAGUCAUACGGAGAUCAAAAGUAUACAAAAGUAAGAGAAAAGCUCUCCGCUGGUUCGAAGUACAUAGCAAAAAAA'
p258
aF0.9070422535211268
aa(lp259
S"Cat's Toy 2"
p260
aS'AAAAGACUGAUCCAAGGAUAUAAAAAAAAAAAAAAAAAACGGUACAAAGCGAAAGCGACGAGAAAUUAAAAAAAAGUUAAAAUUUGAUUGGUCAAAA'
p261
aF0.9587628865979382
aa(lp262
S'Zigzag Semicircle'
p263
aS'AAAGAUGCCGGGACAAAAGAUUCUCGGCAUAAAA'
p264
aF0.9411764705882353
aa(lp265
S'Short String 4'
p266
aS'AAAAAAGAUCCAACUAACAAGGAGUAGAAAAGUCACGGCAACGGGCGAGGAAAAUCGAGCGAAAAAGGAGAAGGUUAAAAAAAAAAAAAAAAAAAAA'
p267
aF0.9381443298969072
aa(lp268
S'Gladius'
p269
aS'GGAAACAAUUGAAAAAUUAAGGGAAGAACUCCGGGCAAAGAUAAAAAUAUCAGUUAGAACUCAAAAGAAGUCGAAAUUUAUCCGGUUUGUAGAGUUGGGAUAUGGAAAUCAGAUCAAGAACAAAGUUCAGAUAAGGUUCACAUGCUCCGACGAUACAAACUAACUAAAAAUAGACUGUCAUUGUAGGCUGACAGCCAAAGAUGUAAGCACAGGACAACACAUCGGAAGAUCACGGGAUGUACAUUAUGUCCGCUACGAUUUCAGAUAGAUAUGAAAACAUAUCAAAUCAAAAAUAUUAGCUUACAUAUAGUACAUUAGAGGAUCACAAGAUGAAGAGUCAGAAGCUUAAGAUGAAAACGUCAAAAUUAUGGUAUCAAUUAAACUAAUAGGUGGACAAAAG'
p270
aF0.8975
aa(lp271
S'Thunderbolt'
p272
aS'GAAAGUUACAAAAAAAAUCGUAAUUGCAGGGGGGAAACAGAUUAACGAAAAGGAAAUGAAAAAAGAUGAAAAAUAUCAAAAAACAAAACCAAGCAAAAAAAGAGUAAAAAGAAACAAUUAGACAAAAGGAAAUCAUAGUAAAAAGACAAAAAGAGGCACAAAGAGCAGCAAAAGGUCGGAUCGAGGUGAAAAAGAUCAGCAAAGUGGUGCAAAAAAUCAAAGAUCAAAAAAAAGCUAAGUCGUGGAUCAAAGAUCUAAUUAAGAGAAAAAAAAAAGCAAGGAAAAAAAAAUAAGCAAAAGGAUUACAAAAAGAAAAAAAACAAAAAGUAGUGAAAUAGAAAUGCUGAUCAAAAAAAGGGAGAACCCAAAAAAGAAAAAAACAGUGGCAAUCA'
p273
aF0.9387755102040817
aa(lp274
S'Mutated chicken feet'
p275
aS'GAAAAAAUGAACAUCAAAGAAUCAAAGGGAAGUGGAGCAACAAUAAAAUGGCCAAGAGAAGCGCAACAGCUUUAAGGACGCAAAGUAAUGCGAAAAAAAA'
p276
aF0.84
aa(lp277
S'Chicken Tracks'
p278
aS'AAAAAAAUACUAUAGAAACUAAUGUUAAUCAUCGAAAGAUGUAAAUAAAAAUAUUCUAUAGUUUGAGUUGUGAAGCAACUCAUCAAAGAUGUCUAUGGAACAUACUCUAAAAAAAA'
p279
aF0.9827586206896551
aa(lp280
S'Looking Back Again'
p281
aS'GAGAAGAUGAUCAAAAAGAUAGUAAAAUUAUAAGAUUUAGACCGCAAGACAAAGUCGCGAGAUACAAAGUUCAAAGGAACGAAACUAUUAAGUCAUGGCAACUAGGGCGAAAAUGGAGAAAACUUUAAAAAAAGCCGAUACGAUAAAAGGUAUCGCUACAAAGUAUCGUCAUCUCAUGUAUAAGAAUAAGAAACUCUAAUGAGUGACAAAACAAUCUGAGUCAAAAGGCAAGAUGGCAAAGUAGCGUGGGUAUAGAACACAAAAAAGAUUUAUAAAAAAAACAUAAAAACUAUCAUAAAAAAUCAGUGCGUACAAAAAAGCUAAUACAAAAGUAUUGAUUACUCAAGGAGUAUGCAAAGUAUAAAGUGGGAAAAGUACCUAACAAACUC'
p282
aF0.8200514138817481
aa(lp283
S'Multilooping 6'
p284
aS'AGAUUACUGUUAUCUAAAGAAAUGUAUACUAAUGCAUAGUAGGACGUAGGAAAUUACGGGUUAGAAAUAACCCACGUAAUAA'
p285
aF0.9146341463414634
aa(lp286
S'Cesspool'
p287
aS'GAACUCGAAAACGAUGCAAUAAAUCGAAAAGGAAUAAAAACCAAAAAAAAAAAUAAGAGAAUAAAAAAACACAGUGAAAACUCCAACAAGAAGAAGAAAACAAGGAUAUAAACUUAAAGACAAUUGAAAGUUAAGAAAAAAAUGAUAAAAUAAAAAAACACAAGGAAAACACGAAUAAGAAAGAAGAAAACAAUAUUAUAAAAGUAAAUCUAGCAAAAUAUAAAGAAAUAAUUAGCAGAAUAAAAAAACACAUAGAAAACGCCAAGCAAAUAUGAAGUAAUCAAGACGAAAAGUAUGAAGUGAAUAAUAAGUCAAAAAAAAAAUAAGGGAAUAAAAAAGGAAAAUUAAAAGUCCUAAC'
p288
aF0.7318435754189944
aa(lp289
S'Hoglafractal'
p290
aS'AGUAGCGAGAUACAAAACAUUCUAAAAUGGGUGGUAUCGCGAAAAGCUCUAAAUGAGCCUGCGGGAAGCAUAAUCGCUUCAUACAAAGCACAAAGCCCAAAAAAGGUAGAGCGUUAAGACAAAAAGUCGGCGCAUCGAACGAGCAGCCCAAAAUACAAGACAAAAAAGUCGUAGAAGCAAAAAGCUUAUCAAAAGUAGGAUAUUAAAUGCACUAAAAAAGGGCGACAAAAGGUCACGAAAGAAGUUCCCAAAAAAGGCAAAAGAGUCGCUCAAUGAAAUAUAAUACUAUGUAUUGUUAAAAAGGGGAACAAAAAUAUAUCAAAAGGCGUAAAAGUGAAAGCAGUAAAGGUGACGUGAAAAGCGAAAGCACAAAAGUCGCAUCGAAGAUGCGCCAUGCGAC'
p291
aF0.895
aa(lp292
S'Bullseye'
p293
aS'AAAAGCGGUUAAAAAUCGAGAUCAAAGGUUAACGUCAAGGACCGCUGAAAAAAUAUCUCUUAAAGGGGAAGUUAUAUGAACAAGGUCAAGGACCCGUUAAAAAAAGGUAAUUGAACAUUAAGAGCUAUGUUAGAGAGAAAGGUUUGCUAGAAAAAACGUGGCGAAGGGAUAUGGUUUAUAACCUAAACCGAAGGUCGAGAAA'
p294
aF0.8514851485148515
aa(lp295
S'Shooting Star'
p296
aS'AGGCUCGAGGGAUAGACAAAGAGGGGGGUACAGACAGCGAAAGACGUACGUAAUACAACCGAGUUUAUCAGUUACCAGAGUUUCGUACGACUAUAGGCAGAUCAGCUAAUGAGGAUACGCCAAUAGAGGUCAGAGAAUCAAGUUAAUUAGUGUCGAUCCAGGCUCUGACUGAUGUCCAAAGGAUAAAAAAAAUAUAGAUCAUCGCAGACCCAGAAAAAGAUACGCUAUGUGUAUCGGAUAUAUGGUAAUUUUUUCGUGACAAGGCCUAGAAACAACAAAGUUGUGAGCCAUAAACAAAAGAAGAUGGAACGUACACUGUGCCUCAAAAGUGGAAACGUGAGAAAGGCAAUGUGGCUAGGGUCUA'
p297
aF0.7994505494505495
aa(lp298
S'Teslagon'
p299
aS'AAAAAUGGGAAAAAAGGAGUAAAAAAGGCUGCGAAAAAAAAAAAAAAGCAAACAGGGAGUAAAAAAAAAAAAAAAGCUGAAAAAAAAACAGUGAAAAAGCCAAAAAAAAAAAAAAAGGAAAAAAACCAGUAAAAAAGGCAUCAAAAAAAAAAAAAAAGGGAACAGGGAGUAAAAAAAAAAAAAAAACAGCAAAAAAAAAUGUGAAAAAAUCAAAAAAAAAAAAAAAGGAAAAAAAACUGUAAAAAAAGGAGGAAAAAAAAAAAAAAACCGAACAGAGAGUAAAAAAAAAAAAAAAACGUAAAAAAAAACAGUAAAAAAAGAAAAAAAAAAAAGCCAAAAAAAAAAAAAAACCAUUAAAAAAAACGCUAAAAAAACCUAAAAA'
p300
aF0.8926701570680629
aa.