(lp0
(lp1
S'Simple Hairpin'
p2
aS'GAUACAAAAAAGUAUC'
p3
aF1.0
aa(lp4
S'Arabidopsis Thaliana 6 RNA - Difficulty Level 0'
p5
aS'GAUAUACAAAUGACAAAAAAAAAAAGUCGAUAUAUCGAGAUAUAUAUAUAGAUAUACAAAGAUACAAAAAAGUAUCAGUAUAUACUAUAUAUAUAUCAAGAUAUAUCAAGUAUAUC'
p6
aF1.0
aa(lp7
S'Prion Pseudoknot - Difficulty Level 0'
p8
aS'GACAUCAGAUCAAAAGAUCGAUAGUCAAAAAAAAAA'
p9
aF1.0
aa(lp10
S'Human Integrated Adenovirus - Difficulty Level 0'
p11
aS'GAUGGUUAUGGCACGGGAAUCGAAAAAAAAAUCUGCUAGAGAGUGAGGCCUGCUAUUAAAAGGCAUGGAGAUAGUAAAAAAUCUAUCUCUAUAAAAGCCAAUAGAAACCAGUACAUACCUCUGGGACUAUUCGAAAAAAGAAUAUGCAGUAAAAAAAAAAAGAUUCCAGUGUAAAACAUGACAAGUAUCAAA'
p12
aF0.9791666666666666
aa(lp13
S'The Gammaretrovirus Signal - Difficulty Level 0'
p14
aS'AAGUGGAGAUAUCAAAAGAUAUCAACUCAAAAAUGAGCAAGACAGAUCGGUAGAAAACUAUUGAAAGAUCGUCGCUCUAGAUAUAUCAAAAGGUAUAUCAA'
p15
aF1.0
aa(lp16
S'Saccharomyces Cerevisiae - Difficulty Level 0'
p17
aS'GAUUGACGAACGAAAAAAAGUUCACUAAAAAAAAAAAAAAGGGGAAUGUUACAAAAAAAGUAAUGUCAAUCAAAUCGUAUGGAAGGUCAAAAAAAGGACCGGCUAAAAAAAAAAAUGCCAAACCUUACUAAAAAUGUAAGCCAUAUGUAAAUAUGUACAAGUUCAAAAAAAGGAGCGAGUUCAAAAAAAGAGCUUAACUCAACUGAAAAAAAGUUGGUACAUGGAAACAUCUGCAAUACGAAAAAAAGCGUAGGCCUUGAAAAAAAAGGUCGAAUGACUCUAAAAAUGAGUCGCAGGUGGAAUAAAUUGCAAGUUCAAAAAAAAGAGCGAUAUCAAAAAAGGAUAUCAAAUGGUAAAAAAAAGUUACCGCAAUUUUAAA'
p18
aF0.9894459102902374
aa(lp19
S'Fractal 2'
p20
aS'AAAAACAUUUAUCUAAGUCUCAUAGCAAGAUUAAAAAAAAAGAAUCAAGAUCAAAAAAAAAAGAUCGAUAUCUAAAAAAAAUGAUGAAGUUAUGGGGCAAAGAUAGAAAUCAGCAGUAAAAAAAAAAGCUGAAGGUCAAAAAAAAAAGACCAGGAUCAAAAAAAAAAGAUCAAGAUUUCUAUCAAAGAUUUAUAUCGAGAUCAAAAAAAAAAGAUCGAGAUCAAAAAAAAAAGAUCAGCGUCAAAAAAAAAAGAUGAAGAUAUAAGUCAAUGAUAAAUGAAAAA'
p21
aF1.0
aa(lp22
S'G-C Placement'
p23
aS'CGGCGAAGCCGG'
p24
aF1.0
aa(lp25
S'The Sun'
p26
aS'GACAGCUAGACUAAGUUUGAGGCGUUAAAGUCGGCAAACCGAAGGUUAAUGCGACGAAGACAGAUAUACAAAGUAUAAGUUGUCAAAGGUAUACACAGGAAUUGUAAUUAGCCAAACAGAGAUAUACAAAGUAUAAGUCCUAAAGGACAGGCAUGCGAUGCAUAAGCCGUCAAUGAUAGUCCUAAAAGUUAUAAAGCGUCUAUCACACACCGACCACGUUUAAGUCGUCUAACACAGGCAUACAAGGUAUAAGCCGUG'
p27
aF0.8333333333333334
aa(lp28
S'Frog Foot'
p29
aS'AAAAAAAAAAGGUAUAAUUACUGACCAAAUGGUUACCCCACGGGU'
p30
aF1.0
aa(lp31
S'InfoRNA test 16'
p32
aS'GAUAUCGGACAUAUCAAAAGAUAUAGUACGGAUAUC'
p33
aF1.0
aa(lp34
S'Mat - Martian 2'
p35
aS'GAGCAAAAGUUCAAUGAUAGACAAGGUAUACAAAAAAAGUAUAUCGUUUAUCUAUGAAUAUGCAAAAAAAAAUUACAGCUAUAGAAAAAAACUAUAGCGUAGUUUAAGGAUAUAGAUAUAUCUAAAAAUGAUAUAUACUAUAUCAAAAAGGCAUAUUCUAAGAAUUUAGAUAUACAAAAAAGGUAUAUCCGUGGAUUCGAAGUUGUAAUCAAU'
p36
aF1.0
aa(lp37
S'square'
p38
aS'GAUAUACCAUAUCCAUAUACCAUAUCAAAGAUAUGAAAAGUAUAUGAAAAGAUAUGAAAAGUAUAUC'
p39
aF1.0
aa(lp40
S'Six legd turtle 2'
p41
aS'AAAAAUGUAAGUAAAAACAAAGAUAAUGCAAUUGAAAGCGUAAGCUAAGGCGAGGAAAAAUCAAGGGGAAAUCGAUGGAAAAAAAAAAAAAAAAAAAA'
p42
aF0.9591836734693877
aa(lp43
S'Small and Easy 6'
p44
aS'UCGUGUAAAUAAAACUUAAAAAAAUGUCUA'
p45
aF0.9333333333333333
aa(lp46
S'Fractile'
p47
aS'AAAAAAAAAAAAGUAAAAGCAAAGCAAAAUGAAAAUAAAGUAACUAAAAAGAAUCGAGGCGAAAGCAAAGCAAGGGAAACCGAAAAAAAAAAAAAAAAAAAAAAA'
p48
aF0.9619047619047619
aa(lp49
S'Six legd Turtle'
p50
aS'AAAAAGAAAAAAGAAAAUCAAAUGGAAAAUCUAAAGUAAAAACAAAAUCAAAAGUAAAUGUAAAAGCUAAAACAAAAGGAAAAUCGAAAAAAAAAAAAAAAAAAA'
p51
aF0.9428571428571428
aa(lp52
S'snoRNA SNORD64'
p53
aS'GAUAUCAAAAAGACAAAAGACAAAGAUACAAAAAAAAAAAAAGUAUCAAAAGUCAAGUCAAGAUAUC'
p54
aF1.0
aa(lp55
S'Chalk Outline'
p56
aS'AAAAAGAUCAGACACAAAAGUAGUCAGACAGACAAAAGUCGUCGGAUGCCAAAAGGACAUCAGGAGUAAAAACUACCGAUCAAAAAAAAAAAAAAAAAAAAAAA'
p57
aF1.0
aa(lp58
S'InfoRNA bulge test 9'
p59
aS'GAUAUACAGAGAGAGAUAUACAAAAGUAUAUCCCCGUAUAUC'
p60
aF1.0
aa(lp61
S'Tilted Russian Cross'
p62
aS'AAAAAUAUCCGUUUAAUAAAGCUCCACUAUUAAUGUUGUACGAAAAGUCGUGACAGGUAGCCCUCCGCGUGGGGAAAGUUAGGCAAAAAAAAAAAAAAAAAAAAA'
p63
aF0.9809523809523809
aa(lp64
S'This is ACTUALLY Small And Easy 6'
p65
aS'GAGAAAAAAAAAAAAAAAAAAAAAAAAAAAAAAAAAAAAAAAAAAAAAAAAAAAAAAAAAAAAAAAAAAAAAAAAAAAAAAAAAAAAAAAAAAAAAAAAAAAAAAAAAAAAAAAAAAAAAAAAAAAAAAAAAAAAAAAAAAAAAAAAAAAAAAAAAAAAAAAAAAAAAAAAAAAAAAAAAAAAAAAAAAAAAAAAAAAAAAAAAAAAAAAAAAAAAAAAAAAAAAAAAAAAAAAAAAAAAAAAAAAAAAAAAAAAAAAAAAAAAAAAAAAAAAAAAAAAAAAAAAAAAAAAAAAAAAAAAAAAAAAAAAAAAAAAAAAAAAAAAAAAAAAAAAAAAAAAAAAAAAAAAAAAAAAAAAAAAAAAAAAAAAAAAAAAAAAAAAAAAAAAAAAAAAAAAAAAA'
p66
aF1.0
aa(lp67
S'Shortie 4'
p68
aS'UGGAAACAAGGGAAACC'
p69
aF1.0
aa(lp70
S'Shape Test'
p71
aS'AAAAAGGGAUCAAGAUACAAAAAAAAGUAUCAAGACAGACAGAUACAAAAAGUAUCGGAUCAAAAGAUCAGUCGUCAAGAUCGCAAAAAAAAAAAAAAAAAAAA'
p72
aF1.0
aa(lp73
S'The Minitsry'
p74
aS'AGCAAACAGACAAAAACCUAAAAAGAGAAAAACGCAAAAAAAAGCGGCUCGGGGAGUCGGCU'
p75
aF1.0
aa(lp76
S'stickshift'
p77
aS'AAGAUAUCCCAAAAAGGAGAUAUCAA'
p78
aF1.0
aa(lp79
S'U'
p80
aS'AAAAGGAUACAGAGAGCAGAGAUAUAUACUAAUGUAUAUAUCCGCCCGUAUCAAAAA'
p81
aF1.0
aa(lp82
S'Still Life (Sunflower In A Vase)'
p83
aS'AAAGAUCGAGAAGCGAAAAGCUUCAGUAGGCAAAGCCUAAGGAUACAAAAAGUAUCAAGUUACAAAGUAACGGGGAAUAAAAAGUUCCAGGAACGGAAAACGUUCAGAUAUAGAUAGACAUAGAUAUACGAUACUAAAAUGUAUCAGCUACAAAAAAAAAAAAAAAUCAAAAAAAAAAAAAAAAAAAAAAAAAAAAAAAAAAAAAACCCGAUUAAAAAAAAAAAAAGUAGCGAAUCAAAAGAUUCAGUGUAUUUAUGUUUAUCUAUAUCAGGGUCCGAAAAGGAUUAAGACUAAAAAAUGGUCAAGCGACAAAAAGUUGCAAGCUUCGAAAAGAAGCAAGGUCGAAAACGACCCAGGGUCGAAAAGAUCCAGAUCAAA'
p84
aF1.0
aa(lp85
S'Quasispecies 2-2 Loop Challenge'
p86
aS'AAAAAGGGUGUUCAACCUAAAAGUAGGGGGGGCUGCGGAACUAUGGGCCGCAAGAGGAUAAGCCAAAAAGGCGAAGACUCUGCCUAAAAAAAAAAAAAAAAAAAA'
p87
aF1.0
aa(lp88
S'Corner bulge training'
p89
aS'AGAUAUCGAUACAAAGUAUCAAAAGAUAUCA'
p90
aF1.0
aa(lp91
S'Spiral'
p92
aS'AAAAAGAUCAGAUAUCAGACAGAUACAGAUCAGAUCAGCAGCAGCAGCAGCAGCAAAAAGCGCGCGCGCGCGAUCGAUCGUAUCGUCGAUAUCGAUCAAAAA'
p93
aF1.0
aa(lp94
S'InfoRNA bulge test'
p95
aS'AAAAAAAAAAAAAAAAAAAAAAAAAAAAAGGGCUAAAAAGACCAAAAGGGCAAAGGGCGAGUUCAGGAGAAAAGCUACCAGAUGCAAGUACCGAAGCACCAAAAGGGAUCAAAAAUGCACCA'
p96
aF1.0
aa(lp97
S'Worm 1'
p98
aS'AAAAAAAGGGGGGGAGAGCAGAACAAAAGAUCAGCACACGCGCGC'
p99
aF1.0
aa(lp100
S'just down to 1 bulge'
p101
aS'AAAAAGGCUAGAUACAAAAGUAUCGGACAAAAGUCAGGACCGAAAGCUCAGAGAAAACUCAGACAAAAGUCGGAGCAAAAAAAAAAAAAAAAAAAA'
p102
aF1.0
aa(lp103
S'Iron Cross'
p104
aS'ACUUACACACACGAAUAUGAAGCAAUUUAAAAAAAAGCGAAAUUGUCUCAAAAGAGUUGUAAAGCAACGAGCAGACUGUCAAAAGAUUACCAAGGGUUGUCAAAGGAGCAUAAACUGGAGGAA'
p105
aF0.9186991869918699
aa(lp106
S'loops and stems'
p107
aS'AAAAAGAUAUACAAAGAUCAAAGAUCAAAGAUCAAAAAAAAAGAUACAAAAAAAAAAAAGUAUCAAAGAUCAAAAGAACAAAAAAAAAAGUUCAAAGAUCAAAGACAAAAAAAAGUCAAAGAUCAAGCAAAAAAGCGAAGUAUAUCAAAAA'
p108
aF1.0
aa(lp109
S'Water Strider'
p110
aS'AAAAGCUUACAGGAGGGAGAAAAAGCUCGGUGAAAAACUACGACGAGCGCGGGAAAUUGUGCAAAGAUAACGUUGGGGCUGGAAAAAAAAAAAAAAAAAAAAA'
p111
aF0.912621359223301
aa(lp112
S'The Turtle(s) Move(s)'
p113
aS'AAAGUGAAAGCAGGUGGUAUAGGCAAAAAAAAAGUUUAUAUCUAAGAAUCAAAAAGAUUAAAAUUUCUAAUGAAUAGAAUUCAAAAAAAGGAUGAAAACACAAAGAAAAGGAAUAAUCCCAAAAGGGCAAAGAUAUUAAAAAAAAAUAUCAAAAGACUAAUGUCAAAAAGGGAUCAAAAGACGAAAAAAGUCAUGACCAAAAAAAGCCUAAGAUUCAAAAAAGAAUUGAAGUUAAAAAAUGUUGAGAUUCCAAAAAAAAAAAAAAAUAAAAACUCAAAAGGAAUGUAAAUAUAAAAAAAAAAUUAUUGUAAAAGUC'
p114
aF0.9873417721518988
aa(lp115
S'Adenine'
p116
aS'GACACAGAUGUCAGAUAUCACAUGUCAGAUCUGAGAUAUCAAAGGAUAUCAAAAAAGAUAUCAGAUAUCAGAUACAAAGAUAUACAAAGUAUAUCGUAUCGCAGAUUAGAUAGAUAUAUCAAAGAUAUAUAAACUAUCAGAUAUGAAAAGAUAUCAAAAGAUAUCAAAAGUGUC'
p117
aF1.0
aa(lp118
S'Tripod5'
p119
aS'AUUAGCGAUCUAAAUGAUCCUGGUAAAUCCAGGCUGUA'
p120
aF1.0
aa(lp121
S'Shortie 6'
p122
aS'GGGAAACCGCGGAAACGAGCGCAAGCUCCGAAAGG'
p123
aF1.0
aa(lp124
S'Runner'
p125
aS'AAAAAGAACGUAUCCAAAAGAACGAAGUUCUGAUAAAAGGCAAGAGGACUAUGUCGAAAUCGACAUAAAAGGCCAAGUCGCCCGAAUGUGAAAAUAAAGAUUAACGAGUUCGAAAA'
p126
aF0.9482758620689655
aa(lp127
S'Recoil'
p128
aS'AAAAAGAUACAAGCAAGCAAGACAAGACAAGCAAGCAAAGCAGCAGUCAGUCAGCAGCAGUAUCAAAAAAAAAAAAAAAAAAAAA'
p129
aF1.0
aa(lp130
S'[CloudBeta] An Arm and a Leg 1.0'
p131
aS'AAAAAGACAGACACAAAAGUAGUCGACAGCAAAAGCGUCAGUCAAAAAAAAAAAAAAAAAAAA'
p132
aF1.0
aa(lp133
S'[CloudBeta] 5 Adjacent Stack Multi-Branch Loop'
p134
aS'CUAUGUAACGAAAGUUAGGUUCUAAUGAACCGGUACUAAUGUACCGGUGGAAACACCCAUAGA'
p135
aF1.0
aa(lp136
S'Triple Y'
p137
aS'AAAAAUGUGCAUUGAUCAAAAGAUCGUUACAAAGAUCAAUCGAAUGAGCAAAGGACCGAUUAAAGAAUCAUUCCACGGAAAAAAAAAAAAAAAAAAA'
p138
aF0.9175257731958762
aa(lp139
S'Misfolded Aptamer'
p140
aS'CAUCAAAAAGCCGACUAUGUCAGCAAAAGCAAAAAAAAAGGAAAAGGAUG'
p141
aF1.0
aa(lp142
S'Flower power'
p143
aS'AAAAUGGGAAGCGUAUGGCCUAGUGGGCGUAUCGUGAGGAUAAAAUAUCAAUCCCAAGGGUGCAUCUGCUCUAUGGGUCUCUUAAAAAAAAAAAAAAAAAAA'
p144
aF0.9019607843137255
aa(lp145
S'Kudzu'
p146
aS'AAAAAGAGACGACGGAACCAUGCCAGCAAAGCGGACAGGGAUAGCAAAGCAUAUCAAGACAAAGUCAAAUUCAGGAGGCUCAAAAAAAAAAAAAAAAAAAA'
p147
aF1.0
aa(lp148
S'"1,2,3and4bulges"'
p149
aS'AAAAAGGACAUGCAGUAAUUCCAAAGUGGUAAGAAAUUGUGUACGGAAAACGGGUGUAAAAAAAUUCUGUCAAAGUACUAAAACCGAAAAAAAAAAAAAAAAAAA'
p150
aF0.9428571428571428
aa(lp151
S'medallion'
p152
aS'GUUAUCAUAUAUUAAAGGAUGUGAGCCAAAAGGCAAACAAAAGCGAAGGAUCAAAAGAUCCUAUCCUAAUGGUAUUUGUCGAAAGACAGAAUACAAAAGUCCUACAAAAAUGAUAUGUCAAAAGACAUAGUAAUAAUUUAAGAUAAUAAAAAUUAUAAAACAAAAGUAGUGCGAAAGCAAUAUAUCAAAAGAUAUACUACAAAAGUCGAACAUGAAAACAUGUUAAACAAAAGUCCCACAAAAGAGACAUUUCAAAAGAAAUGAACGAAAACUAGUAAAGCUAAUGUUGUCAUACAAAAGUUUAACAAAAGUAAUAUAUGGAAACAUAUAAGAUAGC'
p153
aF0.857566765578635
aa(lp154
S'[RNA] Repetitious Sequences 8/10'
p155
aS'AGCAAAAAAGCAAAAAAGCAAAAAAGCAAAAAAGCAAAAAAGCAAAAAAGCAAAAAAGCAAAAAAGCAAAAAAGCAAAAA'
p156
aF1.0
aa(lp157
S'Documenting repetitious behavior'
p158
aS'AAAAAAAUGUAAAAAAAAACAAAAAAAAAGGAAAAAAAAAGCCAAAAAAAAGCGAAAAAAAAGGAAAAAAAAAACUAAAAAAAAGGAAAAAAAAAGGAAAAAAAAAGCAAAAAAAACACGAAAAAAAAACAAAAAAAAAGCGAAAAAAAAACAAAAAAAAUGGAAAAAAAAAACAAAAAAAAAACGAAAAAAAACCAAAAAAAAGGGGAAAAAAAAGUAAAAAAAAAGUAAAAAAAAACUUAAAAAAAAGAAAAAAAAAACCAAAAAAAAAGGAAAAAAAAAACAAAAAAAACUAAAAAAAAAAUUCAAAAAAAAACAAAAAAAAUACAAAAAAAAACCGAAAAAAAAGUAAAAAAAAUACAAAAAAAAAUCAAAAAAAAAACAAAAAAAAACAAAAAAA'
p159
aF0.9075
aa(lp160
S'7 multiloop'
p161
aS'CCUCGCUUCUAAUGAAGUUGCCAGAAACUUAGCUUAGAAAGAUAGGAAGGUUUACGUUACCGUUCGAAAGGAUCGCUGCUAAUGCAGCGCGG'
p162
aF0.9782608695652174
aa(lp163
S'Kyurem 7'
p164
aS'AAAAGGAUAACUGCUAAAGGGCAUCAAAACAGCUGGCAAAAGGUCUACCUAUAAAAAGAAAAACGGCGCUGCCGGGAAUAUCAAAAAAAAAAAAAAAAAAAA'
p165
aF0.9803921568627451
aa(lp166
S'JF1'
p167
aS'GAUAGAGAUAGAGAUACAAGAUACAAAAGAUAUCAAGAUACAAAGAAUCAGGAUAUCAGAUAUAUAUAUAUCAAAAGAUAUAUAUAUAUCAAGACAAAAGUCAGAUAUAUACAAAAGUAUAUAUCAAGAUACAAAAGUAUCAGAUAUCAGAUUCAGUAUCAGAUAUCAAAGAUAGAUCAAAAAGAUACUAUCAAGAUAUAUAUGGGUAUAUAUAUAUCAAAAGAUAUAUAUAUACUAUAUAUAUAUCAAAGUUACAAAAAAGUAACGAUAAUAUACAAAAGUAUAUUAUCAAAGAUCAAAAGAUCAAGUAUCAAGUAUCAGAUCAGAUAGACAAAAGUCAUCGAUCAGAUGGUGACAAAGGUCACACAUCACUAUACUCAUAUCAAA'
p168
aF1.0
aa(lp169
S'multilooping fun'
p170
aS'UGCUAGUUUGAAAGAUUAAUAUGAAGUGGAAACUCA'
p171
aF0.8333333333333334
aa(lp172
S'Multiloop...'
p173
aS'GAGCGCAUCAGGGUAAUGUCCUACGAAAGUAUUCCUAAUGGAAGUGAAAGCAUUUCUGAAAAGAUGUCGAAAGGCUGGUGAGUUCCAAAAAGGGAGCGACAAAGGUCCAUC'
p174
aF0.9459459459459459
aa(lp175
S'hard Y'
p176
aS'AAAAAUGUGCUAGGUUUGUCGAAAGACAGGCAUGAGAUCUAUAGCGAAAGUUAUAGAUCGAUGGAAAA'
p177
aF0.9705882352941176
aa(lp178
S'Mat - Elements & Sections'
p179
aS'AAAAAGAUCGGUAAGAAGCGAGAGAUCAAGUGAGCAGGUGACAAAAGUCUCACGCUCCAGGAUCAAAAUCAGGCGCAAUCGGAUCAAAAAAAAAAAAAAAAAAAA'
p180
aF0.9619047619047619
aa(lp181
S'Chicken feet'
p182
aS'AAAAUGCAGAAGUGAAGCGAUAAAGUAAACGGCUGAAGUUAAAAAUUAGAAAAACGAUGCGCAAAAA'
p183
aF0.8656716417910447
aa(lp184
S'Bug 18'
p185
aS'AGUGGUGGGUGGAAUAAAAGAUGAAGCAGCUUAUGAGUUGCCGAGUAAAAGUA'
p186
aF0.9622641509433962
aa(lp187
S'Fractal star x5'
p188
aS'AAAAAGUAACAUCUACCUUAAAAGAGGAAGAUCUAAUGAUCGAUAGCGAAAGCUAGAGCUGAAAACAGCAUGAUGUUACGAAAAGAUAUAGCGGUUUCGAAAGAGAAUGAUCAAAAGAUCUAGAGCAAAAGUUCAUGAUUAAAGAAUCUAGUUAUAUCGAAAAGAUGUGUCAAGUGCAAAGGCGCAUUGGAUAAUUCUAUGGACCGAAAGGUCAAGCUGAAAACAGCAAGAUAUAUCAAAAGAGUCUUUCAAACUCGAAAGAGUGAGAUCAAAAGAUCAAGUUCAAAUGAGCAGGAUGAAAGCAUCAGGAAGGAUUAAAAAGUUAUUUCAAUAUCAAAAGAUAAAGGUCUAAUGACCAGGGGGGAAACCUCAAGAUGUAAUCAUCGGGAAAUAGCAAAAA'
p189
aF1.0
aa(lp190
S'Crop circle 2'
p191
aS'UGGAUGUAAAGGGGAAAAGUUAAAAAAAGACAAAAAAAAAAAAAAAAAAAAAAAAAAAAAAUCAAAAAAAAAAAAAAUUCAAAAAAAAUGCAAAAAAAGCCAAACGAAAA'
p192
aF0.9636363636363636
aa(lp193
S'Branching Loop'
p194
aS'UCCUCGGAAAAAAAUUAGCAAAGGUUAAAGGGAUAAAAAA'
p195
aF0.95
aa(lp196
S'Bug 38'
p197
aS'AGUACGAUGGAACAAAAAUAGUAGGGGAGAAAGGCG'
p198
aF0.9444444444444444
aa(lp199
S'Simple Single Bond'
p200
aS'AAAAAAGGAAAAAAAUAAUCAAAAGGAUUUAAAAAAAACAAAAAAAAAAAAAAAAAAAAAA'
p201
aF1.0
aa(lp202
S'Taraxacum officinale'
p203
aS'GCCCAAAAGAGAGCCGGCUAAUGAGCCAACCCAAAAAAGGAAGGACAAAAGAGGCAGACAAAAGUAGUCAGUUUAAAAGAGUCUGAUAUAUAUCCGUUAGAGAUACAAGGUAUACUUUAGCUUAUACAAAUAUAUUUACAAGAUAGGCGAAGCUUAUCAGUAGAUAUAUGAUGAGAUAUCAAAGAUAUCAAUCGUAUAUAAGGAUAUAUAUCUAACCGAAUGAGUUGGGAUAAAAAAAUCAGACCGAAAGAGUCAGACCAAAAGAGUAGUCGGAAAAAACGA'
p204
aF0.9148936170212766
aa(lp205
S'Headless Bug on Windshield'
p206
aS'AGCAGCAAAAGGGAUUAAAGCAGGCAAAAAAAAAAAAAAAAAAAAAAAAAGCCAGCAAAAAUACCAAAGCAGCAGACAAUCUAAGCGAAAAAAACAAAAGUAAAAAAAGCAGAAAAAAAGUCAGAGCCGAAAAAGGACAAGGAAGACGAGCAGACAAAAAAAAAAAAAAAGUCAAGCAAGUCAACCAGUCAAGGAACUCA'
p207
aF1.0
aa(lp208
S'Pokeball'
p209
aS'AAAGAUAUACAAAAGCAAGGAAGACAAGGAAGCAAGAAAGGAAGCAAGCAAAGCAGCAACCAUCAGCAACCAGUCACCGGCGUAUAUCAAAAAAAAGUUAUGCAAAAGAGAGGAAGACAAGGAAGCAAGGAAGGAAGCAAGCAAAGCAGCAACCACCAGCAACCAGUCACCAUCGUAUAGCAAA'
p210
aF1.0
aa(lp211
S'Variation of a crop circle'
p212
aS'AAAACUAAACAAAAAUGCAAAAGGAAUCAUUCAAAGGUUGGAAAAGAAAAAAAGCUAAAAAUUUUAAAAAAAAGGAAAAAAAAAAAAA'
p213
aF0.9545454545454546
aa(lp214
S'Loop next to a Multiloop'
p215
aS'AGGAUGUAUCAAAAAAAACGUAAUUAAAGAAUUACCGAUAUUCGAAAGAAUAUCAUAAAAAAGGGUACAUCAA'
p216
aF0.9726027397260274
aa(lp217
S'Snowflake 4'
p218
aS'GAGCAAGGCUCCAUUCGGAAAACUGAUACUAUAUUCGCAAAGUCGGUCGCGUCAAGGAUGAAAAGCAAAGCUUCGGCCGCAAAGUCGAAUAAAGAUACGUAAAAGCGAAUCCGUUGAAAAAGAACCUGAAACGAGGAUUCCAAAAGACGUAUCAGUCUGCUCAAAGCCUAAGCCAUCGAAGGUGAACAUCGAAGAAGGCUUAGCAAAGGUGCAGGAACAUACGCAAAAGCGUCUACACCUAUGGUAAACACCUAUGGUGUGGGCGCUAAUGCGUAUGAGGGAACGUAAAGAAUUGUUGAUGAAGGAUCAAGUUAGAAUAGCGACGAAUAAAAGCGUUCCAUGUAUCAAAAAAUUGAGUGCUUUAAGAAGG'
p219
aF0.8432432432432433
aa(lp220
S'Mat - Cuboid'
p221
aS'AAAUCAAAAGAAAUCAAAACUAAGUAAAAGAAUCAAGCAAAAGCAUUCAAGCAAAACAAGAAAGUAAGCAAAAGAAAGCAAGCAUGCAAAAGCAAGCUAGCGACCAAGCAAAAGCGAGCGAGCGAGUGAGGAAAAUCAACCGAGCGAUCGAGCGACUAAAAAAGAGAGUGCGAGCGAUCGAGCAAAAGCGGGCGAGCAAUUGAUCAGAAAAAAAAGUAAGGAAAGAGGUGAGCAAGCGCAAUCAAGCAAGCAAGCAAUAGGAAACAAGCAAGCAAGGGGGCGCAAGCAAGCAAGCAAUCGCAAGUAAGCAUGCAAGCGCUAGCAAGCAAGCGCAAGCAAUCAAAUCAAGCUAGGGCAAGAAAGGCAAGGGGAAUCGAAAU'
p222
aF0.8263157894736842
aa(lp223
S'Misfolded Aptamer 6'
p224
aS'AAAAAUGCCAAAAAAUAUCAGGGAAAUAGUAAAAAAUCUAGAAACAAAAAGAUGGAAAAAGGGCUAAAAAAAAAA'
p225
aF1.0
aa(lp226
S'Snowflake 3'
p227
aS'GGGGCUAAUGCAGUCGACAAAGGUCAAGAUCAGGUAGAGACAAAAGUCGAAAACAAAGGAGAGAAAUUCACAAAGGUAUUCGCAAAAAUGCAAUAUUAGAUCGAGACUAAUGUAAAGAAAAAAGUUUACAAAGUAUCAAAAGAGAUUAACAAAAGCUAAGAACGGUGCAAAACAAAAGGCGUUAUCUAAUAGUAGAAACUAUGUAAUGAAGACGGCGAAAGUCAAGCGCAGAUAAAAUCGAAAGAUGUAUACGAAAGUUACAAUGUCUCAAAAGAUAACGACGAAAGUUAAUAUCAGAUCGAGACAAAAGUCCAGGUGAAAAUAUUAUAUUAAUUAAAAGAACUGGACAAAGGUAAAGAUCGGGUCAAACCAAAAGGUGGCACCGAAAGCCUC'
p228
aF0.7837150127226463
aa(lp229
S'Hard Y and a bit more'
p230
aS'AAAAGGAUAGCUAGCUUCAAAAGAAGGCGAGACCCAGCGAGAUCGAAAGAUUAUGAGGUAAAAAAACCUCUAGCGGGGUCCUAUCAAAAAAAAAAAAAAAAAAAAA'
p231
aF0.9716981132075472
aa(lp232
S'Mat - Lot 2-2 B'
p233
aS'AGUGGGGAGGCCGGGAAAAAUGGAGGUCAAAAGAAAAACAGAGAUCAAGGAAAACGAAGCCGAAGCAAGUGACCGGGAUCAAAAGCGAGGAAGAUAAAAACCAAAAGUUCAAUUAAAAACAAGUGGAACCGGGAGCAAUCUAACGGGUGAGGACAAGCAAAAGUGAGGUUAAAAGAAAAACUAAGCGCAAGAAAAACCGAGCCCAGCUAAGCAAUCGCGAACAAAAGGUAGUUCCGGCAAAAGCAAAAGCUCAAGAAAAAACAUGCCCAAGCGAGAGGAACUAU'
p234
aF0.8063380281690141
aa(lp235
S'Shapes and Energy'
p236
aS'AAAAAACGGAUCACAUCAAAAGAAAGAGCAGGAAACGGUUCAAGCGAUGAAGGUAAAAAGUAGUAAUCUAUCCGGAUCGGAAAAAAAAAAAAAAAAAAAAA'
p237
aF1.0
aa(lp238
S"Spiral of 5's"
p239
aS'CAAAGGAUAUAAAGUUAGGAAGAUAGAAAGGAUUCAAGGAUAGAAUGAUAAAGGAUACAAAAGAUACAAAGAUAGAAGUAUAGGAGGUACAAAGAUAGAAAGAUAGAAGAUACAAAGAUAGAAGAUACAAGAUACAAGAUACAGGAUGCACAUACAGGAGGGGAGUACAAGAUAUCCAGAGGAUUUAAAAAGUAUGAAAAAGUAUCAAAAAGUAUUAAAAAGUAUCAAAAAGUAUCAAAAACUAUCAAAAAGUAUCAAAAACUAUCGAAAACUAUCAAAAAGUACCAAAAACUAUAAAAAACUAUCAAAAAGUAUCAAAAAGUAUCAAAAAUUAUCUAAAACUAUCAAAAAGGAUCAAAAACUAUCAAAAACUAGCAAAAAGUAUCAAAAAGAAAAA'
p240
aF0.9949622166246851
aa(lp241
S'Campfire'
p242
aS'AAAAGGUCAAAUAACAAGAACAAGAUCGAAAAGAUCCUUAUCAACGAUGAAGCUUCGAAAUCAAAAGCGGUCGCUAAUGUAGGCGCUGGACUCAUGACCAUAAAAGCAGUCGCACAAGGCGAAAGUAUGACUGAAGAAGUUGAUAUUUGUUAUCGCUGAGAGACAGAUCUAAUGAUCGUCCUCGGUAGGCCAAGGGCACUAGCCUGCGGGCC'
p243
aF0.9245283018867925
aa(lp244
S'Anemone'
p245
aS'AAAGGUGACGAAAAACAACUAUCCAAAAGGAUAAAGUUAAAAGGCAAGACUGACAAAGGGUAGAAUGGCGAAAGUUAUUGACAGGAAAUUGUCGCUACUAACGUGGCGUAUUGUAAUCAAUGCAUUUAUUAAUGUGAAGGGGUCAAAAGACUUCGCCCGUAAUUGGGCUUUUGGUAAUCAAAAAGAAACGAAAGUUUCCAUAUGUAAUCAUAUG'
p246
aF0.9158878504672897
aa(lp247
S'Fractal 3'
p248
aS'AAAAUGGUCACUCAGCGAAAGCACAAAGGUCGAGAGACAACAAAGGGCCAAAAGUGGCCUGGCGUAAAAAGAACGAAAGUAGUGUCCCAGGAAACUCGAAAAAGCAGUGAACUCCAAAA'
p249
aF0.9327731092436975
aa(lp250
S'Kyurem 5'
p251
aS'AAAAACGCUUUAUAGUAAUCUGGAGAAAAUUUCGAACAAAAGCAAAAGGUUGGUCGCUGAAAAAGUCAAAACACCUAAAAAGCGGAAAAAAAAAAAAAAAAAAA'
p252
aF0.9134615384615384
aa(lp253
S'Snowflake Necklace ( or v2.0 )'
p254
aS'GGUAUAGGUAUCAGCAGAUACAUUAAAAAGGAUCCAAAAGGAUCAAAAACAAUCAAAAAGAUUUAAAAAGAUGUAUCAACCAAAAAUAUAGAUACGUCAAAAAGCAGCAAAAAGUAACUAAAUGUAGGAAAAACCAUGAAAAACAAGUAUCACUCGAAAAGAGAGUGACUGUAAAAAAUUCCAAAACGGUUUAAAAGGCCUCAAAAAGAUUCAAAAAGAUGUCGUAGCCAAAAAGGCAGUCCCAGUAAAAAGCAUUAAAAAAGAUAGAAAAGCAUUAAAAAGAAUCAAAAAGAAGGGACAUAAAAAAAUCAAGGGGUAUCAAAAAGAAUAGAAAAUAUUUAAAAAGAUUUAAAAGAAAUUGAAAAAAAGCCCCAGCUGAUAUCUAUACC'
p255
aF0.8586118251928021
aa(lp256
S'Methaqualone C16H14N2O Structural Representation'
p257
aS'AAAAAAAGAGAAGCUAACACAGAUCAAAGUCAUACAGUUAAAAAACAAACUGAGGAAAUUUAGAUCGAGAAAAUUUAUACAAAAAAAGUGAAUGAGAAAGUGGUUAGGAAACAUAGCAGUACGAAGAAGGGAAGGGAAACCAAAAAAAACCCGCAGAGACAAAAUUCCGCGAAAGUGUACAAAAGUGCUGAUCGAAGAGCUGAAACUGCUAGAGAGGCUUACGGAAAAAGGACAAAAGUCAUUCAGACAAAAGUCAGUAGGUUAAAAGAGUAUUAAUCGAAACGUACUCAGACCACAAAAGGCGACAAAAGACAUACAAACCUGGUCAAGCGGUUCAAAGUACAUUUCAAAAAAA'
p258
aF0.9126760563380282
aa(lp259
S"Cat's Toy 2"
p260
aS'AAAAGAUGGAUUAAAAGGUUGAAAAAAAAAAAAAAAAAAUCUUUGAAACGGAAACGGAUGUUAAUACUAAAAAAAUAUAAAAUCCAAUUUAUCGAAA'
p261
aF0.9587628865979382
aa(lp262
S'Zigzag Semicircle'
p263
aS'AAAUGAUACGUCGGAAAACCGCUCAGUGUCUAAA'
p264
aF0.9411764705882353
aa(lp265
S'Short String 4'
p266
aS'AAAAAAGUAGCAUGCAGGGAGUGGCAGCAAAAGCGCAAAAAAGAUAGAGAAAAAUCGAGAAAUAAACAGCUAGCACAAAAAAAAAAAAAAAAAAAAA'
p267
aF0.9381443298969072
aa(lp268
S'Gladius'
p269
aS'GGAAACAAAAAAAGAAAGAAUAGAAGAAAUACGGUCAAAGAUCUAAUGAUCGGAUACAAGAGACAAGAGAUCAAGGGAUCGGGAGAUAUAGCAGAUCGCAGAUGCAGAUGAGAUCAAGAUCAAAGAUCAGAUACUAUCGACAUCGACGAUCGAUUAUAUCAAAAGAUCAACAGAUCAGCGGUUAACAGUAUCAGACAAAGACACAAUCAGAAGACAUAAGAUCAUAAGAUCAGAUGGUCUACAGUUUUCAGGUUCAGAUAUCAUUCAGUUAUUAAAAAAUAGCGAGGGGAGUAUCUGAACACGAGAGACGUAGAUCUCAAGAUCGACAGAUCAAAGGUCACAAGAUUGAGAGAAAAAUCUCAAAGUCAGUGAAACGAGGAAAUAAACAAAAUAAGAAAAC'
p270
aF0.8925
aa(lp271
S'Thunderbolt'
p272
aS'ACAACAUAGAAAAAAAAGUGCAAGCGUAAGAAUAAAAAAUAAAAAUCAAAGGGAAGGCAAAAAAGUUCAAAAAGAGCAAAAAAGCAAGCCAAGCAAAAAAAUAAGUAAAAUCAAAAAGCGAGCAAAAAGAAAAUGCAUUAAAAAGACAAAAAGAAGCAUAAAAGGUAACAAAAAGUCAGAUCUAAGAAAAAAGGAUGAGCGAAGCACUACAAAAAAACGAUGCUCAAAAAAAAGAAGAGGGGGAUAGCAAAGUUAUCAGCAAGCAAAAAAAAAAAGCGAGGAAAAUAAAAAAACUAAAAGUAUAGCAAAAGCAAAAAAAAGAAAAAGCUAUAAAGAAUAAAGACUGUUGAAAAAAGAGAGCAGGUUUAAAAAUAAAAAAAAACUAUGAAGUA'
p273
aF0.9591836734693877
aa(lp274
S'Mutated chicken feet'
p275
aS'AAAAAAAGAGCGUGUGAAGCUGUAAAACAAAACUCAUUAGCAUAGAACAAAGAAACUGAGGCGCAAGAACGGCAAAGUAUAGAAUGGAAGAUCAAAAAAA'
p276
aF0.84
aa(lp277
S'Chicken Tracks'
p278
aS'AAAAAAAAGCUAUAGCGGCGAAAGCCGAUGAGCGAAAGUUCUAGAUCAAAGGAUCCUGUAGCGAGUCAAAAAAGCUUCAAGGUUAAAAAUCAAGGCAAAGUGCGGGUGAAAAAAAA'
p279
aF0.9482758620689655
aa(lp280
S'Looking Back Again'
p281
aS'CACAAGUCGAUCGAAAAGACGUGAAACACGUCAGAUCAUGACGUCAAGAGAAAUUCGACGGGUACAAAGAUCAAAAGAUCAAAGGUACCAAGUCCAGGCAGGAUCCACUAAAAGACACGAAAGUGUCAAAAAUGUCGGUACUAGAUAAGGUUUAAAUACUAUGUAUUGAAGACCCAAGAAGAAAAGGAUGAAGACGGAAACGUCGACUCAACCAGCGGGCACAAAAGGGAAGUUUUCAAAAUCCCGAACAGAUUCAAGAUGAAAAUGAGACACAAAAAAAAUACCUAAAUGGUAGUGUAAACUAAGUCUCCACGAAAAAGCGAUAUCAAAGGAUGUCAAGACUCAAAGAAUAUACGAAGUAUAAAGUCGCAAAAGUAGGGAUCUAGGUG'
p282
aF0.8560411311053985
aa(lp283
S'Multilooping 6'
p284
aS'AUUACUCAGCCCUACGAAAGUAGGGGGACGAAAGUCUAGCGGGGUUUGCGAAAGUAAAGAUGAAAAAGCGCAUCAGAGUAUA'
p285
aF0.9512195121951219
aa(lp286
S'Cesspool'
p287
aS'GAAGAAGAAAACAAGCCGAGAGAGCUAAAGUCAACAACAAGCCAAGGAGAAAACAACUGAAGAAAACAACUAAAUGAAAACAACAAGAAAAAGAAGAAAACAAGAGUAGAUAGACAAAGUUAAGAACAUAUCAAGAAGAAAACAAGAGAAGGAAACAACAAAACCAAAACACCAAUAACCACGAAGAAAACAAAACGAGGGAGAGAAACUCAAAAACAAGUUAAGAAGAAAACAACAGAAGAAAACGAGAAAAGGAAAACACCAGGGAAGAGAAAAGAAAACAAGAUGAGGUAGACAAAGUCAACAACAAGCCAAGAAGAAAACAACAGAAGGAAAUAACAAAAUGAAAACACUAAGC'
p288
aF0.7597765363128491
aa(lp289
S'Hoglafractal'
p290
aS'AAGAGUAACAUACAAAAGAUACAAAAAAGUAUCGUAUGGAUCAAAGAUCAAAAAGAUCGAUCGCCAAGACGAAAGUCCUCUGACGAAUAUCAAAGACCUAAAAUGGUUGACAGAAAAGACCAAACGUCGUCGCAGCAAAAGCGCAUAGCAAAACCCAAGAUUAAAAUGUCGUCGAAGCAAAAAGCUCUACAAAAGUGAGAUCUAAAAAGCAUCAAAAAAGAGCCACAAAAAGUGACAAAAGCAGAUAUCGAAAAAGACAAAAAAGUCCGAAAAAUGGAACAUAGACAAAGUCUAUGGAAAAAAGAUAUCAAAAAAAGAUCAAAAAGUUAAAAAGACCAAACUACGAAGUACAGCUCAAAACCAAAAGCGAAAAAGCCAUAUCAAAGAUAUGCGAGCGUUC'
p291
aF0.89
aa(lp292
S'Bullseye'
p293
aS'AAAGUCAAUGAAAGGUUAAGACCAAAGCGUUAGACCAAAGAUCGCCGAAAAAAAGAGUUUCUAUGAGAAAAAUUAAGAAUCAAGAUCAAGGAUCAUCAAAAAAAAGACGAUCGAACAUCAACUGCAAAGCGGAAGUACGAAGAACGCUAAAAAAAAUAGGAUGAAAAAACAAGGGGUAUCCCUGAGGUGAAAGAUCCUAAAA'
p294
aF0.8415841584158416
aa(lp295
S'Shooting Star'
p296
aS'AUAUAAGAACGACAUAUUAAGACGAGGAGGCAGCCACCAAAAGAGGGACGCCGCACGAGUAUGUAUGUCAGAUGCUAGAGUUAGUGCCAAGUGUUCACACAUCAGGAAAACACGAUAGGUGGCUACACGGCUCACCUGAAUGGAAAACAGCCUCGAUCCGGGCAAGGUCUGAGAUGCAAAGCAUCGAAAAAAUCCAGAUCAGUUCAGACCAGAGCAAAUAGAGUGUAUCGCUCUGAGAUUCGAAGAAUCGAUCGAUAUACGAAGUAUAUCAAAAACGAAGUUUUGGUCGUUCAAUAAAAGGAAGAAGAACAGAGUCAGCUCAGGAAAACACGAUACGACGCGAGUAAACAACGAGCAUUAUAUA'
p297
aF0.8269230769230769
aa(lp298
S'Teslagon'
p299
aS'AAAAAGGUAAAAAAACGAUCAAAAAAACCAAAAAAAAAAAAAAAAAAUUAAAGAAAGACUAAAAAAAAAAAAAAAAGGAGGAAAAAAGCAGCAAAAAAAGCAAAAAAAAAAAAAAAGCAAAAAAGGCGGGAAAAAAAGCAACAAAAAAAAAAAAAAAGUAAAGAAAAGGGUAAAAAAAAAAAAAUGCAGAAAAAAAACUGGCGAAAAAAUCUAAAAAAAAAAAAAUGUAAAAAAAGCGGCCAAAAAGCAAAGAAAAAAAAAAAAAAAGUAAAGAAUUUAGAAAAAAAAAAAAAAAUGGAGAAAAAAAGCAGCGAAAAAAGUAAAAAAAAAAAAGUGAAAAAAAAAAAAAAGCGGGAAAAAAAGUGUGAAAAAAAACAAAAAA'
p300
aF0.887434554973822
aa.