(lp0
(lp1
S'Simple Hairpin'
p2
aS'GUAUCAAAAAAGAUAC'
p3
aF1.0
aa(lp4
S'Arabidopsis Thaliana 6 RNA - Difficulty Level 0'
p5
aS'GUAUAUCAGGUCUCAAAAAAAAAAAGAGGUAUAUACUCCUAUAUAUAUAUGUAUAUGAAAGUAUCAAAAAAGAUGCACAUAUAUCAUAUAUAUAUAGUGGUAUAUACAAGAUAUAC'
p6
aF1.0
aa(lp7
S'Prion Pseudoknot - Difficulty Level 0'
p8
aS'CUGAUCAGUACAAAAGUACGAUGCAGAAAAAAAAAA'
p9
aF1.0
aa(lp10
S'Human Integrated Adenovirus - Difficulty Level 0'
p11
aS'AGUAUCAAUCAGCCGGUAGGCAAAAAAAAAAUGUUGGGACGCUCCGGACAUGGUCUGACAAGGGUCAGGUUAACGAAAAAAAGUUAACCUGUGAAAUCCCAGAGGCUACAGCAGGAAACGUUCAAAGUUGUGAAAAAAGUGCUACCCACUAAAAAAAAAAGGCCUACAGGUUAAAAGGUUGAAAAUACUGAA'
p12
aF0.9791666666666666
aa(lp13
S'The Gammaretrovirus Signal - Difficulty Level 0'
p14
aS'AAGAGGGCUAUACAAAAGUAUAGAGCGCGAAAAAGUACAAGUCAGUAGGUAUGAAAACAUACGAAACUACGACGUACAAGUAUAUACAAAAGUAUAUACAA'
p15
aF1.0
aa(lp16
S'Saccharomyces Cerevisiae - Difficulty Level 0'
p17
aS'UUAUGACGAACAAAAAAAAGUUCAGGGAAAAAAAAAAAAAACCAUGUCCAGGAAAAAAGCUUGGGUCAUAGAAAAGUUUAUCAAGUACAAAAAAAAGUACGCCAAAAAAAAAAAAGGGCAGGUCUAUCUAAAAAUGAUAGGAUAAACAAAAGUAUAGCAAGUACAAAAAAAAGUACGUAUACAAAAAAGGUAUACAGGUCUAUCGAAAAAAGGUAGGUUAUACAAAAGUAUUUCAAGGACAAAAAAAAGUCCGUCUACUAAAAAUGUAGACAGGUCUAUGUAAAAAUUAUAGGAGAUACAAAAGUAUAUCAAGUCCAAAAAAAGGGACCUGUACGAAAAAAGUACAGAGGUCUGUCAAAAAAAGACAGGAUGUACAAAA'
p18
aF1.0
aa(lp19
S'Fractal 2'
p20
aS'AAAAUCCAGAUGUUAUGAAGUUUUUGAAGGACAAAAAAAAAGGUCUAGCAACUAAAAAAAAUGUUGAAAUACUAAAAAAAAUGUAUAACAAAAACUUUUAGGGUGAAUUUGAAGCGGAAAAAAAAAACUGCGGCCUUAAAAAAAAUGGAGGAAGAGCUAAAAAAAAUGUUCGACAGAUUCGCCAAAAAUAUAUAUUGAGCACUAAAAAAAAUGUGCGACCCUGAAAAAAAAAAGGGGAGGUCAAAAAAAAACGAUCGAGAUAUAUAUUGAUAUAUCUGGUAAAA'
p21
aF1.0
aa(lp22
S'G-C Placement'
p23
aS'ACCCUAUGGGUG'
p24
aF1.0
aa(lp25
S'The Sun'
p26
aS'GAUCGGUUUCGAAUGGAGAAGAAGUCAAAAGCAGCGAAAAGAAUUUUGACGAGUCAAGCUUAGGGUCAGGAAAUAGGAGCUGAGAAAGUAAGCACCUGGAACGGAGAUACUACGAGCUGAUCCGCAUAACAUGCGAGAACAUAAUCUAAUUCGCAAGAAGUACGAUACGACUAGCUGAAGUGUGUAAGCCACGAUUAGACAAUUUAAAAUACACAAAGUGUGAAUUUACUAGUUCAGUGAUAGAAAUUAUGAGACGAA'
p27
aF0.7248062015503876
aa(lp28
S'Frog Foot'
p29
aS'AAAAAAAAAUGAGUGAAAGCUUCUGUUAAUACGGCCCGGAACGGG'
p30
aF1.0
aa(lp31
S'InfoRNA test 16'
p32
aS'GUAGACUCGCUUGUGAAAGUAUAAUGUAGUGUUUAC'
p33
aF1.0
aa(lp34
S'Mat - Martian 2'
p35
aS'GUACAAAAGUACAAGGUAUAUCAAGUAUAUCAAAAAAAGAUAUACGAUAUACAAAGUAUAUACAAAAAAGGAUAUCAGUAUAUCAAAAAAAGAUAUACGAUAUUCAAAGAUAUAUAUAUAUCAAAAAAAGAUAUAUGGUAUAUCAAAAAAGUAUAUACAAAGAAUAAUAUAUUAUAAAAAAAAUAAUAUCAAUUAUUCAAACUACAAAAGUAG'
p36
aF1.0
aa(lp37
S'square'
p38
aS'GUAUAUCGUAUAGGUAUAUCGUAUAGAAACUAUACAAAAGAUAUACAAAACUAUACAAAAGAUAUAC'
p39
aF1.0
aa(lp40
S'Six legd turtle 2'
p41
aS'AAAAACCAGACGAAAACCAAAGUGGAAAAAAAGUGAAAGUGAAGAGAAAUUAAAGAAAAAUCAAAACAAAAAGAAAAUGUAAAAAAAAAAAAAAAAAA'
p42
aF0.9591836734693877
aa(lp43
S'Small and Easy 6'
p44
aS'AAGCCCAAAUGCGAGGGAAAAAAAACCCUA'
p45
aF0.8666666666666667
aa(lp46
S'Fractile'
p47
aS'AAAAAAAAAAAAGGAAAACCAAAGCAAAUCGAAAGAAAGUAAAGGAAAACCGAGACAAGCAAAAGCAAAGCGAGCAAAAGCAAAAGAAAAAAAAAAAAAAAAAAA'
p48
aF1.0
aa(lp49
S'Six legd Turtle'
p50
aS'AAAAAUGAAAAAAAAAAUUAAAACCAAAAACAAAAGCAAACCGGAAUACAAAACCUAAAUGAAAACAAAAGUAAAAAUGAAAACGAAAAAAAAAAAAAAAAAAAA'
p51
aF0.9428571428571428
aa(lp52
S'snoRNA SNORD64'
p53
aS'GUAUACAAGAAGUCAAAACUCAAAGUAUCAAAAAAAAAAAAAGAUACAAAAGAGAAGACAAGUAUAC'
p54
aF1.0
aa(lp55
S'Chalk Outline'
p56
aS'AAAAUCUCGGGACAGAAAGCUGGACAUGGAGUAUAAUUACCCAAUGCCCGGAAACGCGGCAGCGAUAGAAAUAUAGGUCAUAAAAAAAAAAAAAAAAAAAAAAA'
p57
aF0.9807692307692307
aa(lp58
S'InfoRNA bulge test 9'
p59
aS'GUAUAUCAGAGAGAGUAUAUCAAAAGAUAUACCCCGAUAUAC'
p60
aF1.0
aa(lp61
S'Tilted Russian Cross'
p62
aS'AAAAAUUUGGAGCAAACCUAGCAAAAGAAAUAAUGUCCGUCCAAAAGUGGACAGUUCAAAGGAACGUAUGUGGGAAACCGCUGAGGAAAAAAAAAAAAAAAAAAA'
p63
aF0.9238095238095239
aa(lp64
S'This is ACTUALLY Small And Easy 6'
p65
aS'AAAAAAAAAAAAAAAAAAAAAAAAAAAAAAAAAAAAAAAAAAAAAAAAAAAAAAAAAAAAAAAAAAAAAAAAAAAAAAAAAAAAAAAAAAAAAAAAAAAAAAAAAAAAAAAAAAAAAAAAAAAAAAAAAAAAAAAAAAAAAAAAAAAAAAAAAAAAAAAAAAAAAAAAAAAAAAAAAAAAAAAAAAAAAAAAAAAAAAAAAAAAAAAAAAAAAAAAAAAAAAAAAAAAAAAAAAAAAAAAAAAAAAAAAAAAAAAAAAAAAAAAAAAAAAAAAAAAAAAAAAAAAAAAAAAAAAAAAAAAAAAAAAAAAAAAAAAAAAAAAAAAAAAAAAAAAAAAAAAAAAAAAAAAAAAAAAAAAAAAAAAAAAAAAAAAAAAAAAAAAAAAAAAAAAAAAAAAAAAA'
p66
aF1.0
aa(lp67
S'Shortie 4'
p68
aS'CCUAAUGGGACGAAAGU'
p69
aF1.0
aa(lp70
S'Shape Test'
p71
aS'AAAAACUGUGCUAGGAGCAAAAAAAAGUUUCAAGUCAGAAUGUAUUAAAAAGAUACUGUGCAAAAGCACAUUCGACAUGCACUGGAAAAAAAAAAAAAAAAAAA'
p72
aF1.0
aa(lp73
S'The Minitsry'
p74
aS'CGCGAAAGGGCGAAAACUCCAAAUGCUAAAAGUCUAAAAAAAAGGGAAGCUGAGAGCCAGUG'
p75
aF1.0
aa(lp76
S'stickshift'
p77
aS'AAGUAUAGGCAAAAAGCACUAUACAA'
p78
aF1.0
aa(lp79
S'U'
p80
aS'AAAAAGUAUCAGAGAGCAGAGUAUAUAUGAAAACAUAUAUACCGCCCGAUACAAAAA'
p81
aF1.0
aa(lp82
S'Still Life (Sunflower In A Vase)'
p83
aS'AAAGCAUACUGAGGAAAAGCCGUCGACGGUCAACGACUGCAGGCUCAAAAAGAGCCAAGAACGGAACGUUCAGGUAACAAAAAGUUACAAACGUCCAAAACGAGUUAAAUAGAUUUAUAUAUAUGUAGGGGAUUGAAAAAGAUCCAGUAUUAAAAAAAAAAAAUGGAUAGGGGGGGGGGGGGGGGGGGGGGGGGGGGGGGGGGGGAAAGAUUUUAAAAAAAAAAAGGAUACGCAGCAAAAGUUGCACUUAUAUAUAUAUAGAUCUAUUUUAUUAUCUAAAUUAUAGGAGGAUCAAAAAGAUCCAUGCACCAAAAGGGUGCCGAGAUUAAAAAAAUCCAAGAUUUUAAUAAGUCAACAAUCGAAAAGAUUGGAUGCAAA'
p84
aF0.9735449735449735
aa(lp85
S'Quasispecies 2-2 Loop Challenge'
p86
aS'AAAAGCGUGCUGUAGGCAGAAAAUUGCAGACAGGGGAUGGCGAAGAAGUCCAAUACUACUUGUUGAAAAAACUUGGGGUAUCAUGAAAAAAAAAAAAAAAAAAAA'
p87
aF1.0
aa(lp88
S'Corner bulge training'
p89
aS'AGUAUAGGUAUCAAAGAUACAAAACUAUACA'
p90
aF1.0
aa(lp91
S'Spiral'
p92
aS'AAAAAGUACAGUAUACAGUCAGUAUCAGUACAGUAGAGCAGCAGCAGCAGCAGCAAAAAGCGCGCGCGCGCCUACGUACGAUACGACGUAUACGUACAAAAA'
p93
aF1.0
aa(lp94
S'InfoRNA bulge test'
p95
aS'AAAAAAAAAAAAAAAAAAAAAAAAAAAAAGGAAAAAAAGCUCCGAAAUUGCAUUGUAUUCCCACGUUAUUAAAUAUAAAAGUAGGUUGCGGCUAAGUGAAACAAAGGGAGAAAAAGCUGGCG'
p96
aF0.9672131147540983
aa(lp97
S'Worm 1'
p98
aS'AAAAAAACAGGAUGAGAUCGUGAGAAAACCCAAGUGUACUUAAGG'
p99
aF0.8666666666666667
aa(lp100
S'just down to 1 bulge'
p101
aS'AAAAAGUACAUUUUCAAAAGAAAAAGUCAAAAGACAGUGGCAAAAGGACAGUCAAAAGACAGCCAAAAGGCAGUUCAAAAAAAAAAAAAAAAAAAA'
p102
aF1.0
aa(lp103
S'Iron Cross'
p104
aS'CGCCGGUAAAAGGUAAAUAAGGGCCCCCUAAUGAGUAUUAAAGAAAGUCAAAAGACACUUAAAGACCGAUAAAUUCACUCGAAAGAGAUCCAAAGGGAGAAAAAUUCCUUGGAACAAAGACUA'
p105
aF0.926829268292683
aa(lp106
S'loops and stems'
p107
aS'AAAAAGUAUAUCAAAGUAUGAAGUACAAAGGACAAAAAAAAUGUAUCAAAAAAAAAAAAGAUACUAAGUCCAAAAGUACAAAAAAAAAAGUACAAAGUACAAAGUCAAAAAAAAGACAAAAUACAAGCAAAAAAGCAAAGAUAUACAAAAA'
p108
aF1.0
aa(lp109
S'Water Strider'
p110
aS'AAAAAGGAGUAAGCCACAGACUAAUGUUUCCAAAUGGACUGGUUGAGUACAUAAAGAUGCUCGAAAGAGAUACGCGGGAGACGAAAAAAAAAAAAAAAAAAAA'
p111
aF0.9611650485436893
aa(lp112
S'The Turtle(s) Move(s)'
p113
aS'AAAGUGAAAACAGGACUCUAUAUUGAAAAAAAAAAUAUAGAGGCGCGUACAAAAAGGGCUGAGGCCCAAAAGGGGAGGGAUCUAAAAAUGAUUCAAAAGGCGAACGAAAAAGAACGACUUAAAAGAGGAAAGUAUCCGAAAAAAGGAUACAAAAUUCGAAAGAAAAACAGUUAGGAAAAUUCGGAAAAAGAGGAGCAUAAAAAAUUACAAAGGUUCGAAAAAGAGCCAAAUUUCAAAAAGACGAAUCAAACAAAAAAAAUGAAAAACGUGAGACAAAAAGGGAAGGACUAUCAAAAAAAAAAGAUAGGGAAAAGCC'
p114
aF0.9873417721518988
aa(lp115
S'Adenine'
p116
aS'GUAUCACUAUACACUAUACACUAUACAGUAUAAAGUAUACAAAAGUAUACAAAAAAGUAUACAGUAUACAGUAUCAAAGUAUAUCAAAGAUAUACGAUACAUUAUACAGAUAUAUAUAUGAAACAUAUAUGAAAUAUCAGUAUAGAAAAGUAUAGAAAAGUAUAGAAAAGAUAC'
p117
aF1.0
aa(lp118
S'Tripod5'
p119
aS'AAUGCCGCUGGAAAACAGCCAACGAAAAGUUGGGUAGA'
p120
aF1.0
aa(lp121
S'Shortie 6'
p122
aS'ACGAAAGUAGCGAAAGUAGCGAAAGCAACGAAAGU'
p123
aF1.0
aa(lp124
S'Runner'
p125
aS'AAAAGAUACAGUACAAAAAGUAGAAACUACAGUACAAAGACAAGAGACCUAUGGUGCACUCGCGGGCUAUGCCAAACGCAGUCAAAGUCAAAGUCAAAAGACAGACAGUAUAAAAA'
p126
aF1.0
aa(lp127
S'Recoil'
p128
aS'AAAAAGUAUCAAGCAAGCAAGUCAAGUCAAGCAAGCAAAGCAGCAGACAGACAGCAGCAGAUACAAAAAAAAAAAAAAAAAAAAA'
p129
aF1.0
aa(lp130
S'[CloudBeta] An Arm and a Leg 1.0'
p131
aS'AAAAAGUCAGUGACAAAAGUGCACCUCAGCAAAAGCGAGAGACAAAAAAAAAAAAAAAAAAAA'
p132
aF1.0
aa(lp133
S'[CloudBeta] 5 Adjacent Stack Multi-Branch Loop'
p134
aS'ACCAGACGCGUAAGUGUGCUACGACAGUAGUGGGCAUAAUUGUCCGGAGGAAACUCCCUGGUG'
p135
aF1.0
aa(lp136
S'Triple Y'
p137
aS'AAAAUCUACUUUUGGACUAAUGUCUGAGUGAAAACUUUCGAAGAGUUCGUAAUUGGUUGUUGAAAGCCCCCAAAUGGUAAAAAAAAAAAAAAAAAAA'
p138
aF0.8865979381443299
aa(lp139
S'Misfolded Aptamer'
p140
aS'UUAAGAAAAAGGUAUGAAGAGAUCAAAGAAGGGGGGGGUUCGAAAAUUAA'
p141
aF0.92
aa(lp142
S'Flower power'
p143
aS'AAAAGGUACAUUGAAAUUCUUUCGCGUGCCAAGUGCAAGUGGAAUGUACGACGGGUAAUUCGGCGCUAUAGAAACUAUGUGCAAAAAAAAAAAAAAAAAAAA'
p144
aF0.9215686274509803
aa(lp145
S'Kudzu'
p146
aS'AAAAUGUGGGAUGAGAGUCAAUAAAGCGAAAGUUAAGGAAAGUCAAAGGGGGCAUAAUUGAAAUAGAUACCCCCUAUACGCUAAAAAAAAAAAAAAAAAAA'
p147
aF0.9603960396039604
aa(lp148
S'"1,2,3and4bulges"'
p149
aS'AAAACUGACAGUCGUAAAGACGAAAGCCAAGCAAAACUUGGUGCAUAAAGUCCGCAUUAACGAAAAGAGAGGAAAUAUAGGGAACCAAAAAAAAAAAAAAAAAAA'
p150
aF0.9047619047619048
aa(lp151
S'medallion'
p152
aS'GUAUUUGGUAUCCUAAUGGAUAUUCCCAAAAAACUGUCUAACGACAACAUCCAAAAGGAAACAGGUAAAAGUGUUUAGGCAAAAGUUUAGUAUCAAAGGGGAGUGAAAAUACGAGGUACAAAGGUACCUAGUCAAAAGACGGUAUACAAAAGUAUACAGUCAAAAGCCAGUUGAAAGACAGUAUUUAAAAGGAUACAGCAAAAAGACAGUAUGCAAAAGUAUACAGUGAAAACACAGUCAAAAGACGGGCUACAAAAGUGUACAGUCAAAAGGCGGUAUGCUAAUGUAAACAGCGAAAACGCAAUCAAAAGGCAGUAGACAAAAGUAUACAGGAUAU'
p153
aF0.8605341246290801
aa(lp154
S'[RNA] Repetitious Sequences 8/10'
p155
aS'AGCAAAAAAGCAAAAAAGCAAAAAAGCAAAAAAGUGAAAAAACAAAAAAGUGAAAAAACAAAAAAGCAAAAAAGCAAAAA'
p156
aF1.0
aa(lp157
S'Documenting repetitious behavior'
p158
aS'AAAAAAUUAAAAGUGAAUGCAAAGUGAAAGCAAAGUGAAUGUAAAGAGAAAUCAAAGUGAAACUAAAGAGAAAACGAAGUGAAACCAAACCGAAGGAAAAAAAAAGGGGAAAAAGUGGCUAAAAAGUGGCCAAAAAGUUCUGAAAAAAAGGCGAAAAAGUGGGAAAAAAGUGUCGAAAAAGUCGAAAAAAAGUCGAAAAAAAAAAUCAAAGUGAAGUGAAAGUGAAAGGAAAAUGAAACCAAGGUGAAAGCAAAAUGAAAGGUAAGGGAAAGCUAAGUGAACGCAAAGUGAAAUCAAAAAAAAAACAAAAAAAUGGGGAAAAAGUAGUAAAAAAGUGGGAAAAAAGUCGUAAAAAAGUGACUAAAAAACGGCGAAAAAGUGGCUAAAAAGUGUAUAAAAA'
p159
aF0.85
aa(lp160
S'7 multiloop'
p161
aS'GAUCGCGACGAAAGUCGACCUUAAAAGCGUGUUUAAUGAAAAUCGUUUCUCGAAAAGGAAAUAGUAAAGGGUGUUUAACGAAAGUAACGAUC'
p162
aF0.8695652173913043
aa(lp163
S'Kyurem 7'
p164
aS'AAAAGCUGUUGUCUCAAAGGAGCAUAAAACGUCAAGGUAAAUUUAGGGCCAGUAAAAUGAGAAGGCCAUUCGUGACUGAUAGAAAAAAAAAAAAAAAAAAAA'
p165
aF0.9803921568627451
aa(lp166
S'JF1'
p167
aS'AUAACAUUCUCGGUGUCAAGUACUAAAAGUAUACGGGAUACUAAGUAUCGAGCUAUAGGAUAUAUAUAUAUGUAAUCAUAUAUAUAUAUCAAGUCAAAAGACGGUAGAUAUGAAAACAUAUCUACUAGUAUCUAAUGAUACAUAUAGCAGAUGCCGUAUCAGUAUACAAAGUAUGAUCAAAAAGAUGCAUACAGUAUAUAUAUGAAUAUUUAUAUCUGAAAACAGAUAUAAAUAUUACAUAUAUAUAAAAGUAUCUAAAAUGAUACGAUGUAUAUGAAAAUAUAUACAUCAAUGUACGAAAGUACUAAGUACAAGAUACGAUAGAUUCAGUCAAAAGACGGGCUAUAGUGUUUAUGAAAGCAUAAUGCACAGAGAGAUGAUUAUGAA'
p168
aF1.0
aa(lp169
S'multilooping fun'
p170
aS'ACCUGAGAAAAAGUGAGAAAUAUGAGUCAAAAGGGU'
p171
aF0.8333333333333334
aa(lp172
S'Multiloop...'
p173
aS'GCACUGUGGCGUAAAAUGUCACUGAAAACACGGCCAAAAUGCAGGCAAAAGUCUUGCAAAGGCACUGUUAAGACAUCCAGAGAGUAAAAAAGUGCUUGUGGAAAUACGUAC'
p174
aF0.8918918918918919
aa(lp175
S'hard Y'
p176
aS'AAAAGCUGUCUAAUUAUUGCAAAGGUGAUAAGGCGGAUAUACAUGUAAUUAUGUAUAUCGAAGAAAAA'
p177
aF0.9705882352941176
aa(lp178
S'Mat - Elements & Sections'
p179
aS'AAAAGUCUCAGUAAGGGUGAGUCGUGUCGAACUGACGGGUCCCAAGGGUACACUGAGCAUGUGCUAAAGAUCACACGAUCGGGGUAAAAAAAAAAAAAAAAAAAA'
p180
aF0.9619047619047619
aa(lp181
S'Chicken feet'
p182
aS'AAAAGGGAUCAGGAAAGCGGAGAAUCUAAGUACUGGGGUUUCAACCAUUCAAAGGUAUGGCCUAAAA'
p183
aF0.8805970149253731
aa(lp184
S'Bug 18'
p185
aS'AGAGGCAGCAGUAACCGAGCAGCAAAGCGAGCAGGAACGAGCAAGCAAAAUCA'
p186
aF1.0
aa(lp187
S'Fractal star x5'
p188
aS'AAAAAGUAGAUUUAAGUACAAAAGUACAAGUGCAAAAGUACGAGUCCUAAUGGACAAGUAAAAAAUUACAAGGAUUUACAAAAUGUUUAUGGAAGAACAAAAGUUCAAGUGCAAAAGUACAUGUACGAAAGUACUAGUAAAAAAUUACAAUCAUAAACUAAAAGGAUAUAUAAGAUGGAAACGUCAAGUACAAAAGUACAACAGGAAAACCUGAGCUAAUAAUUUGGAAAUAUAUCCAAAAACUAUAUGUUAGUACAAAAGUACAAGUACAAAAGUACAAGUAGAAAACUACAAGUGAUAAUUUACAUACAUAUAGAAAAAGAAUAUAUAAGUACAAAAGUACAAUUACAAAAGUAGAAGAACAAAAGUUCAAGUAUAAAAAUACAAGUAUAUUCAAAAA'
p189
aF1.0
aa(lp190
S'Crop circle 2'
p191
aS'GAAAAAGUAAAGAGAAAUGCUAAAAAAAACUUAAAAAAAAAAAAAAAAAAAAAAAAAAAAUAGAAAAAAAAAAAAAAUGAUAAAAAAAAGCAAAAAAUUUAAAAUUAAAA'
p192
aF0.9636363636363636
aa(lp193
S'Branching Loop'
p194
aS'AGCACGAAAAAAAGUCAAUAAAAGUUGAAGUGCAAAAAAA'
p195
aF0.95
aa(lp196
S'Bug 38'
p197
aS'GCCCGUCACAGAAUGAAAUUAUAGGAAAUAAAGGUA'
p198
aF0.9444444444444444
aa(lp199
S'Simple Single Bond'
p200
aS'AAAAAAGGAAAAAAAUAGAUAAAAGAUCUUAAAAAAAACGAAAAAAAAAAAAAAAAAAAAA'
p201
aF1.0
aa(lp202
S'Taraxacum officinale'
p203
aS'AUGGAAAAAAUAUACGGGAAAAUACAAAGUUGGAAAGAGAAAGUGGGAAACACACAGUGCAAAAGACGGAGUGCAAAGGACACAGUUCUAUAUACGAUAUAUAUAUAAAGUAUGAUAUAUCAGUCUAAAGAUAUAUAUGAAGAUAUAGAAACUAUAUCACAUAUAUAUCGUACACUAUAGAAAUUAUAGGUACUAGACGAAGUGUAUAGAACGGGCGUAAUGAGACAGAGCAAAAGCCUCAGUCUAAAAGGGGCCGUAGGAAAGGGACAGCUCAAAAGACCC'
p204
aF0.900709219858156
aa(lp205
S'Headless Bug on Windshield'
p206
aS'AGCAGCAAAAAGCAUCUAAGCAGUCAAAAAAAAAAAAAAAAAAAAAAAAAGACAGCAAUGAUGGCGAAGUAGCAGACAAAUCAACGAAAAAAACUAAAAAGAAAAAAAUGGAUGAAAAGGACCUAGACAAAAAAGGCCGAGGGGUGUCGAGUGUAUAAAAAAAAAAAAAUGACAUUUAAGCAGAACGGGCAAGUAGGUAA'
p207
aF0.935
aa(lp208
S'Pokeball'
p209
aS'AAGGGCCGGCAAAAGCAAGGAAGACAUAGGUGUGAGGAAGGGGAUUAAAAAAUGUAUGACAACCAGGUACUUGCCACCAGCGUCGGCCAAAAAAAAGUAUAUGAAAAGGAAGGAAUAGAGGAGUGCAAGGAACGGACCAAUGAAACCAGGUGUGACCAGCUAUGAGUAUCCACCCAUAUACAAA'
p210
aF0.9782608695652174
aa(lp211
S'Variation of a crop circle'
p212
aS'AAAGUCAAAUGUUAAACUAAAAUGUAGAGACCGUAGGGGUCGAAUUCAAAAAAAGAAAAAAUGGUAAAAAAAAGAAAAAAAAAAAAAA'
p213
aF0.9545454545454546
aa(lp214
S'Loop next to a Multiloop'
p215
aS'AAGUAUAUGUUAAAAAGCGGAUAUCAAAAGAUAUCAGUAUAUCGAAAGAUAUACAGAAAAAAUGCAUAUACGA'
p216
aF1.0
aa(lp217
S'Snowflake 4'
p218
aS'UUUUAAGAAGAUGGGGUCAAAGCGAUUUAAAUUAUACCCAACGGGCACUGUCUAAACGACAAGUAGUAUCUACGGUGCCCAAAGGGUAUAGGAAUAUGGCGAAACCGUAGGUAUCGAAGAUAAAGUGGAAACCACCUUAUGCAAAAGCCAUAUAGGGAGAGUUAAAAUGUAUAUGUCAAGGAUAAAGAAGAAACUUCUAUACUAAAAACCUCUCCAAGCAUCUCAAAUCCGUACCUCUGAAAUAGAAAGUGGAAACCACGGUACCAAAAGGUUAGGCACGGAUCGCGAAAUAGUAUCGUAUAAAGUACAACUUGAAAUCAAUACUUGAAAAGGCGAUCCAGGAGGUUCAAAAGGUUUCAGUAGACACUGC'
p219
aF0.8864864864864865
aa(lp220
S'Mat - Cuboid'
p221
aS'AAAUCAAAAGCAAGCAAAAGCAAGCAAAAGAAGCAAGCAAAAGCAAGCAAGCAAAAUUAACAAACAAGCAAAAGCAAGCAAGGAAGAAAAAGCUAGCAAGCAAGUAAGGAAAAGCUCCCUCCCUCUUUCCCAAAAGCUCCGUCCCGCGCUCUCUCCCGAAAGUUCUCUCACUAAGUACCUCCAAAAAACUCCCGCGCUCUCUCCCUCUCAAAAAAGAUGGGUGGAUUGUUAGGUGGUGGUGGAUGCUUAGGUGCAUGAAGUUGGGUCGUUAGGAUUGUGGCGGUUAAUGGAUGGGUGGCGCAAGCAAGCAAGAAUGCUCAAUCAAGCAAGUGCAACCAAGUAUGGCAAGCAAGCGCAAGCAACGAAACCGCAAGAGAGAU'
p222
aF0.8289473684210527
aa(lp223
S'Misfolded Aptamer 6'
p224
aS'AAAAAAGUCAAAAAAUUAUAGCAGAUCCCAAAAAAAAGGGUGAGGAAAAGGUAGAAAAAAAGACAAAAAAAAAAA'
p225
aF1.0
aa(lp226
S'Snowflake 3'
p227
aS'CUCUCAAAAGAUGACGUGAAAACACAAGUUCGGUACAAGUCUAAUGACGGAACCAAAAGAUGGGAAACAACAAAAGUAUCCGCAAAAAGGCAAGUACAGCAUAAGUCAAAAGACGUGAGCAAAAGCUAGAAACUAGCAAAAGCGCGCAACAAAGGUUAAGUGCAGGGCGAGUCAAAAGGAUUGAGCAAAAGCUUGAAACGAGCAAAAGCACAAAACAAAAGACAAGCCCAUUACGAGGUAAAGGCCGUAAGCAAAGAAGAGAAACUCGCAAAUGCGUGCGCCAAAAGGCAAGUGGGGAUCAAGUCAAAAGACUUGAUCAAAAGGUAGAAACUAUCAAAAGCACGGGUCAAAGGACAAGAUCAGAACAAUUCAAAAGAAGACUGUAAAGACGGG'
p228
aF0.8320610687022901
aa(lp229
S'Hard Y and a bit more'
p230
aS'AAAAAGCAGGCCAAAUUCUAAUCGAUAUCUCCGAUGACAAGUGAAAACUUGCAAUUUUAGAAAAAGAAAGGAGCAGAUACCCUGCAAAAAAAAAAAAAAAAAAAAA'
p231
aF0.9716981132075472
aa(lp232
S'Mat - Lot 2-2 B'
p233
aS'ACUGAUGCCAACGAGCAAAAGAUCCCCGAAAAUGGAAAGGUUUUUUGCGUGAAAUGUGGUCAACGCAACCUGCCGCAUCUAAAACCAAUUCUGGUCAAAAGUAAAAGCGGAAGGGAAAAGGGGGGGUGGCUAACGUGAGCUAAUGUGCCACAAUUUGCAAAAGCACGUCUGAAAAGGAAAAUUGGCGCUGGUAAAUGCCGGUACUCUAAAAUAGGGACUCUUAAAAUGUCUUUGAAGCAAAAAAGAAAUUGUGGUGGAAGAAUAUGAGCGGCCCACUGAAGUUA'
p234
aF0.7429577464788732
aa(lp235
S'Shapes and Energy'
p236
aS'AAAAAAGUGUACACCACAAAAGAAAGUCCAAGAAAUGGGACGAGCGUGGGAGGUAAAAAGUUCGAAAGGAUCCAGUACUCGAAAAAAAAAAAAAAAAAAAA'
p237
aF1.0
aa(lp238
S"Spiral of 5's"
p239
aS'UAAAAGCAUCAAAGUAUCAAAGUAUCAAAAAUAUCAAAGUAUCAAAGUAUCAGGUAUCAAAAGGUUCAAAGUCUCAAAGUAUCUAUUAUCAAACUAUCAAACUAUCAACUAUCGAUGUAUCAGGUAUGGAGUGGCAUGUUUCAGGAAUCAGUACCCCAGACGUAUGAAAAACAUACUGAGGGUUUGAAAAUGGUACAAAAAGAUUCAAAAGGAAACUAAAGGUCACGAAAACAUACAAAAAGAUACUAAAAGAUAGAAAAAGAUAGAAAAAGAUAGAAAAAGAUAGAAAAUGAUAUAAAAAGAGACAAAAAGAGCCGAAAAGAUACAAAAAGAUACAAAAAGAUACAAAAAGAUAUAAAAAGAUACAAAAAGAUACAAAAAGAUGCAAAAAAAAAAA'
p240
aF0.9949622166246851
aa(lp241
S'Campfire'
p242
aS'AAAAGUCGAAGUAUCAAUAAUAACCGCAAAAGGGAGGUGAUCUAAGAUGCAUGUGGAUUGUCGGUAGGAGUGGCGAAAGUGCACCCUCUCAGCGUAACGAGUGAAAACGGUAUUGACGUUAAAGAAGCUACAGAAGCGCAAUAUGAACCAUGCGCCGGUUAGAGACUAGGAAACUAGCUCGACGCAAUCGCAAGGCGGGUCUGCAGAUCGGC'
p243
aF0.8207547169811321
aa(lp244
S'Anemone'
p245
aS'AAAGGUGACUAAUGUCAUCGAGCGGAAACGCUCCCGGACGGAAGUCUGGCGGCCGAAAGGCCGGUAUACGAAAGUAUACGGAUCGAAAGAUCCCUGUCAAAAGACAGGACGGCAAAGGCUGUCACAUCGAAAUUGGUGGGACUCGAAAGAGUCCGAAUCGAAAGAUUCCUACACGAAUGUGUAGGACCCGAAAGGGUCGUGUGGUAAUUCAUGC'
p246
aF1.0
aa(lp247
S'Fractal 3'
p248
aS'AAAAAGGUUGUUGAGCAAAGGCGAAAAAUCACAAAGGCAGGAAAAUCGAAAAAUCAGCCUAUAAGCUAAUGCGCAAAAGCAUACUCUCAGCAAAAGCUCAAAAGAGGAGUGGUCAAAAA'
p249
aF0.8907563025210085
aa(lp250
S'Kyurem 5'
p251
aS'AAAAAGUAGAUGGUUGAAAAAGGAGAAAAGCGCGUACAAACUGGAAAAUAGGUCCAUAAAAAAAUGUAGUGACCCCAAGAUUGCGAAAAAAAAAAAAAAAAAAA'
p252
aF0.9423076923076923
aa(lp253
S'Snowflake Necklace ( or v2.0 )'
p254
aS'GGUAGAUAUAUAUAUGGUACUAGCAAAAAACGGCAAAAAGCAGCAAAAAGCAGCAAAAAGCAGCAAAAAGCAAGUACAGUCGAAAAGACAGGAUGAGAAAAAAUCAGGAAAAAUCAGCAAAAAGCAGUAAAAAACAGGAAAAAUCGCAUUCAGGCAAAAAGCAAGUAGUAUCGAAAAGAAACAAAAAGUAGCAAAAAGCAUCGAAAAGGAGCAAAAAGCAGCUACACACGAAAAGUGGGUCUAACCGAAAAGAAGCAAAAAGCAGCAAAAAGCAGAAAAAAUCAGCAAAAAGGAUAGACAGUCAAAAAGACAGUAUGAGCAAAAAGCAACAAAAAGUAGCAAAAAGCAGCAAAAAGCAGCAAAAAGUAUAUACAAUAUAUGUAUCUACC'
p255
aF0.87146529562982
aa(lp256
S'Methaqualone C16H14N2O Structural Representation'
p257
aS'AAAAAAAGUGCAUUACAGGCAGUUUAAAAACAGGCAGGCAAAAGUCAGUCAGUUAAAAAGCAGUUAAACAAAAGUUACAUGAAAAAAGUCAGACAGACAGCCAGCCAGAAACAGUACGGUUAGAAGAAACAAAAGCAAAGCAAAAAAAAUAUAGAGAGUCAAAAGACUACAAAAGUAGUCAAAAGACCUCAUCAAAUUAUAGAAACAGUCAUUCAGUAAAUCAGUCAAAAGUCAAAAGACACACACUCAAAAAACAGAGGGUAAAAAGGCAUAUAUUAAAAAUAAAGAAAGUUGUCAAAAGAAUGUAAAAACAAAUCAAAAGACAACAGACAGUAAGAAGGACGGCACAAAAAAU'
p258
aF0.9126760563380282
aa(lp259
S"Cat's Toy 2"
p260
aS'AAAAUCGAAGACUAAAGCAUCGAAAUAAAAAAAAAAAAAACAGGAAAAGCAAAAGUAAUAAAAAAUCUAAAAAAGUCAAAAUCGCGUUUUUGAAAAA'
p261
aF0.979381443298969
aa(lp262
S'Zigzag Semicircle'
p263
aS'AAAGGAGUACCUGAAAAAAGUGUGUUGUUUAAAA'
p264
aF0.9411764705882353
aa(lp265
S'Short String 4'
p266
aS'AAAAAAUGACCAAGGUGUAAUAGUGACUUAAUAAAAAGAUAAGCCUGCCAAAAAUGUCGGGACGAAGACCAAGGCAAAAAAAAAAAAAAAAAAAAAA'
p267
aF0.9381443298969072
aa(lp268
S'Gladius'
p269
aS'GAAAACAAAGGGAUAAAGAAGAGAAGAAGGACAGUGAAAGUACAAAAGUACACUAUCAGCAGUCAAGAGUACAACCUUCCAAAAGAUACAUGAGAUUUCAGUAUCAGGAGAGAUCAAAGUCGAAGAUUGGAUCCCUUCGAGUACGAGGAUCCAGUGUAUCGAUGGGAACACAGUACGACAGACAAGAGAUAGACACAAAGUCGGCAUCACAAGACAGAUGGACAGAAGAGCAGUUGAUAUAGAGAUUAUACAGAUAGAUAGCAGUGAGUAUACGAAAGUAUACAACACGACUAUGGAUCUCAAUAAUGACUAUAUCUCGAGCUCACAAGUCCUUGGGUCAGAAGAUGCAGUUCAAAAGGACAAAGACAGUCAAACAAACAAAGAAACGAGGCGAUAAAAG'
p270
aF0.89
aa(lp271
S'Thunderbolt'
p272
aS'GUUAGUAUAAAAAAAAAUGGUAAGAGUGGGAAGAAAGGAAUCUACACUAAAAAAAACGAAAAAAGGUCAAAAAGGCCAAAAAACGGAGAAGGUAGAAAAAAACCCAAAAAAGAGUGGGAAAGUUAAAACGAAAGAGGAUGAAAAGUCAAAAAGCGGCAUAAAGAGUGGUAAAAAGACAGUAUAAGUAAAAAAAGGAGAGAAAAUCAUAACGAAAAAAAAAAAUACAAAAAAAAAUCCAGGAGGUAUAAAAAUUAUACGAUCGGCAAAAAAAAAAAAGUAACAAAAAAAAAGGGCGAAAGAUUCGUCGAAAAGUUAAAAAGCAAAAAGGUGAAAAGAUCAAUGUGUAGAUAAAAAAAAGAUUAAAGAAAAAAAGAAAAAAACAUAUACAUGCG'
p273
aF0.8775510204081632
aa(lp274
S'Mutated chicken feet'
p275
aS'GAAAAAAGUAGCCGCAAAGCAUCAAAAAAAUGCACACAAGCAAUAAAGGAGAAAAGUAAAGCGCGGGAGCGGGAAAGCAUCGAAGAAAAUCCUAAAAAAA'
p276
aF0.82
aa(lp277
S'Chicken Tracks'
p278
aS'AAAAAAAAGGAUGUCCCACGAAAGUGGAUUUACAAAAGUAAUAGUACGAAAGUACGAUAUUCAAGCCCUGGGAACCAGAAGCAUUAUGUGCAAGGAGAAACUCCGGCAAAGAAAAA'
p279
aF1.0
aa(lp280
S'Looking Back Again'
p281
aS'UCGAAAGCUAUGAAAAACUAUGCAAAGCACAAAAAUAAUUUCGUCAAGUGAAACACAAAACGAUCAAGAUUCAAAAGGAUAAAAGAUUGGAGACAAAAUGAUCGGUGCGAAAUGGAUUAAAAGAUCCUAAAAAGCACGUGGAUAGGAAACUUAGGGAUUAAAAAUCCGUAUAGGCAUGUGGAAGGGCAGGGGGUCUAAAAGGACAACAGGGCAAGCUGCGUCAAAUGACAACUAUACAAAUAGUACUGAUGUACCCUUUAUAAAAUGUAAGUUAAAAAAAAUGUCGAAAAGGCAAGCUGAAUACUUAGAGUACAAAAAGGUGUAUGCAAAGGCAUACAAAUACAAAGUGUGGAUCAAAGAUACUAAGUUCAAAAGUAUGAAACUACUGG'
p282
aF0.8431876606683805
aa(lp283
S'Multilooping 6'
p284
aS'AAGCCUUAUUCUCCCAUAGGGGGGCGGUGAAAGAAUUGGGUCAAGGGUCGAAAGGCUUGACGCUCAUCAGGCCACAUGGUGA'
p285
aF0.926829268292683
aa(lp286
S'Cesspool'
p287
aS'CUAUUAAGAAAUAAGUAUACAGCGUGUAUCAAAACAAGGGGAUAAGGUAAAAAUUACGUGGAAAGGUGGGUGAGGAAAAAUAUAAUCAAGGGUAAGAAAACAAGUAUCAAGAUUUAAAAAGAAAGAGUGCACAGGAGAUAAUUAACAAGGCAAAAGGGUAGAGAGAAAAAACGGCCAAGCGAUGAGAAAACAAGGCACCUGACCCAAUGAGAGCUAAGAUUUAAGGGCAAAGGGCUAGAGAAAAGGGUCAGAGUGUAAAGAAAGAGUAAGUAAUGAGAAAACAAGACUCCAAAGGGAAAUUCAAUAAGUGAUCGAGGGCAAAAGGGAAGAGGAAAAGGGAAGAGUGAAAAGAAAUGGC'
p288
aF0.7067039106145251
aa(lp289
S'Hoglafractal'
p290
aS'AAUAGAUCGUAUCAAAAGUGGUGAAAAAAACGCGAUACUUAGAAACAACAAAAAGUUGCUAAGUCAUGUCAAAAGCCGACCAAAAAAGUACAAAUUGUGAAAAAAUAAGUACGUCAAGACGAAAAGUCGACGCACAUAAUGGGCAUAAUAAAAUUCAAAUCAAAAAGGGUAACGGAGCUAAAUGAGCCGCAAAAGAGAGGGACGAAAAUUAACGAAAAAGCAAGUCAAAAAGACGGAAAGCCAGUAUAGGAAAAACGCAAAAGAGCGAGGAAAAUUAAUGUAUCUGAAAUAGAUACUAAAAAAUUAUACAAAAAAGCCACGAAAGAUUAGAAAUACUAUUCAAAGAAGAGCAGUACGAAGGCUAAUGCACAAAAGUUAUAUCAAAGAUAUGAGUGCGCAC'
p291
aF0.855
aa(lp292
S'Bullseye'
p293
aS'AAAGUCGUAGAAAGUACAAGCAGAAACCACAAGUGGAAGCGGUGACAAAAAAAAGUCUAGGAAACGCCAUGUAUAAGCUACUACUAAUAUUCUGAACAAAAAAAAGUCGCGGUAUUCACAAGCAUAAAGUUAAAGUAUGAAGUGCGACAAAAAAAAAUCGUCUGAAGGGCAAGUCGUAUCGACAAGGAAAAACUACGAUAAA'
p294
aF0.7920792079207921
aa(lp295
S'Shooting Star'
p296
aS'GUAUCGGCACCGAUAUCGAAGAGGGGAACUCAGAGAAGAAAGCGACUGCGAGGAACGACUAAGAUAUCGAUUAAGAGCACGGCUGCAGAUAUGUAGUCAGAUCAGGAAAGCAAGAUGCGACAACAUGACAGAAAGGAGCGGCGAAAGGAGAAAACGCGGAAAGAAAUUUUCAGCGUCAAAGAUACGACGAAAGACGCGCGAAUACAGUACAGUACAAAGUAUAUAAAAUAUAUACAGUGUUGAAGACACGUAUGUAUUAGUAUCUAGUACACAUUUAAAGAGUGGUCCAGACAAGAAAGUGGGCGGGGGCAGAGUCAGUACAGAAAAACGCGUGCCGACCCGAGAGCAGAGCGUUCACGAUAUG'
p297
aF0.8241758241758241
aa(lp298
S'Teslagon'
p299
aS'AAAAAAGAAAAAAAGCCAGGGAAGGAAGCAGCAAAAAAAAAAAAAAAGCAACGAGUAUCCAAAAAAAAAAAAAAAAGGGCGAAAAAAUCACGAAAAAGAGCAAAAAAAAAAAAAAGGGAAAAAAAUCGCUAAAAAAUGUAAUAAAAAAAAAAAAAAAGUAAAGAGUUUAUAAAAAAAAAAAAAAAAGUGCUAAAAAGAAGGUGAAAAAGUGAAAAAAAAAAAAAAAUAAAAAAAAGCACGACAAAAAGCGACAAAAAAAAAAAAAAAGUAAAGAGUUAUUUAAAAAAAAAAAAAUAGAGCAAAAAACUGGUGAAAAGAAGGGAAAAAAAAAAGGGAAAAAAAAAAAAAAAUCAUUAAAAAAACGAGGAAAAAAAUUAAAAAA'
p300
aF0.8717277486910995
aa.