(lp0
(lp1
S'Simple Hairpin'
p2
aS'GAUACAAAAAAGUAUC'
p3
aF1.0
aa(lp4
S'Arabidopsis Thaliana 6 RNA - Difficulty Level 0'
p5
aS'GAUAUACGAAUGACGAAAAAAAAAAGUCGAUAUUUCUUCUAGAUAUAUAUGGAUAUCAAAGAUACAAAAAAGUAUCAGAUAUCGCAUAUAUAUUUAGUUGAAAUAUCAAGUAUAUC'
p6
aF1.0
aa(lp7
S'Prion Pseudoknot - Difficulty Level 0'
p8
aS'GAGAUCAGUACAAAAGUACGAUACUCAAAAAAAAAA'
p9
aF1.0
aa(lp10
S'Human Integrated Adenovirus - Difficulty Level 0'
p11
aS'GAUAUAUAUGGAUCAGAUAUCGAAAAAAAAAGGUACCUACGUCCACGGGGCCAUAUCAGAAGGGAUAGACAUACAAAAAAAGGUAUGUCUAUAAAACCCGAUAUAAAAGGCGGAAAAUCGUAGAAAAUUUACAAAAAAGGUAAAUGUACAAAAAAAAAAAAGAUAUCGGAUCAAAACAUAUAAAAUAUCAAA'
p12
aF1.0
aa(lp13
S'The Gammaretrovirus Signal - Difficulty Level 0'
p14
aS'AAGAGUUCUAUACAAAAGUAUAGUUCGCAAAAAAGUACAAGACAGAACCAUAAGAAAUUAUGCAAAGUUCGUCGUACAAGAUAUAUCAAAAGAUAUAUCAA'
p15
aF1.0
aa(lp16
S'Saccharomyces Cerevisiae - Difficulty Level 0'
p17
aS'GGGAUUGCUACAAAAAAAAGUGGGGGGAAAAAAAAAAAAAACCAAAAGGCUGGAAAAAACAGUCCGAUUCCAAAUGUUCGAAGAUUCCAAAAAAAAGGAACGCUCAAAAAAAAAAUGCGAAACCGGUGAAAAAAGUACUGUUUGAACUAAGGCUUCGCAACUACAAAAAAAGGUAGGAAACCAAAAAAGGGUUUCGAAUGAUAGGAAAAAACUAUCGCGGAGCAAAAGGUAUUUAACUCCAAAAAAAGGGAGUCUAUCAAAAAAAGAUAGAAAAGCGUACUAAAAAUGUAUGGAAUACCGAAAGGUGUGCAAGUUGAAAAAAAGCAGCUCUGGCGAAAAAAGCCAGAAAAUGAUGGGAAAAAACCAUCGCACAUCAAAA'
p18
aF1.0
aa(lp19
S'Fractal 2'
p20
aS'AAAAAGAGGUAGCAAACUUUAUAUACAAGAACAAAAAAAAAAGUUCAAGUACAAAAAAAAAAGUACAAGUACAAAAAAAAAAGUACAAGUAUAUAGAGAAUGAUAUAUAUCAGGACUAAAAAAAAAAAGUCAAGUACAAAAAAAAAAGUACAAGUACGAAAAAAAAAGUACAAGAUAUAUAUCUAAGAUAUAUAUCAGGCAGAAAAAAAAAACUGCAAACUCUAAAAAAAAUGAGUGAGGACAAAAAAAAAAGUCCGAGAUAUAUAUCAAAGCUAUCUCAAAAA'
p21
aF1.0
aa(lp22
S'G-C Placement'
p23
aS'AUGCUAUGCAUA'
p24
aF1.0
aa(lp25
S'The Sun'
p26
aS'GAAAGAAAUACAAGGUAUAACUCUUCAAAGACAGCGACAGAAACUGUAACGCGUCAAAGACAAGGGUAUAAAAUACUAAUCGCCGAACUCACAGGGACAAGGUUUAAGUGGAGGAAAACAGAAACACGAAGUCUAAUUCGUUGAAUACAUGGUCCUAAGGUAUAACCGGUCGAAGAAAGAGAUACGAAGUAUAACUCUUCGAAGACAACGCAACAAAGUUGAAUGUGUCAAAGACACUGAUUGUAUCGAUAUCGGGUC'
p27
aF0.8449612403100775
aa(lp28
S'Frog Foot'
p29
aS'AAAAAAAAAGGUCCAAAGGGAUUCACUAAUGUGAGGACAAAGUCC'
p30
aF1.0
aa(lp31
S'InfoRNA test 16'
p32
aS'GUUAUGUCAGAUAUCGAAAGGUAUACUAGUCAUAGC'
p33
aF1.0
aa(lp34
S'Mat - Martian 2'
p35
aS'GUUAAAAGUGGCAAAUAUAUACAAGUUAUGCUAAAAAUGUAUAACGUAUAUAGAAGAACAUACAAAAAGGAUAUACAGAUAUACUAAAAAUGUAUAUCGUAUAUCAAAGAUAUAGAUUUAUCAAAAAAGGAUAAAUACUAUAUCGAAAAAGUAUGUUCGAUGAAUAUGUAUAUACUAAAAAUGUAUAUAAUCAUAUUCUAAAUACGAAAGUAU'
p36
aF1.0
aa(lp37
S'square'
p38
aS'GAUAUACCAUAUCCAUAUACCAUAUCAAAGAUAUGAAAAGUAUAUGAAAAGAUAUGAAAAGUAUAUC'
p39
aF1.0
aa(lp40
S'Six legd turtle 2'
p41
aS'AAAAAGCAAACGAAAAUUAAAGCGAAAGCAAAGAGAAAUUAAGGCGAAAGUAAAACAAAAGUAAAGGAAAAGCAAAGCAAAAAAAAAAAAAAAAAAAA'
p42
aF0.9591836734693877
aa(lp43
S'Small and Easy 6'
p44
aS'GAAGGUAAAUCCAAGCAAAAAAAAGGCUUU'
p45
aF0.8666666666666667
aa(lp46
S'Fractile'
p47
aS'AAAAAAAAAAAAGCAAAAGCAAACCAAAGCAAAAGCAAGUUAAGGAAAACCAAUACGACCAAAAGGAAAGGAAGCGAAAGCAAAAAAAAAAAAAAAAAAAAAAAA'
p48
aF1.0
aa(lp49
S'Six legd Turtle'
p50
aS'AAAAGUAAAAUUGAAAGCUUAAAGCUAAUCUAAAGGUAAAAUUAAAAGGAAAGACAAAGGGGAAAAUAAAGUGGAAAUGAAAGUAAAAAAAAAAAAAAAAAAAAA'
p51
aF0.9619047619047619
aa(lp52
S'snoRNA SNORD64'
p53
aS'GAUAUCAAAAAGACAAAAGACAAAGAUACAAAAAAAAAAAAAGUAUCAAAAGUCAAGUCAAGAUAUC'
p54
aF1.0
aa(lp55
S'Chalk Outline'
p56
aS'AAAAAGUACAGAGAUAAAAGUACUCGGACAGACUAAUGUCGUCAGAUGGCUAAUGCACAUCAGGCACAAAAGUGACCGUACAAAGAAAAAAAAAAAAAAAAAAA'
p57
aF1.0
aa(lp58
S'InfoRNA bulge test 9'
p59
aS'GAGAUACAGAGAGUAUUACACGAAAGUGUAAUCCCGUAUUUC'
p60
aF1.0
aa(lp61
S'Tilted Russian Cross'
p62
aS'AAAUUGUAGGUCGGAAACGACGCACAGCGCUAAUGCGCGGUACUAAUGUACCACCUCUAAUGGGGGUGCCAACGAAAGUUGCUACUAAAAAAAAAAAAAAAAAAA'
p63
aF1.0
aa(lp64
S'This is ACTUALLY Small And Easy 6'
p65
aS'GAAAAAAAAAAAAAAAAAAAAAAAAAAAAAAAAAAAAAAAAAAAAAAAAAAAAAAAAAAAAAAAAAAAAAAAAAAAAAAAAAAAAAAAAAAAAAAAAAAAAAAAAAAAAAAAAAAAAAAAAAAAAAAAAAAAAAAAAAAAAAAAAAAAAAAAAAAAAAAAAAAAAAAAAAAAAAAAAAAAAAAAAAAAAAAAAAAAAAAAAAAAAAAAAAAAAAAAAAAAAAAAAAAAAAAAAAAAAAAAAAAAAAAAAAAAAAAAAAAAAAAAAAAAAAAAAAAAAAAAAAAAAAAAAAAAAAAAAAAAAAAAAAAAAAAAAAAAAAAAAAAAAAAAAAAAAAAAAAAAAAAAAAAAAAAAAAAAAAAAAAAAAAAAAAAAAAAAAAAAAAAAAAAAAAAAAAAAAAAA'
p66
aF1.0
aa(lp67
S'Shortie 4'
p68
aS'UCGAAAGAAGGGAAACC'
p69
aF1.0
aa(lp70
S'Shape Test'
p71
aS'AAAAAGAGUACAAUAUACAAAAAAAAGUAUGGAGUAAGACACAUACUAAAUGUAUGAGUACAAAGGUACAGUCUACAAGUACGCAAAAAAAAAAAAAAAAAAAA'
p72
aF1.0
aa(lp73
S'The Minitsry'
p74
aS'GGCAAAAAGAGAAAAGGACAAAAGGAGAAAAGGCCAAAAAAAGGGCAUUCAGUCACUCAGCC'
p75
aF1.0
aa(lp76
S'stickshift'
p77
aS'AAGAUAUCCCAAAAAGGAGAUAUCAA'
p78
aF1.0
aa(lp79
S'U'
p80
aS'AAAAAGAUACAGAGAGCAGAGAUAUAUACAAAAGUAUAUAUCCGCCCGUAUCAAAAA'
p81
aF1.0
aa(lp82
S'Still Life (Sunflower In A Vase)'
p83
aS'AAAGUUCAGGAUGGAAAAUCUACUAGUACAAAAAUUGUAAACAAGUGAAAAAUUUCCGUAAGCGAAGCAGAAAGAUAUUAAAUAUGUCGAGGGACAAAAAUACUGAGAUGUGGUCAUGUAUAAAUAUACGCUACAAAAAAGUAGCAGAUGCAAAAAAAAAAAAAGGACUAAAAAAAAAAAAAAAAAAAAAAAAAAAAAAAAAAAAACCUGUCCGAAAAAAAAAAAAGCAUCGAAGCUAAUGCUUCAGUAUAUUUAUAUAUGGUCACAUCAACAUAAGAAAAUUAUGGAAAAAUAAAAAGCACUAAGGUGCAAAAAGUAUCAUAAGGUAAAAAAUAUCUGAGUAAAAAAUUACUAUCCUUCUAAAUGGGGGUGGACAAA'
p84
aF0.9312169312169312
aa(lp85
S'Quasispecies 2-2 Loop Challenge'
p86
aS'AAAAACCACGGACUUCUUAUAAUUGAGUUGUCCAGCCUAACUAUGGGAGGCGGAGCUGUUGGCCGAAAAGGCUGGAUGCUUGUGGGAAAAAAAAAAAAAAAAAAA'
p87
aF1.0
aa(lp88
S'Corner bulge training'
p89
aS'AGAUAUCGAUACAAAGUAUCAAAAGAUAUCA'
p90
aF1.0
aa(lp91
S'Spiral'
p92
aS'AAAAAGUACAGAUAUCAGACAGAUACAGUACAGUACAGCAGCAGCAGCAGCAGCAAAAAGCGCGCGCGCGCGUACGUACGUAUCGUCGAUAUCGUACAAAAA'
p93
aF1.0
aa(lp94
S'InfoRNA bulge test'
p95
aS'AAAAAAAAAAAAAAAAAAAAAAAAAAAAGGAGAUAAAAAGGACUAAACCCCAAAGGUCGGCUCCAGUCAUAAAUUGCGCGGGAAGAAGAGCCAAAGGAGGAAAAUGUACUGAAAAUUCAUCA'
p96
aF1.0
aa(lp97
S'Worm 1'
p98
aS'AAAAAAAGGAAGUUGGACAAGGAGAAAACAUGGUGGCAAAUUUAC'
p99
aF0.9111111111111111
aa(lp100
S'just down to 1 bulge'
p101
aS'AAAAAGAUCACUAUCAAAAGAUAGAGACAAAAGUCAGACUCAAAAGUACAGACAAAAGUCAGACAAAAGUCAGUACAAAAAAAAAAAAAAAAAAAA'
p102
aF1.0
aa(lp103
S'Iron Cross'
p104
aS'AUACGGGAGAAGACUUACAAAGUAAGUCAAAAGGCCUUCAAAGAUACUAAAAAUUAGGAGAAAUUCGGCCAAACGUUUAUAAAAGUAUGACAAUGUCUAUCAAAUCCGAACAAACUAAGUAAA'
p105
aF0.9512195121951219
aa(lp106
S'loops and stems'
p107
aS'AAAAAGAUAUGCAAUGUACAAAGUAUAAACUGGUAAAAAAAAGAUAGUAAAAAAAAAAUCUAUCAAUCCGGAAAAGUACAAAAAAAAAAGUACGAAAUACAAAGACAAAAAAAAGUCAAAGUACUAGCGAAAAAGCGAAGUAUAUCAAAAA'
p108
aF1.0
aa(lp109
S'Water Strider'
p110
aS'AAAAGACAUGAGUUGCUAGUCAAAGGGCUACAAAAGUAGUCGAGGGGGUCUCUAAUGGUAUGAAACGAUAGUCAGAGCGGAUAAAAAAAAAAAAAAAAAAAAA'
p111
aF0.9320388349514563
aa(lp112
S'The Turtle(s) Move(s)'
p113
aS'AAACCAAAGAGAUGCAAUGCGUUAGAAAAAAAAGAACAAACCAAAAGUAUAAAAGGUACGAAAAGGCAAAAGCCGAAGAGUCAAAAAAAGCUUCAAAAGUGGAGAGGAAACUAAAAGCAGAAAACUGAAAAGACAGCAAAAAAAGCUGUUAAACUUGAUAAAAGCAAAAGAUAUGAAAAAGCCAAAAACGCUAAGACGAAAAAAAGUCGAAGAUACAAAAAAGUAUUGAGGUUCAAAAAGAACAACAUAUCAAAAAAAAUGCGAAAGCUAAAAGCGAAAGCAAAAAGGCUAUAAAAAAAAAAAUAGCAAAAAACAU'
p114
aF0.9746835443037974
aa(lp115
S'Adenine'
p116
aS'GAUACAGUUUACAAAGAUCAGAUAUGAGAUAGCAGAUCUGAAAAGAAGUCAAAAAGGGCUUCGUAGAUCAGCCACAAAGAUAUGCAAAGUAUAUCGUGGCAGCUAUCGGAUAGAUAUAUCUAUGAUAUAUAAACUAUCAUAUAUCAAAAGAUCUUGAAAGUAGGCAAAAGUAUC'
p117
aF1.0
aa(lp118
S'Tripod5'
p119
aS'AACGCCCGACUAAAUGUUGGUCCAAAAGGGACGGUGGA'
p120
aF1.0
aa(lp121
S'Shortie 6'
p122
aS'CAGAAAUGAGUGAAAGCAGCGAAAGCGCCGAAAGG'
p123
aF1.0
aa(lp124
S'Runner'
p125
aS'AAAAAGGCAAGAAAGAAAGAUUCAAGGAACGUUGCAAUGAUUCGAUUCCGAAAAAAAUGUCGAAAUCAAAGGAAAUUUUUGAUCAGUGCAAGACUAAAAGGCGGUCAAGUCAAAAA'
p126
aF0.8879310344827587
aa(lp127
S'Recoil'
p128
aS'AAAAAGAUACAAGCAAGCAAGACAAGACAAGCAAGCAAAGCAGCAGUCAGUCAGCAGCAGUAUCAAAAAAAAAAAAAAAAAAAAA'
p129
aF1.0
aa(lp130
S'[CloudBeta] An Arm and a Leg 1.0'
p131
aS'AAAAAGACAGAGACAAAAGUACUCGACAGCAAAAGCGUCAGUCAAAAAAGAAAAAAAAAAAAA'
p132
aF1.0
aa(lp133
S'[CloudBeta] 5 Adjacent Stack Multi-Branch Loop'
p134
aS'AUACGGUUCGAAAGGACGUAACAAAAGUUACGAAGCGAAAGUUUCCACCAAAAGGUGCGUAUA'
p135
aF1.0
aa(lp136
S'Triple Y'
p137
aS'AAAAUGUAUGCAUGUCUAAAGGUAAUUACUAAUGUAGCUGCGUGCGCAUAAAGAUACCCAAUAAUUCGGCCACAUACUAAAAAAAAAAAAAAAAAAA'
p138
aF0.9175257731958762
aa(lp139
S'Misfolded Aptamer'
p140
aS'GCACUAAAAACCGACAAAGUCAGCAAAGGCAAAAAAAAAGGGAAAUGUGC'
p141
aF1.0
aa(lp142
S'Flower power'
p143
aS'AAAAAAUAAACACGAAGUGGAAUAAACAGGAACGAAAAGUCCACAGGGCAAGGACAAAGUAUAUAUGAAUUUAUGAUGUGACAAAAAAAAAAAAAAAAAAAA'
p144
aF0.8627450980392157
aa(lp145
S'Kudzu'
p146
aS'AAAAGGAGUGAGAUUGCUGAAGGCAGCGACGAGUACCUAGCAUCUGAACGCAGGCGAGAUAAGAUCGAACCAUUAAGUUUCAAAAAAAAAAAAAAAAAAAA'
p147
aF0.9603960396039604
aa(lp148
S'"1,2,3and4bulges"'
p149
aS'AAAAUUUUCAGCCAGGAAAUGCAAAGUCGGGUAAAGGUCAGAAGCUAAAGUACGGGUGAAAGAAAUAAGGCAAAGCUCUCUAGAAGUAAAAAAAAAAAAAAAAAA'
p150
aF0.9238095238095239
aa(lp151
S'medallion'
p152
aS'GAUAUCAUAUAUCAAAGGAUAUAAGGGUAAUCCCAUUCGAAAGGAAGUGUGCAAAACCUUAUAUACAAAAGUAUUAUCUGGAAACAGAUAUGGCAAAAGUCGGACAAAAGACUAAGAUGAAAACAUUUUUUCCAAAGGGAAGAUAUAAAAAUAUAUCAAACAAAAGUAGUAUAAAAUUAAUGAAUCAAAAGAUUUAAGCCAAAAGACAGUUAACAAAGGUUGACACACAAAAGUGGAUCAAAAAACGUGUUAAAAAAUUAACAAGCAAAAAGUUAUAGAUCAAAAGAUUUAAUACAAAAGUAAUAAAAAAUUAGGAUUUCUAAUGAAAUAAGAUAUC'
p153
aF0.8753709198813057
aa(lp154
S'[RNA] Repetitious Sequences 8/10'
p155
aS'AGCAAAAAAGCAAAAAAGCAAAAAAGCAAAAAAGCAAAAAAGCAAAGAAGCAAAAAAGCAAAAAAGCAAAAAAGCAAAAA'
p156
aF1.0
aa(lp157
S'Documenting repetitious behavior'
p158
aS'AAAAAAAGGAAAAAAAAAGCGAAAAAAAACUGAAAAAAAAGCUAAAAAAAAGCGAAAAAAAAGUAAAAAAAAACUAAAAAAAAAGAAAAAAAAAAGCAAAAAAAAAGCAAAAAAAAAGGAAAAAAAAUACAAAAAAAAAUAAAAAAAAAAGUAAAAAAAAUGCAAAAAAAAAGCAAAAAAAAAUCAAAAAAAAAGGAAAAAAAAAUCAAAAAAAAGGCAAAAAAAAAUCAAAAAAAAAGCUAAAAAAAAGCAAAAAAAAAUAAAAAAAAAAGCUAAAAAAACGCAAAAAAAAAGCAAAAAAAAAGCAAAAAAAAAGCAAAAAAAAAGCGAAAAAAAAGCAAAAAAAAAGCAAAAAAAAUGCAAAAAAAAAAGGAAAAAAAAGUAAAAAAAAACUGAAAAA'
p159
aF0.955
aa(lp160
S'7 multiloop'
p161
aS'CCGCGAGACAAAGGUCUCCACACGAAAGUGUGCUAGUGAAAGCUAGCCCUUGAAAGAGGGGUUACUAAUGUAACGAAGCGAAAGCUUCGCGG'
p162
aF1.0
aa(lp163
S'Kyurem 7'
p164
aS'AAAAAUUUAGUAGAUUAAUGUCGUCAAAAAUACUUAUGAAAAGUGUGACUUCUAAAAUGAGAAAAUACUAUGACAUAGGAGAAAAAAAAAAAAAAAAAAAAA'
p165
aF0.9803921568627451
aa(lp166
S'JF1'
p167
aS'GAUACAGAUAGAGAAAUAAGAUACAAAAGAUAUCAAGGUACAAAGAGACAAGGAUACAGAUAUAUAUAUAUCAAAAGAUAUAUAUAUAUCAAGACGAAAGUCAGAUAUAUACAAAAGUAUAUAUCAAGAUACAAAAGUAUCAGUAUCUAGUCUCAGUACCAGAUAUCAAAGAUAGAUCAAAAAGAUACUAUCAAGAUAUAUAUGGAUAUAUAUAUAUCAAAAGAUAUAUAUAUAUUGCAUAUAUAUCAAAGAUACAAAAAAGUAUCGAUAAUAUACAAAAGUAUAUUAUCAAAGUACAAAAGUACAAGUAUCAAGUUUCAGUACAGACAGACAAAAGUCGUCGUACAGAUGCAUACUAAUGUAUGCCAUCACUAUACUGAUAUCAAA'
p168
aF1.0
aa(lp169
S'multilooping fun'
p170
aS'UCACCGGGUUAAAAAGAAAGUCUAUGAGAUCGCAGA'
p171
aF0.8333333333333334
aa(lp172
S'Multiloop...'
p173
aS'GUGCAGUACAGACGAAAGUCAGAGAAAGCUCAGACAAAAGUCAGCGAAAACGCAGACGAAAGUCAGACGAAAGUCAGUACAGGUACAAAAAAGUACCGGCAAAAGCCGCAC'
p174
aF1.0
aa(lp175
S'hard Y'
p176
aS'AAAAGGCGGGCUCUUUAUAGAAAGCUAUGAAAGGCGAUAUAUAUCGAAAGAUAUAUAUCAGGCAAAAA'
p177
aF0.9705882352941176
aa(lp178
S'Mat - Elements & Sections'
p179
aS'AAAAUGUUCUGAAGUAGUGGUCUGUAUAGUAGUUCAUCCGAAGAAAUUCUGCCGAACGACAUACCAAUGUUCACGGAAGCUGAACUAAAAAAAAAAAAAAAAAAA'
p180
aF0.9619047619047619
aa(lp181
S'Chicken feet'
p182
aS'AAAUGUCAGCAGUUAUCUGUCGAAGAAAAACGAAUCAAGUGGAAACCUUCAAAGCGAUUAGAAAAAA'
p183
aF0.8507462686567164
aa(lp184
S'Bug 18'
p185
aS'ACCGCCAGAAGUAUCAAAGUAGGAAACGAGCAGUCUUCACCCUAGAAAAAGGA'
p186
aF0.8867924528301887
aa(lp187
S'Fractal star x5'
p188
aS'AAAAAGUUGUAAGAGCUAUGAAAAUGGAAAUACAAAAGUAUACGUACAAAAGUACAGGAAAAAAAUUUCAACUUAUAACGAAAAGUUAUAUCGAGUAUAAAAAUACGAGUUAGAAAUGACGGUUACAAAAGUAGAAAUGCAAAAGCAUAAGAUGUAACAAAAAGUUUUAUUAGGUGGAAAGUCACACGUAAAAAAUUGCAGGUAUAAAAAUACAAGGUCGAAAGGCCGAGAUAGAACCAAAAGAUAUUGGAUGUACAAAAGUACUAAUUCAAAGGAAUAAGUCGAAAGUGGCAAGAAUAAAAAUUCAACCGAUAUCAAAAAGGUACAUGAAGGAUAAAAGUUCAACUGGAAAACCGGGAGCACAAAAGUGCAAUUGUAAAAGCGAAACAUGUAUCAAAAA'
p189
aF1.0
aa(lp190
S'Crop circle 2'
p191
aS'GUGAAGUAAAAGAUAAAAAUAAAAAAAAGUCUAAAAAAAAAAAAAAAAAAAAAAAAAAAAUGAAAAAAAAAAAAAAAAGUAAAAAAAAUUUAAAAAAAGUAAAAGUAAAA'
p192
aF0.9636363636363636
aa(lp193
S'Branching Loop'
p194
aS'UGUACGAAAAAAAGGCCAGUAAUCUGGAAGUGCUAAAAAA'
p195
aF0.95
aa(lp196
S'Bug 38'
p197
aS'AGAACGGCUAGUGAUAAAACUAAAGAACGAAAAUCG'
p198
aF0.9444444444444444
aa(lp199
S'Simple Single Bond'
p200
aS'AAAAAAGGAAAAAAAUGGCCAAAAAGGUUUAAAAAAAACGAAAAAAAAAAAAAAAAAAAAA'
p201
aF1.0
aa(lp202
S'Taraxacum officinale'
p203
aS'GUGGUAAUCACACAGGGCAAAAGAACUGAUCCGUAAGAGAUUGAACAAAGGACUCAGUGGAAAGACCACUCGGAAAAGUACCGGAGUCUAUAUAAGACAUGUAUUCUAUGAAUAGUAUGUCACAUACAAGAUAUAGAUCAGGGAUAGCGAAGUUAUCCGGAUUUAUAUCGCGCAGAGGUCAAAGAUCUCGCGCGUGUGAAAUUGUAUAGGUUAGAGAAAAAUACUCGUCGGAAAGCAUAUGGGGGGAAACACUCAGAGGGAAACACUCAAUGAAAAAUGGGU'
p204
aF0.9290780141843972
aa(lp205
S'Headless Bug on Windshield'
p206
aS'AGCAGCAAAAAGUCGCAAAGCGGCUAAAAGAAAAAAAAAAAAAAAAAAAAGGCAGCAAAGCCAGCGAAGCGGCAGGAAGUGCAAGAAAAAAAUGGAAAACCUAAAAAAUCGCAAAAAAAUUCAGACGGAAAAAAGGACAAGGUUGAUAACCAGUUAAAAAAAAAAAAAAAGACAAGGAGGUGUUCCGGGAAAUCAAGUUA'
p207
aF0.99
aa(lp208
S'Pokeball'
p209
aS'AAAGCUUAUCAAAACGCAGAAGGGUAAGGCAGCAAGGCAUGUUCUAAGGAAGCCAAGUUCAACCAACGUCCGUCUAUCUCGGAUGAGCAAAAAAAAUAUGCUCAAAAGUAAGAGAGACAAAGCUCCAACAAAGCCUGUUACGAAACUUACUCCUAGGCGGUCCUAGUCAUCAACGGGCAUAAAA'
p210
aF0.9456521739130435
aa(lp211
S'Variation of a crop circle'
p212
aS'AAAGUUAAAAGGGAAAACAAAAGAGAGAUUGCAAGGCUAUCAAAAGCGAAAAGGCAAAAAAAUAGAAAAAAAGAGAAAAAAAAAAAAA'
p213
aF0.9545454545454546
aa(lp214
S'Loop next to a Multiloop'
p215
aS'AAUAGAAAGCAAAAAAAGGGAUAUCUAAUGAUGUCAGAGAUACAAAAGUAUCUCACGAAAAAAGUUUUCUAAA'
p216
aF0.9726027397260274
aa(lp217
S'Snowflake 4'
p218
aS'GUCCUAUUUAUCAUAGGGAAAUUUGGUUCAACAUUGCUAAAGGCCAGACAUACUAUGUACAAGUCCAAAGGACGUCUGGUAAAGUUUACUUGAGAUAGACAAAAGUCUCUCGGUAAAGUCCCAAGUUCAAGGGACCAGAGCCAAAAGGUUGUUAAGAUACCCAAAAGGCUGGUUAGCAAAGCUAAACUAGGAACUAGGCUAGCCAAAGGGGUAUCAAGCUACCGAAAACGCUAACAGUCAAGGACGAAUCACAAGGUGAGUUAGCGAAAACGGUAGUGGGAUAGGCAAAAUCUAUAGGGACAAAGUCCAAGUAUAAAAUAUUUAUAGUGAAAGCCUAUCAGGAGCAGUAAAAGCCUAUGCCUGUAUUGGC'
p219
aF0.8864864864864865
aa(lp220
S'Mat - Cuboid'
p221
aS'UAACCAAAAUCAAGUAAAAGUAAUCAAAAUAACUUAGACAAACGUAUGUAGUAAAACUUUGAAGGCGGUAAAAGAGAUGAGAGAACCAAAAGCAAAAAUGUGAGCAGUCAAAAGUAAGCUGCCUAGGUACUUAAAGUUACUUGCCAGUGAACCUUGAAAAAAGAUAAUUGGUUCCAUUAGAUUAAAAGCUGCUUUCCUUCCUUCUUCUCAAAAAAGGUUAGUUGGUUGGUUAGAAGCAAGAUGUUGGUUCCUUUGUUUUUUUUUGUGCAAGGGAAGGGUGAGGGUACGUGGAUCCGGAAGCUGGCAAACUGUCAAGCGGUACUAAGCGAUCGCAUGUAGGCUUGGCAAGGAUGGUCGUCCAAGCGAAGAACAAUGGAAAG'
p222
aF0.7868421052631579
aa(lp223
S'Misfolded Aptamer 6'
p224
aS'AAAAAAGACAAAAAAGUACAUGAAAUGACAAAAAAAAGUCUAAGCUAAAAGUACAAAAAAAGUCAAAAAAAAAAA'
p225
aF1.0
aa(lp226
S'Snowflake 3'
p227
aS'GUGCCAAAAGGAAACGACAAAAGCCAUCUGCUGUACAAGACGAAAGUCGAGAGGUAAUUCCAAAAAGCGUCAAAAGAAAUCGCUAAAAAGCAAGUACUGUACAAGACAAAAGACGAGAGCAAACACAACUAUGUGCCAAAAGAACUCGGCAAAAGUCAAGUACAGUACAAGACAAAGGUGGAGAGCGAAAGUCACAAAGUGUAAAAAGAACUCGACAAAAGUCAAGCACAGUACAAGACGAAAAUAGAGGGUAAAAGCCUGGAACGGUCGAAAGAACUCUAAAAAAAUGAAGUACAGGGCAAGACAAAAGUCGAGGGCGAAAGCCACGAAGUGUCAAAAGAACUCGACAAAGGUGAAGCCCAGCAGUAGUCAAAAGUCGUUAGCAAAAGCCAC'
p228
aF0.811704834605598
aa(lp229
S'Hard Y and a bit more'
p230
aS'AAAAGGACACAGACUGUGGAAACAUGAGCUUGCACGGCAUUCACUAAUAUGAGCUCAGGAAAAAGUGUGAUGGUAGUGCGGUGUCAAAAAAAAAAAAAAAAAAAAA'
p231
aF0.9716981132075472
aa(lp232
S'Mat - Lot 2-2 B'
p233
aS'ACAGGCUGCUGUGUGCAAGAGCAGAGAUCAAAAUAAAAUGAGGCAGUAGCAAAAAGAACCCAAAGUACACUUAAGUAUCGAACAGGUGGGCCCGCCAAGAUUGAAAAAAGAGAGUAAACGCAGUUGUAGCAUGGGAAAUCAAAAGGUGGAGGACUACCAAAAAAAGAGGUUUAUCCAACUCUAGUUGGGUGUAAAACGGCUUAUAAGCAAUGUAGUACUUUAAAAAGGUGCUGUUUAUCCAAUAUAAUUAGUUUAUAACAGGAUGAGAUCGCACCAGCAAUAAC'
p234
aF0.7077464788732394
aa(lp235
S'Shapes and Energy'
p236
aS'AAAAAAGUGUCCAGAGCAAAAGGAAGUACGGGAAACAGUACAAACGCUCGAGGUAAAAUGUACAAAAGUAUCCAGGAUUCAAAAAGAAAAAAAAAAAAAAA'
p237
aF1.0
aa(lp238
S"Spiral of 5's"
p239
aS'GUAAGGAUACGAAGAUAGAAAGAUAGAAAUGAUACAAAGAGAGAAAGAUAGAACAUCCGAAAGACACAAAGUUAGAAUGAUAGUAGAUACUAAGAUAGAAAGAUGGGACAUACAAGGAUAGGAAAUACAAGAUACAAGAUACAAGAUACGGAUUCAUAAACAGAACAAAAAGUUCUAGGGGGUUUAGAAAAGAAUCAAAAAGUAUCAAAAAGUAUCGAAAAGUAUCAAAAAGUAUUGAAAACUAUCAAAAAGUAUGAAAAACCAUCAAAAACUAUCGAAAUGUAUCAAAAUCUAUCUAAAACUAGCAAAAAGUGUCAAAAAGGAUGAAAAACUAUCAAAAGCUUUCAAAAGGUAUCUAAAACUAUCAAAAACUAUCAAAAAGUAUCAAAAUUAAAAA'
p240
aF0.9949622166246851
aa(lp241
S'Campfire'
p242
aS'AAAAGUACAAGAGGCAAGUGGACGUACGAAAAUUACGGGUGCGAAGUAACUCGUAUGUGACGAGCAGCAGAGACUAAUGUACUCGCGCGAGUAUGGACCAGCAAAGGCGGCCUUACAAUCGAAAGGAUAACACAUGGACUCUAUACCCGUCUCCACAGGCAGACAGUACGAAAGUACGUCGUCGAGAGAUCGAAGAUACUACUCGGGGGUAC'
p243
aF0.8867924528301887
aa(lp244
S'Anemone'
p245
aS'AAAGACCUGAAAGUAGGUCGGUGGGAAACUACCGGUGUUAAAGAAUGUCGUGACGAAAGUCGCGGCAUCUAAUGAUGCCGACUCUAAUGGGUCGAGGCAAAGGAAUCGAUAUCUAAUGGUAUCAGCUACAAAAGUAGCGACUUCUAAUGAAAUCCACCGUAAUCGGUGGUUAUAAAAGAAUGGGAAACGAAAAUGUUUGGGAGCGAAAGUUCCC'
p246
aF0.9906542056074766
aa(lp247
S'Fractal 3'
p248
aS'AAAAAAUAGAGAAAGCAAAAGCGCAAAACCAUUCAGGAAGAGAAAUUGAAAAGGCAUGCAGGGUGUAAAAACUCAAAAGGUCACAGAGAGAAAAAGUGAAAAACCACUCGCUAUGAAAA'
p249
aF0.8991596638655462
aa(lp250
S'Kyurem 5'
p251
aS'AAAAACUUGGUUCAAAAGGGUCUUCAAAACUGCAUAGAAAGGUAAAAGAUCCAAAUGAAAAAAGUUAAGCAACGUGUAAGCAGUGAAAAAAAAAAAAAAAAAAA'
p252
aF0.9326923076923077
aa(lp253
S'Snowflake Necklace ( or v2.0 )'
p254
aS'GAUAUAUAUAUAUACAGAAGAAGGAAAAACCACCAAAAAGGAUAAAAAAGGUUCAAAAAGAACCGAAAAGUAUCUUCAGGAAAAAACUCAGAUACAGCAAAAAGCAUUAAAAAAAACGAAAAACGAUCAAAAAGAGCUGAAAAGGAGUAUCAGGAAAAAAUCCACAGACAUCUAAAUGAAUUAAAAGAAUCCAAAAAGAUGCAAAAGGUAUAAAAAAGGCGUUUGAAACGAAAAGUCAGGUACAGCAAAAAGCAGCAAAAAGCACCGAAAAGGAUCAAAAAGAACCAAAAAGGGGUACCAGUCAAAAAGACAGUCACAGCAAAAAGCGUCAAAAAGAACCAAAAAGGAGCAAAAAGCAGGAAAAAUUCGUCACAGUAUAUAUAUAUAUC'
p255
aF0.8946015424164524
aa(lp256
S'Methaqualone C16H14N2O Structural Representation'
p257
aS'AAAAAAAGUACAGAACGGCCAGACAAAAGUCAGAUAGACAAAAGUUAGACAGACAAAAGUCAGACAGUUAAAAAACAGACAAAAAAGGUCAGUCAGUUAAUCAGGCAAAAAUAGUUCAGUACAAAGCAUCCAAAGGAAUUCCCAAAAAAGGAAGACAUUCAAAAGACCAUAAAAAUGUAUGAAAGUAGCUAGCAAAGUAGAGUAUCAGACAGAGACACAUACAGACGAAAGACGAAAGUCAGUCAGACAAAAGUCAGUAAGACGGAAGUCGGUGAGACAAAAGUCACUCUGACCAUGAAACUACAGAAAACUGAGAGAAAGGCGGUCUGUCAUGACAAAGUACAGUACGAAAAAA'
p258
aF0.9323943661971831
aa(lp259
S"Cat's Toy 2"
p260
aS'AAAAGGGGUAGCAAAAGAACAGAAAAAAAAAAAAAAAAACUAAGAUAACAAAAAUGGAAUGAAACUGGAAAAAAUGUAAAAAAUGGUUGCCCCAAAA'
p261
aF0.9587628865979382
aa(lp262
S'Zigzag Semicircle'
p263
aS'AAAUGAAUCACAGAAAAAAUAGAUAGGUUCUAAA'
p264
aF0.9411764705882353
aa(lp265
S'Short String 4'
p266
aS'AAAAAAAGACUUAAUAGAAAAUGGUACUCAAAAAGUAAAGAUGUCUAGAGGAAAUUAGGGUACGAAUAGGAAAUUUAAAAAAAAAAAAAAAAAAAAA'
p267
aF0.9175257731958762
aa(lp268
S'Gladius'
p269
aS'GGAAACAUAUAAACAAUAAAGGGAACAAGGUCAGAGAAGGUUAUAAUUAACAGAUACAAGAGACAAAUGAAGGACAGUCGGAAAGAGAUAGGCGAUAGCAGCUGGAGAUAAAUACUUGAGCAAAGUUCUGUAUUUAUCCGCAGCGACUAUCUACUAUCUCGUUAUGACAUGGUUUCUAUAGUCGACAGUAUCACUCAAAGAUAGACUGGUAAGACUGAAGGUCUGAAGUUGGUAAGACUAUGAGUAUAGGAUAUUGUAAGGGAUAAGCUUGUCGAAAGACAAGAGUUGAGCCUUAAAAUAAGCUAUAACCAUAGUCAAAACAGCGUAUGAUCGCAUGUCAAAAUAGUUAGUACUAAUGUAUAAGGUUGGACAAAGGACUCAAUUAAGUAAUUUGCAAAAG'
p270
aF0.895
aa(lp271
S'Thunderbolt'
p272
aS'AUGAGGGUCAAAAAAAACCCUGACCACGAAAAGAAAAUAAGCUUGUUGAAAAAAAAGCAAAAAGGUUUAAAAAGAACAAAAAAGCAAGCCAGCCAAAAAUAGUAACCAAAGAUUCAAGCGGCCAAAAAGAAAACAGUAUAAAAAUACUAAAAGAGCCCCAAGGAGGAUCGAAAUGUAAUUACGAGGGAAAAAAGCUGAUGAAAUAGCCUCAAAAAAACAAAGUACGAAAAAAAAUACAAAAAGUCAAGAAAUUUGGCAGGAAGCAAAAAAAAAAAGGAGGAAAAAAAAAUUAGUCGAAAGGAUCACAAAAAGGAAAAAAACAAAAAGUGGUCAAAAUCUGAUGUGGACUCAAAAAAAGAGGAAGUACAAAAAGAAAAAAACAGACCCAAAUA'
p273
aF0.9438775510204082
aa(lp274
S'Mutated chicken feet'
p275
aS'AAAAAAACUAAGACCAAAGGGCGAAAGCUAACCAAGACAGGAGUAAGGUAACGAAGCGAAUCGGAGCAACUGUAACGUAGCAAAGCAAUGCGUAAAAAAA'
p276
aF0.86
aa(lp277
S'Chicken Tracks'
p278
aS'AAAAAAAGGAUAUACUUUGGAAACCUCAAGUGCAAAGGCACGAGUUAGAAAUGACGUAAGUGAAGACAUAUAAAACAUAGGGUUGAAGACCAACUACGAAGUUGGUCGAAAAAAAA'
p279
aF0.9310344827586207
aa(lp280
S'Looking Back Again'
p281
aS'GAUAAGACAAACGAAAGGAUAUCAAGGAUAUCAGUAUAACAACUAAAUAGAAGUAGCGGUCUUUCAAAGGACAAAGGUCCGAAAGAGAGAAGUGAAGUCAGAUACGACAAAAAGAUACAAAAGUAUCAAAAAAGUCGAUACUAUAUAAAAUAUAGAUACAAAGUAUCGAUAUCCUAACUACAAGUUUAUGGUCGAGAAAACUUGUACUGUUCGUAGGAGGUCAAAAGACAAGAUGUCAAAGUAUCGGACAGACACAGAGCUAAAAUGAGAUAGAAAAAAAAGUAUAAAAAGUACCUAUAAACUCUGUUCGUACAAAAAAGACUAUACAAAAGUAUAGAACACCCAAAGGGUAUACAAAGUAGAAAGUGGCAAAAGUACGUAAUAAAAUC'
p282
aF0.8766066838046273
aa(lp283
S'Multilooping 6'
p284
aS'AGGUUCGUUGUUUCCUAAUGGGAUUUAACUAAUGUUGAUAAGGGUUACCUAAUGGUAACUCGCAAAGGUCAUCGGCGUGUAA'
p285
aF0.9512195121951219
aa(lp286
S'Cesspool'
p287
aS'UAACCAUAAGCAAGGAGUAUAGGUUCAAAGACGACAAAUUUUCAAUUCAAAAAGUGGAGUAAAAAGAGUCAAAAUAGAAAUAAGAAAAACCGCAUGAAAACUAGGCUACAGUAAUAGAGUUAUUAAGAUGCCAAGUAGAAAAUUACAGUUAAAAAUAUCAAAAUGAAAACAUGAGGGAGCUAUAAAAAACCGAGUUCGUGCAUUGAAAGACGAGAAAAAGGCAAGUGGUAAUCAUAAGAUUAAAAGUUCGAAAAAAAAGCGCAAUGCAAGGUAUAUAAAAGUAAUACAAUGGAUGAAAAUUAAACGAAGGGUGAAGUUCAAAAGUUCGCAAAAAAGUAUGAAAAUGAUAACAGAGUCC'
p288
aF0.6815642458100558
aa(lp289
S'Hoglafractal'
p290
aS'AAGGGCAACUUUCAAAAGAUACAAAAAAGUAUCGAAAGCUACAAAGUCCAAAAAGGACGUAGGCCAAGUCUAAUGACGUCAGAAAAAGUACAAAGUCCAAAAAAGGACGUACAAUAAGACAAAAAGUCGUUGCAGCUAAUGCGCAUGUCUAAAUUCAAAACAAAAACGUUGGAGGAGCUAAAUGCUCGCCAAAAGGCAGAUCCUAAAAUCAGCAAAAAGGCGGGACAAAAAGUUCCAAAAGGAGAGGUCAAAAAAGUCUAAAAUGUUCCAAAAAGACGUGAUUGACAAAGUCAAUCUAAAAAAGACUUGGAAAAUGGAUCAAAAUGACAAAAAGUCAGAGCAACAAAGAGGAGUGCAAACGCAAAAGCCGAAAAUGUAUAUCAAAGGUAUAGGCACCCGC'
p291
aF0.94
aa(lp292
S'Bullseye'
p293
aS'AACAACUUAUUAUAUAGAAGUACUAUGUGCGAGAAGAAAUUAAGUUAAAAAAAAUACGUGGAAACCACAAGCUAUAUUAGCGAGGUCAAAGUUCGUAGAAAAAAUGCCGUAGCAAUUAUAAGUAUAAAAUACGAGUAUUAUGUACGGCUAAAAAAGAUCCUAGAAAGUACCAGCGCAAAGCGCAAGUACGAAGUACGGGAAA'
p294
aF0.8316831683168316
aa(lp295
S'Shooting Star'
p296
aS'AUUUACGUGCGAUAUUCAAGGAUUGCCAUAUAGACCCUAAAGGUGGUAGGUGAGAGCUCCAAGAAUAUCAUACGUGCCCGUUCUAGACAAUACCAGACAGUACAGGAAAACACGUACCGUCGAGUAAUUCGGGAGUUCGUACGUAAUCAGCGUACUCUAAUUCGAAGAAAUAUUCUGAAAUAGAAUCAGAAAUCGACUAAAGUACAUUACAGUGCAAAGACCGGUAAAGUUGGUUGGGUGUAAAAUACCGCACGCUAUGCAAAGUAUAGCAAUUGAAAGGUAAUGUGAGUACAACAAAGAGAGAAAAUAAGGAGCCAUGAGAUCAAAAGAACUCAAGGCGCAAUGUUAUAUCGUACAGUAGAUA'
p297
aF0.7637362637362637
aa(lp298
S'Teslagon'
p299
aS'AAAAAAGGAAAAAAAUCAACAAAAGAACCUUGAAAAAAAAAAAAAAACAAAAUAAUAACGAAAAAAAAAAAAAAACGGGAGAAAAAAACGUCAAAAAAAUGAAAAAAAAAAAAAAACGAAAAAAAGAGGAAAAAGAACCAUGAAAAAAAAAAAAAAACGAAUUAAUAACGAAAAAAAAAAAAAAACGGGCAAAAAAAUCAGAGAAAAAACCAAAAAAAAAAAAAAAGCAAAAAAAGCACCAAAAAAAGAAACAAAAAAAAAAAAAAAAAAAAUAAUAUUUAAAAAAAAAAAAAAAGGAUGAAAAAAGGGAAUAAAAAAAGUAAAAAAAAAAAAGAAAAAAAAAAAAAAAAUCUGCGAAAAAAAUAUGCAAAGAACUAAAAAA'
p300
aF0.900523560209424
aa.