(lp0
(lp1
S'Simple Hairpin'
p2
aS'GAUACAAAAAAGUAUC'
p3
aF1.0
aa(lp4
S'Arabidopsis Thaliana 6 RNA - Difficulty Level 0'
p5
aS'GCGAUGCAAAAGACAAAAAAAAAAAGUCCAUGCUACUUGAUAUUAUAAUACGACAUCAAAGAUACAAAAAAGUAUCAGAUGUCAGUAUUAUAAUAUCUUGUAGCAUGAAGCAUCGC'
p6
aF1.0
aa(lp7
S'Prion Pseudoknot - Difficulty Level 0'
p8
aS'GACGUCAGAUCGAAAGAUCGACAGUCAAAAAAAAAA'
p9
aF1.0
aa(lp10
S'Human Integrated Adenovirus - Difficulty Level 0'
p11
aS'GAUAGUAUAAUAUCGGCAUAGUAAAAAAAAGAGAUCGCGCCAGGAAAAUGACGGGACAAAAGCCGAGUUAUUAAUAAAAAAUUUAAUAGCUCAAAGGGCGUCCCAAAAGUCCCUAUAAGGCGCAAAUAUUCCAAAAAAGGGGAUGGGUCGAAAAAAAAAAUUUAUGUAGAUAAAAAUUAUACAAAUAUCAAA'
p12
aF1.0
aa(lp13
S'The Gammaretrovirus Signal - Difficulty Level 0'
p14
aS'AAGUGUUGCAUAGAAAGCUAUGCUUCUCGAAAAAGACCAAGACAGAUCGUGGGAAAACUCGCUAAAGAUCGUCGGUCAAGCGACGUCAAAGGACGUCGCGA'
p15
aF1.0
aa(lp16
S'Saccharomyces Cerevisiae - Difficulty Level 0'
p17
aS'ACCUGGCCUAGAAAAAAAACUGGAGGGAAAAAAAAAAAAAACCAAAAGAUACAAAAAAAGUAUCGCCAGGUAAAAGCGAUGCAAGAUCAAAAAAAAGAUCCCCGAAAAAAAAAAAAGGGAAAAUAUACAAAAAAAGUAUAGCAUCGCAAAAGCUAUGCAAGAUCGAAAAAAAGAUCCAUGUCUAAAAAUGACGUGAAAAGAUACAAAAAAAGUAUCGCAUGGCAAAAGAGAUGCAAGAGCAAAAAAAAGUUCCAUGCCAAAAAAAGGCAUGAAAAGAGACAAAAAAGGUCUCGCAUCUCAAAAGCGACGCAAGAUCAAAAAAAAGAUCCUUGCCAAAAAAAGGCAGGAAAAGAUACAAAAAAAGUAUCGCGUCGCAAAA'
p18
aF1.0
aa(lp19
S'Fractal 2'
p20
aS'AAAAAGCGCUGUCAAAUUCAGUAGUAUAGAGAAAAAAAAAAAUCUCAACUGUGAAAAAAAAAACAGAAUCUCAAAAAAAAAAGGGAAUUAUUAUUGGAGAAGAGUUGAGAAUAUAGCGAAAAAAAAAGCUAAAAUACUAAAAAAAAUGUAUGAGAUCUAAAAAAAAUGAUCAUUUCUCAAUUUAAUGAGACGCUAUAAGCUCAAAAAAAAAAGGGCAUCUAGUAAAAAAAAUCUAGUAGAUCAAAAAAAAAGGAUCAAGUGGUGUCUCUAAGACGGCGCAAAAA'
p21
aF1.0
aa(lp22
S'G-C Placement'
p23
aS'GAUCAAAGAUCG'
p24
aF1.0
aa(lp25
S'The Sun'
p26
aS'UACAGCCGGACAAAGUCCAAGGCGUAAAUCUCAGCUGUCCAAGGGCCAAAGCGAGUAACUGAAGCUCCCUAUGGGAAAGUUCAGAAACUCAGCAGACCAAGGGACAAUGCGAGAAUCUUAGCGGGGAAAAGUACAACGUAGGAAACAUGGUAACAAGAAUUGUAAUAUAUGGAACUCAGCAGUAGAAUUUGCAAUACGAGAAGCUCAAGAGGACGAAGUUCAAUUUGAGAAAGUGAGAGAUACGAAGUACAACGCCAG'
p27
aF0.8604651162790697
aa(lp28
S'Frog Foot'
p29
aS'AAAAAAAAAAGAUCGAAAGAUCGAUCGAAAGAUCCUCGAAACGAG'
p30
aF1.0
aa(lp31
S'InfoRNA test 16'
p32
aS'GCAUAGGGGCGAUGCGAAAGCAUCAGCACGCUAUGC'
p33
aF1.0
aa(lp34
S'Mat - Martian 2'
p35
aS'GAUCGAAAGAUCAAAGCGAUGCAAGCGAUGCAAAAAAAGCAUCGCGCAUCGCAAAGCAUAAUCAAAAAAGCGAUGCAGCGAUGCAAAAAAAGCAUCGCGCAUCGCAAAGAUAUUCGAUGAUCAAAAAAAGAUCAUCAGAAUAUCAAAAAAGAUUAUGCAAAGAGAUACCUGGAUCAAAAAAAGAUCCAGAAGUAUCUCAAAGAUCGAAAGAUC'
p36
aF1.0
aa(lp37
S'square'
p38
aS'GCGCUGCCUGGACCUGGACCGUGGUCAAAGACCGCAAAAGGUUCAGAAAAGUCCAGAAAAGCAGCGC'
p39
aF1.0
aa(lp40
S'Six legd turtle 2'
p41
aS'AAAAAGCAAAGGAAAACCAAACCGAAAGGAAACCGAAAGGAAACCGAAAGGAAACCGAAAGGAAACCGAAAGGAAAGCAAAAAAAAAAAAAAAAAAAA'
p42
aF1.0
aa(lp43
S'Small and Easy 6'
p44
aS'GCCGCAAAAAGCAAGGGAAAAAAAACCGGC'
p45
aF1.0
aa(lp46
S'Fractile'
p47
aS'AAAAAAAAAAAACCGAAAGGAAGGCAAAGGGAAACCAAGGAAAGCAAAAGCGAACCACGGAAAACCAAAGCAAUCGAAAGAAAAAUAAAAAAAAAAAAAAAAAAA'
p48
aF1.0
aa(lp49
S'Six legd Turtle'
p50
aS'AAAAAGAGAAAAGAAAAAUAAAUGGAAAAUCUAACCAGAAAUGAAAAGCAAAUGUGAAAGUGAAAAUAAAACUUAAUGAAAAAUCCUAAAAAAAAAAAAAAAAAA'
p51
aF0.9619047619047619
aa(lp52
S'snoRNA SNORD64'
p53
aS'GCAUAGAAUAAGACAAAAGACAAAGAUACAAAAAAAAAAAAAGUAUCGAAAGUCAAGUCAACUAUGC'
p54
aF1.0
aa(lp55
S'Chalk Outline'
p56
aS'AAAAAGAACAGGCUUGAAAGAUGCCGAGCAGAGGAAACUCGCUUGCACGUGAAAACAGUGCUGCGCGAAAACGCUGCGUUCGGAAAAAAAAAAAAAAAAAAAAA'
p57
aF1.0
aa(lp58
S'InfoRNA bulge test 9'
p59
aS'GCGAUGCAGAGAGAGCGAUGCGAAAGCAUCGCCCCGCAUCGC'
p60
aF1.0
aa(lp61
S'Tilted Russian Cross'
p62
aS'AAAAAGAUGGCAAGAAAUUGCGGCGAGAUCGAAAGAUCGAAACGAAAGUUUCAUAUCGAAAGAUGCGCCCCUGGAAAUAGGCGUCAAAAAAAAAAAAAAAAAAAA'
p63
aF1.0
aa(lp64
S'This is ACTUALLY Small And Easy 6'
p65
aS'GAAAAAAAAAAAAAAAAAAAAAAAAAAAAAAAAAAAAAAAAAAAAAAAAAAAAAAAAAAAAAAAAAAAAAAAAAAAAAAAAAAAAAAAAAAAAAAAAAAAAAAAAAAAAAAAAAAAAAAAAAAAAAAAAAAAAAAAAAAAAAAAAAAAAAAAAAAAAAAAAAAAAAAAAAAAAAAAAAAAAAAAAAAAAAAAAAAAAAAAAAAAAAAAAAAAAAAAAAAAAAAAAAAAAAAAAAAAAAAAAAAAAAAAAAAAAAAAAAAAAAAAAAAAAAAAAAAAAAAAAAAAAAAAAAAAAAAAAAAAAAAAAAAAAAAAAAAAAAAAAAAAAAAAAAAAAAAAAAAAAAAAAAAAAAAAAAAAAAAAAAAAAAAAAAAAAAAAAAAAAAAAAAAAAAAAAAAAAAAA'
p66
aF1.0
aa(lp67
S'Shortie 4'
p68
aS'GAGAAAUCAGGGAAACC'
p69
aF1.0
aa(lp70
S'Shape Test'
p71
aS'AAAAACGGAUCAACAUGCAAAAAAAAGCAUGAAGACACGCAGAUACAAAAAGUAUCAGAUCGAAAGAUCAGCGGUCAAGAUCGGAAAAAAAAAAAAAAAAAAAA'
p72
aF1.0
aa(lp73
S'The Minitsry'
p74
aS'GACAAAAAGCCAAAAAGAAGAAAAGAUAAAAGGCUAAAAAAAAGGCAAUCAUUCAGGCGGUC'
p75
aF1.0
aa(lp76
S'stickshift'
p77
aS'AAGCGAUGGUAAAAAACACAUCGCAA'
p78
aF1.0
aa(lp79
S'U'
p80
aS'AAAAAGAUACAGAGAGGAGAGCGCUGUACGAAAGUACAGCGCCCCCCGUAUCAAAAA'
p81
aF1.0
aa(lp82
S'Still Life (Sunflower In A Vase)'
p83
aS'AAGGAUCAAUGAGUAAAAAGCUCGAAGAUUGAAACAAUCGACAGGCAAAAGGUCUGGACAUGCAAGGCAUGGAGUUGCAAAAAGCAAUAACAAGUUAAAUACUUGAGAUAGUCUAAUAUUACAAUAUUCCAGACAAAAAAGUUUGAGUUACGAAAAAAAAAAAAGAUCAAAAAAAAAAAAAAAAAAAAAAAAAAAAAAAAAAAAAAAAAGAUCAGAAAAAAAAAAAGUAGCGAAACGAAAGUUUCAGGAUAUUGUAAUAUUAGACUAUCAUGAUACAAAAAGUAUCUCGGUGGAAAAACCAUCAACUACCAAAAGGGUAGAUCACGCUAAAAGCGUGCACAUACGAAAGUAUGAAUUAGCAAAACGCUAGAGAUCAAA'
p84
aF1.0
aa(lp85
S'Quasispecies 2-2 Loop Challenge'
p86
aS'AAAAAGAUGGAUGUUGAUCGAAAGAUCUUCAUCAGACUUGUGAAAUGAGUCAUAUCUUUUUGACAAAAAGUCUUGUUGAUACAUCAAAAAAAAAAAAAAAAAAAA'
p87
aF1.0
aa(lp88
S'Corner bulge training'
p89
aS'AGCAUAGCAUGCAAAGCAUGAAAACUAUGCA'
p90
aF1.0
aa(lp91
S'Spiral'
p92
aS'AAAAAGAUCAGCAUAGAGACAGAUACAGAUCAGAUCAGGAGGAGGAGGAGGAGGAAAAACCCCCCCCCCCCGAUCGAUCGUAUCGUCCUAUGCGAUCAAAAA'
p93
aF1.0
aa(lp94
S'InfoRNA bulge test'
p95
aS'AAAAAAAAAAAAAAAAAAAAAAAAAAAAAGAACGAAAAUGAGUUAAACUGCAAAGGCCAAGAGCGGAGCAAAAAGCAUCAGUAUCGAGGACCGUGGUAAGGAAAUGCAUCUAAAAAGUAUCA'
p96
aF1.0
aa(lp97
S'Worm 1'
p98
aS'AAAAAAAGGGGGGGAGAGGAUAACAAAAGGUAACCACACGCGCGC'
p99
aF1.0
aa(lp100
S'just down to 1 bulge'
p101
aS'AAAAAGAGCAUAGAGAAAACUCUAACUCGAAAGAGAGCAUCAAAAGAUCAUACGAAAGUAACUCGAAAGAGAGAUCAAAAAAAAAAAAAAAAAAAA'
p102
aF1.0
aa(lp103
S'Iron Cross'
p104
aS'ACUCAGACGAAGGCAGACAAAGUCACUCGAAAGAGAGCCGAAGGCAUACGAAAGUGACUCAAAGAGAGCCGAACGCAGACGAAAGUCACUCAAAGAGAGCGGAAGUCAGACAAAGUCAGAGGA'
p105
aF1.0
aa(lp106
S'loops and stems'
p107
aS'AAAAAGCGAUGCAAAGAUCUAAGAUCAAACUAGAAAAAAAAGGUUACAAAAAAAAAAAAGUAACAAACUAGGAAAGAGCAAAAAAAAAAGCUCGAAGAUCAAAGACAAAAAAAAGUCAAUGAUCAAGGAAAAAACCAAAGCAUCGCAAAAA'
p108
aF1.0
aa(lp109
S'Water Strider'
p110
aS'AAAAAGUGGCAUGUGAGUGACGAAUGUCGGAUAAUUCCCUCUUGGAGCCCUCAAAGGCGGUCGAAAGAUAGGAGCUAGCGACAAAAAAAAAAAAAAAAAAAAA'
p111
aF0.9611650485436893
aa(lp112
S'The Turtle(s) Move(s)'
p113
aS'AAAGGAAAACCAAAACAGAUGAUAAAAAAAAAAUAUCAUCUGAAAAGAUCAAAAAGAUCAAAGACUCGAAAGAGAAACAUGCAAAAAAAGCAUGAAAACCCAAAGCGAAAGCAAAGACUCGAAAGAGAAAACAUGGCAAAAAAAGCCAUGAAAGCUCGAAAGAGAAAAACAGGCCAAAAGGCAAAAAAAGCUAACUCCAAAAAAAGAGAAACAUGCAAAAAAGUAUGAAACUAGAAAAACUAGAAGGCCUGAAAAAAAAAGCAAAAGCAAAGACCAAAAGGAAAAAAGAUACAAAAAAAAAAGUAUCAAAAAAGGG'
p114
aF1.0
aa(lp115
S'Adenine'
p116
aS'GAUACAGCAUAGAGCAUAGAGCAUAGAGCAUAAAGCAUAGAAAAGCAUAGAAAAAACUAUGCACUAUGCAGAUACAAAGCGAUGCAAAGCAUCGCGUGUCAUUAUGCAGAUACCUGGAUCAAAGAUCCAGAAAGUAUCACUAUGCAAAACUAUGCAAAACUAUGCAAAAGUAUC'
p117
aF1.0
aa(lp118
S'Tripod5'
p119
aS'AUGAUGGCGCAAAAAGCGCGUGUUAAAUACACCAUCUA'
p120
aF1.0
aa(lp121
S'Shortie 6'
p122
aS'GGGAAACCAGUGAAAACACCAAAAGGAGGGAAACC'
p123
aF1.0
aa(lp124
S'Runner'
p125
aS'AAAAACUCCUGUUCAUAAGCUUAGAAUAGGGGAUCUAAGACAAGACUUCGAAGAGAAAGACUUGAACGAAGAUAAAGUUGGUCACAGGCAAAGUCGAAAGAUGGCUAGGAGGAAAA'
p126
aF0.9482758620689655
aa(lp127
S'Recoil'
p128
aS'AAAAAGAUACAAGGAAGGAAGACAAGACAAGGAAGCAAAGCACCAGUCAGUCACCACCAGUAUCAAAAAAAAAAAAAAAAAAAAA'
p129
aF1.0
aa(lp130
S'[CloudBeta] An Arm and a Leg 1.0'
p131
aS'AAAAAGACAGACGUGAAAGCAGUCGGCAGGAAAACCGCCAGUCAAAAAAAAAAAAAAAAAAAA'
p132
aF1.0
aa(lp133
S'[CloudBeta] 5 Adjacent Stack Multi-Branch Loop'
p134
aS'GAUAGGAUCGAAAGAUCGCAUUAAAAAAUGCGUUACGAAAGUGACGGGUGAAAGCCCCUAUCA'
p135
aF1.0
aa(lp136
S'Triple Y'
p137
aS'AAGAGGAGAGGCUUUCCUAAUUGAAUGUCGAAAGACAGCUACCCAGCUCGAAAGGGUGAUGGAAACGUAUAAGAUACAAAAAAAAAAAAAAAAAAAA'
p138
aF0.9072164948453608
aa(lp139
S'Misfolded Aptamer'
p140
aS'GCGGGAAAAACCAAGGAAAUAAGUGAAAGCGAGACGGGAGGGAAAACCGC'
p141
aF0.96
aa(lp142
S'Flower power'
p143
aS'AAAAUGUUAUCGGAAGUCGGGCCGUGAUCGAAGAUAAGCACGAAGCGUGAACGUUGAAGAUCAUGGAGAUCAAAUUUCUGACUAAAAAAAAAAAAAAAAAAA'
p144
aF0.8431372549019608
aa(lp145
S'Kudzu'
p146
aS'AAAAAGACUGAAGUGACCGAGAUGAGGAAAGAGAAUCUGCAUGACAAAGUAUACGAGGAAAAGUUCAAAGUCUCGACUGUCAAAAAAAAAAAAAAAAAAAA'
p147
aF0.9801980198019802
aa(lp148
S'"1,2,3and4bulges"'
p149
aS'AAAAUGACCUGACUCGAAAGAUAAAGUCAGACUAAUGUAAGGAUUUAAAACACGUUUCAAUGAAAUUAUCCAAAGGGAAGUAAGUAAAAAAAAAAAAAAAAAAAA'
p150
aF0.9809523809523809
aa(lp151
S'medallion'
p152
aS'AGAUGGAUGAUUUAAAAGGAUUAAAACGAAAGUUGGACUGAUGUCAGCAGAUAAAAGUAUGUAGGCGAAAGCCGGGGCAGAAAACUGCCCGGGCGAAAGCCAUUCGAAAGGAGGCAUAGAAAACAAGACAGACGAAAGUUAGGGUAGAAAACUACUCAGACGAAAGUCGGACGAAAGUCAGCAUGUAAAGGUGUGCAACCGAAAGGUAGCUUAGAAAACUAGGCUGGGGAAAUUGAAACGAAAGUUACUACGAAAAAUUGUGGACACUAAAAGCUUCAACGGAAACGUUGAUGUCGAAAGUUAGACGAAAGUCAAUAAACGAAAGUAUGUACGAUCU'
p153
aF0.9554896142433235
aa(lp154
S'[RNA] Repetitious Sequences 8/10'
p155
aS'AGGAAAAAAGGAAAAAACCAAAAAAGGAAAAAAGCAAAAAAGCAAAAAAGGAAAAAACCAAAAAACCAAAAAACCAAAAA'
p156
aF1.0
aa(lp157
S'Documenting repetitious behavior'
p158
aS'AAAAAAGAGGAAUAUAAAGUGCACUGAAAGUGUAUUUAAGCCCAUUUUAACUUAAAAUUAAAUGGAAUAUAAAUGGCAUUGAAGUGAAAUUAAAAGUGAAAAAAAUGGAAAAAAUAUAAAAAAAAUUGUCAAAAAAUGUAAAAAAAAUUAAAAAAAAAUUGUAGAAAAAAAUAUGAAACCUGUGGGAAAAAAAGAGAAGAAAAAGCCAUAUAGAAAUAAUAUUUAAAGUAUAUAUAAAUGAUACCUAAAUCGGAUAUAAGAUUCACAUAAGUAAUACCUAAGUUAGCAGUAAGCGUAAAAAAAAAUCAAAAAUUGUAAUAAAAUUACAAAAAAAUCAUGAAAAAAUCGCACAAAAAUGAGUAAAAAAUUAGCACAAAACUAACGAAAAAUUAUUAAAAAA'
p159
aF0.7425
aa(lp160
S'7 multiloop'
p161
aS'GGCCGAUAGGAAACUAUCGGGUAAAAGUACCCCAUGGGAAACCAUGUAGUCGAAAGACUAUAACAUAAUUGUUAAAGACGAAAGUUUUGGCC'
p162
aF1.0
aa(lp163
S'Kyurem 7'
p164
aS'AAAAGGCGACACGGCAAAGGCGAGGUAAAGAACAACGUAAAUCGUGGUCAACGAAAAAAUGAAAGGCGAUCCCGGUGAUUGCAAAAAAAAAAAAAAAAAAAA'
p165
aF0.9803921568627451
aa(lp166
S'JF1'
p167
aS'GAUAGUCGAUGACAUGCAAGAUACAAAAGCAUAGAAGAUACAAAGAGAGAAGACUACACAUAUUAUAAUAUGGAAACAUAUUAUAAUAUGGAGACGAAAGUCACAUGCUACUGAAAGGUAGCAUGAACAUGCGAAAGCAUGAGUAGUCACUCUCAGUAUCACUAUGCAAAGCGCCGUGAAAAACACAGGCGCAAGAUCUUAUAAUAUUAUAAUAUUACGAAAGUGAUAUUAUAAUAUUUAUAAGAUCAAAGAUACAAAAAAGUAUCCAUGAUAAUCGAAAGAUUAUCAUGAGACUAAGAAAUUAGAAGUAUCAAGCAUGACUAGAGACAGACGAAAGUCGUCCUAGAGCGCGGUGUGAAAGCACCAGCGCAUAUCAGACAUAUCAAA'
p168
aF1.0
aa(lp169
S'multilooping fun'
p170
aS'CCAAAUCUGAAAAGUGUGAUUAGUUAGGAAAACGUG'
p171
aF0.8611111111111112
aa(lp172
S'Multiloop...'
p173
aS'GUUCAGAUCAGACGAAAGUCAGCCGAAAGGCAGACGAAAGUCAGACGAAAGUCAGACGAAAGUCAGACGAAAGUCAGAUCAGUUACAAAAAAGUAGCGACGAAAGUCGAGC'
p174
aF1.0
aa(lp175
S'hard Y'
p176
aS'AAAAAGAUAGGACCGUGGUUAAAGAAUCACGAGCCCAGAUCGUACGAAAGUAUGAUCUGCAUUGAAAA'
p177
aF0.9705882352941176
aa(lp178
S'Mat - Elements & Sections'
p179
aS'AAAAAGUAUAGUUUCGGAAUAGGGUUUAGUAGAUCAGCUUUCGAAAGAGUGACGACCGACAAGUAGAACGAGGUGCCAUCGGUACGAAAAAAAAAAAAAAAAAAA'
p180
aF0.9619047619047619
aa(lp181
S'Chicken feet'
p182
aS'AAAAAGGACCAAUAAAAUAAGAAGCCAAACGCCUGGUCUGACAAAGCAGGUAUCCAAGGACCCAAAA'
p183
aF0.9701492537313433
aa(lp184
S'Bug 18'
p185
aS'GGUAGGUGCAGAAACGAAGCUGGAAGAAUAAUGCCAUCGACAAUACGAAAGCA'
p186
aF0.9622641509433962
aa(lp187
S'Fractal star x5'
p188
aS'AAAAACAUCUGUCAAGAUAGAAAUAUCGAACACAAAAGUGUAUCAAGGAAACUUGUACCGAAAAAUUGGAAGGCAGAUGAAAAACUUGCUUCAAGAACAAAGGUUCAACUUGUAAACAAGGACUAGAAAGCUAGGGAUGAAAAGUCAUAGGGAGCAAGAAAAAAAUGGUUCGGAGUCAAAGGACUAACAGGAAAACUUGAACUAUAAAAAUGGAAUUGCAAAAGCGAAAGGACCGUUAAAAACGUGAGACAAGAGUGAAAAUUCAGUUGGAAAACCAAAACUAGAAAACUGGAACUAAAAAGUUAGGGGUUUCAUGAAAAAUCGGCUAGAGAUAGUAACCUGUAACUAGAAAACUAGAACUAGAAAACUGGGCUCAAUAAUUUGAAACUAGCCGAACAAA'
p189
aF1.0
aa(lp190
S'Crop circle 2'
p191
aS'UGAAAAUUAAGAUUAAAGAUGGAAAAAAGGAAAAAAAAAAAAAAAAAAAAAAAAAAAAAAGUCAAAAAAAAAAAAAAAAUAAAAAAAAUGUUAAAAAUGUGAAAUGAAAA'
p192
aF0.9454545454545454
aa(lp193
S'Branching Loop'
p194
aS'GUCUGAGAAAAAAAUGAAGAAAGCCUCUACAGGAAAAAAA'
p195
aF0.95
aa(lp196
S'Bug 38'
p197
aS'AGUGGCCUGAAGGAGAAACUUCGCGAUGCAAAAGCA'
p198
aF0.9444444444444444
aa(lp199
S'Simple Single Bond'
p200
aS'AAAAAAGAAAAAAAAUGAGAAAAAAUCUUUAAAAAAAGCAAAAAAAAAAAAAAAAAAAAAA'
p201
aF1.0
aa(lp202
S'Taraxacum officinale'
p203
aS'UUAGCAAACAGAGUUCUCAAAAGAAGAUCUAGAAAACAGACACUCCGAAAGAGAGGCGUGAAAACAGAAACAGGAAAAAGCUGCGAUGUUAGUACGAUAAUCGUCCUAUGGAUAGAUUAUCAGAUACAAUAGACCAUUUAGGAGAUCCAAGGGAUCUCAAAGUGGUUUAGAUCAGCGUAGAAACUAUGCGAUCGUAUCAAAGUACUAGUAUCCGACCGAAAGAGUCACUCGAAAACACAGACUACAAAACAAAGACUCUAAAAAAGAGGCGCGAAAACAGUG'
p204
aF0.8936170212765957
aa(lp205
S'Headless Bug on Windshield'
p206
aS'AGAAGCAAAAACACAUGACGGUUAGGAAAAAAAAAAAAAAAAAAAAAAAAUUAUCCGAAGUGAUUAAACCGACAGCCAAGUUCAAGAAAAAAAUUGAAAGGGAAAAAACUGGGGAAAAAACCAGACUUAAAAAAAGAAGCGGUAGGCAUGGCCACAAAAAAAAAAAAAAACUCUAUCUAGCCAUACAUUCGAGAAAGUCG'
p207
aF0.98
aa(lp208
S'Pokeball'
p209
aS'AAAGUACUGCAAAAGGAAUGGUGACAGCGAGUGUACUAAGUAGGUGAGUAAAACAUCAAGCAAGUCAAGCGGGUCGCACCCGCAGUGCAAAAAAAGGCGUUGCAAAAGGGAGGGAGACAAUGUCCGGGAGGGGUUACCUAGAGAAGCGAGAGGCACUAUAGUCAGGUUAUCGCCGUAACGCAAA'
p210
aF0.9565217391304348
aa(lp211
S'Variation of a crop circle'
p212
aS'AAAGCCAAAAGGGAAUUGAAAAGGAACGACCGACCCGCCCGGAAAUUAAAAAAUCUAAAAAAGCGAAAAAAAAGGAAAAAAAAAAAAA'
p213
aF0.9545454545454546
aa(lp214
S'Loop next to a Multiloop'
p215
aS'AACCGCUGUUUAAAAAACGGGUACCGAAAGGUACCAGCGAUGCGAAAGCAUCGCGGGAAAAAUGAUAGCGGAA'
p216
aF1.0
aa(lp217
S'Snowflake 4'
p218
aS'GAUUUAUGAUCUACAUGCAAAGGUCAGGCAAUCGUCGCAAAGAGCAAGAGCUCAAAGAGCAAAUAGAAACUAUUCUCGCGGAUAGAGGUUGGAGAUACCCGAAAGGCAACCGAGCAAAGCUCAACUGGAAACCAGGGUUGCCGAAAGGGUAUCGAGAUAACGGAAACUCCAGCGAGCAAAGCUCAACUGGGAACCAGGCUGGUCGAAAAGGUAUCAAAAUAUCUGAAAACCAAGCGAGCGAAGCUCAACUAGAAACUAAGCUUGCCAAAGAGAUAUUAGGAUACCCGAAAGGUCAGCGAUCAAUGUUCAACUAGUAUCUAGGCUGGCCGAAAGCGUAUCAAGCCUGGGAAAACGAUGUGGAUUUAUAAUC'
p219
aF0.9081081081081082
aa(lp220
S'Mat - Cuboid'
p221
aS'UAAGGAAAAGCAAGGAAAAGGAAGUGACAGAAGCUGGGAAAAGCAAGCGAGGAAAAGAAGCAAGCAAGGAAAAGCAACCAAGGAAGGAAAAGCAAGCAACAAAGGAAGGAAAAGGUUGGAUGGUUGGUUGGAAAAGGUUAGUUUGUACGAUGAAUGGAAAGGGUUUGUUGGUUGGUUGGUUUAAAAAGGUUGGUUGGUUGGUUGGAUGGAAAAAGCCUGCCUUCAUUCCUUCCUUCCUGUUCCUUCCUACCUUCACUCCCCUGUCUUGGGGCAUUCCUUCCCCUUCCUUCCUGCCUUCCCCAAUCAAUCUAGCAAGCCUAACCAAGGAAGCCUGAGCAAGCAACCCAAGCAAGCCUAUGCAACACAAUCCUAAGCCUAAG'
p222
aF0.868421052631579
aa(lp223
S'Misfolded Aptamer 6'
p224
aS'AAAAAAGCCAAAAAAGAUCAGCAGGGACCAAAAAAAAGGUAGAGGAAAAAGAUCAAAAAAAGGCAAAAAAAAAAA'
p225
aF1.0
aa(lp226
S'Snowflake 3'
p227
aS'GAGUUAAAACAAGACCGCGAAAGCGAAUCCCAAAUAAAGACGAAAGUCCUCAGGGAAACCGACAAACUCGUGAAAACAGAGAUCGAAAGAUAAUAUCAAUAGAAUACGAAAGUCCUCAUGAAAAUAGACGAAGUCGGAAAGCCAGAGUUCGAAAGAGAACUAGGGAUCAAUACGAAAGUGCUCAGUAAAAGUGAAAAAGUCGCAAAAGCAGAGCUCGAAAGAGAAGAUUACGAUAAGACUAAUGUCCUCAUGAAAACAUUGAAACGGAGAAAGCUAGCGCCCGAAAGGGAAUACGAAAACGAGCCGAAAGGCCGAAUGGAAACCCAUGAAAUGCGAAAACCGUCGAUCGAAAGAUAAGUUUAGAGCAAGUUGAAAAGCGUCACGAAAAUGUUC'
p228
aF0.811704834605598
aa(lp229
S'Hard Y and a bit more'
p230
aS'AAAAAGAUAGUGGAGUACGAAAGUACAGUGGAUACGGGAAGAGCUAAUGUUCGAGAUAUAAAAAGAUAUCAGCCAGUAUUCUAUCAAAAAAAAAAAAAAAAAAAAA'
p231
aF0.9716981132075472
aa(lp232
S'Mat - Lot 2-2 B'
p233
aS'GAUGGAAUGGCCUUUGAAAAGAGGUACUGAAAGGAAAGUAAAUCUGUGGGUAAAUCCGUCUCGUGCAAGAUAGUGGAGGUAAAAGAAGUCGCCUCGAAAAUGAAAGCACGUUGUACGAGAAGUCACAGCCGGUUGGAAGGAAAAGUGCUAGACCGCGGACAUCGUCGAUCGAAAGAAAUAUAUUCCACUAGGAAAAUCGUGUACUACUGAGCUUCUGGUUGCCGAAGGAAGUUUGUUUAAAAGGAAAAACCAUAACAAAAAGGGCCGCUGCCGCUCGGAGCUAC'
p234
aF0.7605633802816901
aa(lp235
S'Shapes and Energy'
p236
aS'AAAAAAUGUAUAUUAUGAAAAGCAGUGGGUCAAAGGUUCCAAAAACAUGAAGCAAAAAGGUGCGAAAGCACACUUAUUAAAAAAAAAAAAAAAAAAAAAAA'
p237
aF0.9801980198019802
aa(lp238
S"Spiral of 5's"
p239
aS'UAAAAGAGACAAAGAUAAAAACAUAAAAAAGAUUCUAAGAUAAAAAGAUAAAUGAAACUAAAGAUACGAAGAUAAAAAGAUAAAAGAUACAAGGAUAAAAGGAUAAAAGAUACAAAGAUAAAAGUUACAAGGUGGGAGAUACAAGAUACAGAUACGGAGAUGAUACAAAAAGUAUCUGGGGGUCUCAAAAAGUAUCAAAAAGUAUCAAAAAGUAUCAAAAACCAUCAAAAAGUAACAAAAGUUAUCAAAAGGUAUCAAAAAUUAUCAAAAAUUAUCAAAAAGUAUCGAAAAUUAUCAAAAAUUAUCAAAAAGUAUCAAAAUGUUUCUAAAAUUAUCAAAAAUUAUCGAAAUGAAUCAAAAAUUAUGAAAAAUUAUCAAAAAGUUUCAAAAAAAAAAA'
p240
aF0.9949622166246851
aa(lp241
S'Campfire'
p242
aS'AAAAGGUGGAGAAUAAAGAUGGCGGGCGAAAAGCCCACUAGCAAAGCUAUGUUAUCAGCGUCAGCAGGAGACUUAAAGGGAGUCCCGCAACGGGUUAGGAGGUAAUCCCCGGAGACAGCCGAAAGGACGAUCUAACCAGCCGGCAGCUGAUUCGUGGGACAGCCACCUCGAAAGAGGGGCGUCGACGCGAUGAAGCUAGCAGUCAGAUUAUC'
p243
aF0.8679245283018868
aa(lp244
S'Anemone'
p245
aS'AAAGCUCAUAAAUGUGAGUAAAACUAAUUUUUUCCGUAGAAAGUUGCUAAGGACGAAAGUCUUCCGUUUAAAGGUAUGGAGGAAUAAUUUCUUUAUACGAAAGUAUAACAUUCGAAAGAAUGUAGGUAGAAAAUUACUUCAGACGAAAGUUUGAUUUAUGAAUAUAGGGCUAGCGAAAGCUGGCUAUUCGAAAGAAUCGCAACCAAAGGGUUGC'
p246
aF0.9252336448598131
aa(lp247
S'Fractal 3'
p248
aS'AAAAAAAGCUUGUGAGAAAAUAGCAAAAGCAGCGUGCCCGUUCAUACCGUAAUCGAGGAAGUCUCGAAAACAAUAAAAAUUAACGGACAUUAAAAGAGGAAAACGAGUCUGUGUAAAAA'
p249
aF0.8823529411764706
aa(lp250
S'Kyurem 5'
p251
aS'AAAAGACCUAAGGUCCAAUGAUGAUAAAAGCUAGGUCAAAGUCAAAAAGACGGUCGAGUAAAAUUUUCUACCGUCAGCAAAGGUAACAAAAAAAAAAAAAAAAA'
p252
aF0.9423076923076923
aa(lp253
S'Snowflake Necklace ( or v2.0 )'
p254
aS'GAUAUUAUCAUAUUCUGAGACAGUAAAAAACACGUAAAUCGAGAAAAAACCAGGAAAAACCAACAAAAAGUAGUUUCUGGCAAAAAGGCAUAGAGAGGAAAAGCCAGGAAAAACCAGGAAAAACUAGGAAAAACCGAGAAAAACCACUCUAAGACAAAAAGUUGAAAACAUGAAAAACAAGGAAAAACCAAUAAAAAACAGGAAAAACCAGGAAAAACCAGUUUUAUACAAAAAGUAAGAGGGAGGAAAAACCAGGAAAAACCAGAAAAAAUCGGGAAAAACCAGAAAAAGUCACCUUCAGUUAAAAAGUCAAAGACAGUAAAAAGCAGGUAAAUAGAGUAAAAAGCAAGAAAAAUUAGGAAAAGCCAGUCUUGGGAUAUGAUAAUAUC'
p255
aF0.87146529562982
aa(lp256
S'Methaqualone C16H14N2O Structural Representation'
p257
aS'AAAAAAAGAUCACAAGAUACAAACGAAAGUUAAUGUCUCGAAAGGGUGACAGAAAAAGGUUGCUCACUCGAAAGAGACUCGAAAAAAGAGAGAGAGUCAGAUACUAACUAUGACUUGAGCGCAAAGAACGCAAUGGAAACUGAAAAAAAGCCACUCAGAGGAAACUUUACGAAAGUAGACUAAUGUCAAGAUCAAAUACGUGAAAUUAACAGUAACUCAGAGUGCCAAAAGAUGAAAGUCGGGCUCGCGAAAGCGUCUCACUUGAAAGAGGGAGAGACGAAAGUCAUGCGGCCGACGAAAGUCGAAGAAAGUAACUGAAAGGAGGUUAGACAGCUGAAGGUGCAGAUCAAAAAAA'
p258
aF0.9464788732394366
aa(lp259
S"Cat's Toy 2"
p260
aS'AAAAGCGCUGGACAAAGUAAAUAAAAAAAAAAAAAAAAAUUACGCAAGGGGAAACUAAUCUGAAAGAAAAAAAAGGCUAAAAGAAUUCGGCGCAAAA'
p261
aF0.979381443298969
aa(lp262
S'Zigzag Semicircle'
p263
aS'AAACCUAUUUCAACAUAUGUUGUGCUAGGCCAAA'
p264
aF0.9411764705882353
aa(lp265
S'Short String 4'
p266
aS'AAAAAAGAAGAGUGCUUGGAUCGUGAGUGAAAACCAAUGUAACAGUUAAGUAAUCUGUGCAACGAAUUGCGAUUUCAAAAAAAAAAAAAAAAAAAAA'
p267
aF0.9381443298969072
aa(lp268
S'Gladius'
p269
aS'GGAAACAACAGGGGAAAGAGGGGAAGAAACACAGGCAAACUAGAAAACUAGACAUGCAAUAGCUAAUAGUCAACUAAAUGAAGAGAGAAUCAAGAUACCAGAUACAGAUCAGCAGAAAAUCAAGGAUUACUGACGAUCGAUAUCGCGUAUCAAGAUUUUCAACGCAUUAGUGGGGUCCGGAGCGGAAUCAUGGGUUAAAGACGGCAACAAAUGACAGCUGAGUGCUAGAUUGGAAGUUAUUCAGGCUACACAUACAGGUAACAGGCCGCAUGGAAAACUAUGCAUGUCGAUUACACGUAUCAGUAGCACGGAUAACACUAAAUCAGAAGCUCCAGGUUCUCGAGUUGCACAUGGAAACAUGAAAGUCAGUGAAGCAGCGCAACAAACAGGGGAAGAAAAC'
p270
aF0.905
aa(lp271
S'Thunderbolt'
p272
aS'GCAAGAGAAAAAAAAAAAGCUAAUUGGACAGGGAAAAUGGCGCUGUCAAUAAAAAUCCGAAAAAGACGAAAAAUGUCGAAAAAGGUACUGGUCGGAAAAAAGGUCAAAAAGGUCGAAGUUUCGAAAAAUGAAAUAGAUUAAAAAAGCGAAAACAAGGAAGAAUGCCGGGAUAAAGCUAGAGAUAAAGGAAAAAAAACAAUAAAAUAAUUAAAAAAAGAUGUUCUCAAAAAAAAGAUCGGACGCUUUGGAAAUUAAGGACGCUGCAAAAAAAAAAAUGCCCGAAAAAAAAACUAAUGAAAACGGGAAAAAAUGAAAAAAAACUAAAGUUCUUGAAUUAGAAGGACAGCGCAAAAAAAGCAGUAGACAUGAAAACAAAAAAAGAUCUUCAGGCA'
p273
aF0.8928571428571429
aa(lp274
S'Mutated chicken feet'
p275
aS'AAAAAAAUUAGCGGGUAGCUUAAAAAUAUAAGUAGAGGAUCAUGGAAUAAAGAAACAGAAUACCUCCACUGUUUAUCAAUGAAGCAGAACGGGUAAAAAA'
p276
aF0.82
aa(lp277
S'Chicken Tracks'
p278
aS'AAAAAAAAGCGUGGCUCAUGAAAAUGAAACUUGUAAUCGAGAAAAUCGAAAUAUUGUAGUGUAGGUCGAGGUAUUCGCAAUGAAGAAUUUGAAGUGCUGUCCCUGACAAAUAAAAA'
p279
aF0.9827586206896551
aa(lp280
S'Looking Back Again'
p281
aS'ACCAUGGAGGAGAUAAAGCACAGAAACUGUGCGCUUGAGCUCAACAAGACAAAGUCGACAGAUACAAAGAUCGAAAGAUCAAAAGUAUCAGCAGAAUCCAAGAUGGAAAAAAAGAUACGAAAGUAUCAAAAAAAUCCAUGCGAUACAAAGGAUCGAUACAAAGUAUCGCGCUGUCAAUUUGAAGAUCAAGUUGAUCAACGGAUCUCCAGUUCUUUGGGAGUUAAAAGGUAUCAGCGCAAAGCAUGUGGCUUAUACUUAGCAAAAAUGCAGCACCAAAAAAAGAUCAAAAAGAUUGUGUAAAUGCGUCUACUAGAAAAAAUCCGUACCGAAAGGUACGAAGGCAGUAUCAGAAAGGAAACGUUAAAGUCGGAAAACUAGCUAUGUAGGUC'
p282
aF0.8688946015424165
aa(lp283
S'Multilooping 6'
p284
aS'AACUAUCUGCCGUCCGAAAGGAUGUAUUUGAAAGAAUGGCGGGAUAACUAAAAUGUUGCAUCCUAAUGGAUGGAUACAUUGA'
p285
aF0.926829268292683
aa(lp286
S'Cesspool'
p287
aS'UAUAAACAAAACAACAGUUUACAAACAAAGUUAGGCAAUACUGAAAUAUAAAGAUAUACAAGGAAAAGGGAAAGAUGAAUAAAUGAGAAGGCCAAGAAAAUAAAUAUAUGUAGGGAAACACAGGAAACUUAGCACUAAGAAAUGGCACAUCAAAAGCGGGAAGAUGAAAGAAGGACAAGGUUAAAGAAAGCAACCAUUAGGAGCCAAAGCCAAGAAUUUUGCUUGUAUAAAAAAUCUUUCGGAAAUUUACAAGAUGAAAGAAGGCCCAGGGGGCAAUAAAAAAACGUCUAAUGGGAAAAUCCCAAAAGUCACGGACUUCUAAUUUUGAGUUGGAAACUUCGAAGAAGAAAUAAGAACC'
p288
aF0.6480446927374302
aa(lp289
S'Hoglafractal'
p290
aS'AUGUGAUAGGCACAAAAGAUACUAAAAUGUAUCGUGUCAGAGAAAGACCUCAAUGGUCGUCGCUCAAGACGAAAGUCGAGAUACAAAGAUCAAAGAUCAAAAAGGAUCGAUCCUCAAGACGAAAAGAGGAGCAAGGAAAAACCCAGCGCAAAAGCAAAGGCAAAAAAGUAGUUGCAGCAAAAAGUCUCUCAAUAGAGACAUGCAAAAAGGAGGAAAAAACCAAUUCAAAAAGAACGAAAAACACUCAAUAAAAAAGACAAAAGAGUCGGGAAAACCAACCAUGCACUAUGUGCGUGAAAAAAAAUUGAGAAAAAAGCAUGAAAAGGUGCAAAAGUCAAUUUAUUUAAUAGCAGAUCAAAGGUAAAACUGUGGAAAACUUUACAAAGUAGAGAGAUAGCGA'
p291
aF0.895
aa(lp292
S'Bullseye'
p293
aS'AAACUUGAUGAAAUAUCCGCUUUAAGAAAGAAGGCCAAAGGUCAAGAAAAAAAACAGGUCGAAACGAAAAGAUUAAAAAUGAACUAGAACCCAGGUAGAAAAAAUAGCUUCGAAGUAAGAAUAUGAAAGAUAGAAUAGAAACGAUGCGUAAAAAAUCUACUCCACGGCAGAAGUUCAAAGGACAAGUAUUACAAAGUAGUAA'
p294
aF0.8118811881188119
aa(lp295
S'Shooting Star'
p296
aS'AUAAUUGCUCGCGAUGCAAAAGGUAGCACACGGGGAGGAAUACACCCACGUGGGAUGUCUAAGCAUCGCAGAAAGAUUAUGUGGGAACAGGGGCAUACGGCUUAGGUACUCACAUGGCAUGGAGUCAAGUUACACUAGAUGACGAAAGAUAUACCCGCCGUGCAAGGUGUGAGUCUCAAAGUAUGCAUGAAAGGGAGUGGAGGCCAGAUCAGGCCAAAGCGAGCCUAUGGUUCGCGCAUGCAAAGCAUGGAGCGCCUGGCAAAGCCAGGUACAAGGAAACCAGUGAUCGUUCAACGAAAGCUACUAGUUUAGAGGGAGGAGAAGAAAACAUCUCACUGCACAAAUUCUGUUGGGGCAAAUUAUA'
p297
aF0.7472527472527473
aa(lp298
S'Teslagon'
p299
aS'AAAAAAGCAAAAAAAAGAUGAAAAAAAGGACCUAAAAAAAAAAAAAUGGUAAAAGAUAUCAAAAAAAAAAAAAAAGAACCGAAAAAACGGCCCAAAAAAAGAAAAAAAAAAAAAAACUGAAAAAGGGACGGAAAAAAGGCGGUAAAAAAAAAAAAAUCAAAAAAGAUAUAAAAAAAAAAAAAAAAUGACCGAAAAAAUGUCGAAAAAAAGGAAAAAAAAAAAAAAACUGAAAAAAUGAGGAAAAAAUGGGGGAAAAAAAAAAAAAAACCAAAAAGAUGCCAAAAAAAAAAAAAAAGCAACUAAAAAACAAUGAAAAAAAAGAAAAAAAAAAAAGUAAAAAAAAAAAAAAAGCACUAAAAAAACAAUUGAAAAAAACAGAAAA'
p300
aF0.9214659685863874
aa.