(lp0
(lp1
S'Simple Hairpin'
p2
aS'GUAUCAAAAAAGAUAC'
p3
aF1.0
aa(lp4
S'Arabidopsis Thaliana 6 RNA - Difficulty Level 0'
p5
aS'GGGUUUCAAAUGACAAAAAAAAAAAGUCGAUAUAUCCCCUAUAUAUUUAUAGAUUUUAAAGUAUCAAAAAAGAUACAAAAAUCAUAUAAAUAUAUAGAAGAUAUAUCAAGAAACCC'
p6
aF1.0
aa(lp7
S'Prion Pseudoknot - Difficulty Level 0'
p8
aS'GUGAACAGAUCAAAAGAUCGUUACACAAAAAAAAAA'
p9
aF1.0
aa(lp10
S'Human Integrated Adenovirus - Difficulty Level 0'
p11
aS'GAUACGUAGAUAUGUGGUAUCGAAAAAAAAAGGAGUCCAGAAAUAAAAAGCCGGACCAAAAGGAAUAGAGGUUCUAAAAAAUGAACCUCUAUCAAAUCCGAUAUUAUAACGACAUCCCUCUGGAGAGCUAUGAAAAAAGCGUAGCAAUCAAAAAAAAAAAAGGUACCUCAUAAAAAUCUAUGAAAUAUCAAA'
p12
aF0.9791666666666666
aa(lp13
S'The Gammaretrovirus Signal - Difficulty Level 0'
p14
aS'UAGUCGACGAUACAAAAGUAUCGGAGUCAAAAAUGAUCAAGACAUUACCAGACAAAAGUCUGAAAAGUAGGUCGAUCUGGGAAUAGGAAAGCUUAUUCCAA'
p15
aF1.0
aa(lp16
S'Saccharomyces Cerevisiae - Difficulty Level 0'
p17
aS'GGGUUUCCCAUAGAAAAAAGGUGACAUGCUAUAAUUAUCAAGAAAAUGUAUCGAAAAAAGAUACGAAAUCCAAAAUGGAAUCAAGGUCGAAAAAAAGACUGCUAAAAAAAAAAAAGGGCAAAUUUAUAUAAAAAUUGUAAGAUUCCAAAAACGAGUCCAACACCUAAAAAAUGGUGCUUUACAAAAAAGGUAAAGAAAUAUAUCAAAAAAAGAUGUGGACUCGAAAAGGGCUUUAACACCUAAAAAAUGGUGCAUUACUAAAAAUGUAAUGAAAGCCAUGUAAAAAUUAAGGGAAGCCCGAAGAAUAUUCAAGGUAGAAAAAAAUGUCCGAGGCUAAAAAUGUUUCGAAAGGUGAUUAAAAAUGUCACGAAUGUUAAAA'
p18
aF0.9947229551451188
aa(lp19
S'Fractal 2'
p20
aS'AAAAAGGGAUCUGAAAGAUAUUUAGCGAGGUAAAAAAAAAAAUACCGAACCGAAAAAAAAAGCGGUGCGUAGAAAAAAAAAGCUGCAAGCUAAAUAUCAAAGAUAUAUAGUAGGCUGGAAAAAAAAACAGCAGGUUGAAAAAAAAAACAGCAAGGUGGAAAAAAAAACACCGGACUAUAUAUCGAUGGUGUAUCGUGAGGACAAAAAAAAAAGUCCAUGAUGAAAAAAAAAACAUCUUGAUCAAAAAAAAAAGAUCUAAUGGUAUACUUAGCAGAUCCCAAAAA'
p21
aF1.0
aa(lp22
S'G-C Placement'
p23
aS'GAUCAAAGAUCG'
p24
aF1.0
aa(lp25
S'The Sun'
p26
aS'UGCACUGCCACCAAGAAAAACGCGUGAAUCACACGUUCGAAAAUCGAAAGCGGUGUAACACAGCCUUCCAAAGGGUAAUUCUUGAAACUCAAGCGGUCGAUGACUCAGCUGGGAAAAAUAGUAUUACAAAGAAAAACGCGUGAAUCACAGGUGUUCGCAGAACAAACCGUGUAAGCGAGGGCGGCUAUGCUGAUCCCUCUAAGUAGAGGUUCUCGAGGAGACACCCCUUAAAGACAGGGUAUUGAAGAAAAACUCGUU'
p27
aF0.810077519379845
aa(lp28
S'Frog Foot'
p29
aS'AAAAAAAAAACUCCGAAAGGAGGCGGGAAACCGCGGGCGAAGCCC'
p30
aF1.0
aa(lp31
S'InfoRNA test 16'
p32
aS'GGGUUCUCGGUGGAGAAAGCUCCAUCCAGUGAGCCC'
p33
aF1.0
aa(lp34
S'Mat - Martian 2'
p35
aS'GACCAAAAGGUCAAAGCGUUUCAAGGGUUUCAAAAAAAGAAACCCGAAACGCAAAGGGAUAUGAAAAAAGGGUUUCAGGGUUUCAAAAAAAGAAACCCGAAACCCAAAGAUAUAUAGAUAUGUAAAAAUCAUAUCUAGUAUAUCAAAAAACAUAUCCCAAAGAUAUAGAGAUAUGAAAAAAACAUAUCUAACUAUAUCAAAGAUCAAAAGAUC'
p36
aF1.0
aa(lp37
S'square'
p38
aS'GGGAUACCAGAGCCAGAGUCCAGAGCAAAGCUCUGAAAAGACUCUGAAAAGCUCUGAAAAGUAUCCC'
p39
aF1.0
aa(lp40
S'Six legd turtle 2'
p41
aS'AAAAAGCGAAAUAAAAAUAAAGGGAAACCAAGCGAAAAUAAAAACAAAAGUAAGUAGAAAGAAAAGAGAAAUUAAGGCAAAAAAAAAAAAAAAAAAAA'
p42
aF0.9591836734693877
aa(lp43
S'Small and Easy 6'
p44
aS'GCCGCUAAAUGCAAGGGAAAAAAAACCGGC'
p45
aF1.0
aa(lp46
S'Fractile'
p47
aS'AAAAAAAAAAAAGCAAAAGCCAACUGAAGCAAAUGCAGACUAAGGGAAAUCAAUUCAAUCAAAAGAAAAGGAAGUAAAAGUAAAAUAAAAAAAAAAAAAAAAAAA'
p48
aF0.9619047619047619
aa(lp49
S'Six legd Turtle'
p50
aS'AAAAACUAAAAUGGAAACAAAAUAUGAAAGGAAAUUGAAAAAGUAAUGGGAAAUCUAAAAGGAAACUAAAUGUAAAAGCUAAAAGAAAAAAAAAAAAAAAAAAAA'
p51
aF0.9619047619047619
aa(lp52
S'snoRNA SNORD64'
p53
aS'GGUAUCAAAAAGACAAAAGACAAAGUAUCAAAAAAAAAAAAAGAUACAAAAGUCAAGUCAAGAUACC'
p54
aF1.0
aa(lp55
S'Chalk Outline'
p56
aS'AAAAAGAUGAGAAGUGAAAGCAUUCAGACAGACAAAAGUCGUCGGGCAACUAAUGUAUGCCACGACCAAAAGGUACGCAUCGAAAAAAAAAAAAAAAAAAAAAA'
p57
aF1.0
aa(lp58
S'InfoRNA bulge test 9'
p59
aS'GGGUUUCAGAGAGAGGGUUUCAAAAGAAACCCCCCGAAACCC'
p60
aF1.0
aa(lp61
S'Tilted Russian Cross'
p62
aS'AAAAACGUGCUGAGAAAUCAGGGUGGCAGCGAAAGCUGGGGUCGAAAGAUCCAGCUCGAAAGAGCCACCGGACGAAAGUCCCGCGGAAAAAAAAAAAAAAAAAAA'
p63
aF1.0
aa(lp64
S'This is ACTUALLY Small And Easy 6'
p65
aS'AAAAAAAAAAAAAAAAAAAAAAAAAAAAAAAAAAAAAAAAAAAAAAAAAAAAAAAAAAAAAAAAAAAAAAAAAAAAAAAAAAAAAAAAAAAAAAAAAAAAAAAAAAAAAAAAAAAAAAAAAAAAAAAAAAAAAAAAAAAAAAAAAAAAAAAAAAAAAAAAAAAAAAAAAAAAAAAAAAAAAAAAAAAAAAAAAAAAAAAAAAAAAAAAAAAAAAAAAAAAAAAAAAAAAAAAAAAAAAAAAAAAAAAAAAAAAAAAAAAAAAAAAAAAAAAAAAAAAAAAAAAAAAAAAAAAAAAAAAAAAAAAAAAAAAAAAAAAAAAAAAAAAAAAAAAAAAAAAAAAAAAAAAAAAAAAAAAAAAAAAAAAAAAAAAAAAAAAAAAAAAAAAAAAAAAAAAAAAAAA'
p66
aF1.0
aa(lp67
S'Shortie 4'
p68
aS'GCAAAAGCAGCGAAAGC'
p69
aF1.0
aa(lp70
S'Shape Test'
p71
aS'AAAAAGAGAUGAAGUAUCAAAAAAAAGAUACAAGACAUACAGUAUCAAAAAGAUACAGAUCAAAAGAUCAGUAGUCAACAUCGCAAAAAAAAAAAAAAAAAAAA'
p72
aF1.0
aa(lp73
S'The Minitsry'
p74
aS'GCCAAAAAGCCAAAAAGACAAAAAGACAAAAAAACAAAAAAAAGUUGGUCAGUCGGGCGGGC'
p75
aF1.0
aa(lp76
S'stickshift'
p77
aS'AAGGGUUCCCAAAAAGGAGAACCCAA'
p78
aF1.0
aa(lp79
S'U'
p80
aS'AAAAAGUAUCAGAGAGCAGAGGGAUAUAGAAAACUAUAUCCCCGCCCGAUACAAAAA'
p81
aF1.0
aa(lp82
S'Still Life (Sunflower In A Vase)'
p83
aS'AAGCAUGGUUGAGGUAAAUUCAUAUACAAAUGAACACACAACUUUCUAACUGAAAGACUUUUCAAAGAGGGAAAGUUGGAAAAAAACGAGCGGGGGAAAACACCGAGAUGUUUGAACAUAUGGAUAGCUGUACCAAAAAAGGUACAGCAUGGAAAAAAAAAAAAGAUGAAAAAAAAAAAAAAAAAAAAAAAAAAAAAAAAAAAAAAAAACGUCAAAAAAAAAAAAACAUGCGUAUCAAAGGAUACAGGCUAUCCAUAUGUUUAAACAUCGGUUAUCAAAAAGACAGAACUAUAUAAAUUGUAGAAUUCUCAAACACCGGACACUCAAUAAAUUUGAGGGAGAUGAAAACAUCAAACGCUGGAAAACAGCGACAUGAAA'
p84
aF0.955026455026455
aa(lp85
S'Quasispecies 2-2 Loop Challenge'
p86
aS'AAAUACGUGGAUGAGCUUCAAAAGAAGAGUAUCUGACCAACAAAGGGGGUCUCCUGAACAGCGCUAAAUGCGACGGGCAGGCAUGAAAAAAAAAAAAAAAAAAAA'
p87
aF1.0
aa(lp88
S'Corner bulge training'
p89
aS'AGGUAUCGUAUCAAAGAUACAAAAGAUACCA'
p90
aF1.0
aa(lp91
S'Spiral'
p92
aS'AAAAAGAUCAGGUAUCAGACAGUAUCAGAUCAGAUCAGCAGCAGCAGCAGCAGCAAAAAGCGCGCGCGCGCGAUCGAUCGAUACGUCGAUACCGAUCAAAAA'
p93
aF1.0
aa(lp94
S'InfoRNA bulge test'
p95
aS'AAAAAAAAAAAAAAAAAAAAAAAAAAAAAGUAGAAAAAAGACUGAAGCAUCUGGCCCCGGCAUGUCCCCAAAAAGGAGGUCACUGAAGGAGGAAUGACUGAAAAAAGAUCGAAAAACUCGCG'
p96
aF1.0
aa(lp97
S'Worm 1'
p98
aS'AAAAAACAUGCCUCGUGUGCCGCUAAAGUACGUCGGAAGCCAUUU'
p99
aF0.8666666666666667
aa(lp100
S'just down to 1 bulge'
p101
aS'AAAAAAAGGGGCUUUUAAUCAGACAGUUUAAUAGCGUUCUAAAAAGUGUGGAGUAAUUUCUGACGAAAGUUUAUACGAAAAAAAAAAAAAAAAAAA'
p102
aF0.9791666666666666
aa(lp103
S'Iron Cross'
p104
aS'UGACAGAUAAAGAAAUUAAAAUGGGGACAAAAGUCAGUCGAAGACGAUCUAAAGACACGCAAGGCGAUUCAAAGAGGCUCAAAAGGGAGGCAAAGUUGCGUAAAGUAACAGAAAUCAGUUCUA'
p105
aF0.8617886178861789
aa(lp106
S'loops and stems'
p107
aS'AAAAAGGGUUGCAAAGAUUAAAGAUGAAAGUUGAAAAAAAAAGUAUCAAAAAAAAAAAAGAUACAAGCAGCAAACGAUGUAAAAAAAAUUAUCCAACAUCAAAGACAAAAAAAAGUCAAAAAUCAGGCAAAAAAGCAAAGUAACCCAAAAA'
p108
aF1.0
aa(lp109
S'Water Strider'
p110
aS'AAAAGACGGCUAGCAGAAAUUAAAAGGCAAGAAAGGUGUUCAAAAAAGCAAUUAAUGUUGCCAAAAGCCAGUUGGAUACAGUAAAAAAAAAAAAAAAAAAAAA'
p111
aF0.941747572815534
aa(lp112
S'The Turtle(s) Move(s)'
p113
aS'AAAGGGAAACCAAACGGAAUAUAAAAAAAAAAGUUAUAUUCCUAACGAUCAAAAAGAUCAAAACCUGGAAACAGAAACUACGAAAAAAACGUAGAAAACGGAAAACGAAAGUAAAAAUACGAAAGUAAAAGUGGACCAAAAAAGGGUCCAAAAACUGGAAACAGGAAAGCAAUACAAAUGACAAAAAAAGUCUUCACGAAAAAAAGUGUAACUAUUGAAAAAGAUAGAAGCUACUAAAUGUAGAAGUAUUGAAAAAAAAAGCUAAGGCAAAAACGGAAACGGAAAUUGUAGCUAAAAAAAAUGCUACUCAAACCCG'
p114
aF1.0
aa(lp115
S'Adenine'
p116
aS'GUUUCAGGUAUCGGGUAUCAGGUAUCAGGUAUCAGGUAUCAAAAGGUAUCAAAAAAGAUACCAGAUACCUGUAUCAAAGGGUUUCAAAGAAACCCGAUACUGAUACCAGAUACAUAGAUCGAAGAUCUAUGAAGUAUCAGAUACCAAAAGAUACCAAAAGAUACCAAAAGAAAC'
p117
aF1.0
aa(lp118
S'Tripod5'
p119
aS'AACUACCAGCAAAAGGCUGACGUAAAAGGCGUGUGGGA'
p120
aF1.0
aa(lp121
S'Shortie 6'
p122
aS'GCGAAAGCACCAAAAGGAGGAAAGCCAGCGAAAGC'
p123
aF1.0
aa(lp124
S'Runner'
p125
aS'AAAAGGCCGACAGGACAAAGGUUUAUAACCGCCUGAAAGACUAGCAGUCAAACACAAAAGGGUAAACUAUAUUAAAUACUGGCAAUGAAGAAGAUGAAAAUACUUCGCGGCAAAAA'
p126
aF0.9482758620689655
aa(lp127
S'Recoil'
p128
aS'AAAAAGUAUCAAGCAAGCAAGACAAGACAAGCAAGCAAAGCAGCAGUCAGUCAGCAGCAGAUACAAAAAAAAAAAAAAAAAAAAA'
p129
aF1.0
aa(lp130
S'[CloudBeta] An Arm and a Leg 1.0'
p131
aS'AAAAAGACGGCACUAAAAGGAUGCGUCAGCGAAAGCGACAGUCGAAAAAAAAAAAAAAAAAAA'
p132
aF1.0
aa(lp133
S'[CloudBeta] 5 Adjacent Stack Multi-Branch Loop'
p134
aS'GCACCGAGUGAAAGCUCGUAUGGAAACAUACCUAUGAAAGCAUGGUAUCGAAAGAUAGGUGUA'
p135
aF1.0
aa(lp136
S'Triple Y'
p137
aS'AAAAGGACGCAUCGGUCGAAAGAUUGGUCAAAGGACAGAACAGUUGAUGGAAAUGUUGAUUGAAAGGUAAGCCAGUCAAAAAAAAAAAAAAAAAAAA'
p138
aF0.8969072164948454
aa(lp139
S'Misfolded Aptamer'
p140
aS'GAUGUAAAAUCCGACGAAGUCAGCUAAUGCAAAAAAAAAGGUAAAUCAUC'
p141
aF1.0
aa(lp142
S'Flower power'
p143
aS'AAAAUGAACGGUCAAAGACCAGCUGCCUGAAAUAGGAAGAUCAAAGAUCAAGGAUAAGGUCCCAGCACUCCAAAGGAGGUUCUAAAAAAAAAAAAAAAAAAA'
p144
aF1.0
aa(lp145
S'Kudzu'
p146
aS'AAAAAAAAGAAAUGGACGUAGGGCAUCAAAGAGUAUCAUCUUGCCAAAAGAUAAGAGCAUGAAAUCAAAUCCAAUAUAUUUAAAAAAAAAAAAAAAAAAAA'
p147
aF0.9603960396039604
aa(lp148
S'"1,2,3and4bulges"'
p149
aS'AAAAGCGUAGGAAGCUAAUGCCAAAAUCGCCAAAAGUGCAUAAUGAAAAUCUAUGCCAAAGGCAAACCUUCUAAUGGAAUAAAGAAAAAAAAAAAAAAAAAAAAA'
p150
aF0.9428571428571428
aa(lp151
S'medallion'
p152
aS'GGGCUCUCAAUGGUAAUCCAUUGUCACGAAAGUGGUACGAAAGUAACUGGUUUAAUGACCAGACUCGAAAGAGACUAUACAAAGGUAUAGACAGAAAAAUGACUCAAAAAUUGCGGUGAAAAAUUAUCGACACGAAAGUGACAACAAAAAGUUAUUGGGCCAAAAGGUGCAAAAAAAGGAGGCUAGUAAUCUAGCCAAUGUAAAAGCUCGAGCCAAAAGGUUCUUCAAAAAAUACAUAAAAAGGUGUAAAAACUAAUGUUUUUCCCCUAAUGAGACGAGACGAAAGUCUCGGGAGGAAAUUCAUCCAAACGGGGCGAUCCAAAGGGAUCGAGACUCC'
p153
aF0.9109792284866469
aa(lp154
S'[RNA] Repetitious Sequences 8/10'
p155
aS'AGGAAAAAAGCAAAAAAGCAAAAAAGCAAAAAAGCAAAAAAGCAAAAAAGCAAAAAAGCAAAAAAGCAAAAAACCAAAAA'
p156
aF1.0
aa(lp157
S'Documenting repetitious behavior'
p158
aS'AAAAAAAGCAAAGUUAAAGUAAAUUCAAACGAAGGUUAAAGCAAUUUUAAAGCAAAUUUAAAUGAAAAUUAAACUAAAUUAAAAUCUAAAUUAAAGUUAAAAAAAAGCAAAAAAAUGUAGAAAAAUUGGUUAACAAUUACCAAACAAUUGUCGAAACACUUCGUAAGAAUUUGCAAAAUAUGCACAAAAAAUUAGAGAAAAAAAAUUGAAUAUAAGGUUAAUUAAAGGCAAAUUAAAUCGAAAUAUAAAGAAAAUACAAAGGGAAUAAAAUGCAAAUUCAAAUAACAUUUAAGGUGAAAAAAAUACAAAAAGUUUGGGAAAAAUCUAGAAAAAAUUUGAAAAAUAUUUGCAAAAAACUGGCGAAAAAAUGUGGAACAAUUUACAAAAAAUUUGUAAUAAA'
p159
aF0.745
aa(lp160
S'7 multiloop'
p161
aS'CCGGCGUCGGAAACGCCGGUACCUAAUGGUAUGGCGGGAAACUGGUUUGCCUAAUGCUGGGAUGCAAAGGCGUUCUUACUAAUGAGAGCUGG'
p162
aF0.9782608695652174
aa(lp163
S'Kyurem 7'
p164
aS'AAAAUGUCUGUUCCAUAAUUGGACCUAAAGAGGCCGCUAACUGGAAAGGUGGAAAAACCUGAAAGCGGCUUGGUGAGAGGACUAAAAAAAAAAAAAAAAAAA'
p165
aF0.9607843137254902
aa(lp166
S'JF1'
p167
aS'UAUAGAGGUAUACUAUGAGUUAUCAAAAGGUAUCAAGAUACAAAGUAUCAAGAUAUGAGGUAUAUAGAUAUGAAAACAUAUCUAUAUACCAAGACUAAUGUCACCAGAUAUCAAAAGAUAUCUGGAACUAUGGAAACAUAGACAUAUCAGAUACAGUAUCAGAUACCAAAGGGAUAUCAAAAAGAUAGUCCCAAGAUAUAUAGAGAUAUAGAUAUAUGAAAACAUAUAUCUAUAUUAUCUAUAUAUCAAAGUAUCUAAAAUGAUACCUAGAUAUUUGAAAAAAUAUCUAGAAACUACUAAUGUAGAAGAUAAGACAUAGAUAUCAGACAGACAAAAGUCGUCGAUAAGGGAGAUAGAAAACUAUUAUCCCAAUACACUUAUAUAAAA'
p168
aF1.0
aa(lp169
S'multilooping fun'
p170
aS'CUGAAUGAUGAAAAUUGUACAUCUACUUCAAACAAG'
p171
aF0.8611111111111112
aa(lp172
S'Multiloop...'
p173
aS'GUGCAGAUAAGACGAAAGUCGGGGAAAACUCAGAAGAAAUUCAGUCAAAAGGCGGAUGAAAGUCGCACGAAAGUGAUAUCAGUGUCAAAAAGGACACGGGGAAACUCGCAC'
p174
aF1.0
aa(lp175
S'hard Y'
p176
aS'AAAAAGAUCCGCCGGUUACCAAAGGGUAGCCAAUGUAUAGAUAGGAAAGUCUAUCUAUAGAUCGAAAA'
p177
aF0.9705882352941176
aa(lp178
S'Mat - Elements & Sections'
p179
aS'AAAAGGGGGGCAAAGAACUAGUACAUAAAGUUCUGAGCAAACAAAGGUUGUACCCGAUGAUAUGAAAUGAUAGUGUGAAGACUCCAAAAAAAAAAAAAAAAAAAA'
p180
aF0.9809523809523809
aa(lp181
S'Chicken feet'
p182
aS'AAAAUUGAGCGGGGAACUUGAAAAUCUAACCUAUGUAGAACCAAAGGGGUAAAACGAGGCGCAAAAA'
p183
aF0.8805970149253731
aa(lp184
S'Bug 18'
p185
aS'AUGAACGGGAGAAUACAGGUGGUAAGCUAAGGAUAUUUAAUAAAGUGAAAUGA'
p186
aF0.9245283018867925
aa(lp187
S'Fractal star x5'
p188
aS'AAAAACGAUAUACAAGAUCAAAAGAUCAUCGAAAAAAUUCGUACGACAAAAGUUGAACUUCAAAAGAAGAAGUAUAUCGAAAAACGAGAUACAAGAUGUAAUUAUCAACUGCGAAAGCGGAAUACUGAAAAGUGAACUACAAAGGUAGAAGUGUCUCGAAAAGAGUGAUACAAGGCCAAAAGGCCAACUACAAAGGUAGGGCUACAAAAGUAGAUCGACAAAAGUCGUAGUAUCGCUAAAAAGGAGAUACAAGGUGAAAACACCAACGUUAAAAGACGGACUACAAAAGUAGAGGCACAAAGGUGUGAGUAUCUCCAAAAACGAGAAACAUGAUCAAAAGAUCUAUUGCAAAAGCAAAAAGACAAAAGUCUAACUACAAAAGUAGAAGUUUCUCGAAAAA'
p189
aF1.0
aa(lp190
S'Crop circle 2'
p191
aS'UUAAGCAAAAAGAAAAAGAGGAAAAAAAACGUAAAAAAAAAAAAAAAAAAAAAAAAAAAAUCGGAAAAAAAAAAAAAAUUAAAAAAAGGUCAAAAAAGUGAAAAAGAAAA'
p192
aF0.9636363636363636
aa(lp193
S'Branching Loop'
p194
aS'UGGGUAAAUAAAAGUGUCCAAAAGGUUGAGGUCUAAAAAA'
p195
aF0.95
aa(lp196
S'Bug 38'
p197
aS'AGUAAUAGAAACAAAAAAUAUGGUCGGUUGAAAGCA'
p198
aF0.9444444444444444
aa(lp199
S'Simple Single Bond'
p200
aS'AAAAAAGGAAAAAAAUGCCCAAAAAGGGUUAAAAAAAACGAAAAAAAAAAAAAAAAAAAAA'
p201
aF1.0
aa(lp202
S'Taraxacum officinale'
p203
aS'AUGGGAAACACACAUGUGAAAAGUGCAGCGACGAAAGAUCGACUACGAAAGAUAGAUGCUGAAAGACCAGGGAUAAAAAAUUCAGAUACUUAGAUGAUGUAUCGAGGAAUUCGUGUACGUCUGUGUCAAGAUAUAUAGAAGGCGCUACAAAGUAGCGCAUUUAUAUAUCCACCAUGUUUCAAAGAAACAGGUGGACACUAAAUCUAGGUAUCAGUCCGAAAGAGGCCUUGCGAAAGAUAAACUGCAAACGACAGGCUGCUAAUGGCCGACAAUAAAAAAUUG'
p204
aF0.9361702127659575
aa(lp205
S'Headless Bug on Windshield'
p206
aS'ACCGCCAAAAAAACUUAAGUCACUCAAAAAAAAAAAAAAAAAAAAAAAAGCAUAGGAAGAGGAUUGGGGGAGGAGACAAUCCAAGCAAAAAAUGAGAAAUUUAAAUAAGCGUAAAAAAGGUCAGGUUUAAAAAAGGAGGAGUAACCCGCCGUGACAUUUUUUAUUUUUAGGUAAUCGAAGGGGGACAUGCAAAAAAGCCA'
p207
aF0.98
aa(lp208
S'Pokeball'
p209
aS'AAAGCGGUUGAAAGGAAAGGAAGAGAAGGACGGAAGGGGGGAUAGGAAGUAUCCAUGUGCCACCGCCAACCACUCACCAUCUAAUCGCAAAAAAAAUGGUUUUAAAAGGAAGGAAGACAACGAGCCAAAGAGGGGCCCUAUGAAACGUGGAACCACUAGGACCCAGUCACCAUCGAAACCAAAA'
p210
aF0.9782608695652174
aa(lp211
S'Variation of a crop circle'
p212
aS'AAAAUCUAAAGGAAAGCUCAGAGGAAAUCCUUUAUAGUCGUAAAACCUAAAAAGCAAAAAAACCAAAAAAAAUGGUAAAAAAAAAAAA'
p213
aF0.9318181818181818
aa(lp214
S'Loop next to a Multiloop'
p215
aS'AAGGUAGAAUUAAAUAACGGGUAUCAAAAGAUACCAGGGCUUCAAAAGAAGCCCAGGAAAAAUAUUUUGCCGA'
p216
aF1.0
aa(lp217
S'Snowflake 4'
p218
aS'GAUAUAUGACCCUGAGGUAAAAGACUACGUGAUAUCUCAAAGGACUAUUGACCUAAGGUCAAAAACUACGUUUGAUAGUCAAAACGAAUACAAGUAUCCCGAAAAUCGAUCGAAGAAACCUUAAGUACAAAGUACGAUCGACAAAGGUGAUAUAACUUGCACAAAAGUCGAUCCAGGAAGCCUGAAGUACUAUGUGCGAUCGCCAAAAGGGUAAGAAAUAGCCCAAAGGGUGAGCCAAGAAACUUCAGCUCCAAUGGAGGUAAGCCAAAGGGGUUAUGAUUAUAGCUAAUGCCUAUCAAGCAAAGCUCAACUUUUAUGAUGCAUAGCAAAAAGGGAUACUUCGUGGCCAAAGACCUCAGGCUCAAAAAUC'
p219
aF0.8378378378378378
aa(lp220
S'Mat - Cuboid'
p221
aS'GGAGUAAAAGCAAACAAAAGCAAGCAAAAGAAGCAAUCAAAAGACAGGAAGCAAAAGAGCCAAGCAAGCAAAAGCAAGCGAGCAAUCAAAAUUAAAGAAGCAAGCAGGCAAAAGCAACCACCCUCUCUCCCAAAAGAUCCAUCUCGGCAGUACUCCGAAAAGGUUCACACGGCCCUACUACCUAAAACCGCUCACCCUCAGACCGUUUCAAAAAUGGUACGACCUAUGGAAGGAAGGAGAGAGAAGCAAUGGUGGUACCCGAUGUUAUGAAGAAAUGAUUCGGAUGAAUGGAGGGGGGCGCAAGCAAGCAAUUAAAAGCAAGCAAGCAAGUGCAAGCAAAGAACGCAAGCACGCGAAAGCCACACAGCCGCAAGUGCGAU'
p222
aF0.868421052631579
aa(lp223
S'Misfolded Aptamer 6'
p224
aS'AAAAAGGACAAAAAAGCUCAAGUAAAAACGAAAAAAAGUUAAAUCGAAAAGAGCAAAAAAAGUCAAAAAAAAAAA'
p225
aF1.0
aa(lp226
S'Snowflake 3'
p227
aS'GAAGCAAAAGCUUGCCACAAAAGUGAAGAUGAAAUGAAGAGAAAAUUCUAUUACGAAAGUUACAAAGAUGCAAAAGCAAUACACAAAAGUCAAUAUCGGAUAAAGACAAAAGUCCGUUCGAAAACGAAUAAAAUAGUUAAUGCUAUGCACAAAAGUGAGCAUGAGAUGAAGACAAAAGUCCGAUGCGAAAGCUACAAAGUACCAAAAGGUUGGCACAAAAGUGAACAUCAAAUGAAGACAAAAGUCCCUGACAAAGGCUACAAAGUACCAAAAGGAAAGCGCAAAAGUGAAGAUCAGAUGGAGCCAAAAGGCGCUAGCAAAAGCUACAAAGAACCAAAAGGAACCAACAAAGGUGAACAUGACAUCAAGACAAAAGUCGUAUGCGAAAGCUUC'
p228
aF0.8091603053435115
aa(lp229
S'Hard Y and a bit more'
p230
aS'AAAAGCUCUCGCGAUCUAAAAAUCUACGGCCUUUCACCAAGAUGGAAAAAUCGUCUGUCUAAAAUGAUAGUAGGGGAAAGAAUACAAAAAAAAAAAAAAAAAAAAA'
p231
aF0.9716981132075472
aa(lp232
S'Mat - Lot 2-2 B'
p233
aS'UAAUGCUCCUACUAACAAAAUCGUCAACAAAACUAAAAACUAGAGAGUUAAAAAAGAUGCCUAAAGAAGCUACGUCUCCCAAAAACAUGUAUAACCAAAACCAAAAGGGGGGAUAAAAACUGGUGGAAGGUCUACGUAUUGGAACGGCCCGUUCGUCCAAAAUCUCCUAGAAAAUUAAAAAGAAGACCGAGAAAAAAUAUGCCGGAGCAACGGAAGGGCAUCAAAAGAUGGGUCUCGCAAAAGCAAAAACGUAAGGAAAAAUAAUCGAGAUCUUAAACAACUAG'
p234
aF0.7323943661971831
aa(lp235
S'Shapes and Energy'
p236
aS'AAAAAAGUGCCCUCUAUAAAAGAAGUUCCACUAAUGGGGAGAAGAGUAGAAGCAAAAAGAAUUGAAAAGGCACUGGUUUCAAAAAAAAAAAAAAAAAAAAA'
p237
aF0.9603960396039604
aa(lp238
S"Spiral of 5's"
p239
aS'CAAAAGAAUCAAAGUAUCCUAGUAUCAAAACUCCGAAAGUAUCAAAGUGUCAAGUAUCAAAAGUAGCAAAGUAUCAAAUUUUCAAGUAUGAAAGUAGCAAUGUGUCAACUAUCAAAUUAUCAAGGAACAAGUUUCAAGUAACAAGUACCAGUAUCAGGAUGGUAGGAAAAACCUAUAAAAACGUCCAAAAAGGUACAAAAAGGUACGAAAAGUUACAAAAAGAAGCAAAAAGUUCCAAAAAGAUAGAAAAAAAUAGAAAAAGAUACUAAAAGGUACAAAAAGAGACAAAAAAAUGGAAAAAGAUACAAAAAGCUACGAAAAGAUACAAAAAGAUACAAAAAGAUACAAAAGUAUACAAAAAGAUACAAAAAGAUACAAAAAGAUUCAAAAAGAAAAA'
p240
aF0.9949622166246851
aa(lp241
S'Campfire'
p242
aS'AAAAGAUCAAGUAGGAAGAGAAAGAUUGAAAAGAUCGCUAGCGAAACUACCCUUUCACUGUGAUCACUAGUAGCUAAUAUUUACGAGAUAAUCGGCAGCACCAAAGGGGCGCGGUAAAAAAAAAUUACCAAUAAAGAAUAACCCAACUCCUGCCACUGACAGUCAGUUCAAAGGAACGGCGUCCGGGCGGGAAGCCUAGGACCGUGUGGAUC'
p243
aF0.8726415094339622
aa(lp244
S'Anemone'
p245
aS'AAAGGGAUUAAAAGCUCCCCUAGUAAAGACUAGGGGCAAAAAGUAGCCCAUAGGGAAUUUCCAGGAAUAAAAGUAUUUUAUUUCGAAAGAGAAGAAUAGAAAUAUUCGGUAGGUAAUCCUACCAGCGUGGAAACACGCUCGUUGAAAGUAACGAAUAUCAAAGAAAUUGGCGUCUAAUGACGUCGCGUUGAAAGAUAAGGCUUGAAAUUAGACC'
p246
aF0.8504672897196262
aa(lp247
S'Fractal 3'
p248
aS'AAAAGGAGAAGAGAACAAAGGUGCAAAAUAACUUUACCAGCAAAAACGCGAAAGCAGGCGCACGGCUAAUGUACAAUAGUAGUCAGACACGAAAAUACUAAAAGUAGACAUCUCAAAAA'
p249
aF0.9159663865546218
aa(lp250
S'Kyurem 5'
p251
aS'AAAAUAGGAGCCUAAGAAAUUAAAGGAAAGAUAGGGGAAAGAGGAAAACUUCCUCAGUGAAAAAGCAAUAUCGCUGGGACAGCCUAAAAAAAAAAAAAAAAAAA'
p252
aF0.9615384615384616
aa(lp253
S'Snowflake Necklace ( or v2.0 )'
p254
aS'GAAAUAUAGAUAGGUAGAAUGAGCAAAAAGCAGUAAAAAACACAAAAAAGGACCAAAAACGAUGAAAAAAGACAUUUAAACAAAAAGUGAGUACGGGCAAAAAGCAGCAAAAAGAACCAAAAAGGACCAAAAAGGCUGUAAAUUAACGCACAGUCAAAAAGACAGUCUUAGGUAAAAUUCUCAAAAAGAUCCAAAAAGGUCCAAAAAGAACCAAAAAGGAAAUACGACCAAAAAGGUACUAUGAGCAAAAAGCGCCAAAAAGGACGAAAAACGGCUAAAAAGAACCUAAAGCGACAUAGAAACGAAAAGUUAGUGCGAGGGAAAAUCAUUAAAAAAAACCAAAAAGGACCAAAAAGGACCAAAAAGGACGCACAAUUUAUCUAUAUUUC'
p255
aF0.8817480719794345
aa(lp256
S'Methaqualone C16H14N2O Structural Representation'
p257
aS'AUUUUAGCAUGUGGUAAGACACACAAAAGUGAGACACACAAAACUGAGACGUACAAAAGUAAGACAGAUAAAAAUCGCACAAAAAAAGUGAGUCGGUCAGUCAGUCAAAAACACAUUAGAUGGUAUCACUCAAAGCAAAGCAAAAAAAAGAGGGAUACACAAAAGUGAGCAAAAGCUCACGAAACUGAUCACGAAAUACCGGAAACAGACAGAAGCACAUGCGGCCAAAAGACAAAGGUCAGGCACGCGAAAGCGGGUAAGACAAAACUCGGUGAAGAUAAUGUCAUUCGUACCACAAAAGUGUACAAAAGUAAAAUAAAAGUUGUAAGUCGGGUGAAACAUCUCAUCAUUUAAA'
p258
aF0.9267605633802817
aa(lp259
S"Cat's Toy 2"
p260
aS'AAAACUGUUAUGUAAACGGGGGAAAGAAAAAAAAAAAAAAAAUGUAAACUGAAAGGAAUGAAAACUGAAAAAAAAACGAAAAAUGCAUGACGGGAAA'
p261
aF0.979381443298969
aa(lp262
S'Zigzag Semicircle'
p263
aS'AAAAAAUAGGUGUUAAAAAGAGAAACUAUUGAAA'
p264
aF0.9411764705882353
aa(lp265
S'Short String 4'
p266
aS'AAAAAGGCACAGUGCAUGAAAUGGCAACAAAAGUGUAAGAAAGACCACGGAAAGCCAGGGAACGAACCGCUAGGACAAAAAAAAAAAAAAAAAAAAA'
p267
aF0.9381443298969072
aa(lp268
S'Gladius'
p269
aS'CGAAAGAAGAAAAGAAACAGAGAAAGAAAUACAUGCUAAGAUCGAAAGAUCAUUAUCAAGGGGCAUGUGAUUGGGUGUACAAGGGAUACAUCAGAUAUGAGUGAAGGAGCAGAUAAAGAUCAAAGAUCGUAUACGCUCGGUCACCAGUAUCGAGUGUAUCAAUAGUGCAUGAAAUCAUCUGCCAUCAGAUAACGUGAAAGACAGUUUCAUAAGACUGAACGGCGAAAUAUCCGAAGGUAUACAGGUUUUAUUGCUACGUGUCAGGCACGUAUCAAAAGAUACGAGGUUGAACCUCGAGCGAAAAAACACGUAUGCCACAAGAUGAUAAGUUGACUGGUCGAAAGAAACAGUUGGAAAUAACAAAGUCAGUAAAACUAUAUUAGAAAAGAAAGAACAAAAG'
p270
aF0.89
aa(lp271
S'Thunderbolt'
p272
aS'GCAAGUAUCUAAAAAAAGCGCAAGCUAAGCGAGGAAACGAGGGUAUUUAAAAAAACGCAAAAAAGAUGAAAAGCAUCAAAAAAGUAAUGCACCCUAAAAAAGACCAAAAAAGAGCAAGCCGCCAAAAAGAAACCAGAUGAAAAUUACAAAAAGACUGUCAAAGUCAAGAAAAAAGUGUCAUCAAAUAAAAAAAACCUCUAAAAUGCGUCAAAAAUAUAAAAGAUCAAAAAAAACAUCAGUGAGGUAUCAAGGAUACCAAGAAGCAAAAAAAAAAUGGGCGCUAAAAAAAACUCCUAAAGACGAAACAAAAACAAAAAAAAGGAAAGGUUUCGAAGAUUAAUGAUACCCCAAAAAAAAUUGUAUGCACAAAAAGAAAAAAACUGAUACAAGCA'
p273
aF0.9540816326530612
aa(lp274
S'Mutated chicken feet'
p275
aS'AAAAAAACCAGCCGCGAAGGACAAAAUGAAAGAGGAUGAGUUGAGAAGUAGGAAAACAAUACCGGGCAGCAGCAAAGCAACAAAGCAAAGUGCAAAAAAA'
p276
aF0.84
aa(lp277
S'Chicken Tracks'
p278
aS'AAAAAAAAGGGAUUCGAUCAAAAGAUCAAGAUCAAAAGAUCAAGUUCAAAAGAGCGAAUCCCAAGAGGCUCAAAGAGCAAGAUAAAAUAUCAACACCAAAGGUGCUCAAAAAAAAA'
p279
aF1.0
aa(lp280
S'Looking Back Again'
p281
aS'GACAGGACGAUGAAAAAGGUAGCAAAGAUACCAAAAGAAUCCCGCAAGUUGAAAACGCGAGUAGCAAAGAGUAAAAGGUCAAAAGUUACAAGCCAAAAGAAGUUGGAAAAAAGUUAUCAAAAGAUAGAAAAAAUUCGUAUCGUAUCAAAGAUACUUAGGAAAUCUAAGGGAUCCAAGGAGCAAAAACAGAGCCGGUAAAAAUUGAAUACAGUAAGCCCGGGCAAAAGUCAAGAUCCCAAAAAUACUAACGGCAGCAGAUGUAAAAUGAACCGUAAAAAAAAGAGCAAAAAGCUCACGGAAACUCUCAUCCACGUAAAAAGGCCAUACGAAAGUAUGGAAGGCCCAAGGGACUAUUAAAGAUAGAAGCUUCAAAUGGUCGUUACAAAGUU'
p282
aF0.8637532133676092
aa(lp283
S'Multilooping 6'
p284
aS'AAGUAGUAUUGUCUGUAAUCAGACUUGUCAAAGGAUAUGAUGCCCAACCUACUGGUUGUCAUGGAAACAUGAGGGACUACGA'
p285
aF0.926829268292683
aa(lp286
S'Cesspool'
p287
aS'GAAGAAGAAAACAAGAGUCCAGAGACAAAGUCAACGAAAACACAAUUCAAAAAUAAAACACCGAAAGACGAAAAUGAAAACAACUAUAAAUCUAAGAAAACAUUAGUCCAGAUCCAAGGGAAGUAAGAACUAAAUACCAAAAGAGAAGUCCGAAAGAACAAAAGGAAAACAAAAAUAAUGUCUGAGAAAACAACAGUCAAAAGACAAACCAAGUAAUAACUGAAUACCAAAAGAAAAGUCGAAAAGAACAAAACGAAAUCUAAAUCGAAGCUCCAAGAAAAUAAGACUCCAGCGUCAAAGGCAGCAGGAACUGAAUUGCGAAAUAAAAGUCCAAAAGAACAAAAUAAAAACAAGAAGC'
p288
aF0.7150837988826816
aa(lp289
S'Hoglafractal'
p290
aS'AAGACAGAGUGUCAAAAGUAUAAAAAAAUAUAUGACACGAAUAAAGUUCGAAAAGAGCGGUCCUUAAGUCUAAUAGUAUGUUACAAAGCUAAAAGUUCUAAAAUGAACUACCCAUAAGGAAAAAAGUCAUACGAGCAAAAGGGGCCUAGAAAAAACAAGACAAAAAAGUCGCCUCAGCAAAAAGCGAGACAAAAGUGAGUAGGAAAAAGCAGCAAAAAAGUGGCACAAAAAGUGGCAAAAGCGGGUAUCAAAAAGGACAAAAAAGUCACUAAAUGAAAACGUUAUCAAAGAUAGCGAAAAAAAGAUACCAAAAAACAGACAAAAACUGGAAAAGACUAACGAACAAAUAGCAGAUGAAAAGCAAAAGUUCGAAAGACUGUACUAUGUACAGACAUCGCGA'
p291
aF0.8675
aa(lp292
S'Bullseye'
p293
aS'AAAUAGGACCGAAGUACAGGGGCCAUGCUCAAGGUCGAAGAUCCUAGAAAAAAACAUUCUCAAACAUGAACUUGGAACACCGACGUCAAGGAUGAUGGAAAAAAGGACUUCUAAAGCAGAGGAGCAAAGUUCAAGAUCAAAGGUUGUCAAAAAAAACACGAUCGAAGAUCAUGAUCAAAGGUCUAGUUCAAAGAAUGUGAAA'
p294
aF0.8514851485148515
aa(lp295
S'Shooting Star'
p296
aS'GGUGUCGAUCGGGCUUCUAUGAGUCCUGCAGAUACAACAAAAGAUGUAGUUGAAAGAACCUUGAAGCUCAUAGUGGAUAGUCGGAAACAUUAUCAGGAAGAUCAGUUAAUAACGAUAUCCCGAAUAACGUUGUACGUCGAAGGAAAACAAAUUAGAUCCCAUCAAAGAUGGACUAUAGAAUAUAGGACGAAAGACAGAUCAGAUGAGAUGCGGUGAAAGGGUUUUAAAAAAACCCACCUUAAAAGAGGUUAUCGGGGGUGGAAUACCCCCACGAUCAAAGAUCACGUCGAUGAAGUAAUCAUCCUGGUUGAGAGACACCUUACCAAAACACAAGCCGUAGCAACUACUGAAUCAUCAGAUACCA'
p297
aF0.8104395604395604
aa(lp298
S'Teslagon'
p299
aS'AAAAAAGCAAAAUAAGCGCAAAAAAAUGCGUCUUUUUUUAUUUUUAAGAACAGAAUUAUCUAUUUUUUUUUUUAUAAGGGUACAUCAGGGCCAAAAAAUGUAUUUUUUUUUUUUAGGCUAAAUAAGGAUUAAAAAAAUCUUAGUCAUUUUUUUUUAAUGUAUGAAUUUGAUUUAGUUUUUCUUAAUCAGAAAAAUAAGGACCGCAAAAAGCUUUCUGUGUUUUAAAUCUAAUUAAGCAGCAACAAAAUCGUCUUUUUUUUUUUUUAAGAAAAGAAUUUAGUUUUAUUUUUUUUAAUUAGCAAAAUAAGCAGCGAAAAAUGUAAAAAAUAAAAAGCUUUAUCUUUUUUUAAGUGCCUAAAUAAACAGCAAUAAAAGCAAAAAA'
p300
aF0.6884816753926701
aa.