(lp0
(lp1
S'Simple Hairpin'
p2
aS'GAUACAAAAAAGUAUC'
p3
aF1.0
aa(lp4
S'Arabidopsis Thaliana 6 RNA - Difficulty Level 0'
p5
aS'GAUAUACGAACGACAAAAAAAAAAAGUCGAUAUAUGAAGAUAUAUAUAUAUAUAUACAAAGAUACAAAAAAGUAUCAGUAUAUAAUAUAUAUAUAUCAACAUAUAUCAAGUAUAUC'
p6
aF1.0
aa(lp7
S'Prion Pseudoknot - Difficulty Level 0'
p8
aS'GAUAUCAGAUCAAAAGAUCGAUAAUCAAAAAAAAAA'
p9
aF1.0
aa(lp10
S'Human Integrated Adenovirus - Difficulty Level 0'
p11
aS'GAUAGAUAUCUAUGUGCUAUGGAAAAAAAAAUGAUGAUCGGAUAAGGGCCUGGAUACAAAAACUAUUGCCAUACAAAAAAAGGUAUGGCAAUCAAAAGUGUAUCAAUCUACUAUAAAACCGAUAAAGAUAUAGAAAAAAUAUAUCCAUCUAAAAAAAAAAACAUAGCUCAUAAAAUGAUAUCAAAUGUCAAA'
p12
aF0.96875
aa(lp13
S'The Gammaretrovirus Signal - Difficulty Level 0'
p14
aS'AAGGGAAGAUAUCAAAAGAUAUCAACGCAAAAAAGAUCAAGACAGAACCUAUGAAAACAUAGAAAAGUUCGUCGAUCAAGAUAUAUCAAAAGAUAUAUCAA'
p15
aF1.0
aa(lp16
S'Saccharomyces Cerevisiae - Difficulty Level 0'
p17
aS'CAUUAACGCAAUAAAAAAUUUGCAGGGAGAAAAAAAAAAAACCAAAAGUGUUACAAAAGGGCAUGUUGAUGAAAGGAUAUAUAAAGUGAAAAAAAGCACUGACUAAAAAAAAAAAUGUCAAAACUGUGAAAAAAACACAGGUAUAUCAAAAGAUAUACAAUGGGAAAAAAAACUCAUAUAUGUAAAAAUCAUAUAAAAAAUGUCGAAAAAAGACAUGUAUAUCAAAAGAACUAUAAGAUGUAAAAAAUCGUCGAUUGGUAAAAAUCUAAUCAAAACUGAGAAAAAAAUUCAGAUAGUUCGAAGGAAAUACAAGGUGGAAAAAAACAUCGAGAUGAAAAAAGCAUCUCAAAACUCUGAAAAAAGCAGAGGUAUUUCAAAA'
p18
aF1.0
aa(lp19
S'Fractal 2'
p20
aS'AAAAAGAUAUCGGAAACUAUAUAUACAAGAUGAAAAAAAAAACAUCAACUACAAAAAAAAAAGUAGAACUACAAAAAAAAAAGUAGAAGUAUAUAUAGAAAGAUAUAUUUAAAGAUGAAAAAAAAAACAUCAACUACAAAAAAAAAAGUAGAACUACAAAAAAAAAAGUAGAAUAGAUAUAUCAAAGAUAUAUAUAAAGAUGAAAAAAAAAACAUCAACUACAAAAAAAAAAGUAGAACUACAAAAAAAAAAGUAGAAUAUAUAUAUCAAACUGAUAUCAAAAA'
p21
aF1.0
aa(lp22
S'G-C Placement'
p23
aS'AUGGAAGCCAUA'
p24
aF1.0
aa(lp25
S'The Sun'
p26
aS'GACAGAAAUCCGAAGUGAUAAUCUUCAAGGUCAGUUGUACGACGUGAAAAACGGCAAAGACAGAUAACCAAAGUUUAAAUCGCCGAGGAAAGACAGACAAAGUCUAAGACUUCAAUAGCAGAUAUCCGAAGGAUAAAUCGCUGAGCCCAGAUAUUCAAGGAAUUAAUCGUGAAAGUAAGAGAUGCGAAGUAUAAUUCGUCAAGGCCAAACCUAGAAAUCAUAAGUCGGCAAAGCUAGAUCAAAAAAUUUGAACUCAGC'
p27
aF0.8604651162790697
aa(lp28
S'Frog Foot'
p29
aS'AAAAAAAAAAUAAUGAAAGUUACAGUGAAAGCUGGGUCAAAGACC'
p30
aF1.0
aa(lp31
S'InfoRNA test 16'
p32
aS'GGUAUCGGAAAUAUCUAAUGAUAUAUUACGGAUAUC'
p33
aF1.0
aa(lp34
S'Mat - Martian 2'
p35
aS'GACCAAAAGGUCAAAGAUAUACAAGGUUUACUAAAAAUGUAAACCGUAUAUCGAUGAUAUAUGAAAAAGGAUAUACAGACAUACAAAAAAGGUAUGUCGUAUAUCAAAUAUAAAUGUUUAUAUAAAAAUUAUGAAUAAUUUAUGAAAAAACAUAUAUCUAAGAUACAUACAUUUAAAAAAAGUGGAUGUAAGUGUAUCAAAGAGCAAAAGCUC'
p36
aF1.0
aa(lp37
S'square'
p38
aS'GAUAUACGAUAUCCUAUAUCCUAUACAAAGUAUAGAAAAGAUAUAGAAAAGAUAUCAAAAGUAUAUC'
p39
aF1.0
aa(lp40
S'Six legd turtle 2'
p41
aS'AAAAAUCAAGGUAAAGGCAAAGGUAAUUUGAACCUAAUGUAAAUAGAAAUGGAGGUAAAAUUAAGUUAAAGAAAAAGGAAAAAAAAAAAAAAAAAAAA'
p42
aF0.9591836734693877
aa(lp43
S'Small and Easy 6'
p44
aS'GCCCGGAAAACGAAGCUAAAAAAAUGCGGC'
p45
aF1.0
aa(lp46
S'Fractile'
p47
aS'AAAAAAAAAAAAACGAAAGCAAAUCAAAUCUAAUGAAAUAAAAUCAAAGGUAAAUAAAGAUAAUAUAAAGGAGGGAAAAUUAAAAAAAAAAAAAAAAAAAAAAAA'
p48
aF0.9619047619047619
aa(lp49
S'Six legd Turtle'
p50
aS'AAAAAAGGAAAUCGAAAGUAAAGAGAAAAGUAAAAAUUAAUGUAAAAGCAAAAGCAAAGUCAAAACAAAAUGGAAAAGUUAAAGUAAAAAAAAAAAAAAAAAAAA'
p51
aF0.9428571428571428
aa(lp52
S'snoRNA SNORD64'
p53
aS'GAUAUGAAAAAGACAAAAGACAAAGAUACAAAAAAAAAAAAAGUAUCAAAAGUCAAGUCAACAUAUC'
p54
aF1.0
aa(lp55
S'Chalk Outline'
p56
aS'AAAAAGAAGAGAUAAGAAAUUAAUCAGCCAGACAAAAGUCGGCAGAUAGCAAAAGCAUAUCAGCCACAAAAGUGAGCCUUCAAAAAAAAAAAAAAAAAAAAAAA'
p57
aF1.0
aa(lp58
S'InfoRNA bulge test 9'
p59
aS'GAGCUCUUGAGAGAGAUAUAUUAAUAUAUAUCCCCGGAGCUC'
p60
aF1.0
aa(lp61
S'Tilted Russian Cross'
p62
aS'AAAAAACGGCUCCGAAAGGGGGAUGAAAUAACAGUACCGUGAGGAAACUCGCAUGCGAAAGCGCCCACUGAUCUAAUGAUCCAACAAAAAAAAAAAAAAAAAAAA'
p63
aF0.9047619047619048
aa(lp64
S'This is ACTUALLY Small And Easy 6'
p65
aS'AAAAAAAAAAAAAAAAAAAAAAAAAAAAAAAAAAAAAAAAAAAAAAAAAAAAAAAAAAAAAAAAAAAAAAAAAAAAAAAAAAAAAAAAAAAAAAAAAAAAAAAAAAAAAAAAAAAAAAAAAAAAAAAAAAAAAAAAAAAAAAAAAAAAAAAAAAAAAAAAAAAAAAAAAAAAAAAAAAAAAAAAAAAAAAAAAAAAAAAAAAAAAAAAAAAAAAAAAAAAAAAAAAAAAAAAAAAAAAAAAAAAAAAAAAAAAAAAAAAAAAAAAAAAAAAAAAAAAAAAAAAAAAAAAAAAAAAAAAAAAAAAAAAAAAAAAAAAAAAAAAAAAAAAAAAAAAAAAAAAAAAAAAAAAAAAAAAAAAAAAAAAAAAAAAAAAAAAAAAAAAAAAAAAAAAAAAAAAAAA'
p66
aF1.0
aa(lp67
S'Shortie 4'
p68
aS'UCGAAAGAAGGGAAACC'
p69
aF1.0
aa(lp70
S'Shape Test'
p71
aS'AAAAAGAGAUGGAGAUACAAAAAAAAGUAUCAAGACAUGCAGAUACAAAAAGUAUCAGUACAAAAGUACGGCAGUCAACAUCGCGAAAAAAAAAAAAAAAAAAA'
p72
aF1.0
aa(lp73
S'The Minitsry'
p74
aS'GACAAAAAGGCAAAAAGACAAAAAGACAAAAAGCCAAAAAAAAGGCAGUCAGUCAGCCGGUC'
p75
aF1.0
aa(lp76
S'stickshift'
p77
aS'AAGAUAUCCCAAAAAGGAGAUAUCAA'
p78
aF1.0
aa(lp79
S'U'
p80
aS'AAAAAGAUACAGAGAGCAGAGAUAUAUAUAAAAAUAUAUAUCCGCCCGUAUCAAAAA'
p81
aF1.0
aa(lp82
S'Still Life (Sunflower In A Vase)'
p83
aS'AAAUGCGUGCUUUCACAAAGAAAGAAACUGGUAAGUGCUAACAAACAAAAAGUUUGAAGCGCCAAGGGUGCAACAUUCAAAAAGAUUGAAAUACCAAAAAGGUAUAGAUAGAAAUGCAUAUAUUUCUUCGAUUAAAAAAAUAAUCACCUACAAAAAAAAAAAAUUGUGAAAAAAAAAAAAAAAAAAAAAAAAAAAAAAAAAAAAAAAAACACGUAAAAAAAAAAAAGUGGGGGAAAGAAAUUUCCAGGGGAAAUAUAUGCAUUUCUAUUGGAUUCCAAAAGAGAACAGAUAACUAAAAGAUGCAAGUAUCAAAAAGAUACAAUGCUCUAAAUGAGCGAGCUAUAAAAAUGUAGAACUAUAAAAAAUAUAGUCGCAAAA'
p84
aF0.9682539682539683
aa(lp85
S'Quasispecies 2-2 Loop Challenge'
p86
aS'AAAAAGAUGCAUGAAGAUCAAAAGAUCAACAUGAGAUGAACAAAGGACAUCAACACAAGAAGACAAAAAGUCAACAAGUGUCAUCAAAAAAAAAAAAAAAAAAAA'
p87
aF1.0
aa(lp88
S'Corner bulge training'
p89
aS'AGAUAUCGAUACAAAGUAUCAAAAGAUAUCA'
p90
aF1.0
aa(lp91
S'Spiral'
p92
aS'AAAAAGAUCAGAUAUCAGACAGAUACAGAUCAGAUCAGCAGCAGCAGCAGCAGCAAAAAGCGCGCGCGCGCGAUCGAUCGUAUCGUCGAUAUCGAUCAAAAA'
p93
aF1.0
aa(lp94
S'InfoRNA bulge test'
p95
aS'AAAAAAAAAAAAAAAAAAAAAAAAAAAAAAGGGAAAAAUGAGCAAAUGAGGAAUGAGGAGGAGCGGAGCGAAAAGCAUCAGUAUCAACCAUCUAACCAUCUAAAAGCAUCUAAAAGCCACUA'
p96
aF1.0
aa(lp97
S'Worm 1'
p98
aS'AAAAAAAGCGUUAUUUCACGGCACAAAAGCCAGUUAAUACAUUGC'
p99
aF0.9555555555555556
aa(lp100
S'just down to 1 bulge'
p101
aS'AAAAAGACGACUAUCAAAAGAUAGAGACAAAAGUCACGAUCAAAAGAUGAGACAAAAGUCAGACAAAAGUCACAUCAAAAAAAAAAAAAAAAAAAA'
p102
aF1.0
aa(lp103
S'Iron Cross'
p104
aS'AGGCUUGUAAAGACAUGAUAUGUGGCGCAAAAACGAGUCAAGGAUAGGGAAAAUACAUACAAACUGAAACAAAUUCAGGAUAAUUUCGCUCAAAGAGAGGAAAUAUAUGACAAAGACGGUCAA'
p105
aF0.9349593495934959
aa(lp106
S'loops and stems'
p107
aS'AAAAAGAUAAAUAAAGAUGAAAGUUGUAGGGUGUAAAAAAAAGAUACAAAAAAAAAAAAGUGUCAAUCACUAAAAGAGCAAAAAAAAAAGCUCAAUCAACAAAGACGAAAAAAAGUCAAAUAUCAGGCAAAAAAGCAAAGUUUAUCAAAAA'
p108
aF1.0
aa(lp109
S'Water Strider'
p110
aS'AAAAAUGAGACACCUACAAAAAAAAGUGGUGAAUGCGCGUAGGGGGUGCAUAUAAUUCUGUCAAAGGGCAGUAGCAUUCACAAAAAAAAAAAAAAAAAAAAAA'
p111
aF0.9223300970873787
aa(lp112
S'The Turtle(s) Move(s)'
p113
aS'AAAUCAAAAGGACACUUAUAUAUCGAAAAAAAAGAUAUAUAAAAAAGUACAAAAGGUUCGAAACUCUAAAGAGAUAACUCUGAAAAAAACAGAGAAAAGUGUAAGGAAACCCGAAAUCACUAAUGUGUAAAAUAUACAAAAAAAGUAUAUAAAAGAUAAAGAUCAAUAAGAUAGCAAAAGACCAAAAAAGUUAACGUUAAAAAAUACGGAUCUAUGAAAAAACAUAGUAACCACAAAAAGUGGAAGCUAUCAAAAAAAAAGAGAAAUCGAAAGUUUAAUAAAAAAAGGGAUGGAAAAAAAAACAUUUGAAAAUCGU'
p114
aF0.9873417721518988
aa(lp115
S'Adenine'
p116
aS'GAUACAGAUAUCAGAUAUCAGAUUUGAGAUAUAGGAUAUGAAAAGAUAUGAAAAAACAUAUCACAUAUCAGAUGCAAAGAUAUACAAAGUAUAUCGUAUCAUAUAUCAUAGAUUUAUAUAAAAUAUAUAACAAGUCUAACAAAUCAAAAGAUAUCAAAAGAUAUCAAAAGUAUC'
p117
aF1.0
aa(lp118
S'Tripod5'
p119
aS'AGGGUGGAUCGAAAAGAUCGUUGUAAAUCAACCAUCAA'
p120
aF1.0
aa(lp121
S'Shortie 6'
p122
aS'GCAAAGGCCAGAAAACCGAGAAAAGGAUCAAAGGA'
p123
aF0.8857142857142857
aa(lp124
S'Runner'
p125
aS'AAAAAGGGUAGAUUAAAAAGUCAAAAUGAUGGAAAAAAUGCAAGCAUUGUAUUAAAAAAGACAGAUUAAAAAUGGAUUUAGUAAAUGGGAAUCAGAAAACUCGCUAAAUUCAAAAA'
p126
aF0.9310344827586207
aa(lp127
S'Recoil'
p128
aS'AAAAAGAUACAAGCAAGCAAGACAAGACAAGCAAGCAAAGCAGCAGUCAGUCAGCAGCAGUAUCAAAAAAAAAAAAAAAAAAAAA'
p129
aF1.0
aa(lp130
S'[CloudBeta] An Arm and a Leg 1.0'
p131
aS'AAAAUGACGAUCACGAAAGUAGGUGAGAUCAAAGGACUCAGUCUAAAAAGAAAAAAAAAAAAA'
p132
aF1.0
aa(lp133
S'[CloudBeta] 5 Adjacent Stack Multi-Branch Loop'
p134
aS'AGAUGCCGUAAAGACGGGGGUUGAAAAACCCGAUGCGAAAGUAUCGAACGAAAGUUCCAUCUA'
p135
aF1.0
aa(lp136
S'Triple Y'
p137
aS'AAAAAGAUCCAUCGACGUAAUCUCCGACUAAAGGGUCGCUGGACGGAUGGAAACAUCAAUUUAAUGCCCAGACGGUCAAAAAAAAAAAAAAAAAAAA'
p138
aF0.9175257731958762
aa(lp139
S'Misfolded Aptamer'
p140
aS'CAUGAAAAAGCCGACAAAGUCAGCAAAAGCAAAAAAAAAGGAAAAGCAUG'
p141
aF1.0
aa(lp142
S'Flower power'
p143
aS'AAAAAGUUUUUGAUAUUGAGAGAUGUAUUUCUAAUAAGUAAUGAAGUUUAAUAUGAAGUAUCCGUCAUUUCGAAGAGGAAACAAAAAAAAAAAAAAAAAAAA'
p144
aF0.9019607843137255
aa(lp145
S'Kudzu'
p146
aS'AAAAUGGCGAAAGUGGCGUAUACCACUAAGUGGGAUAUCCAACGUUAUAUAGUUGAGGUCAAUAUCAAGGCUUCGGUACUCUAAAAAAAAAAAAAAAAAAA'
p147
aF0.9603960396039604
aa(lp148
S'"1,2,3and4bulges"'
p149
aS'AAAAAGGCGUUUAUAAAUGUGGAAAUAGGGGCAAAAGCGCCGACCCAAACGCGUGGCUAAUGGAACAUUAUAAAGGUUUACGACGGAAAAAAAAAAAAAAAAAAA'
p150
aF0.8857142857142857
aa(lp151
S'medallion'
p152
aS'GUAAUUAUAUAUCAAAAGAUGUGGGAAGAAAUUCAUAUAAAAGUGAAAUAUUAAAGGAAAGUACAAAAAGUUGAGAUCUUAAAAAAGAUCGGAUAAAAGUCAUACAAAAGGAGGAGCUCGAAAGAGUUCGACCAAAAGGUAGAUAUUAAAGGCCUUCGGAUAAAAGUAAAAGAAAGUUCAGAUGUCUAACGACAUCAGAUGAAAAUCAGGUCUCAAAAGAGACCGUUCAAAAGGCAGCACAAUUGCGUUUGUUGAAAAACAAGAGAGAAAAUACGGCUAUCAAAAGAUAGCACUCAAAAGUUAUGGAAAACUCGCAAAUCAAAAGAUAGGAAAUUAC'
p153
aF0.8605341246290801
aa(lp154
S'[RNA] Repetitious Sequences 8/10'
p155
aS'AGCAAAAAAGCAAAAAAGCAAAAAAGCAAAAAAGCAAAAAAGCAAAAAAGAAAAAAAUCAAAAAAGCAAAAAAGCAAAAA'
p156
aF1.0
aa(lp157
S'Documenting repetitious behavior'
p158
aS'AAAAAAAGAAAAAAAAAUCGGAAAAAAAGGUAAAAAAAAAGCAAAAAAAAUGGAAAAAAAAAGUGAAAAAAAACCGAAAAAAAACCGAAAAAAAAGCAAAAAAAAAGGAAAAAAAAAACAAAAAAAAAGCAAAAAAAAAGCAAAAAAAAACUGAAAAAAAAACAAAAAAAAAGGAAAAAAAAACCAAAAAAAAUGGAAAAAAAAACAUAAAAAAAAGCAAAAAAAAAGCAAAAAAAAAGCAAAAAAAAAAGGAAAAAAAAGCAAAAAAAAAGAAAAAAAAAACCAAAAAAAAAGUAAAAAAAAAGCAAAAAAAAAGCAAAAAAAAAGCAAAAAAAAAGCAAAAAAAAAGUUAAAAAAAAGAGAAAAAAAAGCAAAAAAAAAUGUAAAAAAAAUCAAAAAA'
p159
aF0.96
aa(lp160
S'7 multiloop'
p161
aS'GGAGGCUUCUAAUGAAGUUUUACGAAAGUAGACAAACAAAGGUUUGGAUGCGAAAGUAUCGAUGUGAAAACGUCCCGCCGAAAGGCGGCUCC'
p162
aF1.0
aa(lp163
S'Kyurem 7'
p164
aS'AAAAAGGUCUAACACAAAAAGCAAUAAAAUUAGGGAGUAAAUGGCAGCUGUUAAAAAAAGAAAAAACCUAAAUAAUCAGGUCGAAAAAAAAAAAAAAAAAAA'
p165
aF0.9215686274509803
aa(lp166
S'JF1'
p167
aS'GAUAGAAGUAGGGACACGAGAGGCAAAAGAUUCGAGGAUACAAAGAGACAAGGUAUGGAUAUAUAUAUAUACAAAAGUAUAUAUAUAUAUAACGCAAAAGCGGCUAUAUAUCAAAGGAUAUAUAGAACUGUCAAAAGACAGAUAUAUCAGUCUCGGUAUCACGAAUCAAGGAUAUAUCAAAAGGAUAAUAUCAAGAUAUUUAUAUAGAUAUAUAUAUAUAAUUAUAUAUAUAUUUGCUAUAAAUAUCAAAGAGACAAAAAGGUUUCGAUAUUUAUAAAAAUAUAAAUAUCAAGGUACAAAAGUACAAGCUUCAAGUGUCAUAUCAGCGGAACAAAAGUUCGCGAUGUCUAUAUAUCAAAAGAUAUAAUAGUCUACAUUCAUGUUAAA'
p168
aF1.0
aa(lp169
S'multilooping fun'
p170
aS'GUGAGAGUAUAAUUGGAAAAUUCGAUUAAAAAUAAA'
p171
aF0.7777777777777778
aa(lp172
S'Multiloop...'
p173
aS'UAUUCGAUAACCCUAAAGGGAGCCUAAUGGCGGACGAAAGUCAGUGUAAUUUCGGUCUAAAGACAGUGGAAAGAGGCAUCUGGCGCUAAAAUGUGUCCAUUAAUGCAAAUA'
p174
aF0.9819819819819819
aa(lp175
S'hard Y'
p176
aS'AAAAGGGUCUCAUAUAUCUGUAAUUAGAUGUAAGAGAUAUGCAUAGAAAUAUGCAUAUCGACCAAAAA'
p177
aF0.9705882352941176
aa(lp178
S'Mat - Elements & Sections'
p179
aS'AAAAAGUUUGUUAGGUUAUAUUUGGGCAAGCGAGCCGUGAACGAAAGUUAGACGUUCCGCGUACUAAAGUCGUAUCAAUUAGGACAAAAAAAAAAAAAAAAAAAA'
p180
aF0.9619047619047619
aa(lp181
S'Chicken feet'
p182
aS'AAAAUGCAGGACAAAACGCGUGAAAUAAAUCGCAGCCGGAGUGGAACGUGCAAGGAAGUCGUGAAAA'
p183
aF0.8208955223880597
aa(lp184
S'Bug 18'
p185
aS'GAUAAGGUCUGCUAGUAAAGUUCAAACAAAUUGGCUCCAUGAAGAGCAAGAUG'
p186
aF0.8867924528301887
aa(lp187
S'Fractal star x5'
p188
aS'AAAAGGAUCUCUGAAUACCUAAUGGUAAGCUCCAAAAGGAGACCUAUUAAUGUGGAACGAGAAAGCUCGGGCAGAGAUCAAAAGUACAGACGGUGGUGUAAUUACCUGCUACGAAAGUGGAACUCUUAAUGGGGGUCUAGAAAACUAGGACGUCUGUAAAAAGCAUAUAAUGUGGGUAAAAACCCCACUGCAAAAGCAGAUUCCAUAAUUGGGUACUAGAAAGCUGGGAGUUAUAUGAAAAGGAGAUAUGAAGCUCGAAAGAGCAGGAGGAAAGCUUCAACAACAAAAGUUGAUUCAGUAAUCUGAUACAUAUCUCAAAAUGAUUCCAGAAGAUCAAAGGAUCAGCUAGAAAACUAGAAUUCCUAAUGGAGAACUGCAAAAGUAGGACUGGAAUCUAAAA'
p189
aF1.0
aa(lp190
S'Crop circle 2'
p191
aS'GUAAAGGAAAAACAAAACGGGAAAAAAAAUAAGAAAAAAAAAAAAAAAAAAAAAAAAAAAAUGAAAAAAAAAAAAAAACUAAAAAAAAAGCAAAAAACCUGAAAGAAAAA'
p192
aF0.9636363636363636
aa(lp193
S'Branching Loop'
p194
aS'UUUGCGGAAAAAAAUGACGAAAGAACCAAGUACAAAAAAA'
p195
aF0.95
aa(lp196
S'Bug 38'
p197
aS'UGCAGAACUGUGGUAAAAUGGUAAGUGUCAAAGGCU'
p198
aF0.9444444444444444
aa(lp199
S'Simple Single Bond'
p200
aS'AAAAAAGGAAAAAAAUGAUCGAAAAGGUUUAAAAAAAACAAAAAAAAAAAAAAAAAAAAAA'
p201
aF1.0
aa(lp202
S'Taraxacum officinale'
p203
aS'GUGCGAAACGCAUAGGUGAAAGCAAAUGAUCUAAAAGAAGUACUACAAAGGAUAGACAACAAAGGCAUGACUACGAAAGAUAGAGAUAUAUAUACGAUAUAUAAACAAAGUUUAAUAUAUCAGAUAGAAGGUAUAUCUAAAUAUAUAGUAUUUAUAUAAUAGAUAUACCCAUCAGAUAUCAAGGAUGUUGAUGUUAUCGAAGUAUAUAUAUCAGAGCAAAGCACUCGCCGCAAAAGAAGGAGGCCAAACGAGUAUCUGGAAAAUAUACACUGCAAAAGAUAG'
p204
aF0.851063829787234
aa(lp205
S'Headless Bug on Windshield'
p206
aS'AGGGGCAAAAACACGAAAGGAGGACAAAAAAAAAAAAAAAAAAAAAAAAAGUUAUCAAAUCCAUGAAAGCGGUAGAGAAUACAAUCAAAAAAAGUGAAAAUAAAAAAGGAGUAAAAAAACCCAUGCACAAAAAAAUCCUCGGAAAACAACUAUCGGAAAAAAAAAAAAAAUGGAGGGAAGUUAGCAUGGGAAGGAAAUAA'
p207
aF0.98
aa(lp208
S'Pokeball'
p209
aS'AAAGAUAUACAAAAGCAAGGAAGACAAGGAGGCGAGGAAGGAAGCGAGCAAAGCAGCAACCACCAGCAACCAGUCACCAGCGUGUAUCAAAAAAAAGCUAUACAAAAGCAAGGAAAAGAAGGAAGCGAGGAAGGAAGGGACGAAACGAUCAACCACCAGCAACCACUUACCAGCGUAUAGCAAA'
p210
aF1.0
aa(lp211
S'Variation of a crop circle'
p212
aS'AAAAUAGAAUGCAAAAGCAAAUUUAGUGGAGCAAAGUAACAAAAAAGUAAAAGUCCAAAAAAGUUAAAAAAAAUGGAAAAAAAAAAAA'
p213
aF0.9545454545454546
aa(lp214
S'Loop next to a Multiloop'
p215
aS'AAGUUUUAUGAAAAAAUCGGAUUUCUAAUGAAAUCUUAUAUUCAAAGGAAUAUAUGUAAAAAACAUAGAACAA'
p216
aF0.9726027397260274
aa(lp217
S'Snowflake 4'
p218
aS'AGUCGAAGGCUCCAUAGAAAAACCAAUACUUUAAAGGCAAAGUUGUUGGGACCAAAGGUCAACUACGAAGUAGCUAACCUAAAGGGUUAUCUAGAUAACUGAACCGGAUUCGAGCGAAGUUCAAAGGCAAAGUCGGUAUCGCAAAAGCUUAUCAAGGUGUUUGAAAGGGAUACGAGCAAAGUUCAACUACAAAGUAGGUAUCUGUAAUAGACAUCGAGUUAAGCAAAAUCGGUAGGAGCUAUGAUGGAAGACAAAAUUCCUACCGCUAAAGCUUAACAAGAUACGGAAAAUCAAAACGAUCGAAGAUCAAGCACGAAGUGUGUUUUGCAAAAGCGUGUUGUGUAUUGCUAAUACUGUGGUAACGAAAAUU'
p219
aF0.9027027027027027
aa(lp220
S'Mat - Cuboid'
p221
aS'GAAGAAAAAGGAAACAAAAUGAAGCAAAAGAACGAAGCAAAAGGAAGGAAAAAAAAGAAGGAAGAUAGCAAAAGCAAGGAAGGAAGCAAAAGGAACGAAGGAAUCAAUCAAAAGCAAGCAAGCAAGCAAGGAAAACGAAGCAAGCAAGGGAGAAAGCAAAAGCAAUCAAGCAAUCUAGGAAGCAAAAGCAAGCAAGCAAGCAAGCAAGCAAAAAAGCAAGCAAGCAAGCAAGCAAGCGCAACCAUGGAAGCAAGAAAGCGUAAUCAAUCAAGCAAGCAACGGCAAGUAAGAAACCAAGAGAAACGAGCCAACGAGCCGCAACCAACCAGGCGCGUUCAACUAACUCAACUAGCCGCAAGGAACGCAGCCGCAGCUGCAAC'
p222
aF0.9263157894736842
aa(lp223
S'Misfolded Aptamer 6'
p224
aS'AAAAAAGAGUAAAAGUCUGAGGAAAGGGCUAAAAAAUGUCAAAGCAAAAGCAGAAAAAAAUUUCAAAAAAAAAAA'
p225
aF1.0
aa(lp226
S'Snowflake 3'
p227
aS'GCCGCAAAUCCAGUUAUAGAAAUGUAAGCUAAUCAUAAGACAAAAGUCGACAGAAAAAGUGACAAAGUCCCGAAAGCAGUCGACAAAAGACAGACGAGUAUAAAGAAAAAAAUCCAGAGCAAAUGCGAGCAAUUCCCUAAUGGACUGAACAAAACUUAAUAUAUUAUGGAGGCGAAAGCCAACUCCGAAAGGGCCGAAGGCGGGAAACCUGGCGACGAAAGUCAACGUGGGAUGAAGAUAAAAGUCGACAGCAAAAGCGUCGAAGACACAAAAGUAGGCGAUAAAAGUCAACAUCGGAUGAAGACAAAACUCCGUGGCAAAAGCUACAAAGUAACUAAUGUAGCGGACGAAAGCCAACGUCAUAGCAAGACAAAAGUCAACAGAAAACGCGGC'
p228
aF0.811704834605598
aa(lp229
S'Hard Y and a bit more'
p230
aS'AAAAGCAUGACUAGAUUCAAAAGUAUACUAGAGUGAUGGACAUCUAAUGAUGGUUAUAUGAAAAAGUAUAUAGGGCAUACGUAUGAAAAAAAAAAAAAAAAAAAAA'
p231
aF0.9716981132075472
aa(lp232
S'Mat - Lot 2-2 B'
p233
aS'GAAGUCAUGGUGAAUGAAAAGGAUCUGCGAAAGCAAAAAGAACCUGAGCAAAAAUCUAGACGUGACAAGGGGGCGCGAGCAAAAACGAUUUGGUUCAAAAGUAAAAACGAUUCAAAAAAGAAGGGCAAACGCAAGGAAGGAAAGUCGAAACCUGAAUCAAAAGAGAGACCAAAAGGAGAAUCAAGCGAAACGAAAAGGAAGUCCAGGCAAGCAACCGCAGGCAAAAGAAGUACGAGGCAAACCUAAAAGGCUAACGAAAAUGAGUCGCAAGCAUAACGAACAAC'
p234
aF0.7992957746478874
aa(lp235
S'Shapes and Energy'
p236
aS'AAAAAAUUGGGGACUGAAAAUCUAGCUUUAGGAAACGAAAGAAUAUAAUGAAAAAAAACUUUGAAAGUAAGUGGCCUUUAGAAAAAAAAAAAAAAAAAAAA'
p237
aF0.9801980198019802
aa(lp238
S"Spiral of 5's"
p239
aS'AAAAAGAUACUAAGGUACAAUGAUCGGAAAGUUAGAAAGACUGAAAGAUAGAAGAUACAAAAGAUGCAAAGAUAGAAAGAUAGAAGAUAUAAUGAUAGAAACCUAAAAGAUACAAAGAUAUAAGAUACAAGAUACAAGAGACAAGGUACGUAUACAGAUAUCAUGGAAAAGUUAUGGGGGCAUAUCGAAAAGUAUGAAAAAGUGUCAAAAAGUCUCAAAAAGUAUCGAAAAGUAUCAAAAAAUAUCAAAAAGUAUCAAAAAUUAGGAAAAACUAUCUAAAAAUAUCAAAAACUAUCAAAAACUAUCGAAAAGUAUCAAAAAGUAUCAAAAACUAUCGAAAACAGUCAAAAACUAGCAAAAACGAUCUAAAGGUAUCAAAAUGUAUCAAAAAUAAAAA'
p240
aF0.9949622166246851
aa(lp241
S'Campfire'
p242
aS'AAAAGGUGAAAAUACAAGAUGAAGAGCAAAAGGUUCGACACCGAAGGUAGUCCAUCAUUACGAAGAGCAGGCACGAAAGUAGCCGCCUUGGUCGGAAGUAGCGAAAGCGUCGCUGCUGUCAAAGUAACGACAGAAGACACACGUAAACGUAUUGUCUGACAUACAGAAUUAAUAUUCGUAGUCGUUAUAUCGUAGAUAGUAAACCGACUAUC'
p243
aF0.910377358490566
aa(lp244
S'Anemone'
p245
aS'AAAGCUAGCAAAAGCUAGCGAAUCGAAAGAUUCGGCAUUUAAUAAUGCCGCUUCAAAUGGAGCGACGACAAAAGUCGUCGACACGAAAGUGUCGAGACGAAAGUUUCCAUAUCAAACGAUAUGAGGGAGGAAAUUCCCGGGAUCGAAAGAUUCCGCUUUAAAGAAAGCCAGAGCGAAAGUUUUGUCCAGAAAGCUGGAGCUGUUUAAUGACGGU'
p246
aF1.0
aa(lp247
S'Fractal 3'
p248
aS'AAAAUGGUGAGCGGUUAAAGACGUAAAAACACGUGGACAGCGAAAGCGCAAAAGGAGUCUGGCAAGAAAAUCGUGAAAACAGCCUGGCACGAAAACGACUAAUGCGGUCUCACCUAAAA'
p249
aF0.8151260504201681
aa(lp250
S'Kyurem 5'
p251
aS'AAAAAUAAAGGCGUAGAAAGGUUACAAAAGCCCAGACAAAGCCAAAAGGGCGUCGGACUAAAAUAGAGGGGGGGGGUAAAUUCAGAAAAAAAAAAAAAAAAAAA'
p252
aF0.9423076923076923
aa(lp253
S'Snowflake Necklace ( or v2.0 )'
p254
aS'GAUAAAUCUAUGUAUUCCUACAGCAAAAAGCAGCAAAAAGUAGGAAAAACCGGGAAAAACCAUCAAAAAGCACUAGGAGGUAAAAAACCACUACUAUCAAAAAGCAGAAAAAACCAGGAAAAAUCAGCAAAAAGCAUCAAAAAGCAAACAGAGUCAAAGAGACGGGUACGGCAAAAAACGCCAAAAAGGAGGAAAAAGCAGCGAAAAGCAGCAAAAAGCAGUACUAAGAUAAAUUCUAAUGUUAGUUAAAUGCGCUAAAAAGGGGCAAAAAGCAGCAAAAAGCAGCAAAAAGCAAACAUAAAUAAAAAAUUUCUUACGUCAAAAAUCGGCGAAAAGCAGUAAAAAUCAGCAAAAAGCACGAAAAACGAGUAGCUGUACAUAGAUUUAUC'
p255
aF0.9023136246786633
aa(lp256
S'Methaqualone C16H14N2O Structural Representation'
p257
aS'AAAAAAAGAUGAGAUGGGAGAGAUAAAGGUCAGGCAGACAAAAGUCACGCAGACAAAAGUCACUCAAGCAAAAGCUACGCAAAAAAAGCGAGAGAGCGAGUCAGUCAUAAAGACAUCAGAUGGAAGCAGACAAGGCAAAGCAAAAAAAAGUCACGAAGAUAAAAUUCGAUAAAAGUCGACAAAACUCGCGAGCAAAGUUUUGAAACAGACAGAGAGACGGACAGAUGAAAGACAAAAGUCAGACACGAUAAUUCGAGUCCCGCAAAAGCGCGUCAGACAAAAGUCACUCAGACCAGAAAAGUGCUCAAAAGAGAUUAAAAAUGGGUCGGUCAAAACAAACAUCACAUCGAAAAAA'
p258
aF0.9436619718309859
aa(lp259
S"Cat's Toy 2"
p260
aS'AAAAUAAAAAUGCAAAUGGUAGAAAAAAAAAAAAAAAAAGCUGAAAAAGGAAAUACGAAUUGAAAAAAAAAAAAAGAAAAAAAUACAUUUUUGAAAA'
p261
aF0.9587628865979382
aa(lp262
S'Zigzag Semicircle'
p263
aS'AAAAGGAUAAGUUUUAAAUGAGAGAUAUCCGAAA'
p264
aF0.9411764705882353
aa(lp265
S'Short String 4'
p266
aS'AAAAAAGGAUCGAUCUUGAAUCGCCAGAAAAAUCGUAAAUAAUGUCAUGGAAAUUCUAGGGACGAGUUGCAACGUCGAAAAAAAAAAAAAAAAAAAA'
p267
aF0.9587628865979382
aa(lp268
S'Gladius'
p269
aS'GGAAACAAAUAAGGAAAAAGGGCGAAGAAAACUGCGAAGGAUCAAAAGAUCAGAUAAAAGGGACAAGAGUUGAAUGGAUGGGGAGAUAGAUCACUUUUAUGAUUGAGCUCAGAAGAAGAUGAAGCAUCACUUACGAGCAGGAUCUAAAAGGGAAUUUAUCAAAACAUCAAAACAACAACAGUGAACAUUACCAUUCAAACACAGAGACAUAAGAUAGAAGAUGAGAACAUAAUAGGAUAGACAUGUAACGGAGUCAGAUAUGAGUUAGGUGUCAAAAGAUAUCGAAACAGAUAUACGACUAAGUUAUAAGUCUAUCAAAAUAUGACAAUAUCACAGAUCAGAGGUUUCGGAUCGAAAGAUCAAAGUGUGUCAAAGAAGGCAAUAAUCAAAUUAAGAAAAC'
p270
aF0.9
aa(lp271
S'Thunderbolt'
p272
aS'CGAAGAUACAAAAAAAACAGGAAGCGGAGAGGGGAAACGGAUAUUUGAAAAAAAACCUAAAAAGGAUCAAAAAGAUCAAAAAAGGAAUACAAGCAAAAAAAGAAUAAAAAAAGAUAAGCAAGCAAAAAGAAAACACUAUAAAAAGGUAAAAAGAAGCUGAAAUGGCAACAAAAACCCAGAGGGAAGAAAAAAGGAAGGGCAAAGCGCAAUAAAAAAACAAGCCUCAAAAAAAAGUAGAGAGGGGUAUGAAACAUAUCAGCAAGCAAAAAAAAAAAGGAAGCUAAAAAAAGUUAGGAAAAAUUGAUGACAAAGAAAAAAAACAAAAACAUUAUCAAAUGAAACAGAUAUCAAAAAAAACGGCAACCGGAAAAAGAAAAAAACAGUAUCAACGA'
p273
aF0.9642857142857143
aa(lp274
S'Mutated chicken feet'
p275
aS'AAAAAAAGCAUCGACAAAGUAUGAAACGAAAGAACACGAUGACGAAACCACGAAACGAAAAGUGAGGACAGUCUAUGGAUCAAACGGAAACGAAAAAAAA'
p276
aF0.77
aa(lp277
S'Chicken Tracks'
p278
aS'AAAAAAAGGAUAUACACACGAAAGUGUAACGACAAAAGUUGGAGAUCAAAAGAUCGUAUAUCAAGGCCACGAAACGUGAAGAUCAAAGAUCAAGCCGAAGCGGCGCCAAAAAAAAA'
p279
aF1.0
aa(lp280
S'Looking Back Again'
p281
aS'GCCAAGACCAUGAAAAAUAUAUAAAAUAUAUGGCAAGAAGACGCGAAGACAAAGUCCGCACUAAGAAGGACCGAAAGGUCAAAACUUAGAAGUCAAUUGAAGCGGGACAAAAAGAUAGGAAACUAUCAAAAAAGCCUAUACGACACGAAGUAUUGAGCCAAAGGCGCUACAGCACGAGAAGAAGUGGAUGAGGACGUAAUUUUUAGUACAUCCGGCAGGCGCAAAAGCGAUGUUGUAAAAGUUUCGCGCAGGUACAGACGAAAAAAGAUAUACAAAAAAAACUUCAAAAAGAGGGUAUAAAAUCACGUCGAUGAAAAAGGCGUUUUCGAAAGAGAACAACUCCUGAAGGAGUAUUUAUAAUACGAGGCGCACAACAUCGUACCAAGGGC'
p282
aF0.9074550128534704
aa(lp283
S'Multilooping 6'
p284
aS'AGAGAAGGACCAAGCUAAUUUUUCUGCGGUAAUCCGUAGAACUCGAGUUAAAGAGCUUUCUGGAUAACCGGCUACUUUCUAA'
p285
aF0.8292682926829268
aa(lp286
S'Cesspool'
p287
aS'GAAGAAGGAAACAAAGUAAGAGUUGCCAAGUAAACAACAGCGUAAGAGUAAAACAACAAAGAGAAAUAGUGAAACUGAAAAAACAACAAGAAGGAUGAAAGAACGCAGGAGUGGGGAAUUCAUCAGCAAGUCAGUAAGAAAGCAAGACAAGAAAACAAGAAAAAAAAAAUAACAACAAGUAUAAAGAAAACAGCAUAAGAGACAGAAACUGAACAACAAGGGAAGAAGAAAACAACAAAAGAAAACAAUGAAACGAAAAUAAUUAACAACCAAGAAGAAAACAAGGCAGAAGAAACAAAGUAGACAACAAUCAAAUGAUGAAAGAAGAAAAGAAAACAAUGAAACCAAAAGAACAAGC'
p288
aF0.7960893854748603
aa(lp289
S'Hoglafractal'
p290
aS'AAUUUAAAGAUGCAAAAGGUAGAAAAAAUUACCGUAUCGAUCAAAAUAGGAAAACUAUGAUAGACAAGACAAAAGUCGGCGGACAAAGAGCAAAGAUGAAAAAACAUCGAUCGACAAGACAAAAAGUCGUCGAAGCAAAGGCUCGUAUGAAAAAAGAAGACAAAAAAGUCGUGGCAGGAAAAAUUGCCUCAAAGUGGAGAAACAAAAAGGAGCAAAAAAGCCCGCCAAAAAGGCACAAAAACAGAAGUCAAAAAAGGUAAAAAAGCAGCGAAAAGCAAACCAUCUCAAAGAGAUGGAAAAAAAGGCUUCGAAAAAGUAUCAAAAGCGUGAAAAGUCAGGUGAUGAAAGGGUAGUUGAAAAGCUAAUCCGGAAAAUUGAUAACAAGGUUAUCACAGGGUAC'
p291
aF0.91
aa(lp292
S'Bullseye'
p293
aS'AAUGGAGGUUAAGCACUAACUACUAUGCGGACCUGCAAAGCAGGCCUAAAAAAAUACGCGUUAUACGCAAGUACAAACUACAACAACAAAGUACCUGAAAAAAAGCCCGAGCUAUGUUCAACGCCAAAGGUGGAAUUAAAGUUAGGAUAAAAAAAUGACGUAGAACUUACAGAUACAAAGCAGAACUACGAAGUAGGCCUAA'
p294
aF0.8267326732673267
aa(lp295
S'Shooting Star'
p296
aS'AUUUGCGAUCGAUAUAUAACGAGAUGGGCAGAGACAGGAAAGUACGUACCUGCCACUACUAGAUAUAUCACGUGCAAGAGAGGGGGAAAGAUACAGACAGAUCAGGAAAAUACGAUACGUCGAUAUACUUCACACAACUAAGGUAAUCAGUGUCUAACGACGGAAACCGAUACAACGAAUCAUAGAUACAAAUUUACUAAAGACCAGAUGAGAUGAAAGAGAGAGAAAUUCUCUCACGAUCUAUGAUUGCGUCGAUAUUGAAAUUAUAUCACCAUGAAAGAUGGCAUUGAACAAGAAAACGUAGUAUUACAGAGCCAUGACAGGAAAACACGAUAAGGCGUAAGAACGCACUGUUCAGCAAAUA'
p297
aF0.8186813186813187
aa(lp298
S'Teslagon'
p299
aS'AAAAAUGGGAAAAAAUAAGGAAAAGAAACUGUCAAAAAAAAAAAAAAGCGAAAAACACCGUAAAAAAAAAAAAAUCGUUUGAAAAAACCAGCAAAAAAAGCGAAAAAAAAAAAAAAGCAAAAAAAACAACAAAAAAAGGAGCAAAAAAAAAAAAAAGGCGAAAAAUACCGAAAAAAAAAAAAAAACGAGCAAAAAAAGCGGCAAAAAAAGCGAAAAAAAAAAAAAAGCAAAAAAAGCAGCAAAAAAAGGACCGAAAAAAAAAAAAAACGGAAAAAUACCGAAAAAAAAAAAAAAACGCACAAAAAAGGCUUGAAAAAAAGGAAAAAAAAAAAAGAGAAAAAAAAAAAAAAUCAUCAAAAAAAAAUGAAAAAAAAACUAAAAA'
p300
aF0.9083769633507853
aa.