(lp0
(lp1
S'Simple Hairpin'
p2
aS'GCAUUAAAAAAAAUGC'
p3
aF1.0
aa(lp4
S'Arabidopsis Thaliana 6 RNA - Difficulty Level 0'
p5
aS'GCGAUGCUAAGAGAAAAAAAAAAAGUCUUAUAUAUUGAUAUAUUUCUGUAUGUAUACCAAGCAAUUAAAAUAUUGCCGUAUAUAAUAUAGAGAUAUAGAAAUAUAUAGUGCAUCGC'
p6
aF1.0
aa(lp7
S'Prion Pseudoknot - Difficulty Level 0'
p8
aS'GCAUAUAGACCUAAUGGUUAUGCUGCAAAAAAAAAA'
p9
aF1.0
aa(lp10
S'Human Integrated Adenovirus - Difficulty Level 0'
p11
aS'GCUUUUGUACGGUUGACUGCUUAAAAAAAACACAGUUAUAACGUCGGGGGCUGACUCAAAAGCAUGUUAGGUUCAAAAAAAGGGACCUAACAAAAAUGCGAGUCAUAUGGGAGCCAGUGUAUAAAAGCUAUUUAAAAAUAAUAGCACUGGAAAAAAAAAAUGGCAGUAGAUCCAAGGUACGAAAAAAGCAAA'
p12
aF0.9895833333333334
aa(lp13
S'The Gammaretrovirus Signal - Difficulty Level 0'
p14
aS'GACUGAGUAGCUUGAAAAGGCUAAGCCGAAAAAAGAUCAAGCUAGCACAAUGAAAAAUCAUUGAAAGUGCAGCGAUCAAGGUAUAUUGAAAAAUAUGCCGA'
p15
aF1.0
aa(lp16
S'Saccharomyces Cerevisiae - Difficulty Level 0'
p17
aS'ACGUUAUCCCUGAAAAAAAAGUGAGCUGGAGGGGGGGGGAUGAGAAGUACACGAAAAAAGCGUAGUAAUGUAAAUGCGGUUUUAUCUGAAAAAAAACAGAGCCAAAAAAAAAAAAGGGCAAACAGCGCGAGAAAAGCGUUAAAUCGCUAAAGGGAAGUAAGGUGGAAAAAAACACUGGGGAUAAAAAAGGUUUCUGAAGUAUACAAAAAAGGUAUAACUUCUCAAAACCUAGACAAGCUUGAAAAAAAAAGCCGAUAGGAAAAAAUUAUCGAAAGUAUGCAAAAAAGGCGUGGUCUAGGGAAUGCCUUAUAACCCUGAAAAAAAAGGUCGUUGAGAAAAAAUUAGCGAAAGUAGGGGAAAAAACUUUAAUGAGGCUAAA'
p18
aF0.9894459102902374
aa(lp19
S'Fractal 2'
p20
aS'AAAAGUGGAUAUUAAAGCCGUUUAGUAAGUGCGAAAAAAAAAGCGCAUGACAUAAAAAAAAUUGUCUAGAUCUAAAAAAAAUGAUCAAACUAAACGGCAAAGCGAUGUAUUGAGAGCGAAAAAAAAAGCUCAAGAGCAAAAAAAAAAGCUCAGGAUAGAAAAAAAAAUAUCAAAAUAUAUCGCAAUGCGCUAUUGUAAGAGCAAAAAAAAAAGCUCAGUGGCAAAAAAAAAAGCUAAAGAUCUAAAAAAAAUGAUCAAACGAUAGCGCUAAAAUAUCCAAAAAA'
p21
aF1.0
aa(lp22
S'G-C Placement'
p23
aS'GAUCAAAGAUCG'
p24
aF1.0
aa(lp25
S'The Sun'
p26
aS'GACAGCGCUACAAAGUAGAACGCGUCAAGUGCAGCGAAACAAAGUUUAACGCGAAAAUGCCAGGCAUACAAGGUAUAAACCGGUCAAAGCAUGAAUCCGAACUAUAAUGAGUUGAGAUGAUCUAGCCUAGGGUUAAAGACGUAAAACGAACAAUGCAAGGCAUAAAGUUAUAAAAUCAGCGACGCGAAGCGUAACGCGAUAAAACCAGAGAUCCGAAGGGGCACUCGGUGAAAUCAUCGAGAUUAUGUCUAACGAGAU'
p27
aF0.8914728682170543
aa(lp28
S'Frog Foot'
p29
aS'AAAAAAAAAAGUUCGAAAGAGCGAUCUAAUGAUCGGGGUAUCCCC'
p30
aF1.0
aa(lp31
S'InfoRNA test 16'
p32
aS'GGUAUUGGCCGAUAAAAAGUUAUCUGGACGGAUAUC'
p33
aF1.0
aa(lp34
S'Mat - Martian 2'
p35
aS'GAUCGAAAGAUCAAAGCGAUACAAGCGAUACAAAAAAAGUAUCGCGUAUCGCAAAGCGAUAUUAAAAAAGCGAUACAGCGAUACAAAAAAAGUAUCGCGUAUCGCAAAGCUAUGAAAUUAUAAAAAAAAUAUAAUUCUCAUAGCAAAAAAAAUAUCGCAAAGCGUUGUAGUAUGUAAAAAAAACAUACUAAACAACGCAAAGAUCGAAAGAUC'
p36
aF1.0
aa(lp37
S'square'
p38
aS'GCAAUACAGGGUCGAUGAGACAUGACAAGGUCAUGAAACUCUCAUCAAAAGGCCCUAAACGUAUUGC'
p39
aF1.0
aa(lp40
S'Six legd turtle 2'
p41
aS'AAAAACCAAAGCGAAAGCAAAACGAAAGUAAAUCGAAAGGAAAACGAAAGUAAAACGAAAGUGAAACGAAAGUAAAGGAAAAAAAAAAAAAAAAAAAA'
p42
aF1.0
aa(lp43
S'Small and Easy 6'
p44
aS'UAAUGAAAAACGAAAAGAAAAAAAAUUUUA'
p45
aF0.9333333333333333
aa(lp46
S'Fractile'
p47
aS'AAAAAAAAAAAAGCGAAAGCAAACCAAAGAGAAAUCAAGCAAAGCAAAAGCAAAGCAAGAGAAAUCAAAGGAAGCGAAAGCAAAAAAAAAAAAAAAAAAAAAAAA'
p48
aF1.0
aa(lp49
S'Six legd Turtle'
p50
aS'AAAAAGGAAAAGGAAAGCCAAAAACGAAAGUGAAAGUGAAAGCAAAAACGAAAGUAAAAACGAAAGUAAAAACGAAAGUAAAACCAAAAAAAAAAAAAAAAAAAA'
p51
aF1.0
aa(lp52
S'snoRNA SNORD64'
p53
aS'GCUAUUAAAAAUAUAAAAGACAAAGCAUUAAAAAAAAAAAAAAAUGCCAAAGUCAAGUAAAGAUAGC'
p54
aF1.0
aa(lp55
S'Chalk Outline'
p56
aS'AAAAAGAUUUUCCAGGAAACUCGGAGGCCAUAUGAAAGUGGGCAGCGAUAGAAAUAUUUGCAACCAUGAAAAUGCGUGAUCGAAAAAAAAAAAAAAAAAAAAAA'
p57
aF1.0
aa(lp58
S'InfoRNA bulge test 9'
p59
aS'GCGAUACAGAGAGAGCGAUACGAAAGUAUCGCCCCGUAUCGC'
p60
aF1.0
aa(lp61
S'Tilted Russian Cross'
p62
aS'AAAAACUGCGUUCGAAAGAGCCCCCAGAGCUAAUGUUCGAAUCUAAUGAUUCAGAUCGAAAGAUCGGGGUACCGAAAGGUAGCAGAAAAAAAAAAAAAAAAAAAA'
p63
aF1.0
aa(lp64
S'This is ACTUALLY Small And Easy 6'
p65
aS'GAGAAAAAAAAAAAAAAAAAAAAAAAAAAAAAAAAAAAAAAAAAAAAAAAAAAAAAAAAAAAAAAAAAAAAAAAAAAAAAAAAAAAAAAAAAAAAAAAAAAAAAAAAAAAAAAAAAAAAAAAAAAAAAAAAAAAAAAAAAAAAAAAAAAAAAAAAAAAAAAAAAAAAAAAAAAAAAAAAAAAAAAAAAAAAAAAAAAAAAAAAAAAAAAAAAAAAAAAAAAAAAAAAAAAAAAAAAAAAAAAAAAAAAAAAAAAAAAAAAAAAAAAAAAAAAAAAAAAAAAAAAAAAAAAAAAAAAAAAAAAAAAAAAAAAAAAAAAAAAAAAAAAAAAAAAAAAAAAAAAAAAAAAAAAAAAAAAAAAAAAAAAAAAAAAAAAAAAAAAAAAAAAAAAAAAAAAAAAAA'
p66
aF1.0
aa(lp67
S'Shortie 4'
p68
aS'GCGAAAGCAUCGAAAGA'
p69
aF1.0
aa(lp70
S'Shape Test'
p71
aS'AAAAGGGGAUAAAGUAUUAAAAAAAAAAUGCAUUGUAGUUUUCAUCAAAAGGAUGAGGCACGAAAGUGCAAACACAUAUAUCGCAAAAAAAAAAAAAAAAAAAA'
p72
aF1.0
aa(lp73
S'The Minitsry'
p74
aS'GACCAAAUGAGAAAAAUUCCAAAGCGGGUAAAUACAAAAAAACGUAACCGAGAAGCUCUGUC'
p75
aF1.0
aa(lp76
S'stickshift'
p77
aS'AAACGAUGACAAAAAGUGCAUCGUAA'
p78
aF1.0
aa(lp79
S'U'
p80
aS'AAAAAGCAUCAGAGAGCAGAGCGAUAUAUGAAAAUAUAUCGCCGCCCGAUGCAAAAA'
p81
aF1.0
aa(lp82
S'Still Life (Sunflower In A Vase)'
p83
aS'AAAGAGCAGUGACCUAAAUGGUCAACGAACUAAAGAUUAAAUACACAAAAACCAUGAAGAUGAAAAGCAUCGAAAGCCAAAAAGAUUCAAUAUUCUAAAUCGAUAAGCUAUGAUGUGAUAUUAUAUUAUGCAUGAAAAAACAUGCAUCAUGAAAAAAAAAAAAUUACGAAAAAAAAAAAAAAAAAAAAAAAAAAAAAAAAAAAAACCCCCGUAUAAAAAAAAAAAACAUGAGCAUCGAAAGAUGCAAUAGUAUAAUAUUAUAUCAUAGCAGGCGUCAAAAAGAUGCAGUCAGCAAAAAGCUGAAAGAACCAAAAAGGUGCAAUAUACAAAAAGUUUAAAUAGACGAAAGUUUAAAUGAGCAAAAAGCUCAAGCUCAAA'
p84
aF0.9735449735449735
aa(lp85
S'Quasispecies 2-2 Loop Challenge'
p86
aS'AAAAAGACCUUUGUGUUCUGAAAAGUGAUCAAAGUAUCUGAGAAGGUGAAGAGACCAUCUGCAGAAAAAUUGAUGUGAGGCAGUAGAAAAAAAAAAAAAAAAAAA'
p87
aF0.9809523809523809
aa(lp88
S'Corner bulge training'
p89
aS'AGCUAUUUAUACAAAGUAUAAAAAAAUAGCA'
p90
aF1.0
aa(lp91
S'Spiral'
p92
aS'AAAAAGAUCAGCUAUUAGACAGCAUCAGAUCAGAUCAGCAGCAGCAGCAGCAGCAAAAAGCGCGCGCGCGCGAUCGAUCGAUGCGUCAGUAGCGAUCAAAAA'
p93
aF1.0
aa(lp94
S'InfoRNA bulge test'
p95
aS'AAAAAAAAAAAAAAAAAAAAAAAAAAAAAGACUUAAAGACGGCAAAAAGCUAAAACGCAAUCGGACACUAAAAGAGAUGGCCAGAGGGUAGUGGGGGACUGAAAGGUACGGAAAAUGGAUCG'
p96
aF1.0
aa(lp97
S'Worm 1'
p98
aS'AAAAAAAGGCGUUCACGCCAGGGAAAAAUAUCGGGAAGAUGAGAU'
p99
aF0.8666666666666667
aa(lp100
S'just down to 1 bulge'
p101
aS'AAAAAGAACGUAUACGAAAGUAUAAGACGAAAGUCAGUAUCAAAAGAUCAGACGAAAGUCAGACGAAAGUCAGAUCAAAAAAAAAAAAAAAAAAAA'
p102
aF1.0
aa(lp103
S'Iron Cross'
p104
aS'ACGCAAAUAAGUGCUUCAAAAGUAGGUCGAAAGGCUGCAAAAAGCAAGAGAAAGUUAGAUAAAAUUAGCUAAAGGCGCAAGAAAUUAAGACGAAGUCGGACAAAAUCAGACAAAGGCAGUGGA'
p105
aF0.9512195121951219
aa(lp106
S'loops and stems'
p107
aS'AAAAACCGCUACAAAGAUCAAAUAUUAAAUGUCAAAAAAAAUGCAUUAAAAAAAAAAAAAAUGCUAAGACGGAAUGAUCAAAAAAAAAAGAUCUAAAAUAAAAGACAAAAAAAAGUCAAAGAUCAAGCAAAAAAGCAAAGUAGCGGAAAAA'
p108
aF1.0
aa(lp109
S'Water Strider'
p110
aS'AAAUAUUUUAUUUGUGGAUAUGAACAUAUUCGAGAAGGAUAAAGGGGACGAGGAAAGCGAACGAAAGUUAGUCCGUAUGUGGUUAAAAAAAAAAAAAAAAAAA'
p111
aF0.9029126213592233
aa(lp112
S'The Turtle(s) Move(s)'
p113
aS'AAAGCGAAAGCAAAGGCGAUAUAUAAAAAAAAAAUAUAUCGCAAAGGAUCGAAAAGAUCAUAUAUAAGAAAUUAGGAUAUACAAAAAAAGUAUAAAAACGGAAAGCGAAAGCACAGAUUCGAAAGAAAAAAUUGGACAAAAAAAGUCCAGAAAAAUCGAAAGAUAAAAACGAUAUAAAAGACCAAAAAAGUCAAGAGAAAAAAAGCUCGAAUAUGCAAAAAAGCAUAAAAUAUGAAAAACAUAAAAUAUCGAAAAAAAAAGCGAAAGCACACAUCGAAAGAAUAAGCGCAUUUAAAAAAAAUAAUGCAAAAAGCCG'
p114
aF1.0
aa(lp115
S'Adenine'
p116
aS'GCAUUAGCUAUUAGACAUUGGCUAUUUGGUAUAGGCUAUUUAAUGCUAUUAAAAAAAAUAGCUGAUAGCGUCUAUAAAGCGAGACAAAGUUUCGCAUGGAAUAUACCCGCUGCGAUAUUCAAAGAGUAUCAAAGCAGCUAAUAGCAAAAAAUGUCAAAAAAUAGCAAAAAAUGC'
p117
aF1.0
aa(lp118
S'Tripod5'
p119
aS'AUGGGACGAUUAAAUAUCGCACUUAAAUAGUGUCUCUA'
p120
aF1.0
aa(lp121
S'Shortie 6'
p122
aS'GCGAAAGCAUCGAAAGAAUCGAAAGAAUCGAAAGA'
p123
aF1.0
aa(lp124
S'Runner'
p125
aS'AAAAAGCUCGGAUCAAAAAUACGUAUCGUAAGAUCAAAGACAAGCCGAGAAACUCAAAGGCGCAUCCAAAGGAAAAUGCAGUCAAAGACUAUGACGAAAGUCUGUCAGAGCAAAAA'
p126
aF1.0
aa(lp127
S'Recoil'
p128
aS'AAAAAUAUACAAGCAAGCAAGACAAGACAAGCAAGCAAAGCAGCAGUCAGUCAGCAGCAGUAUAAAAAAAAAAAAAAAAAAAAAA'
p129
aF1.0
aa(lp130
S'[CloudBeta] An Arm and a Leg 1.0'
p131
aS'AAAAUGGGAUCAUAUAAUUACUGAGACAGCGAAAGCGUCACCCUAAAAAGAAAAAAAAAAAAA'
p132
aF1.0
aa(lp133
S'[CloudBeta] 5 Adjacent Stack Multi-Branch Loop'
p134
aS'ACAACGAUCGAAAGAUCCCAUCGAAAGAUGGGCAUCGAAAGAUGCGCAAGAAAUUGCGUUGUA'
p135
aF1.0
aa(lp136
S'Triple Y'
p137
aS'AAAAACGAUAUGAUGGUGAAAGGUAAUGCGAAACUGACGUAUAAUAAGCGAAAGUUACGUGGAAACGUGGUUCAUGGGAAAAAAAAAAAAAAAAAAA'
p138
aF0.9072164948453608
aa(lp139
S'Misfolded Aptamer'
p140
aS'CUUAAAAAGACGAUGAAUUGUUGGUAAUGUUUCUACCUGUGAUACAAAGG'
p141
aF0.92
aa(lp142
S'Flower power'
p143
aS'AAAAAUGGGUUCGAAACAGCAGCGCUCUCAAGGAAGAACAUAUAUUAUGGACCUUUAUGCGGGCGCAGGUCAAGCAUCACUAGAAAAAAAAAAAAAAAAAAA'
p144
aF0.9215686274509803
aa(lp145
S'Kudzu'
p146
aS'AAAAUUAUUGAUAAGACAGAGGACUCUGAAGUGUAUCGAGCAACAAAGAGAUAGCAGCCCAAAGUGAAAGUUGUUACUGCAUAAAAAAAAAAAAAAAAAAA'
p147
aF0.9603960396039604
aa(lp148
S'"1,2,3and4bulges"'
p149
aS'AAAAUGUGUAGAUUAGAAAUAUAAAGUUAGACGAAAGUCAGAAGUUAACGUCCAGUAGAAAUAAAACCCGCGAAAGCGCGCAAGCGAAAAAAAAAAAAAAAAAAA'
p150
aF0.9428571428571428
aa(lp151
S'medallion'
p152
aS'GCUGUAAAUAUUCGAAAGGAUAUUGACGAAAGUUUGCCGAAAGACAUCUAUUGAAAAAUAGGAGACGAAAGUCGGCUAUUGAAAAAUAGCAGACGAAAGUCGGACGAAAGUCAGCUAUCGAAAGAUAGCAGACGAAAGUCAGCCAUUGAAAAAUGGCAGUCGAAAGGUAGACGAAAGUCAGCUAUCGAAAGAUAGCAGACGAAAGUCAGCUAUUGAAAAAUAGCAGACGAAAGUCGGACAAAGGUCGGCUAUGGAAACGUAGCAUACGAAAGUGAGCUAGUGAAAAACAGCAGACGAAAGACAGACGAAAGUCAUCUAUUGAAAAAUAGGGUACAGC'
p153
aF0.9643916913946587
aa(lp154
S'[RNA] Repetitious Sequences 8/10'
p155
aS'AGUAAAAAAGCAAAAAAGCAAAAAAGGAAAAAACCAAAAAAGGAAAAAAGCAAAAAAGCAAAAAACCAAAAAGACAAAAA'
p156
aF1.0
aa(lp157
S'Documenting repetitious behavior'
p158
aS'AAAAAAAGUUAAAAAAAAUAUAAAAAAAAUUUGGAAAAAAGCGAAAAAAAAUAAAAAAAAACUUAAAAAAAACUCACAAAAAAACUAAAAAAAAACUGAAAAAAAAGUAAAAAAAAAGUAAAAAAAAACCAAAAAAAAAUUAAAAAAAAUCCAAAAAAAAUUUAAAAAAAAAAGGAAAAAAAACGAAAAAAAAAGCAAAAAAAAAGCAAAAAAAAGCGGAAAAAAAACCAAAAAAAAGGAAAAAAAAAAAGUAAAAAAAGAGAAAAAAAAAGGGAAAAAAAGAUGAAAAAAAAGUGAAAAAAAAAAGAAAAAAAAAGAAAAAAAAAGCUAAAAAAAUGGAAAAAAAAAUCAAAAAAAAUGUAAAAAAAAUAGAAAAAAAAUUAAAAAAAACUACAAAAAA'
p159
aF0.8875
aa(lp160
S'7 multiloop'
p161
aS'GGCUUGAUAGAAAUAUCAUGAGCUAAUGCUUGACAAUAAAUGUUGUCGAUCGAAAGGUUGGGGUCUAAUGAUCCUAGACGAAAGUCUAAGUU'
p162
aF0.9782608695652174
aa(lp163
S'Kyurem 7'
p164
aS'AAAAGUGGAGGGCUGGAAACGGAACAAAAAGAAUGUAUAAAUGACUACAAUAGAAAAAUAUAAACACUAGACUUAUAAUCCAAAAAAAAAAAAAAAAAAAAA'
p165
aF0.8921568627450981
aa(lp166
S'JF1'
p167
aS'GCUACGAAACUAACAUUUAGCAUUAAAAGCUGUUAAGCAUUAAAGCAUCAAGCUAUGAAUAUAUAUAUAUACGAAAGUAUAUAUAUAUAUAAGACGAAAGUCAUAUGUAUACGAAAGUAUAUAUAAAUAUACGAAAGUAUAACAUAGCAGAUGUAAAUGCAAACAGCAAAGCGAUGUCAAAAAGACAAUCGCAAGCUAUGAUAUGAUAUUAUAUUAUCGAAAGAUAGUAUAAUAUCAAUAUCAUAGCAAAUAUACAAAAAAGUAUACUAUGAUAUUGAAAAGUAUCAUAGAAAUAUGAAAACAUAAAAAUGCAUGAUGUGGAUCAGACAGACGAAAGUCGUCGAUCAUAUAAAUACGAAAGUAUUAUAUAAAGUUGUCGAUAGCAAA'
p168
aF1.0
aa(lp169
S'multilooping fun'
p170
aS'ACUAUGCGUGAAAGAUGAAAAAGAAUUAAAAAGGGC'
p171
aF0.8333333333333334
aa(lp172
S'Multiloop...'
p173
aS'GAUCAGUUCAUCUGAAAAGAAGACGAAAGUCAGACGAAAGUCAGACGAAAGUCAGACGAAAGUCAGACGAAAGUCAGAGCAUAUACAAAAAAGUAUAGACGAAAGUCGAUC'
p174
aF1.0
aa(lp175
S'hard Y'
p176
aS'AAAAUACUGCGAUCGUAUCCAAAGGGAUGCGAACUAAGCUGCAGUUAAUGCUGUAGCUUCAGUUAAAA'
p177
aF0.9705882352941176
aa(lp178
S'Mat - Elements & Sections'
p179
aS'AAAAAUGUUAGAAAUGGAGUGGGGAGCAGCACAUACGCGUAGGAAAUUAAGAUUAUGGACGUUCAAAACAGCUCAAGCGUGGAUAAAAAAAAAAAAAAAAAAAAA'
p180
aF0.9619047619047619
aa(lp181
S'Chicken feet'
p182
aS'AAAAAGCUGCACAAAAGGGGCGAACCAAAUCGCGGAAGGAUUAAUAGAGCAAGGUAAACUUCGAAAA'
p183
aF0.8507462686567164
aa(lp184
S'Bug 18'
p185
aS'AAUAUGACGUAGUGGAAUAGCUCAAAGGAACUUUCACCGUCGAUCAGAAAGGA'
p186
aF0.8867924528301887
aa(lp187
S'Fractal star x5'
p188
aS'AAAAAUUAUGGUCAGCCAAGAAAUUGGAAUCGCGAAAGUGAGAUAUUGAAAAAUAGAGACUAAAAAGUUAAGACCAUAAAAAAAAUAUAUUCAUACACGAAAGUGUUAUAUUGAAAGAUAAAAAGUAAAGACUUAAUAUGAAAACAUAGAGGAUGUGUAAAAACUAUUGUAAGACGCAAAGGCGUAAUAAUGAAAAUUAAAUAGUAAAGACUAAAGAUGUAAUUAUCAAUGCGAUGGAAAAAUUAUCAUCAAACAAGAAAUUGUAAUUUAGAAAUAGAAAUUUCGAAAGAAAGGUAUCAAAAGAUAAAGAUGAUAAGAAAAAUAUAUACAAACUCGAAAGAGUAAUAUUGAAAAAUAAAUAUCGAAAGAUAGGUAUCGAAAGAUAAAGUAUAUAUAAAAA'
p189
aF1.0
aa(lp190
S'Crop circle 2'
p191
aS'CAUAAGGUAUUAGAAAAAUAAAAAAAAAGUCAAAAAAAAAAAAAAAAAAAAAAAAAAAAAGGGAAAAAAAAAAAAAAGCGGAAAAAAAGCCUAAAAACCCGAAUUGAUAA'
p192
aF0.9454545454545454
aa(lp193
S'Branching Loop'
p194
aS'UGAGUGAAAAAAAGUUAUCGAAAGGUACCACUCUAAAAAA'
p195
aF0.95
aa(lp196
S'Bug 38'
p197
aS'AGUACAUAUUGUCGGAAUUAGAAGCAAAGGAAGACA'
p198
aF0.9444444444444444
aa(lp199
S'Simple Single Bond'
p200
aS'AAAAAGUUAAAAAAAGAGUGAAAAGCACUAGAAAAAAUGAAAAAAAAAAAAAAAAAAAAAA'
p201
aF0.9672131147540983
aa(lp202
S'Taraxacum officinale'
p203
aS'ACACGAAAGAUGUAUAGAGAAAUACUAGAAUUUAAUAGAUGAUCCUGAAAAAACAGUAUAAAAGUAAUAAUAUUGAAAAAAUAGGCGAUGAGAUUGCUAUGGUGAUGAAAUUACCCAUAGCUUGACCAAAUACAUAGACAAGCCGGACUAUGUUCGGCAGUCUAUGUAUGAUCAGCUAGUGAAAUUAGCGAUCGGUUAUAAAGUUUCAUCGCAGACUGAAAAAAUCAUAUGAAAGAUAGAGUAUGUAAUUAAUAACCUAGAAAUAAUGAUAAGGAAAAAAUA'
p204
aF0.8226950354609929
aa(lp205
S'Headless Bug on Windshield'
p206
aS'GCCUGUAUAAACGGCAAAUCUUGACAAAAAAAAAAAAAAAAAAAAAAAAAAUUUGGUAAUGCGCGAAGACUGGGCGAAAAUCAAGUGAAACAUAUUAAUGUUAAAUAAGCGAUGAAAAACCGAGGCUGGAAAAAAGACGGGCGUUGUUUCAAGAUGGAUGGGGGGGGGAAGUCAAUAUUGCAUAGCAGCCGACGAUGACG'
p207
aF0.97
aa(lp208
S'Pokeball'
p209
aS'AAAGGCAAAUAACAACUUGUAGUGUUUUCUUUUGAUUUGACAUUUAAAAUAUUCAGAUGGUUGAGAGUUAAUAGGGACUGUGUUUGCCAAAAAAAAGCGUCUCAAAAUUAAUCAUCUCUGCCGGUUUAGAACGGAAUCAUAGAUCAUGAAGGCGCUCGGAAAAUAGAGUGAGAGGGGAUGCAAA'
p210
aF0.8913043478260869
aa(lp211
S'Variation of a crop circle'
p212
aS'AAAGGCUAAAGCGAAGAUACAAGAGAGAGAUUAAAAACAACAAAAUCACAAAAGAAAAAAAAGCAAAAAAAAUGUAAAAAAAAAAAAA'
p213
aF0.9545454545454546
aa(lp214
S'Loop next to a Multiloop'
p215
aS'AAGCGGUAUUUAAAGAGCGGUUAUUGAAAAAUAACAGAUUUACGAAAGUAGAUCAGAAAAAAUGAUAUCGCAA'
p216
aF1.0
aa(lp217
S'Snowflake 4'
p218
aS'UAUCAAAGAUUCGAUGUAGAAAGGGAUCUUUGCAUUUCAAAGGGCAGAACGUCAAAGACGAAGAUUUAUAAUCUUCUGCCGAAAGGAAUGCUGUAUAUCUGAAAGACGGUUUAUCCAAAAUAAAUACUUAUAGUAGAUCGCCGAAAGGAUAUAAAUAUAACCGAAAGAGGAGUUAACGAAGGUGAAUAAUAAAACUAACUCCGCGAAAGGUUAUAAAGAUACGUGCAAGCCGAUACAUCGAAGAUGACUAUUAAGAAAUAAUCUCGGAAACCGUAUCGAUAUACUCGAAAGGUAUACGAGCAAAACUCAACAUUAAGGAUGGUAUACCGAAAGGGUAUAGUAGAUCACAAAGAGCAUCGUAUAAAAGAUA'
p219
aF0.8189189189189189
aa(lp220
S'Mat - Cuboid'
p221
aS'GAACUAAAAUUAAACAAAAUUAAGUAAAAAAAGCAAGCAAAAUUAGGUAAGCAAAAGAAGAAAGUAAACAAAAUAAGGUAGUUAAGUAAAAAGAAGUAAGUGAUCUAGCAAAAGCGGUUUGUCGGCUGUCCAAAAGAUGCCUGUCUAGCGGUCGGUCAAAAGUUGUCUUUCUUUCUAUUUUUCCAAAACGGACUUUGUUUCUAUUUUUUACAAAAAAUUAUGAGAGCUAAUGGAACUAGUAAAUUGAUUGGUUGAAAGCGAAAGAAAGAUUGAAGGUAUUUGGUAGGAAGAAUGAUAGCACAUGCAAACAAGCAAUUAGGAGCAAGCAAGAGCAAGCAAGCAAGGCGAGCAGGAACAAGCGGUGUAGGAGCAAGAGGAAG'
p222
aF0.7315789473684211
aa(lp223
S'Misfolded Aptamer 6'
p224
aS'AAAAAAGACGCAAAGAGGAUAGAGGUGUAAUAAAAAACAUUAAUCAAAAUAUAUAAAAAAAGCCGAAAAAAAAAA'
p225
aF0.9733333333333334
aa(lp226
S'Snowflake 3'
p227
aS'GACUUGAAAGAACGUUGUAAAGACAAUUAGCAGACAAAAAGGAAACUUUCUAAUGAAAAAACCAAAGGUAUUAAUAUAAGAGACUAAUGUCAAUGUCGUAUUAAGACUAAGGUCGAAGACGAAAGUUUCAAAGCAACGAAAGUGACUAACGAAAGUUAAGUUAGGACCGAGACGAAAGUGUAUAACGAAAAUACGAAACAUACGAAAGUAAUCCACGAAAGUGAAGCUCAGAUCAGGAGGAAACUCAGUAACGAAAGUAUCGAAGAUAGGAAAUUCGCACACGAAAGUGAAGAUCUGACCAGGACGAAAGUCGAUGUGAAAGUGAUGGAAUGUAGGAAAGAAAUACAGGAAAUUGAAGAUCAGCUAUACUCGAAAGGGGCCAACGAAAGUGUC'
p228
aF0.8396946564885496
aa(lp229
S'Hard Y and a bit more'
p230
aS'AAAAGCGAUCUACCUAACGAAAGUUAAUCAACAUAAUCGACAUCGAAAGAUGGUACAUUGAAAAAAAUGUUAGAGGAUGUGAUCGAAAAAAAAAAAAAAAAAAAAA'
p231
aF0.9716981132075472
aa(lp232
S'Mat - Lot 2-2 B'
p233
aS'AAUGGGCUUAUGGAUCAAAAGAUUUAUUGAAAAAAAAAUAUUUCGAGAGAAAAAUAUUCCUUAACCAAUAGAUCGCUGUAAAAAGGUUUUAUGACCAGAAGCGAAAGCGAGAGAAAACAAUUUCUACUGCGCUAUAAAGUUAGUGUGCUUUAUAGGUCAAAAGCUAUAGUGAAAAAAAAAUAGUGCGAAAGAAAAAUAUUGCUAGUGUAAGAGAUCGCUUUCAAAAGAUUUGGUUCAGCUAAUUAAAGAGCUCCACCAAACAUUUCGAUUGCGGAAGAAACUAG'
p234
aF0.7887323943661971
aa(lp235
S'Shapes and Energy'
p236
aS'AAAAAGCCGGUAGUAUACAAAGGAGGCGAGUAAAGGAAAGCAAAAGAUAGAUGAAAAAAUGUAGAAAUACAUAAUACAGGAAAAAAAAAAAAAAAAAAAAA'
p237
aF0.9405940594059405
aa(lp238
S"Spiral of 5's"
p239
aS'UUAAAUAUAGAAAGAAUGAAAGGAGGAAAAGAUCUAAUGCAGGAAAGCAGGGGGCAUUAAAGUCUAGUAGGCAUGGAGGCAAGAAAUAUUUGAUCAUCAAACUAUCUAGCAGUUAAGUAUUGGAGGUUAAGGGUGAAGCAUUAGACAACAGCAUCGGCGUAGUUAUGAAAAAUAACGGGGGUACGCAAAAAGAUGCAAAAAGUUGUAAAAGAAUGCGAAAAUAUCCAAAAAAAUCUAAAAAGAUGCAAAAUACUGCAAAAUGAUAGGAAAAGAUGGAAAAUAAUAUGAAAACUUGCAAAAACAUGCAAAAUCUAGAAAAAAAAUGCAAAAACCUGCGAAAGCCUGCUAAAAAGAUUAAAAACCUUCAAAAACAUUCGAAAAUUAUAGAAAUAAAAAA'
p240
aF0.9949622166246851
aa(lp241
S'Campfire'
p242
aS'AAAAGGUCUAGUAAUGCAUGAAACUGCUAAAUGAGCUUGGCGAAAUCCAUAGUUCUGCUUUGAACACUAGCAGGGAAAUUUGGCCGCUCACUCGGCGUCAUCUAAUGAGAGCGAUUAGAGGAAACUACAAAUUAAGAAGUGCAAAAGCGCAGCAUCUGCCACGCAGGGAUAAUUUUCCUGGGCGUGGUGUCGAAGUCAACAAACUAUUGGCU'
p243
aF0.8490566037735849
aa(lp244
S'Anemone'
p245
aS'AAAGCGAGUGAAAACUUGCGCAACAAAGGUUGCGGUAUGGAAAUAUACCCCAGCGAAAGUUGGGCUAUCAAAGGAUAGCGCAUUGAAAAAUGCGUAUCGAAAGAUACGCUUUUGAAAAAAAGCAUCGUCGAAAGAUGAGCUAUUGAAAAAUAGCGCAUCAAAGGAUGCGAGAUUAAAGAAUCUCGGGGUGAAAAUUCCGCAUGUUAAUACAUGC'
p246
aF1.0
aa(lp247
S'Fractal 3'
p248
aS'AAAAAGAUCAGCUAGCGAAAGCGCGAAAGCAAGCAGACAGCGAAAGCUCGAAAGAAGUCACAAAGCGAAAGCUCGAAAGAAUUGGGCCAGCGAAAGCGCGAAAGCAGGCAGAUCAAAAA'
p249
aF1.0
aa(lp250
S'Kyurem 5'
p251
aS'AAAAGAAUUAGGACCUAAUGCCUACUAAAUGUCAUGUAAACUUUAAAUAGGAGAAGAUAAAAAGACGUGGUGGCAUAACAGAUAAAAAAAAAAAAAAAAAAAAA'
p252
aF0.8653846153846154
aa(lp253
S'Snowflake Necklace ( or v2.0 )'
p254
aS'GCGGGAAGAUCUCAGAACACUAAUAAAAAGUAUCAAAAGAAAGGAAAAACCAGAAAAAAGCAACAAAAAGUAGAUGCAGACAAAAAGUCAUAUACGCCGAAAAGAAUCAAAAAGAUUCAAAAGAAUGCAAAAGGCGUGAAAAAGUAGUAUAAGGCAAAAAGCUAGCGUUAACAAAAAGCAUCAAAAAGAAGCGAAAAGCAUCGAAAAGAAGCAAAAAGCAAACGCACACAAAAAGUCACAUACAUCAAAAAGGAUCAAAAAGAAUCAAAAAGAAUGAAAAACAAGCAAAAGGCAGUAUAAGUCUAAAUGGCAGGUUGAGAAAAAAGUGCCGAAAAAUAGCUAAAUGCAAUAAAAGGUUUCAAAAAGAUUAAGGACUGAGAUUUUCUUGC'
p255
aF0.8406169665809768
aa(lp256
S'Methaqualone C16H14N2O Structural Representation'
p257
aS'AGGGGAACUGCAGAGCAGACUGACGAAAGUCAGACACACGAAAGUGAUGUAGACGAAAGUCAGACAUUCGAAAGAGUUAUUAAAAAUAUAUUUCAACAAGUCUGUCAGAAACAGUUCAGAACAAAGAAGAUAAAACAAAGUAAAAAAAAAUCAGAUAGAUGAAAAUCUAUGAAAAUAUAUGAAAAUAGUUAUCAAAGAGCAGAAACCAUGAGGUUCUUAUAAAACGGAAAGACGAAAGUCACGUAUAUGAAAAUAAUUAGGACGAAAGUCUCUUGUAGUAAUUUAAAUCAGAAGACGAAAGUUUAUGAAAAUAUGCCGAAAGGCGUCAUGAAGUUCAAAGUUCGGCGGGGGGCAG'
p258
aF0.8366197183098592
aa(lp259
S"Cat's Toy 2"
p260
aS'AAAAGGGCUGCUGAAAUCUAGAAAAAAAAAAAAAAAAAAGCAUGGUAAGUAAAUGAGAGGCUAAUGCACGAAGAUUGGAAAAAGGAGCAGUUUAAAA'
p261
aF0.9381443298969072
aa(lp262
S'Zigzag Semicircle'
p263
aS'AAAAACGUUGAGUCUAAAUAAUAUAGGGGGGAAA'
p264
aF0.9411764705882353
aa(lp265
S'Short String 4'
p266
aS'AAAAAGCCACUAAGCUUUUAAGAGGAAGGAAACUUCAACAAACUGCAUCCAAAAGGUUGUUAGAAUAUCCAAGGGGAAAAAAAAAAAAAAAAAAAAA'
p267
aF0.9381443298969072
aa(lp268
S'Gladius'
p269
aS'GGAAACAAAUAAUGAAGAAACGAAUAAAAGGCAGCGAAAGGUCAAAGGACCGGCAUCGAGAGUUGUGGUGGAAAGGUCGAAAGGUAUAAAUGCGAUAGCAGCGAGUGAUUAAAGUGAGAUGGAAUAUCGAUUAAAGUCUAUUGCAAUUAUCCAAUUUAUAAACAUCGAAACAUCCAAAUAGACCCCAGAUGUACGCGAAUACGUAUACAGAGUACAUAAGAUCGGGAGAUUAGAUGCUAGACACUAUCUAGCAACAAUGGUGAGUUAUAUAUCGAAAGAUAUAAAAACGAACCAAUGUUGACAGGUAAGGUCUAGCUUAAGAUCAGAGGAUCGGAGGUAACAGGUGUAAUAUUGAAAAAUAAAAGAACGUAAAAGAAACCAGAAAGUUUAGCAAUGAAAA'
p270
aF0.89
aa(lp271
S'Thunderbolt'
p272
aS'GUAAGGAUUAAAAAAAAAGGUAAACGUGUGAGGAAAGCAUUUACGGCAAAUAAAAUUCAAAAAACAUCAAAAGAAUAGAAAAAGGAAAAGUUAGAAAAAAAUUGGAAAAAAAAAGAACCGCUCAAAAUUUAAAGAGAGCAAAAAAACAAAAAGGGCCGCAAAGAGGAACGAAAGGUUAGAUCAAAUAGAAAAAUUGCAUCAAGGAAGAUGAAAAGAAAAGAGAUCAAAAAAAAGUUCGGGGCGGAAUCAAAGAUUUUGGACAGGAAAAAAAAAAACAAAUGCAAAAAAAAAUUUCAAAGGGGUGUAAAAAACAAAAAAAAGGAAAAUACACCAAAUUUAAAGACAUAAAAAAAAAACAGGUUAACGUAAAAAAAAAAAAAUAAGUCCAAGCA'
p273
aF0.8903061224489796
aa(lp274
S'Mutated chicken feet'
p275
aS'GAAAAAAGAAACAUCAAAUGGGUGAAACAAAGCGCAAAAGAAUCGAAGAACCAAAAGAAACCGUAGUAGCGUCAAAGAGGCAAACUAAAGAGCCAAAAAA'
p276
aF0.84
aa(lp277
S'Chicken Tracks'
p278
aS'AAAAAAAAGGGAUACCGUUAAAGAACGAAGAUGAAAGUAUCAAGAUCAAAGGAUCGUAUCCCAAGGCGUCCAAAGGACAAGGGCAAGGCCCAACAGCAAAGCUGGCCAAAAAAAAA'
p279
aF1.0
aa(lp280
S'Looking Back Again'
p281
aS'GGCGAAACGCUCAAAAAUAUCUCAAAGAGAUAAGAGCAAGACCACCAGCCAAGGGUGAGUUGUACAAACAUCAAAGGAUGGAAAGUAUAUAGUCAAGUUAAUGAUCUGAAAAAGAAUGAAAGCAUUCGAAAAACACUGUUCAGAUGAAACAUUUGGUCGAAAUUGUCGUGACUGCAAGUUUAAGUCUAGGCUCAUUGCAAAAUCUUCAAUUUUUUUGGCGACUAAUGUCAAAGUCACAAAGGACGAUCAGCCCUUAAUACAAAAAGUUAGGCGAAAAAAAAGAGCAAAAGGUUCCGCCAAAUUAAGGAUCGACAAAAAAUGUGAUGCGAAAGCAUCAAAGUCUAAAGGAAGUUACAAAGUAACGAGCCCAGAAAGUUGACAGCAAAGCC'
p282
aF0.8766066838046273
aa(lp283
S'Multilooping 6'
p284
aS'AUGAAGUCAGGCUUAUAAUUAAGUGUUACUACUGUCAUGUGCAGUUUAAUAAUGUGAAGCCUCUAAUGAGGUAUCACUUCUA'
p285
aF0.926829268292683
aa(lp286
S'Cesspool'
p287
aS'GAAGUGGAAAGCAUGUUUGUACAUUAAAAACAACGAAAAUGAUUUAAGUGAAAAUGUAUUGAGAAAUAUAAUAUAUGAAAAGUCAAAAAGUUUGUCAAAAGUGUAGAUUGGAGUAAAAUAGAACGAGUUAUAACAUUGUAAUCUUUUUUUAAAGAUUUAUUAGUUGAAAAAAAUUCUAGUUUGUGGAAAGCAGUAUUUGGUAUAAAAACUAAAAAAAUUGUAACUUUUAAAAGUUUAGUGAACUGGUCCGUACUUGAAAAAUCAUACAAGCUUGAAGAAAACAAUGUAGCCGAUUAAAAUGAAAAAAGAGGUAAUUUUGGAGACUUAUUUUUACAGGUACAUAUUAGAAAAAUCACGC'
p288
aF0.5307262569832403
aa(lp289
S'Hoglafractal'
p290
aS'AAGAUUAAAAGAAAAAAGCAUUAAAAAAAGCGCGUCUGGAUCAAAGAUCAAAAGGAUCGAUUUGCAAGACUAAUGUCGGACUAGAACGUACAAAUUUCAAAAAAGAAGAUACAAUAAGAUGAAAAAUCAAGCCAGGGAAACCGAAUAACAAAAUCUGAAACAAAAAAGUUAUAUCAGUUAUAUACGAGCCAAAGGGCAGCAGUAAAAAGUAGUAAAAAAACACCAUUAAAUAUGUUAAAGGAUGUUGCAAAAAAAGAGGAAAGACUCAAAAAAAUAAAACUAUGUCAAAGAUAUAGGAAAAAAUGCAACUAAAAAAUUGCGAAAAGGACAAAACUGAGGAAGACAAAAAGGAGAUCGAAAUGUAAUCACCUAGUUCUAAAUGUACGGUAUACGAUCCUGA'
p291
aF0.8575
aa(lp292
S'Bullseye'
p293
aS'AAAUCAGAUCUAUAGUCAUGAUCUAUGAUCUAGAGAAAAGAUCUGCAAAAAAAAAUCCAGGAAGCUUAAAGACCGAAGUUCAAAAUCUAUGUCCGAUAAAAAAAGAUAAUGCAAGGUAUAAGACUAAAAGUCGAGAUCAAACGUCUUUAAAAAAAAAUCAAUUUAUAAUUAAGAUUUAUAACCAAGAUCGAAGCUCGAUGAA'
p294
aF0.7722772277227723
aa(lp295
S'Shooting Star'
p296
aS'GCUAUUGCAUUUCAUACAAAGAAUUUCAGACAGACAGAGAAAUACGUACGUCAGAUUUUCAAAUAUAGAAGCGUUGAUAAUUUCAUACAGAUAUAGACAGAGCAGCAAAGGACGCUACGUCGAUGUAAGUAGGAAUUUAGAGAAAAAUUGAUGCUAUCCAUAUAAAAUAUGAUAUGCAAAGUAUAUAAAAAAUAAAGACAAAUGCAGGUAGGAUAAAAUAUAAAGAAAUUUUAUCAUCGUCGAAGAAGAGAUCGCGAUACAAAGUAUCGCAUAUACUAUGUAUAUUUCGCAUAACAAAGGAUUUGGGUUUAGUAACAGAUCAGCGAAAGACGAUACGUUUCACAUUCAAUUUAUGCAAAUAGCA'
p297
aF0.7774725274725275
aa(lp298
S'Teslagon'
p299
aS'AAAAAAGUUAAAGAAACAGAAAAAAAAUCGAGGGGGGAGUGGGGGAAGUAAAGAUUGAGCAGGGGGGGGGGGGAAGAGGGAAAAAAAUCAGUAAAAAAAGGGGGGGGGGGGGGGAAUCAAAAGUAAAAGCGAAAAAAGUAGCGGGGGAGUGGGGGAAGCAAAUAUAGAGUAGUGGGGGGGGCGAAAUGAUAAAAGAAGAAGUAAAAAAAGAGGGGGGGGGGGGGAAUCAAAAGAAACGGUGAAAAAAGCAUCGGGGGGGUCGGGGAAGGAAAUAUCGUUCAGGGGGGGGGGGGAAGAAGGAAAAGAAACAGUAAAAAAAUCAAAAAAAAAAAAGCGGGGGGGGGGGGGAAGAAGCGAAAGAAACAGAGAAAAAUACAGAAAA'
p300
aF0.8638743455497382
aa.