(lp0
(lp1
S'Simple Hairpin'
p2
aS'GGGGCAAAAAAGUCUC'
p3
aF1.0
aa(lp4
S'Arabidopsis Thaliana 6 RNA - Difficulty Level 0'
p5
aS'GGGGGGCAAGGGGCUAAAAAAAAAUGUCGGCGGGGCAAGGCGAGGGAGAGCAGAGAAAAGGGGGCAAAAAAGUCUCAUUCUCUGGUUCUCUCUUGUCAAGUCUCGCCAAGUCUCUC'
p6
aF1.0
aa(lp7
S'Prion Pseudoknot - Difficulty Level 0'
p8
aS'AGGGGCACCACAAAGGUGGGUCACUUAAAAAAAAAA'
p9
aF1.0
aa(lp10
S'Human Integrated Adenovirus - Difficulty Level 0'
p11
aS'AUGAUGGGCUACGGGGGGGAGUAAAAAAAAAGGGGCGGCGGCCGCAAAAAGCGCGGUAAACGCACCAUGAGAUGAAAAAAAGCAUCUCGUGGAAAAUGCACCGCAAAAGCUCGGAAACCCGCCAAAGCGGGCGAAAAAAGUCUGCGUCCAAAAAAAAAAAUCUCUCCACCGUAAAAAGCUCGAACUCAUGAA'
p12
aF1.0
aa(lp13
S'The Gammaretrovirus Signal - Difficulty Level 0'
p14
aS'AAGUCAAGGGGGCAAAAGUCUCUAAGUCAAAAAAGGGCAAGGCAUUGCGGGGCUAAUGUCUCAAAAGCGGGUCGUCUAAGGGGGUGCAAAAGUAUCUCCGA'
p15
aF1.0
aa(lp16
S'Saccharomyces Cerevisiae - Difficulty Level 0'
p17
aS'CGGUGUCGGGCAAAAAAAGGCCGAGCGAGAAAAAAAAAAAAGUGGCGGGGAGAAAAAAACUCCCGACGCUGAAAAGGGAGUGAAGUGCGAAAAAAAGUGCGGUAAAAAAAAAAAAAGUUAAGAGGGUCUAAAAAUGACUCCACUCUCGAAGGUGGGAGAAGUGCGAAAAAAAGCGCGGGCUCAAAAAAAGGGUCCAAACGGGUCGAAAAAAGGCCCCUCUCACAAAAAGCUCGUAAGGGCAAAAAAAGGCCUGGGGGCAAAAAAAGUCUUCAAGAGGGAAGAAAAAAUUCUCACGGGUUGAAGGGAGGCUCAAUGGUAAAAAAUCCGUGUGGUGGAAAAAACACCACAAUCAGGGAAAAAAAUCUACUAGCUUUCAAAA'
p18
aF0.9683377308707124
aa(lp19
S'Fractal 2'
p20
aS'AAAAGGGGCGGGCAAAGGGGGGGAAGAUCGGCAAAAAAAAAGGUCGUUGGGCAAAAAAAAAGGUCCUAGGACGAAAAAAAAAGUUCAACUUUCUCUUCAAGGGGGGGGGUGAAGGGCAAAAAAAAAAGCCCAAGGCUUAAAAAAAAUGGCCAAGGACAAAAAAAAAAGUCCAACACUCUCUUCAAAGGGGGGGCAGUAGGGGGAAAAAAAAACCUCAGGGACGAAAAAAAAAGUCCAAGAGCAAAAAAAAAGGUUCAUCUGUCUCUUCAAAGUCUGUCCAAAAA'
p21
aF1.0
aa(lp22
S'G-C Placement'
p23
aS'GGGCAAAGUCUG'
p24
aF1.0
aa(lp25
S'The Sun'
p26
aS'GGCAUGAUGGCAAAGCGGAAUUUCUCAAAUUCCGGAGGGCAAGGUCCAAUCCGAAAAGGGUUAGGAGUCGAAUUCUAACUUGUCAGGGACGACGUGCCAAAGCCGAAAGCAGCAAAGCCAUUGAGCGGAACGUUAAAAAGGCAAAGUCACGGAGAUGAAGCCCAACCGGACGACGGGACUUGUGCGAAGUACAAAGGUCCAAAUGUAGGAGAGUUAUAUUUAACGUGUAAAAGGCAUGGCGGCAAAGCCGCAUAAGUC'
p27
aF0.8488372093023255
aa(lp28
S'Frog Foot'
p29
aS'AAAAAAAAAAAGGCGAAAGUCUGUACAAAAGUACGCACAAAGUGC'
p30
aF1.0
aa(lp31
S'InfoRNA test 16'
p32
aS'GGGGGCACGGGGGGCAAAAGUCUCACUAGAGUCUUC'
p33
aF1.0
aa(lp34
S'Mat - Martian 2'
p35
aS'GCGCAAAGGCGCAAAGGAGGGCAAGAGGUGCAAAAAAAGUAUUUCGUUCUUCAAAGGGGGGGCAAAAAAGGUGGGCAGGGGGUCAAAAAAAGAUCUCCGUUUAUCAACGCGAUGCGAGAGACUAAAAAUGUCUCUCAGCAUUGCUAAAAAGUCUCUCCAAGGGGGGCGGAGGAAGGAAAAAACUUUCUCAACGCUCUUACAGGUCGAAAGAUU'
p36
aF1.0
aa(lp37
S'square'
p38
aS'GGGGGGCGGGGGCGGGGGGCGGGGGCAAAGUCUCCAAAAGUCUCUCAAAAGUCUCCAAAAGUCUCUC'
p39
aF1.0
aa(lp40
S'Six legd turtle 2'
p41
aS'AAAAAGUGAAAUAAAAGUGAACGAAAACCAAUGUAAAGAUUAACGAAAAUGAAAACAAAAGUAAGAGGAAACUAAAACAAAAAAAAAAAAAAAAAAAA'
p42
aF0.9591836734693877
aa(lp43
S'Small and Easy 6'
p44
aS'GCCGGAAAAACCAACCAAAAAAAAAGGGGC'
p45
aF1.0
aa(lp46
S'Fractile'
p47
aS'AAAAAAAAAAAUCAGAAAAGUAAGCAAACCAAAAGGAUGAAAUGGAAAACCUAAUCUAGAAAAAUAGAAGCAGUGGAAAGAAAAAGAAAAAAAAAAAAAAAAAAA'
p48
aF0.9619047619047619
aa(lp49
S'Six legd Turtle'
p50
aS'AAAAAGGAAAGUUCAAAAAAAAACGAAAAUUAAAGCGUAAUUGAAAAGUAAAAAUAAAAGGAAAAUAAAAACUGAAAGGAAAACCAAAAAAAAAAAAAAAAAAAA'
p51
aF0.9619047619047619
aa(lp52
S'snoRNA SNORD64'
p53
aS'GGGGGCAAAAAGGCAAAAGACAAAGGGGCAAAAAAAAAAAAAGUCUCAAAAGUCAAGUCAAGUCUCU'
p54
aF1.0
aa(lp55
S'Chalk Outline'
p56
aS'AAAAAGGGCAGGCGCAAAAGCAGUCAGGCAGGCAAAAGUCGUCAGGGGGCAAAGGCACUCCAGGGGCAAAAGUCACCGUCCAAAAAAAAAAAAAAAAAAAAAAA'
p57
aF1.0
aa(lp58
S'InfoRNA bulge test 9'
p59
aS'GUGGGCCCGAGAGAGUGGGGCUAAUGUCUCGCCCCGGCUUAC'
p60
aF1.0
aa(lp61
S'Tilted Russian Cross'
p62
aS'AAAAGAUGGGGUCAAAAGACCAUAUAGCUCGAAAGCGUGGGGCGAAAGCCCUAUAGCUAAUACUCAUGACGAGAAAGCUCGCAAUAAAAAAAAAAAAAAAAAAAA'
p63
aF0.9809523809523809
aa(lp64
S'This is ACTUALLY Small And Easy 6'
p65
aS'AAAAAAAAAAAAAAAAAAAAAAAAAAAAAAAAAAAAAAAAAAAAAAAAAAAAAAAAAAAAAAAAAAAAAAAAAAAAAAAAAAAAAAAAAAAAAAAAAAAAAAAAAAAAAAAAAAAAAAAAAAAAAAAAAAAAAAAAAAAAAAAAAAAAAAAAAAAAAAAAAAAAAAAAAAAAAAAAAAAAAAAAAAAAAAAAAAAAAAAAAAAAAAAAAAAAAAAAAAAAAAAAAAAAAAAAAAAAAAAAAAAAAAAAAAAAAAAAAAAAAAAAAAAAAAAAAAAAAAAAAAAAAAAAAAAAAAAAAAAAAAAAAAAAAAAAAAAAAAAAAAAAAAAAAAAAAAAAAAAAAAAAAAAAAAAAAAAAAAAAAAAAAAAAAAAAAAAAAAAAAAAAAAAAAAAAAAAAAAAA'
p66
aF1.0
aa(lp67
S'Shortie 4'
p68
aS'CAGAAAUGGGGGAAACC'
p69
aF1.0
aa(lp70
S'Shape Test'
p71
aS'AAAAAGAGGGCAAGGGGCAAAAAAAAGUCUCGAGAGCAUCAAGGGCAAAAAGCUUUAGUCGUAAUCGACGGAUCUUAAGUCCGCAAAAAAAAAAAAAAAAAAAA'
p72
aF1.0
aa(lp73
S'The Minitsry'
p74
aS'ACCAAAAACCUGAAAGCUCAAAAAGACGAAAAGGCGAAAAAAAGCUAGUCGGAGAGGGGGGU'
p75
aF1.0
aa(lp76
S'stickshift'
p77
aS'AAGGGGGCGCAAAAAGCAGUCUCCAA'
p78
aF1.0
aa(lp79
S'U'
p80
aS'AAAAUGGUGCAGAGAGCAGUGGGUGCUGGGAAACUAGCACCCCGCCCGUACCUAAAA'
p81
aF1.0
aa(lp82
S'Still Life (Sunflower In A Vase)'
p83
aS'AAAGGGCAAGCGUCAAAAGGACGCGAGGGGCAAAGCCUCAAGGGCCAAAAAGGCUCAACGCAGAAGUGGGGAUGUGAGAAAAAUUCACUACGCGCAAAAAGGGUUAAUAUAUAUAUAUAUAUAUGUUUGGAAUUAAAAAAGAUUCAGGGGCGAAAAAAAAAAAAGGUCAAAAAAAAAAAAAAAAAAAAAAAAAAAAAAAAAAAAAAAAAGACCAAAAAAAAAAAAAGUCUCGUGUCAAAAGACACACAAACGUAUAUAUAUAUGUAUAUGAUUGGUAAAAAACUAAAGGCGAGGAAAAUUCGCAAGGGCCAAAAGGGCCCAAGGUGCAAAAAGUCCAGACAUUCAAAAGGGUGAACGCCGGAAAACGGUGAGUCCAAA'
p84
aF0.9470899470899471
aa(lp85
S'Quasispecies 2-2 Loop Challenge'
p86
aS'AAAAAUGGCGCUGAAGGGAAAAAUUCCAGCAGCGGGGUAACUAUGGAAUCCAGGGCAAGAAGACAAAAAGUCGGCGAGUCCGCCGAAAAAAAAAAAAAAAAAAAA'
p87
aF1.0
aa(lp88
S'Corner bulge training'
p89
aS'AGGGGGCGGGGCAAAGUCUCAAAAGUCUCCA'
p90
aF1.0
aa(lp91
S'Spiral'
p92
aS'AAAAUGCUACUGGGGGAAUUAGUGUCAUGACAGACUUCUAUCUCGAGAAUCUGCGAAAAGCGAAGCUAAGGGGUCGUUAGAUACAAUUUCCCCUGUUUAAAA'
p93
aF0.9607843137254902
aa(lp94
S'InfoRNA bulge test'
p95
aS'AAAAAAAAAAAAAAAAAAAAAAAAAAAAAGGGCAAAAAAGGGCAAAAGGGCAAAGGGCAAGGGCAGGGCAAAAAGCACCAGCACCAAGCACCAAAGCACCAAAAAGCACCAAAAAAGCACCA'
p96
aF1.0
aa(lp97
S'Worm 1'
p98
aS'AAAAAAAUUGGGAGGCGUGAAGAGAAAAUACUGCAGUACCAACUG'
p99
aF0.8666666666666667
aa(lp100
S'just down to 1 bulge'
p101
aS'AAAAAGGGCAGGGGCAAAAGUCUCAGGCAAAAGUCAGCACCAAAAGGGCAGGCAAAAGUCAGGCAAAAGUCAGUCCAAAAAAAAAAAAAAAAAAAA'
p102
aF1.0
aa(lp103
S'Iron Cross'
p104
aS'AACCAAGGUAGGGAGAGUAAAGGUAGGUAAAAAUUAGUCAAAGGGAGGCAAAAGUCAAGGAAAUUUACACAAAUGCAUCUAAAAAAAAGGCAAAGUAAGUAAAUCCAAGUUAAAGACCUGUAA'
p105
aF0.8617886178861789
aa(lp106
S'loops and stems'
p107
aS'AAAAAGGGGGGCAAAGGGCAAAGGGCAAAGGGCAAAAAAAAAGGGGCAAAAAAAAAAAAGUCUCAAAGUCCAAAAGGAGAAAAAAAAAACUCCAAAGUCCAAAGGCAAAAAAAAGUCAAAGUCCAAGCAAAAAAGCAAAGUCUCUCAAAAA'
p108
aF1.0
aa(lp109
S'Water Strider'
p110
aS'AAAAGGUUGCGAUGUGUAGGCAAAACUAGUCGAAAGGCACUAAAAAACACUCAAAGAAGUCAAAAACUGACGCCAGAGCUACAAAAAAAAAAAAAAAAAAAAA'
p111
aF0.941747572815534
aa(lp112
S'The Turtle(s) Move(s)'
p113
aS'ACGACGAAAAUAAGGUGAGGUGGUUAAAAAAAUAUCGCUUUAAAGUCGACAAAAAAUCGUAAAUGGCAAAAGCAUAAGGGGCAAAAAAGGUCUCGAAAGUCAAAGUAAAAACAAAAGCUGAAAACAGAAAACGGGGAAAAAAAAUUCUCGGAAUGUAGAAAUACUAAAAUGGCGCAAAAGGCAAAAAAAGUCGUGUCAAAAAAAAGGCUAAGGGGCAAAAAAGCCCCGAUCGUCAAAAAGACGUGGCGUUGAAAAAAAAAGCAAAAGCAAAAGCCAAAAUCAAAGAUGCGGCGAAAAAAAAAGGCGCAAAAAAGAC'
p114
aF0.9556962025316456
aa(lp115
S'Adenine'
p116
aS'GGGGCGGGGGGCCGGGGGCAGGGGGCAGGGGCCAGGAGUCAAAUGGUGGCAAAAAAGUCGCCCGGCUCCCGGCGCAAACGGGGGCAAAGUCUCUGGUGUCAGGCUCCGGCGGGCGGAAAGAAACUUUCUGAAACUCGCAGUCUCCCAAAGUCUCCCAAUGUCUCCAAAAGUCUC'
p117
aF1.0
aa(lp118
S'Tripod5'
p119
aS'AGGGGCGGGUGAAAAACCCGGGCUAAAUGUCCGUCCAA'
p120
aF1.0
aa(lp121
S'Shortie 6'
p122
aS'AGGAAACUAGCAAAGGCAGAGAAAUCAGGGAAACU'
p123
aF1.0
aa(lp124
S'Runner'
p125
aS'AAAAGCCAUGGGGCAAAAAGCUUUUAUGGUAGUCCAAAGGCAAGGGGGCAAACUCAAACUCGAGGUAAAAUACAAACACAUUUAAUGGGAAAGGUAAAAGUCAGUCGGUGGAAAAA'
p126
aF0.9310344827586207
aa(lp127
S'Recoil'
p128
aS'AAAAAGGGGUGAGCAUGUAAGGCAAGACAAGGAAGCAAAGCACCAGUCGGUCAACCGCAAUCUCAAAAAAAAAAAAAAAAAAAAA'
p129
aF1.0
aa(lp130
S'[CloudBeta] An Arm and a Leg 1.0'
p131
aS'AAAAAGGCAGGGGCAAAAGCACUCGGCAGCAAAAGCGUCAGUCAAAAAAAAAAAAAAAAAAAA'
p132
aF1.0
aa(lp133
S'[CloudBeta] 5 Adjacent Stack Multi-Branch Loop'
p134
aS'CGCUAGCAGGCAACUGUGCCUAGAAAUGGGCCUGCCGAAAGGCAGCGGUAAAGACCGUAGUGA'
p135
aF1.0
aa(lp136
S'Triple Y'
p137
aS'AAAAGCGGUGGACGGUCAAAGGGUCGGGGUAAUUUUCAGGCCAACUCUCUAAUGGGGGCGUGAAAGUUUGGUGACCGAAAAAAAAAAAAAAAAAAAA'
p138
aF0.9072164948453608
aa(lp139
S'Misfolded Aptamer'
p140
aS'CGUCAAAAAUGCGGCGAAGCCAGGAAAACCAAAAAAAAAGCUAAAGGGCG'
p141
aF1.0
aa(lp142
S'Flower power'
p143
aS'AAAAGCGGCGAGAAAGUUCAACCGUGCGCUAUGCCAAACAUUGAAAAUGGAGGGCAAGGCCCAUCGGACAUUAUGUCCUUUGAAAAAAAAAAAAAAAAAAAA'
p144
aF0.9019607843137255
aa(lp145
S'Kudzu'
p146
aS'AAAAGUGUAGAGGGGUGUUCGGGCAAAAAAGAUGACGGCCCGGUCUAAGGAUUACCAGGAUACGUCGAACAUACAGCAGUAAAAAAAAAAAAAAAAAAAAA'
p147
aF0.9207920792079208
aa(lp148
S'"1,2,3and4bulges"'
p149
aS'AAAAAAGUCAGAUUUAAAAAGAAAUAUCACGCAAAAGUUAGGACUGAACGUGCGCUCGAAAGAAAAGACGUUAAUGUGUCCAAGAAAAAAAAAAAAAAAAAAAAA'
p150
aF0.9809523809523809
aa(lp151
S'medallion'
p152
aS'AGGGACAAUAUAGAAAACUAUAUACGGGAAACUGGGUCGAAAGACAGGGUGCGAAAGUAUCCGGGCGAAAGUCAUGAAGCAAAAGUUUCAGGGCAAAAAGCACGGAAAAGAGAGAGUGCGAAAGUGUUCAGGGGAAACUCGGGGGGUAAAAGUCCCUAGAUAAGGGUAAGGAUAAUCAUUUGAGUCUAAUGACUCAUAUAUAAAUACACGGUGCCAAUGUAUCUACGAGAAAGUCGGUCAAAAAAAAGGUGGCAAAAGUCAUCAACCAAAACGAGGAGGGCAAAGGUCUUCAGCGGAAACGCAAGCCAAAGAAACGGUGCAAAAGUACCGACUCGCU'
p153
aF0.9258160237388724
aa(lp154
S'[RNA] Repetitious Sequences 8/10'
p155
aS'AGCAAAAAAGCAAAAAAGCAAAAAAGCAAAAAAGCAAAAAAGCAAAAAAGGAAAAAACCAAAAAAGCAAAAAAGCAAAAA'
p156
aF1.0
aa(lp157
S'Documenting repetitious behavior'
p158
aS'AAAAAAAGAAAAGGGAAAGAAAAGGGAAGGUAAAGGGGAAGAAAAGGGAAUGCAAAGGGAAAAAAAAGGGAAAGGAAAGGGAAUGCAAAGGGAAAUCAAAAAAAAAACAAAAAAGGUGUGAAAAAGGGGAGAAAAAGGGGCGAAAAAGGGGCAAAAAAGGAGCGAAAAAGGGGCGAAAAAGGGUCAAAAAAGGGGUAAAAAAAAAGCAAAGGGAAAGAAAAGGGAAAGCAAAGGGAAAGCAAAGGGAAAGCAAAGGGAAAGCAAAGGGAAAUCAAAGGGAAAAGAAAGGGAAAACGAAAAAAAGGAAAAAAAGGGCCUAAAAAGAGUAAAAAAAGGGGUAAAAAAGGGGCUAAAAAGGAGCGAAAAAGGGGUAAAAAAGGGUAGAAAAAGGACCAAAAAA'
p159
aF0.96
aa(lp160
S'7 multiloop'
p161
aS'ACCAAGUUAGAAAAAAUCAAUUUUAAUAGAGUCGACGAAAGCGCUGGAAUUGAAAGAUUCGGUGAUAAUUUGACGGGGCGAAAGUCCCUGGU'
p162
aF0.9782608695652174
aa(lp163
S'Kyurem 7'
p164
aS'AAAAACGGGGGCGGCUAAUGUCAGUAAAAUGGUGGUGAAAAGGACGGGCGACGAAAAAGUCAAAUUUAUUAACAGUCACUUGAAAAAAAAAAAAAAAAAAAA'
p165
aF0.9411764705882353
aa(lp166
S'JF1'
p167
aS'CUAAGGGGAUAAGGGGCAAGGGGCAAAAGGGGGCAAGAUAGAAAAGAUCAAGAUAUGGGAUAGGGGAGAAAGAAAACUUUCUCUUUUGUCAAGGCGAAAGUCAGGGGGGGGCAAAAGUCUCUCUCAAGGGGCAAAGGUCUCACAUAUCAGAUCUACUAUCAGCCUCCAAAGGGGGGGCGAAAAGUCACUCUCAACGGGUGGGAGAGAAAGAGAGAGAGUAAUCUCUCUCUUUUUUUGCUUUUAUUCGAAAGGGGCAAAAAAGUCUCGUGGGGGGAAAAAAUUCUCCUUACAAAGGGCAAAGGUCCGAGUCUCAAGUCUCGGCGCACGGUGGCAAAAGUCCUGGUGCACAGGGUGGGAAAGCUCACACUUGGUAUCACUCAUUAGGAA'
p168
aF1.0
aa(lp169
S'multilooping fun'
p170
aS'AUUCAGGAUUAACGCACAAAGUCAGGUAUAAAUAAU'
p171
aF0.8333333333333334
aa(lp172
S'Multiloop...'
p173
aS'CGAUAUGUGGGUCAAAAGUCAGACAAAGGUCAAGCAAAGGUAAUUAGAAAUGAGAGUAAAGAUUACUUAAAAAACUUGCAAGGUGCAAAAAAGUGUAUUCUAAUCAGCUUG'
p174
aF0.9099099099099099
aa(lp175
S'hard Y'
p176
aS'AAAAUGCAGCUAAUCGCUGUAAAGAUGGCGGGUAGGCGGGAUGAGAAAGCUCGUUUUUUGGGCUAAAA'
p177
aF0.9705882352941176
aa(lp178
S'Mat - Elements & Sections'
p179
aS'AAAAACUGGUGAAUGAGGUCCGCGCGGCGUAGGAGCUGUGGCCAAAGUCUCCACCCAGACCCGUAAAACAGACCGUUAAUUUUGCAAAAAAAAAAAAAAAAAAAA'
p180
aF0.9619047619047619
aa(lp181
S'Chicken feet'
p182
aS'AAAAACCAACAACAAAGUCUCGAUGAAAUACCCGGUAAAGCUUAUAUCGAAAACCAAGGUGAAAAAA'
p183
aF0.8805970149253731
aa(lp184
S'Bug 18'
p185
aS'UGCAGCGGCACCGAGCAAGCACCAAAGGAAGCAGCAGGAAGCAAGCAAAGGCU'
p186
aF1.0
aa(lp187
S'Fractal star x5'
p188
aS'AAAAAGGGCGUCUAGGUACGAAAGUGCAGAGCCAAAAGGCUAGGGGCAAAAGCCCAUGUUCAAAAGAGCUAAGAUGUCCGAAAGGGCGGGGCAAGGGCGAAAGUCUGUGGACGAAAGUCCUAUGACAAAAGUUAGAAGUAAGACUACUGAGCCUCGCCAAAAAGGGGGGGCAGGAGAGAAAUUUCAAGGUCAAAAGACCAAGGGCAAAAGUCCGAGGCCUAAUGGUUAAGUCCCUCCAAAAUAGGGGUGCGAGAUCAAAAGGUCAAGGGCAAAAGUCCGAGGGCAAAAGUCCAUUGCGAAAACGCAUAGUAUCUCUUAAAAGGUAAUUGGAUGCCAAAAGGUAAAGGGUAAAGAUCCAUGAGCAAAAGUUCUAGGGCAAAAGUCCGAUAGUUACCAAAAA'
p189
aF1.0
aa(lp190
S'Crop circle 2'
p191
aS'GCAAAGCUAAUAAAAAAACAAAAAAAAAAGAAAAAAAAAAAAAAAAAAAAAAAAAAAAAAAUCAAAAAAAAAAAAAAAUGGGAAAAAAAGUUAAAAAUUCAAAAGGAAAA'
p192
aF0.9636363636363636
aa(lp193
S'Branching Loop'
p194
aS'AGGUCGAAAAAAAGCUGAGAAAGGUCGAAGACCGAAAAAA'
p195
aF0.95
aa(lp196
S'Bug 38'
p197
aS'AUAGUCUAAGUACGGAAAUAGUUUGAUGGAAAAGAG'
p198
aF0.9444444444444444
aa(lp199
S'Simple Single Bond'
p200
aS'AAAAAAGGAAAAAAAUGAGUAAAAAGCUUUAAAAAAAACGAAAAAAAAAAAAAAAAAAAAA'
p201
aF1.0
aa(lp202
S'Taraxacum officinale'
p203
aS'GGCGUAAUCACUCAGGGGGAAACAUUCGGGGGGAAACACAUAGUGGGAAACACACAGGGGGAAACACUCACGGGAAAACAUUAAGGAGGGGAGGCGGGGGGCGAGAUAUUUUCAGUGUCUCAGGAACAAGGCGGUCGAGAAGAUUGAGAAACUUAAUCGCUCGAUCGUCGGGCAUCCGUGAAAUACGGAGUUCGUUUCAAAGUCUUCUCUUCGCGGGUAAUUACACGGGGGGAAUCACUCAGGCGAAAGAAGAUAGGAGGAAACAUUCAGGGGAAAACACUC'
p204
aF0.900709219858156
aa(lp205
S'Headless Bug on Windshield'
p206
aS'AGCAUCAAAAACGGGCAAAGCAGACAAAAAAAAAAAAAAAAAAAAAAAAAGUCGGCGAGGUCGCGGAUGGAGCGCACUAGGCACACUAAAAAAUGAAAACGAAAAAAUGUGUAAAAAAUCCGAGGGAAAAAAAAAGGAAAAAGAGAAAAGUACAGAAAAAAAAAAAAAAAGUAGGCCAACUCAACUAGUUCAGGAACCAG'
p207
aF0.93
aa(lp208
S'Pokeball'
p209
aS'AAGGGGGGGCAAAAGCAAGGAAGAGAAGGAACCAAGGAAGGAAGCAAGCAAAGCAGCAACCACCAGGAACCACUCACCAGCGUCUCUCAGAAAAAAGUGGGGCAAAAGCAAGGAAGAGAAGGAAGCAAGGAAGGAAGCAAGCAAAGCAGCAACCACCAGCAACCACUCGCCAGCGUCUCGCAAA'
p210
aF1.0
aa(lp211
S'Variation of a crop circle'
p212
aS'AAAGGCGAAAGAAAAAGCAAAAGUUCGCAAGUAAAGAAAUUAAAAAUAAAAAGGCAAAAAAAUCGAAAAAAAAUCAAAAAAAAAAAAA'
p213
aF0.9545454545454546
aa(lp214
S'Loop next to a Multiloop'
p215
aS'AUGGGCGGGCAAAAAAGGUGGUAGCUAAUGUUACCUGGGGGACUAAUGUCUCUCUUAAAAAAGGUCUGUCCUA'
p216
aF0.9726027397260274
aa(lp217
S'Snowflake 4'
p218
aS'AGGCUAUGUUUGGGGUGCAAAGGCUGGGCGGGAGGGGCAAAAGUGGGGUGGACGAAUCCCAAGGACAAAGUCCGAGGGCCGAAAGGGUUACAAGGCCCGCAAAGGCUUUGGGUGCAAACACCAAUUGCAAGGUAGGUAGGGCAAAGGCGGGUCAAUGGUCGUGAAAACGGGGGCGGGGAAAUACAAGGGCAAAGUCCUUCUCGCAAAAGCGGCAGAAAGGACUGUAAUCAGCACAACGCGAAGUCUAAGGGUAAAGCCCGGAUCCCAAAGGCACCCCAUCUGUGGCGAAACCGGUUCUGGCAAAGUCAAAGUCCAAGGGGCGAAUCGAGAAAGCGGCGGUAGUCUAGCGAAAGCAUCUCGGGUAAGGUCU'
p219
aF0.8108108108108109
aa(lp220
S'Mat - Cuboid'
p221
aS'GAAACAAAAGCAAGCAAAAACGAGCAAAAGAAGCAAGCAAAAGCAAGCAAGCAAAAAAAGCAAGUAAGCAAAAGCUAUCAAUCAAUUAAAAGCAAGGAAUAAGGCAAUCAAAAGAAAGCAAGCGAUCGAGCAAAAGCAAGUAACUAAGCAGUCAAGCAAAAGCAAGCAAGCAAGCAACUAAGUAAAAGCAAAGAAAGAAGCAAGAAAAAAAAAAAUUAAUCAAGCAACUAGUUAAGCACGAGCAACGAAGCAAGAAAGCGCAAGCAAGCGAAGAAGCAAGCGCAAGGGAGCGAGCAAACGAAAGAAAGGAAUCGAGCCCAAGGAAGCAUGAGCAACCAAGAAACCCAAGCAAGCGCAAGCAACGCAAGUGCAAGCGUAAC'
p222
aF0.8394736842105263
aa(lp223
S'Misfolded Aptamer 6'
p224
aS'AAAAAAGGCAAAAAAGGCCAAGAAAAGUCAAAAAAAAGGCAAAGCGAAAAGGCCAAAAAAAGUCGAAAAAAAAAA'
p225
aF1.0
aa(lp226
S'Snowflake 3'
p227
aS'GCCAGAAAACUAGUCGCCAAAAGGUAAGGGCGGGGCUAGGCAAAAGUCGGCAGGAAAAUCGUCGAAGACGGGAAAUCAAUCGUCAAAAGACAUCUUCAGGGGGAGGCAAAAGCCGGGAGCAAAAGCCGCAAAGUCGCAAAAGCAUUCCACAAAAGUCAAGGCCAGGGCGAGGCAAAAGUCGUCAGGUAAUCUGUAAAAUACACAAAACCGGACGGAAAAAUUCAAGUCCAGGCCAAUUCGAAAGAGGGCAGAAAAAGCGGCGAAGUCGCUAAUACAGACGGUAAAAGCCAAGUCCAGCUCAAGGGAAAAUUCGAGAUCAAAAGGGACUAUGUAGCAAAAGCAUUCGGCAAAAGUCAAGAGCAGUCCAAGGCAAAAGUCGGCACGAAAACCGGC'
p228
aF0.8371501272264631
aa(lp229
S'Hard Y and a bit more'
p230
aS'AAAAAGGGGGGCCGGUGCAAAAGUACACCUGCGUUUGCGAGGGCUAAUGUCCAAGGGUUAAAAAAAGCUUGAGCUGAUUCCUCUCAAAAAAAAAAAAAAAAAAAAA'
p231
aF0.9716981132075472
aa(lp232
S'Mat - Lot 2-2 B'
p233
aS'GUAUGCAAGGGAGAUCAAAAGUAAGGGCAAACGCAAAACAAAGCGCAAGCAAAACCAAGCCCAAUCAAGCAAGAGCAAACAAAAGGGAGGGUAAGGAAAAGGAAAGUCUCGACCAAAAUCAAUCCUAAGCGCGGGCAAGCAAAAGCGCGAGGGGAAGGAAAAACAAGGGCAAAGGUAAAACCGAGCCCAAGCAAAACCAAGUGCAAGCAAGCAGGCGCAAGCCAAAGUAACGGCAAGCAAAAUAAAAAUGGUAAGCAAAAUGGGACGCAAGCGAAGGUAAGAUC'
p234
aF0.8345070422535211
aa(lp235
S'Shapes and Energy'
p236
aS'AAAAAAGAGGUUGGACCAAAAGAAAGGGCGGGAAACAGCCCAAGCGGUCAUUGAAAAAAGUACAAAGGUACCAGAACCGUGAAAAAAAAAAAAAAAAAAAA'
p237
aF0.9603960396039604
aa(lp238
S"Spiral of 5's"
p239
aS'GAAAGGGGGCAAAGGGGCAAAGGGGCAAAAGGAGCAAAGGGGCAAAAGGGCUGGGGGCAAAAGGGGCAAGGGGGCAAAGGGGCAAGGGGCAAAGGGGCAAAAGGGCAUGUGGUAAAGGGGCGAGGGGCAUCGGCCAAGGGGGAAGGGUAAGGGGCAGGGAGCGGAGAAAAACUCUGAAAAACUCUCAAAAAGUCUCAAAAAGGCUCAAAAACUCUCAAAAAAUCUCUAAAGGUCCCAAAAAGUCUCAAAAAAUCACUAAAAGUCUCAAAAGGUCUCAAAAAGUCUCGAAAAGUCUCAAAAAGUCUCAAAAAGUCUCAAAAAGUGUCAAAAUGUCUUAAAAAGUCUCAAAAGGUUUCAAAAAGUCUCGAAAAGUCUCAAAAAGUCUCAAAAGCAAAAA'
p240
aF0.9949622166246851
aa(lp241
S'Campfire'
p242
aS'AAAAGGGCAAGGGAGAAGGUCAAGGACAAAAGGACCGGCCGCGAAGUCAGUCGACCUUGAGCAGCAUUUGGGGGUAAUUCACUCGAGCGGGGCGAGAGCAGCAAAGGCGUUCAUAGAGGGUAAUCCACUGUGUCAGCACUCGUCACUACAUCCUGCGGGCAGGGCUGGCUAAUGACACUCGAUGUGGGGACUAUGUCGCCACCCCGUGGCCU'
p243
aF0.8679245283018868
aa(lp244
S'Anemone'
p245
aS'AAAAUUACCGAAAAGUAAUACAGUUAAUAAAGUGUCGGCUAAUGUCGGCGUCCCAAAGAGGGAGAUGGCAAAGGUCGACGUUGAGAAAGUUACGGUUUAAAGGAGUCCUAAGCAAAGCCACACACGAAUAAAGAUACUGUACAAAAAGUUGUGCGGGAUGAAAAUCCUGGUGUCUAAUGACGCCCGUUGGAAACAAUGUAAGCCAAAGCGUUUG'
p246
aF0.9158878504672897
aa(lp247
S'Fractal 3'
p248
aS'AAAAAGGUCGCGUUUGAAAAUAGAGAAAGCUCUGUGUCACUAAAAGGAUUAAUAUGGGUAUGCAGCUAAUGCGCAAAAGCAGUAGGUCACCUAAUGCACAAAGGCAGGCAGAUCAAAAA'
p249
aF0.8823529411764706
aa(lp250
S'Kyurem 5'
p251
aS'AAAAGUCAAGCCGGUUAAUGUCGGUAAAAUAUCCCGCAAACAUAAAAGAUGGUGCAUAGAAAAAGAUAGGGGGCUGUCAAUUGAAAAAAAAAAAAAAAAAAAAA'
p252
aF0.9326923076923077
aa(lp253
S'Snowflake Necklace ( or v2.0 )'
p254
aS'GGCUAGGGAGAGAGGAUGCGCAGCAAAAAGCGGCAAAAAGCGGCAAAAAGCAGCAAAAAGCAGUAAAAAGAAGAGAAAUACGAAAAGUGGGGGACACUAAAAAGCAGCAAAAAUAGGCAAAAAGCAAGUAAAUUCAGCAAAAAGAAGUCUCAGUCAAAAAGACAGGGGCACCAAAAAACAGAAAAAAUCAGGAAAAAGCAACUAAAUGUAGCAAAAAGCAGACUCAGGUAAAACGUCAGGGGCAGCAAAAAGAAGCUAAAUGCACCAAAAAGUAGCAAAAAGCAUCAAAAAGGAGUCUUAUACUAAAAGUAAUGGGCAGUAAAAAAUAGUAAAAAGCAGAAAAAAGCACCAAAAAGGGGUAAAAAGCAGUCUGACUUCUCUCUUUAGUC'
p255
aF0.8483290488431876
aa(lp256
S'Methaqualone C16H14N2O Structural Representation'
p257
aS'AAAAAAAGGGAAAGGAAGGCAAGCAAAAGUCAGGAUGGCAAAAGUCUGGCAGUCUAAUGACGGGCCGCCUAAUGGCAGGCGAAAAAAAUCGGUCAGUCAUCCAGUCAGAAACAAUCUAGAGCGAAGCAAGCAAAGCAAAGCAAAAAAAAGUCAGUGAAGCAAAAGCUGACAAAAGUCCACAAAAGUGCGCAGCAAAGGGCAGAAACAAAUAGCCAGGAAAUGAGCCAAAAUGCAAAAGUAGGUCGAGCAAAAGUUACAUACGCAAAAGUCGAUCGGGCAAAAGUCAUGCAUGCGGAAAAAGUCGGCAAAAGUCAGGCAAAAACGGUAAGUAAGUCCAAACUCCAUUCCAAAAAAA'
p258
aF0.8647887323943662
aa(lp259
S"Cat's Toy 2"
p260
aS'AAAAGGAAUUGUUAAAAUAUGAAAAAAAAAAAAAAAAAAAUUGAGAAUGCAAAAGCUAAGAAAAAUCGAAAAAAAUUAAAAAGAUACGAUUUCAAAA'
p261
aF0.9381443298969072
aa(lp262
S'Zigzag Semicircle'
p263
aS'AAAGCGUAUCCGCGAAAAGCCGAGAGUGUGAAAA'
p264
aF0.9411764705882353
aa(lp265
S'Short String 4'
p266
aS'AAAAAGAGACGACUCCAGGAAUGCGAAAUAAAUUCGAAAAAGUAGAUAGGAAAGCCAAUCAGAAAACUUGAAUGCUAAAAAAAAAAAAAAAAAAAAA'
p267
aF0.9381443298969072
aa(lp268
S'Gladius'
p269
aS'GAAAACAAGAACCCAAGGAAGAGAAGAAAGGCAGGCAAAGGGCAAAAGUCCAGGGGCAAGAGGCAAGAGGGCGAGAGGGGAAGUGGGGUGGGAGAAAGAGUGUUAAGAAGAGGGCAAUAUCGAAGAUAAGUCACUGAUCACGUGUGUUCUCCACUGUGUCAGCAUUCCAACAGUCCAACAGUCAGCAGUCUCAGUCAAAGGCAGGAUCACAAGAUAGAAGGUCAGAAGAUCAGAAGAUGCAGAGGGCAUAGUAGGAGGGAGCACGGAUGGGGCAAAAGUCUCGAACUGGAGUCCACGACCACGUGUCGCUUGUAUCACAAGAUCACAGGAUCGCAAGUCGGGAGAUCCAGGCGAAAACGCCAAAGUCAGUCAAACAACACAACAAAGAAAACAAGAAAAC'
p270
aF0.895
aa(lp271
S'Thunderbolt'
p272
aS'GCAGGGGGGAAAAAAAAGAGCAAGCACAAAAAGAAAACAGGGGGGCCAAAAAAAAACCAAAAAAGGGAAAAAAGUCCGAAAAAGGAAAGCAAGCAAAAAAGUAAGAAAAAACGAGAAGCAAGCAAAAACGAAAGAGGGUAAAAAGGCAAAAAGAAUCAGAAACAGAAACGAAAAGUCAGGGCAAAGAAAAAAGUAAGUGCAAAGCUCAAGAAAAAAACAAAGUCAAAAAAAAAAUCCAAAAAGGGGACAAAAUCUCAAGCAUGCAAAAAAAAAAAGCAAGCAAAAAAAAAGAAGUAAAAGAGAGUCAAAAAGAAAAAAAGCAAAAAGUCUCCAACAAUAAAGUCUCUCCAAAAAAAGGAGCAAGCGAAAAAAGAAAAAAACAUCCCUAAGCA'
p273
aF0.9642857142857143
aa(lp274
S'Mutated chicken feet'
p275
aS'AAAAAAAUCACCGGUAAAGCAGCUAUGCAAAGUGAGACAGGUACUAUAAUGCAAAGCAAAUCGGUACAGCAAAGAAGUACGAAGCCGAAGCGUAAAAAAA'
p276
aF0.88
aa(lp277
S'Chicken Tracks'
p278
aS'AAAAAAAAGAGGUGCGGAGUAAUCUCCAUUGGCGAAAGCCAUACGGCUAAUGCCGGUACUUCAAGUAAGCUAAGAAGAAAGUAAUAUUAGCAGGGUUAAAGACCUACGAAAAAAAA'
p279
aF0.9827586206896551
aa(lp280
S'Looking Back Again'
p281
aS'GGCGUGGCGGGCAAAAAGAGGGAGAAUUCUCUACUCCAAGUCGUAAAGGCAAAGUAUGCAGGUGCAAAGGGGAAAGCUUCAAAAGUCUCAAGACAAGUCAAGGCGUGCAAAAAGGGGCAAAAGUCUCAAAAAAGCAGGGUGGGCCCAAAGGCUCGGGGGAAGCUUCCGGGGGUUCAAGAACAACGAGGAGAAGUGUAAAGGUACAACACAAGGAACAGGCGCAAAAGUCAAGUGUCCAAACUCCCCGCCGGGGGCAGGGCAAAAAAGGUUGGGAAAAAAAGGGCUAAAAAAGCUCGCAAAAGUCGGACCGGGCAAAAAACCGGGUGGGAAAUUAUCCAAGAGGGUAACCAGAAGCAAAGUUUCAACCCCGAAAAGUCCGUCCCAAAGUC'
p282
aF0.8483290488431876
aa(lp283
S'Multilooping 6'
p284
aS'AACUUAUCUUUGGUCGAAAGACAGCCGACGAAAGUUGGGGUUUCGGGAGGACACUCCCGGUGCGAAAGCGCCCGAAUAGUGA'
p285
aF0.9146341463414634
aa(lp286
S'Cesspool'
p287
aS'GAAGAAUGAAAAAAGCGAGGAGUGGCAAACGCAUCAACAACUCAAGAAAAAAAUAGCAUAAGAAAACAAAAAAAGGAAAACAACAACAAGAAGGGGAAAACAAGGCUAGAUGGACAAAGUCAGAAAAAUAUCAAGAAAAAAAUAACAGAAUGAAAGAACAAAAGGAAAACAACAACAAUCAAGAAGAAAACAAGGGAAGAGGCGCAAAGUGAACAACAACUCAAGAAAAAAAUAACACAGCGAAAGAAGAAAAGGAAAACAACAAGGAAACGAGAAGAAAACAAGGCAAGAGUCUCAAAGGGAUCAACAAGACGAGAAAAAAAUAAUAGAAGGAAACAACAAAAGAAAAAUAACAAGU'
p288
aF0.7849162011173184
aa(lp289
S'Hoglafractal'
p290
aS'AAGAUGAAGGGGGAAAAUGGGCAAAAAAGUCUAUUCCCUGGCCAAGGUCAAAAAGACUCCCGAGCAAGGCAAAAGUCGUCACUCAAAGGGCAAAGGGAGCAAAAUUCUGCCCGGCAAGGCAAAAAGUCGUCGGAGCAAAAGCUAUAUAAGAAAUACAAGUCAAAAAAGGCGAAGUAGCAAAAACCGCGGCGAAAGUCAUUGUCAAAAAGCAGCAAAAAAGCGCGGCAAAAAGUUGCAAAAGCGGGGGCGUAAAAAGGCAAAAAAGUCGCAAAAAGCAAGGGCGGGUGAAGUCUGUCAAAAAAUCGUCUCAAAAAAGACGAAAAAAUUAUUAAAGAGAAACGAACAAAGAGCAGAGGAAAACGAAAGCAGUAAACGCGGAGGCAAGGCCUCCACCUAGCAC'
p291
aF0.9
aa(lp292
S'Bullseye'
p293
aS'AAGAGCGGGUUGUAUACAGUAGAAAACGUGAAGGGGAAAUUCCGUUAAAAAAAAGGCGGCAGAAUGUCAACCGCGAAGCGGAAGCUCAAAUGCCGUUAAAAAAAGCUGUGGUAAAGUUCAAGGUCUAUAUCCGAGGUCUAUGACCGAGAAAAAAAGAAGGUGUGAAGCAUAAGUUAUAUGAACCAGAGCUAUAUUCUUUAAA'
p294
aF0.801980198019802
aa(lp295
S'Shooting Star'
p296
aS'UUUGGCGGGCGGGGGUCAAAUAGGAGGAGUCACGUAGGAAAACACACAGGGCUCACGACGAAGGUCCCCAGGGGGAAGCAGAGGUGGCAUAGGAAGUCACGGCAGGAAAACAAGUCCGGUCCACUCACGCCUCACAAUCGACGAAAACAACUAGGUGCGGAGCAAGGUGUCAGGGGCAAAGUCCCGAGAAAACUCAGUACAGACCAGCAAAGUACCAAGGAAGGCAAAGUCUUUAAUUGUCAAAGACGGGUGCGUUAGGGUAUGCCGAACAGGCGCAAACUCUCCAGCAGGGAAUGAAAAGAAGAUGUAGUAUGCUGGGGCAGGAAAACAAGUCACAGCUCAUCAUCUCACCCUCCAGUCGAGA'
p297
aF0.7912087912087912
aa(lp298
S'Teslagon'
p299
aS'AAAAAGGUAAAAAAAGCACCAAAAAAAUCAAGAAAAAAAAAAAAAAACUAAAAAAAAGACAAAAAAAAAAAAAAAGUAGCAAAAAAAGCACGAAAAAAAACAAAAAAAAAAAAAAGCCAAAAAAGGUAGGAAAAAAAAGAAUAAAAAAAAAAAAAAAGUAAAAAAAAGGCAAAAAAAAAAAAAAAGCAUCAAAAAAAUCAGCAAAAAAAGCUAAAAAAAAAAAAUUGCAAAAAAAGGAGCAAAAAAAGCACAGAAAAAAAAAAAAAAUGAAAAAAAAGGCAAAAAAAAAAAAAAAGAGCCAAAAAAAACUGCAAAAAAAUCAAAAAAAAAAAAUUAAAAAAAAAAAAAAAGAAGAGAAAAAAGUUCCAAAAAAAGCAAAAAA'
p300
aF0.8848167539267016
aa.