(lp0
(lp1
S'Simple Hairpin'
p2
aS'GAUACAAAAAAGUAUC'
p3
aF1.0
aa(lp4
S'Arabidopsis Thaliana 6 RNA - Difficulty Level 0'
p5
aS'GCGAUGCAAAAGAGAAAAAAAAAAACUCCGCGCGCGUAGAUAUAUAUUAUAUAUAUUAAAGAUACAAAAAAGUAUCAGAUAUACUAUGGUAUAUAUCGUCGCGCGCGAAGCAUCGC'
p6
aF1.0
aa(lp7
S'Prion Pseudoknot - Difficulty Level 0'
p8
aS'GAGCACAGAUCAAAAGAUCGUGACUCAAAAAAAAAA'
p9
aF1.0
aa(lp10
S'Human Integrated Adenovirus - Difficulty Level 0'
p11
aS'AAAAGAUAGGAUUAGGCUAUAUAAAAAAAAAGGCGCGUCGGUUGGAGCCCUAAAAUCAGAAGCGAUGGAUGUUGGAAAAAAACAAUAUCCAUAAAACGCGAUUUAAAAUAGUGGGAAUUCGCGAAAGCUAACAAAAAAAGUUAGCGAGCAAAAAAAAAAAUUAUAGCAUAAUAAAAUCUGUCAAAUUUUAAA'
p12
aF0.9791666666666666
aa(lp13
S'The Gammaretrovirus Signal - Difficulty Level 0'
p14
aS'ACGUCUUGCUGCCGAAAGGUAGCUUGUCAAAAAGGUGCAAGGCAGAGAUAGUGAAAACGCUAAAAAUUUCGCCGUACAAGCGGUGACAAAAGUCACCGCAA'
p15
aF1.0
aa(lp16
S'Saccharomyces Cerevisiae - Difficulty Level 0'
p17
aS'GCGCUGCCGAAUAAAAAAUUUCGAAGAAAAAAAAAAAAAAAUUAAAAGAUCCGAAAAAAGGAUCGCAGCGCAAAAACGAGGGAAGAUCAAAAAAAAGAUCCCGGAAAAAAAAAAAACGGAAAAGAUUCAAAAAAAGGAUCCCUUCGUGAAUGCUAGGGAAGCUCAAAAAAAAGGGCCGCGGCGAAAAAAGUCGCGAAAAGCUAGAAAAAAAUUAGCCCUUGGCUAAAGGGAUGGAAGAUGUAAAAAAUCAUCCCACCCAAAAAAAGGGUGGAAAAGAUACAAAAAAAGUAUCCUAUCCCAAAAGCGAGGUAAGAUCAAAAAAAAGAUCCAAGCCAAAAAAAGGCUUGAAAAUAUACUAAAAAUGUAUAGCUUCGUGAAA'
p18
aF0.9894459102902374
aa(lp19
S'Fractal 2'
p20
aS'AAAAAGCGAUGGCAAAGAGGAUGUUCUAGAACAAAAAAAAAAGUUCAAGUGCAAAAAAAAAAGCGCAAGUUCAAAAAAAAAAGAACAUGAACAUCCUCAAGGACGAUGAUCAAGAGUAAAAAAAAAAACUCAAGAGCUAAAAAAAAUGCUCAAGUUCAAAAAAAAAAGAACAAGAUCAUCGUCAAAGAUGGGGAUCAAGAGCAAAAAAAAAAGCUCAAUAGUGAAAAAAAAAACUAAAGAUCAAAAAAAAAAGAUCAAGAUCCUCAUCAAAGCCAUCGCAAAAA'
p21
aF1.0
aa(lp22
S'G-C Placement'
p23
aS'GAUCAAAGAUCA'
p24
aF1.0
aa(lp25
S'The Sun'
p26
aS'GGCCACGAUUUAAAGAGUAACGAGUCAAACUCAGAGCGCUAAAGGCGAACGCGAGAAGGAAAGCGCGCUAAGCGCUAACGCCUUAAACUCAGCGCGCCAAAUCCGAACGCUAGAAAUUCAGCGCUCCGAAUUGGAAUGCGGGAAACUCAAGGCGCCAAGGGCGAACCUGAGGAACUCAGCUCGCGAAAUCCGAAGGAAAGAAGGUCAUCUCAGGUAUCCCGAAAGAGACAAACUCAGCCCGCUGAAGGUGAAGGGGAG'
p27
aF0.8565891472868217
aa(lp28
S'Frog Foot'
p29
aS'AAAAAAAAAAGAGCAAAAGCUUGAACGAAAGUUUCGUCAAAGACG'
p30
aF1.0
aa(lp31
S'InfoRNA test 16'
p32
aS'GCUAUGGGCGCGCGCAAAAGCGCGACGACGCAUAGC'
p33
aF1.0
aa(lp34
S'Mat - Martian 2'
p35
aS'GAUCAAAAGAUCAAAGCGAUGCAAGCGAUGCAAAAAAAGCAUCGCGCAUCGCAAAGCAGAGUCAAAAAAGCGAUGCAGCGAUGCAAAAAAAGCAUCGCGCAUCGCAAAGAUAUACCAUAUACAAAAAAAGUAUAUGAGUAUAUCAAAAAAGACUCUGCAAAGAAUAUGAUAUAUCAAAAAAAGAUAUAUAACAUAUUCAAAAUAGUAAUCUAU'
p36
aF1.0
aa(lp37
S'square'
p38
aS'GCGAUGCCGGGCCCGAGCACCGAGCCAAAGGCUCGAAAAGUGCUCGAAAAGGCCCGAAAAGCAUCGC'
p39
aF1.0
aa(lp40
S'Six legd turtle 2'
p41
aS'AAAAAACAAAGGAAAAACAAAAUGAAAGUAAGACAAAAGUAAAUAAAAGGAAAAUAGAAAUAAAAUCGAAAGGGAGGGGGAAAAAAAAAAAAAAAAAA'
p42
aF0.9591836734693877
aa(lp43
S'Small and Easy 6'
p44
aS'GGCGCAAAAAGCAACGGAAAAAAAACGGCC'
p45
aF1.0
aa(lp46
S'Fractile'
p47
aS'AAAAAAAAAAAAUUAAAGGAAAUUUAAAAAGAAAAUAGUCAAUCGUAAUACUAAGAAUGAAAAAUAUAACGUGGUAAAGUCAAAAAAAAAAAAAAAAAAAAAAAA'
p48
aF0.9619047619047619
aa(lp49
S'Six legd Turtle'
p50
aS'AAAAUUCAAAGUUAAAAAAAAAAGUAAAACCAAAAUUAAAGGGGAAAGGAAAGUCAAAGCGGAAACAAAAAGUAAAAGCAAAAGUUAAAAAAAAAAAAAAAAAAA'
p51
aF0.9619047619047619
aa(lp52
S'snoRNA SNORD64'
p53
aS'GCUAUGAAAAAGACAAAAGACAAAGAUACAAAAAAAAAAAAAGUAUCGAAAGUCAAGUCAAUAUAGC'
p54
aF1.0
aa(lp55
S'Chalk Outline'
p56
aS'AAAAAGCUCAGAGAGAAAACUACUCAGUCAGACAAAAGUCGACGCCUUACUAAUGUAGAGGAGCACCAAAAGGUAGCGGGCGAAGAAAAAAAAAAAAAAAAAAA'
p57
aF1.0
aa(lp58
S'InfoRNA bulge test 9'
p59
aS'GCGAUGCAGCGAGUGCGAUGCGAAAGCAUCGCCCCGCAUCGC'
p60
aF1.0
aa(lp61
S'Tilted Russian Cross'
p62
aS'AAAAGAUCCCCAGGAAACUGGCUAGAUAUCGAAAGAUGGAUACAAAGGUAUCAGUUCUAAUGAACCUAGGUCCGAAAGGACGGAUAAAAAAAAAAAAAAAAAAAA'
p63
aF1.0
aa(lp64
S'This is ACTUALLY Small And Easy 6'
p65
aS'AAAAAAAAAAAAAAAAAAAAAAAAAAAAAAAAAAAAAAAAAAAAAAAAAAAAAAAAAAAAAAAAAAAAAAAAAAAAAAAAAAAAAAAAAAAAAAAAAAAAAAAAAAAAAAAAAAAAAAAAAAAAAAAAAAAAAAAAAAAAAAAAAAAAAAAAAAAAAAAAAAAAAAAAAAAAAAAAAAAAAAAAAAAAAAAAAAAAAAAAAAAAAAAAAAAAAAAAAAAAAAAAAAAAAAAAAAAAAAAAAAAAAAAAAAAAAAAAAAAAAAAAAAAAAAAAAAAAAAAAAAAAAAAAAAAAAAAAAAAAAAAAAAAAAAAAAAAAAAAAAAAAAAAAAAAAAAAAAAAAAAAAAAAAAAAAAAAAAAAAAAAAAAAAAAAAAAAAAAAAAAAAAAAAAAAAAAAAAAAA'
p66
aF1.0
aa(lp67
S'Shortie 4'
p68
aS'GCAAAAGCAGCGAAAGC'
p69
aF1.0
aa(lp70
S'Shape Test'
p71
aS'AAAAAGGGAUCAACUAGCAAAAAAAAGCUAGAAGACAUACAGAUACAAAAAGUAUCAGUAGAAAACUACAGUAGUCAAGAUCGCAAAAAAAAAAAAAAAAAAAA'
p72
aF1.0
aa(lp73
S'The Minitsry'
p74
aS'GACAAAAAGACAAAAAGUGGAAAGGAGAAAAAGACAAAAAAAAGUCACUCACGCGGUCGGUC'
p75
aF1.0
aa(lp76
S'stickshift'
p77
aS'AAGCCAUCCCAAAAAGGAGAUGGCGA'
p78
aF1.0
aa(lp79
S'U'
p80
aS'AAAAAGAUACAGAGAGCAGAGCGAUGAUCAAAAGAUCAUCGCCGCCCGUAUCAAAAA'
p81
aF1.0
aa(lp82
S'Still Life (Sunflower In A Vase)'
p83
aS'AAAGGGCGACGAAUGAAAAGUUUGAACUAAUAAGAUUAGAGGAAGCAAAAAGGCUGAACAAGGGAACGUUGAACUGUCAAAAAGACGGAACUGACAAAAGCUUAGGGAUAUAUUGAAUUUAUAUUUUACCUAGGAAAAAGUCUAGAGAUACAAAAAAAAAAAAAAAUCAAAAAAAAAAAAAAAAAAAAAAAAAAAAAAAAAAAAAACCGGAUUGAAAAAAAAAAAAGUAUCUUGUCAAAAGACAAAGUAGGGUAUAAAUUUGAUAUAUCAAGAUACAAAAAGUAUCAAAAAACAAAAAGGUCUAGCGUGCGAAAAUAAUGAGCUAGCGAAAAGCUAGAACUUGAAAAGGCUAGAAUUAGCAAACAACAAAAGUUCAAA'
p84
aF0.9735449735449735
aa(lp85
S'Quasispecies 2-2 Loop Challenge'
p86
aS'AAAAUCCCUGGUGGUCAAAGAAUUUUGUACAUUAGAGCAUAAAGCUAGCUCAAUGUUUCAGCAGACAAGCUGAGGCUGUGUGGGGUAAAAAAAAAAAAAAAAAAA'
p87
aF0.9809523809523809
aa(lp88
S'Corner bulge training'
p89
aS'AGCUAUCCUAGCAAAGCUAGAAAAGAUAGCA'
p90
aF1.0
aa(lp91
S'Spiral'
p92
aS'AAAAAGAUCAGCUAUCAGACAGAUACAGAUCAGAUCAGCAGCAGCAGCAGCAGCAAAAAGCGCGCGCGCGCGAUCGAUCGUAUCGUCGAUAGCGAUCAAAAA'
p93
aF1.0
aa(lp94
S'InfoRNA bulge test'
p95
aS'AAAAAAAAAAAAAAAAAAAAAAAAAAAAAGAACGAAAAUGGCUGAAAGGGCAAGGAACUUUCGCAGGGGAAAAGCCACUAGUAGAUUGUAUCAAAGUACCGAAAAAGACCUAAAAAGUAUCG'
p96
aF1.0
aa(lp97
S'Worm 1'
p98
aS'AAAAAAAAUAGGAUAAGAAGACAGAAAACGGUAUUAGAAGAGUUG'
p99
aF0.9111111111111111
aa(lp100
S'just down to 1 bulge'
p101
aS'AAAAAGACCAGAUGCAAAAGUAUCAGACAAAAGUCAGGAUCAAAAGAUCAGACAAAAGUCAGACAAAAGUCAGAUCAAAAAAAAAAAAAAAAAAAA'
p102
aF1.0
aa(lp103
S'Iron Cross'
p104
aS'GGACAGACAAAGCCACUCAAAGAGAGACGAAAGUCAGGCAAAGGCACUCAAAAGAGAGAGGAACUCAGCCAAAGGCACUCAAAAGAGAGACAAAGUCAGCCAAAGUCACUGAAAUAGAGUCAA'
p105
aF1.0
aa(lp106
S'loops and stems'
p107
aS'AAAAAGCGAUGCAAAGAUGAAAGAUCAAACGAGAAAAAAAAAGAUACAAAAAAAAAAAAGUAUCAAACUCGAAAAGAGCAAAAAAAAAAGCUCAAAGAUCAAAGACAAAAAAAAGUCAAACAUCAAUCAAAAAAGAAAAGCAUCGCAAAAA'
p108
aF1.0
aa(lp109
S'Water Strider'
p110
aS'AAAAUGUAGGUAGGACGUGAGAAAAGUAGGAAAAGGUCGAGACCGUGAAUGUGAAAACAGAGUAAUCUCCUUUUGAUUUGGCUAAAAAAAAAAAAAAAAAAAA'
p111
aF0.9029126213592233
aa(lp112
S'The Turtle(s) Move(s)'
p113
aS'AAAGCGAAAGCAGAACGGAUAAACAAAAAAAAAGUUUAUCCGAAAAGAUCAAAAAGAUCAAAAACUCAAAAGAGAAACUAGCAAAAAAAGCUAGAAAACCCAAACCAAAAGGAAAAACGUAAAAACGAAAACGAGCUAAAAAAAGGCUCGAAAACUCAAAAGAGAAAAACGACCGGAAAGACAAAAAAAGUCAACUCGAAAAAAAGAGGAACUAGCAAAAAAGCUAGAAGCUAGAAAAACUAGAACGGUCGAAAAAAAAAGCGAAAGCAAAAAGCUAAUGCAAAAAACCAGCAAAAAAAAAAGCUGGAAAAAAGGG'
p114
aF1.0
aa(lp115
S'Adenine'
p116
aS'GAUACAGCUAUCAGCUAUCAGCUAUCAGCUAUGAGCUAUCAAAAGCUAUCAAAAAAGAUAGCAGAUAGCAGAUACAAAGCGAUGCAAAGCAUCGCGUAUCACAUAGCAGAUAGCAUAUACAAAGUAUAUGAAACUAUCAGAUAGCAAAAGAUAGCAAAAGAUAGCAAAAGUAUC'
p117
aF1.0
aa(lp118
S'Tripod5'
p119
aS'AACAGGCUGUUAAAUAUAGACAUGAAAAAUGUCCUGGA'
p120
aF1.0
aa(lp121
S'Shortie 6'
p122
aS'UCGAAAGGAGGAAAACCAGCAAAAGCAGCGAAAGC'
p123
aF1.0
aa(lp124
S'Runner'
p125
aS'AAAAACUUCAGUAGGAAAAUAUAGAAUAUAAGUUCAAAGUGGCGGUGUGGAACGCAAAAAUCCGAGUGAAGAAAAAGGUAUACAAACAGAAGGCCAAAAGGUACUGAGAAGGAAAA'
p126
aF0.9482758620689655
aa(lp127
S'Recoil'
p128
aS'AAAAAGAUACAAGCAAGCAAGACAAGACAAGCAAGCAAAGCAGCAGUCAGUCAGCAGCAGUAUCAAAAAAAAAAAAAAAAAAAAA'
p129
aF1.0
aa(lp130
S'[CloudBeta] An Arm and a Leg 1.0'
p131
aS'AAAAAGACAGAGCCAAAAGGACUCGUCAGCAAAAGCGACAGUCAAAAAAGAAAAAAAAAAAAA'
p132
aF1.0
aa(lp133
S'[CloudBeta] 5 Adjacent Stack Multi-Branch Loop'
p134
aS'UAUCCCAUCGAAAGAUGUCUUGAAAUCAAGAACUUCUAAUGAAGUCCCGUAAUUGGGGGAUAA'
p135
aF1.0
aa(lp136
S'Triple Y'
p137
aS'AAAAUCCUCCUGCCGAUGAAAAUUGACACGAAAGUGUGCGGGCCCCAAGGAAACUUGCGCAAAAAUGCGGGGCGAGGUAAAAAAAAAAAAAAAAAAA'
p138
aF1.0
aa(lp139
S'Misfolded Aptamer'
p140
aS'GCUCUAAAAGCCCUCAAAGAGAGCAAAAGCAAAAAAAAAGGAAAAUGAGC'
p141
aF1.0
aa(lp142
S'Flower power'
p143
aS'AAAAAGGCCGGAGAAACUCCGGUGCCUCGAAACGAGAAGAUGAAACAUCAAGUCCAAAGGACGCACACUGCUAUGCAGGGCCGAAAAAAAAAAAAAAAAAAA'
p144
aF1.0
aa(lp145
S'Kudzu'
p146
aS'AAAAUGUAAGAAGGGUGGAAGAAAAUAAAAUAUUGUUUCGGUCGUAAAAUAACGCAACACAAAAUGAAAGGCACAACGUGCUAAAAAAAAAAAAAAAAAAA'
p147
aF0.9603960396039604
aa(lp148
S'"1,2,3and4bulges"'
p149
aS'AAAAUGAUCUGACAGGAAACUUAUAGUCUGUCAAAGGGUAGGAUCUAAGUAACUAGGGAAAGAAACCUUUUAAAAGAAGGUUAUAAAAAAAAAAAAAAAAAAAAA'
p150
aF0.9619047619047619
aa(lp151
S'medallion'
p152
aS'GAGAUGACGAGGCAAAAGCCUCGAGAGAAAACCCAUACAAAAGCAGUGAUACAAAAGUAUCAAUUCAAAGGGGAGGCGAAAAAAUUCGCUAUACAAAAGUAAUUGAAAAGCAGUGAUACGAAAGUAUCAAUGCUAAUGUGAAGACACAAAGGUGUCUAGAUAAAAGUAGUACGAAAGUAAUGAAACAAAAGUGUCAAUUCAAAAGGAACGUUACAAAAGUAGCGAUCCAAAAGGAGUACAAAAGUAAAAAUACAAAGGUAUUUAUAGAAAAUUAUUGGUCCAAAAGGACCACUCCAAAAGGAUUAAAAAAGUAAUGAGACAAAGGUCUCAACAUCUC'
p153
aF0.8753709198813057
aa(lp154
S'[RNA] Repetitious Sequences 8/10'
p155
aS'AGGAAAAAAGCAAAAAAGCAAAAAAGCAAAAAAGUAAAAAAGCAAAAAAGUAAAAAAGCAAAAAAGCAAAAAACCAAAAA'
p156
aF1.0
aa(lp157
S'Documenting repetitious behavior'
p158
aS'AAAAAAAAGAAAAAAAAAGUAAAAAAAAAGGAAAAAAAAGGGAAAAAAAAAGUAAAAAAAAAGGAAAAAAAAGGAUAAAAAAAAUGAAAAAAAAGGGUAAAAAAAAGGGAAAAAAAAAAAAAAAAAAAAUAAAAAAAAGUCAAAAAAAAUUCUAAAAAAAAGUAAAAAAAAGUAUAAAAAAAAUUGAAAAAAAAAAAAAAAAAAAUUAAAAAAAAAAAAAAAAAAAUUAAAAAAAAAAACAAAAAAAAAGAUAAAAAAAAGAAAAAAAAAAGUAAAAAAAAAGUAAAAAAAAAGCGAAAAAAAACCAAAAAAAAAUCUAAAAAAAUUCAAAAAAAAGUAAAAAAAAAAGGAAAAAAAAAUCAAAAAAAAAUCGGAAAAAGGACAAAAAAAAAUCAAAAAA'
p159
aF0.8825
aa(lp160
S'7 multiloop'
p161
aS'GUGGGAGCUAAAGAGCUCGGUAGAAAGCUGCCCUCGCGAAAGCGGGCUGCCUAAUGGCAGGCACCUAAUGGUGUUCGAUGAAAGUCGACCAC'
p162
aF1.0
aa(lp163
S'Kyurem 7'
p164
aS'AAAAAUGGACGACACAAAGUAGGUCAAAAGGCCGCUAUAAAUCAGAAUCUAGGAAAAAAGAAACGAUGGUCGCGUCGUUCUGGAAAAAAAAAAAAAAAAAAA'
p165
aF0.9803921568627451
aa(lp166
S'JF1'
p167
aS'AUAACAGCAUAACUAGCAAGAUACAAAAGCUAUCAAGAUACAAAGAGACAAGAUAUCACUAGUAUAAUAUACAAAAGUAUAUUAUACUAGAAGACAAAAGUCACGCGCGCGCAAAAGCGCGCGCGAAGUAGCAAAAGCUACAGAUAUCAGUCUCAGUAUCAGAUAGCAAAGCGAGCACAAAAAGUGACUCGCAGGAUAUAUAUAUCAUAUAUAUUAUCAAAAGAUAAUAUAUAUGAUUAUAUAUAUCAAAGAUACAAAAAAGUAUCCUGAAUAUACAAAAGUAUAUUCAGAAACUAGAAAACUAGAAGUAUCAAGCUAGAGAUCAGACAGACAAAAGUCGUCGAUCAUCGGCUAUCAAAAGAUAGACCGGAUAUGACUGAUUAUAAA'
p168
aF1.0
aa(lp169
S'multilooping fun'
p170
aS'UGACAUGAGUUAUUGCAACGGGCUGCAAGAAAUGUG'
p171
aF0.8333333333333334
aa(lp172
S'Multiloop...'
p173
aS'GAUGAGAUGAAAUAAAAGUUGGACUAAUGUCUUGCUAAUCUAUUACUAAGGCAUUCUAAAAAGAUACCGAAUGAUGCAUCAAAGGCAAAAAAGCUUUGAUGAAAGUCUAUC'
p174
aF0.9459459459459459
aa(lp175
S'hard Y'
p176
aS'AAAAAGAUCACAGCACUGCCUAAUGGCAGUGACGUGGCGAGGAGCUAAUGCUCCUCGUCGAUCAAAAA'
p177
aF0.9705882352941176
aa(lp178
S'Mat - Elements & Sections'
p179
aS'AAAAAGAUCGGAAAAUGAGGCGGAAUAAUCUGAUCAAGGAUCAAAAGAUAGCAAUUACUGGAUUUGAUUGCCUCUGAAACGGAUCGAAAAAAAAAAAAAAAAAAA'
p180
aF0.9619047619047619
aa(lp181
S'Chicken feet'
p182
aS'AAAAAGCAAGUGUAAAGCACCAAUUCAAUUUGCGGCAGGAGGUAUGCAGAAAAUCGAGCGCCAAAAA'
p183
aF0.8507462686567164
aa(lp184
S'Bug 18'
p185
aS'ACUACUAACGGUAUGAGGAAGCCAAAGGAAUGAUCUGCAUAUGAAGAAAAAGA'
p186
aF0.8490566037735849
aa(lp187
S'Fractal star x5'
p188
aS'AAAAAUGGGAUCGAAGCUCGAAAGAGCAACAAGAAAACUUGGACUAUAAAAAUAGAACUACAAAAGUAGGACGGUCCCGAAAAAAGCGCGCGAAGGUCAAAAGAUCAAAUAGAAAACUAUAGCUAUAAAAGUAGAAGACUAAAAAGUCAAUGUGCGCUAAAAACGCGCGCGAAUAUCAAAGGAUGAACUAGGAAACUAGAAUUGGGAAACUAAAACGAGAAAGCUUGAACGCGUGCGAAAAGCCCGCGCGAAGAUCGAAAGAUUAAUAAGGAAACUUAAACUAGAAAACUGGGUCUACAAAAGUAGUGCGCGCGGGAAAAAGGAGCGCCAAGAAUAAAGGUUCAAAUCUAAAAAGAUAACUCGAAAACGAGAUGGAUAAAAGUCCCAGGCGCUCCAAAAA'
p189
aF1.0
aa(lp190
S'Crop circle 2'
p191
aS'UUCAGAUAAAACUUCAAAUGAAAAAAAAAGCAAAAAAAAAAAAAAAAAAAAAAAAAAAAAACCAAAAAAAAAAAAAAGCCAAAAAAAACGAGAAAAAAGUAAAAGGAAAA'
p192
aF0.9636363636363636
aa(lp193
S'Branching Loop'
p194
aS'UUAGACAAAAAAAGCUGGGCAAAUACGAAGCUAUAAAAAA'
p195
aF0.95
aa(lp196
S'Bug 38'
p197
aS'AGAUGCGCGCAUGAUAUAGAUAUCAAACUCAAUGCA'
p198
aF0.9444444444444444
aa(lp199
S'Simple Single Bond'
p200
aS'AAAAAAGGAAAAAAAUACUCGAAAAGAGUUAAAAAAAACAAAAAAAAAAAAAAAAAAAAAA'
p201
aF1.0
aa(lp202
S'Taraxacum officinale'
p203
aS'CUGCAAAAGAUAGAGAGCAAAUGAUAUGCUGCAAAAUACAGAGUUGAAAAUAAACAGUGGGAAAUAUACAAGGCGAAAGACCUAGGUAUACUAGCCUAGCACGAUCAAAGAUUAGUGCUAGAAAUACAACUGGUAUAAUAUGGCAUGCAAAGCAUGUCUGUUAUACCAGGAUGUGCUAUCUAUGAUAGCUGUCGUAUUCAAGUUAGUAUACCGGACCAAAAGAGUCAGAGCAAAAGACAUGCUGCGAAAAACAGUCUAAAUAAUAUAGUCUUUAAACGUCAG'
p204
aF0.900709219858156
aa(lp205
S'Headless Bug on Windshield'
p206
aS'AGCAAGAAAAAUCAGAUAAGGUAUCAAAAGAAAAAAAAAAAAAAAAAAAAGGCUCCGAUUUUAGGAAACAGGCAGACAAUGCACAAUAAAAAAGCAAAAGCAAAAAAUUUUCCAAAAAUACUAGACCCAAAAAAAUAAAAGUAUGACAUGCAUAGUAAAAAAAAAAAAAUCUCAGGCCGCUCUAACUUUAAAGUAACACA'
p207
aF0.96
aa(lp208
S'Pokeball'
p209
aS'AAAACGAUGCAAAAGCGAGCAAGGCCAGGGGGUAAGGAGGGUUCGAAGCAAAGCACGGUCCGCCAACUACCAGCCGGCAGCGCAUCGUAAAAAAAAGCGCUCCAAAACCGAGCAAGACAAGGGGAACUGGAAGGGAGGAAGCAAAGCACCGACCACCUUUAACCGGUCAGCAGGGGAGCGCAAA'
p210
aF1.0
aa(lp211
S'Variation of a crop circle'
p212
aS'AAACUGAAAUGUUCAAGGGAAAAGAAUGAACUUAUAGGGCAAAAAGUGAAAAAUUGAAAAAUGCAAAAAAAAGUAAAAAAAAAAAAAA'
p213
aF0.9318181818181818
aa(lp214
S'Loop next to a Multiloop'
p215
aS'AAGGGAUGAUUAAAAAACGGGUAUGAAAGUAUAUCACCGAUGCAAAAGCAUCGGAGGAAAAAUAUCAUCUCAA'
p216
aF1.0
aa(lp217
S'Snowflake 4'
p218
aS'UACUGAAGAUGCGAUCGCAAAAGGUUGUUAAGAUGCGGAAAGCACUAGAGAUCAAGGAUCAAUUACAAGGUAAUUUAGAAUAAUCGGUAGCAGGAUACCAAAAUUGUGAGCUAUCAAAGGUAAAAUGCAAGGUAGGCUCACCAAGGGGCUGUCAAUGGACCCAAAAGGGAGUUUAGCUAUGCUACACUAGAAACUAGAACUCCCGAAAGGGUUCGAAGGUUCCCAAACAGCGAUGUAGCAAAGCUAAAUUCCAAGGGAGCAUCGCCAAAGGGGGAUCAGAAAGCGUAAAAGCGUCGGGGUCAAAUAUCAACUGCAAAGCAGUCCAUCUUAAUAAGCAUUAAAGCAGGCAAAGGCGAUCGGUCCGAAGGGC'
p219
aF0.8297297297297297
aa(lp220
S'Mat - Cuboid'
p221
aS'GAAACAAAAGUAAGCAAAGGCAAGCAAAAGAAGCAAGGAUAAGCAAGCAAGCAUAAGUGGCAAAUCUACCAAAGCAAGUAAGCAAGCAAAAACAAGUAAUCAGGAACCCAAAUACUAAGAAGUCACCAUCAAAAAGCUGGCUGGUGGUCGAGCCUGCAAAAGCAGGGGGACCUGCUUUCAAGGAAAAGCUUGCUGGCUCCCAAGCAGGGAAAAAAUCAUCCGGGGUUGCAGGUCCUCGCGUGGUUGCGUAUUACCAAGUGCUGGCGAGGAUACAUGCCUGCUCUGGAGAGCGGCUGCGUGCGGGCGAGAGAGCAAGUGAAAGCAAGCAAGCGGUAGCGAGCAUUGGAAACAAGCUCAAUUAACCAAAGUGCGAAGGGAAC'
p222
aF0.6789473684210526
aa(lp223
S'Misfolded Aptamer 6'
p224
aS'AAAAAAGAGAAAAAAGAUCAUCAAAAAACAAAAAAAAGUUGAAGGUAAAGGAUCGAAAAAGCUCAAAAAAAAAAA'
p225
aF1.0
aa(lp226
S'Snowflake 3'
p227
aS'GAGCCAAAAGGUGAUCUUGAAAAAGAAGAUCAGAGCAAGACAAAAGUCCCCACCAAAGGGCUCAAAGAGCCAAAAGGAGGGCCAAAAAUGGAAGUUCAGAUCAAGGCAAAGGUCCUCACCAAAGGUCCCGAAAGGCGAAAACGAGAUCUAAAAAGAGAAGAUCAGAUCAAGACAAAAGUCCUCACCAAAACCCUCAAAGAGCCAAAAGGAGAGCGUAAAAGAGAAGAUCAUAUCAAGAUUAAGGUCCUCUCUAAAAGGCUCAAAGAGCCAAAAGGUGAGCUCAAAAGAGAAGUUAAGCUCGAGACAAAAGUCCUCACCAAAGGGCUUAAAAAGCCGAAAGGAGAGUUCAAAAGAGAAGAGCAGACCAAGACAAAAGUCGUCUCCAAAAGGCUC'
p228
aF0.8524173027989822
aa(lp229
S'Hard Y and a bit more'
p230
aS'AAAAAUACCUCCAGGUACGAAAGUAUAUGGCUAUCAGCUAGGUCUAAUGAUCGAAGGACGAAAAAGUCUUGUGUGGAUAGAGGUGAAAAAAAAAAAAAAAAAAAAA'
p231
aF0.9716981132075472
aa(lp232
S'Mat - Lot 2-2 B'
p233
aS'GGAACAUGGCUCCUACAAGAGCUUUGUUGAAAAAAUCAUAUUGCGUUUGUAUAAACAUUGGUUCGCAAGUUUGGCCGUCAAAGAGCUAGAUGUAGCAAAACUGAUGGGGCGUUGAAAAUCGUCCUCUUGGCGUCGCAACCUAAUGCGUUUGACCUGGCAAAAUUUUCACGAAAAUGAAAAUCUUGCGCACGCAAAAUCUUACGCUUGCUACUUUGACCUUGGAACAGAUUGCCCUGGCAAAAGUAAAAACGCGUGAAAAAGCUAUACCUUGGGCGGGAUACAAC'
p234
aF0.7535211267605634
aa(lp235
S'Shapes and Energy'
p236
aS'AAAAAUGGUAACACAGGGAAAUUAGAAUUAAAAAGUGGAACAAAACUUGAAUAAAAAAAAAUCAAAGGAUUGAGGUUGGCUAAAAAAAAAAAAAAAAAAAA'
p237
aF0.9603960396039604
aa(lp238
S"Spiral of 5's"
p239
aS'AAAAAGAUACAAGUAUAGAAAGAGAGAAAUGAUACAAAGAUAGAAAGAUAGGGGGUACAAAAGGUACAAAGAUAGUAAGAUAGAAGAUACAAACAUAGAAGCAUAGAAGAUACUAGGAGAUAGGGUACAAGAUUCGAGAUUCUAGGGCCAGAUGCAGUGGGUUAUCGAAAAGAUAAGCGGUCCUACAAAAAGCAUCGAAAAGGCUCCAAAUGAAUCAAAAAGGAUCAAAAAGUAUCAAAAGGUCUCAAAAUGUAUCAAAAACUGUGAAAAACUAUGGAAAAGUAUCGAAAACUAUCGAAAUUUAUCAAAAAGUACCAAAAAGUAUCAAAAACUAUCAAAAAUUGUCAAAAAGUAUCUAAAACUUUCAAAAGCUGUGAAAAAGUAUCAAAAAUAAAAA'
p240
aF0.9949622166246851
aa(lp241
S'Campfire'
p242
aS'ACAAGAUCAAGAUUGACGAUCGAGUUCGAAAAGAGUAAGAUCAAGGAUACAUGAUCGGUCGGAACACUAGACCAGAAAUGAGUCGGUGUUGACAAACCCAGCGAAAGCGGACGAGUAGCCGAAAGGACAACUCAAGUACAACCGAGCGUAAUGCUCGGACAGACAGAGCAAAGGAUCGUCGUCGUCAUUCUAAUGGAAAAAGACAGAAGAUC'
p243
aF0.9009433962264151
aa(lp244
S'Anemone'
p245
aS'AAAUCGGACUAAUGUUCGGGAAUCUAAUGAUUCGGGCCAAAAGGGCACUGAAACAAAGGUUUCGUGCUAAAAGUAGUGCAAUUGAAAGUAGGCGAGAAGGAACUCUCGAAAUCUAAUGAUGUCACUUCUGAAAAGAAGUCUGGCCAAGGUCAGAGAUGUAAAAGCAUCUCUAACUAAUGUUAGAACUACGCCGGUAUUGAGUAUAAAGGUACUC'
p246
aF0.9579439252336449
aa(lp247
S'Fractal 3'
p248
aS'AAAAGGGUCACUAACCAAAAGCGCUAAUCCAUAUAGAAAGCUAAUGUGGGAAAUCAUACAGACAGCAAAGACGAAAAAUUAGUCAGGGACCAAAUGCGCAAAAGUAUCUAGGUCAAAAA'
p249
aF0.9411764705882353
aa(lp250
S'Kyurem 5'
p251
aS'AAAAGAGGAUCCAGCAAAAUAGGUGAAAAAGACCUAGAAAUUCGAAAAGAGCUAGCAAGAAAAAAAGAAUCAUGUGCGAUUCGUAAAAAAAAAAAAAAAAAAAA'
p252
aF0.9423076923076923
aa(lp253
S'Snowflake Necklace ( or v2.0 )'
p254
aS'GAUAGCUAUUAUAUCAGAUUCAGCAAAAAGCAUUGAAAAAAAUCAAAAAGAAUCAAAAAGAAUCAAAAAGAAGAAACAGCCAAAAAGGCACUAGCAGCAAAAAGCAUCGAAAAGAAUCAAAAAGAAUCAAAAAGAACCAAAAAGGAGCUAGAGACGAAAAGUUGUUAGCGUCAAAAAGAAUUAAAAAAAAAUUAAAUGUAUCAAAAAGAACGAAAAACGAGCUAAGUACAAAAAGUGACUAGGAGCAAAAAGCAGCAAAAAGCAGCAAAAAGCAUAAAAAAUAAUCAAAAAUAAUCUAGGGAGAAAAGCUCACUGGCUGCAAAAAGCUUCAAAAAGAAUCGAAAAAAAUCAAAAAGAAUGAAAAGGAAGCUGGAGAUAUGGUAGUUAUC'
p255
aF0.8766066838046273
aa(lp256
S'Methaqualone C16H14N2O Structural Representation'
p257
aS'AAAAAAAGGUGACUCGAGAAAUAUAAAAGUAAGAGGCUCAAAGGAGGGAGAGUCAAAAGGCAGGGAGUCAAAAGGUGCUUGAAAAAAGAGAUUCGCUCAUUCAUUCAGAAACACGAGGGUAGAAAGCGUGUAAAGCAAAGCAAAAAAAAGUGAGCAAGUCAAAAGACGACGAAAGUCUACAAAAGCCUGCAACAAAUAUCAGAAACAGUCAGAGACUCACGUGGCUAAAAGACAAAAGUCAGGCACGCAAAAGAGACUGAGAUAAAAGUCCGAGAGACAAAAGUCACUUUUAGCUGUAAUCAGCUCAAAAGAGACUCAAAAGAGCUCUGACAGAUAAAGCUACACACUAAAAAAA'
p258
aF0.856338028169014
aa(lp259
S"Cat's Toy 2"
p260
aS'AAAGAUGAUUAGCAAAGGUGUAAAAAAAAAAAAAAAAAAGGAAUCAAAUGUAAUCAGAAGUUAAUGCGAAAAAAAGAUAAAAUACCUAAUCGUAAAA'
p261
aF0.9587628865979382
aa(lp262
S'Zigzag Semicircle'
p263
aS'AAAAGGGUCUUUAUAAAAGAAACGAUGUUCAAAA'
p264
aF0.9411764705882353
aa(lp265
S'Short String 4'
p266
aS'AAAAAGGAAACGAUGUAGGAAGAAUAAGAAAGUAGGUGUAAACAUCAAUCAAAAAAGGUAAAGGAACGUGAAGUUUAAAAAAAAAAAAAAAAAAAAA'
p267
aF0.8969072164948454
aa(lp268
S'Gladius'
p269
aS'GUAAUCAAUAACCCAAAUAAGUGAAGAAAGGCAGUCAAAGGAGAAAACUUUACGAGCAAAUGACAAGAUAUCAACGGAUCAAGUGAUAUAGGAUUUUGAAGAUAAAUAUUAGCUCAAGAUCUAUGAUCAGAGACGAUGGAUAUCUACAGAGUACUAUAUCUGCAGAUCAUGAGAUAGGCAGUCUAUAGUUUGAGAUAAAGACAGUAGCAGUUUAUUUGAAAGCUGAAUGUGGGAUGAUAUACAGUAUACUGUUAUAGCUACCAGAGAGCUGUCAAAAGACAGCAAUUCACGUAGACAUAAAUGUAUGAAGUAUAUCUUAAUAUAACAUGCUUAAGAAUUCUAGGCUACAGAUGAAAGCAUCAAAGUCAGCCAAACAACGCAAGAAAGAAAAGAACAAAAG'
p270
aF0.9
aa(lp271
S'Thunderbolt'
p272
aS'CCAUGAUACAAAAAAAAGGGCAUGCGGAAAAACGAAAGAGUGAUAGCAAAAAAAAAACAAAAAAGUGGAAAAAUCACAAAAAAGUAAGGAUUGGAAAAAAAGGGAAAAAAAAACUAAGCAAGGAAAAAUAAAAGUCUAUAAAAAGCGAAAAAUUAGCUAUAUCGGCAUAAAAAACGAAGGCUGCACAAAAAAAAAUAGUAAAAGGAUAUCGAAAAAUCAAGAGUCAAAAAAAAAUAGUAAACCGCGCCAAAGGCGCGACUAGGCAUAAAAAAAAACCUAUUAAAAAAAAAGCGUCAAAAUCGCGACAAAAAGAAAAAAAGCAAAAGGUCGCGUAAUUUAAAGUUAUCACAAAAAAAAUAGCUAGCGCAAAAAGAAAAAAACAGUAUUUAGGA'
p273
aF0.9260204081632653
aa(lp274
S'Mutated chicken feet'
p275
aS'AAAAAAAUCAGGGAUAAGGGAGGAAACAAAAUGGAAACAGUGUCAAAGAAGGCAACCAAAAAUCAGCAGUUUUAAGGAAGGAAAUCAAUGCGCAAAAAAA'
p276
aF0.85
aa(lp277
S'Chicken Tracks'
p278
aS'AAAAAAAGGUGAUGCCUCUAAAGAGAGAACCUCUAAUGAGGAAGAGUGAAAACUCGCAUCGCAGGUGGCCGAAGCGGCGUGAUCAAGGAUCUAAGGCUAUGCCUCACAAAUAAAAA'
p279
aF1.0
aa(lp280
S'Looking Back Again'
p281
aS'CGCAAGACUAUCAAAAAGCUUUCGAAGAAAGCAGGUGAAGACCUACAGAUAAAGUCGGGGGAUCCAAAGUUCAAAAGAGCAAAAGGAUCAAGUCAAGGCGUGCAUUCCAAAAAGGUACAAAGGUACCGAAAAGGAAAUAACGGGUUAAAAAUAUCUAGCGAAGCGAGGCGAUCUCAUCUGGUCGUUCAAGUAUGUAAAAAUAUAGUCAGUCCUUGGUGGGUCAAAAGACAAGAUCGCAAAGUCAGGUCCUGAAAUAGUCUAAAAAAGCGGUGAAAAAAAAAUAUUAAAAAGAUAUUCUAAACGCAGUACCCAGGAAAGACCCGGGCCAAAAGGCCCGAAGGAAUAAAGAUUAUACAAAGUAUAUACCUGGGAAACUAGAUUUCGAAGCG'
p282
aF0.897172236503856
aa(lp283
S'Multilooping 6'
p284
aS'AGGAUACGAUCUAAUAAAAGUUGGGUUGGGAAACCAACAAUUCAGAACGAGCGUGUUUCUCCUUAAUAGACGUUAGUAUCAA'
p285
aF0.926829268292683
aa(lp286
S'Cesspool'
p287
aS'CUAGUAGAAAACAACAAGCUGUUGUCAAAGACAUGUAAUAGUGGUGUGGAAAACUGCUCUCUAAAGAUUGAAAAAAAAAAUAAAAUCAAGCUUAAGUAAUCAUGCAUUGACGUAUCAAGUGAGCAACUGGACUAGUUGAAAACUUCACUUUAAAAACCAAAAAACAAAAGCGAUUGAGGCAAGAAAAAAAUAUUUCUAUAGUCAGUAUUUCUGCAAAGUGAGUAGUGGAAAACUGCUCUUUAAAAACUUUAAAAAAAACUACCGGACAAGCUUCAAGAAAACAAAAGUGUGCAGGGAAACUGGGCAAAAUCUUAAGUUGAAAAUUUCACUUUACAAAUUAAAAAACAAAAGACUUUGC'
p288
aF0.664804469273743
aa(lp289
S'Hoglafractal'
p290
aS'AAGAUGUACUGGGAAAAGAUACAAAAAAGUAUCGCUAGGAGCAAAGAUCAAAAGGAUCGCUCCUCAAGAAAAAAUUCUAAAUACUAAGACCAAAGAUCAAAAAAGAUCGAACAUCAAGGGAAGAACCCGAGCUAUCGAAAGAGGUAUAGCAAAGACAAGACAAAAAAGUCGUCCAAGCAAAAAGCUGCUUAAAAGAGGGAUACAAAAAGCAGCAAAAAAGCGCAUUAAAAAAAUCUAAAAGGGGCUGAGAAAAAGGGCAAAAAAGCCGCAAAAAGAAGACGCGCGGAAACCGCGCGAAAAAAGCUCAGCAAAAAAGUAUCAAAAGCUAUUAAUGUCAGCCGGUCGAAGUCCAGUUCAAAACCUAAUGGCAAAAAUCCUAGCCAAAGGCUAGAGAACGGUC'
p291
aF0.885
aa(lp292
S'Bullseye'
p293
aS'AAACUCCUGCAAAGCAGAAGCUUAAAGAGCAAGUUAAAAGCACGAGAAAAAAAAUCCGUUAGGACGUCAAGUUGGAACAGCAAGGAAAAACAUCGUAAAAAAAAAUUUUAUGAAACAUAAAGAGUAAGGUUCAAGCACUAUGUUCGAAUAAAAAAAGUCCGUGAAAAGUGAACAACAAGGAUGGAGAGCUAUGCUCGUGGAA'
p294
aF0.8465346534653465
aa(lp295
S'Shooting Star'
p296
aS'GCUAUUCCUUGUCGCGGGAAGACGACCGAUUACCUACCGAAAGCAGGAGAAUAGAGGAGCAAUCGCGGCAGUGAUUUGAAUUUUUACCAGCCACACUCAGGACAACAACGGGGGUUACGGGGAUGGACGGUUGAUAUUUUUAGUAAUCAGUUACUUUUCUUACAAAGUAAGACGAACCAGGCUACCAGAAAAUGGAGGAACGAGGAGUAGAGAGCAAUGAACUUCAAAGAAGUUUUCUGGCGAAGCCAGGCUUACGACUCAAAGAGUUACACGACCAAGGGUCGCUGCCUAUAAGUAAUAGUUUACUUUUGGAAUCAACGCAGGAAAAGACGCGAUGAUGAAAAUUGUGCUCGUGGAGAUAGCA'
p297
aF0.8159340659340659
aa(lp298
S'Teslagon'
p299
aS'AAAAAAUGAAAAAAAUUAUGAAAAGAAGAAGAAAAAAAAAAAAAAAAUCAAAAAAAAAUAAAAAAAAAAAAAAAAUAAGCAAAAAAACCAGAAAAAAAAGUAAAAAAAAAAAAAAAACAAAAAAACCAUGUAAAGAAGAAGCAAAAAAAAAAAAAAAGCAAAAAAAAAGCAAAAAAAAAAAAAAAGAAGCAAAAAAUCAACGAAAAAAAGAAAAAAAAAAAAAAAAUCAAAAAAACCACAAAAAAAAUCAUCAAAAAAAAAAAAAAACCAAAAAAAAACAAAAAAAAAAAAAAAAGGAGAAAAAAAACCAACAAAAAAAGGGAAAAAAAAAAAACAAAAAAAAAAAAAAACCACCAAAAAAAUUGACAAAAGAACAAAAAAA'
p300
aF0.900523560209424
aa.