(lp0
(lp1
S'Simple Hairpin'
p2
aS'GAUAGAAAAAACUAUC'
p3
aF1.0
aa(lp4
S'Arabidopsis Thaliana 6 RNA - Difficulty Level 0'
p5
aS'GAUAUAGAAAAGAGAAAAAAAAAAACUCGAUAUAUCAAGAUAUAUAUAUAUAUAUAGAAAGAUAGAAAAAACUAUCACUAUAUAAUAUAUAUAUAUCAAGAUAUAUCAACUAUAUC'
p6
aF1.0
aa(lp7
S'Prion Pseudoknot - Difficulty Level 0'
p8
aS'GAUAUCAGAUCAAAAGAUCGAUAAUCAAAAAAAAAA'
p9
aF1.0
aa(lp10
S'Human Integrated Adenovirus - Difficulty Level 0'
p11
aS'GAUAUCUAUAUAACAGCAUUGGAAAAAAAAAUGUUCGCAUAGCCAAAAAUCCACAUCAAAAUGCAAUUAUAUAGUAAAAAAUCUAUAUAAUUUAAAGCAGAUGUACGAGGAGGCGAUUUAUGCAAAAAUUACAAAAAAGGUAAUUGAACCAAAAAAAAAAAUAAUGCGGUUAAAAAUAUAGAAAAUAUCAAA'
p12
aF1.0
aa(lp13
S'The Gammaretrovirus Signal - Difficulty Level 0'
p14
aS'AAGGCAGGAUAUCUAAUGAUAUCAGGACAAAAAAGAUCAAGAGAGAUCCUAUCUAAUGAUAGAAAAGAUCCUCGAUCAAGAUAUGUCGAAAGACAUAUCAA'
p15
aF1.0
aa(lp16
S'Saccharomyces Cerevisiae - Difficulty Level 0'
p17
aS'GAUGUAGGUAGGAAAAAAACUAUAAAAAAAAAAAAAAAAAGUCGAAAUGCUUUAAAAAUAAGUGCUACAUUAAAGGGACAUGAAGAUUGAAAAAGAGGAUGUGAUAAAAAAAAAAGCGGAAAAUUGAGGAAAAAACUCAACGUGUUCAAAACAAUUGGAAGACCUAAAAAAUGGUUCUAUAGAAAAAAGUUAUAGAAAACGGGUAAAAAAGACUCGCCAGUUGGAAUGUGUUAGAAGUCCUAAAAAAUGGACCAUUAUAAAAAAGAUGGUGAAAUGAGAGAAAAAAACUCUCCUGACACUAAUGAUUAUCAAGUACAAAAAAACGUGCCUAGAGUAAAAAUCUCUAGAAAAGAAAGUAAAAAUCUUUCGAUGAUCUAAA'
p18
aF0.9736147757255936
aa(lp19
S'Fractal 2'
p20
aS'AAAAAGAUACAUUAAAGAUAUAUAUCAAGAUCAAAAAAAAAAGAUCAAGGUCAAAAAAAAAAGAUCGAGUUCAAAAAAAAAAGAACAGGAUAUAUAUCAAAGAUAUAUUUAAAGAUCAAAAAAAAAAGAUCAAGAUCAAAAAAAAAAGAUCGAGAACAAAAAAAAAGGUUCAAUAAAUAUAUCAAAGACAUAUAUCAACUUCAAAAAAAAAGGGAGAAGAUCUAAAAAAAAUGGUCAAGAACAAAAAAAAAAGUUCAAGAUAUAUGUCAAAGAUGUAUCGAAAA'
p21
aF1.0
aa(lp22
S'G-C Placement'
p23
aS'GAUCAAAGAUCA'
p24
aF1.0
aa(lp25
S'The Sun'
p26
aS'GAGACCCAUGGAAGCUAUAUGGCCCCAAAGAUAGUAAGAGAAAUUCUAAUACAUCGAAGAUAGCUGCAGAAACUGCAAAGCGUCAAAGUGUUAUACCGUAGCUAUAAAUACUCAAAGGUAGAUAUAAGAACUAUAAAUUCGUAAGCAGAGAUGCCAGAAUGGUAAAUCCUGAAAGGCAGCGAAAGAAGCUUUAACGCGCCGAAGAAACAGAUAGAAACUAUUAUUGCUAGAAGGGAGACCUACAAGCGAUAAGUCCCC'
p27
aF0.8837209302325582
aa(lp28
S'Frog Foot'
p29
aS'AAAAAAAAAAAUUCUAAUGAGUGAUCGAAAGAUUGGAGCAACUCC'
p30
aF1.0
aa(lp31
S'InfoRNA test 16'
p32
aS'GAUCUUACGCGUAUUAAAGGGUAUAGCAGAGAGGUC'
p33
aF1.0
aa(lp34
S'Mat - Martian 2'
p35
aS'GUUCAAAAGAACAAAGAUAUAGAAGAUAUAGAAAAAAACUAUAUCCUAUAUCAAGGAUAAAUCGAAAAAGAUAUAGAGAUAUAGAAAAAAACUAUAUCCUAUAUCAAAGAUAUACAUAAAUCAAAAAAAGAUUUAUAGUAUAUCAAAAAAGAUUUAUCAAAGAUAUAUAUAUAUCAAAAAAAGAUAUAUAAGUAUAUCAAAGCCCAAAAGGGC'
p36
aF1.0
aa(lp37
S'square'
p38
aS'GAUAUAGCUAUAGCUAUAUCCUAUAGAAACUAUAGAAAAGAUAUAGAAAACUAUAGAAAACUAUAUC'
p39
aF1.0
aa(lp40
S'Six legd turtle 2'
p41
aS'AAAAGGAAAACGGAAGCCGAAAAAAAAGUAAAGCAAAAGCAAAUCAAAAGGAAAGGUAAUCCAAAACAAAAGCAAAGAAAAAAAAAAAAAAAAAAAAA'
p42
aF0.9591836734693877
aa(lp43
S'Small and Easy 6'
p44
aS'GGAAAGAAAAUUAAAGAAAAAAAAGUGCUC'
p45
aF0.8666666666666667
aa(lp46
S'Fractile'
p47
aS'AAAAAAAAAAAACCAAAAGGAAAGCAAAGCAAAAGCAAGGAAAACAAAAGUAAACCAAACGAAAGUAAAGCAAGCAAAAGCAAAAAAAAAAAAAAAAAAAAAAAA'
p48
aF1.0
aa(lp49
S'Six legd Turtle'
p50
aS'AAAAAAGAAAAGAAAAACUAAAACAAAAAAGAAAAUAAAAAUGAAAACAGAAAUGAAAAGGAAAACCAAAAGGCAAACUAAAAUUAAAAAAAAAAAAAAAAAAAA'
p51
aF0.9619047619047619
aa(lp52
S'snoRNA SNORD64'
p53
aS'GAUAUCAAAAAGAGAAAAGAGAAAGAUAGAAAAAAAAAAAAACUAUCAAAACUCAACUCAAGAUAUC'
p54
aF1.0
aa(lp55
S'Chalk Outline'
p56
aS'AAAAUGAAGGUGUAGGAAAUGAAUGAUAGGAGGAAAGCCGAUGGGAUAGUGAAGGCAUAUCACAUGCUAAUCGAAAUCUUCUAAAAAAAAAAAAAAAAAAAAAA'
p57
aF0.9807692307692307
aa(lp58
S'InfoRNA bulge test 9'
p59
aS'GAUAUAGAGAGAGAGAUAUAGAAAACUAUAUCCCCCUAUAUC'
p60
aF1.0
aa(lp61
S'Tilted Russian Cross'
p62
aS'AAAAGGCUGCGUCAAAGGACGCUAGAAGGAUAAAUACUCCAUGAAAGUAUGGAGUUUAAAGGAACCUAGUGUCAAAGAGUGCAGCAAAAAAAAAAAAAAAAAAAA'
p63
aF0.9238095238095239
aa(lp64
S'This is ACTUALLY Small And Easy 6'
p65
aS'AAAAAAAAAAAAAAAAAAAAAAAAAAAAAAAAAAAAAAAAAAAAAAAAAAAAAAAAAAAAAAAAAAAAAAAAAAAAAAAAAAAAAAAAAAAAAAAAAAAAAAAAAAAAAAAAAAAAAAAAAAAAAAAAAAAAAAAAAAAAAAAAAAAAAAAAAAAAAAAAAAAAAAAAAAAAAAAAAAAAAAAAAAAAAAAAAAAAAAAAAAAAAAAAAAAAAAAAAAAAAAAAAAAAAAAAAAAAAAAAAAAAAAAAAAAAAAAAAAAAAAAAAAAAAAAAAAAAAAAAAAAAAAAAAAAAAAAAAAAAAAAAAAAAAAAAAAAAAAAAAAAAAAAAAAAAAAAAAAAAAAAAAAAAAAAAAAAAAAAAAAAAAAAAAAAAAAAAAAAAAAAAAAAAAAAAAAAAAAAA'
p66
aF1.0
aa(lp67
S'Shortie 4'
p68
aS'GUGAAAACAGGGAAACC'
p69
aF1.0
aa(lp70
S'Shape Test'
p71
aS'AAAAAGUGAUCAAGAUAGAAAAAAAACUAUCAAGAGAGACUGAUAGAAAAACUAUCAGAUCAAAAGAUCGGUCCUCAAGAUCUCAAAAAAAAAAAAAAAAAAAA'
p72
aF1.0
aa(lp73
S'The Minitsry'
p74
aS'CAGAAAAAGAGAAAAAGAGAAAAAGAGAAAAAGAGAAAAAAAACUCACUCGCUCACUCGCUG'
p75
aF1.0
aa(lp76
S'stickshift'
p77
aS'AAGAUAUCCCAAAAAGGAGAUAUCAA'
p78
aF1.0
aa(lp79
S'U'
p80
aS'AAAAAGAUAGAGAGAGCAGAGAUAUAUAGAAAACUAUAUAUCCGCCCCUAUCAAAAA'
p81
aF1.0
aa(lp82
S'Still Life (Sunflower In A Vase)'
p83
aS'AAACGUCAUGGUGUAAAAAGCAUUUAGACACAAACUGCCAAGAUAUGAAAACUAUCAAGCAAGCAACUUUCAGUCUGGAAAAAGUAGAAAGAGAGAAAAACUCUCAGAUAUAUAGAUAUUUAUAUAUAGCUACCAAAAAAGGUAGAGCUAGAAAAAAAAAAAAAGGUCAAAAAAAAAAAAAAAAAAAAAAAAAAAAAAAAAAAAAACCCGACCAAAAAAAAAAAAACUAGCCCACCAAAAGGUGGACUGUAUAUAGAUAUCUGUAUAUUGAGGUAUUAAAUGUACCAAGUAGGAAACACUUACAGGAUGAUAAAUUCGGGAGGUUCGAAAAACUAACAUUAAUAAAACUAAUGUGGAGAAAAAAAGUCUCAGAUGGAA'
p84
aF0.9735449735449735
aa(lp85
S'Quasispecies 2-2 Loop Challenge'
p86
aS'AAAAUGAUCGGUCGUAUAGGAAAUAAUUAGACCACAUCAACGAAGGGGAUGGUCAGAGGCCGGAUAAAUUCCUGCAGUAGGGAUCUAAAAAAAAAAAAAAAAAAA'
p87
aF0.9809523809523809
aa(lp88
S'Corner bulge training'
p89
aS'AGAUAUCGAUAGAAACUAUCAAAAGAUAUCA'
p90
aF1.0
aa(lp91
S'Spiral'
p92
aS'AAAAAGAUCAGAUAUCAGAGAGAUAGAGAUCAGAUCAGCAGCAGCAGCAGCAGCAAAAAGCGCGCGCGCGCGAUCGAUCCUAUCCUCGAUAUCGAUCAAAAA'
p93
aF1.0
aa(lp94
S'InfoRNA bulge test'
p95
aS'AAAAAAAAAAAAAAAAAAAAAAAAAAAAAUAACGAAAAAAAAUGAAAGGUGAAGAAUUAAGACCAACAUGAAAAGUAGUGGGAUCAGGAAUCAUGUAGCUGAAAAAUCCUGAAAAAGUAUAG'
p96
aF0.9836065573770492
aa(lp97
S'Worm 1'
p98
aS'AAAAAAAGAGGCGUGGAGGUUCAUAAAAAGGAUCCGCAGAGAUGC'
p99
aF0.9111111111111111
aa(lp100
S'just down to 1 bulge'
p101
aS'AAAAAGCCUAGAUAGAAAACUAUCAGUUAAAAGACAGGAGCAAAAGUUCGGAGAAAACUCACAGAAAACUGAGAGCAAAAAAAAAAAAAAAAAAAA'
p102
aF1.0
aa(lp103
S'Iron Cross'
p104
aS'GUAGAGGGAAAGGGUGUUGAAGUAUGAGAAAGCUCUCCCAAACGAGGGUAAAAACCAACUUAAAACACCUAAACGCAGAGGAAACUCAGAGAAACUCUGCGAAACCCAAAGAAACUUACUAAA'
p105
aF0.943089430894309
aa(lp106
S'loops and stems'
p107
aS'AAAAUGAUAUGGAAAUAUCAAAGAUCAAAGAUCGAAAAAAAAGAUAGAAAAAAAAAAAACUAUCAAAGGUCAAAAGUGCAAAAAAAAAAGCGCAAAGAUCGAAGAGAAAAAAAACUCAAAGAUGAAGCUAAAAUGCAAACUAUAUCUAAAA'
p108
aF1.0
aa(lp109
S'Water Strider'
p110
aS'AAAAAAAAUGAACGUCCAGAGAAAACUUUUCUAAUGAAGUAAAAAAUAUGUGGAAACAUAUGGAAACUUAGGGUGGAUAGUUGAAAAAAAAAAAAAAAAAAAA'
p111
aF0.941747572815534
aa(lp112
S'The Turtle(s) Move(s)'
p113
aS'AAAGCAAAAGCAAAAUAUAUAUAGAAAAAAAAACUAUAUAUAAAAAGAUCAAAAAGAUCAAAAAGAUAAAAAUCAAAGAUUGAAAAAAACAAUCAAAAGGGAAAGCAAAAGCAAAAAGAGAAAACUCAAAAGAUAUAAAAAAAAUAUAUCAAAAUCGAAAACGAAAAAAGAUAUCAAAGGAGAAAAAAACUCAAGGGAAAAAAAACCCAAAGAGAGAAAAAACUUUCAAAGAUCAAAAAGAUCAAGAUAUCAAAAAAAAAGUGAAAACAAAAACCAAAAGGAAAAAAGAUAGAAAAAAAAAACUAUCAAAAAACCC'
p114
aF1.0
aa(lp115
S'Adenine'
p116
aS'GAUAGAGAUAGCAGAUAUCAGAUAUCAGAUAUCAGAGGUCAAAAGAUAGCAAAAAAGUUAUCAGAUCUCAGAUAGAAAGAUAAAGUAUCUUUAUCCUAUCAGAUAUCACAUAUAUUUAUCAAAGAUAAAUCAAGUAUGAGAUAUCAAAAGAUAUCAAAAGCUAUCAAAACUAUC'
p117
aF1.0
aa(lp118
S'Tripod5'
p119
aS'AGGCUCGGCUGAAAAGGCCCUUAUAAAUUGAGGAGUAA'
p120
aF1.0
aa(lp121
S'Shortie 6'
p122
aS'ACGAAAGUAGGAAAGCCAGCAAAAGCAGCGAAAGC'
p123
aF1.0
aa(lp124
S'Runner'
p125
aS'AAAAAAGGGAGAGAGAAAACAGCAAAGCUGGUCUUGAAGAGAACGCUUUAAGAAGGUAAGCGAAGGUAAGACUAAAUUCACUCUAAGUUUACGGGUAAUUCCUGACGUCCUGAAAA'
p126
aF0.9224137931034483
aa(lp127
S'Recoil'
p128
aS'AAAAAGAUAGAAGCAAGCAAGAGAAGAGAAGCAAGCAAAGCAGCACUCACUCAGCAGCACUAUCAAAAAAAAAAAAAAAAAAAAA'
p129
aF1.0
aa(lp130
S'[CloudBeta] An Arm and a Leg 1.0'
p131
aS'AAAAAGAGAGAGAGAAAACUACUCGAGAGCAAAAGCCUCACUCAAAAAAAAAAAAAAAAAAAA'
p132
aF1.0
aa(lp133
S'[CloudBeta] 5 Adjacent Stack Multi-Branch Loop'
p134
aS'GCGGAGCGGGAAACUGUGAGCAUAAUUGUUCGAGAGAAACCUCUCCUCCGAAAGGGGUCCGUA'
p135
aF1.0
aa(lp136
S'Triple Y'
p137
aS'AAAAAGGGUUAUGGAUCGAAAGAUUACAGGAAACUGUUGCAUGUGAAUCGAAAGAUUGUGAGAAAUUACGGCCGUCCAAAAAAAAAAAAAAAAAAAA'
p138
aF0.9175257731958762
aa(lp139
S'Misfolded Aptamer'
p140
aS'GUGCAAAAAAGGGGCAAGGCCUACGAAAGUUAAAAAAAACCGAAAGGCAC'
p141
aF1.0
aa(lp142
S'Flower power'
p143
aS'AAAAAGUAGAUUGCUACAACAGCUGUCCUUAUAGAGAAGAGGAAAGUUAGAGACAUAUUCUCCAGCGGAUCAAAGAUCCUACGAAAAAAAAAAAAAAAAAAA'
p144
aF0.9215686274509803
aa(lp145
S'Kudzu'
p146
aS'AAAAUCACUGGACAGAGAUAUGACAGUAAAACUCACAGGUGAACUGAAAAAAUCCGGCGGCAUCACAAACUCGCGACUGUGUAAAAAAAAAAAAAAAAAAA'
p147
aF0.9801980198019802
aa(lp148
S'"1,2,3and4bulges"'
p149
aS'AAAAAUACUAGAGCCAAAGGCAAAAAUCUGUUAAAAAGCUGGACAAAAAUUGCCCAGGAAUCAAAUGAGAUUAAUUUCAGCAAAGGAAAAAAAAAAAAAAAAAAA'
p150
aF0.9238095238095239
aa(lp151
S'medallion'
p152
aS'AAUAUCGGAUAUCAAAAGGUAUCAGAGGAAACUCAGCGUAAGUCCGGAGGUCAAAAGAUCUCAGAGAAAGAGCAGAGAUGUAAUUAUUUCAGAAGAAAUUCAGAAGAAAUUCAGAUAACAAAAGUUAUCGACCGAAAGGUAUAGAACGAAAGUUUUAAGAGAAAGCUCAGAGAAAACUCAUAUAUGAAAAGAUAUAAGAUAAAGAACAGGGAUUAAAAAAUUUCAAGGAACGUCUGGAGGAAACUCAGCUAUUAAAAAAUAGCAGGCAAAACCCAGUUCGCAAAAGUGAACGGAUAAAAAUCACUAUAACCGAAGAUUUCAAAAGAAAUCAGCUCUC'
p153
aF0.9228486646884273
aa(lp154
S'[RNA] Repetitious Sequences 8/10'
p155
aS'AGGAAAAAAGCAAAAAAGCAAAAAAGCAAAAAAGCAAAAAAGCAAAAAAGCAAAAAAGCAAAAAAGCAAAAAACCAAAAA'
p156
aF1.0
aa(lp157
S'Documenting repetitious behavior'
p158
aS'AAAAAAAGGAAAAAAAAAGGAAAAAAAAAGGAAAAAAAAAGGAAAAAAAAAGGAAAAAAAAAGGAAAAAAAAAGGAAAAAAAAAGGAAAAAAAAAGGAAAAAAAAAGGAAAAAAAAAGGAAAAAAAAAGGAAAAAAAAAGGAAAAAAAAAGGAAAAAAAAAGGAAAAAAAAAGGAAAAAAAAAGGAAAAAAAAAGCAAAAAAAAAGCAAAAAAAAACCAAAAAAAAACCAAAAAAAAACCAAAAAAAAACCAAAAAAAAACCAAAAAAAAACCAAAAAAAAACCAAAAAAAAACCAAAAAAAAACCAAAAAAAAACCAAAAAAAAACCAAAAAAAAACCAAAAAAAAACCAAAAAAAAACCAAAAAAAAACCAAAAAAAAACCAAAAAAAAACCAAAAAA'
p159
aF1.0
aa(lp160
S'7 multiloop'
p161
aS'UUCUUUCUUUAAUGAGAGCUCUUGAAAAACAGGAGGCAAAGGUUUCCAAACAACGGGUUGGUCUGAAAGGAGGCAUAUCUAAUGAUGUAGAG'
p162
aF0.9130434782608695
aa(lp163
S'Kyurem 7'
p164
aS'AAAAGCAUACAGCGUGAAAACGAAGAAAAUAAGUGAAGAAAAUUCUGAGUCUGAAAAAGGAAAAUUCUCUAUGGCAGAUGUCAAAAAAAAAAAAAAAAAAAA'
p165
aF0.9411764705882353
aa(lp166
S'JF1'
p167
aS'GAUAGGCGUAUAGUUAGAAGAUAGAAAGGAUAUCAAGAUAGAAAGAUAGAAGAUAUCGGAUAUAUAUAUAUCAAAAGAUAUAUAUAUAUCAAGAGAAAACUCAGAUAUAUAGAAAACUAUAUAUCAAUAUAGAAAACUAUAAGAUAUCACUAUCACUAUCAGAUAUCAAACAUAUAUCAAAAAGAUAAUAUGAAGAUAUAUAUACAUAUUUAUAUAUCAAAAGAUAUAUAAAUAUGAUAUAUAUAUCAAAGAUUGAAAAAACAAUCCUAUAUAUAGAAAACUAUAUAUAGAAAGAUCAAAAGAUUAACUAUCAGCUAGCAUAUCAGAGAGAGAAAACUCCUCGAUAAGAUAGAUAGAAAACUAUUAUAUCAAUACAGUUAUAUCAAA'
p168
aF1.0
aa(lp169
S'multilooping fun'
p170
aS'CUUUGUGGAGAAAUGGAAAUGAUAAGAUAAAAAUGG'
p171
aF0.8333333333333334
aa(lp172
S'Multiloop...'
p173
aS'GAUCAGAUCAGCGAAAACGCAGAGAAAACUCGGAGAAAACUCAGGGAAAACCCGGUGGAAACACACAGGAAACUGAGAUCAUAUAGAAAAAACUAUAGGGAAAACCCGAUC'
p174
aF1.0
aa(lp175
S'hard Y'
p176
aS'AAAAGGAUUUUAGACAAGUUAAAGGACUUGUAUGGGAUAUAUAGCAAAGGUUAUAUAUCAAUCAAAAA'
p177
aF0.9705882352941176
aa(lp178
S'Mat - Elements & Sections'
p179
aS'AAAAAUAUUUGUAGUGGCCGACAGUUCUGUAUGAGCAGCGAGAAGGGUUUGACCUAGAACGAGUCAAGGACAUCGAAAUCUGAUAGAAAAAAAAAAAAAAAAAAA'
p180
aF0.9809523809523809
aa(lp181
S'Chicken feet'
p182
aS'AAAAGGGACCUUUGAUAAUGCAAAGCUAUGCUCAGCAAUACGAAUCGACCUAUGGGAGGGCCGAAAA'
p183
aF0.9104477611940298
aa(lp184
S'Bug 18'
p185
aS'GCUUGUUGUAUAACUCAAUUAUUAAGACAAAUGGCACGGAGUAAACUAAAAUA'
p186
aF0.9245283018867925
aa(lp187
S'Fractal star x5'
p188
aS'AAAAACUGUGGAUAAGAGGAAAGUCUCGAAACCCCAUGGUUAAUGUCAAAAGGCGAAACUCAAAGGAGUAGGUCCGCGGCAAAUGAUGGCCCUGGAGGAAAACCUCAAGACAAAAAUGUCAAGAUGAAAACAUCAAGGUCAAAAGACCGUGGGUCGUUUAAAAAACAGGCCAGGCCUAAAAGGGCAGGAUCAAAAGAUCAAUUCCGAAAGGAAAGGUAGAAAGCUACAAGGUUUGUUAAAAGGAUAUAUCAAUCACAAAAGUGAGGUAGCAAAAGCUAAAGAUAAAAAUAUCGAGGUCAAAAGAUUGGGAUAUAUCAAAAAGAUAGUGAAAAUCAGAAAUGGUGAGAUGAAAACAUCAAGAUUAAAAAAUCAUGCUUAAAAAAGCCGUUACUAUUGAAAA'
p189
aF1.0
aa(lp190
S'Crop circle 2'
p191
aS'GGAAGCCUAAGCCAAAAAUCGAAAAAAAAGUAAAAAAAAAAAAAAAAAAAAAAAAAAAAAAGCAAAAAAAAAAAAAAAGAAAAAAAAAAGCAAAAAAUACAAAAUUAAAA'
p192
aF0.9636363636363636
aa(lp193
S'Branching Loop'
p194
aS'GUAUUAUAAAAAAUAAACAGAAAUGUUAGGGUGAAAAAAA'
p195
aF0.95
aa(lp196
S'Bug 38'
p197
aS'AGCUGCUGAGCCGGAAAAUAAGAACAUGAAAAUUGA'
p198
aF0.9444444444444444
aa(lp199
S'Simple Single Bond'
p200
aS'AAAAAAGGAAAAAAAUAAGUUAAAUACUUUAAAAAAAACGAAAAAAAAAAAAAAAAAAAAA'
p201
aF1.0
aa(lp202
S'Taraxacum officinale'
p203
aS'GAUUAAAAGAAUCAUAGAAAAAGACUAAGCUCAAAAGAAGCAGAGUAAAAGAUUCAAGCUGGAAGGCCAAGGUAAAAAUACUCAGAUAUAGUUAGCGAUAUACAUCAAAGAUGAUAUAUUGGUAUAGAAGAGAUAUAGCGGUAUAGAGGAACUCUAUAAGCUAUAUCUCGAUCAGCUAUCAAGGAUAGCGAUCCUAUAAAACUAGCUGUAUCAGUUAAAGGUAAACGGCUCAAAAGAACCAGAUCUAACGAAUCAGGAUAAAAAAUCCAGGGAAAAAUGUAC'
p204
aF0.8794326241134752
aa(lp205
S'Headless Bug on Windshield'
p206
aS'AGCGUCAAAAUGACAUUACGAAGGGGAAAAAAAAAAAAAAAAAAAAAAAACCUAUCAAUGUGACCUAAGGGGCAAGCUAAGGAAGGAAAAAAUUCAAAAGAUAAAAAACCCCUGAAAACGCGAGAGAUUAAAAAAGAUAAGCUAGAGACUUAGGGUAAAAAAAAAAAAAUCUCAGGAAACAUAAGCAGCUGAGUAACGUA'
p207
aF0.955
aa(lp208
S'Pokeball'
p209
aS'AAAUAUCUGCAAAAGCGAGCCUGAGAUUCAAGCAAUCAGGCUAGUAAAUGAACCAGCAUGCAAAUAAGAGGACUCUUUAGUGUAGGUAAAAAAAAAGCGCGAUAAAACGGAGCAACUGAGUCGGGCAAUAAAGCAAAGAGGCAAAGCGACGAGCGGGGGCAAGAACGGGGCACGAUUGAUCAAA'
p210
aF0.9239130434782609
aa(lp211
S'Variation of a crop circle'
p212
aS'AAAAAUUAAAAGAAAAGCCAAGGCAUUCAUGCCAUCCUGGAUAAACCAAAAAAGUGAAAAAAUUAAAAAAAAUAUGAAAAAAAAAAAA'
p213
aF0.9545454545454546
aa(lp214
S'Loop next to a Multiloop'
p215
aS'AGCAUGUAUGUAAAAAAUGCAUUUCGAAAGAGAUGAGACAGGGAAAACUCUGUCAGGAAAAAUCAUAUAUGAA'
p216
aF0.9726027397260274
aa(lp217
S'Snowflake 4'
p218
aS'GCGCAACGCGCCUAUCGCAAAGGUAUAUCAACCUACUAAAAAUGCUGUCCUAGAAACUAGAAGGACAAGGUCCGAUAGCCAAAAGGGUAGGAUGGAAGACGAAAGUCUAUUCUAGAAACUAGAAGUUCUAUGAACGAUAGACAAAAGUCUUCCUGAAUAGCGGAAAGGCUUACCUCGAAAGCAGAAGAAAGAAUUCCGUAAGCUAAAUCGCUGUUAAGAGUAUCAAAAGGCGGACCUAGAAACUGGAAGUCGUAUCGGCGUCCGCCAAAAGUUAAUCAAGAUAGGAGAAAUUUAAUACUCGAAGCGAGAAGGUCAAGGACCCGUUGCCAAAGGGCUGAUAAGAUACCCAAAGGAGUUAGCAAGGAAAUUG'
p219
aF0.8675675675675676
aa(lp220
S'Mat - Cuboid'
p221
aS'CAAUUAAAAGGCGGUAAAAUGAAGCAAAAGAGGGAAGCAAAAGGAAGAAAGCAAAAGAAGGAAGGUAGCAAAAGGUAUGAAGAAAGCAAAAGGAAGGAAGUAAGCAAGAAAAAAGAGGCAAGCAAUUAAGGAAAAGCGAGCAAACAAGUAAGCUAGAAAAACCAAACAAGCAAGAAUCCAACCAAAAGAAAGCAAGCAAGCAAGGAAGCAAAAAAGCAACCAAGCGAGCAAGCAAGCGCAAGGAAGCAAGCAGGCAAGGGCAUGCGAACAAGUGAGCAACUCCAAGAAAGCAAGCAACUGCGAGCAAACAACCACCCGCAAUCAACGAUCCGCAUCCAACCAACGCAAUCAUCCGCAACUAGUGCAUCGACACCCACAAG'
p222
aF0.9631578947368421
aa(lp223
S'Misfolded Aptamer 6'
p224
aS'AAAAAAGAAAAAAAGGAUCAAGGAAGGUCUAAAAAAUGACAAAACGAAAAGAUCAAAAAAAUUCAAAAAAAAAAA'
p225
aF1.0
aa(lp226
S'Snowflake 3'
p227
aS'GCUCAAAAAUGAUAGCUCAAAGGAGAAGAUCUGAGCGAGAGAAAGCUCCUUAGCAAAAGCGUGUAUCACACAAAAGGAAGCCUCAAAAGAGAAGAUAAGGUCGAGAGAAAACUCCUUAGCAAAAGCCUCAAAGAUCAAAAACGAAGGCCCAAAAGGGAAGACCAGAUGUAGAGAAAACUCCCUGUCUAAUGAUUCAAAGAGCCGAAAGGAAAGCCCGAAAGGGAAUAUCUGAGCUAGAGAAAACUUCAUAUAUAACUCCCCAAAGCGCCGAAAGGAAUGCCCAAAAGAGAUGCUCUGAUCAAGAGUAAUCUCCUUAGAAAAAUCCUCAAAGCGCCAAAAGGACGGCACAAAAUAGAAAAUCUGCUCAAGAAAAAAUUCCUCGGCAAAAGCAUC'
p228
aF0.7633587786259542
aa(lp229
S'Hard Y and a bit more'
p230
aS'AAAAUCCGACGGCCUUAGAAAGCUAAAGCGUAAUCGGCUAUAUCAAAGGGUGAGGGUUGGAAAAACAAUCAUGAAGAUAGGUCGGUGAAAAAAAAAAAAAAAAAAA'
p231
aF0.9716981132075472
aa(lp232
S'Mat - Lot 2-2 B'
p233
aS'GGGGUCAAGAUGAAGCAAAAGCAAGCCCAAAACCAAAAUUAAGCGCAACAAAAAUCAGGUCAAAGCAAGCAAACCCAAGCAAAAGUAAGUUCAAGCAAAAGUUAAUACUCAAGAAAAAGCAAGCUCAAGGGCAAGCAAGUAAAAGCUGAAGCUCAAUCAAAAGGAAUCGCAAAAACAAAAGAGACUGAAAUAAAAAUUAAUAGCAGGGAAGUAAACCCAGGCAAAAGCAAGAACUAGCAAAAGAAAAAGUACAUGAAAAAUCGAGCGAAAGGGCAACGAACAAC'
p234
aF0.8098591549295775
aa(lp235
S'Shapes and Energy'
p236
aS'AAAAAAGAGGUGUGAUCAAGAGACAGGAGGGGAAACAUAUCGAGGGAUUUAGCUAAAAAGCUGAAAGUAGCGCACGUCAUAAAAAAAAAAAAAAAAAAAAA'
p237
aF0.9603960396039604
aa(lp238
S"Spiral of 5's"
p239
aS'GUAAAGAUAGAAAGAUCGAAAUAUUGAAAAUAUAGAAAGACAGAAUGAUAGUAGAUAUGAAAGAUAGAAAGAUAGAAAGAUAGAAGAUAGAAAGAUAUAAGGAUAGAUGAUAGAAAGAUAGAAGAUGGAAGCUAGAAGUUAGAAGAUAGUGAUAGACAUUAGAAUUAAAAAGGUUCAGAAAUAAUGAAAACCUAUCAAAACCUAUCAAAAACUAACAAAAACUAGCAAAAACUAUCAAAAACUAUCAAAAACUAUCUAAAACUAUCAAAAAGUAUCAAAAACUAUCAAAAACUAUCAAAAACUAUCAAAAACUAUCAAAAAGUAUCAAAAUCUAUCUAAAACUGUCAAAAACUAUGAAAAGCGAUGAAAAACGAUCAAAAACUAUCAAAAUUAAAAA'
p240
aF0.9949622166246851
aa(lp241
S'Campfire'
p242
aS'AAUAGCUCAAGCUCGAGUUGCAAAAUCGAAAAGAUCGAUAUCUAUGGUAAUCGCGACAAAGCAUAAACAGAUAGAAAGCUAAUCGCGGCUAUAAGAACCAGCUAAUGCUGGCCACCAGGUAAAGAUACGAAUGAGGAAUACGGUAACCUGCUGCCCAGAGAGCGAUAUUGAAAGAUACGCCUCGAUUGGAGGAACGUACUAAUCGGGGAACC'
p243
aF0.8490566037735849
aa(lp244
S'Anemone'
p245
aS'AAACCUAGAGAAAUCUAGGGAGCGUAAUUGUUCGAGCUGGAAACGGCUCGUUUGGAAACAAGCCAGGUCGAAAGGCUUGUCUGUUAAUAUAGAUCCUGGAAACGGGAGGUAUCGAAAGAUACCAGGGACGAAAGUCCCGAUAUCCAACGAUAUCGAUAGUAAUCUAUCGGACUUAAAGAAGUCCCAGGGGAAACCUUGGAAAUCGAAAGAUUUC'
p246
aF1.0
aa(lp247
S'Fractal 3'
p248
aS'AAAAAUCAUAGCCUUCUAAUGACGUAAUGCUGUAUGACAGCAAAAGCGUAAAAACAGUUCGGUAGCAAAAAUUCAAAAGGAAUUCGAGAGCAAUAGCUGAAAACGGCUCAGUGGAAAAA'
p249
aF0.8823529411764706
aa(lp250
S'Kyurem 5'
p251
aS'AAAAGUUGUCCGCCAAAAGUGUGGAAAAAGGCAUUCGAAAUGGUAAAUCGACGGGCAGGAAAAUUUGAUGCCACCCCUCCACAAAAAAAAAAAAAAAAAAAAAA'
p252
aF0.9615384615384616
aa(lp253
S'Snowflake Necklace ( or v2.0 )'
p254
aS'GAUAUAUGUAUAUGUGGAUAGCACAAAAAGUAGCAAAAAGCAGCAAAAAGAGGCAAAAAGCGACAAAAAGUACCAUCACUAAAAAAUAGAGAUUUAGGAAAAAGGAGCAAAAAGCAGCAAAAAACAGCGAAAAGCAGCAAAAAGAAAUAUCAGAUAAAAAGUUAGAGAGAGCAAAAAGCAGCAAAAAGCAUCAAAAACGGAAAAAAAUUAGAAAAAACCACAAUCAGGGAAAAACCCAGAUAGAUAGAAAAUGAGGUAAAUCCAGCAAAAAGCGGCGAAAAACAGGAAAAACAGCUAUUAGAAAAAAAACCAGCUGGCGGAAAAAGCAGCAAAAGGCGACAAAAAGCAGUAAAAAACAGGCAAAAUUGCUAGCGACAUAUACAUAUAUC'
p255
aF0.8663239074550129
aa(lp256
S'Methaqualone C16H14N2O Structural Representation'
p257
aS'AAAAAAUUAUCAGACCAGAGAGAAAAAGUUCAGAUAGACAAAAGUCAGAUAUAGGAAACUAACAGAGAGAAAACUCGAGGAAAAAAACCUACUGAAUCACACACUCAGAAACGGGUCAGCUCAAAGAUGUCAAAGGAAACUAAAAAAAACGCAGAUAGAGAAAAUUAGUCUAAUGAGCUCAAAAGAUAUCUGCAAAGUUCAGAAACAGGGGAAUGUAGAUAGAGAGAAAAGAGAAAACUCACUCAGAAAAAAUUCACUAAGAUAAAAGUCACUAAGAGUAAAUCCACAUAAAGCUCAAAAGGAAUGAAAAAAGAGAUGAAACUCCUCAACCAGAGCGAAGAGCAGAUGUAAAAAA'
p258
aF0.8704225352112676
aa(lp259
S"Cat's Toy 2"
p260
aS'AAAACAGAUAUCAAAACGAAAGAAACAAAAAAAAAAAAAAUAGUCCAACUAAAAGGCAAGUAAAAGCAAAAAAAGGGAAAGAACGGAUGUCUGAAAA'
p261
aF0.979381443298969
aa(lp262
S'Zigzag Semicircle'
p263
aS'AAAGUUUUGCUGUUAAAAGAAUCGACGAAAAAAA'
p264
aF0.9411764705882353
aa(lp265
S'Short String 4'
p266
aS'AAAAAUGCAGGAAGGGAUGAAGUUCAGAAAAGGUCGAUCAAAGAAAAAUGAAAAUCCGUUAAUAAAGGUCGUCCGCUAAAAAAAAAAAAAAAAAAAA'
p267
aF0.9381443298969072
aa(lp268
S'Gladius'
p269
aS'GGAAACAAAGAAAAAAAGAAGCGAAGAAAGAGAUCCAAGGAUCAAAAGAUCAGUUAGAAGACUCAAUUGAGCAAGAGAUCAAAAGUUAUAUCAGAUAUCAUAUAGAGAUCAAAUCAUGAUCGAAGAUCUGAUCAGAUCCAUAUAGAAUAUCGAAUAUAGCGAUAGAUCAACGGCUCUAGAGAGAACACUAGCGGGAAAUGCGAUAUAGAGAAUGGACAGGAUCAUAACAUGACAAGAUAUAGAGAUAUCAGAUAGAGAUCUGAGUGAGAUGUUUAAUGACAUCAACGCCAAGAUAGCUAUACGAUAUACCUAUAUCAGAAUAUGAGAGGAUCAGAGCCGACAACUAUAAGAUCAAAGGAUCAAACGCUCUCAAACAACUUAUCAAAGAAAACCAGAAAAC'
p270
aF0.9025
aa(lp271
S'Thunderbolt'
p272
aS'GGAAGAUAGUAAAAAAAAAGGAAGCAGGAAAAGAAAGCACACAGAUGAAAAAAAAACGAAAAAAGAUCAAAAAGAUCAAAAAACGAAAGCGAGCAAAAAAAGGACAAAAAAGAACAAGCAAGGGAAAAAGAAAUAGAGCAAAAAGGGAAAAAGAAGCCGAAACGGCAGCAAAAAGUCAUUUCAAUUAAAAAAAGAAUAGCAAAGCUAAACGAAAAAAAUAAGAGAAAAAAAAGGUUCAAAAAGAGAACAAAGGUUUAAUCAGGCAAAAAAAAAAAGCAAGAAAAAAAAAAGAACCAAAAGAUAUAGAAAAAGAAAAAAAACAAAAGCUAUGUAACACCAAACAUCUGUGAAAAAAAAGAGCAACCAUAAAAAGAAAAAAACCCUAUCAACCA'
p273
aF0.9693877551020408
aa(lp274
S'Mutated chicken feet'
p275
aS'AAAAAAAGCAGGAUAAAGUGAGCGAAGGAAACCGUACUAGGAGUAAAACAUCAAAAGAAAGCGCAGGACUUCCGAAGCUAUAAAAUAAAACCCCAAAAAA'
p276
aF0.84
aa(lp277
S'Chicken Tracks'
p278
aS'AAAAAAAAGAUAUAGCUAGAAAACUAGAAGAUCAAAAGAUCAAGAUCAAAAGAUCCUAUAUCAAGAGCAUCAAAGAUGAAGAUCAAAGAUCAAGACCAAAGGUCCUCAAAAAAAAA'
p279
aF1.0
aa(lp280
S'Looking Back Again'
p281
aS'GGGAACAGGGGCAAAAAGAACUCGAAGAGUUCGGAUCAAGUGCUGAAGAUCAAGUCUAGAGAUGGAAGCAUCUAAUGAUGAAAGUUAUCAACAUACCCGAAGAUCGCUAAAAACCUGCAAAAGCAGGAAAAAUGACAUAUCAAGUAGAACAUGUCUGUUGAAAACAGGAUAAACCAACAGGAAGGAGGGCUAUUUUAAAAAAAGAUGAUAAUCAGAUGGGGAGAAAUCCAACACUUAAAAGAUAUGAUCAUACGUAGGGGGAAAAAGGUAGUUAAAAAAAAGAUUGAAAAAAUCAACUAAAACAAUAUACUAGAAAAAAGACUAAAGAAAAUUUUAGAAGAGCCAAGGCGGAUAGGAACUAUCAACUCUCAAAACUAUGUGUGGAACCC'
p282
aF0.87146529562982
aa(lp283
S'Multilooping 6'
p284
aS'AGGUUUGCCGGACCUAAAGGGGUCCUUACUAAUGCGAGCCCAGUAGGCUAAAGGGUCUGGAUCAAAGGAUCUUCCCGAACAA'
p285
aF0.926829268292683
aa(lp286
S'Cesspool'
p287
aS'GUAUAACAAAAGAAGUGAAGAUAGUGAAACGCAAAAACAACACAAGAAUGAAAAGACUGGAGAAAAUAACUAAAAGAAAACAAGAUCAAGAAUAAGAAAACAAUGCAGGACAGUGAAACACAACAACAACCAAAGAAGAAAACAAGUGAAGAAAAUAACUAAAAGAAAAAACAAACAAGCAUUAAGUAAUCAAGAGAAGAGAGCUAAGGGCAACAACAACUGAAGAAGUAAUCAACAGAAGAAAAUAAUAAAAAGAAAACACAUAGCAAGCAAUAAGAAAACAAGAGAAGUGACAUAAACUGAACAAUAACGCAAGAAUGAAAGAACGGAGGAAAAUAACAAAAAGAAAACACAAAGC'
p288
aF0.7681564245810056
aa(lp289
S'Hoglafractal'
p290
aS'AAGAGUUAUUACCAAAAGAUGAAAAAAACUAUCGCUAGUAUCAAAGAGCAAAAAGCUCGAUGCUCAAUAGAAAACUCGUGAUGGAAAGAUCAAAGAUAUAAAAUUAUCGACACUCAAGAGAAAAACUCGAACCAGCUAAUGCGGUGAUCAAAAGACAAGAGAAAAAACUCGUCCGAGCAAAAACCUGCGCGAAAGCGAGAUAGAAAAAGUAGCAAAAAAGCGCCUCAAAAAGAGCCGAAAGGAGAUAGCAAAAAACGGUAAAAUCUCCCAAAAAGGAAACUAGAGCAAGGUUCUAGCAAAAAGGUUAUCAAAAAAUUAUCAAAAAGAUCUAAACUUAAAACAACAAAUACCAUUCCAAAAGUAAAAGCCCAAAAGGGUAUAGGAAUCAUACAGAAAGGAA'
p291
aF0.8675
aa(lp292
S'Bullseye'
p293
aS'AAUGAGCUAGAAGCUAGAAUAUCAAAGAUGAAGCCCAAACGCCCUCUAAAAAAAGAGGAUCAAAGACCAAGAUCAAGGAUCGAGCGCAAGGUUCCUCGAAAAAAAGAUCGAUAAGCUAGAGGAUCAAGGAUCAAGACCAAGGGCACUUGAAAAAAAUAGCAUGUAUGAUCAAGAUCGAAGAUCAAGAGCAAAGCGACUCAAA'
p294
aF0.8415841584158416
aa(lp295
S'Shooting Star'
p296
aS'GAUAUCGGUCCUAUAUCAAUGAAUAUAUGAGAGAGAGCAAAAGACUUACCUCUGAGAUCCUGGAUAUAGAGGUAGAAGAGAAGCUCGGAGUUAGAGAGACAUGAUCGAAAGAGUCUCACCCCAUAGACCUCUGACAAUUACCGGAAAAAAUACCAUUGCUUACAAAGUAGGACAUGAAAACCAAGGUCGAAAGUCACAAGAGACCAGCUCAAAUCAAAUAUAUAGAAACUAUAUGAGUGAGAAGCUUACGAUCGAUAUGGAAGCCAUAUCAAAUAGGAACUAGUGAGCGACUAACAAACGUGAGAAGAAGAGAGUGAGAUUAGCAAAAGACCAUACCACGCAACAGCGCAAAGACCAGAUAUCA'
p297
aF0.8571428571428571
aa(lp298
S'Teslagon'
p299
aS'AAAAAAGGAAAAAAUGAAAUAAAAAAAGAAUCAAAAAAAAAAAAAAGGAAAAAAAAAAGAAAAAAAAAAAAAAAAUCAACGAAAAAAGAAGGAAAAAAAGCAAAAAAAAAAAAAAAGCAAAAAAACCCGUAAAAAAAGCAGAGAAAAAAAAAAAAAAUCAAAAAAAAAAGAAAAAAAAAAAAAAAAUGGAGAAAAAAACGGGAAAAAAAGGAAAAAAAAAAAAAAACUUAAAAAGCUAGGAAAAAAAGCAUUAAAAAAAAAAAAAAAGAAAAAAAAAAGCAAAAAAAAAAAAAAGGCAGCAAAAAAACAAUGAAAAAAAGCAAAAAAAAAAAAUUAAAAAAAAAAAAAAAAGUACAAAAAAACAAACUAAAAAGUCAAAAAA'
p300
aF0.9214659685863874
aa.