(lp0
(lp1
S'Simple Hairpin'
p2
aS'GAUAGAAAAAACUAUC'
p3
aF1.0
aa(lp4
S'Arabidopsis Thaliana 6 RNA - Difficulty Level 0'
p5
aS'GAUAUAGAAAAGAGAAAAAAAAAAACUCGAUAUAUCAAGAUAUAUAUAUAUAUAUAGAAAGAUAGAAAAAACUAUCACUAUAUAAUAUAUAUAUAUCAAGAUAUAUCAACUAUAUC'
p6
aF1.0
aa(lp7
S'Prion Pseudoknot - Difficulty Level 0'
p8
aS'GAUAUCAGAUCAAAAGAUCGAUAAUCAAAAAAAAAA'
p9
aF1.0
aa(lp10
S'Human Integrated Adenovirus - Difficulty Level 0'
p11
aS'GAUACAUAACCAUCGGAUUUCUAAAAAAAAAGUACCCCGAGACGAAAAAGCCAUAUCAAAAGGGAUAUAUAUUGAAAAAAAGCGAUAUAUAUAGAACCCGAUAUAAAAGGCCGUAGAAUUCGGAAAGAUGUCGAAAAAAGAUAUCGGUGAAAAAAAAAAAUGAGAUCAGAUGAAAAGUUAUGAAAUAUCAAA'
p12
aF1.0
aa(lp13
S'The Gammaretrovirus Signal - Difficulty Level 0'
p14
aS'AAGGCGGGAUAUCAAAAGAUAUCAAGACAAAAAAGAUCAAGAGAGAUCGGUAGAAAACUACCAAAAGAUCCUCGAUCAAGAUAUAUCAAAAGAUAUAUCAA'
p15
aF1.0
aa(lp16
S'Saccharomyces Cerevisiae - Difficulty Level 0'
p17
aS'GCUAGACCAUCGAAAAAAAGAUGAUGAAAAAAAAAAAAAAACGGAAACCUGGUAAAAAUCUAGGGUCUAGCAAAAUAUGUCGACGAUCGAAAAAAAGAUCCCCUAAAAAAAAAAAUGGGAAAAGAUUGGAAAAAACAAUCCGAUAUGGACAGCAAGUGAACGAGUAAAAAAUCUUGGUUAUAGAAAAAAUAUAGCAAAAGGAACAAAAAAAGUUUCCGCUUGCAAAGGGCAUAGAAGAUCAAAAAAAAGAUCGCCAUUAAAAAAGAAUGGUAAAAUAUGGUAAAAAUCCAUACUAUGUUAAAUGAUAUAGAAGAUCAAAAAAAAGAUCGUGGUUAAAAAAAGACCACAAAAGCUUAAAAAAAGUGAGCCUAUAUCUAAA'
p18
aF0.9894459102902374
aa(lp19
S'Fractal 2'
p20
aS'AAAAGGAUAUAUCAAGCAUAGAUAUUAGACUGAAAAAAAUAACAGUGAGGCCAAAAAAAAAAGGUCGUGGUAGAAAAAAAAAUACCUGGGUAUUUAUGAAUGAUAUAUAGCAAUCUCUAAAAAAAAUGAGGAAGAUCGAAAAAAAAAGAUCAACAACAAAAAAAAAAGUUGAGGCUAUAUAUCUAAGAUAUAUAUUAAGGGUUGAAAAAAAUGCCCAAGAUCUAAAAAAAAUGAUUAACACUAAAAAAAAAAAGUGAAAAUAUAUAUCAAAGAUAUAUCAAAAA'
p21
aF1.0
aa(lp22
S'G-C Placement'
p23
aS'GAUCAAAGAUCA'
p24
aF1.0
aa(lp25
S'The Sun'
p26
aS'GAGACACAUACAAAGUAUAAGUGCUCAAGGGGAGAUCUAGGAACUAGUAAUUACCAAAGAGAGACUCAGAAGAUGAAAGUCAUCAAAGAGAGGAGUAGAAACUAUAAUCCCUCAAAGAGAUAUCGAGAAACUUGAAAUACUCAAAUAGAAAUGUAAGAACUGUAAAACCUAGAGGAGAGACUCGGAAGCAGAAAGUCUUCAAAUCGAGACAUGGAAACUAUAAGUCCCGGAAUUAAUAUCUUGAAGCGAGAAAUAUAA'
p27
aF0.8527131782945736
aa(lp28
S'Frog Foot'
p29
aS'AAAAAAAAAUCGGGGAAACUUGCAUCUAAUGGUGGCUCAAGGAGC'
p30
aF1.0
aa(lp31
S'InfoRNA test 16'
p32
aS'GAUAUCUCUGAUAUCUAAUGAUAUACGCGUGAUAUC'
p33
aF1.0
aa(lp34
S'Mat - Martian 2'
p35
aS'UAUCAAAAGAUAAAAGAUAUAGAAGAUAUAGAAAAAAACUAUAUCCUAUAUCAAAGAUAUAUCAAAAAAGAUAUAGAGAUAUAGAAAAAAACUAUAUCCUAUAUCAAAGAUAUAUAUAUAUCAAAAAAAGAUAUAUAAUAUAUCAAAAAAGAUAUAUCAAAGAUAUAUAUAUAUCAAAAAAGGAUAUAUAAGUAUAUCAAAGAUCAAAAGAUC'
p36
aF1.0
aa(lp37
S'square'
p38
aS'GAUAUAGCAUAUCGAUAUAGCAUAUCAAAGAUAUGAAAACUAUAUCAAAAGAUAUGAAAACUAUAUC'
p39
aF1.0
aa(lp40
S'Six legd turtle 2'
p41
aS'AAAAGAGAAACGGAAAUGAAAGGAAAAUCACAUGUAAUUUAAAGUGAAAAUAAAAUAAAAGUAAAUUAAAAAAAAACUAAAAAAAAAAAAAAAAAAAA'
p42
aF0.9591836734693877
aa(lp43
S'Small and Easy 6'
p44
aS'UGUUGGGAAAAGAAGUGAAAAAAAAGUCGA'
p45
aF0.8666666666666667
aa(lp46
S'Fractile'
p47
aS'AAAAAAAAAAAAUCGAAAGAAAGGCAAAGCAAAAGCAACCAAAGCAAAAGCAAGGGAACCAAAAGGGAAGCAAGCAAAAGCAAAAAAAAAAAAAAAAAAAAAAAA'
p48
aF1.0
aa(lp49
S'Six legd Turtle'
p50
aS'AAAAGUUAAAGGUAAAAAUAAAAGCAAAAGCUAAGAUGAAAAUAAAAUUGAAAGGGAAAGCAAAGGCAAAAGAAAAAUCAAAAAGUAAAAAAAAAAAAAAAAAAA'
p51
aF0.9428571428571428
aa(lp52
S'snoRNA SNORD64'
p53
aS'GAUAUCAAAAAGAGAAAAGAGAAAGAUAGAAAAAAAAAAAAACUAUCAAAACUCAACUCAAGAUAUC'
p54
aF1.0
aa(lp55
S'Chalk Outline'
p56
aS'AAAAAGAUCAGGUAGGAAACUCACCAGAGAGAUAAAGGUCCUCGGGUACCAAAAGGAUAUCAGCCAGAAAACUGUGCGAUCAAAAAAAAAAAAAAAAAAAAAAA'
p57
aF1.0
aa(lp58
S'InfoRNA bulge test 9'
p59
aS'GAUAUAGAGAGAGAGAUAUAGAAAACUAUAUCCCCCUAUAUC'
p60
aF1.0
aa(lp61
S'Tilted Russian Cross'
p62
aS'AAAAAGUUGGAUCGAAAGAUCGGUCAGGCCGAAAGGCCGAUAGGAAACUAUCAGAGCGAAAGCUUGACCCCUCAAAAGAGGCAACAAAAAAAAAAAAAAAAAAAA'
p63
aF1.0
aa(lp64
S'This is ACTUALLY Small And Easy 6'
p65
aS'AAAAAAAAAAAAAAAAAAAAAAAAAAAAAAAAAAAAAAAAAAAAAAAAAAAAAAAAAAAAAAAAAAAAAAAAAAAAAAAAAAAAAAAAAAAAAAAAAAAAAAAAAAAAAAAAAAAAAAAAAAAAAAAAAAAAAAAAAAAAAAAAAAAAAAAAAAAAAAAAAAAAAAAAAAAAAAAAAAAAAAAAAAAAAAAAAAAAAAAAAAAAAAAAAAAAAAAAAAAAAAAAAAAAAAAAAAAAAAAAAAAAAAAAAAAAAAAAAAAAAAAAAAAAAAAAAAAAAAAAAAAAAAAAAAAAAAAAAAAAAAAAAAAAAAAAAAAAAAAAAAAAAAAAAAAAAAAAAAAAAAAAAAAAAAAAAAAAAAAAAAAAAAAAAAAAAAAAAAAAAAAAAAAAAAAAAAAAAAAA'
p66
aF1.0
aa(lp67
S'Shortie 4'
p68
aS'UCGAAAGAAGGGAAACC'
p69
aF1.0
aa(lp70
S'Shape Test'
p71
aS'AAAAACAUAUCAAUAUAGAAAAAAAACUAUAAAGAGAGAGAGGUAGAAAAAUUACCAGAUCGAAAGAUCACUCCUCAAGAUAAGGAAAAAAAAAAAAAAAAAAA'
p72
aF1.0
aa(lp73
S'The Minitsry'
p74
aS'GAGAAAAAGGGAAAAACCGAAAAAAGAUUAAUGGGAAAAAAAGCUCUUCUGCGGGCCCGCUC'
p75
aF1.0
aa(lp76
S'stickshift'
p77
aS'AAGAUAUCGCAAAAAGCAGAUAUCAA'
p78
aF1.0
aa(lp79
S'U'
p80
aS'AAAAAGAUAGAGAGAGCAGAGAUAUAUAGAAAACUAUAUAUCCGCCCCUAUCAAAAA'
p81
aF1.0
aa(lp82
S'Still Life (Sunflower In A Vase)'
p83
aS'AAAGAUCAAGUUCGAAAAGCGAGCAGCAUAGAAACUAUGAUGGUCGAAAAACGACCUAGAUGCAAAGCAUCAAGAUGGAGAAACCAUCAAGAUGGAAAAGCUGUCAGAUAUAUAUUUAUAUAUAUAUAGCAUAGAAAAAACUAUGAGAUGGAAAAAAAAAAAAGGAUCAAAAAAAAAAAAAAAAAAAAAAAAAAAAAAAAAAAAAAAAAGAUCAAAAAAAAAAAAGCCAUCGAUAGAAAACUAUCACUAUAUAUAUAUAAAUAUAUAUCAGGGUAGAAAAACUACCAACAAAGAAAAACUUUGAAGAGUGAAAAACGCUCAAGGGAGAAAAACUCCCGUUAUACAAAAGUAUAUAGAUGAGAAAAUCGUCGGAUCGAA'
p84
aF1.0
aa(lp85
S'Quasispecies 2-2 Loop Challenge'
p86
aS'AAAAGGGUCGAGCGACAUCGAAAGAUGAAGUUCAGAUGAACAAAGGACAUCAUAUCAGGAUGAGAAAAACUCUACAAGAUAGACCAAAAAAAAAAAAAAAAAAAA'
p87
aF1.0
aa(lp88
S'Corner bulge training'
p89
aS'AGAUAUCGAUAGAAACUAUCAAAAGAUAUCA'
p90
aF1.0
aa(lp91
S'Spiral'
p92
aS'AAAAAGAUCAGAUAUCAGAGAGAUAGAGAUCAGAUCAGCAGCAGCAGCAGCAGCAAAAAGCGCGCGCGCGCGAUCGAUCCUAUCCUCGAUAUCGAUCAAAAA'
p93
aF1.0
aa(lp94
S'InfoRNA bulge test'
p95
aS'AAAAAAAAAAAAAAAAAAAAAAAAAAAAUACCCAAAAAAGAGCAAAAGAGUGAAGUUGGAGCACAGAACAAAAGGUAUCGGUAGCAACACACGAAACAUCAAAAAGCAUCAAAAAAGGAGUU'
p96
aF1.0
aa(lp97
S'Worm 1'
p98
aS'AAAAAAAUAAGUCCGCAAUAGGCGAAAACCCCUAUGACCCGACCA'
p99
aF0.9111111111111111
aa(lp100
S'just down to 1 bulge'
p101
aS'AAAAAGAACAGAUAGAAAACUAUCAGAGAAAACUCAGUAUCAAAAGAUCGGAGAAAACUCAGAGAAAACUCAGAUCAAAAAAAAAAAAAAAAAAAA'
p102
aF1.0
aa(lp103
S'Iron Cross'
p104
aS'AGAGAGAGAAACGGAGCGGAACGCAGCGAAAACGCACCGAAAGACAGAUAAAAGUCAGAUAAAGUCAGUCAAAGGGAGGGAAAACCCAGAGAAACUCACCCAAACUCAGAUAAAAUCACUCAA'
p105
aF1.0
aa(lp106
S'loops and stems'
p107
aS'AAAAAGAUAUAGAAAGAUCAAAGAUCAAAGAUCAAAAAAAAAGAUAGAAAAAAAAAAAACUAUCAAAGAUCAAAAGACCAAAAAAAAAAGGUUAAAGAUCAAAGAGGAAAAAAACUCAAAGAUCAGGCAAAAAAGCAAACUAUAUCAAAAA'
p108
aF1.0
aa(lp109
S'Water Strider'
p110
aS'AAAAGCUUCGAACUCGGAAAUAAAGGUGAAAAAAGUUUCUGAAAAACGCUGCAAAAGCGUAGAAAGCUAACGGAGAGUGUUGACAAAAAAAAAAAAAAAAAAA'
p111
aF0.941747572815534
aa(lp112
S'The Turtle(s) Move(s)'
p113
aS'AAAGCGAAAGCAAAGGAUAUAUAGAAAAAAAAACUAUAUAUCAAAAGAUCGAAAAGAUCAAAAAGAUGAAAGUCAAUAAUGUAAAAAAAAGAUUUAAAGAGUAACCAAAAGGAAAAGGAGAAAACUCAAAAGGUAUCAAAAAAAGAUACCAAAAGUGAAAACACAAAAAGAAAUGAAAAAAAAAAAAAGUUUAAGUGAAAAAAAACGCAAACAUAGAAAAAACUAUGGAAGGUCAAAAAGAUCAACAUUUCGAAAAAAAAGCGAAAGCAAAAAACUAAUAUAAAAAGGAUAGAAAAAAAAAACUAUCAAAAAUCUC'
p114
aF0.9873417721518988
aa(lp115
S'Adenine'
p116
aS'GAUAGAGAGAUCAAAUAUCAGAUAUCAGAUUUCAGAUAUCAAAAGAUAUCAAAAAAGAUAUCAGAUAUCAGAUAGAAAGAUAUAGAAACUAUGUCCUAUCAGAGAUCAGAUGUAUAUAUCAAAGAUAUAUAAAACAUCAGAUAUCAAAAGAUAUUAAAAGAUCUCAAAACUAUC'
p117
aF1.0
aa(lp118
S'Tripod5'
p119
aS'AAAACCGUACGAAAAGUGCGGGCUAAAUGCCCGGUUGA'
p120
aF1.0
aa(lp121
S'Shortie 6'
p122
aS'GUGAAAACGGGGAAACCAGGGAAACCAAGGAAACU'
p123
aF1.0
aa(lp124
S'Runner'
p125
aS'AAAAAGAACAGAGCAAAAAGAUCAAAGAUCAGUUCAAAGGGAAUCCAGCAAAGCUAAAGGACAGACCAAAGGUAAACUGACCCAAAGAGAAAGAGGAAACUCACUCAGUUCGAAAA'
p126
aF1.0
aa(lp127
S'Recoil'
p128
aS'AAAAAGAUAGAAGCAAGCAAGAGAAGAGAAGCAAGCAAAGCAGCACUCACUCAGCAGCACUAUCAAAAAAAAAAAAAAAAAAAAA'
p129
aF1.0
aa(lp130
S'[CloudBeta] An Arm and a Leg 1.0'
p131
aS'AAAAAGUGAUCUGAUAUUUCUAGAGACAGCAAAGGCGUCACGCGAAAAAAAAAAAAAAAAAAA'
p132
aF1.0
aa(lp133
S'[CloudBeta] 5 Adjacent Stack Multi-Branch Loop'
p134
aS'GUUGAUAGGAAAGCCUAAAGGCAAAGGCCUUCUGACGAAAGUCAGCUGCGAAAGCAGUCAACA'
p135
aF1.0
aa(lp136
S'Triple Y'
p137
aS'AAAAAGAGCGCUAGCUUGAAAGAGCGCUCGAAAGAGCGAUCGAUGUAUCGAAAGAUAUCACAAAAAAUAAAACGUUCGAAAAAAAAAAAAAAAAAAA'
p138
aF0.9175257731958762
aa(lp139
S'Misfolded Aptamer'
p140
aS'GCGGAAAAAUGCCACAAAGUGACCGAAAGGAAAAAAAAAGCUAAAGUCGC'
p141
aF1.0
aa(lp142
S'Flower power'
p143
aS'AAAAGAAGCGAGCAAGCUUGAGUUCCAUAAAGCAUGAAUAUUAAAAAUGAACGCGUAUCGUAGAGUAGUUGGAAUGGUUCUCAAAAAAAAAAAAAAAAAAAA'
p144
aF0.9215686274509803
aa(lp145
S'Kudzu'
p146
aS'AAAAAGAGAGAAUAGCGUGAGAGGAGCAAAGCCUAAUCAGGUAGCUAAGCAUAUCAAGACGAAGACAAAGGCAAAAUGCUCGAAAAAAAAAAAAAAAAAAA'
p147
aF0.9801980198019802
aa(lp148
S'"1,2,3and4bulges"'
p149
aS'AAAAACAACGUAUUCGAUAGGAAAAAUCAUGUAAAAGGGAAAAUGGAAAGCGAACUAAAAAUAAAACGCGGUAAUCCGGUGAAGCGUUAAAAAAAAAAAAAAAAA'
p150
aF0.8761904761904762
aa(lp151
S'medallion'
p152
aS'GCGAUCGUGAUUCAAAAGCGCCAAGUGAAAAUACAGUGAAAAGACUGAUAUCAAAAGAUAUCUUGGCAAAUUGGGACAUCGAAAGAUGUCAUAGAAAGUUGAGCGAAAACGCAGAUAGCAAAAGUUAUCAUUGUAAUCAGAGACCCCAAAAGAUAUCGGAUAAAAAUCGGAGAAAACUCAGGAUACAAAAGUUUCCAGAAUAAGCUCAAAAGGGAAAACAUUUUAGAGAUAAAGCCGUUGAAAAAGGGGGUUCAAAGGAGCCCAGAGAAAACUCGUAUUUUAAAAAAGAUAAGCGAAAACGGAGUAAAAAUGCGGAUAUCAAAAGAUAUCAGAUCGC'
p153
aF0.8724035608308606
aa(lp154
S'[RNA] Repetitious Sequences 8/10'
p155
aS'AGGAAAAAAGCAAAAAAGCAAAAAAGCAAAAAAGCAAAAAAGCAAAAAAGCAAAAAAGCAAAAAAGCAAAAAACCAAAAA'
p156
aF1.0
aa(lp157
S'Documenting repetitious behavior'
p158
aS'AAAAAAAGCAAAAAAAAGUGAAAAAAAAAGAAAAAAAAAAGCAAAAAAAAAGCAAAAAAAAAGCAAAAAAAAACCGAAAAAAAAGAAAAAAAAAAGCUAAAAAAAAGCUAAAAAAAAGUAAAAAAAAAGCAAAAAAAAAGCAAAAAAAAGGCAAAAAAAAAGCAAAAAAAAAGAAAAAAAAAAUCAAAAAAAAAGUAAAAAAAAAGCAAAAAAAAAGCAAAAAAAAAUCAAAAAAAAAGUAAAAAAAAAGCAAAAAAAAAGCAAAAAAAAAGCAAAAAAAAAGCAAAAAAAAUGCGAAAAAAAUGCAAAAAAAAAGCAAAAAAAAAGCAAAAAAAAGGCAAAAAAAAAGCAAAAAAAAAGCGAAAAAAAAGCAAAAAAAAGUAAAAAAAAAAGUAAAAAA'
p159
aF0.96
aa(lp160
S'7 multiloop'
p161
aS'UCCCAACCGAAAGCGCUUUGUAGGAAACUACGGCUAUAAAGAUAGCGACUCGAAACGAUUUGUUAGAAAUGACGAUACAUACUGGUAUGGGA'
p162
aF0.8695652173913043
aa(lp163
S'Kyurem 7'
p164
aS'AAAAAUAGGGGAAGUUAAUUUUAAGAAAAGUUACCGUAAAAGACGUUGGAAGUAAAAUCUGAAACCGUGACAUCACCACCUAGAAAAAAAAAAAAAAAAAAA'
p165
aF0.9411764705882353
aa(lp166
S'JF1'
p167
aS'GAUACAUACAUAGAUAGAAGAUAGAAAAGAUAUCAAGAUAGAAAGAUAGAAGAUAUCAGAUAUAUAUAUAUCAAAAGAUAUAUAUAUAUCAAGAGAAAACUCAGAUAUAUAGAAAACUAUAUAUCAAGAUAGAAAACUAUCAGAUAUCACUAUCACUAUCAGAUAUCAAAGAUAUAUCAAAAAGAUAAUAUCAAGAUAUAUAUAAAUAUAUAUAUAUCAAAAGAUAUAUAUAUAUUGUAUAUAUAUCAAAGAUAGAAAAAACUAUCGAUAUAUAUCAAAAGAUAUAUAUCAAAGAUCAAAAGAUCAACUAUCAACUAUCAUAUCAGAGAGAGAAAACUCCUCGAUAGGAUAAAUAGAAAACUAUUAUAUCAAUGUAAUGAUAUCAAA'
p168
aF1.0
aa(lp169
S'multilooping fun'
p170
aS'CCACGGGCAGUAAUUGAAAGUUCCCAGAAAUACGGG'
p171
aF0.8888888888888888
aa(lp172
S'Multiloop...'
p173
aS'GACGAGAUCAGACAAAAGUCGGAGGAAACUCAGAGAAAACUCAGAGAAAACUCAGCGUAAUCGCAGUGGAAACACAGAUCGGUGAGAAAAAACUCGCGCGGAAACGCCGUC'
p174
aF1.0
aa(lp175
S'hard Y'
p176
aS'AAAAGGGUUAUGCUUAAAUUAAAGGAAUUAGAGGUGGUUAAUAUCAAAGGAUAUUAAUUGACCAAAAA'
p177
aF0.9705882352941176
aa(lp178
S'Mat - Elements & Sections'
p179
aS'AAAAAGAUGAUUAUGUGUUCGGGUAAGAGAAGUACCGGGGCAUAAUUGGAUGUGUACUCCUUUGAAAACAGAGUUGUAUGGAGUCGAAAAAAAAAAAAAAAAAAA'
p180
aF0.9619047619047619
aa(lp181
S'Chicken feet'
p182
aS'AAAAAGAAGCAGUAAAACUUCAAAGCUAAUCUCGGUAGCAGCGAAGUGGAUAUACAAAGCCUCAAAA'
p183
aF0.9104477611940298
aa(lp184
S'Bug 18'
p185
aS'ACCGGCGUCUUCUUGCAAGCUGCGAAGGAAGUGUCCGAUAGCAAGAAAAAGGA'
p186
aF0.9622641509433962
aa(lp187
S'Fractal star x5'
p188
aS'AAAAAGAGAUAUGGAUUCCUAAUGGAAAAGCUGAAAGCAGCAAUAUCAAAGGAUGGAGAUUGAAAGAUCAACAUAUUUCAAAAAGAAAUAUCAAGAUCAAAAGAUCAAGAUCGAAAGAUCAGAUUCGAAAGAAUAAAGUCAAAAGACUGAGAUAUUUCAAAAACAUAUGUGGAGUGGAACGCCACGACAUGUAAUCAUGGGGCUCAAAAGAGCAAGCACAAAUGUGCAACACAUAUGAAAAAGAUAUAUGGAUAUCAAAAGAUAGUCAUGUAAUCAUGUAGAUGGAAACGUCGGGCGCGAAAGUGCAACAUAUAUCAAAAAGUUCUAUGAGGGGCUAAUGCCCAAGGUUAAAAAAUCAGGAUGAAAACAUUAAGUUUGAAAAAGCAACAUGGAGCAAAAA'
p189
aF1.0
aa(lp190
S'Crop circle 2'
p191
aS'AGAAAGCAAAUAAGAAAUAUGAAAAAAAAAGUAAAAAAAAAAAAAAAAAAAAAAAAAAAAUCUAAAAAAAAAAAAAAAAAUAAAAAAAACUUAAAAAAAGGAAGCUAAAA'
p192
aF0.9454545454545454
aa(lp193
S'Branching Loop'
p194
aS'AGACUGGAAAAAAACGAUCAAAGGAUCAGGGUCAAAAAAA'
p195
aF1.0
aa(lp196
S'Bug 38'
p197
aS'AUCGAGACUGGGAAGAAAUAACAGGAAUAGAAAGUA'
p198
aF0.9444444444444444
aa(lp199
S'Simple Single Bond'
p200
aS'AAAAAAGGAAAAAAAUGGAUGAAAAAUCUUAAAAAAAACGAAAAAAAAAAAAAAAAAAAAA'
p201
aF1.0
aa(lp202
S'Taraxacum officinale'
p203
aS'GUGAAAAAUACACAGAUGAAAACAAUGAGACAGAAAUAAUUGGAGUAAAAGGAGAAGAUCGAAAGAAUCGUGCGGAAACAGUAAGAAAUUUAUAGCUUUGAUAUAGAAACUAUAAUCAAGGUACUAUAAGAACUUUAUCGAGAUGUAGAAACUAUAUCAGAUAGAGUUCGAUCAGAUUGUAAAAUAAUCGAUCAUAGUUAACUAUAGAUUUCAUUUCAAAAGAACAGCAUCAAAAGAGUCAUAGCGAAAGACUAAAAGAAAAGGUAGCGUGGUUAAAGGAUA'
p204
aF0.8723404255319149
aa(lp205
S'Headless Bug on Windshield'
p206
aS'AGCGGAGAAAGUCAAAGAGCUAGGGAAAAAAAAAAAAAAAAAAAAAAAAGAUUAGCAAAUUCAGAAACGUGGCAGAGAACAGAAGCGAAAAAAGCAAAGGCAAAAAAAGCAUGAAAAAACGCGGACAGAAAAAAGAUUAAUCAAGUUAAACAGAGAAAAAAAAAAAAAAACGCAAGUAAGACAAGGAAACAAAUAAGUUA'
p207
aF0.98
aa(lp208
S'Pokeball'
p209
aS'AAUGUUGUUGAAAAGCAACCGAGAGAACCAAGGAAGGAAGCAUGAAAAGAAGCUAUAUAACACCACCAAGGACUCAGGAGCCAAUAAUUAAAAAAAGAUUGGGAAAAGCAAGCGUGAGAUGCGUACAAGAAAGCAAGGAAACAAAUGCCCAAGCAUCGGAUAGCUCUCAGCAGCCCCGAUCAAA'
p210
aF0.9782608695652174
aa(lp211
S'Variation of a crop circle'
p212
aS'AAAAGGGAAAAAAAAAAUGAAUAAAAGGAGAUAAAACAACCAAAAGUUAAAAAGUAAAAAAGGCAAAAAAAAAUCAAAAAAAAAAAAA'
p213
aF0.9545454545454546
aa(lp214
S'Loop next to a Multiloop'
p215
aS'AAGAUAUAUUUAAAAAGCGGAUACCAAAAGGUAUCGGAUUUUGAAAACAAGAUCAGAAAAAAUGAUAUAUCAA'
p216
aF1.0
aa(lp217
S'Snowflake 4'
p218
aS'GCCCUAUCCACGAGAGGUGAAACUGACUGAAUAUAGCCGAAAGGGGUGGGAGCAAGCUUUAAGAUAGAAGAUCCCACCGGAAAAUCUGAUCAGGAUGGCGAAAGCGGAAAAGACCUAACGUUAAGAUCGAAGAUCAUUUUUGGAAACGCCAUCAAGAUACUGGAAACGGGUCGCAUCAAAGAUGAAGGUCGAACAUCCAAUUGCGAAAGCCUAUCGUGUUAGCGAAAACGUAUAUCAUCAAGGAUGAAGUUCAAAGAACGUAUGGUAAAAGUCUAGCUGGAUAGCAAAAAUGGACAGCAUGAAACAGGAAGAUGGAAGAUCCUCUCGCAAAGGCCUAUUAACAGUCGUGAAAUCCUCUCGUUGCACCGGC'
p219
aF0.754054054054054
aa(lp220
S'Mat - Cuboid'
p221
aS'GAGGCAAAAGGAUGCAAAAGCAAGAAAAAGGAGGAAUCGAAAGCAAUUAAGCAAAAGAUGAAAGCAAGCAAAAGUGAGCAAGCAAGCAAAAGCGAGCAGGCCAGCAAGCAAAAGCAAGCAAGGAAGCAAGUAAAAUGAGGCAAGUGAACAAGCAAGCAAAAGCGAGCAAGUAAUCAAGCAAGCAAAAGGAAGUAAGCAACUAAAGAAUCGAAAAAGGAAUUAAGGAAGUAAGCAACUGCAAGCAAGGAAGCGGCCAAACGCAAGCGAGUGAACAAGCAAUAGCAGGCGACCAAACAAGCGAAAGCAAGCAAGCAAGCGCGAGCAAGCAAGGGCAAGCAACCUACGCGAGAUAGCGGAAUCAAUGCAAGCGCUAUCGCAAC'
p222
aF0.8526315789473684
aa(lp223
S'Misfolded Aptamer 6'
p224
aS'AAAAAAGAGAAAAAAGGUCAGGGAAAUGUAAAAGAAAGCGAAAACAAAAGGACCAAAAAAGCUCAAAAAAAAAAA'
p225
aF1.0
aa(lp226
S'Snowflake 3'
p227
aS'GAGGUAAAAACACUGGACAAAAGUCAGGAUGAUACAAAGAGAAAACACGAGAGCGAAAGCGUGAAACACGCAAAAGCACUCGCUAAAACUCAAUAUGACAUCAAGAGGAAAUUCGAGAGUAAAAACCAGAAACUGGCGAAAGGACUCGAGAAAAUUCAAGACGGGGUUAAGAGAAAGCUCGGAAGCGAAAGCGAGGAACUCGCAAAAGCAUCCGAGAAAACUCAAGACCACCUCAAUAGAAAACUAGAGGUUAAAAGCGCGAAACGCGCAAAAGCACUCGAGAAAACUCAGGAUAAGCCUAAAAGAAAGAAUGAGAGGAAAACCGACAAACUCGCAAAGGUACUCGAAUAAGCUCAAAGGCCUAUCAAUAAGAAAUUACGCAGCGAAAGCUUC'
p228
aF0.8396946564885496
aa(lp229
S'Hard Y and a bit more'
p230
aS'AAAAGGAUACGAAACACGGAAACGUGCUUCUAAUGACCGAGGUCGAAAGACCAAGAUAGAAAAAGCUAUCGAGGGCGUUAGUAUCAAAAAAAAAAAAAAAAAAAAA'
p231
aF0.9716981132075472
aa(lp232
S'Mat - Lot 2-2 B'
p233
aS'GAAGCGUAAAUCAACCAAAAGCAAGUUAAAAAGAAAAAGCAAGCGGAAGAAAAACCAUCGCGAGGCAAUCAAGCGCGAGCAAAAGCAAGACCAGGCAAAACCAAAAGCGAAGGAAAAAUCAACCGCAAGCGCAACGAAACAAAAGCGCAAGAACAAGCAAAAGUAUGAACAAAAGUAAAAUCUAGAGCAAGUAAAAUCGAGGCGAAGCAAGCAAGAACAAUUAAAAGAAUCAGCAAUAAAAAGUAAAAGCACAAGCAAAAUUUAUCGCAAGUGCAACGAACAGC'
p234
aF0.7992957746478874
aa(lp235
S'Shapes and Energy'
p236
aS'AAAAAACGGUGCAGCUGAAAAUAAAUUUAAGGAAAAGUAGGAACGUGCGGAAUCAAAAAGGCGAAAAUCCUGUAGAGCAGGCAAAAAAAAAAAAAAAAAAA'
p237
aF0.9603960396039604
aa(lp238
S"Spiral of 5's"
p239
aS'GAAAGGAUACAAAGAUAGAAUGAUAGAAAGGAUAGAAAGAUAGAAACAUAGAAGUUAGAAAAGAUAGAAAGAUAGAAGGAUAGAAGAUAGAAGGAUAGGAAGAUAGAAGAUAGAAAGAUCGAAGAUUGAAUAUAGAAGAUAGAAGAUGGAGAUACAGAACUGUUGCAAAAAGCAAUAAAAAAGUUUAAAAAGUAUCAAAAACUAUCAAAAACUAUCAAAAACUAUGAAAAACGAUCAAAAACGAUCAAAAAUUAUCAAAAACUAUCAAAAACUAUCAAAAACUAUCAAAAACUAUCAAAAACUAUCAAAAGCUAUCAAAAACUAGCGAAAACUAUGAAAAACUAUCAAAAACUAUCAAAAACUAUCUAAAACUAUCAAAAAGUAUCAAAAAUAAAAA'
p240
aF0.9949622166246851
aa(lp241
S'Campfire'
p242
aS'AAAAGAUCAAAAUAGAAGAUCACGGUCUAAAUGACCCAUACCAAGGGUAGUGGAUCCAUAUUAAUAGCAUACGCGAAAGUAGUAGCAACAUAUGGCAUCAGCAAAACGGAGCGAUCAGAGUAAUCUACGAAUCAACUAAUGUGUAAUCCUAUCUAGUGAUAGUGAGAUCGAAAGAUCCGCGUCGGUCUAUGUAUCCUAAGAACCUCUAGACC'
p243
aF0.8773584905660378
aa(lp244
S'Anemone'
p245
aS'AAAUGCAUAAAAGGGUAGAGAUAGAAAACUAUCGGUAGCGAAAGUUACCGGCGUAAAGAUGAUGUAAGCAAAAGCUUACCCUAGGAAACUAGGGAGCGUAAUCGCUCGAUUUCGAAAGAGAUCAGAUCGGAAACGAUCUCGGUCGAAAGGCCGAGACAGGAAAUCUUUAGAUUCAAAGGAGUCUGAGUUUAAUAUAUCGAAAUCUAAUGAUUUC'
p246
aF0.9719626168224299
aa(lp247
S'Fractal 3'
p248
aS'AAAAAGACCUGGAGGAAAAGUCGAAAAAACAUCCUAAGGCCAAAAGGGAUAAUUCACUGACUUGGCGAAAGCCCAAAACUAGUCUGACGAUAAAAAUCUAAAAACCCAAUGGUCAAAAA'
p249
aF0.9243697478991597
aa(lp250
S'Kyurem 5'
p251
aS'AAAAAGGGAGAGCGCGAAAGUUCAGAAAACCUGGAUUAAACCAGAAAAUGGAAUCAAGGAAAAACUUGCAGACUGCAUAAUCACGAAAAAAAAAAAAAAAAAAA'
p252
aF0.9230769230769231
aa(lp253
S'Snowflake Necklace ( or v2.0 )'
p254
aS'GAUAUAUAUGUUUAGUGUGAGAGCAAAAAGGAGCAAAAAGCAACAAAAAUCAGCAAAAAGCAGAGAAAAGCACUUUCUGAUGAAAAAUAAGAUAUAGCAAAAAGCGGCAAAAAACAUCGAAAAGAAUCAAAAAGAGGCAAAAAGCAAUAUCUAACAAAAAGUCUGGUAGAGCAAAAAGCAGCAAAAAGCAGCAAAAAGCACCAAAAAGGAGCGAAAAGCACUACCAGACAAAAACUGAGAUAGAGGUAAAUUCAGCAAAAAGCAGCAAAAAGCAGCAAAAAGCAGCAAAAAGCACUAUCAGAGAAAAGCUCAAAUAGUCGAAAAACCUUCAAAAAGUAAUAAAAAGUAGCAAAAAGCACGAAAAACGGCUAUUACUAGACAUAUAUAUC'
p255
aF0.8766066838046273
aa(lp256
S'Methaqualone C16H14N2O Structural Representation'
p257
aS'AAAAAAAGUCAAGCUUAUAUAUAGAAAACUGAGCGGGAAGAAAACUAGAGAUCGAAAACGACGACAGAGUAAUCUUGGAGAUAAAAACUCCCUCACCUACGCAGUAACAAAGAAAGCAGAUCAAAGGAGAGAAAAUAAAAUAAAAAAAACUCAGAGAGAGAAAACGUAAGAAAACUUAAAAAAGCUCCUCACCAAAGAACAGUAUCAGAGAGCGAGACAUACAUUUAAAAGAUGAAAAUCAAAAAGAUAAAGAUCAGUAAGAUAAAAGUCGGUCAUAUAAAAGUCACGCAGAGGAGAAAAUUUAAGAAAACCUAGACAAAACUCCUAACUCAGUUCAAAGAUCAUGACAAAAAAA'
p258
aF0.8816901408450705
aa(lp259
S"Cat's Toy 2"
p260
aS'AAAAGGGAUUUUAAAAAAUGCUAAAAAAAAAAAAAAAAAUUAGCGGAUCGAAAUAGUAACCAAAGGGGAAAAAAGUGAAAAAUGUAAAAUUUCAAAA'
p261
aF0.979381443298969
aa(lp262
S'Zigzag Semicircle'
p263
aS'AAAAGGUAGUCGGGGAAAAUAGAAAUUGUAGAAA'
p264
aF0.9411764705882353
aa(lp265
S'Short String 4'
p266
aS'AAAAAUAGUGAAAGUUUGAAAGUCCAGUAAAAACGCUGUACAGACAAGGGAAAAUUAAUGGUCAAGCUCCAAUUUCUAAAAAAAAAAAAAAAAAAAA'
p267
aF0.9381443298969072
aa(lp268
S'Gladius'
p269
aS'CAAAAGAGAAAAAGAAAGAAUGGAGGAAAAUGAGAUAAUGAUCAAAAGAUCUGAGAGAAGGGAGAAGAGGUGAAGAGAUCUAGGUAGUUAUCAGAUAAAACAUAUAUAACAGAUGAGGAUCAAAGAUCAUAUACGUUCAUUAUGAAUUAUCGAAUAGCUGAACUGAUCAACACACCCACACUCAACAUUCUCACCCAAAUCGACCUAGACAAGUGGGAAGCUCUGAACAUCAGAGGAUAUAUAGAGAGGCGGUUGAGAUAACAGAGAGAGGUCAAAAGAUUUCGACUUGAUUAUACCAACACCCUUUACGUAUAUCACUAGAUGACAUGAGCACGACGCAGAACUAGGAGAUCGAAAGAUCCAACGAGGGAGAGCAACAAGACAAACAAAAUAAGAAAAU'
p270
aF0.9
aa(lp271
S'Thunderbolt'
p272
aS'GCAAGAUAGAAAAAAAAGAGCAAGCAGAAAAAGAAAACAGUUAUAUCAAAAAAAAACCAAAAAAUAUUAAAAAGAUGAAAAAAGGAAAGUAAGGAAAAAAUUAAGAAAAAACAAGUAGCAGGCAAAAAGAAAACAGAGCAAAAAGCAAAAAGGAAACAAAACUGGUAACAAAAACAAAGACUAAAGAAAAAAACUGUAUCAAAGAAAAAGAAAAAAACAAAAAUCAAAAAAAAGUUCAAAAAGAGUUCAAAGAGUUCAGCAAGCGAAAAAAAAAACCAAACAAAAAAAAACAAGUAAAAGGAUAUCAAAAAAAAAAAAAAUAAAAAGAUAUCAACGAGAAGGAUAUAACGAAAAAAACAGCAGGCAGAAAAAGAAAAAAACACUAUCAAGCA'
p273
aF0.9540816326530612
aa(lp274
S'Mutated chicken feet'
p275
aS'AAAAAAAUUAGCAUUAAGGAGGCUAUUCAAAGCGAACGAUUAGAAAAUCAGUUAUGGUAGAGUCUACAGUAGGAAGCCAAUAAAGUAAGGCGUUAAAAAA'
p276
aF0.84
aa(lp277
S'Chicken Tracks'
p278
aS'AAAAAAAAUAUAUAGCAUCAAAAGAUGAAGAUCAAAAGAUCAAGAUCAAAAGAUCCUAUAUGAAGAGCAUCAAAGAUGAAGAUCAAAGAUCAAGACCAAAGGUCCUCAAAAAAAAA'
p279
aF1.0
aa(lp280
S'Looking Back Again'
p281
aS'GACAAGAGCAUCAAAAAGAUACCUAUGGUAUCAGAUCAGGAAACGACGAGGAACUCCGGUGAUAGAAAAAGUGAAAACUUAAAACUAUCUAUUCAACUCAUUACCGAGAAAAGGAUAGAAAACUAUCAAAAAACUAGUUAGGAUAGGAACUAUCCUUUGAAACGAACGAUAUGGCGACUUGAACGGGUAGAAGAUCAAAAGAUCGACUCAACUUUCAGCGAGUAACCUCAAGAUAUCAAACUAGCGGUGUGAGAGAGAUCGAAAAGGUUAUAUAAAAAAAAUAGGAAAAACCUAAUAUAAAAACACAUCGAUCAAAAAAGCCGGGCCAAAGGGCCUGAAGAAUUAAAAAAGAUCGUAACGAUUGAUCCGCGAAAGAUCCUCUCAAAGUC'
p282
aF0.87146529562982
aa(lp283
S'Multilooping 6'
p284
aS'AAAGGUGUCGUACACGAAAGUCUCGAGAUGAAAAUCUUCGUGAAUUUACUACUGUAAACAGGCGAAAGUCUGGCUCACCUGA'
p285
aF0.926829268292683
aa(lp286
S'Cesspool'
p287
aS'GCGUAAGAAAACAAGAGAAGAGAUAUAAAGUGAACAAUUACCCAAGUAGAAAACAUCAGAAAAAAAUAACAAAAAUAAAAGAAAAACAACAAUAGGAAAACAAGAGGAGAGUGGGAAACUUAACAGCAACCCAACAAGAAAACAAGAGAAGAAAACAACAAAAAGAAAACAAAAGGAGGCAAUAAGAAAAUAAGAGAAGAUACGAAAAUCGGUAAACAGCUCAAGAAGAAAGAAACAGAUGAAAACUACAAAAAAGAAAUAAAAAGCAAGCAAUAGGAAAACAAGAUAAGGGGAAGAAAGUCAGCAAUAAAUCAAGAAGAAAACAACAGACGUAAUUAACAAAAAGAAAACAAAAAGC'
p288
aF0.770949720670391
aa(lp289
S'Hoglafractal'
p290
aS'AAGUGGAAUAUAGAAAAGAUUGAAAAAACAAUCCUAUAGAACAAAGAUCAAAAAGAUCGUUCGUGAAGUGAAAGCACCACAGGGAAAGAUCAAAGACCUAAAAUGGUCGAUCGAAAUCAGGAAAACUGUACUCAGCGAAAGCGAGGAGCAAAAUAGUAGAGAAAAAACUCUCGGAAGCAAAAGGCUAGACAAAAGUCAGAUAGAAAAAGCAGCAAAAAAGCGCGAUAAAAAGUCGCUAAAGCAGGUAGCAAAAAAGAGAAAAAACUCGGAAAAGUCAAAGAUAUAGAAACUAUGUCAAAAAAAGUUAUCAAAAAACUAUCGAAAAGCUCGAAACUCAAAACAACGAAGGGCAUCUCAAAAUGAAAAUGGCGAAAGCGACAUCAAAGAUGUCAGAGGGCAC'
p291
aF0.92
aa(lp292
S'Bullseye'
p293
aS'AAGUAGAUCCGAAGCAUAUGGAGUAUUAUCUACGGCAAAACUCCUAAAAAAAAGCGGAAUCAAAGAUUAAAAUAAACGGAUGAGAUAGAAGGUCCUCAAAAAAAAUAGGGGAAAAGCCUAAGCCUUAUAGACAAGGAAAAGUAGCCUCAAAAAAAAUCGCCCAAAGCGUGAAGUUUGAAACGCAACAUGGAAUACGUGAAAA'
p294
aF0.7821782178217822
aa(lp295
S'Shooting Star'
p296
aS'GAUAUCGAUAGAUAAAGUACGACACGCUUACAGAGAUCGAAAAAGCUAACUAUGAUAAGAAUCCUUGGCAGACGGAUGAGAUGCGAAGAUGUCGAGUCAAAUCAGGAAAAUACGAUGAGGUCAGACACAGCACAUUACAGAUGAAAACAAUAUUCAUUCAAAGAAACCCAUAGAUAGAAGCUAUCCGGAAAAUACAAAUCAGAUCAGAGCAGGUGAAAGACAUUGAAACAAUGUCAGCUUGAAGCGAUCCACCGAAAUAUUAUGUAUUUCAGACAGAAACUGUCGCUCUAUGAAGAAAACUAGGAAAAAGGGAUAGAGAUCAGGAAAAUACGAUACCUAACAACGAUUCAAACAUGAGAUAUCA'
p297
aF0.804945054945055
aa(lp298
S'Teslagon'
p299
aS'AAAAAAUAAAAAAAGGCAGGUAAAAAAUCCCAGAAAAAAAAAAAAAAUGAAAAAAAAACAAAAAAAAAAAAAAAAAGCGGGAAAAAUGCGGCCAAAAAUCUAAAAAAAAAAAAAAAGGUAAAAAAGCAGGAAAAAAAGAGUCAAAAAAAAAAAAAAAGAAAAAAAAAGGCGAAAAAAAAAAAAAAGCAAUAAAAAAAUCAGCGAAAAAAGCAAAAAAAAAAAAAAAGCAAAAAAAGCAGCGAAAAAAGCUUCAAAAAAAAAAAAAAAGGUAAAAAAAAGGAAAAAAAAAAAAAAACCAACAAAAAAACCAGUAAAAAAAUGAAAAAAAAAAAACAAAAAAAAAAAAAAAAUGACCAAAAAAAACAGCAAAAAAAUGAAAAAA'
p300
aF0.9057591623036649
aa.