(lp0
(lp1
S'Simple Hairpin'
p2
aS'GAUACAAAAAAGUAUC'
p3
aF1.0
aa(lp4
S'Arabidopsis Thaliana 6 RNA - Difficulty Level 0'
p5
aS'GCGAUGCAAAAGGCAAAAAAAAAAAGCCGCGCUAUGAAGAUAUGAUAAUAUCAUAAUAAAGAUGCAAAAAAGUAUCAAUUAUGAAUAUUAUUAUAUCAACAUAGCGCAAGCAUCGC'
p6
aF1.0
aa(lp7
S'Prion Pseudoknot - Difficulty Level 0'
p8
aS'GAUAGGAGAUGAAAACAUCCCUAAUCAAAAAAAAAA'
p9
aF1.0
aa(lp10
S'Human Integrated Adenovirus - Difficulty Level 0'
p11
aS'GAUACAACAUUGUCGGCGAUGAAAAAAAAAAAUAGGAUGAGGUCGAGGGGACAUGGAAAAAUCGUCAUAGAUAUGAAAAAAAAUAUUUAUGAAAAAGGAACACCAAAAGUGGGCAAUAUAAGGAACCCUGUUUAAAAAUGAUAGGCUUGGAAAAAAAAAAGCAUUGCAGACAAAAAGUGUUGAACUGUCAAA'
p12
aF0.9895833333333334
aa(lp13
S'The Gammaretrovirus Signal - Difficulty Level 0'
p14
aS'AGGUCGAGCGACGGAAACGUUGCAAGUCAAAAAAGAUCAAGGCAGAUCCAGAGGAAACUCUGAAAAGAUCGCCGAUCAAACGAUAUGUAAUCAUAUCGUGA'
p15
aF1.0
aa(lp16
S'Saccharomyces Cerevisiae - Difficulty Level 0'
p17
aS'GCUGAGACCCGGAAAAAAAUGGGGUCGGAAAAAAAAAAAGAGAAAAAGACUUUAAAAAUAAGUACCUCAGCGAAAAAGCUUCAGGGGUUAAAAAAUAUUUGACUAAAAAAAAAAAUGUGGAAACUGCCUAAAAAUGGCAGCAAGCAUGAAAUAUAGACAACUUGAAAAAAAGUAGGCGGGCGGAAAAAACGCCUGAAAAGAUACGAAAAAAGUAUCGUUUAUGGAAUACGAUGUAACAGGUAAAAAAUCCUGACUAGGGAAAAAACCUAGUAAAGGAGACGAAAAAAGUCUCACAUCGUUAAAGCGACGCAAUACAAAAAAAAGUGUGGAAAUAUAAAAAUUAUUUCAAAAGAAUCAAAAAAGGGUUCGCGUCGCGAAA'
p18
aF0.9947229551451188
aa(lp19
S'Fractal 2'
p20
aS'AAAAUGCGGUACGAAAACAAUAUGUAAAGACGAAAAAAAAAACGUCAACAUGUAAAAAAAAUCAUGGUUGGGUAAAUAAAAUUCCAUGUAUAUAUUGUAAAUAUCAAUACAAGGAUCAAAAAAAAAGGAUCAAGUUGGAAAAAAAAACAACGAUCUGAAAAAAAAAGCAGAGGUGUAUUGAUAAAAGGCAUUGAUAUAGACCAAAAAAAAAAGGUUAAGCUGGAAAAAAAAACAGCAGGAGGAAAAAAAAAGCUUCAUUGUCAAUGUCAAACGUACCGCUAAAA'
p21
aF1.0
aa(lp22
S'G-C Placement'
p23
aS'GAUCAAAGAUCA'
p24
aF1.0
aa(lp25
S'The Sun'
p26
aS'GUGAUUGGAGCAACGCUCAGCAACACAAUUGCAGCGGUGCAAAGCACAACGCGCCGAAGGCAACGAGGGUAUUCCCAACUCAUCAAAGGUACCGGAGCAAAGCUUAACGGACCAAGGAUACGGCUCCGAAGGAGACCCGAUCAAACGCAGCGAUGCAAAGCAUAACGCGCGAAAGUGAGCGCUGCAAAGCAUAACGCUACAAAGGCAUCGCCACUAUGGACAACGAGCCAAGGGCACUGAGGUAAAGUAAGACACGCC'
p27
aF0.875968992248062
aa(lp28
S'Frog Foot'
p29
aS'AAAAAAAAAAGAUAGAAAUAUCCAUUGAAAAAUGCCACGAAGUGG'
p30
aF1.0
aa(lp31
S'InfoRNA test 16'
p32
aS'GCUAUGUGAGGUAUCGAAAGAUACGCUACUCAUAGC'
p33
aF1.0
aa(lp34
S'Mat - Martian 2'
p35
aS'GUUGAAAACAACAAAGCGAUGCAAGCGAUGCAAAAAAAGCAUCGCGCAUCGCAAAGCGCUAUGAAAAAAGCGAUGCAGCGAUGCAAAAAAAGCAUCGCGCAUCGCAAGGAUAUUACAAUAUUAAAAAAAAAUAUUGUUAGUAUCAAAAAACAUAGCGCAAAGAUAGUAUAAUAUUAAAAAAAAAUAUUAAAUACUAUCAAAGAUGAAAACAUC'
p36
aF1.0
aa(lp37
S'square'
p38
aS'GCGCUACGCGAUCGCGAUGCGCGAUCAAAGAUCGCAAAAGCAUCGCAAAAGAUCGCAAAAGUAGCGC'
p39
aF1.0
aa(lp40
S'Six legd turtle 2'
p41
aS'AAAAAGCAAAGCGAAAGCAAAGCGAAAGCAAAGCGAAAGCAAAGCGAAAGCAAAGCGAAAGCAAAGCGAAAGCAAAGCAAAAAAAAAAAAAAAAAAAA'
p42
aF1.0
aa(lp43
S'Small and Easy 6'
p44
aS'UACACAAAAAAGAAGCGAAAAACAAACUAA'
p45
aF0.9333333333333333
aa(lp46
S'Fractile'
p47
aS'AAAAAAAAAAAAGCGAAAGCAAAGCAAAGCGAAAGCAAGCAAAGCGAAAGCAAAGCAAGCGAAAGCAAAGCAAGCGAAAGCAAAAAAAAAAAAAAAAAAAAAAAA'
p48
aF1.0
aa(lp49
S'Six legd Turtle'
p50
aS'AAAAAAUAAAGCAAAAAUCAAAAGCAAAGGCGAAAGGGAAACCGAAGACUAAGUGAAAAUGUAAUCGAAAACUGAAAAGAAAAACAAAAAAAAAAAAAAAAAAAA'
p51
aF0.9619047619047619
aa(lp52
S'snoRNA SNORD64'
p53
aS'GCUAUGAAAAAGGCAAAAGGCAAAGAUACAAAAAAAAAAAAAGUAUCAAAAGCCAAGCCAAUAUAGC'
p54
aF1.0
aa(lp55
S'Chalk Outline'
p56
aS'AAAAACAGCAGAUACGAAAGUAGUCGAGAAGGAGAAAUCCUCUAGCUAGGAAAACCAUAGCAGGGAGGAAACUUACCGCUGACAAAAAAAAAAAAAAAAAAAAA'
p57
aF1.0
aa(lp58
S'InfoRNA bulge test 9'
p59
aS'GCGAUGCAGAGAGAGCGAUGGAAAGUCAUCGCCCCGCAUCGC'
p60
aF1.0
aa(lp61
S'Tilted Russian Cross'
p62
aS'AAAAAGAGGGAGGUAAUCCUGGGUAAGUUCUAAUGAACGCGUCAAAGGACGCAGGAUGAAAGUUCUAUCUAAGAAAGCUUGCUUCGAAAAAAAAAAAAAAAAAAA'
p63
aF0.9809523809523809
aa(lp64
S'This is ACTUALLY Small And Easy 6'
p65
aS'AAAGAUAUAAAAAAAAAAAAAAAAAAAAAAAAAAAAAAAAAAAAAAAAAAAAAAAAAAAAAAAAAAAAAAAAAAAAAAAAAAAAAAAAAAAAAAAAAAAAAAAAAAAAAAAAAAAAAAAAAAAAAAAAAAAAAAAAAAAAAAAAAAAAAAAAAAAAAAAAAAAAAAAAAAAAAAAAAAAAAAAAAAAAAAAAAAAAAAAAAAAAAAAAAAAAAAAAAAAAAAAAAAAAAAAAAAAAAAAAAAAAAAAAAAAAAAAAAAAAAAAAAAAAAAAAAAAAAAAAAAAAAAAAAAAAAAAAAAAAAAAAAAAAAAAAAAAAAAAAAAAAAAAAAAAAAAAAAAAAAAAAAAAAAAAAAAAAAAAAAAAAAAAAAAAAAAAAAAAAAAAAAAAAAAAAAAAAAAAA'
p66
aF1.0
aa(lp67
S'Shortie 4'
p68
aS'GCGAAAGCAGCGAAAGC'
p69
aF1.0
aa(lp70
S'Shape Test'
p71
aS'AAAAACGGAUGAAGAUACAAAAAAAAGUAUCAAGGCAGGCAGAUACAAAAAGUAUCAGAUGAAAACAUCAGCCGCCAACAUCGGAAAAAAAAAAAAAAAAAAAA'
p72
aF1.0
aa(lp73
S'The Minitsry'
p74
aS'GGCAAAAAGGCAAAAAGGAAAAAAGGCAAAAAGGCAAAAAAAAGCCAGCCAUCCAGCCAGCC'
p75
aF1.0
aa(lp76
S'stickshift'
p77
aS'AAGCGAUCCGAAAAACGAGAUCGCAA'
p78
aF1.0
aa(lp79
S'U'
p80
aS'AAAAGAAUACAGAGAGCAGAGCGCCAUACGAAAGUAUGGCGCCGCCCGUAUUAAAAA'
p81
aF1.0
aa(lp82
S'Still Life (Sunflower In A Vase)'
p83
aS'AAUGACGGGGUACCAAAAGGGUACAAUAAACAAGGUUUGAAGGUGCAAAAAGUACCAACAUAUAAUAUAUCAUGAAUAGAAAAGGAUAUGUAGACAAAAAGUCUGAGGUCUUGUAAUAUUAUAUUUUUAGUUACAAAAAAGUGACAGGUACUAAAAAAAAAAAAGAUUAAAAAAAAAAAAAAAAAAAAAAAAAAAAAAAAAAAAAAAAGGAUCACAAAAAAAAAAUGUACCGAAGCGAAAGCUUCAUAGAAGUAUAAUAUUAUAAGAUCAAGAGACAAAAAGUCUCAAGGUAGAAAAACUAUCAAGCUACUAAAUGUAGAGAUAUACGAAAAGUAUGAUGAUACGAAAGUGUCUACUAACAAAAAGUUAGACGUCUAA'
p84
aF0.9682539682539683
aa(lp85
S'Quasispecies 2-2 Loop Challenge'
p86
aS'AAAAAGAUGCAGGAAGAUGAAAAUAUCGACCUGAGAUGAACUAUGGACAUCAGACUGGCGAGGCGAAAAGCCAAGAAAGUCCAUCAAAAAAAAAAAAAAAAAAAA'
p87
aF1.0
aa(lp88
S'Corner bulge training'
p89
aS'AGCUAUGCAGAGAAACUCUGAAAACAUAGCA'
p90
aF1.0
aa(lp91
S'Spiral'
p92
aS'AAAAAGAUCAGCUAUGAGGCAGAUACAGAUCAGAUCAGCAGCAGCAGCAGCAGCAAAAAGCGCGCGCGCGCGAUCGAUCGUAUCGCCCAUAGCGAUCAAAAA'
p93
aF1.0
aa(lp94
S'InfoRNA bulge test'
p95
aS'AAAAAAAAAAAAAAAAAAAAAAAAAAAAACGCGGAAAACCCCUUAACGACCAAGCUCUAACAAGUCAGGAAAAGCCAUGUCUAUGAAGGAAGAAAGGAUCAAAAUAGAGGAAAAAACGACGG'
p96
aF1.0
aa(lp97
S'Worm 1'
p98
aS'AAAAAAAGGGGGGGAGAGCAGAACAAAAGAUCAGCACACGCGCGC'
p99
aF1.0
aa(lp100
S'just down to 1 bulge'
p101
aS'AAAAAGAGCAGAUACGAAAGUAUCAGGCAAAGGCCAGUAUCAAAAGAUGAGGCGAAAGCCAGGCGAAAGCCACAUCAAAAAAAAAAAAAAAAAAAA'
p102
aF1.0
aa(lp103
S'Iron Cross'
p104
aS'AGGCAGGCAAAGGCACAGAAACUGAGGCGAAAGCCAGCCAAAGGGACAGAAAACUGAGGCAAAGCCGCCCAAAGGUACAGAAAACUGAGGCAAAGCCAACCAAAGCCACAGAAACUGAGCCGA'
p105
aF1.0
aa(lp106
S'loops and stems'
p107
aS'AAAAAGCGAUGCUAAGAAUUAAGAUGAAAUGUCAAAAAAAAUAAUACAAAAAAAAAAAGGUAUUUAAGACGAAAAGUGCAAAAAAAAAAGCACAAACAUCAUUGUCAAAAAAAAGACUAUAUUCAAGUUAAAAUGCGAUGCAUCGCAAAAA'
p108
aF1.0
aa(lp109
S'Water Strider'
p110
aS'AAAAGGCGAUUUGAGGUAGGAGAAAUUCAGCGAAAGCUGACGGGGUGCAGGCAAAGGCCUGCGAAAGCAACCAUGUGGCAGCAAAAAAAAAAAAAAAAAAAAA'
p111
aF0.9611650485436893
aa(lp112
S'The Turtle(s) Move(s)'
p113
aS'AAAGCGAAAGCAAAAGCGCUAUACAAAAAAAAAGUAUAGCGCAAAAGAUGAAAAACAUCAAAAAGGCGAAAGCCGAAGAUACAAAAAAAGUAUCAAAACCGAAAGCGAAAGCAAAAAGGCGAAAGCCAAAACAUGCUAAAAAAAAGCAUGAAAAGUCGAAAGACAAAAAGCUAUGAAAAGGCAAAAAAAGCCAAGGCAAAAAAAAGCCGAAGAUACAAAAAAGUAUCGAAGAUGAAAAACAUCAACAUAGCAAAAAAAAAGCGAAAGCAAAAAGCAAAAGCAAAAAAAUAGGAAAAAAAAAACCUAUAAAAAACGG'
p114
aF1.0
aa(lp115
S'Adenine'
p116
aS'GAUACAGCUAUGAGCUAUGAGCUAUGAGCUAUGAGCUAUGAAAAGCUAUGAAAAAAUAUAGCACAUAGCGCAGAGAAAGCGAUGCAAAGCAUCGCCUCUGACAUAGCAGAUAAAUAUAUCAAAGAUAUAUAAAUUAUCACAUAGCAAAACAUAGCAAAACAUAGCAAAAGUAUC'
p117
aF1.0
aa(lp118
S'Tripod5'
p119
aS'AACGGUACGUUAAAUACGUCUUGAAAAUCAGGGCCGGA'
p120
aF1.0
aa(lp121
S'Shortie 6'
p122
aS'GCGAAAGCAGCGAAAGCAGCGAAAGCAGCGAAAGC'
p123
aF1.0
aa(lp124
S'Runner'
p125
aS'AAAAUGAUUAGAUGAAAAGGAUGAAAUGUCAUAUCAAAGAUAAGGUUCCAGAUCUCAAGUCGGUACGAAAUGUAAAAACAACCAAUCGCAAGGUUGAAAGGCAGCGUAGUCUAAAA'
p126
aF0.9310344827586207
aa(lp127
S'Recoil'
p128
aS'AAAAAGAUACAAGCAAGCAAGGCAAGGCAAGCAAGCAAAGCAGCAGCCAGCCAGCAGCAGUAUCAAAAAAAAAAAAAAAAAAAAA'
p129
aF1.0
aa(lp130
S'[CloudBeta] An Arm and a Leg 1.0'
p131
aS'AAAAAAGCUGCAGCGAAAGCGUGCCGAAGCGAAAGCUCGUGUUGAAAAAAAAAAAAAAAAAAA'
p132
aF1.0
aa(lp133
S'[CloudBeta] 5 Adjacent Stack Multi-Branch Loop'
p134
aS'GAUAGCAUGGUAACAUGGUUAGGAAACUAGCGAUACUAAUGUGUCGAUCGAAAGAUCCUAUCA'
p135
aF1.0
aa(lp136
S'Triple Y'
p137
aS'AAAAGUAGGUAUGGAUGGAAAUAUCGUUGUAAUCAGCUCUGGCCCGGUGUAAUCAUCACAGCAACCUUUGAGGUCUAAAAAAAAAAAAAAAAAAAAA'
p138
aF0.9175257731958762
aa(lp139
S'Misfolded Aptamer'
p140
aS'GAAGUAAAAAGCGGCAAAGCCAGCGAAAGCAAAAAAAAAGCAAAAUCUUC'
p141
aF1.0
aa(lp142
S'Flower power'
p143
aS'AAAAGGCUAUAUCGAAGAUGUGUUAAGGGGAACCUUAGGAUCGAAGGUUUAAGGUGAAAUUUCAACUGCGAGAAUCUUUAGUAAAAAAAAAAAAAAAAAAAA'
p144
aF0.8627450980392157
aa(lp145
S'Kudzu'
p146
aS'AAAAAAGCUGGGAGGCUUCCUUCUAACAAAGCAGAACACGUUACUAAUGGAUAGCAAUGCAAAGUGAAACUUAUAAUAGGUGAAAAAAAAAAAAAAAAAAA'
p147
aF0.9801980198019802
aa(lp148
S'"1,2,3and4bulges"'
p149
aS'AAAAAGAAGAGGUCGAAAAGGGAAAAGCGGACAAAGGCCACUAUCAAAAGCGCGUGUAAAUGAAACGGAGCAAAGGAUACUAAGCGAAAAAAAAAAAAAAAAAAA'
p150
aF0.9619047619047619
aa(lp151
S'medallion'
p152
aS'CUUAUUAUCUGGUAAAGGCUAGGAUGCGAAAGCAGGCUCAAUGUCAGCGAUGAAAACAUUGCACCCUAAUGGGGGCUAGUAAAAGUAAGCAUGUAAACAAGAAGCAAAGGCUAGCUCGGAAAACUUACAAGGCGAAAGCCAGUUGUGAAAACACAGCAGGCGAAAGCCAAGGGAAAUCCAGUGGUUGAAAAAUUACGGGCGAAGGCUUGUUAGGAAAACUUGACUUGCGAAAGCAGGUUGAAAAGCAGCCAGGAAAACUUGGCAUGUGAAAACAUGCACCGGAAACGGUGCUGGCGAAAGCCAUGCGAAAGCAAGCGAUGAAAACAUUGAAGCUAGA'
p153
aF0.9584569732937686
aa(lp154
S'[RNA] Repetitious Sequences 8/10'
p155
aS'AGGAAAAAAGCAAAAAAGCAAAAAAGCAAAAAAGUAAAAAAACAAAAAAGGCAAAAACCAAAAAAGCAAAAAACCAAAAA'
p156
aF1.0
aa(lp157
S'Documenting repetitious behavior'
p158
aS'AAAAAAGGGAAAAAAAAAGGUAAAAAAACGGAAAAAAAAAUGAAAAAAAAAGGAAAAAAAAAUGGAAAAAAAGUGUAAAAAAAAAGAAAAAAAAAGGAAAAAAAAAGGAAAAAAAAAUGUAAAAAAAAGAAAAAAAAAAAGAAAAAAAAAUUAAAAAAAAAAGAAAAAAAAAUGAAAGAAAAUGGAAAAAAAAUUGAAAAAAAAACAAAAAAAAAACCUAAAAAAAGCAAAAAAAAAAAUAAAAAAAAACGAAAAAAAAACUGAAAAAAAAUCGAAAAAAAUCAAAAAAAAAACCGAAAAAAAACGAAAAAAAAACCAAAAAAAAUCGAAAAAAAAACGAAAAAAAAACCGAAAAAAAACAAAAAAAAAACCCAAAAAAAUCCAAAAAAAAACCAAAAAA'
p159
aF0.965
aa(lp160
S'7 multiloop'
p161
aS'GGGGCCCUGGAAACAGGGUCUGGGAAACCAGAGACACGAAAGUGUUGACAGUAAUUUGUCGAUACGAAAGUAUCGGUACGAAAGUACCCCCC'
p162
aF1.0
aa(lp163
S'Kyurem 7'
p164
aS'AAAAUGCUAGGUGAAUAAUUGCCUUCAAAUUCGUUCGGAAAACGAGGGCUCGAAAAAGUUGAAAGUCGUAUGAGGCCGAGGUUAAAAAAAAAAAAAAAAAAA'
p165
aF0.9411764705882353
aa(lp166
S'JF1'
p167
aS'AGAAGAUAUAAAGAUAGAUGAUACAAAAGCUAUGAAGAUACAAAGAUACAAGAUAUGAGAUAUUAUAAUAUUGAAAAAUAUUAUAAUAUCAAGGCGAAAGCCAGCGCUAUACUAAUGUAUAGCGCAACAUACGAAAGUAUGACAUAUCAGUGUCAGUAUCACAUAGCAAAGCGCUGUGAAAAACAUAAGCGCAAGAUGUUAUAACAUUAUAAUAUUAUGAAAAUAAUAUUAUAAUGAUUAUAAUAUCAAAUAUACAAAAAAGUAUGGAGAUAUAUCGAAAGAUAUAUCUCGGAGAUGAAAACAUCAAGUAUCUAUUAUCAGGGCAGGCAGGCGAAAGCCGCCGCCCAGCGAAAUACGAAAGUAUUAUCGCAUUAUAAUCAUUCUAGA'
p168
aF1.0
aa(lp169
S'multilooping fun'
p170
aS'UUAUAGCGAUAAUAGGGAAAUAUAGAGUAAAAGGAG'
p171
aF0.8333333333333334
aa(lp172
S'Multiloop...'
p173
aS'GAUGAUAUGAGGCGAAAGCCAGGCGAAAGCCAGGCGAAAGCCAGGCGAAAGCCAGGCGAAAGCCAGGCGAAAGCCACAUAAGAUACAAAAAAGUAUCGGCGAAAGCCCAUC'
p174
aF1.0
aa(lp175
S'hard Y'
p176
aS'AAAAGGCGAGAAGAACAGGGAAAGCUUUGUUACUUGAGAGGGCUCGAAAGAGCUUUCUCUCGCAUAAA'
p177
aF0.9705882352941176
aa(lp178
S'Mat - Elements & Sections'
p179
aS'AAAAGGAUGGUAAAGAGCUGGUAGAUCAGUAGCGCAGCGGGUUAAUACCAGACGUGCGUCGAUCAAAGGGCAGCGCGAAAACAUCAAAAAAAAAAAAAAAAAAAA'
p180
aF0.9619047619047619
aa(lp181
S'Chicken feet'
p182
aS'AAAAAGCAUCUGCGAAGCAGGUAUAUAAUCGAGGGCGCAUAGGAAUUUCCGAAAAAAAUGACAAAAA'
p183
aF0.8805970149253731
aa(lp184
S'Bug 18'
p185
aS'AGGGGAUUAGGUAUGCAAGCAGAAAAAUAAGUGGUAACGAUGAGUCAAAUUCG'
p186
aF0.9245283018867925
aa(lp187
S'Fractal star x5'
p188
aS'AAAAAGGUGGAAGAAUACGAAAACGUGGGUAUGUAAUCAUAAUGCGGUAAUCUGCUAUUUGGAAACAGAAGCUUCUAUCAAAAACAAUUGUUAAGAGGAAAGCCUCGAGAGUCUCUAUUCAAGAGUGAAAACUCAGGCCUAACAAGGCAAGACAGUUGAAAAAGCGGUUUUAGCUGUAAAAACAGAUGUAGAAAGCUACUAACCGAAAACGGUGGGAUCAAAGGAUCAAAAAACCGCGAAAGUCGUUAUGUUUAUGGAAACAUGUGUUUGGAAACAAGAACUAAAAAAUUGGGGGCUCAAAAGAGCAUCAUAGCGGAAAAGCUUCACUGAACAUAUAAUUAUGACUAUGUAAACAUGAAGAUCUAAUGAUCGUGAUAGAAAUGUCUACGGUGGAGAAAAA'
p189
aF1.0
aa(lp190
S'Crop circle 2'
p191
aS'GCAAAAGAAAAUUAAAAGUAAAAAAAAAGGAAAAAAAAAAAAAAAAAAAAAAAAAAAAAAAUCAAAAAAAAAAAAAAGUAAAAAAAAAAGGGAAAAAACAAAAGGCAAAA'
p192
aF0.9454545454545454
aa(lp193
S'Branching Loop'
p194
aS'GCGGAGGAAAAAAAUGAGAGAAAUCUCCAUCUGAAAAAAA'
p195
aF0.95
aa(lp196
S'Bug 38'
p197
aS'AUCAGGUGGAAGACAAAAUUUUGGGAUUCUAAAGGA'
p198
aF0.9444444444444444
aa(lp199
S'Simple Single Bond'
p200
aS'AAAAAAGGAAAAAAAUAUCAGAAAAUGAUUAAAAAAAACAAAAAAAAAAAAAAAAAAAAAA'
p201
aF1.0
aa(lp202
S'Taraxacum officinale'
p203
aS'GCUGGAAACAAGCGCUGUUAAUGACGGAGAUUAAAAAAAUACGUUGAAAACAAUCACUGUAAAAAAUGCGGGUCAAAGGAACGAGAUUUGUGUACGAUCGAGAAACGAAGUUUCUUCGAUCGGAUACAACAGUUAUUUAAUGAGAGACAAAGUUUCUCUUAGAUAACUGGAUCACCUAUGGAACAUAGGGAUCGUAUUAAAGUAUGUGAAUCUCAAAAGACUAAUGUGGCUGAAAGAGCCUGAGGAAAACCCUCUGAUGAAAGCCAUCAGAAAAAAAUAAUC'
p204
aF0.8900709219858156
aa(lp205
S'Headless Bug on Windshield'
p206
aS'AGUGGCGAAAAAGGACGAAGUGUGGGAAAAAAAAAAAAAAAAAAAAAAAACCAAGUAAAGUCACUGAAGCAGCAGGGGAGGCAAGGAAAAAAAUAAAAGUAAAAAAAACCGCUAAAAAACCCAAGGGAAAAAAAAGGAAAGAAAACCAAGGGAACUAAAAAAAAAAAAAUCUUAAUAAGGGCAAUUAGCCAAGGUAAGUG'
p207
aF0.99
aa(lp208
S'Pokeball'
p209
aS'AAAUACCUGGAAAACGAAGCGGGAGGGGAAAGGAAGAAGGAUGACAAGAAAAUCAUCAACCAUGACCGAUCAGUCAGCAUGUCGGGUAAAAAAAAAUCGAGCGAAAAAAGAGUGAAAAAACAGAUGAAGGCAGAUAACAACGAAAACAGAACUCACCGCAAAUGAGUUAUCAUCUCAUCGGAAA'
p210
aF0.8913043478260869
aa(lp211
S'Variation of a crop circle'
p212
aS'AAAGCAAAAUCAAAAUCUUAAAGGCAUCGAGCAAGGCAAGUAAAGUCAAAAAUCGUAAAAAACGUAAAAAAAAGUAAAAAAAAAAAAA'
p213
aF0.9545454545454546
aa(lp214
S'Loop next to a Multiloop'
p215
aS'AAGGGCUAUGAAAAAAGGGGCUUUGAAAGCAGAGCAGCCAUUCGAAAGAAUGGCUCAAAAAAGCAUGGCUCAA'
p216
aF0.9726027397260274
aa(lp217
S'Snowflake 4'
p218
aS'GGCCGAAGGUCUAGUUUCGAAACCGCAACAGGCAGUGUAAAGGCGCGAGGUUGGAAUCUCAAGAAUAAAGACCCUUGUGGGAAAGCGUACUCAGGUAUCAGAAAUUGCAGUGAUGGGACCUCAAGAAAAAGCAUCGUUCCCUUAAUGACAGCCAAGAGACGCAAAGGGGCUUGGGUCAAGGAUCAAGUUGAAACAACUAAGCACGAAAGCGUUUCAAGUUAGGCGAAAGCUUGCCGAUCAAAGGUCAAGAGCAAAGCUCGGCAGGAGAAAGCCUAGCAUUAUAGGCAAAGGCGAGACGUUGUAUUAGCAAGACCAAGUGUCGUCUCGCGAAAGCUUAUGUAGUUGCGAUAAUAAAACUGUAAUGAAUUUA'
p219
aF0.827027027027027
aa(lp220
S'Mat - Cuboid'
p221
aS'GGAUGAAAAGAAGGCAAAAGGGCGGAAAAAAAGGAAUCAAAAGGAAUUAGGCAAAAGAAGCGAGUAAUGAAAAGAAAAGAGAGAAUGAGAAGUCACGUAGUAAGAAGACAAAAUCGGGUUUGCAAGAAAGCAAAAGUUAGCGAGCGACCGUGCGAGGCAAAGGAAACUACUGAGCGAGCGAGUAAAAUUGGGCGACCUAGUGAGCGAGCAAAAAAGCAAGUAAACAUGGAAGUAAGACCAAGCAAGCAAGGAUUUAGCCCCAAGCUAGGAAGCAAGCAUACGCAGUCGGGCUUACAAGGGUAAUCAAACAAAGGUGCACAAUCAGCCAAUCCGAAACAAGCAACGCAAAAAACCAAAACUAAUCUAAUCGCAAUUCAAAU'
p222
aF0.9342105263157895
aa(lp223
S'Misfolded Aptamer 6'
p224
aS'AAAAAAGGCAAAAAAGAUGGACAAAAGGUAAAAAAAAGCCGAAGGGAAAACAUCAAAAAAAGCCAAAAAAAAAAA'
p225
aF1.0
aa(lp226
S'Snowflake 3'
p227
aS'GGGCCGAAAGGAUACGGAUAAUUGCAACAUGAGAUUAACGCGAAACUCGGUACAGAAAUGUAUAAAAUGCAGAAAGGAACCGGAAAAGGCCAGGAUCAGAUAAAAGCGAACGUCGUCACCGAAACGGAGAAACUUGUGAAAACAGGCGUCCAAUGCUAAUGUCAGAGGAAGGCAAAGGCCGGUACCGAAAGGGCGAAACGCUGGAAAGGAACCGUCUAAUGACAACCUCAGACGAAGGGGAAAUCCUGUACUUAAUGGCAGAAACUGCUGAAAGGAACGGACGAAAGUCAACGUCAGAUGGGGUCGAAAGGCGGCACCGAAAGGGAGAAACUCCUAAAAGGAGCAGGCGAAAGCCAACAUCGCAUGAAGGCGAAAGCCGUGACCGAAAGGCCC'
p228
aF0.8956743002544529
aa(lp229
S'Hard Y and a bit more'
p230
aS'AAAAACGUGGCUAUGAACUAAUGUACAGAGUAGUCUCCUAGAACAAAGGUUCGAGAUAGAAAAAGUUAUCGUGGUGUCUACAGCGAAAAAAAAAAAAAAAAAAAAA'
p231
aF0.9716981132075472
aa(lp232
S'Mat - Lot 2-2 B'
p233
aS'GAAGGCGAAAUGUAGCAAAAGCGAGAUGGGAACAAAAAUCAAGGGCAACAAAAAAUAAACUGACGUAAGCUGGUGCGUGCAAAACAGACCUCAGUGAAAAACGAAAGUGAAGGAAAAAGGAAUUGCUAGCACGACGAAUUGAAAAAGGUAGAUGAGGAAAAAGCCAGUGUGAAAGUAAAAGCAUGUUCAGCAAAACUCAUCGCAAAGAACUCAAGGAGGUGAAAAAGCGAGAUGAGGCAAAAAGGAAACUGUAACAAAAACCAAGUUCUAGCAGUAUGAACAAU'
p234
aF0.7852112676056338
aa(lp235
S'Shapes and Energy'
p236
aS'AAAAAAGGGGCGGGAGGGAAACUCAGAGUGUAAACCAGCUCCGAACAUCGAGUAAAAAUUAAGAAAGCUGGAUACGUCACAAAAAAAAAAAAAAAAAAAAA'
p237
aF0.9603960396039604
aa(lp238
S"Spiral of 5's"
p239
aS'AAAAGGAUACAAUGUUACAAUGAUACAAAAGAGACAAAGAUCCGAAGAUACUAGAUACAAAAGAUGCAAACAUACAAAGAGACAAGAUACAAAGAUACAAAGAUACAAUAUACUAAGAUACAAGCUAGAAGAUACAAGACAGCUGAAUUAGAUAGAGACAUUUCUGACAAAUAGAACACUAAUGUUAAAAAUUCCCAAAAAGGACCUAAAAGUAUCAAAAAGUAUCAAAAAUUAGCAAAAGGUAUCAAAAUGUAUAAAAAAGUAUCAAAAGGUAUCAAAAAGUAUUAAAAAGUUUCAAAAAGUAUGAAAAAGCAUCGAAAGGUAUCAAAAUGUAUCGAAAAGGAUCAAAAAGUUUCGAAAAGUAUCUAAAAGUAGCUAAAAGUAUCAAAAAUAAAAA'
p240
aF0.9949622166246851
aa(lp241
S'Campfire'
p242
aS'AAAAGUUCAACUGCCAAGUUCAAGGAGUAAAUUUCCAGUAUCAAAGAUAAUUCAUCUCUUUGACCAGCAGAUAAUAAUUUAGUUGCGACACCGUAAAGCAGCGAAAGCGCUUGAAUAGGCGAAAGCACACUUCAUCCACGGCUAUAGGUUCGGUGCAGGAACGGAGAUGUAAUCAUCCCGUCCUAGACACCGAAGGUACUACUGCGCCGAAC'
p243
aF0.9339622641509434
aa(lp244
S'Anemone'
p245
aS'AAAUCGUUGUAAUCAACGAGCUACGAAAGUGGCCUGAGCGUAAGCUCGGGAUACAAAGGUAUCGCGGGGAAAGCCUCGCCAUCUAAACGGAUGGAUAAGAAAUUAUCGGCCUGGAAACGGGUCAGGUGGGAAACUAUCGCUGGGAAAACUCGGCGAGACGAAAGUCUCGAUAUCGAAAGAUAUCCAAACGAAAGUUUGGCUAUGUAAUUAUGGC'
p246
aF1.0
aa(lp247
S'Fractal 3'
p248
aS'AAAAAGAUGAAGGAGCGAAAGCGCGAAAGCACCUAGUUAGCGAAAGCGGGAAACCAAACAGGCGGCGAAAGCGCGAAAGCAGCCAGGCAGCGAAAGUGCGAAAGCAGCCACAUCAAAAA'
p249
aF1.0
aa(lp250
S'Kyurem 5'
p251
aS'AAAAUGCUGCUCGGAGAAAUCCUCUUAAAGGUCGAGCAAAGACAAAAGAACGCUCUGGCAAAAACCAAGACCGGGGGAACUGGCUAAAAAAAAAAAAAAAAAAA'
p252
aF0.9615384615384616
aa(lp253
S'Snowflake Necklace ( or v2.0 )'
p254
aS'AGUAUUUCCGUAUUAAGAGACAGUAAAAAGCGGCAAAAAGCGGCAAAAAGGAUGUAAAUCAGACAAAAAGCAGUCUCGGGGGAAAAUACAGAUCCAACAAAAACCACCAAAAAGGAGCAAAAAUCACCAAAAAGGAGCAAAAAGCAGGAUCUUCCAAAAACCCUGGUACACUAAAAAAGACUAAAAAGGAUCAAAAAGGACCUAAAUGGAGGGAAAAUCAGUACCAGACAAAAAGUCAGAUAAAGCAAAAAGCACCGAAAAGGACAAAAAAGGACGAAAAACGGACAAAAAGUAUUAUCAGGCAAAAACCCAGAUACAACUAAAUGCGCGAAAAGUGAGUAAAAAACAAUAAAAAGGAGCAAAAAGGGGUAUCAUAGUAUGGAAAUAUU'
p255
aF0.8663239074550129
aa(lp256
S'Methaqualone C16H14N2O Structural Representation'
p257
aS'AAAAAAAGAUGAGAAGAAGCGGUCGAAAGGCAGGCGGGCGAAAGCCAGGCAAGCGAAAGCUAUGCACAGAAAACUGAGGCAAAAAAAGCCAGCGAGCCAGCCAGCCACAAAGACUUCAGUUGAAAGCACACGAGCCAAAGGAAAAAAAAGUGAAGGACCGAAAAUGUCAGAAAACUGUAGGAAACCGUCUAGCAAAGAGUUGAAAGUGGCAUCCAGGCAAGCACGGAAAAGGCGAAAGCCAACGGAGCGAAAGCUAGCUAGGCGAAAGCCGGCCAGGCGAAAGCCAGGAAUCCAAGAAAACUACUCGAAAGAGGGGCUAAUGCCGGAAGCCACCUCAAACAACGUGUCAAAAAAA'
p258
aF0.9436619718309859
aa(lp259
S"Cat's Toy 2"
p260
aS'AAAUCAGCUAUGGGAAGAAAUAAAAAAAAAAAAAAAAAAAACGGUUAAGAUAAUUAGAAGCGAAAGCGAAAAAAAGUAAAAAAAUCAUAGCUGUAAA'
p261
aF0.9587628865979382
aa(lp262
S'Zigzag Semicircle'
p263
aS'AAAGCUUCCGAGAAGAAAUCACGCAGGAGGAAAA'
p264
aF0.9411764705882353
aa(lp265
S'Short String 4'
p266
aS'AAAAAUGUAGGAAAGAUUAAUUGGCAUUGAAAAAGCAAGCAAAAGCUCUUGAAAAAAAGAAAUACAGUCUAAUCACUAAAAAAAAAAAAAAAAAAAA'
p267
aF0.9381443298969072
aa(lp268
S'Gladius'
p269
aS'AGAAAUAUAUCAAGAACCGGCAUAAGAAAGGGAGUCAAAGAGGGAAACCUCAGACACAGCUGGCAAUAUAUGAAUAGAUGAAGGUAGAUUACAGGUAUCAGAUACAGAUCAGCUUAGGAUCUAUGAUCAGAGGCGAUCGAUAUUAUAUAUCGAUAAUUUAAACACAUCAAAGCAUAGAAGGCCUAGAGUGUCAGACAAAGGCAGAGGCUGAAGACAUAGGAUCAGAAGUUGGGAAGAUAUCCAGCUUAUAAAUACAGCUGAAAGGCGGCUAUGUAAUCAUAGUAGGCCUAUUAGACGUAUACAUAAGACGGAUAUCACGACAGCGCAAGAUCAAAAGUCACGUGCUUCAGAACGAAAGUUCGAAGCCACCCAAGCAGCCCAAGUAACAAAACUACGUAAG'
p270
aF0.905
aa(lp271
S'Thunderbolt'
p272
aS'GAAAGAUUCAAAAAAAACGGGAAACGGAGGCGGAAAAAAGCGCCAUCAAAAAAAACGCAAAAAAGAUGAAAAACACCAAAAAAGAAAAAUGGGCAAAAAAAGAAUAAAAAAAAAUAGGUGAUGAAAAAGAAACCAAGUGAAAAGGCCAAAAAGAAGCAGAAACAGCAACAAAAAGGCAGUUGAAGGAAAAAAAUAAUAGGAAAUCGGAAGAAAAAAACAAGCAUCAAAAAAAACAUCGUGGGGCGAUAAAAUGUCGCACAAACUAAAAAAAAAAAGCAAAUAAAAAAAAAGAAAGGAAAGUCAAGGAAAAUUAAAAAAAAGUAAAACUUUGGAAUAACAAAGAUGGCGCAAAAAAAACGGUAAUCUGAAAAACAAAAAAAGGGAGUCAAUCA'
p273
aF0.9285714285714286
aa(lp274
S'Mutated chicken feet'
p275
aS'AAAAAAUGGAGCGGCUAUGCAGAGCACUAACGAUUUCUACCUGGGAACCUACAAACCAAUGGGCAAUAUCAGAAAACCAACAAAUCAAGGGACAAAAAAA'
p276
aF0.88
aa(lp277
S'Chicken Tracks'
p278
aS'AAAAAAAAGCGAUGCGAUGUAAUCAUCAACAAUAAAGAUUGGAGAGGGAAACCUCGCAUCGCACGGCGUUAAAAAGAGAAUACCGAAGUUGAACGAUAAAAACGGCAAAAGAAAAA'
p279
aF0.9310344827586207
aa(lp280
S'Looking Back Again'
p281
aS'AGCAGGGCGAUGAAAAGGCUAUGAAACAUAGCACAUCAAGGCGGCAAGGAUAUUCCGCCAUAUCGAAAGACGAAAACGUUAAAACGAUGGAGCCAAGCGAAGAUGCGGAAAAACAUACAAAGGUAUGGAAAAACCGCAGAAGAUAAAAAUUAUCGACCCAAAGGGUCGCGCGACUAAGAGAAAGAAUAAGAAGUUGAAAACAGCAGCGGACUUAAUAGGGGCGAAAGCCAAUCGCGCAAACGCUGCAUCAGAUACACGGAAAAAAAGCGCCUCAAAAAAAAGAUGUAAAUCAUCGGGGAAACGCAUGCGGAUGAAAAAUUAGCUAUGAAAACAUAGCACGACUGAAACAAGGUAUAAAAUACCAAGUCUGUAAACAUUGUGUCAAAGCC'
p282
aF0.9023136246786633
aa(lp283
S'Multilooping 6'
p284
aS'AUAAGAGGUUCUAGCAAAGAUCGUAAUUUAAAGAAGACCUCAGUGAGUCGAAAGACUCAUAGUUAGUGUCGUACGCGCUUUA'
p285
aF0.9146341463414634
aa(lp286
S'Cesspool'
p287
aS'AAAUAAGAAAACAAGGGAAUAGAGGCAAACCCAACAAAAAUCCAAGAAGGAAAUGUUACGAUGAAAGAAGAAAAAUGAAAAAAAAAUAAGAAUAUGAAAACUAGCGAAUAGAGGCAAAGCCAACAGAAAUCUAAUAAUGAAAGAAGGCGAAGAAAGAAGAAAAAAGAAAUAAAAACAAUAGAUAAGAAAACAAGGUAAUUUAGAAAAAGUCGAGUAAAAACCAGGAAUGAAAGAAUAGGGCGAAAGAAUAAAAAGGAAACAAAAAGAAAGCGAUCAGAAAAAAAGAUCAAAACAGCAAAGUAAUUAAAAAUCUAGGAAAGAAAUAAUACGAUGAAAGAAGAAAAAUGAAAAAAAAAGU'
p288
aF0.7737430167597765
aa(lp289
S'Hoglafractal'
p290
aS'AAGAUGGAGAUACAAAAGUUACAAAAAAGUAGCGUAUCGGGAAAAGAUGAAAAACAUCGUUCGGCAAGCCGAAAGGCGCCAGGCAAAGAUGAAAGAUAUAAAAUUAUCCAUCACCAAUUGAAAAACAAGGUCCAUCUAAUGAGGAGUUAAAAAGGGAAGGAAAAAAGUCCCCCCAAACAAAAAGUUAGGCGAAAGCCAGAUACAAAAAAGCGCAAAAAAGCCCGGAAAACAGCAUCUAAUGAGGCUAUGAAAAAAGGCGAAAAAGCCUCAAAAGGGGAUGCGAUCGAAGUUAUCGCUAAAAAACAUAGCAAAAAAGUAUCAAAAAUAGCAAAGGCCAAACCAGCAAAGUACACAUGAAAACCGAAAGGCCGAAAGGCAUGUUAAAGACAUUACAUGGUUC'
p291
aF0.935
aa(lp292
S'Bullseye'
p293
aS'AAACUCGCUCUAUUAGCAGGACCAAGGGUUAAGAUUAACGAUUGGGAAAAAAAUGGCUAGUAAAACUCAUGGUAAAGUACCUAGGUCAAAUGUCGCCUAAAAAAUGGCGCUCAAGGAGCAAGAAGGAACUCCGAGAUGGAACAUUGCCUAAAAAAAGGAGAUUAAACAUCAAUAUCAAAGAUGAAGCACAUGGUUCUCCGAA'
p294
aF0.8415841584158416
aa(lp295
S'Shooting Star'
p296
aS'GCUAUGAAGGCAGAGGAAAAGACGUGCGGGUAUCUAGCGAAAGACAGAGGCCAGACUAGUAGUCCUUUGACGGGCGGGAUCAGAGAGAAGAUGUAGCCACAUGUAAAAAGUAUCAUAGGGCAACAUAAUCUGAAAAAACCAGCGAAAGAAGUCGGUGCGCUUCUAUGAAGCAGAUCCGAAGGGUCCACGAAAGAGAGCACAAUUUAGAUGAGGAGAAAUAGAGAUUAUAUCUCUGGAAUACAAGGUAUUCUUCGCGUUGGGAACCAACGCAGACAUAAAAUGUCCAUCUAUGACUGAAAGAUGCAGAAGUGAAUGAAAAGCAUUGAAAGAGGCUAUUCGGUAAAAAUAGAAUCUCUACAUAGCA'
p297
aF0.8434065934065934
aa(lp298
S'Teslagon'
p299
aS'AAAAAAGUAAAAAAAUAAAGAAAAAAAGCACUAAAAAAAAAAAAAAAAGAAAAAAAACGCAAAAAAAAAAAAAAAGCAGCAAAAAAGCUAGGAAAAAAACCGAAAAAAAAAAAAAAGGAAAAAAACCAUGAAAAAAAGCAUUAAAAAAAAAAAAAAAAAAAAAAAAAUGAAAAAAAAAAAAAAAAUCAGCAAAAAAACCAAAAAAAAAAAGAAAAAAAAAAAAAAACUAAAAAAAUUUGGGAAAAAAGGGGUAAAAAAAAAAAAAAAGCAAAAAAAAUGAAAAAAAAAAAAAAAAGCAUCAAAAAAACUUGGAAAAAAAGUAAAAAAAAAAAAGCAAAAAAAAAAAAAAGGCAACGAAAAAAUGACCAAAAAAAACAAAAAA'
p300
aF0.9162303664921466
aa.