(lp0
(lp1
S'Simple Hairpin'
p2
aS'AUAUCAAAAAAGAUAU'
p3
aF1.0
aa(lp4
S'Arabidopsis Thaliana 6 RNA - Difficulty Level 0'
p5
aS'AUAUAUCAAAAGACAAAAAAAAAAAGUCGAUAUAUCAAGAUAUAUAUAUAUAUAUACAAAGAUACAAAAAAGUAUCAGUAUAUAGUAUAUAUAUAUCAAGAUAUAUCAAGAUAUAU'
p6
aF1.0
aa(lp7
S'Prion Pseudoknot - Difficulty Level 0'
p8
aS'GAUAUCAGAUCAAAAGAUCGAUAGUCAAAAAAAAAA'
p9
aF1.0
aa(lp10
S'Human Integrated Adenovirus - Difficulty Level 0'
p11
aS'GUGGCUGGGGAUGCUUGCAUUGAAAAAAAAAUGCAGGACAUCGCCUAAAACCACUUCAUAAGCUUCUUGCUGUGUAAAAAAUCGCAGUAGGACAAAAGCGAAGUCAACGGUGCGUAAAAUGUCAAUGAGAGCAAAAAAGGUUCUUCUGCUAAAAAAAAAAAAAUGCAUGCAUAAAACCCCAGAACUCGCAAA'
p12
aF1.0
aa(lp13
S'The Gammaretrovirus Signal - Difficulty Level 0'
p14
aS'AAGAGGAUAUAUCAAAAGAUAUAAACGCAAAAAAGAUCAAGACAGAUCCAUAGUAAUCUAUGAAAAGAUCGUCGAUCAAGAUAUAUCAAAAGAUGUAUCAA'
p15
aF1.0
aa(lp16
S'Saccharomyces Cerevisiae - Difficulty Level 0'
p17
aS'GAAAUACCAACGAAAAAAAGUUGCUUUAAAAAAAAAAAAAUAGAAAAGAUCCGAAAAAAGGAUCGUAUUUCAAAAGUUAUUAAAGUCCAAAAAAAAGGACCCCGAAAAAAAAAAAAGGGAAAAGAUAUGAAAAAAAUAUCAGAUAACGAAUGAUAUGGAAUACCAAAAAAAGGGUAGUUUUCUAAAAAUGAAAGCAAAAGAUAUAAAAAAGAUGUCCUAUAUCUAAACAUAUAUAAGAUCAAAAAAAAGAUCGGUAUUUAAAAAUGAUACCAAAAGAUACUAAAAAUGUAUCGUAUAUGAAAUUAUGUAGAAGAUCGAAAAAAAGAUCGAUGUCUAAAAAUGAUAUCAAAAGUUACGAAAAAAGUAGCCUGCAUGUAAA'
p18
aF0.9894459102902374
aa(lp19
S'Fractal 2'
p20
aS'AAAAAGAUAUAUCAAAGAUAUAUAUUAAGAGCAAAAAAAAAAGCUCAAGAGCAAAAAAAAAAGCUCAAGAUCAAAAAAAAAAGAUCAAAAUAUAUAUCAAAGAUAUAUAUCAAGAGCAAAAAAAAAAGCUCAAGAGCAAAAAAAAAAGCUCAAGAUCAAAAAAAAAAGAUCAAGAUAUAUAUCAAAGAGAUAUAUCAAGAGCAAAAAAAAAAGCUCAAGAGCAAAAAAAAAAGCUCAAGAUCGAAAAAAAAAGAUCAAGAUAUAUCUCAAAGAUAUAUCAAAAA'
p21
aF1.0
aa(lp22
S'G-C Placement'
p23
aS'GAUCAAAGAUCG'
p24
aF1.0
aa(lp25
S'The Sun'
p26
aS'GCCAGUGAUUCAAAGACUAAUGCGGUAAGGGCAGAUAUGCUAUGCAUAAGACGCCAAGGAUAGAUCUACGAAGUAGAAAUCAUCAAGGACAGAUACACAACGUAUUAAUGGUCAAGGUGAAUUAAACAAGGCGUCAAGCCGCAAAGACAGAUGGACAAAGUCUAAAUCGUUAAAUAAAAAUAUACGAAUUAUAAACCUUGGAAGAGAUAUGUACUAUGUGCAAAUACUCGAAGACAGUCGUAGAAACAAUAAGGCGUC'
p27
aF0.8372093023255814
aa(lp28
S'Frog Foot'
p29
aS'AAAAAAAAAAGUGCAAAAGCACCAGUGAAAAUUGGCUCAAAGAGC'
p30
aF1.0
aa(lp31
S'InfoRNA test 16'
p32
aS'AGAUACUCUGGAUAUAAAAGUAUUGCGUGUGUAUCU'
p33
aF1.0
aa(lp34
S'Mat - Martian 2'
p35
aS'GAUCAAAAGAUCAAAGAUAUACAAGAUAUACAAAAAAGGUAUAUCGUAUAUCGAAGCUAUAUCAAAAAAGAUAUACAGAUGUACAAAAAAAGUAUAUCGUAUAUCAAAGAUAUAUAUAUAUCAAAAAAAGAUAUAUAGUAUAUCAAAAAAGAUAUAGCAAAGAUAUAAAUAUAUCAAAAAAAGAUAUAUGAUUAUAUCAAAAGCGAAAACGUU'
p36
aF1.0
aa(lp37
S'square'
p38
aS'AUAUAUCCAGUACCAUAUACCAUAUCAAAGAUAUGAAAAGUAUAUGAAAAGUACUGAAAAGAUAUAU'
p39
aF1.0
aa(lp40
S'Six legd turtle 2'
p41
aS'AAAAUACAAAGUAAAAGCGAAACAAAAGUAAAGUAAAAACAAAGUAAAGUCAAACCAAAGGAAAUGAUAAUUGAAAGUUAAAAAAAAAAAAAAAAAAA'
p42
aF0.9591836734693877
aa(lp43
S'Small and Easy 6'
p44
aS'GUUCAGAAAAUGCAGUGAAAAAAAAAUGGC'
p45
aF0.8666666666666667
aa(lp46
S'Fractile'
p47
aS'AAAAAAAAAAAAGCAAAAGCAAAGGAAAGGAAAACCAAGGGAUGUGAAAACUAACUAAGCAAAAGCAAACCAAGCGAAAGCAAAAAAAAAAAAAAAAAAAAAAAA'
p48
aF1.0
aa(lp49
S'Six legd Turtle'
p50
aS'AAAAACCAAAAGCGAAAGCAAAGGUGAAAACAAAAGCGAAAGCAAAAGGGAAACCAAAAGCGAAAGCAAAAGCAAAAGCAAAAGGAAAAAAAAAAAAAAAAAAAA'
p51
aF1.0
aa(lp52
S'snoRNA SNORD64'
p53
aS'AUAUACAAAAAGACAAAAGACAAAGAUACAAAAAAAAAAAAAGUAUCGAAAGUCAAGUCAAGUAUAU'
p54
aF1.0
aa(lp55
S'Chalk Outline'
p56
aS'AAAAGGCACGGUCACAAAGGUAGACACUUAGACGAAAGUCAAGGAGGAACUAAUGUAUCCUACCCUCGAAAGAGCGGGUGCAAAAAAAAAAAAAAAAAAAAAAA'
p57
aF1.0
aa(lp58
S'InfoRNA bulge test 9'
p59
aS'AUAUAUCAGAGAGAGAUAUACAAAAGUAUAUCCCCGAUAUAU'
p60
aF1.0
aa(lp61
S'Tilted Russian Cross'
p62
aS'AAAAAGAUCAAUCAAAGAGUUUUCAAGUCCAAAGGAGUAAUAGGAAAUUAUUAGAUCAAAGUAUUGGGAUCGCAAAAGCGGGAUCAAAAAAAAAAAAAAAAAAAA'
p63
aF0.9238095238095239
aa(lp64
S'This is ACTUALLY Small And Easy 6'
p65
aS'AAAAAAAAAAAAAAAAAAAAAAAAAAAAAAAAAAAAAAAAAAAAAAAAAAAAAAAAAAAAAAAAAAAAAAAAAAAAAAAAAAAAAAAAAAAAAAAAAAAAAAAAAAAAAAAAAAAAAAAAAAAAAAAAAAAAAAAAAAAAAAAAAAAAAAAAAAAAAAAAAAAAAAAAAAAAAAAAAAAAAAAAAAAAAAAAAAAAAAAAAAAAAAAAAAAAAAAAAAAAAAAAAAAAAAAAAAAAAAAAAAAAAAAAAAAAAAAAAAAAAAAAAAAAAAAAAAAAAAAAAAAAAAAAAAAAAAAAAAAAAAAAAAAAAAAAAAAAAAAAAAAAAAAAAAAAAAAAAAAAAAAAAAAAAAAAAAAAAAAAAAAAAAAAAAAAAAAAAAAAAAAAAAAAAAAAAAAAAAAA'
p66
aF1.0
aa(lp67
S'Shortie 4'
p68
aS'GUGAAAGCAGGGAAACC'
p69
aF1.0
aa(lp70
S'Shape Test'
p71
aS'AAAAAGUGAUCAAGAUUCAAAAAAAAGGAUUAAGACAGACAGAUACAAAAAGUAUCAGAUCAAAAGAUCAGUCGUCAAGAUCUCAAAAAAAAAAAAAAAAAAAA'
p72
aF1.0
aa(lp73
S'The Minitsry'
p74
aS'ACCGAAAAGAUAAAAAGAGAAAAAGCCAAAAAGACAAAAAAAAGUCAGGCGCUCGAUCAGGU'
p75
aF1.0
aa(lp76
S'stickshift'
p77
aS'AAGAUAUCCCAAAAAGGAGAUAUCAA'
p78
aF1.0
aa(lp79
S'U'
p80
aS'AAAAAGAUACAGAGAGCAGAGAUAUAUACAAAAGUAUAUAUCCGCCCGUAUCAAAAA'
p81
aF1.0
aa(lp82
S'Still Life (Sunflower In A Vase)'
p83
aS'AAACACUAAGACAUAAAAAAUGUCACGAUGUAAAGAUUUGAGAUACAAAAAGUAUCGAGCGAGUAUCUCGCAAGAAACAAACAGUUUCAAUAUGUGAAAAAUAUAAGAUAGUGAUAGAUAUCUAUAGACGUCACAAAAAAGUGGCAGACACAAAAAAAAAAAAAGUACAAAAAAAAAAAAAAAAAAAAAAAAAAAAAAAAAAAAAAAAAGUACAAAAAAAAAAAAAGUGUCGGUGCAAAAGUACCAGUUUAUAGAUAUCUAUUGCUAUCAAGUUAUGAAAAGUAACAAGACACGAAAAGUGUCAAGCUUCAAAAGGGAGCACGAGUCACAAAGGCUCAAUUUACAAUAGUAGAAAGGUAGUAAAUCUAUCAAUCCAAA'
p84
aF0.9735449735449735
aa(lp85
S'Quasispecies 2-2 Loop Challenge'
p86
aS'AAAAAGCAGUGUUGAGGCCAAAAGGCCAAAAACGCGACCAAAAAUAAGCCGACCGCUAGUGGGCAAAAAGUUAUCGUUCAUUUGUAAAAAAAAAAAAAAAAAAAA'
p87
aF0.9809523809523809
aa(lp88
S'Corner bulge training'
p89
aS'AGAUAUCGAUACAAAGUAUCAAAAGAUAUCA'
p90
aF1.0
aa(lp91
S'Spiral'
p92
aS'AAAAAGAUCAGAUAUCAGACAGAUACAGAUCAGAUCAGCAGCAGCAGCAGCAGCAAAAAGCGCGCGCGCGCGAUCGAUCGUAUCGUCGAUAUCGAUCAAAAA'
p93
aF1.0
aa(lp94
S'InfoRNA bulge test'
p95
aS'AAAAAAAAAAAAAAAAAAAAAAAAAAAAAGCACGAAAAUCACCAAAACCACAAGGAACGAGCGCGGCACAAAAGGUAGCAGCAGCAAGUAUCAAGGUAGGAAAAAGGAUGUAAAAAGUAGCG'
p96
aF1.0
aa(lp97
S'Worm 1'
p98
aS'AAAAAAAGUCAGUCAGGUGGGAGCAAACGGGUACAAGCGUUAAUC'
p99
aF0.9555555555555556
aa(lp100
S'just down to 1 bulge'
p101
aS'AAAAAGAACAGAUACAAAAGUAUCAGACAAAAGUCAGUAUCAAAAGAUCAGACAAAAGUCAGACAAAAGUCAGAUCAAAAAAAAAAAAAAAAAAAA'
p102
aF1.0
aa(lp103
S'Iron Cross'
p104
aS'AUUUAGACGAAGUUAGAAAAAGUCGGAGUAAUUUCAAGCGAUUCCAAGCGAAAGUUAGAUAAGAGCAGGAUAUGGCGCAUGAAAAGGGUGCAAAGCGAGCCUAAUUCUGAUACACUUUAAGAA'
p105
aF0.943089430894309
aa(lp106
S'loops and stems'
p107
aS'AAAAAGAUAUACAAAGAUCAAAGAUCAAAGCUCAAAAAAAAAGAUACAAAAAAAAAAAAGUAUCAAAGAGCGAAAGAUCAAAAAAAAAAGAUCAAAGAUCAAAGACAAAAAAAAGUCAAAGAUCAAGCAAAAAAGCAAAGUAUAUCAAAAA'
p108
aF1.0
aa(lp109
S'Water Strider'
p110
aS'AGAACGAUACAUGGGACGUGCGAAAGCGGUUAAAAGCAAUCAAAAAGACAAUGAAGAUUGGAAAAAUCUAGUAAUUCUUUGUAAAAAAAAAAAAAAAAAAAAA'
p111
aF0.941747572815534
aa(lp112
S'The Turtle(s) Move(s)'
p113
aS'AAAGCAAAAGCAGAAGAGAUAUACAAAAAAAAAGUAUAUCUUAAAAGAUCAAAAAGAUCAAAAACGGGAAACCGAAUGAUACAAAAAAAGUAUCUAAAGACAAAGCACACGCAAAAAGACGAAAGUCAAAAGAUAUCAAAAAAAGAUGUCAAAGGUUAAAAAAUAAAAGAAUUUCAAAGAACUCAAAAUGACAAGACGAAAAAAAGUCAAGGUGGCGAAAAAGUCACAAAGAUGAAAAACAUCAAAAAUCCAAAAUAAAAGUAAAAACAAAAAUCAAAAACAAAAAAGAGAGAAAAAAAAAACUCUCAAAAAAGUC'
p114
aF0.9810126582278481
aa(lp115
S'Adenine'
p116
aS'AUAUCAGAUAUCAGAUAUCAGAUAUCAGAUAUCAGUUAUCAAAAGAUAUCAAAAAAGAUAUCAGAUAGCAGAUACAAAGAUAUACAAAGUAUAUCGUAUCAGAUAUCAGAUCUAUAUAUCAAAGAUAUAUAAAAGAUCGGAUAUCAAAAGAUAUCAAAAGAUAUCAAAAGAUAU'
p117
aF1.0
aa(lp118
S'Tripod5'
p119
aS'AAGUGUCGCCGAAAAGGCGCUCCGAAAAGGAGACGCGA'
p120
aF1.0
aa(lp121
S'Shortie 6'
p122
aS'GCAAAAGCAGCAAAGGCGGAGAAAUCAGCGAAAGC'
p123
aF1.0
aa(lp124
S'Runner'
p125
aS'AAAAGGUUUAUAUCAAAAAGCUCGAAGAGCGAAUCAAACAUGAUACCAGAAACCGAAAGCGGAGACAUAUUGUAAACUCAAUGAAAUACAAAAACUAAUGUUGGUGGAAACAAAAA'
p126
aF0.9827586206896551
aa(lp127
S'Recoil'
p128
aS'AAAAAGAUACAAGCAAGCAAGACAAGACAAGCAAGCAAAGCAGCAGUCAGUCAGCAGCAGUAUCAAAAAAAAAAAAAAAAAAAAA'
p129
aF1.0
aa(lp130
S'[CloudBeta] An Arm and a Leg 1.0'
p131
aS'AAAAAGGCACGCUCUAAUGAUGCGGACACGGAAAUGGUCGGUCGAAAAAAAAAAAAAAAAAAA'
p132
aF1.0
aa(lp133
S'[CloudBeta] 5 Adjacent Stack Multi-Branch Loop'
p134
aS'CAGGGGUUCGAAAGGGCGACCAGAAAUGGUCGCUGCGAAAGCAGCCCUCGAAAGAGGCUCUGA'
p135
aF1.0
aa(lp136
S'Triple Y'
p137
aS'AAAAACGCCAAUCUCGUGAAAACGGGAUCUAAUGGCGGAUUUACCCGACUAAUGGUGGUUCAAAGGGUCGAUAGCUGGAAAAAAAAAAAAAAAAAAA'
p138
aF0.9175257731958762
aa(lp139
S'Misfolded Aptamer'
p140
aS'GAACUAAAAAGGGACAAAGUCAGCAAAAGCAAAAAAAAACCAAAAUGUUC'
p141
aF1.0
aa(lp142
S'Flower power'
p143
aS'AAAAAGCUAGAGCAAGGCUCUGUGUGUUAAAGCAACAUAAUCAACGAUUUAGCUCUAUGAGUAAGCUGGAGAAGUACCUAGCAAAAAAAAAAAAAAAAAAAA'
p144
aF0.8725490196078431
aa(lp145
S'Kudzu'
p146
aS'AAAAACUUGCAGGACACGUCGCACAACAAAGUGCAUGGCGCAAGGAAGCCACAUCAUGUUGAAGAAUACGUUGCAAGAGAGAAAAAAAAAAAAAAAAAAAA'
p147
aF0.8811881188118812
aa(lp148
S'"1,2,3and4bulges"'
p149
aS'AAAAAACGCAGGCGCGAAAAUGAAAGCCGGGAAAAAACUAGCAGUAAAAGCGGGUGUCACAGAAAUAAUAAGAAAUUAAUCAAUCAAAAAAAAAAAAAAAAAAAA'
p150
aF0.9428571428571428
aa(lp151
S'medallion'
p152
aS'AUAUUCAUCUAUCAAAAGAUAGAAAGCAAAAGCUAGCAAAAAGCCUGAUUUCGAAAGAGAUCUGCCGAAAGGCGUAUGGUAAAAACCGUGAGACAAAAGUCAUUGAAAACUGGUAGAUCAAAAGAUCUGAGAUAAAAACCAGCUCUCAAAAGAGAGCGGUGGAAAUACACACGUAAGUGAGAUACCAAAAGGUAUUAGCUGAAAGGCGGAUAUCAAAGGAUAUCGGUUGAAAGGCAUACAAAAGUGAGAUAACGAAAGUUAUCAGGGAAAGCCCAGCUCUCGAAAGAGAGUAGACAAAAGUCAGGAAAAAUACAAGGAACAAAAGUUCCUAGAAUAU'
p153
aF0.9376854599406528
aa(lp154
S'[RNA] Repetitious Sequences 8/10'
p155
aS'AGGAAAAAAGCAAAAAAGCAAAAAAGCAAAAAAGCAAAAAAGCAAAAAAGCAAAAAAGCAAAAAAGCAAAAAACCAAAAA'
p156
aF1.0
aa(lp157
S'Documenting repetitious behavior'
p158
aS'AAAAAAAGGAAAAAAAAAGGAAAAAAAAAGGAAAAAAAAAGGAAAAAAAAAGGAAAAAAAAAGGAAAAAAAAAGGAAAAAAAAAGGAAAAAAAAAGGAAAAAAAAAGGAAAAAAAAAGGAAAAAAAAAGGAAAAAAAAAGGAAAAAAAAAGGAAAAAAAAAGGAAAAAAAAAGGAAAAAAAAAGGAAAAAAAAAGCAAAAAAAAAGCAAAAAAAAACCAAAAAAAAACCAAAAAAAAACCAAAAAAAAACCAAAAAAAAACCAAAAAAAAACCAAAAAAAAACCAAAAAAAAACCAAAAAAAAACCAAAAAAAAACCAAAAAAAAACCAAAAAAAAACCAAAAAAAAACCAAAAAAAAACCAAAAAAAAACCAAAAAAAAACCAAAAAAAAACCAAAAAA'
p159
aF1.0
aa(lp160
S'7 multiloop'
p161
aS'AUCGUAUACGAAACCUUGGAUACUAAUGUGGUGCUACAAAGGUUAUGGUACGAAAGAAUGGAUUCAACGGAGUCCCAAUAAAGGUUAGUGGU'
p162
aF0.8913043478260869
aa(lp163
S'Kyurem 7'
p164
aS'AAAAGGAUUGUGUAGAAAAUUGAAUAAAAGAUAUACCAAAAAUUAAGCCCUCUAAAAUGGGAAAGAAUGUCAUUGACAAAUAAAAAAAAAAAAAAAAAAAAA'
p165
aF0.9411764705882353
aa(lp166
S'JF1'
p167
aS'GAUAGUAAUAUAGAUACAACAUACAAAAGAUAUCAAGAUACAAAGAUACAAGAUAUUAGAUAUAUAUAUAUCAAAAGAUAUAUAUAUAUCAAGACAAAAGUCGGAUAUAUACAAAAGUAUAUAUCAAGAUACAAAAGUAUCAAAUAUCAGUAUCAGUAUCAGAUAUCAAAGAUAUAUCAAAAAGAUAGUAUCAAGAUAUAUAUAAUAUAUAUAUAUACAAAAGUAUAUAUAUAUAUAUAUAUAUAUCAAAGAUACAAAAAAGUAUCGAUGUAUAUCAAAAGAUAUACAUCAAAGAUGAAAACAUCAAGUAUGAAGUAUCAAUACAGACAGACAAAAGUCGUCGUAUAGAUUGUAUCAAAAGAUACAAAUCAAUAUAUACAUAUCAAA'
p168
aF1.0
aa(lp169
S'multilooping fun'
p170
aS'AGUCACGAGCAAACUAUAAUUGUAGCUGAAAACGCU'
p171
aF0.8055555555555556
aa(lp172
S'Multiloop...'
p173
aS'UAAUAGCUCAGCGAAAACGUAGAUAAAAAUCGAGAAAAGGUUAGCCAAAAGGCAGCCGAAAGGCGGGCAAAAGCCAGAGCCCAGUGAAAAAAUACUGCUCUCAUGAUGUUU'
p174
aF0.9279279279279279
aa(lp175
S'hard Y'
p176
aS'AAAAUGAUCAUAUGAGGGACGAAAGUCCUUCAAGUCAUAUAUAUCGAAAGAUAUAUAUGGAUCUAAAA'
p177
aF0.9705882352941176
aa(lp178
S'Mat - Elements & Sections'
p179
aS'AAAAGGAUGAGGAGGAGAGGGGUGCUGAUCAAACCAGGAGUCAUAGGAAGAACGAUUGUACAUCUAAACACUUUAUAAACAUAUCAAAAAAAAAAAAAAAAAAAA'
p180
aF0.9619047619047619
aa(lp181
S'Chicken feet'
p182
aS'AAAAACAAGCAGAGAACAAGAAAAUUGAGCCUGGACAGCACGAAAGGAACGAAGGGAAGUGGAAAAA'
p183
aF0.8208955223880597
aa(lp184
S'Bug 18'
p185
aS'AGUUUUUUCAGUACUUAAGGCAAAAACGAAGCAAGAAUGGACUGGGUAAUGGA'
p186
aF0.9245283018867925
aa(lp187
S'Fractal star x5'
p188
aS'AAAAAGCUGGAUUAAGGACAAAAGUUCAGGAUAGAAAUGUCAAGUUCUAAUGAGCGAGGUCAAAAGACUAGAAUUCAGCAAAAUGAUAUUUUAAGGAGAAAGCUCUAGGAACUAAUGUUCAUUCCCAAAAGGGAUAGAUCAAAGGAUCAAAAGGUAUCUAAAAGCUAUAUUAAGAUCGAAAGGUCAAGAUCAAAAGAUUAAGGUCAAAGGACCAAGCACGAAAGUGUAAAAUAUGGCAAAAAGAGAAUUUAAGAGCGAAAGUUCAAGAUAAAAAUAUCGAGCUCGAAAGGGCAGGAGCAAAAGUUCAAAAGUUCUCAAAAAUACAUAUUAAGGUUAAAAGGCCGGGUUCAAAAGAACAAAAUCAAAAGAUUAAGAACUAAUGUUCAAAAUAUGUGGAAAA'
p189
aF1.0
aa(lp190
S'Crop circle 2'
p191
aS'GAGAAGGUAAACGGAAAAACGAAAAAAAAUGGAAAAAAAAAAAAAAAAAAAAAAAAAAAAACGAAAAAAAAAAAAAAAGCGAAAAAAAAUGAAAAAAUGAAAAAUUAAAA'
p192
aF0.9636363636363636
aa(lp193
S'Branching Loop'
p194
aS'GGCACCUAAAAAACCUGGCAAAGUUUAAAGUUCAAAAAAA'
p195
aF0.95
aa(lp196
S'Bug 38'
p197
aS'GAGUGGGACAAUCUUAAAGUGAAGUAAUCUAAUUUA'
p198
aF0.9444444444444444
aa(lp199
S'Simple Single Bond'
p200
aS'AAAAAAGGAAAAAAAUGAGGAAAAACCUUUAAAAAAAACAAAAAAAAAAAAAAAAAAAAAA'
p201
aF1.0
aa(lp202
S'Taraxacum officinale'
p203
aS'GGUGGAAACAUUAUGCACAAAGAAGUCUGUGGAAAACUCGCAAAAGAAAAUGUGCACAGGGAAACAUUGACAUCAAAAGAGUGGGCGAAUUAUACGAUGCAUGUAUUAUGUAUAGUGCAUCAGAUAUAACAGAUUUAUCGGGAUAUACUAUGUAUGUCAGAUAAAUUUGCGUCACAUAUCAAAGAUAUGGAUGGUGUCAAAGUAUAGUUUGCACAACAAAGGAUGGAGGUCAAAAGAACCGCGUGGAAACAAUAAAAUUUAAUAAAUUGGCCCAAAAAGGGC'
p204
aF0.8723404255319149
aa(lp205
S'Headless Bug on Windshield'
p206
aS'GGCGUGUUUAACGAUCAAAGCACAAGAAAAAAAAAAAAAAAAAAAAAAAAGUGGGGAAAGAUACGAAUCAAGCAAUUAAGCGAACGAAAAAAAUAUAAUGGAAAAAAGCGUCCAAAAAAAAUAGACCCAAAAAAAGGGAGGCGUCACAUUCAGCCGAAAAAAAAAAAAAAGGUAGGAUAGUCUAGCAUUCAAGGAACUCG'
p207
aF0.97
aa(lp208
S'Pokeball'
p209
aS'AAAGCCUACAAAAAGUAAGCAAGACAGGCAAGCAACCAAGGAGCCAUGAAAAGCUGGAACUAGUAGCAAGCAGUCAGCAUCUGUAGGCAAAAAAAAAAUAUGCAAAAUCAGUCAAUUUAAUCUAGGAAGAAAACAUACAAGCGAAACAGAUAGCGGGGGAGUGAGGGCAAGAGCGCAUAUUAAA'
p210
aF0.9021739130434783
aa(lp211
S'Variation of a crop circle'
p212
aS'AAAAUUUAAUGAAAAAUCUAAAGCAUGUGUUUUAUAGUAGCUAAACCAAAAACGAAAAAAAAGGUAAAAAAAUAAUAAAAAAAAAAAA'
p213
aF0.9545454545454546
aa(lp214
S'Loop next to a Multiloop'
p215
aS'AAGAUAUAACAAAAAAGGAGAUAUUAAAAAAUAUCAGUUAGACAAAAGUCUAACAUAAAAAAAGUUGUAUCGA'
p216
aF0.9726027397260274
aa(lp217
S'Snowflake 4'
p218
aS'GGUUGAAGACCGGUACGCAAAAGCCAGACAAGGAUCCUAAAGGGGAGCUGGUUAAGAAUCAAGACCAAAGAACAGUUCCGAAAACGGAUCCAGGAGAUCCGAAAGGUACAACAUCAAGAAUGAACAGCGAAGCUGUUGUGGCGAAAGCCUCUCAUUGGACACAAAAGUGUUUUGUUAAAGGGAUAAGAUCAAAGAUCAGAGCACGAAAGUGUCUAUAAAUACUAGAAAGAGAGACGCCUUAUAAUUAAACACAAGGCGCGUCUCGCAAAACCGUAUCAAGUUGACUUAAUAGAGUACGAUAAAAUAUCAAGUUCUAUGAACGUCCCGCAAAGGUGUAGCGAGUCUGACAAAAGUGUGUUGUUCGAAGAUC'
p219
aF0.8216216216216217
aa(lp220
S'Mat - Cuboid'
p221
aS'GAGGCAAAAGCAAACAAAAGUGAGCAAAACGAGCAACCAAAAGCAAACUAUCAAAAGAAGUAACGAAGUAAAAGGAAGUUAGCAAGUAAAAGCAAGCAUGCAAGCAAUCAAAACCAAGCGAGCAAGGAAACAAAAGCAAGGAAUUAAGCAACCAUGAAAAACCAAGCAAGUAAGGAAGCAAGCAAAACCAAGGGAGCAAGGAAGUAAAAGAAAAAUUAAGCAAGCAAGCAAUCGAGCGCAAGCGGUCAAACAAGCAAGGUCUAGGAAGCAAGGAACCAAGCGUAACCAAGUAAGCAAGGGCAAGCAGGCUGGCAAGCACAAGCAUGCAACCACAACGAGGCAACGGAUGCGAGCGGAAGUAAGGCAAGCGUAAGCGCAAC'
p222
aF0.8947368421052632
aa(lp223
S'Misfolded Aptamer 6'
p224
aS'AAAAAUCCCAAAAAAGAGCAGCGAAUGACAAAAAAAAGUCUAAAGAAAAAGCUCAAAAAAAGGGUAAAAAAAAAA'
p225
aF1.0
aa(lp226
S'Snowflake 3'
p227
aS'AUCGCAAAAGCGGGCGAUAAAAGUCAACAUCAGAUCAAGCGCAAUGGCGAGAGCAAAAGCGACGAAGUCGCAAAAGCAUUCGUCAAAUAGCAGGCUCGGAUGAAGAUAAAAAUUGACGGCAAAAGCGACUAUGUCCCGAAUGCAGUCUACAAAAGUCAGUAUCAGACCAAAGCAAAAGUCGCCAUCAAAAGGGACAAAGUCCCAAAAGCAGGUGACAAAAGCGAAGAUCGGUGCAAUACAAAGGUGGACGACUAAUGUGACAAAGUCGCAAAGGUAGUCAACAAAAGUCAAGCAUAGACUAAGACGAAAGGCCAUAGCAAAAGCAAGAAAUUUGCAAAAGCAGUGGGCUAAUGCCAAAGUCAGAUGAAGAUAAAAACCGCCAGUGAAAACGGU'
p228
aF0.8269720101781171
aa(lp229
S'Hard Y and a bit more'
p230
aS'AAAAAGGUAUCUUAAUACAAAGGUAUCUCGGCUACGUCAAGAUUAAAAGAUCAUGGCACAAAAAGGUGCCUGGAAGUAGCGUACCGAAAAAAAAAAAAAAAAAAAA'
p231
aF0.9716981132075472
aa(lp232
S'Mat - Lot 2-2 B'
p233
aS'GAGGGGAACCUUAGUCAAAAGGUAGAACAAAGGUAAAAUCAUGAGCAAGGAAAAGCAAUCCCUAGAAAGCAAGGUCGUGGAAAAGCAUCAGCAUGCAAAAGUGAAAACGCUAGCAAAAUGUGUCCCCAGACCAAGCAACCAAAAGCCCAAGAACAAGCAAAAGAAGGAACAAAAGUAAAAUCAGUCGCGAGUAAAAUCAGGCGCAAGGAAUCAAGCGCAAGCAAAAACUGCAGGAAGCAAAAGAAAAAUUGCAAGCAAAAUGAUGUACAAGUGCACGGAACAAC'
p234
aF0.7816901408450704
aa(lp235
S'Shapes and Energy'
p236
aS'AAAAAACAAGCCAGACGAAACGUAAUUGCACGAAAGAGCGGGAUCAUUAAAACAAAAAAAAGAGAAAUUUCGGGGGUUGGGAAAAAAAAAAAAAAAAAAAA'
p237
aF0.9603960396039604
aa(lp238
S"Spiral of 5's"
p239
aS'UAAAAGGUACGAAGAUAGAAUGAUAGAAAAGAAACAAGUAUAGAAAGAUAGAAGAUACAAAAGAUACAAAGAGAGAAAGAUAGAAGAUUCAAAGAUAGAAAGGUAGAAUAGACGAGGAUAGGAGAUACAAGAUACAAGAUACAAGAUACGGAUACAGAGGUACAUCGAAAAGAUGUAAAAAACCUCAAAAAGUAUCAAAAAGUAUCAAAAAGUAUCGAAAAGUAUCAAAAAGUAUCAAAAACUAUCAAAAAGUUUGAAAAACUACCAAAAACUAUCAAAAAGGAUCGAAAACUAUCAAAAGCUCUCAAAAAGUAUUAAAAAGUAUCAAAAACUAUCAAAAACUAUAAAAAAGUUUCGAAAACUAUCUAAAACUAUCAAAAAGUACCAAAAAGAAAAA'
p240
aF0.9949622166246851
aa(lp241
S'Campfire'
p242
aS'AAAAGAUUAAAACACAAUUAGAAGUACGAAAAGUACGGUGUGGAACACCGUAUGGCGAUAUUAACCAAAGCGGGAAAGCUACGCAUGAGCUUUAGCAGCAUCGAAAGGCUGCGACGACACAAAGGGCGUAGUCAGAGAGGUGAUAAUUGUGAUCUCGGUGGAACACCUCUAAUGAGGGUUCGUGAGUCAUCUACGAUAGGACUCAGAGGCUU'
p243
aF0.8349056603773585
aa(lp244
S'Anemone'
p245
aS'AAAAGCCUCAAAGGAGGCUAAUAGUCAACUAUUGUAGUGGAAAUACUACCCUACUAAUGUAGGCCGGUCGAAAGAUUGGGAUUCGAAAGAGUCGGGUUAAAUAACCCGAUUUCGAAAGAGAUCAAAUAUGAAAGUAUUGGUUUGUAAUUAAACCGGGCGAAAGUGCCCGCCGGCAAAAGCUGGCCUGCCGAAAGGUAGCUAGGCGAAAGCCUAG'
p246
aF1.0
aa(lp247
S'Fractal 3'
p248
aS'AAAAUGGGCAGCCAUCAAGGGGUCAAAGGAAGGCAGAAAUGAAAAUGGCAAAAGCAAUCGGACAGAAAAAUCGCAAAAGCAGCCAGACGGUGUAAACGGGAAAUUAGUCGGUCGUAAAA'
p249
aF0.8823529411764706
aa(lp250
S'Kyurem 5'
p251
aS'AAAAGUCGCAGCCAAUAAUUGGGGUAAAAGCUUCAUCAGAUAGUAAAUGCAGAUGGCAGAAAAAUGCAUACCAGAACCUAGUGAAAAAAAAAAAAAAAAAAAAA'
p252
aF0.9423076923076923
aa(lp253
S'Snowflake Necklace ( or v2.0 )'
p254
aS'AUACCUGUAUAUAUUAUAUUCAGGAAAAAACGUCUAAAUGGAGCAAAAAGCGACAAAAAGUAACAAAAAGCAGGAUAAGACAAAAAGUCAGAUAUAGCGAAAAGCAACGAAAAGCAGCAAAAACCUGCAAAAAGUGGUAAAAAGCAGGGUCAGACAAAAAGUCGGAUGGAGCAAAAAGCAGCAAAAAGCGGCAAAAAACAUCAAAAAGAAGCAAAAAACAAUUUCAGACAAAAAGUCACAGACAGGAAAAAGCAGCAAAAAGCGGCAAAAAGCAGGAAAAACCGAUUAAAUAUAGUUUCAGUCAAAAAGACAGUGAGAGAAAAAAGCAGCAAAAAGUAGCAAAAAGCGAAGAAAAGUAGCGAAAAGCAGUAACAAAUAUAUACAGGUAU'
p255
aF0.8611825192802056
aa(lp256
S'Methaqualone C16H14N2O Structural Representation'
p257
aS'AAAAAAAGAUCAGAUCAGAUUGACAAAAGCUAAACAGAUAAAAAUUAGACAAUCAAAAGAUAGACAUUCAAAAGGGAGACAAAAAAAGUCAGUCGGUCGGUUGAUCAGAAACAGAUCAGAUCAAAGGAGUCAAAGCAAAGAAAAAAAAAGUCAGACACCCAAAAGUUGACAAAAGAGGAUAAAAAUCAUUACCAAAGAACGGAAACAGACUAAUAGAGAAUUAGACAAAAGAUAAAAAUCAGUCAGUUAAAAAGUAGCAGGACAAAAGUUACUCAGCCAAAAGGCAAUUGGAUGAAAAAAGUCGGAAAAAUUCAUACAAAAGUAAUCAGUCAGUUCAAAGACCAGAUCAAAAAAA'
p258
aF0.8873239436619719
aa(lp259
S"Cat's Toy 2"
p260
aS'AAAUGACUCGAUAAAAAGGAUGAAGAAAAAAAAAAAAAAAGCGGCAAACAAAAAUGUAAGCAAACCGAAAAAAAACCCAAAAACUAUCGAGUCUAAA'
p261
aF0.9381443298969072
aa(lp262
S'Zigzag Semicircle'
p263
aS'AAAAGCGAGAAUAAAAACUACGCGUUUUGCGAAA'
p264
aF0.9411764705882353
aa(lp265
S'Short String 4'
p266
aS'AAAAAACUUGAAUACUGUAAAGAUGAGGGAAACCCAAACAAAGGGCGAGGAAAACCAAGCACCAAAGUUCUAGAAGAAAAAAAAAAAAAAAAAAAAA'
p267
aF0.9381443298969072
aa(lp268
S'Gladius'
p269
aS'GCAAUCAUUUAAAAGAGUAAGAGAUGGAGGACAGACAAAGUUCAAAAGAACAGAUAGAAGAGACAAGGGAUAAGUAGAUCUAUAGUUAUGUAAGAUAUCAGAUCAUGAACACAUCAAGAUCAAAGAUCAGAUCGGUUCCAGAUCGAGUAUCAAGCAUAGCAAAUGAUCGAAAUAUCAACGGUUAACGCUAUCAGUCAAGGACAGAUACAUACCACAGAAUAUCAGGAUAAUAAAAGGUAUACGAGAAGCAGCUACAUGAAGCAGACAGAUAUCAAAGGAUAUCAAGUCGACUUCUAGUAGGCGCUUCAGGUAUAUCAUAAAUUGACAGGAUGACAAGUGCGAAGUAUCAGAGCAAAAGUUCAAAGUCAGUCAAACGCCGCAGAAAAUAAAUAUAGAAAAC'
p270
aF0.9
aa(lp271
S'Thunderbolt'
p272
aS'GCUAGUUUCAAAAAAAAGAGCUAAGAGGAAAAGAAAACAGAUAUAUCAAAAAAAAAACAAAAAAGAUCGAAAAGAUCAAAAAAUCAAGACUAGCAAAAAAAGAAGAAAAAACAACGAGCAAGAAAAAAGGAAACACAUCAAAAAGACAAAAGGAAGCAUAAAAAGCAACAAAAAGUCAGAAGAAAUAGAAAAAGGAGAGCAAAGAACAAUAAAAAAAAGGAUAUCAAAAAAAAGAUGGAAAAGAUAUCAAAGAUAUCAAUGAACAGAAAAAAAAAGAAUUCAAAAAAAAAUAAGGAAAGCGAUAACAAAAAGAAAAAAAACAAAAAGUUAUCAACAAAAAAGAUAUAUCAAAAAAAAAAUCAUGGAAUAAAAGAAAAAAACAGGAGCAUGCA'
p273
aF0.9387755102040817
aa(lp274
S'Mutated chicken feet'
p275
aS'AAAAAAGGGAUCAUUAAAAGCGGAAACCUUAGCCCAGUAUCAGCAAAGCAGGUAUUCAAACGACGGCAGCAGCUAUGAAGCAAAGCGAAGACCUAAAAAA'
p276
aF0.84
aa(lp277
S'Chicken Tracks'
p278
aS'AAAAAAAGGAUGUACGCUCAAAAGAGCAGGAUCGAAAGAUCAAGAUCAAAAGGUCGUACAUCAAGGCGGACAAAGUCCAAGAUCUAUGAUCAACACCAAAGGUGGCCAAAAAAAAA'
p279
aF1.0
aa(lp280
S'Looking Back Again'
p281
aS'AAAAGGAAGGUCAAAAAAAUUUCAAAGAAAUUAGAUCAAGAAGACAAGAGUAUGCCGUGGGUUGCAAGGAGCGAAAGUUCAAAAGCAGCAAGUCGAUUCAAGGAAAAUAAAAAGAUUCAAAGGAGUCAAAAAAGACGUUAAGAUCCAAAGGAUCAUUACAAGAUAACGAGGUCCCGAGGCGAAGAAGUGGAAGAUGGAAACAUCGACCCAACUAAUAGGGACUACUGUCAAGACCUCAAAGUCAUUUCCAGCUUCAGAGGAACAAGCGCGGCUGGGGGGACCAUUUAAAGAUGCAGAUAAAAUCUGGUCAAUCAAAAAAGGCCUAUCAAAAGAUAGGAAGCCUGAAGUGAGUUGCUAUGCAGCAAGUACCGAAGACUCGAAGUAAGUUU'
p282
aF0.8508997429305912
aa(lp283
S'Multilooping 6'
p284
aS'AAACACCGGCGGCUCGAAAGGGCCGGUAUUAAUACACCGCUUGAGGUGCUAAUGCACCGAUUCAAAGGGAUCUGAGGUGUGA'
p285
aF0.926829268292683
aa(lp286
S'Cesspool'
p287
aS'GAAUAAGAAAACAAGAGAAGAGAGAGAAAAUGAACAACAACCCAAGAAGAAAACAACAGGAGGAAAUAUUAAAAUUAAAAGUAGAACAAGAAGAAGAAAACAAGAGACGAGAAAUAAAGUUAACAACAACUUAAGUAGAAAACAACGGAACAAAAGAACAAAAGGUAAUCAACAACGAGCAUAAAGAAAACAAGACAAGGGAGCUAAAAGCAGCAACAAGAAAAGAAGAAAAUAACACAAGAAAACAACAAAAAGAAAACAACUAUCAAGCAAUAACUAAUCAUAACAAGGGAGACAAAGUCAACAAUAAGUCUAGAAUUAAUCAACGGAAGAAAACAACUAAAAGAAAACAAGAAGC'
p288
aF0.7597765363128491
aa(lp289
S'Hoglafractal'
p290
aS'AAGAGUAAAGUACAAAAGAUUUAAAAAAGGAUCGUACGGGGCAAACUUCAAAAGGAGGGCCCCGCAAGACGAAAGUCGCGAGACAAACAUCAAAUAUCAAAAAAGAUAGAUAGGACAGACAAAAAGACUCCGCAACAAAAGCCCAGAUCAAAAGACAAGACAAAAAAGUCAUUUCAGCUAAAUGCGACAAAAAAGUCAGAUCCUAAAAGGAGCGAAAAAGCCCGACAAAAAGUCGCAAAAUCUUAUGUGAAAAAAGACAAAAAAGUCGGAAAAAUCAAAGAUACACAAAGUGUAUCAAAAAAACACAUGUAAAAUGGAUCAAAAAGAUCAAAAGUCAAUGCAACAAAGAGGAUAUCAAAAGCUAAUGCACAAAGGCGCUAUUAAAGAUCUCAGAGCACGC'
p291
aF0.93
aa(lp292
S'Bullseye'
p293
aS'AAUGUGGAUCAAGGAUCAGGAUGGAAAAUCAAGUGGUAUCCACUCCUAAAAAAAGACCAGUUAUAAUCAAUGGAUAUUCUAAAGAUUGAAGACCGUUAAAAAAAAGAUGCCUUAGACUUAAGGUCAAAGAUCGAGAUUGAAGCUCGUCAAAAAAAAUUUGAUCGAAGAUCAACAGUAAAGUUGGAGAUUUAUGAGCAAAAAA'
p294
aF0.8217821782178217
aa(lp295
S'Shooting Star'
p296
aS'GAUCUGGUACCAUAGGCUAGGAGAGCGUAUCAGGAAGGGAAACACUUAUGGUACACAACCAUAUUUAUGAGAUCCGAAAGAAUGAGAGAUAUUCAGAGAGCUCAGGAAAACACGAGACCUCGAGACAGGUCACAAGGCUCAGGUAAACAACAUCGAUCCAAACAAAGUAGGAGAUACAAAGUACCGUCAAAAGUCACAUAAGUACAGAUCAGAUGAAAGAAAUGCAAAGCAUUUCAGAUACAAAGUAUCCAUCGAGGUACAAAGUACUUCAUGUACAAAGUACGGAUCGGUGAAAGAAAUGUAUAAGUACUGUUACAGCCCAGGAAAACACGGUACCGAUCAUGAUCAGACACCCUAUAGAUCA'
p297
aF0.760989010989011
aa(lp298
S'Teslagon'
p299
aS'AAAAAAUGAAAAAAAGCAAGAAAAGAAGUAACAAAAAAAAAAAAAAAGUAAAAAAAAAUCAAAAAAAAAAAAAAAGGAACAAAAAAAUAACGAAAAAAAGGAAAAAAAAAAAAAAAUCAAAAAAACGGGGAAAAGAAGUUCCAAAAAAAAAAAAAAAGGUAAAAAAAAGCAAAAAAAAAAAAAAAGCAGCAAAAAAAGCAGGAAAAAAAGCAAAAAAAAAAAAAAAGCAAAAAAACCAGAUAAAAAAUCAACGAAAAAAAAAAAAAAGUAAAAAAAAUUCAAAAAAAAAAAAAAAGGUGCAAAAAAUCCUUUAAAAAAAUUAAAAAAAAAAAAGCAAAAAAAAAAAAAAAGUGAAAAAAAAAGCUGCAAAAGAACAGGAAAA'
p300
aF0.9162303664921466
aa.