(lp0
(lp1
S'Simple Hairpin'
p2
aS'GAUACAAAAAAGUAUC'
p3
aF1.0
aa(lp4
S'Arabidopsis Thaliana 6 RNA - Difficulty Level 0'
p5
aS'GAUAUAGAAAUGACAAAAAAAAAAAGUCGAUAUAUCAUUAUAUAUAUAUCGAUAUACAAAGAUACGAAAAAGUAUCAGUAUAUACGAUAUAUAUAUAUGGAUAUAUCAAUUAUAUC'
p6
aF1.0
aa(lp7
S'Prion Pseudoknot - Difficulty Level 0'
p8
aS'GAGAUCAGAUCAAAAGAUCGAUACUCAAAAAAAAAA'
p9
aF1.0
aa(lp10
S'Human Integrated Adenovirus - Difficulty Level 0'
p11
aS'GAUGAUCAUGAUACUUAUACCUAAAAAAAAAGAAGCCCUAGCAGAAAAAGCGCUAUGAAAACGCAGAAUACCGGGAAAAAAAUUGGUAUUUUAAAAGCGCAUAGAAACCGCCUGAAAACUAGGAAAGAUUCCGAAAAAAGGAAUCGCUUAAAAAAAAAAAUGGUAUGUGUAUAAAACAUGAUAAACAUCAAA'
p12
aF1.0
aa(lp13
S'The Gammaretrovirus Signal - Difficulty Level 0'
p14
aS'AAGUGUUUAUAUCGAAAGAUAUAUUCUCAAAAAAGAUCAAGACAGAUCAAUAGAAAGCUAUUAAAAGAUCGUCGAUCGAGAUAUAUCUAAUGAUAUAUCAA'
p15
aF1.0
aa(lp16
S'Saccharomyces Cerevisiae - Difficulty Level 0'
p17
aS'GGUAUGCCCGCAAAAAAAGGUGGAAGAAAAAAAAAAAAAAACUCAAUGAUACUAAAAAUGUAUCGCAUACCAAAGUCGAUUUAACUCGAAAAAAAACGAGCGCGAAAAAAAAAAAAGCGAAAAUAAGAGAAAAAAUCUUAGAAUCGAAAAACAUAUUGAACAUCGAAAAAAAGAUGUAUAUCAAAAAAAGAUAUAAAAUCAUACGAAAAAAGUAUGCGAUAUGGAAUGAUCUGGAAGGUCUAAAAAAUGACCCAUAUCAAAAAAGGAUAUGAAAUCAUAGUAAAAAUCUAUGCUAGAUCUAAAGGCGUAGACGAUCAAAAAAAAGAUCUAUAACUAAAAAUGUUGUAAAAUCAUAGAAAAAAGCUAUGUUACGUUAAAA'
p18
aF0.9947229551451188
aa(lp19
S'Fractal 2'
p20
aS'AAAAGGAUAUGUCAAACAUUGAUAUGAGGUAAGAAAAAAAAAUUACACUGUGAAAAAAAAAGCACAAAUGUCAAAAAAAAAAGACAAGUAUAUCGAUGGAAGAUUUGGAAAAAGAGUAAAAAAAAAAGCUCGGUAGCAAAAAAAAAAGCUAAGGUGCAAAAAAAAAAGCGCAAUUUCUAAAUCAAUGUGGUAAAUGUAGUUGUAAAAAAAAUCGACAGGAGGAAAAAAAAACCCUCAAGAUCAAAAAAAAAAGAUCGUCAUUUAUCACUAGGGCAUAUCAAAAA'
p21
aF1.0
aa(lp22
S'G-C Placement'
p23
aS'GAUCAAAGAUCA'
p24
aF1.0
aa(lp25
S'The Sun'
p26
aS'GUCACAAAUAGAAGCUAUAAUUGGGCAAGUACAGCUGUAAAAGGCACAAGUCUUGAAAUACAGAGAAACUAUGUUUAACUCGUGAAGAAUAGAGCUUCAAAGAACAACUCGUUAAAUACACCGAUAGAAACUAUAACGGGUAGAACUCAGACAUAGAAAUUAUAAGUCGAGAAACACAGAGAUUGGAACGAUAACUCGUGGAACACAGUGAUGCAAGGUAUAAAGCGUGAAAUAUAGAGAUACUAUAUAUAAUUCGUG'
p27
aF0.8953488372093024
aa(lp28
S'Frog Foot'
p29
aS'AAAAAAAAAAGAGGAAAGCCUCCAUCAAAAGAUGCGUCAAAGACG'
p30
aF1.0
aa(lp31
S'InfoRNA test 16'
p32
aS'AAGAUCGCAGAUAUCGAAAGAUAUACUAGAGAUUUU'
p33
aF1.0
aa(lp34
S'Mat - Martian 2'
p35
aS'GAUCAAAAGAUCAAAGAUAUACAAGAUAUACAAAAAAAGUAUAUCGUAUAUCAAAGGUAUAUCAAAAAAGAUAUACAGAUAUACAAAAAAAGUAUAUCGUAUAUCAAAGAUAUAGAUAUAUCAAAAAAAGAUAUAUACUAUAUCAAAAAAGAUAUACCAAAGAUAUAGAUAUAUCAAAAAAAGAUAUAUAACUAUAUCAAAGUUCAAAAGAAC'
p36
aF1.0
aa(lp37
S'square'
p38
aS'GAUAUACCAGAUCCAUAUACCAUAUCAAAGAUAUGAAAAGUAUAUGAAAAGAUCUGAAAAGUAUAUC'
p39
aF1.0
aa(lp40
S'Six legd turtle 2'
p41
aS'AAAAGACAAAUGUAAACCAAAGUGAAAAGAAAAUAAAGGGAAGGUUAAUGCAAUACUAAGGUUAAGAGAAAUCAAAGUAAAAAAAAAAAAAAAAAAAA'
p42
aF0.9591836734693877
aa(lp43
S'Small and Easy 6'
p44
aS'UCUUCAAAAGGGAAUCUAAAAAAAUAAGGC'
p45
aF0.8666666666666667
aa(lp46
S'Fractile'
p47
aS'AAAAAAAAAAAAGUGAAAGUGAACCAAGUCAAAAGAAACUUAACGAAAGCGAAUGGAGGUAAAAAUAAAGGGAUCAAAAGAAAAAAAAAAAAAAAAAAAAAAAAA'
p48
aF0.9619047619047619
aa(lp49
S'Six legd Turtle'
p50
aS'AAAAGCCUAAAUUGAAAAGAAAAUAUAAUGGGAAAGGAAAGCCGAAAAGUAAUCGGAAACUAAAAAUAAAACGGAAAUGAAAUGUAAAAAAAAAAAAAAAAAAAA'
p51
aF0.9619047619047619
aa(lp52
S'snoRNA SNORD64'
p53
aS'GAUAUCAAAAAGACAAAAGACAAAGAUACAAAAAAAAAAAAAGUAUCGAAAGUCAAGUCAAGAUAUC'
p54
aF1.0
aa(lp55
S'Chalk Outline'
p56
aS'AAAAAGAUCAGAGACAAAAGUACUCAGUCAGGCAAAAGUCGACAGAUGACAAAAGUACAUCAGGAUCAAAAGAUACCGAUCAAAAAAAAAAAAAAAAAAAAAAA'
p57
aF1.0
aa(lp58
S'InfoRNA bulge test 9'
p59
aS'GAUAUACAGAGAGAGAUAUACAAAAGUAUAUCCCCGUAUAUC'
p60
aF1.0
aa(lp61
S'Tilted Russian Cross'
p62
aS'AAAAAUAUGGAUCGAAAAGUCGCUGAGAGAAAAGGCUCUCAAAAAAGUUUGAAGAACAAAAGAUUCAGUCAAAUAAUUUUGCAUGAAAAAAAAAAAAAAAAAAAA'
p63
aF0.9238095238095239
aa(lp64
S'This is ACTUALLY Small And Easy 6'
p65
aS'AAAAAAAAAAAAAAAAAAAAAAAAAAAAAAAAAAAAAAAAAAAAAAAAAAAAAAAAAAAAAAAAAAAAAAAAAAAAAAAAAAAAAAAAAAAAAAAAAAAAAAAAAAAAAAAAAAAAAAAAAAAAAAAAAAAAAAAAAAAAAAAAAAAAAAAAAAAAAAAAAAAAAAAAAAAAAAAAAAAAAAAAAAAAAAAAAAAAAAAAAAAAAAAAAAAAAAAAAAAAAAAAAAAAAAAAAAAAAAAAAAAAAAAAAAAAAAAAAAAAAAAAAAAAAAAAAAAAAAAAAAAAAAAAAAAAAAAAAAAAAAAAAAAAAAAAAAAAAAAAAAAAAAAAAAAAAAAAAAAAAAAAAAAAAAAAAAAAAAAAAAAAAAAAAAAAAAAAAAAAAAAAAAAAAAAAAAAAAAAA'
p66
aF1.0
aa(lp67
S'Shortie 4'
p68
aS'UCGAAAGGAGCGAAAGU'
p69
aF1.0
aa(lp70
S'Shape Test'
p71
aS'AAAAAGAUACCAAUAUACAAAAAAAAGUAUAGAGAUAGUCAGAUAAUAAAUUUAUCAUUAGAAAAUUAAAGACGUCAAGGUGACAAAAAAAAAAAAAAAAAAAA'
p72
aF1.0
aa(lp73
S'The Minitsry'
p74
aS'GCUGAAAAUCGAACACGACAAAAAUGCAAAAAGUCAAAAAAAAGACGGCGGGUCCCGAAGGC'
p75
aF1.0
aa(lp76
S'stickshift'
p77
aS'AAGAUAUCCCAAAAAGGAGAUAUCAA'
p78
aF1.0
aa(lp79
S'U'
p80
aS'AAAAAGAUACAGAGAGCAGAGAUAUAUACAAAAGUAUAUAUCCGCCCGUAUCAAAAA'
p81
aF1.0
aa(lp82
S'Still Life (Sunflower In A Vase)'
p83
aS'AAAGAUGAACAACCAAAAAGGUUGAACAUACGAAGGAUUAACCUACGAAAAGUAGGAUCAUACGAACUCAGUAUAUACAAAAUUUAUAGAUUUGUAAAAAGUAGAAGAUAUAUAUAAAUAUAUAUAUACCAUACUAAAAUGUAUGAGAUAUAAAAAAAAAAAAAGAUGAAAAAAAAAAAAAAAAAAAAAAAAAAAAAAAAAAAAAAAAACAUCAAAAAAAAAAAAGGUAUCGAGACAAAAGUCUCAGUAUAUGUAUAUUUAUAUAUAUCAAGAUACGAAAAGUAUCAACAAUCAAAAAGAUUGAACAUUCAAAAAUUAUCAACAUUCAAAAAGAGCCAACAUAUAAAAGUAUGAACGAUCAAAAAGAUCGACAUCAAA'
p84
aF0.9735449735449735
aa(lp85
S'Quasispecies 2-2 Loop Challenge'
p86
aS'AAAAAAUUCGAUGCUUAUCAAAGAGGGGUCAGCUGGUUUGUAAAAAUGACCUGAUCAUUUUGCAAACAGCGCUUGUGGGUUGAGUAAAAAAAAAAAAAAAAAAAA'
p87
aF0.9809523809523809
aa(lp88
S'Corner bulge training'
p89
aS'AGAUAUCGAUACAAAGUAUCAAAAGAUAUCA'
p90
aF1.0
aa(lp91
S'Spiral'
p92
aS'AAAAAGAUCAGAUAUCAGACAGAUACAGAUCAGAUCAGCAGCAGCAGCAGCAGCAAAAAGCGCGCGCGCGCGAUCGAUCGUAUCGUCGAUAUCGAUCAAAAA'
p93
aF1.0
aa(lp94
S'InfoRNA bulge test'
p95
aS'AAAAAAAAAAAAAAAAAAAAAAAAAAAAACUGCAAAAAAGGGCAAAAGGACAAAGGGCGUUGACACAACAAAAAGUAUGAGUACAUAGCACCGAAGUACCGAAAAGCACCAAAAACGCUAGA'
p96
aF1.0
aa(lp97
S'Worm 1'
p98
aS'AAAAAAAAGGAUACGAGCUAAAAAAAAAUAUUGGGAUAGGGGCAU'
p99
aF0.9555555555555556
aa(lp100
S'just down to 1 bulge'
p101
aS'AAAAAGGACAGAUACAAAAGUAUCAGACAAAAGUCAGUACCAAAAGAUCAGACAAAAGUCAGACAAAAGUCAGAUCAAAAAAAAAAAAAAAAAAAA'
p102
aF1.0
aa(lp103
S'Iron Cross'
p104
aS'ACAUAGAGAAAGGAACACAAAGUGAGACAAAAGUCAUCCAAAGGCACGCAAAAGUGAGACAAAGUCAGCCAAAGGCACACAAAAGUGAGAUAAAAUCAGCCAAACUCAGGCAAAGUCAAUGAA'
p105
aF1.0
aa(lp106
S'loops and stems'
p107
aS'AAAAAGCUAUAGAAAGUUCAAAGAUCAAACGUUUAAAAAAAAGAGACAAAAAAAAAAAAGUUUCGAUGACGAAAGGGGCUAAAAAAAAUGCUCAAAGAUCAAAUACAAAAAAAAGUGAAAGAACAGGCAAAAAAGCAAACUAUAGCGAAAA'
p108
aF1.0
aa(lp109
S'Water Strider'
p110
aS'AAAAUUAAGAAAUCAACAUACAAAGGUAGACAAAAGUUCGUAAAAAUCCGUCGAAAGGUUGGUAAUUUAAGUGUAAAUCGUAUAAAAAAAAAAAAAAAAAAAA'
p111
aF0.941747572815534
aa(lp112
S'The Turtle(s) Move(s)'
p113
aS'AAAGAUAAUUUAAAAGACAUCUACAAAAAAAAGGUAGAUGUCGAAGGGGCAAAAAGCCCACAGUCAGAAAACUGUAACAUAGAAAAAAACUAUGAAAAUUUAAGGUAAAAACACACGGUCGAAAGAUAAAAAUAUUUAAAAAAAGAAUAUAAAACGCAAAAGCGAAAAACAUAUGAAAGAUCAAAAAAAGGCAACACUAAAAAAUCUGGAGCAUGCAAAAAAGCAUGAUGAAAGUAAAUCAUGAACAUAUGGAAAAAAAACAAAACUUGAAGGCAUAAUUGAAAACCGAUACUAAAAAAAAUGUAUCUAAAAAGGG'
p114
aF0.9683544303797469
aa(lp115
S'Adenine'
p116
aS'AACACAGAUAUCAGAUAUGCGAUAUGGGAUACAAGAGGUCAAAAGAUAUCAAAAAGGAUAUCGGAUUUCAGCUACAAAGAUACACAAAGUGUAUCGUAGCAUGUAUCUGCUGGAUAUAUCAAAGAUGUAUAAACCAGCUCAUAUCAAAUUAUAUCACAAGAUAUCAAAAGUGUU'
p117
aF1.0
aa(lp118
S'Tripod5'
p119
aS'AACAUUUUCCGAAAAGGGAGUCGAAAAGCGAUGAUGGA'
p120
aF1.0
aa(lp121
S'Shortie 6'
p122
aS'GGAAAACCAGCAAAAGCAGCAAAAGCAGCGAAAGC'
p123
aF1.0
aa(lp124
S'Runner'
p125
aS'AAAAAUGUGUGAUUUAAAAUGCCGAAGGCGCAAACUAUGAUGAAGGGUCAAAGGCAAACCUGAUAAAGAAUGUAAAAUCAGCCUAUGUCUAUCUCAAAAGUAUGACUCACGAAAAA'
p126
aF0.9655172413793104
aa(lp127
S'Recoil'
p128
aS'AAAAAGAUACAAGCAAGCAAGACAAGACAAGCAAGCAAAGCAGCAGUCAGUCAGCAGCAGUAUCAAAAAAAAAAAAAAAAAAAAA'
p129
aF1.0
aa(lp130
S'[CloudBeta] An Arm and a Leg 1.0'
p131
aS'AAAAAGACAGAGACAAAAGUACUCGACAGCAAAAGCGUCAGUCAAAAAAAAAAAAAAAAAAAA'
p132
aF1.0
aa(lp133
S'[CloudBeta] 5 Adjacent Stack Multi-Branch Loop'
p134
aS'GAUGCGGACAAAGGUCCGGUCCAAAGGGACCGUUGCAAAAGCAACGUUGGAAACAGCGCAUCA'
p135
aF1.0
aa(lp136
S'Triple Y'
p137
aS'AAAAAGAUGCAGCUAGCAAAAGUUCGGUGAAAGCACUGUUCUACCGAGCAAAGGCUCGAUCGAAAAAUCGGUCUUUCGAAAAAAAAAAAAAAAAAAA'
p138
aF0.9175257731958762
aa(lp139
S'Misfolded Aptamer'
p140
aS'UAGCUAAAAGGUGUAGAAGACAGGUAAACAGGGCUCGGGUUAAAAUGAUG'
p141
aF0.92
aa(lp142
S'Flower power'
p143
aS'AAAAAAUAUAGGUUAUAAUCGCAACCCCGGAAUCGGAAGGCGGAACUUCGGGGUCAAAGACUUGUGAAACUUAUGGGGAUGUGAAAAAAAAAAAAAAAAAAA'
p144
aF0.9215686274509803
aa(lp145
S'Kudzu'
p146
aS'AAAAAGGUGCAGGAGACAAAUAACAACGUAUUGUAUAUUGUUUGGGAAGCAAAACAGGAGAAACUCAAACUUGCACGUACUGAAAAAAAAAAAAAAAAAAA'
p147
aF0.9801980198019802
aa(lp148
S'"1,2,3and4bulges"'
p149
aS'AAAAGUCAAGUAUAGGAAACGAGAAAUGAGAUAAAGGUCAUACGGAAAGAGAAGGUUGAAAAAAAAAGGAAGAAGGACAGUAACGAAAAAAAAAAAAAAAAAAAA'
p150
aF0.8666666666666667
aa(lp151
S'medallion'
p152
aS'GAUAUGACAUAACAAAAGUUAUGAAGCGAAAGCUGGUCAAAAGGCAGAUAAGGAAACUUAUCAGGUAAAAGUCAGAUGGCAAAAUAUAUUACUUAAAAGGUACACAAAAGUGAGAUAUCUAAUGGUAUCAUACGAAAGUGGUGUAUCAAAAGAUAUAAGAGAAAAAGCGGAGGAAACUUAGGUUUGGAAACAGACUAGGCAAAGCUCAAAUAGCUAAUGCUAUUAGCCAAAAGGCAGCGGAAACUCGGAGCUCAAAAGAGUUCAGAGAUAAUUUAGAUAUCUAAUGAAGGCAGCCAAAGGUGUAACGAAAGUUUAAGGUCAAAGGAGAUCACAUAUC'
p153
aF0.8931750741839762
aa(lp154
S'[RNA] Repetitious Sequences 8/10'
p155
aS'AGGAAAAAAGCAAAAAAGCAAAAAAGCAAAAAAGCAAAAAAGCAAAAAAGCAAAAAAGCAAAAAAGCAAAAAACCAAAAA'
p156
aF1.0
aa(lp157
S'Documenting repetitious behavior'
p158
aS'AAAAAAAGGAAAAAAAAAGGAAAAAAAAAGGAAAAAAAAAGGAAAAAAAAAGGAAAAAAAAAGGAAAAAAAAAGGAAAAAAAAAGGAAAAAAAAAGGAAAAAAAAAGGAAAAAAAAAGGAAAAAAAAAGGAAAAAAAAAGGAAAAAAAAAGGAAAAAAAAAGGAAAAAAAAAGGAAAAAAAAAGGAAAAAAAAAGCAAAAAAAAAGCAAAAAAAAACCAAAAAAAAACCAAAAAAAAACCAAAAAAAAACCAAAAAAAAACCAAAAAAAAACCAAAAAAAAACCAAAAAAAAACCAAAAAAAAACCAAAAAAAAACCAAAAAAAAACCAAAAAAAAACCAAAAAAAAACCAAAAAAAAACCAAAAAAAAACCAAAAAAAAACCAAAAAAAAACCAAAAAA'
p159
aF1.0
aa(lp160
S'7 multiloop'
p161
aS'GCACUGGGCAAAGGCUCAUAAAUGAAACUUCUUAUAGAAAACAAUACUAGUUAAGAUUAACUAGAUAAUUCUGGACUUCAAAGGAGGGGUGC'
p162
aF0.9782608695652174
aa(lp163
S'Kyurem 7'
p164
aS'AAAAGUAUGAAGAAUAACGGUGCACAAAAGUUUGGUCAAAAGGGCAUCUCUCGAAAAAGACAAAGUCAAAAGUGCUUAUAUGAAAAAAAAAAAAAAAAAAAA'
p165
aF0.9117647058823529
aa(lp166
S'JF1'
p167
aS'GAUGAUGAUAGACAUACAAUAUACAAAAGAUAUGAAGAUACAAAGAUACAAGAUAUGAAUAUAUAUAUAUACAAAAGUAUAUAUAUAUAUAACACAAAAGUGACAUAUAUACAAAAGUAUAUAUGAACAUACAAAAGUAUGACAUAUCAGUAUCAGUAUCACAUAUCAAAGAUAGAUCAAAAAGAUACUAUCAACAUAUAUAUGAUAUUUAUAUAUACAAAAGUAUAUAUAGAUAUACAUAUAUAUGAAAAUUGCUAAAAUGCAAUCAUAUAUAUCUAAUGAUAUAUAUGGCGCACGAAAACGUGAAGUAUGAAGUAUGAGAUCAGACAGGCAAAAGUCGUCGAUCAGAUGAUAUCAAAAGAUAUAUAUCACUAUACAUACAUCAAA'
p168
aF1.0
aa(lp169
S'multilooping fun'
p170
aS'GGUCUAGCUUAAUGUUUAAUAACGUUUGCCAUCACC'
p171
aF0.8888888888888888
aa(lp172
S'Multiloop...'
p173
aS'GAUCAGAUCAGCCGGAAGGUACACAAAAGUGGGACAAAAGUCAGGCAAAAGCCAGUCGAAAGGCAGAGAAAACUCAGAUCAGAUGCAAAAAAGCAUCGGCAAAAGCCGAUC'
p174
aF1.0
aa(lp175
S'hard Y'
p176
aS'AAAAAGGUCCAAUAUUAACCGAAAGGUUAAUCACGGAUUUAUGUGGAAACACAUAAAUCGGCCAAAAA'
p177
aF0.9705882352941176
aa(lp178
S'Mat - Elements & Sections'
p179
aS'AAAAGGAUGGGAAAUUGAAGAAAGAUGAGCAGAGUAGGACACAAAGGUGGAGCAUUCGACCAUCAAAAUGCUUCUAAAACACAUCAAAAAAAAAAAAAAAAAAAA'
p180
aF0.9619047619047619
aa(lp181
S'Chicken feet'
p182
aS'AAAAUACACCGGAAAAUUACGGAAUGAAAGAGUUGAAACUGCAAGGGUGGUAUCGAAAGAGCUAAAA'
p183
aF0.9104477611940298
aa(lp184
S'Bug 18'
p185
aS'AUUGCGAUGUGCGAGCAAGGCUUAAAGAAACGGGAGGUUGGAAAAGAAAAGGA'
p186
aF0.8867924528301887
aa(lp187
S'Fractal star x5'
p188
aS'AAAAUUAUAUGAGUAUGGUAAAAACCAAGGAUCUAUUGAUUAACACCAUAGGGUGGACACUAAAAAGUGAUCUCAUGUAUAAAUCCGAGAAGUGUGUCGAAAGAUAAAUAUGAAAGCAUGAACUGUAAAGGCGGAGUAGUGAAAGCUAAUCUUUUUGGUAAAAGAUUUCGGAUUAACGAAAGUUAUACUUGUAAUCAAGGAGUUUAAAAAAGCAUCACAAAAAUGUGUACCGAGAUCAAAAACUUACGGGGCGAGGUAAACUUCUGCGUCAAAUGAUGAACUCGAUAGUGAGGAGCCAGAAAUGGCGACUCGUAAGAAAAACGCAUACGAAGGUCAAAAGACCAACAGUAAAGAUUGAGCUACAAAGGUAGAAUAUCGAAAGAUAAAUGUAUGUGGAAAA'
p189
aF1.0
aa(lp190
S'Crop circle 2'
p191
aS'UCAAACAUAAAGCAAAAAACAAAAAAAAAGUAAAAAAAAAAAAAAAAAAAAAAAAAAAAAGACGAAAAAAAAAAAAAAUCGAAAAAAAAGUAAAAAAGGGAAAAGGAAAA'
p192
aF0.9636363636363636
aa(lp193
S'Branching Loop'
p194
aS'GUAUAUUAAAAAAUAUUUUUAAUGACAACGGUGAAUAAAA'
p195
aF0.95
aa(lp196
S'Bug 38'
p197
aS'AUGAAGAAGAACUAAAAAUUGGAGCAACUUCAGAAG'
p198
aF0.9444444444444444
aa(lp199
S'Simple Single Bond'
p200
aS'AAAAAAGGAAAAAAAUAUUCGAAAAGAAUUAAAAAAAACAAAAAAAAAAAAAAAAAAAAAA'
p201
aF1.0
aa(lp202
S'Taraxacum officinale'
p203
aS'CUGGGAAACACAGAUAGCGAAAGCCUGACAGCUAAUGACUGAGGGCGAAAGACUUAUCGCAAAAGACGGAGCGCGAAAGACGCACAUGUAUAUAGCAUAUAGGUAUAAAGUGCACUAUAUGGGAUAGAAGAUAAAUAUUAAGAUGUACAAGGUACAUCGAAUAUUUAUCGGUCAGAUAUGAAAUAUAUCGACCCUGUCAAAUUAUAUACAUGAGAACAAAAGAUUCACGGCGAAAGACUGAGGGCGAAAGACCUGGAGCAAAGGACUCGUAAUAAAAGUUAA'
p204
aF0.9858156028368794
aa(lp205
S'Headless Bug on Windshield'
p206
aS'AGCGGAUAAAUGGGGCAAAUCGGAUUAAAAAAAAAAAAAAAAAAAAAAAUCUCAGAGAAGCCAACUAUAGCGCCGAGAAGAUAAAGAAAAAAUGGUAAUUCUAAAAAACUGUCAAAAAAGAGUGGAACAAAAAAACCCAAGUGGAACUUGAAGACAAAAAAAAAAAAAAAGUCACUCUUGUAAAGUAGGCAAAUAAUUCU'
p207
aF0.94
aa(lp208
S'Pokeball'
p209
aS'AAAUUUAGACAAAAGCAGCCCGGAAAAAGGAUAGAGUAGCGGAAAAAGCUAUGCGUAGACUGGCAUAAAUUAUUCAGGAGCGUAUAGAAAAAAAAUGGUGUUCAAAAGGGAACAAUUAAAUCCCUGAACCGAGAUUACGAGCAAAGCAGAUUGAAGUACAUGGAGUGGGGUAUCCAACAUCUAA'
p210
aF0.967391304347826
aa(lp211
S'Variation of a crop circle'
p212
aS'AAAUGCUAAAGCAAAACGAAAAUUAAUUUGUAAAAGGAUGGAAAGCGAAAAAGGUGAAAAACGCAAAAAAAAUGCUAAAAAAAAAAAA'
p213
aF0.9545454545454546
aa(lp214
S'Loop next to a Multiloop'
p215
aS'AAGAUUGAUUUAAAAAACGGAUAUCAAAAGAUAUCAGCUAUAUAAAAGUAUAGCUGGAAAAAUAAUCAAUCAA'
p216
aF1.0
aa(lp217
S'Snowflake 4'
p218
aS'CAUCAAGGAUUGAUUCGCAAAACCUAGAAAAGAUGUGCAAAAGCUCGAAUAAGAAAUUUAAACAUCAAGGCUGUUCGAACGAAAGUAUAUCUUGAUACCGUAAUACAUUACCGGCAAAUCCGAAGAACAAAGUUUGUCAGAGAAAGCUGUAUAUACAUUCGAAAAAUAUAAACCAUGAAAUAAGAACCUGAAGCAUGGUUUACGAAAAUAGGAUGAGAAUCGACAAAAGGCAGACCAUUGAAGACGAACAUGAAGGAUGGUCUGCCAAAGGGCGGUUAAUGAUAGCAAAAGCCAUGCGACUAAAGGUAAAUAUCAAAGAUAUCGUGCCGAAAGGUAUCAAGUUCUAGCAAAGGCGGAUCUAUCAAGGAUG'
p219
aF0.8378378378378378
aa(lp220
S'Mat - Cuboid'
p221
aS'GAAGAAAAAACAAGUAAAAGCAAGCAAAACAAGCAAGCAAAACCAAACAAGUAAAAUAAGGAAGAAACCAAAAGCAACCAAGUAUCCAAAAGCAAGCAAGCAAUCAAGGACAAGUAGACUCUCUAUCACUCAAGAGCUUUCUUUCUUUCAUUCGUUGAAAAUCUGUCUUUCUUUGUAUCUUUCGAAAAAUUUCUUAGUUUCUUCCAUUCAAAAAAGAUGGGUUGAUUCUUUGGUAUAGAUUGAGUUAUUUAUUGAAUGACUUAGAUGGAUUGAUUGAUUGCGAUGGAGGGGUUGAUGGCCCAAGCGAGCAAGCAAGCGCUAGCAAGGAAUCGGAAUCGACCAAGGCAACUAAGCGAAAGUAGGGCAAGCGCAAGUUCAGG'
p222
aF0.8526315789473684
aa(lp223
S'Misfolded Aptamer 6'
p224
aS'AAAAAAGACGAAAAGUGGGUACGGGGGAAAAAAAAAGUUCAGAAGGAAAUUCCGAAAAAAAGUCAAAAAAAAAAA'
p225
aF1.0
aa(lp226
S'Snowflake 3'
p227
aS'GAUGCAAAAGCAGGCCUAAAAAGAGAGGAUCACGUCGAUACAAAAGUACACAGCAAAAGCAACAAAGAACAAAAAAGGAUGCACAAAAGUGAAGAUCAGAGCAAAGCAAAGUUUCACAACAAAAGUCACUAUGUGCCGAAAGGAGUGGCCAAAGGACAAGUUCGAAUCGAGACGAAAGUCCACGUAAAAAUGCACAAAGCGCCUAAUAGAGUGCACAAAGGUGAUGAUUAUACCAAGACAAAAGUCCACAGCAAAAGCCUCAAAGUGCCAAAAGGAGUGUACAAACGUAAAGGUGAGAGCAAAUCAAAGGACCAGACGUAAGGGUAGAAGCUACGGAAACGAUUGCUCAAAAGUGAAGAUCACAUCAAGGCAAAAGCCGCCAGCAAAAGCAUC'
p228
aF0.821882951653944
aa(lp229
S'Hard Y and a bit more'
p230
aS'AAAAAGAGCGUGGGUAAAUAAUGUUAACAGGAUAUUCGAAUGUCUAAUGAUGAAGAUGGGAAAAACUAUUAGCCUGUAUCCGCUCGAAAAAAAAAAAAAAAAAAAA'
p231
aF0.9716981132075472
aa(lp232
S'Mat - Lot 2-2 B'
p233
aS'GAAGCAGCUGACUUUUAAAAUCUGUGAGAAAACUAAAACAAUGAAAGUGUAAAACAAAGGCCAUGAAACCGGUACCUUUCAAAAUUUAAUACAAUCAAAAGCAAAGGUGAGGGUAAAAAUGUGGGGUUGGGCAAGCAAGAAAAGUUGCGAUGACGCACAAAAGCGUUGAUAAAAAUAAAACGUAGCGUUAAUAAAACCGAGCGCGGGCGAGGAAGCACUAUCAAAAGCGUUAAUGUACAAAAGUAAAAAUCAUAAUAAAAGAUAGCAAUUGGGAUAGGAACGAG'
p234
aF0.778169014084507
aa(lp235
S'Shapes and Energy'
p236
aS'AAAAAAGGAGUGAAUCGAAUAUUAUGCGCAGGAAACGGUGUUAUGUGAUAAAGGGGCGAUGGUCAAUGACGAUACAGUACGAAAAAAAAAAAAAAAAAAAA'
p237
aF0.9603960396039604
aa(lp238
S"Spiral of 5's"
p239
aS'GAAAAGAUACAAUGGUGAGAAGAUAAAAAGGAUACAAAGAAAAAAAGGUAAAAGAUAAAAAAGAUACAAAGAUAAAAAGAUAAAAGAUGCAAAGAUAAAAAGAUAAAAGGUACAAAGAUAAAAGAUACAAGAUAAAAGAUACAAGAUACAGAUACAGAUAGAUAUCAAAAGGAUAUAAAAACUAUCAAAAAGUAUCAAAAAGUAUCAAAAAGUAUCAAAAGUUAUCAAAAAGUAUCGAAAAUUAUCAAAAAGUACCAAAAAUUAUCGAAAAUUAUCAAAAAGCAUCGAAAAUUAUCAAAAAUUAUCAAAAAGUAUCAAAAAUUAUGAAAACUUAACAAAAACUAUCAAAAAGUAUCAAAAAUUAUCAAAAAUUACCUAAAAGUAUCAAAAAUAAAAA'
p240
aF0.9949622166246851
aa(lp241
S'Campfire'
p242
aS'AAAAGACCGAGCUUGAAUAGAAAGAGCAAAAGGUUCGAGAGCAAAGCUCCGACCUGGAACUGCGCAGCAGAGCCAAAGGGAUUAGCGCGUAUCAGCAGCAGCGAAAGUGCGCGAGAAGACAAAGCUACGAGUCAGGUAAUCGAAAGUGUGACACACGGACAUAUAGCUAAAAAUAGCGCUGUCAGCACAUCGGAGAUAGUACACAGUGGUCU'
p243
aF0.8773584905660378
aa(lp244
S'Anemone'
p245
aS'AAAGUGAGCGAAAGCUUACCUUAUGUAUGUAGGGUAGUUGAAGAGCGACGGCACUUAAGUCUAAGGAGUUAAUACUUCUCAUAUGAAAAAAUUUUACCUAAUGGUAGGGCAGCAAAUGAUGCCAACUUCGAAAGGAGUGUUGUGAAAGCACAACCGCUCGAAAGGGUGGGACUUGAAAAGGUCCGCGAAGAAAUUCGCGAUUUUGCAAGAGAUC'
p246
aF0.9906542056074766
aa(lp247
S'Fractal 3'
p248
aS'AAAAAGCUCAUCAACAUAAUUGUAAAAUGACGGGGGCCAGCAAAUGCACGAAAGUAGGCAAACAAACAACCCUAGAAAGGGCUUGCGGAGCAAAAGCGGGAAACCAACGAGAGCAAAAA'
p249
aF0.8823529411764706
aa(lp250
S'Kyurem 5'
p251
aS'AAAAAGAGUGUCCGGAAAGUCCAUCAAAACUGUUUGCAAAAUCUAAAUGAUGUGGGUCAAAAAGGUGAAGUCGUGGCCAAAGGGAAAAAAAAAAAAAAAAAAAA'
p252
aF0.9230769230769231
aa(lp253
S'Snowflake Necklace ( or v2.0 )'
p254
aS'GACAUUUAUAUUUGCAGAUUGGAGAAAAGUUCGCAAAAAGCAGCAAAAAGUUACAAAAGGUAGCAAAAAGUACGAUCAGACAAAAAGUUACUUGGAACAAAAAGUUGCAAAAAGCACCAAAAAGGUGCAAAAAGCUCCAAAAGGAACCAGGAGGGAAAAGCUCAGAGAGGGCAAAAAGCACCAAAAAGGAGCGAAAAACACGAAAAAAGAGAAAAAAUCCCUUUCGCACAAAAAGUCAGAGAUAGGAAAAACUAACAAAAAGCACCGAAAAGGACCAAAAAGGAGGAAAAAACGCUCUCAAAGAAAAACUUAGAUAGAGCAAAAAACACCAAAAAGGAGAAAAAAGAGGCAAAAAGCAACAAAAAGUACUAUCAGUAGAUAUAGAUGUC'
p255
aF0.8766066838046273
aa(lp256
S'Methaqualone C16H14N2O Structural Representation'
p257
aS'AAAAAAAGAUCAGAUCAGACAUACAAAAGUAAGAGACACAAAAGUGAUACUGACAAAAGUCCGGCAAUCAAAUGAUACACAAAAAAAGUGAGCCAGUAACUCAGUCAGAAAUAGAUCAGAUCAAGGAACAAAAACCAAAGGGAAAAAAAUUGGGAGAGACAAAAGUCCUCAAAAGGGCACAAAAGUGCUCAUCAAGGAUCAGAAACAGACAGAAACACAGAGGGCCAAAAGACAAAAGUCAGGCAAACAAAAUUCACUCAGACGAAAGUCGGUGAGACAAAAGUCAUUCAGACCAGAAAGAGGCACAAAAGUGACGGAAAACUGGUCAGUCAGAUCAAAGAUCAGAUCAAAAAAA'
p258
aF0.8929577464788733
aa(lp259
S"Cat's Toy 2"
p260
aS'AAAAACGGCACGAAAACCAGGAAAAAAAAAAAAAAAAAAUCUACAAAUAAGAAAUUCAAAGAAAACCUAAAAAACGGAAAAAAGGCGUGUCGUAAAA'
p261
aF0.979381443298969
aa(lp262
S'Zigzag Semicircle'
p263
aS'AAAGUCCGGUCUAGAAAAGAAGAGCCCGAAAAAA'
p264
aF0.9411764705882353
aa(lp265
S'Short String 4'
p266
aS'AAAAAAGCCGUAAUCAAUGAAUAUCAGCAAAGCCGCAAGAAGAUUAAGUCAAAAGAAACAAUUAAAAGGAAAGCCGAAAAAAAAAAAAAAAAAAAAA'
p267
aF0.9381443298969072
aa(lp268
S'Gladius'
p269
aS'GGAAACAUAAGGGAAAUAAAUAAAAGUAGGACAACCAAAGCUCAAAGGAGCAGUGACAAGGAGCAAGUGCGCAUGUGAUUGUGAGAGAUAGGAGGUAGCAUGUGGAGAUCAGAUUGAGAUCAAAGAUCAGAUACGAUCUGCAUGGACUACCCACUAUUUCAAUAGUUUGUUAGGGCUUCAGCCAAAAGUAACGGAUAAAGACAGAUACACAGCUCGGAAGAGCAGAAGGUAAGAAGAUAUACAGAUGUCAGAUCCAGAUCGCAUACAUGUAUCGAAAGAUAUAAAGUAGACGAUACGGAUACGAUAUACGUGUAUCGCAAUACCAAAAGUUCACAAGGGAGAAGUAUCGAAUUUAAUAAUUAAAGUCAGCCAAUCAGGGCAAGGAAUAGGGCUAAAAAAU'
p270
aF0.895
aa(lp271
S'Thunderbolt'
p272
aS'GCAAGGUACUAAAAAAAUGGGAAGUAGAGGGGGGAAACGGAUAUGUCUAAAAAAAAGGAAAAAUGCUCAAAAAGAGCUAAAAACCGAAGCGUUCAAAAAAAGUGCCAAAAUAAUCGAGAUUUCAAAAAGAAAACAGAUCAAACUGACUAAAUGUAUCAAAAAGAGAGUUUAAAUGUCUGGUCAAAGAGAUAAAAAAUGCCAAAGUGGAGCAAAAAAACAGGGACCAAAAAAAAGAUCAGGGGGAUAUCAAAGAUAUCAGAUUGCAAAAAAAAGAAGAUUAUAAAAAAAAACUUGGAAAACCACAUCAAAAAGAAAAAAAACAAAAAGAUGUGAAAAGGCAUGAUAGAUCAAAAAAAACAGCGACCACAAAACAAAAAAAAUUGUAUCAAGCA'
p273
aF0.923469387755102
aa(lp274
S'Mutated chicken feet'
p275
aS'GAAAAAGUCAUGGGUAAGCUACCUAUGGAAAGGGCAGAAGCUAAAAAUUUGCAAGGCAAAUCGGUCCAGUGACAAGGUAUUAAGAGAAAGCACUAAAAAA'
p276
aF0.84
aa(lp277
S'Chicken Tracks'
p278
aS'AAAAAAAAGAUAUACGAGAAAAAUCUCAUGUUCUAAUGAACUAGAUGGAAACAUCGUAUAUCAAGACGCGGGAACCGCAGGAGCUAUGCUCAAAACCGAAGGUUGUCAAAAAAAAA'
p279
aF1.0
aa(lp280
S'Looking Back Again'
p281
aS'GACAAGAAGCUCAAAAAGAUAUCAAAGGUAUCAGAGCAAGACCCCAGGGCGAAGCCGUGCGACACGAAGAUCAAAAGAUCAAAAGUGUCUAGUCAAUUCCUGGACAACGAAAAGAUACAAAAGUAUCAAAAAAGUGCAUCCGAUGGUAUCUUUCCAUGCAAAGUCUGGCCGUCCCAUCUUAAAGUUUAACUUGAUUAAAAGAUUUUGAGUACUUCCUGGGACGAAAGUCAAGAUAUCAAAGGAUCGUCCCGAUAGAGAGGUAAAAUGAGCUAGAAAAAAAAGUUCUAAAUGAACCUAGAAACUCUCUUCGCUCAAAAAGACCAUAUCAAAAGAUAUGAAGAUCCAAAGGACAAACUAAGUAUGAAAUUGUAAAAGAGCCUAUCAAAGUU'
p282
aF0.9023136246786633
aa(lp283
S'Multilooping 6'
p284
aS'AACGUCGGGGACGCUUGAUGACGGCUCGCGAAAGCGAGUAAGCCGGGAUAAAUAUGUGGUCUAAAAGUGAACCGACGGCGGU'
p285
aF0.926829268292683
aa(lp286
S'Cesspool'
p287
aS'GAAGAAGAAAAUGACCCUUUUUUACCUAUCGUGAGAUAUUGGGAAAUGUAAAAGUGUAAUUUAAAAAUUCGAAGUCAAAACAACAAGAAGAACAAUGAAAAAAUACUGUGUAGCUGGAGGAAAAAAAAUCUGGAGUUGAAAACAUCUGUUUAAAAGUAGUCAGUCAAAUUAAAAGCAAUUAGGAAGAAAACAACUUGGUAGUAAGAAACACUGCAAAUUAAGCACUUCAAAAGCACAAUGGGAAAUUUUACGGUUAAAAAAACAUGAAAGCUUUACUAAAAAAACAGUAUAGGAAGAAAUUCAACGAAUUCUAGCGAUGAACGCUGAAUAGUAAAAGAGGACAGUCAAAAGAAAUUGC'
p288
aF0.6312849162011173
aa(lp289
S'Hoglafractal'
p290
aS'AAGAGAAAGAUACAAAAGAUACGAAAAAGUAUCGUAUCGCGCAAAAUGAGAAAAUUAUCAGCCACAAGUAAAAGUACGUGAAGGUAAGAUCAAAGAUCAAAAAAGAUCGGUCAACAAGAGUAAAUCUCAUCCCAGAAAAAUCGGAGCCGAAAACACAAGACAAAAAAGUCGUGCCCGCAAAAGGCGGCCCAAAAGUGAGAUAGAAAAAGCAGCAAAAAAGCGCGAUAAAAAGUUCAAAAAGGGGAUUUGAAAAACUACGAAAGAGUAACUAAAUGAGACCAUUCCCAAGGGGGAUGAAAAAAACAGAUCAAAAAGCUAUCAAAAAUAUCGAAAGUAAAAACAAUAAAUUCGACAUGAAAACCAAAAGGCCAAAAGGCAUAUCAAAGAUGUGAAAUACGUG'
p291
aF0.8725
aa(lp292
S'Bullseye'
p293
aS'AAACUAUAGCAAGGCUGAAGAUAAAAUAUCAAGGUGUAUGAUCAGGGAAAAAAAAACGAUUAAAGGUCAAGAGCGAAGUUCAAUAUCAAGGAUGGUUAAAAAAAAUAGAAGUAAAAUGCAAGAUGUAUUAUCAAGACGUAUAAUCCUAAAAAAAAACCCAAACUAAAAUUAUAGUUAAAAAUCCAGCUGAAGGGUUGGGAAA'
p294
aF0.8712871287128713
aa(lp295
S'Shooting Star'
p296
aS'GAUAUCGUACGAUAUGCAAGGAAGUUGACACAGGCAGCGAAAGACUCACGUGAUAGAUUCAAGGGUAUCAAACCUUUUAGAGUCGUACACAGGCAGGCAGAUCAACUAAUGAUGAUACGCCGACUUUAGUAAGAAAGCAUUAAAAAGUAAGGUAGAUCCAAACAAAGUUUGACAUACAAAGUAUGAAAAAAAUGUAGAUCCGUACAGGAGAGAUGAAAGAUAUAAAAUAAAUACCAGAUACAAAGUAUCCAUCGCUAUACAAGCUAUAUCACAUGCAAAGCAUGCACCGAUAAACAAAGAGUUCGAGUUUAGGCAGAGAUAAGCAAAAGACUAUAACUGACAAAUUCAGUUCUUUCAGAUAUCA'
p297
aF0.8021978021978022
aa(lp298
S'Teslagon'
p299
aS'AAAAAAAUAAAAAAAGCUUUAAAAAAAGCAUCAAAAAAAAAAAAAAACGAAAUAGUGAGCAAAAAAAAAAAAAAAGCGGCAAAAAAAGAUGGAAAAAAAGCAAAAAAAAAAAAAAAGUAAAAAAACCGGGAAAAAAAGUAGAAAAAAAAAAAAAAAGGCAAACAGUGUGCAAAAAAAAAAAAAAGGAAGCAAAAAAACCAUGAAAAAAUGCAAAAAAAAAAAAAAACCUAAAAAAGAAGGAAAAAAAGUGGGGAAAAAAAAAAAAAAUCAAACAGUGAGCAAAAAAAAAAAAAAAGCGCCAAAAAAAUAACAAAAAAAAGCUAAAAAAAAAAAGCAAAAAAAAAAAAAAAGCGGCAAAAAAACGAGAAAAAAAAACAAAAAA'
p300
aF0.9109947643979057
aa.