(lp0
(lp1
S'Simple Hairpin'
p2
aS'GAUACAAAAAAGUAUC'
p3
aF1.0
aa(lp4
S'Arabidopsis Thaliana 6 RNA - Difficulty Level 0'
p5
aS'GAUAUAUACGUCACAAAAAAAAAAAGUGGAUAUAUCAUGAUAUAUAUAUAUAUAUAUUAUGAUACAAAAAGGUAUCCGUAUAUAAUAUAUAUAUAUCUGGAUAUAUCAAGUAUAUC'
p6
aF1.0
aa(lp7
S'Prion Pseudoknot - Difficulty Level 0'
p8
aS'GACAUCAGAUCAAAAGAUCGAUAGUCAAAAAAAAAA'
p9
aF1.0
aa(lp10
S'Human Integrated Adenovirus - Difficulty Level 0'
p11
aS'GAGGAAGCGUAUGCGGAUAUCUAAAAAAAAAGGGUCGGUUCGGGUAUAAGCCGUACUAAAAGACAUAAUAAUGUGAAAAAAAAUAUUAUUGUAAAAGUCAGUACAUAAGGCCCCAAAAGAACCGCGACUAGUAAAAAAGGCUGGUGACCAAAAAAAAAAAUGAUAUCAGUAUAAAAACGCUUAAGCUUCAAA'
p12
aF1.0
aa(lp13
S'The Gammaretrovirus Signal - Difficulty Level 0'
p14
aS'AACUCUCGAGUUGAAAGCGAUUCCUGUGAAAAAAGAAGAAGACAGUGUUAUAGAAAACUAUACAAAGCACGUCCUUCAAUUUUUAUCAAAGGAUAGAAAAA'
p15
aF1.0
aa(lp16
S'Saccharomyces Cerevisiae - Difficulty Level 0'
p17
aS'GGUCUGCCAUCAAAAAAAGGAAAGACGAAAAAAAAAAAAAAGUAAGAUGGUGGAAAAGACGCCAGUAAAUUAAAAGUGAUCCAAUAUCAAAAAAAGAAUUAGGUAAAAAAAAAAUUCCUCAAACUAGGGAAAAAACCUAGGGAUCACGAAAUGGGAGCACCGGUAAAAAAAGACCGGGUAGUAAAAAAGACUACCACUGCUAUAUAAAAAUUAUAGGCUCUCGGAAAGUCACACAAUAUGAAAAAGAGCUUGCCUGUCUAAAAAUGACAGGACGUUGUUCGAAAAAAGAGAAGUGUGGCGAAUAGCCUACAAGAGGGAAAAAAACUUCGGUGGCAAAAAAAGCCACCACGUGUCUUGUAAAGUGAGAUGUAGGAUUAAA'
p18
aF0.9894459102902374
aa(lp19
S'Fractal 2'
p20
aS'AAAAAGAUAUAUCAAAGAUAUAGAUAAAGAGCAAAAAAAAAAGCUCAAGAGCAAAAAAAAAAGCUCAAGAUCAAAAAAAAAAGAUCAAUAUUUAUAUCAAAGAUAUAUAUAAAGACCAAAAAAAAAAGGUCAAGACCAAAAAAAAAAGGUCAAGAUCAAAAAAAAAAGAUCAAUAUAUAUAUCAAAGAUAUAUAUAGAGAGUAAAAAAAAAAACUCAAGGGCAAAAAAAAAAGCUCAAGAUCAAAAAAAAAAGAUCAAUAUAUAUAUCGAAGAUAUAUCAAAAA'
p21
aF1.0
aa(lp22
S'G-C Placement'
p23
aS'GAUCAAAGAUCG'
p24
aF1.0
aa(lp25
S'The Sun'
p26
aS'GACAUCCGUAGAAACUAUAAGGAGUCAAACACAUUCGUAGGAACUAUAAGAGGUGAACCUCAUUCCUAGUAUCUAGAAGGAGAGAACGACAAACUUACAAGGUAGAAGUUGAUAAUCCGAGACGAAUGAAAAACCAGUCCGGUAGCACAGACCGUGUAUCACAAAGUAGUGAAAGCCAGACCUUCGAACGAUAAGUCGUUGAAGACAGAGACACGAAGUCUAACUCGUCGAACCCACUCGUAGAAACUGCAAGACGGG'
p27
aF0.8992248062015504
aa(lp28
S'Frog Foot'
p29
aS'AAAAAAAAAAUGUCAAAAGACAGUUCAAAAGAGCGCUCAAAGAGC'
p30
aF1.0
aa(lp31
S'InfoRNA test 16'
p32
aS'GAUAUCGCACAUAGCAAAAGCUAUAGUAGAGAUAUC'
p33
aF1.0
aa(lp34
S'Mat - Martian 2'
p35
aS'GUUCAAAAGAACAAAGAUAUACAAGAUAUAGUAAAAAUCUAUAUCGUAUAUUAAAGAAUAUACGAAAAACAUAUACAGAUAUACGAAAAAAGUAUAUCGUAUAUGAAAUAUAUACAUAUAUAAAAAAAGUAUAUAUAGUAUAUGAAAAAAGUAUAUUCAAAGAAUAUCUAGAUUUAAAAAAAAAAUUUGACGAUAUUCAAAUACUAAAAGGUA'
p36
aF1.0
aa(lp37
S'square'
p38
aS'GAUAUACCAGGGCCAGGGUCCAUAGCAAAGCUAUGAAAAGACCCUGAAAAGCCCUGAAAAGUAUAUC'
p39
aF1.0
aa(lp40
S'Six legd turtle 2'
p41
aS'AAAAAGCAAAGUAAAAACAAAUUGAAAAAAAGAAUAAUUUAAACGAAAAUGAAACCAAAAGGAAAUAAAAAUAAAGGCAAAAAAAAAAAAAAAAAAAA'
p42
aF0.9591836734693877
aa(lp43
S'Small and Easy 6'
p44
aS'GCAAAAAAAGUUAAGUGAAAAAAAAAUAUC'
p45
aF0.8666666666666667
aa(lp46
S'Fractile'
p47
aS'AAAAAAAAAAAUGCAAAAAUCAACCUAAUCAAGAGGGUCGAAAGCAAAAGUAAACCUGCGAAAAUGUAUGGGACAAAAAUGAAAAAAAAAAAAAAAAAAAAAAAA'
p48
aF0.9619047619047619
aa(lp49
S'Six legd Turtle'
p50
aS'AAAAUAAAAACCUUAACAGAAAAGGAAAGUGGAAGCGAAAGAAAAAACGGAAAUGAAAAGAGAAAGGAAAACAGAAUUGAAAAAUUAAAAAAAAAAAAAAAAAAA'
p51
aF0.9428571428571428
aa(lp52
S'snoRNA SNORD64'
p53
aS'GAUAUCAAAAAGACAAAAGACAAAGAUACAAAAAAAAAAAAAGUAUCGAAAGUCAAGUCAAGAUAUC'
p54
aF1.0
aa(lp55
S'Chalk Outline'
p56
aS'AAAAAGGUCAGACACAAAAGUAGUCAAUCAGACAAAAGUCGAUAGAUGCCUAAUGGACAUCAGCAGUAAAAGCUAGCGACUGAAAAAAAAAAAAAAAAAAAAAA'
p57
aF1.0
aa(lp58
S'InfoRNA bulge test 9'
p59
aS'GACAUACAGCGAGAGAUAUUCAAAGGAAUAUCCCCGUAUGUC'
p60
aF1.0
aa(lp61
S'Tilted Russian Cross'
p62
aS'AAAAGUAUGGCUUAAAGAGAAUCUCAGAUCAAAGGAUCCAUUGUAAUCAAUGAAUGCGAAAGCGUGAGAAUGAGAAAUCUACAUGAAAAAAAAAAAAAAAAAAAA'
p63
aF0.9238095238095239
aa(lp64
S'This is ACTUALLY Small And Easy 6'
p65
aS'AAAAAAAAAAAAAAAAAAAAAAAAAAAAAAAAAAAAAAAAAAAAAAAAAAAAAAAAAAAAAAAAAAAAAAAAAAAAAAAAAAAAAAAAAAAAAAAAAAAAAAAAAAAAAAAAAAAAAAAAAAAAAAAAAAAAAAAAAAAAAAAAAAAAAAAAAAAAAAAAAAAAAAAAAAAAAAAAAAAAAAAAAAAAAAAAAAAAAAAAAAAAAAAAAAAAAAAAAAAAAAAAAAAAAAAAAAAAAAAAAAAAAAAAAAAAAAAAAAAAAAAAAAAAAAAAAAAAAAAAAAAAAAAAAAAAAAAAAAAAAAAAAAAAAAAAAAAAAAAAAAAAAAAAAAAAAAAAAAAAAAAAAAAAAAAAAAAAAAAAAAAAAAAAAAAAAAAAAAAAAAAAAAAAAAAAAAAAAAAA'
p66
aF1.0
aa(lp67
S'Shortie 4'
p68
aS'GUGAAAACAGCGAAAGC'
p69
aF1.0
aa(lp70
S'Shape Test'
p71
aS'AAAAAGAGAUCAAGAUACAAAAAAAAGUAUCAAGACAGACGGAUACAAAAAGUAUCAGAUCAAAAGAUCAGUCGUCAAGAUCGCAAAAAAAAAAAAAAAAAAAA'
p72
aF1.0
aa(lp73
S'The Minitsry'
p74
aS'GACGAAAACACAAAAAGCCAAGAAGACAAAAAGACAAAAAAAAGUCGGUCAGGUAGUGAGUC'
p75
aF1.0
aa(lp76
S'stickshift'
p77
aS'AAGACAUCGCUAAAUGCAGAUGUCAA'
p78
aF1.0
aa(lp79
S'U'
p80
aS'AAAAAGAUACAGAGAGCAGAGAUAUAUAUGAAAAUAUAUAUCCGCCCGUAUCAAAAA'
p81
aF1.0
aa(lp82
S'Still Life (Sunflower In A Vase)'
p83
aS'AAAGAUCAACUCUUAAAAAAAUAGAGAUAGGAAACGCAUAACGACCAAAAAGAUCGAGCCCCGAAACGGAGAACCACUAAAAGGGUGGAGGGGUCGAAAAGAUUCAAGAUAUAUAUAUUUCUUUGUAUAGAUAUUAAAAUAUAUCAUAGAGAAAAAAAAAAAAUGAUGACCCCCCCCCCCCCCCCCCCCCCCCCCCCCCCCCCCCAAAACAUCUAAAAAAAAAAAACUCUAUAAGCAAAAGCUUAAUAUACAGGGAAAUAUGUAUAUUUAAGAUACAAAAGGUAUCAGCUAGCAAAAAGCUAGAAUUAGAAAAAGUAUGGAGCUGUAAAAAGUAUAGAAUUGGCAAAAGCCAGAACAAACAAAAACAAAAGGAUCGAA'
p84
aF0.9629629629629629
aa(lp85
S'Quasispecies 2-2 Loop Challenge'
p86
aS'AAAAGCAUAAAUCUUGAUCAAAAGAUCUUGAUUAGUCCAGGAAAUACGGACGUAGAUUGCGCAAAAAAGUCGAACUUUCUGUACCAAAAAAAAAAAAAAAAAAAA'
p87
aF0.9809523809523809
aa(lp88
S'Corner bulge training'
p89
aS'AGAUAUCGAUACAAAGUAUCAAAAGAUAUCA'
p90
aF1.0
aa(lp91
S'Spiral'
p92
aS'AAAAAGAUCAGAUAUCAGACAGAUACAGAUCAGAUCAGCAGCAGCAGCAGCAGCAAAAAGCGCGCGCGCGCGAUCGAUCGUAUCGUCGAUAUCGAUCAAAAA'
p93
aF1.0
aa(lp94
S'InfoRNA bulge test'
p95
aS'AAAAAAAAAAAAAAAAAAAAAAAAAAAAAGCGAAAAAAAGCACAAAACCGCAAAGCACUUGGACAGCACAAAAAGUAGCGGUACCUCGUAGCGAAGUAGGAAAAAGUAGCAAAAAGUCAGCA'
p96
aF1.0
aa(lp97
S'Worm 1'
p98
aS'AAAAAAAAAGGUUGUGAGCGGGGAAAAAUACUAGGGCUCGGAGGA'
p99
aF0.8666666666666667
aa(lp100
S'just down to 1 bulge'
p101
aS'AAAAAGCACAGAUACAAAAGUAUCAGACAAAAGUCAGUAGCAAAAGAUCAGACAAAAGUCAGACAAAAGUCAGAUCAAAAAAAAAAAAAAAAAAAA'
p102
aF1.0
aa(lp103
S'Iron Cross'
p104
aS'ACGCGCAAAAAGGCAACCGAAGGAGGAUAAAAGUCAGCCAAAGGUAAGCUAAUGCUAGGUCAACUCAGUCAAACUCGAUCAAAAGAUAGGGAAACCCAGGCGAAGUGAAUCAAAGAUAGCGGA'
p105
aF0.926829268292683
aa(lp106
S'loops and stems'
p107
aS'AAAAGAAUAUCCGAGGAUCAAAUUGCGAUGGGUUAACAAAAAGAAAUAAAACAAAAAAGAUUUCGAUGCCUCUAUGAACAAAAAACAAAGUUCUAAGCAAAAAGACAAAAAAAAGUCAAGGGUCAGGCGAAAAAGCAAAGGAUAUUAAAAA'
p108
aF1.0
aa(lp109
S'Water Strider'
p110
aS'AAAAACGAGCGUUGUAAAAUCAAAAGAUAAGUAAUGUCUUAGGCGGAAGCGGAAAGACGGGCGAAAGUUCCUAUGUAGCGUUAAAAAAAAAAAAAAAAAAAAA'
p111
aF0.9611650485436893
aa(lp112
S'The Turtle(s) Move(s)'
p113
aS'AAAGCGAAAGCAGAUGAUUGUUAUAAAAAAAAAAUAACAAUCUACAGAUAAAAAAUAUCGUAGACACAAAAAACGGAAUAUGAAAAAAACAUAGAAAAACUUAUAGAAAAAUUGAGGGACGAAAGUCAGAGAUAGAUAAAAAAAAUCUAUAAAACACUAAUGCGAAAAGCAUAGGAAAAGACUAAAAAUGUCAACUCAAAAAAAGGGGGAACUGGCGAAAAAGCUAGAAACAAUAAAAAGUUGAAGCUAUGAAAAAAAAGGUAAAAACACAGUUGAAAAAGAACAUUGAUACAAAAAAAAAAGUAUCUUAAAAGGU'
p114
aF0.9746835443037974
aa(lp115
S'Adenine'
p116
aS'GAAACAGAUUUAAGAUGUCAGUGAUCAGAAAUAUCCUUAUUAAUGUUAUCAAAAAAGAUAGCUGUAGGGGGAUACAAAGAUAUACAAGGUAUAUCGUAUCUUAUUUCAGAUUAGUCUCUUGAAGAGGGAUAAAUGAUCAGAUUACAAGAGAUAUCAAGAUAAAUCGAGAGUUUC'
p117
aF1.0
aa(lp118
S'Tripod5'
p119
aS'AAUGAGACUUGAAAAAAGUGGUCAAAAGGGCCCUCAGA'
p120
aF1.0
aa(lp121
S'Shortie 6'
p122
aS'AUAAAGGUUCUAAAGUGUUAAAAAGAACCUAAUGG'
p123
aF0.8857142857142857
aa(lp124
S'Runner'
p125
aS'AAAAUAACCAGUUCAAAAAGUUCAAAGAGCGGAACGAAAACAAGACAGAUAUCCAAAAGGCACCAUCAAAGAGAAAGGUGGUUAAGUUUAAAGAUAAAAGUGGAAGAGAUUUAAAA'
p126
aF0.9482758620689655
aa(lp127
S'Recoil'
p128
aS'AAAAAGAUACAAGCAAGCAAGACAAGACAAGCAAGCAAAGCAGCAGUCAGUCAGCAGCAGUAUCAAAAAAAAAAAAAAAAAAAAA'
p129
aF1.0
aa(lp130
S'[CloudBeta] An Arm and a Leg 1.0'
p131
aS'AAAAAGACAGACACAAAAGUAGUCGUCAGCAAAAGCGACAGUCAAAAAAAAAAAAAAAAAAAA'
p132
aF1.0
aa(lp133
S'[CloudBeta] 5 Adjacent Stack Multi-Branch Loop'
p134
aS'GUUUGGCUCGAAAGAGCGCAUCGAAAGAUGCGAGAAGAAAUUCUCGCACGAAAGUGCCAAACA'
p135
aF1.0
aa(lp136
S'Triple Y'
p137
aS'AAAAGGAGAGGUACAACAAAAGGCGGGUGAAAACAACGGUCCGUGCCUUAAAAGAUGUAUUGAAAAAUGCAUGUUUCAAAAAAAAAAAAAAAAAAAA'
p138
aF0.9175257731958762
aa(lp139
S'Misfolded Aptamer'
p140
aS'GUGAAAAAAGAUCCGUAUCGGAGGUAAUCCGGGGGGAAGAUAAAAGUUUC'
p141
aF0.96
aa(lp142
S'Flower power'
p143
aS'AAAAAAGUGCUAAAAGGGGCAGAAGGAAUUAUAUUAAAGGGGAAGCUUCAACUGUGAGGAGGCUGCAAUGCUAUGUGUAGUUAAAAAAAAAAAAAAAAAAAA'
p144
aF0.9019607843137255
aa(lp145
S'Kudzu'
p146
aS'AAAAUUGCGUAUGGACAGGAGAGGGCGUAUCGGUAGCCUUGUGGCAAGGCACACAAAGAUUAUAUCAAAGUGACUGAAGUAUAAAAAAAAAAAAAAAAAAA'
p147
aF0.9801980198019802
aa(lp148
S'"1,2,3and4bulges"'
p149
aS'AAAAAACGCGGACUUGAAAGGAAAAGGCAGGAGAAAUCUAGCACCAAAGCAGGGAUGUAAUUAAAAAAGCCUAAUGGUUGUAAUGAAAAAAAAAAAAAAAAAAAA'
p150
aF0.819047619047619
aa(lp151
S'medallion'
p152
aS'GACGUCACUAGACAAAUGUUUUUAAUCAAAGGGUAAUCAAAAAGUGAUAUUCAAAAGAAUAUGAGCAAAAGCUAAGAUACAAAAGUAUCUAGUCAAAAGACAAGGAAAAUGCGAUAUGCAAAAGCAUAUAAUCAAAAGAUAAGAUAAAAAAUUAUAUCGUCGAAAGAGAUUCAAAGUAAGUUACAUUAAUGUAUAAAAUCAAAAGAGGUUUUACAAAAGUAAAGAAACAAAACAUAAAUGAAAGAUAAUGUUCAAAAGGACAUAACGAAAAGGUAAUAUACAAAAGUAUAUAAACAAAAGCUGGUGAAAAUAGAAUAUAUUAAUCUAUAUAGACGUU'
p153
aF0.827893175074184
aa(lp154
S'[RNA] Repetitious Sequences 8/10'
p155
aS'AGCAAAAAAGCAAAAAAGCAAAAAAGCAAAAAAGCAAAAAAGCAAAAAAGCAAAAAAGCAAAAAAGCAAAAAAGCAAAAA'
p156
aF1.0
aa(lp157
S'Documenting repetitious behavior'
p158
aS'AAAAAAAGAUAAAAAAAUUUAAAAAAAAAACUAAAAAAAAGUAAAAAAAAGUCAAAAAAAAAGGAAAAAAAAAGCAAAAAAAAAUUAAAAAAAAAGCAAAAAAAAAGGAAAAAAAAAUCAAAAAAAAUGCAAAAAAAAAGCAAAAAAAAACAAAAAAAAAAGCAAAAAAAAAGCGAAAAAAAAUCAAAAAAAAAUCAAAAAAAAAGAAAAAAAAAAGCAAAAAAAAAGCAAAAAAAAAGUAAAAAAAAAUGAAAAAAAAAGAAAAAAAAAACCUAAAAAAAAGGAAAAAAAAGGCAAAAAAAAAGGAAAAAAAAAAAAAAAAAAAAGAAAAAAAAAAUCAAAAAAAAAGGAAAAAAAAAACAAAAAAAAAGCAAAAAAAAAAGAAAAAAAAUUCAAAAAA'
p159
aF0.96
aa(lp160
S'7 multiloop'
p161
aS'GGCCCCGGCGAAAGCCGGCCUAUGAAAAUAGGGGAGGGAAACCUUCCUUUCGAAAGAAGGCCAUAUAAUUAUGGGAUUCGAAAGAAUCGGCC'
p162
aF1.0
aa(lp163
S'Kyurem 7'
p164
aS'AAAAUGCGCUCCCGAGAAAUCGGACAAAAGACGAUUCAAAAGGAGAGAUUCUAAAAAGGGUAACGUAGGUUCCUUCGAGUGCUAAAAAAAAAAAAAAAAAAA'
p165
aF0.9607843137254902
aa(lp166
S'JF1'
p167
aS'AUAGAUCAAGACCAGAUUUGAUACAAAAGAUAUCAAGAGACAAAGAAUCUCGAUAUCAAUAUAUAUAUAUAUUAAUAUAUAUAUAUAUAUAGGACAAAAGUCACAUAGUAUUGAAAAAUACUAUGAGCUAUCUAAUGAUAGAGAUAUCUGAUUUAGUCUCAGAUAUCAAAGGUAGAUCAAAAGGAUACUAUCAAGAUAUAUAUACAUAGAUAUAUAUAAAAGUAUAUAUAUCUAUGAUAUAUAUAUCAAAGAUACAAAAAAGUAUCCAUAAUAUACAAAAGUAUAUUAUGAGACAUAAAAAUAUGAAGUAUCUUGUUUGCGAUCAGACAUACAAAAGUAGUCGAUCUUAUACAUAUGAAAAUAUGCUAUGUUCUUAGAUACUAUAAA'
p168
aF1.0
aa(lp169
S'multilooping fun'
p170
aS'UCUAUAGGGAAUGUGUAAAAGAAAUCGGAAAAUUGG'
p171
aF0.8333333333333334
aa(lp172
S'Multiloop...'
p173
aS'GAUCGCAACAACCAAAACUCGGUUUAAUGACGUACAAAGGUAGCAUAAAAUACAUACGAAAGUAAGGCAAAAGUACGGUGAGCUACAAAAAAGUAGCAACUAAUGUCGAUC'
p174
aF0.9459459459459459
aa(lp175
S'hard Y'
p176
aS'AAAAACAUCAGCGAAAGAUCGAAAGAUCUUUAUCUGGCAUCGAUAAAAGUAUCGAUGUCGAUGGAAAA'
p177
aF0.9705882352941176
aa(lp178
S'Mat - Elements & Sections'
p179
aS'AAAAGGUGUACAAAGAUUAAUAUGAUCAGAAGACCAACGGGAAAAAUCCAGGGGGUCGGCGAUCAAACCCGAAGUCCAGAGGAUGAAAAAAAAAAAAAAAAAAAA'
p180
aF0.9619047619047619
aa(lp181
S'Chicken feet'
p182
aS'AAAAACGAGUUAGAAAUAACUGAAAUAAUCAUGUGCAACAAUGAAGUGCCAAACAAAAACGGAAAAA'
p183
aF0.8507462686567164
aa(lp184
S'Bug 18'
p185
aS'ACCGUUAACACCAACUUAAUAAUAAAGAAAUUGGUGGGGGUAAGGGAAAAAUG'
p186
aF0.8490566037735849
aa(lp187
S'Fractal star x5'
p188
aS'AAAAACAUGGUUCAAGAUCAAAAGAUCAACAGUAAAAACUGAACAUUAAAAAAUGAACAUAAAAGUAUGGAGGACUAUGAAAAAAAUAGUACAAGAUCAAAAGAUCAACUUCAAAAGAGGAACAUCAAAAGAUGAUCGGCAAAAGUUGUAGUACUAUUAAAAACAUUGCACAAGAUGAAAACAUCAUGCUAAAAGUGGCUACAUCGAAAGGUGAACAUCAAAAGAUGAAGUGCGAUGAAAAAACUAGUACAUGAUCAAAAGAUCUACAGCAAAAGUUGGACAUGAAAACAUGAACACAAAAAUGUGGAGUACUAGUAAAAACAUAGGACAUGAUCAAAAGAUCUAGAUCAAAGGAUCAGCAUCAAAAGAUGAGAAGCAAAAGCUUAAGUCUUAUGAAAAA'
p189
aF1.0
aa(lp190
S'Crop circle 2'
p191
aS'CUAAUACAAAAGAAAAAGGGGAAAAAAAAGGAAAAAAAAAAAAAAAAAAAAAAAAAAAAAGUCAAAAAAAAAAAAAAAACAAAAAAAAGGAAAAAAAAGUUAAAGGAAAA'
p192
aF0.9636363636363636
aa(lp193
S'Branching Loop'
p194
aS'GGGCUGUAAAAAAUUGAGUGAAAACUUGUGGUCAUAAAAA'
p195
aF0.95
aa(lp196
S'Bug 38'
p197
aS'ACCGCUAGCGAAGAGAAACGUAGGCGAGGAAAAGCA'
p198
aF0.9444444444444444
aa(lp199
S'Simple Single Bond'
p200
aS'AAAAAAGGAAAAAAAUGUCCUAAAUGGAUUAAAAAAAACGAAAAAAAAAAAAAAAAAAAAA'
p201
aF1.0
aa(lp202
S'Taraxacum officinale'
p203
aS'UUAUUAAUAAUCAACUCAAAAACAGAGCAGGCUAAUGAAUGAUAUGGAAACAAUGGAUCUAAAAAAGGAUCACGGAAACAGAGUGAUCUAUACACGUUUUACAUUGUAUUAAUAGUAAAGCAGAAACAAGCUUAUUUAUAAGAUAUACGAAGUAUAUCAGUAAAUAGGCGAUCAGCUCUCUAUGAGAGCGAUCGUUUCGAAGUGUAUAGAUCAUCCGGAAACAGUAGGUUGAAAUCAGCCACACUAAAAAAGUGGGUCGGAAACAGGCAGCCCAAAACAGGC'
p204
aF0.9219858156028369
aa(lp205
S'Headless Bug on Windshield'
p206
aS'AGAGAUAAAAUCUCUCAAAGUAGUCAAAAAAAAAAAAAAAAAAAAAAAACGACGGUCAAGAGAGGUACACAUCGGAGAAGUUAACAAAAAAAACCAAAAGGAAAAAAAUGGAUAAAAACCACAGACGCAAAAAAAGGCAGUUGAGGAAUAAUGUUGAAAAAAAAAAAAAAGAUCAGCUCUCCAAGGAGUCAAGUAAGGCG'
p207
aF0.95
aa(lp208
S'Pokeball'
p209
aS'AAACUGGCCCCAAAGCGAUAAGGGGAGGCCGGGAAGCGGGGGAGGUCGCGAAGCUUCUACCAGCAUCAUGUACCUAUAAGCGGGCUGGGAAAAAAAUAUGUACAAAAGCGACCAGGUCGAUCAUGCUGUCAAACGUCUAAGGGUACCGAGUAGUGGAUGCACGGAGGCAGGAGCGUAUAUAGAA'
p210
aF0.9239130434782609
aa(lp211
S'Variation of a crop circle'
p212
aS'AAAAGUAAAAGAUAAAAUAAAAGCAGGAUAGUUAUACGUAUAAAAGAAAAAAAGAAAAAAAUAUAAAAAAAACGCGAAAAAAAAAAAA'
p213
aF0.9545454545454546
aa(lp214
S'Loop next to a Multiloop'
p215
aS'AUUAUUGUUCUAAAAAACACAUAUCAAAAGAUAUGAUACAUUCAAAGGAAUGUGAGAAAAAAUGAGCGAUAUA'
p216
aF0.9726027397260274
aa(lp217
S'Snowflake 4'
p218
aS'CAUCGAAGAUGGGUUUUCUAAGGAUUAUAAAGGCAUCCAAAGGGCUAGGGGUCAAAUGCCACAACCAAUCGGUUUUAGCCAAAAGUGUGUCAGGAUUCUCAAAGAUUUUAGUUUCGAAGCAAAACUGCUAUGUGGUUAUGCCAAAAGGAGAGCAUGUCAGCAAAAAGGCAUGGGACCUAUGGUUAAGAACGAAGUUUCUAUGCAAAAGUGCUGACUAGGCGACCAAAGGGACUACCCUCAAAGAUGAACGUCUAUGACGCUAUUUGGAAGGAGUAUUAAAAUACAUAAAAAAAGCUGGGUCAAGGCCCAAGAACAAAGACCCAGCUCCAAAAGAGUGUUAAUAUAGUUAAAGGGAGGCUGUGCAAAGCAC'
p219
aF0.8324324324324325
aa(lp220
S'Mat - Cuboid'
p221
aS'GUAUGAAAAACAGGCAAAAGCAAGCAAAAGAAGCGAGUAAAACCGAGCAUGCAAAAGAAGCAAGCUUGCAAAAGUCUGCGUACACGCAAAAGGGAGCAAGCAAAAAUGCAAAAGCUUUUUUUCGGGAUUUCAAAACCUAGCAUGCUUGCUAGCAUGCAAAAGCAAUCUUGCUUGCUUGCAUGUAAAAAUUAGAUUCGUAGAUUCCUUGCAAAAAGGCUCGGUUGCGCCGUCUCUCGCACCGGCUCGCUCGCUCGAAAGCGCUCGUUCGCUCGCUGGCGCGCGGUCGCAAUCUCAGUCGAGCUCGCAAGCAGGCAAUCGCAGGUUAGCUAACGCUUGCGAGCAAUGCAUGCAAGCGCAAGCCAGGCGAGCACAAGUCAAUU'
p222
aF0.6868421052631579
aa(lp223
S'Misfolded Aptamer 6'
p224
aS'AAAAAAGACAAAAAAGAUCAAGGGAGUACAAAAAAAAGUAAGAACGAAAAGAUCAAAAAAAGUCAAAAAAAAAAA'
p225
aF1.0
aa(lp226
S'Snowflake 3'
p227
aS'AACACAAAAGUUGCCCUCGAAAAGGACGAUCAGUGCAAGUGAAAUCACCAUAACAAAAGUAUCAAAGAUACAAAGGUAAUGCGCAAAAGUGACGAACAGGUCUAUGGAAAACUGCAGGUCAAAACGAGCGAAGCUAUAAAAGUACUGCCCAAAAGUGAUGACCAGAUCAAGUUAAAAAGCGAGGUAAAAAGGAUCAAAGAUAUAAAACUACUCCCCAAAAGUGAAGAUCAGAUCAAAACAAAUGUCAAGAAUAAAAAUAUCAAAGAUGAAAAACCAUUUGACAAAGGUGAAGAUCAGUACAAGGCAAAAGCCCCUAACAAAAGUCUCAAAGAGAUAAAAAUAAGGCACAAAAGUGAAGUGCAGAUCAAUAGAAAACUGGGCCACAAAAGUGUU'
p228
aF0.8473282442748091
aa(lp229
S'Hard Y and a bit more'
p230
aS'AAAAUGAUACCGACCUACAAAAGAUUACCUGAUACAGCAGAAUUAAAAAAUUAAGAUACAAAAAAGUAUCGGGCAUUAGUGUAAGUAAAAAAAAAAAAAAAAAAAA'
p231
aF0.9716981132075472
aa(lp232
S'Mat - Lot 2-2 B'
p233
aS'GUACUCUGGCACAUACAAAAUCAAGUCCAAAAGGAAAAGCGGGAUCCGGUCAAAGUAAGACCUUUCUAGCAUAUGUUUACAAAAUCGGUGGCGUUUAAAAUCGAAAGAGCUAGCAAAAGGAAGCGUUUAAGCUAGCAAAUAAAGGUGCUUGCACAUGCACAAAUUUGCCGUAAACGAAAAGCUCGCGCUGGUAAAAGAUUGCGAGCGUAAGCUGGCCCAUGGAAAAUCAUCUACCCGCAAAACGAAAAUGGCUGGUAAAAAGUGGGGCUGGAGUUGGAAAAAAU'
p234
aF0.7147887323943662
aa(lp235
S'Shapes and Energy'
p236
aS'AAAAAAGUGAGGAGCUCAAAACAAGCUCGUCGAAAGUCGAGAAAGGAGCAUCUGUAAAAGUCGGAAACGACAGGCCUCCCGAAAAAAAAAAAAAAAAAAAA'
p237
aF0.9603960396039604
aa(lp238
S"Spiral of 5's"
p239
aS'GAAAAGAUACAAAGAUAGAAUGAUAGAAAGGAUCCAAAGAUAGGAAGAUAGUAGAUACAAAUGACACAAAGAUAGAAAGAUAGAAGAUACAAAGAUAGAAAGAUAGAAGAAAUUAAGAUAGAAGAUACAAGAUACAUGAUAAAUGAGUCAGAUACCGGUAGGUAUGAAAAACAUAAGGGGGCUACCAAAAUCUAUCAAAAAGGUUCUAAAAGUAUCUAAAAGUAUCAAAAAGUAUCAAAAACUAUCAAAAUAUUUCAAAAACUAUCGAAAACUAUCAAAAAGUAUCGAAAGCUAUCAAAAACUAUCAAAAAGUGUCUAAAAGUAUCAAAAUCUAUCAAAAACUAUCAAAAAGGAUCAAAAACUAUCUAAAACUAUCAAAAAGUAUCAAAAAUAAAAA'
p240
aF0.9949622166246851
aa(lp241
S'Campfire'
p242
aS'AAAAGAACGCCUCUCGACUUAAAAUACGAAAAGUAUGACGUCUAUGGCAGUCUAACCAGAUAAAAAUCAGCCACGAAAGUAGGCGGAUGACACGGAACCAGUUAAGUCGCUUGACGAGUCUGAUGGAUAAGCCAAAUAGACGAUGGUCGACGGCACAGACAGACAUGUCAAAAGAUAGUCGUAGAGAGAGCGAAUCUAGUAGUCCGUGGAGC'
p243
aF0.7452830188679245
aa(lp244
S'Anemone'
p245
aS'AAUGAUAGUGAAAGCUAUUCCGUCAAAAGACGGCGUAGGGAAACCUGCGGUUCCAAAAGGAACCCUUUCGAAAGAGGGGUCGAUGAAAAUUGAGAAGCUAAUGCUUCCAGGUAGAAAUAUCUGAAUAUCUAAUGAUAUCUCAGUGAAAAUUGAGGCGAGAAAGCUCGCGUGGUCGAAAGACUACCUAGGAAAGUCUGGGGUAACAAAGGUUACC'
p246
aF1.0
aa(lp247
S'Fractal 3'
p248
aS'AAAAAGGAGACGUAUGGAAACGGAAAAAGCGGCGUGCCAUAGAAAUAUGAAAGUAGGGCAGGGAUGUAAUCAGCUAAUGCGGUCGUAGAUAUAAUUAUUAAAGACACUCGCUCCGAAAA'
p249
aF0.8907563025210085
aa(lp250
S'Kyurem 5'
p251
aS'AAAAGUACUUAAGUUAAAGGAAGGCCAAGGAGAGAGGAAAGAUUAAAUGUCCCUCGACGAAAAAGUCACCUCAUGUUAAGUGCCAAAAAAAAAAAAAAAAAAAA'
p252
aF0.9230769230769231
aa(lp253
S'Snowflake Necklace ( or v2.0 )'
p254
aS'GAUUACUAUAGACUUAGAGAGAGCAAAAAGCAGCAAAAAGAACCGAAAAGGACAGAAAAUCGUUAAAAAAAACUCUCAGCUAAAAAUGCACAUAUGUUAAAAAUCGGCGAAAAACAUCAAAAGGAAAGAAAAACUAGAAAAAAUCAAUAUGGGGCAAAAAACCGGAUUGAACAAAAACUAGCAAAAAGCGAAAAAAAUUUGCAAAAAGCUAUAAAAAGUACGAUCAGACAAAAGAAUGUAUAGAUCAAAAAGAAGCAAAAAGCAGCGAAAAGCAUUAAAAGGAAUUGAAAACAACAGUAAGACAAAAAGUUAAAUCCGGUAAAAAGCAGAAAAAAUCAACAAAAAGUAGCAAAAAGGUUAAAAAGUAUCGCUGAAAGUUUAUAGUAAUU'
p255
aF0.8457583547557841
aa(lp256
S'Methaqualone C16H14N2O Structural Representation'
p257
aS'AAAAAAAGAUCUGAUCGGCCGGCGAAAAUGCAGACACACAAAGGUGAGUUAGACAAAAGACAUACGACCAAAAGGUACCCGAAAAAAGGGGGUAAAACAGUCAGUCAAAAAUAGAUCAGUGCAAAGAAAGCAAUGCAAAGCUCAAAAAACCCAGCUAGGUAAAAACCAUUAAAAAAUAUCAAAAGAUAUCAUCAAAGGGCAGAAACAGACAGAGACUAUAUGAGACAAAAGAGAAAAUUCGGUCGCACAAAAGUGACAUUUGCAAAAGUAAGAGUUACAAAACUGUCUCAGCUCCCAAAAGGGAUCAAAAGAUACACAAAAGUGAGAGGUCGCCCCAAAGCACUGAUCAAAAAAA'
p258
aF0.8845070422535212
aa(lp259
S"Cat's Toy 2"
p260
aS'AAAAAAUGGGUUCAAAGAAGGAAAAAAAAAAAAAAAAAAAUACGGUAAGGGAAACCGAAGCGAAAGCAAAAAAAUGUAAAAAGAUAACCUAUUAAAA'
p261
aF0.979381443298969
aa(lp262
S'Zigzag Semicircle'
p263
aS'AAAAGCCAUCCGGGAAAAAUAGAAAGUGGUGAAA'
p264
aF0.9411764705882353
aa(lp265
S'Short String 4'
p266
aS'AAAAAGGAAGCUAGGAUGAAUUGUCAGCAAAAGCGGAAGUAAUGUCCUAUGAAAGUCAGGCGGAAACUCCGUGCUCAAAAAAAAAAAAAAAAAAAAA'
p267
aF0.9381443298969072
aa(lp268
S'Gladius'
p269
aS'GGAAACAGGUACGAUAGGGGCGAGUGAAAGACAGUCUAAGGUCUAAUGACCAGAUAUAAGAGACUAUAGUUCGAUAGGGCAGCAGAUAUACGAGAUGUAUGAUACAGAUGAGAUGAAGAUAAAAUAUCGUAUACCAUCGUUAUCUAAUAUCCAGUAUAUCAAGAGUCCAAAAGAGCAAAUGUCAAAAGUAUCUGACAAACACGGACACAAAGGACACAAGAUCUGAACGUUACAAGAGAGACACAUUAUAGAUUUAGAUAUCAGAGAGAUAUCAAAAGAUAUCAAUUCGAAUAUAUAGAUUUAUAAUCGGUUUCUCGGAAGAUGGCAUGAUCAGAGGUCACAAGUAUCAUAACAAAAGUUGAAAGUCAGUAAAACUAUGAAACAAUCAGUUAAAAAAAAU'
p270
aF0.905
aa(lp271
S'Thunderbolt'
p272
aS'GCAUGAUACAAAAAAAAGGGCAAGCGGAGGGGCGAAAGAGUUUUAUCAAAGGCAAAGCAAAAAAGAUCAAAAAGAUCAAAAAGGUAAGGAGUACAAAAAAAAGAUGAAAAAAAUUAGGCGCGCAAAAAAAAAGUGUAUGAAAAAGACAAAAUCAACAAAAAGUAUGGGGUAAAGGUCAGAUCUAUGAGAAAAGGCUCAGCAAAGCGGAUCAAAAAAGCUCUGAUCAAAAAAAACAUAAGGUGGAUAUAAAAUAUAUCAGCACGAAAAAAAAAAAGAUUCGGAAAAAAAAAGGGCUAAAAGCAUAACAAAAAGGAAAAAAACGAAAAGUUAUGAACAGUAGAGAUAAAACGAAAAAAACAGCGAGCAUAAAAAGGAAAAAACAGUAUUUAGCA'
p273
aF0.9183673469387755
aa(lp274
S'Mutated chicken feet'
p275
aS'GAAAAAAGUAACUAGAAGUUUGCAAGGCAAGGAAGUGCAUCGACAAAGCAACAAAGCAAGGAGUGGCAGCAGAAAGAUAGCAAAGUAAAGCGCAAAAAAA'
p276
aF0.86
aa(lp277
S'Chicken Tracks'
p278
aS'AAAAAAAUGGGAUAGGGUCUAAUGAUCAAUAACGAAAGUUAAAUAACAAAGGUUAGUAUCUCUUGACAAAGUAAAUUCAGGUUCAAGGAACAACUGGAAGUCAGGUGGAAAUAAAA'
p279
aF0.9482758620689655
aa(lp280
S'Looking Back Again'
p281
aS'CAAAAGGCGGUCAAAAAGAUAGUAAAAUUAUCGGACUACCGCGGCAAACCAAAGGUGCCUGGUCUAAAGAACGAAAGUUUGAAGGGGCCUAGUGCAGCCAAGGAACGGAAAAACAUAGAAAAUUAUGAAAAAAAUGCGCAAGCUUCAAAGAGGCUAGGUUAUGUCUGGUUAUCGAAAUAAUAAGGGGAGGGGGUUGAAAGUAACAUUACAACAAGAAUAGCCAAAAGGCAAGAUGACAAAUUAUCUUCCAGCUACAAGACGAAAAAGUCGUAGAAAAAAAAGAACAAAAAGUUCCUGCAAAGUCAGGUCAUAUGAAAAACCCAUAGCAAAAGCUAUGAAUGCGGAAAUUAUACAGAAACUGUAGUACCGGGAAAGUACCUAGCAAAUUG'
p282
aF0.9151670951156813
aa(lp283
S'Multilooping 6'
p284
aS'AUGGUAUGGCUUGAGAAAGUUGGACUUCGAUAGCGAAGGUACUCGGUCGAAAGCGAUCGUUGUGUAAGCGACGAUAUACUUA'
p285
aF0.9146341463414634
aa(lp286
S'Cesspool'
p287
aS'GAAGAACAAAAGAAUCUGUGGGAGGGAAACAUAACAAAAUGGGAUAGAGGAAACGAUUGGGUAAAUGAUAACAGUAAAAAGAACAGGAUAGGAUAUAAAAAAACAGGUAAGACUCAAAGUUAACAAUAUCAGAAGGGGGAAAUAUCGAUUGAAAACAUUACUGUAAAACCAUCAAUAAACUCGGAGAAAACAAGCGUUGAGGGUCAAAGACAAAAACAUUGCGAAGUUCAAAAUUUAAGGGAAAACAUCGCAGUUAAAAGAAUCCUCAAGAGUGAAUAAAAAAACAGAUCGGAGACAAAAUCGACAAGAGCUGAAAGUCAAAAGAUUGAGAGGAAACAUUACAGACAAAAGACUACUC'
p288
aF0.7346368715083799
aa(lp289
S'Hoglafractal'
p290
aS'AACUCUAACUAGCAAAAGAUACAAAAAAGUAUCGCUAGGCUCAAAGAUCAAAAGGAUCGGUCCGGAAGACGAAAGUCCCGAGAGUAACGCUAAAGCUCUAAAAUGAGCGUUCGACAAGACAAAAAGUCCCGCUAGUUAAUGCAGAGUAUGAAAUACAAGACAAAAAAGUCGUGCCAUCAAAAAGGUGCUCGAAAGGGACUGUAAAAAAUGAGCAAAAAAGCUACACGAAAAGUGAGAAAAUUAGAUAUCAAAAAAGACAAAAGAGUCCUUAAAUGGAACCAGAUGCAAAGCAUUUGAAAAAAAGAUAUCAAAAAAUACAGAAAAAGUACAAAUGACGAAAGAGCGAAGAAGAGAUUAAAAGCAAAAGCACAAAAGUAGAUAUAAAGUAUCUCAAUCCUAC'
p291
aF0.89
aa(lp292
S'Bullseye'
p293
aS'AACCAAAUAGAAAUUACAAGACUAAGAGUCGAGAUUAAGAAUUGAGAAAAAAAGGUCGUACGAAGGGCAAUUCCUAGAGGCAAGAUUAAAGAGCGGCAAAAAAAAACACAUAGAAUAUGAGGACGCAUGAACAAAAACAAAGUACGGUAAAAAAACCCGGAUGGAAGAUGAAGGUCUAAAAUCAAUACGAAACGUGUGACAA'
p294
aF0.7722772277227723
aa(lp295
S'Shooting Star'
p296
aS'UCGUCCAACCUACAUACGAAGAGGUUCAUACACACAGCUAAUGACUAAGGUUGCAGUCCCAAGUAUGUAAGGUGCGUAAGGCGGACUCAUAUCCAGACAGAUCAACAAAAGAUGAUACGUCGAGAUAGGGCGCCCAAUCUAGGGAAACAGCACCGAUGCAUAGUAUCUAUGACCGUAAAAUAUGGCAAAAAAUAGACAUGAGGGCAGAUUAAUACAAAGAUUGACAAAGUCGAUCGGUAACAACGAUAUGUAUGAAGACCAAAGGUUUUCACUCGCUAUGAGAGGAUCGCGCAACAAAAGGGUGAGAAAGAGAGAUAUAUCAGGAAAAUACGAUACAUCUCAACGUACCAACGUCCGGAGCGGA'
p297
aF0.8406593406593407
aa(lp298
S'Teslagon'
p299
aS'AAAAAAUCAAAAAAACUGGCGAAAAAAUCAACAAAAAAAAAAAAAAAGUAAACAGUUGGCAAAAAAAAAAAAAAAUCAGAAAAAAAACCAGCAAAAAAAGCAAAAAAAAAAAAAAGGCAAAAAAGGGAGCAAAAAAAUCAUCAAAAAAAAAAAAAAAGAAAACAGAUGCCAAAAAAAAAAAAAAGGGAGGAAAAAAGGCAGAUAAAAAACCGAAAAAAAAAAAAAAACAAAAAAUGAGAUAAAAAAACCAACAAAAAAAAAAAAAAGGUAAACAGAUAAUAAAAAAAAAAAAAAAGUGGCAAAAAAAACAGUAAAAAAAGCUAAAAAAAAAAAACAAAAAAAAAAAAAAAGUUGGGAAAAAGACAAGGAAAAAGGGAGAAAA'
p300
aF0.9057591623036649
aa.