(lp0
(lp1
S'Simple Hairpin'
p2
aS'GAUACAAAAAAGUAUC'
p3
aF1.0
aa(lp4
S'Arabidopsis Thaliana 6 RNA - Difficulty Level 0'
p5
aS'GGAUAGCAAAAGUCAAAAAAAAAAAGACGAUAGACUAGUGUCUGGUGUAUACUCUGCAAUCAUACGAAAAAGUAUGCGCAGAGAUAUAUACCGGAUAAGGGUCUAUUAAGCUAUCC'
p6
aF1.0
aa(lp7
S'Prion Pseudoknot - Difficulty Level 0'
p8
aS'AAGAAUCUACCUAAUGGUAAUUACUUAAAAAAAAAA'
p9
aF1.0
aa(lp10
S'Human Integrated Adenovirus - Difficulty Level 0'
p11
aS'GAUAGUCUAAUAUCGGUUAUCGAAAAAAAAGAGAUCCAGCGCUGUAAAAGGAGUAUCAAAAGGAGAGACUAGAAGAAAAAAAUUUUAGUCUUAAAGUCCGAUACAAAAUCCCAGAAAACGCUGUGUGGUAUCGAAAAAAGAUACCGAUCGAAAAAAAAAAAGAUAGCAGAUAAAAAUUAGACAAAUAUCAAA'
p12
aF1.0
aa(lp13
S'The Gammaretrovirus Signal - Difficulty Level 0'
p14
aS'UAGAGGAGGUAUCAAAGGAUACUGACGCAAAAAAGAUCAAGUCAGCUCGAUGGAAAACCAUCGAAAGAGCGACGGUCAAGGAUAGAGAAAACUUUAUCCAA'
p15
aF1.0
aa(lp16
S'Saccharomyces Cerevisiae - Difficulty Level 0'
p17
aS'AUCGGUGGAAGAACAACAACUUCAGGGAUUUUUUUUUUUAACCAAUAUACCGAAAAAAGCGGUACACCGAUAAAGGGAGAGCAAGAUCAAAAAAAAGAUCGCCAAAAAAAAAAAAAGGCAAAAGAUAGAAAAAAACUAUCGCUCUCCAAAAGGAUCGCAAGGUCAAAAAAAAGAUCGGUAUCGAAAAAAGAUGCCAAAAGAAACAAAAAAAGUUUCGCGAUCCAAAAGGAUGGCAAGAUCAAAAAAAGGAUCGGUAGCAAAAAAAGCUACCAAAAGAAACAAAAAAAGUUUCGUUAUCCAAAGGGAAAGCAAGCUCAAAAAAAGGAGCGGUAUAAAAAAAGUAUACCAAAAGAUACAAAAAAAGUAUCGCUUUCCAAAA'
p18
aF1.0
aa(lp19
S'Fractal 2'
p20
aS'AAAAAUGGUUGAGAAAUGAGAAUUGCAAGAUCAAAAAAAAAGGAUCAGGAUCAAAAAAAAAAGAUCAAGCUUUAAAAAAAAUGAGCGAGCGAUUCUCGGAACAUACACUAUUAUGCGAAAAAAAAAACGCAAACAUGAAAAAAAAAACAUGAAGAUCAAAAAAAAAGGAUCCUGUAGUGUAUGAAAGAUAGACUACAAGAUUAAAAAAAAAAGAUCGAGCUCAAAAAAAAAAGGGUAAGGUCAAAAAAAAAAGGCCAAGUAGUCUAUCAAAUUCAACCGGAAAA'
p21
aF1.0
aa(lp22
S'G-C Placement'
p23
aS'AGACAAAGUCUA'
p24
aF1.0
aa(lp25
S'The Sun'
p26
aS'GUGAGGAUUACAAAAUAGAAUCCUACAAAGUCAGGAGUACAAAGUACAAUCCGACAAAGUAAUAAGUUCGAAGGGAAAUCGGACAAAGUCAGCAGUACAAGGUCCAAUGCGACAAAGUCACGAGUCCAAAGGACAAUUUGACGAAGUCAGUUAAACAAAGUACAAGACGACGAAGUCAGGAGCUAAAAUAGCAAUCCCAGAAGGUCAGGAGUACAAAGUACAAUUCGACAAAGUCAGUAGUACAAGGUACAAUACGAC'
p27
aF0.875968992248062
aa(lp28
S'Frog Foot'
p29
aS'AAAAAAAAAAAGACGAAAGUCUAAUCGAAAGAUUCGGCGAAGCCG'
p30
aF1.0
aa(lp31
S'InfoRNA test 16'
p32
aS'GGUUGCGCACUGUGCUAAUGUACAUGUAGAGCAACC'
p33
aF1.0
aa(lp34
S'Mat - Martian 2'
p35
aS'GAUCGAAAGAUCAAUGGGUAGCAAGGAUAGCAAAAAAAGUUGUUCGUUGCCCUAAGGAUAGAGAAAAAAGGAUAGCAGGAUAGCAAAAAAAGUUGUUCGUUGUCCAAAGAUAUUAGAAUAUCAAAAAAAGAUAUUUAUAAUAUCAAAAAACUCUAUCCAAAGAACUGGUCUAUACAAAAAAAGUAUAGAAACCAGUUCAAACAGGAAAACCUG'
p36
aF1.0
aa(lp37
S'square'
p38
aS'GGAUAGCGACAAAUGUUGUGGGUAGCAAGGCUACCAAAGCACAACAAAAAUUUGUCAAAAGCUAUCC'
p39
aF1.0
aa(lp40
S'Six legd turtle 2'
p41
aS'AAAAACUAAAUUAAAAAGGAACGAAAGAGAAAGGAAAAUCAAAUUGAAAAGAAAAGAAACUGAAGUGUAACCGAAUUGAAAAAAAAAAAAAAAAAAAA'
p42
aF0.9591836734693877
aa(lp43
S'Small and Easy 6'
p44
aS'UUUGAAAAAGAUAAUGAAAAAAAAGUGGAG'
p45
aF0.8666666666666667
aa(lp46
S'Fractile'
p47
aS'AAAAAAAAAAAAGGAAAACCAAAGGAAAGGAAAACCAAGGAAAAAGAAAUUAAACCAACGGAAACGAAACCAACAGAAAUGGAAAAAAAAAAAAAAAAAAAAAAA'
p48
aF1.0
aa(lp49
S'Six legd Turtle'
p50
aS'AAAAGCCAAAGCAAAACUGAAAACGUAAUAGGAAAAGAAAGGGGAAAUCGAAAGAAAAGUUGAAAAAUAAAUAAAAGGAAAAAGGAAAAAAAAAAAAAAAAAAAA'
p51
aF0.9238095238095239
aa(lp52
S'snoRNA SNORD64'
p53
aS'GGUAUCAAAAAGUCAAAAGUCAAAGAUACAAAAAAAAAAAAAGUAUCAAAAGACAAGACAAGAUACC'
p54
aF1.0
aa(lp55
S'Chalk Outline'
p56
aS'AAAAACAGGAGAGAGGAAACUACUCAGUUAGUCAAAGGACAACAGGUCGCGAAAGUGGACCACCUAGUAAUCUACGGCCUGGCAAAAAAAAAAAAAAAAAAAAA'
p57
aF1.0
aa(lp58
S'InfoRNA bulge test 9'
p59
aS'GGAUAGCAGAGAGAGGAUAGCGAAAGCUAUCCCCCGCUAUCC'
p60
aF1.0
aa(lp61
S'Tilted Russian Cross'
p62
aS'AAAAACGGCGGUCGAAAGACCGAGCAGAUUGAAAGAUCGAUAGAAAACUAUCAAAGGAAAACCUUGCUCGAUGGAAACAUCGCCGAAAAAAAAAAAAAAAAAAAA'
p63
aF1.0
aa(lp64
S'This is ACTUALLY Small And Easy 6'
p65
aS'AAAAAAAAAAAAAAAAAAAAAAAAAAAAAAAAAAAAAAAAAAAAAAAAAAAAAAAAAAAAAAAAAAAAAAAAAAAAAAAAAAAAAAAAAAAAAAAAAAAAAAAAAAAAAAAAAAAAAAAAAAAAAAAAAAAAAAAAAAAAAAAAAAAAAAAAAAAAAAAAAAAAAAAAAAAAAAAAAAAAAAAAAAAAAAAAAAAAAAAAAAAAAAAAAAAAAAAAAAAAAAAAAAAAAAAAAAAAAAAAAAAAAAAAAAAAAAAAAAAAAAAAAAAAAAAAAAAAAAAAAAAAAAAAAAAAAAAAAAAAAAAAAAAAAAAAAAAAAAAAAAAAAAAAAAAAAAAAAAAAAAAAAAAAAAAAAAAAAAAAAAAAAAAAAAAAAAAAAAAAAAAAAAAAAAAAAAAAAAAA'
p66
aF1.0
aa(lp67
S'Shortie 4'
p68
aS'GCAAAAGCACGGAAACG'
p69
aF1.0
aa(lp70
S'Shape Test'
p71
aS'AAAAAGGAAUCAAUAUACAAAAAAAGGUAUAAAGUCAUCAAGAUACUAAAUGUAUUAAUAGAGAACUAUAUGAGACAAGGUUACAAAAAAAAAAAAAAAAAAAA'
p72
aF1.0
aa(lp73
S'The Minitsry'
p74
aS'UCCUAAAUGUCAAAAAGCUAAAAAGGCUAAACGUGAAAAAAAACACCGCCGAGCAGACUGGA'
p75
aF1.0
aa(lp76
S'stickshift'
p77
aS'AAGGUGAGCCGAAAUGGCCUCGCCGA'
p78
aF1.0
aa(lp79
S'U'
p80
aS'AAAAAGAUAGAGAGAGGAGAGGAUAGACUUUCGAGUCUAUCCCCCCCCUAUCAAAAA'
p81
aF1.0
aa(lp82
S'Still Life (Sunflower In A Vase)'
p83
aS'AAACCGUAAGAAUGAAAAACGUUCAGGGCAGAAACUGCCAAGAUAGAAAAACUAUCAGCGUCGAAACGAUGAAAGUGCAAAAAGUACUAAUCCGAGAAAAUCGGGGCGGGUCUGUCUAUAACCUGUUUGGAGACAAAAAAGUCUCAGAUGCAAAAAAAAAAAAUUGGGCAAAAAAAAAAAAAAAAAAAAAAAAAAAAAAAAAAAAAACCCCCAUCAAAAAAAAAAGGCAUCGAAACGAAAGUUUCAUAGACGGGUUGUAGACAGGCCCGAAUGUCCAAAAAGGACAAUGGAGGAAAAACCUUCUAACUUAAAAAAUAGGUGAGCUACAAAAAGUGGCGAGUUAUAAAAAUAGCAGGAUCAAAAAAUGAUCAGCGGAAA'
p84
aF1.0
aa(lp85
S'Quasispecies 2-2 Loop Challenge'
p86
aS'AAAAACAGGUAUCAAGAUCGAAAGAUCGGGAUGAGAUCGACAAAGGAGAUCAGAUCGAGAAGUCAAAAAGACGGCGAGAUCCUUGGAAAAAAAAAAAAAAAAAAA'
p87
aF1.0
aa(lp88
S'Corner bulge training'
p89
aS'AGGUAUCGAUAGAAACUAUCAAAAGAUACCA'
p90
aF1.0
aa(lp91
S'Spiral'
p92
aS'AAAAAGAUCACGUAUCAGUUAGAUAGAGAUCAGAUCAGGAGGAGGAGGAGGAGGAAAAACCCCCCCCCCCCGGUCGGUCCUGUCGACGGUAUGGGUCAAAAA'
p93
aF1.0
aa(lp94
S'InfoRNA bulge test'
p95
aS'AAAAAAAAAAAAAAAAAAAAAAAAAAAAACCGCGAAAAAGAGCAAAAGAGCAAAGAGCGAGAGCAGAGCAAAAAGCAUCGGCAUCGAGCAUCAAAGCAUCAAAAAGCAUCGAAAAAGCAGGA'
p96
aF1.0
aa(lp97
S'Worm 1'
p98
aS'AAAAAAAGGGGGGGAGAGGAGGUCAAAAGUCCACCGCACGCGCGC'
p99
aF1.0
aa(lp100
S'just down to 1 bulge'
p101
aS'AAAAAGAGCAGAUAGAAAACUAUCAGUCGAAAGACAGCAUCAAAAGAUCAUAGAAAACUAAGUCGAAAGACAGAUCAAAAAAAAAAAAAAAAAAAA'
p102
aF1.0
aa(lp103
S'Iron Cross'
p104
aS'AUGGACGCAAAUAGAAACAAAGUUCUGAUAAUGCCAAUUAAGAACGUGGAAAGCGAAGCCAAAGGCAGUUAACUGGAGUUAAAAAUUACCGAAAUUGACUAAAGCACUCACAAAGUGUGUAGA'
p105
aF0.8536585365853658
aa(lp106
S'loops and stems'
p107
aS'AAAAAGGAUAGCAAAGAUCAAAGUUCAAAGAUCAAAAAAAAAGAUACAAAAAAAAAAAAGUAUCAAAGAUCAAAAGAGCAAAAAAAAAAGCUCGAAGAACACAGUCAAAAAAAAGACAAAGAUCAAGGAAAAAACCGAAGCUGUCCAAAAA'
p108
aF1.0
aa(lp109
S'Water Strider'
p110
aS'AAAACGGAGUCAGACCUAUAGAAACCUAUUCGAAAGAAAACGUAAACAGUUGUAAUCAGUUAGAAAUAAACCGUCAAGUGUCAAAAAAAAAAAAAAAAAAAAA'
p111
aF0.9611650485436893
aa(lp112
S'The Turtle(s) Move(s)'
p113
aS'AAAGGGAAACCAAAAGAUAUAUCCAAAAAAAAAGGGUAUAUCGAAUGGUCAAAAAGAUCUAAAAGUAGAAAUACGAAGAUACAAAAAAAGUAUCAAAAGGCAAUGGGAAACCUGAACGUCGAAAGACAAAACGUAUCUAAAAAUGAUACGAAAAGGCGAAAGCCAAAAAACUAUAAAAAGUGAAAAAAACACAAGUCAAAAAAAAGACGAGGAUAUUAAAAUAUAUCAAAGAUCAAAAAGAUCAAUAUAGUAAAAAAAAAUGGAAACAAAAAAGCAAAAGCAAGAUAAGGAGAAAAAAAAAACUCCUAAAAAAGCC'
p114
aF1.0
aa(lp115
S'Adenine'
p116
aS'GAUGGUGCUAUCAUAUAUCCGGUAUCAGGUAUAGGGUAUGAAAAGGUAUCAAAAAAGAUACCGUAUACCGGGUACAAAUGAUAGCAAAGUUGUCAGUGCUAUAUACCAGAUAGACUAUAUAAAGUAUAGUAAACUAUCGGAUACCUAAAGAUAUAGAAAGAUAGCCAAUCCAUC'
p117
aF1.0
aa(lp118
S'Tripod5'
p119
aS'GUGUCCGCCGGAUAACGGCCUUCUAAAUGAAGGGACUA'
p120
aF1.0
aa(lp121
S'Shortie 6'
p122
aS'GCGAAAGCAGUGAAAGCGGGGAAACUAUCGAAAGA'
p123
aF1.0
aa(lp124
S'Runner'
p125
aS'AAAAAUGAGAAAUGAGAAAAGACGAAAUCUGCAUUGAAACCAAGGACCGAAAUGCAAAGCACAUGGUAAAUUUAAAAUGCGGUGAGGCCAAGGACGAAAGUCAGACACUCAAAAAA'
p126
aF0.9655172413793104
aa(lp127
S'Recoil'
p128
aS'AAAAACUGGUAAGGAAGGAAGGCAAGUCAAGGAAGCAAAGCACCAGACAGUCGCCACCAACCAGAAAAAAAAAAAAAAAAAAAAA'
p129
aF1.0
aa(lp130
S'[CloudBeta] An Arm and a Leg 1.0'
p131
aS'AAAAACAGAGAGAGAAAACUACUCGGGAGGAAAACCCCCACUGAAAAAAAAAAAAAAAAAAAA'
p132
aF1.0
aa(lp133
S'[CloudBeta] 5 Adjacent Stack Multi-Branch Loop'
p134
aS'AGGGGACGCGAAAGUGUCCAUCAAAGGAUGGGGAUGUAAUCAUCCGGCCGAAAGGUCCCCCUA'
p135
aF1.0
aa(lp136
S'Triple Y'
p137
aS'AAAAUUAGCGGAGGUAUGAUAGUUGGUGCGAAAGAACUCUCCUUCAGAAUAUACAGGGGCUAAAGGGCCAAGGAGGGUCAAAAAAAAAAAAAAAAAA'
p138
aF0.9072164948453608
aa(lp139
S'Misfolded Aptamer'
p140
aS'CUUCUAAAAGCGGUCAAGGACAGGUAAUCCAAAAAAAAACGAAAAUGAGG'
p141
aF1.0
aa(lp142
S'Flower power'
p143
aS'AAAAUGGGUGAGCUAUACUUAUGUGGAUCGAGAAUUAUGAAAAAAUACCUAAGAGAAGAUGGGGUGGUAAGUAUCCGAAUUUUAAAAAUAAAAAAAAAAAAA'
p144
aF0.8431372549019608
aa(lp145
S'Kudzu'
p146
aS'AAAAAUGUGCGAGUAUUGCAGUGUAUGUAUAAGUACCUCUCGACCCAGGAUGUGGACGUCUAUGGCUAAGAUUCGAGCAUAAAAAAAAAAAAAAAAAAAAA'
p147
aF0.9405940594059405
aa(lp148
S'"1,2,3and4bulges"'
p149
aS'AAAAUGGGCUCUGUGAAAAGAAAAAUCCGGUUGAAAAAAUGCAUCUAAGAACCGUAUAAAGGAAACGAGUGUAAGCACAGGAACUAAAAAAAAAAAAAAAAAAAA'
p150
aF0.9619047619047619
aa(lp151
S'medallion'
p152
aS'GAUUUCUCAUAACGAAAGUUAUGAGGGGACACUCGCUGAAAACUGAGAUAACGAAAGUUAUCAGAGAAAACUCGCAUGACGAAAGUUAUGACUUGAAACGGACCGGAAACGGGCAUAAGGAAAUUUAUGGCACAAAACCGACAUAAGGAAACUUAUGAUGGUAAUCCAAGUGAAAUCGUAGAUAUCGAAAGAUAUUACCGCAAACGGUUAUAACGAAAGUUAUAUCAGAAAACUUACCCAAAAGGGACUUAACGAAAGUUAAGACAGAAAACUGACCUAACGAAAGUUAGGAAAGGAAAUUUACAAAAAAUGGGCAUAACGAAAGUUAUGUGAUACC'
p153
aF0.9198813056379822
aa(lp154
S'[RNA] Repetitious Sequences 8/10'
p155
aS'AGAAAUUAAGGAAAAAACCACAAAACGAAAAAAGAAAAAAAUCAAAAAGCCAAAAAAGGAAAAAACGAAAAAAUCAAAAA'
p156
aF1.0
aa(lp157
S'Documenting repetitious behavior'
p158
aS'AAAAAAAUUUAAAAAAAUUUAUAAAAAAACGAGAAAAAAUCGAAAAAAAAAUCGAAAAAAAGCCAAAAAAAAAACGAAAAAAAACGGAAAAAAAACGAAAAAAAAACCAAAAAAAAAUCAAAAAAAAAAAAAAAAAAAAACGAAAAAAAACGAAACAAAAAACAAAAAAAAUAUGAAAAAAAAAGGAAACAAAAUCGAAAAAAAAGGAAAAAAAAGCUAAAAAAAAACGUAAAAAAAGUAAAAAAAAAGGGGAAAAAAAAAUAAAAAAAAAGUAAAAAAAAAGAAAAAAAAAGGGAAAAAAAAAGGAAAAAAAAUAGAAAAAAAAAAGAAAAAAAAGAGAAAAAAAAAAGGAAAAAAAAAGUAAAAAAACUGAAAAAAAAAAGUAAAAAAAUAAAAAAAA'
p159
aF0.885
aa(lp160
S'7 multiloop'
p161
aS'UUAAGGGUUGAAACAUCCACAAUAAUGAUGGUCGCGUAUCGGUCCUGGCGUGUAAAUGCCCACGUGAAAACGUGGUUUUGAAAAAAGUUCAG'
p162
aF0.9130434782608695
aa(lp163
S'Kyurem 7'
p164
aS'AAAAAUAACAGCGGAAAAGUUCUUAAAAAUAACUAAGGAAAAUUUUUAGAACGAAAAAGUUAACCUGGAUGUGGGCUCGUUGAAAAAAAAAAAAAAAAAAAA'
p165
aF0.9803921568627451
aa(lp166
S'JF1'
p167
aS'AAACUAGAUGUCGAUACAAGUCACAAAAGGUACCAAGAUACGAAGAGAGAAGACAAAAGAUAUUAUAAUAUCGAAAGAUAUUAUAAUAUCAAGUCGAAAGACAGGAUAGACUUUCGAGUCUAUCCAAGAUAGAAAACUAUCAUUUGUCACUCUCGGUAUCAGGUACCAAAGGAUAGAGAAAAACUCAUAUCCGUGAUAUUAUAAUAUGCUAUAAUCUGAAAACAGAUUAUAGUAUAUUUAUAAUAUCUAAGAUACAAAAAAGUAUCGAUAACAGUAAAAAUACUGUUAUCAGAGAUCAAAGGAUCAAGUGGCAAGUAUCAAGACAGUCAGUCGAAAGACGACGUCUACAGCGGUGUUUCGACACCAGCUGAAUAUACUAUGUUUCGA'
p168
aF1.0
aa(lp169
S'multilooping fun'
p170
aS'ACGUGUAGUGAAAAUCAAAAGUAAAGAGAAAAAACU'
p171
aF0.8055555555555556
aa(lp172
S'Multiloop...'
p173
aS'UCGCAGAUCAUUCGAAAGAGAGUUGAAAAACAGUCAAAGGACAGUGGAAACACGGUCGAAAGACAGUCGAAAGACGGAUCACCGGGCAAAAACCCGGGGCGAAAGCCGUGA'
p174
aF1.0
aa(lp175
S'hard Y'
p176
aS'AAAAAGACCAAUUAUACGCUUUCUAGCGUAUCGCUUGUAUGCUCCAAAGGGAGCAUACAGGUCGAAAA'
p177
aF0.9705882352941176
aa(lp178
S'Mat - Elements & Sections'
p179
aS'AAAAACAGGUCAAAGGGAAGGGUGAUCAUGCGAGCGCGAGUCGAAAGACGCAGGCUCCCAGAUCGAACCGUUUUGCAAGGUCCUGGAAAAAAAAAAAAAAAAAAA'
p180
aF0.9619047619047619
aa(lp181
S'Chicken feet'
p182
aS'AAAAGGCACAACGUAAUCGGGAAACAAAAUCCCAGGAUGUGUAAAGCUGUUAUCCAAAUUUUGAAAA'
p183
aF0.9402985074626866
aa(lp184
S'Bug 18'
p185
aS'UGAUAUAGGAUCAGGUAAGUAAGUAUUCGGAUAUCAGCAUCCUGCUAAAUUUU'
p186
aF0.9245283018867925
aa(lp187
S'Fractal star x5'
p188
aS'AAAAACGAUAAAGGAGAUCGAAAGAUCAAGGUCGAAAGACCGAGAUCGAAAGAUCAACAAGAAAACUUGAACUUUAUCGAAAAAGGAAAGUGGAGAUCGAAAGAUCAUGAUCGAAAGAUCUAGAUCGAAAGAUCAAGAUAAAAAUAUCAACACUUUCCAAAAAGGAUGGAGAAGAUCGAAAGAUCAAGAUCGAAAGAUCAAGAUCGAAAGAUCAAGACAAAAAUGUCAGCUUCAUCCAAAAAGCAUAGAGAAUAUCGAAAGAUGAAGAUCGAAAGAUCAAGAUCAAAGGAUCAACAUAAAAAUAUGAACUCUAUGCAAAAUGGAUAGUAAAGAUCGAAAGAUCAAGAUCGAAAGAUCAAGAUCGAAAGGUCAAGAUCGAAAGAUCAAUACUAUCCUAAAA'
p189
aF1.0
aa(lp190
S'Crop circle 2'
p191
aS'AGAAAGUUAAGGGAAAAAUGUAAAAAAAGGAAAAAAAAAAAAAAAAAAAAAAAAAAAAAAAUUAAAAAAAAAAAAAAUCGAAAAAAAAGCCAAAAAAGGCAAAAUUCAAA'
p192
aF0.9090909090909091
aa(lp193
S'Branching Loop'
p194
aS'UGCUUCGAAAAAAAAUGGCAAAGGCUAACGAUCUAAAAAA'
p195
aF0.95
aa(lp196
S'Bug 38'
p197
aS'GGGAUAGGAAAUGAGAAAUGCAAAUGAUGAAAACUA'
p198
aF0.9444444444444444
aa(lp199
S'Simple Single Bond'
p200
aS'AAAAAAGAAAAAAAAUGAGAUAAAUUCUUUAAAAAAAGCAAAAAAAAAAAAAAAAAAAAAA'
p201
aF1.0
aa(lp202
S'Taraxacum officinale'
p203
aS'GAGCGAAAGACUCAGAGCGAAAGACUCAGAGCGAAAGACUCAGAGCGAAAGACUCAGAGCGAAAGACUCAGAGCGAAAGACUCAGAUAGACUAUCGAUAGACGUGCAAAGCACAGUUUAUCAGAUACAAGAUAGACUACAAGAUAGAGAAACUCUAUCAGUAGUCUAUCGAUCAGGUAUCAAAGAUACCGGUCGUAUCUAAGAUAGUCUAUCAGAGCGAAAGACUCAGAGCGAAAGACUCAGAGCGAAAGACUCAGAGCGAAAGACUCAGAGCGAAAGACUC'
p204
aF1.0
aa(lp205
S'Headless Bug on Windshield'
p206
aS'ACAACGUAAAGUGAUGGAAGUAGAGAAAAAAAAAAAAAAAAAAAAAAAAGUGCAAUCAAUAUUCAAAUCGGCGGGUUGAGGUUAGGGAAAAAAUUAAAAAAAAAAUAAACGCCAAAAAAGACAGAGUAAAAAAAACCCAGGGGGGGCGAAGAUCCUUUUUUUUUUUUUAUACAAACUGAGUCAAUCAGGGGAUAAACUAA'
p207
aF0.93
aa(lp208
S'Pokeball'
p209
aS'AAGCGUUAUCAAAAGGGAGCAAGGGAAGCGAGGAAGGAAGGGAGGAAGCAAAGCACCGAUCACCACCGAGCACCCAGCACCGGUAACGAAAAAAAAGGAGAACAAAAUGGAGCAACGGAGGGGAGGAAGGAAGGGAGGACGCAAAGCACCGAUCACCACCGAUCACCGAGCGCAGUUCUCCAAA'
p210
aF1.0
aa(lp211
S'Variation of a crop circle'
p212
aS'AAAAUAAAAGGGAAAAGUAAAGGGUAUUUUGCAAGGCUUGAUAAUCUAAAAAAGCGAAAAAAUCAAAAAAAAAUGAAAAAAAAAAAAA'
p213
aF0.9545454545454546
aa(lp214
S'Loop next to a Multiloop'
p215
aS'AGGGGUAAACUAAAUAUAAUAAAAAAAAAUUUAUGGGGUUAGGUAAUCCUAGCCGUUAGAAAUGUUUAUCCAA'
p216
aF0.9726027397260274
aa(lp217
S'Snowflake 4'
p218
aS'GAUCAAACUUAUGGACUGGAAUCGGAUACAAGAUACGAAAAAGCGGAUAGAUCAAAGAUCAUUAUGAAACAUAUACUCCAAAAACGGUAUCAAUCGUUUGAAAGCCGGGAUCGCCAAGCGCGUAGAUCAAGGAUCAUCCCGAAAAAUCAACGGAUUUCAUGAGAAAUCGGGAGGGACUAUGUCCAAUAUCGAAGAUAUUCCCGGAAAACCAUGAAUAUGGGUGGUAAUCCUGGUAGAACAAAGUUCCAGAUCAAAGAUCUUCCGGUAAAUGCACCCAAACUGUUCGAAAGGGGAGAACAGGAAACCUGAAGAUCAAAGAUCCUCUCAGGAAACAGACAGAAGUAUCAAAAAACCGUCCAAACCAAAGAUC'
p219
aF0.9027027027027027
aa(lp220
S'Mat - Cuboid'
p221
aS'GAAGGAAAAUCGAGGAAAAGCAAGGAAAAGAAGCAAGGAAAAGGGAUCAAUGAAAAGAAGUGAGCAAGGAAAACCAAUCAUGAGAGGAAAAGCAGACAAGCAGGGUAGAAAAAGUGAUGGAGGGGGGCAGGAAAAGGGAGCGAGGGUGCGACGGUGGAAAAGAGAGUGAGUAUGGGGGGAAGUAAAACGGAAGGAGGGAGCGAUGGACGAAAAAACGCAUGGAGCGACCGAAUGAUGGUGGCCAACUUGACGAGCUAUGACUAUAAAGUGAUCAAGUGAUCCCGAUCAAUCGAUGCAGCUCGUCGAUGUAAGCAAGCCCAAUUUGGCAAGCCUAAGCGUGCAGCCGAAGCAAGUUCAGGAAGCCCAAGCCAGAGAGGGGC'
p222
aF0.7842105263157895
aa(lp223
S'Misfolded Aptamer 6'
p224
aS'AAAAAUCCUAAAAAACAUCAUCAAAAGUCAAAAAAAAGACGAAGGUAAAGGAUGAAAAAAAAGGUAAAAAAAAAA'
p225
aF1.0
aa(lp226
S'Snowflake 3'
p227
aS'GGUUCAAAAGAAAUAACCGAAAGGUAAGAACAGCCCAAGUCUAAUGAAGCUCGGAAAACCGUCGAAGACGGAAAACCAAGCCUCGAAAGAGAAUGGUAGAUGAAGCCUAAUAACCUUCGGAAAACCGUGAAAUAUGGAAAACCAAAGUUUGAAAAAGAAUAUCGGGUCAACGCAAAGGCGGAUCGGAAAACCGUCGAAGACGGUAAUCCAAGCCUCGAAAGAUAAGACCGGUUCAAAUCGAAAGAAGGCCGGGAAACUGUCAAAGAGGGAAAAUCAAUCGUCGAAAGACAAGACCGGGUCAAGUCGAAAGCCGUUCGGAAAAACCUCAAGGAGGGAAAACCAAACUGCGAAAGCAAAGACCAGAUCAAGUGGAAAUACGGUAGGAAAACCGCC'
p228
aF0.8524173027989822
aa(lp229
S'Hard Y and a bit more'
p230
aS'AAAAGCUCGCGGACCUAGGAAAUUAGCGUUGGUGCGGGGAGAUGAAAGCAUCGUCAUAGGAAAAAUUAUGUAUUAGCAUCGCGAGAAAAAAAAAAAAAAAAAAAAA'
p231
aF0.9905660377358491
aa(lp232
S'Mat - Lot 2-2 B'
p233
aS'GAAGGGCAGAGCGAGGAAAAGUUGAUAUGAAAGUAAAAAUAAGCCCGAGCAAAAGUGACCUCGACGAAACAAUCGGGAGGAAAAGGAAGAGUAUAGAAAACUUAAUACCUUGGCAAAAACGGACCCGAUCCCGAAGAACAAAAAUCGGAGGAGCGAGCAAAAGGGGCAUAGAAAUGAAAAUGGAUCGCGAGCAAAAUCAAUCCAGAGCAAUCGGGUGGGAGGAAAAGAGAAACAAUCGAAAACUGAAAAGCGUGUGAAAAUUGAUCAAGAUACAUAGAAACAAC'
p234
aF0.795774647887324
aa(lp235
S'Shapes and Energy'
p236
aS'AAAAAACGAUUCGCUGGAAAAGAAAAGGAAGGAAACGUGCUAAGCCUCGAUGGAAAGGGAUAUAAAGGGCUGCUCCAGGGAAAAAAAAAAAAAAAAAAAAA'
p237
aF0.9603960396039604
aa(lp238
S"Spiral of 5's"
p239
aS'GAAAAGAUACGAAGAUAAAAAGCUAAAAAAGAUACAAAGAUAAAAGUAUAAAAGAUACAAAAGAUACAAAGAUAAAAAGAUAAAAGAUCCAAUGAUAAAAAGAUGAAAGAUACAAAGAUAAAAGAUACAAGAUACAAGAUUCAAGAUAGGGAUUGAGAUAGACUACAAAAAGUAGUAAAAAUUAUCAAAAACGAUCAAAAACUAUCAAAAAGAAUCAAAAAGUAUUAAAAAGUAUCAAAAAUUAUCAAAAAGUAUCAAAAAUUAUCAAAAAUUAUCUAAAAGGAUCAAAAAUUAUCAAAAAUUAUCAAAAAGUAUCAAAAAGUAUCAAAAAUUAUAAAAAAUUAUCAAAAAGUAUCAAAAAUUAGCAAAAAUUAUCAAAAAGUAUCAAAAACAAAAA'
p240
aF0.9949622166246851
aa(lp241
S'Campfire'
p242
aS'AAAAAAUCAAGUGAGAAGAUUAACAUGGAAAACGUGAUGAGCAAGCCUAUGCAAUCGAAGUGAGGAGGAUCGGCAAAAGUAUGACUCCGUGAAACGCUCAGUGAAAGUGACGGGAUAGGGUAAUCCACAAUCCAACUAAGCCACACUCCUCACGUCAUUCAGAAAGAUCAAAGGAGCUUCGAAGUUGUAGGAAGCCUAGCAAACGGGCGAUU'
p243
aF0.9433962264150944
aa(lp244
S'Anemone'
p245
aS'AAAGUAACCAAAGGGCGGUCGUAUAGAGUUGUGAAUUGUAUAAACAAUUAAGAGGAAACUCUGAUGGGUUACUCCCUAUUAAAGUAAUUUCCAAACAUGAAAAUGUUAAAGACAUAUGUCUUUACUGCUUCCUGGCGGCGUGGUGAAAACCAUUAAGAGGAAAUUCUUAUUGAUACAGAUCGGUGAGAUCGAUCUCUCACAGUCAUCGAGCUGU'
p246
aF0.8130841121495327
aa(lp247
S'Fractal 3'
p248
aS'AAAAGCGUUGCAGUCUUAAUACGUGAAAGCCGUGAGUGGUGAAAAAAUAUAAGUAUAAUAGGUAGAGAAAUCUCAAAGUUAAUAUUCCGACAAAGGAGAAAAGUGAGGCUCACGAAAAA'
p249
aF0.8151260504201681
aa(lp250
S'Kyurem 5'
p251
aS'UAAACCAAAGACCCUUAAUUUCAGUAAAACACUGGUCAAAAGGUAAAUCUUGACCCUCUAAAAUGAUAAGUGGCGCUCAAUUUGUAAAAAAAAAAAAAAAAAAA'
p252
aF0.9230769230769231
aa(lp253
S'Snowflake Necklace ( or v2.0 )'
p254
aS'AAUGUUACAAUAAGCAGAGACACAAAAAAUGAUGGAAAACGAUGAAAAACAAAGAAAAACUCAGAAAAAUAGGUUUUAGUCAAAAAGAUGCUUGCCAAUAAAUUGAUGAAAAGCUGAGAAAAAUGACGAAAAACGAUGAAAAACAAGCUAGAGGCAAAAAGCCAGAUACAUAAAAAAUGAUGAAAAAUAGAGAAAAACCGGGAAAAACCACGUGAAUUGAGUAUCAGUCAAAAAGACAUUGGUAUAAAAAAUAAUGAAAAACAGAGAAAAACUAUGGAAAACGACAAAAAAUGGAUCAAAGUCAAAAAGACAUAUAGACAAAAAAUGAUGAAAAACAACGAAAAACAAGGGAAAACAGAUAAAAUCAAGUAUAAGCUUAUUGUAACAUU'
p255
aF0.8406169665809768
aa(lp256
S'Methaqualone C16H14N2O Structural Representation'
p257
aS'AUUUUAGGAUCAUAUCAAAGGAUGAACGCAUGGUCAGUCGAAAGACACCCAGUCGAAAGACAGUCAGUCUAAUGACAGAUAAAAAAAGUCAGACAGGCAGACACUUAUCAAAAGAUAACGUGAAAGAGGGUAAGGGAAACCAGAAAAAAGACACUUAGUCGAAAGACUUCGAAAGAGGCCGAAACACGCGGUAGAAGACGGGAAACAGAGAGCAAGGCAGUCAGACAAAAGUCAAAGGACAGACAGUCGAAAGACAGACAGUCGAAAGACGGAUAGCGAAAACUCAUACAGUCUAUAAAAAUAGGUGAAAACCAGUCUAAUGACAACACAUAUAUCAAAUACCAGAUCAUUUAUA'
p258
aF0.9014084507042254
aa(lp259
S"Cat's Toy 2"
p260
aS'AAAUGCCUUCCGUAAAGGAAGGAAAGAAAAAAAAAAAAAAAAUAGGAAAUAAAAAUGAAGGGAAACCAAAAAAAACUUAAAAACCCGGGAGGCUAAA'
p261
aF0.979381443298969
aa(lp262
S'Zigzag Semicircle'
p263
aS'AAAACUAAGACCGUAAAAAGUCUGCCUUGGGAAA'
p264
aF0.9411764705882353
aa(lp265
S'Short String 4'
p266
aS'AAAAAGGCAGCGACGAGGAAAGGAUACGUAAUCGGUAAUAAAGAGUGACGAAAAUGGAACAAUAAAUACUAAAACCAAAAAAAAAAAAAAAAAAAAA'
p267
aF0.9381443298969072
aa(lp268
S'Gladius'
p269
aS'GGAAACAAAAAAUUAAAGCAGAGGAGAUUGUCUGCAAACGACAGAAAUGUCAGACACAAUAGAUAACAUGUCAAGAGAUCGAGGUAUAUUAGUUACAGGCGACUGCGAGCAUAACAAGAUUAAAGAUCGGUUCAGCUCCAAGUCCGUUGUAUAUAAUAUGAACAGAUCAGCGGACAACCAGACGAGAGUUACUCACUAAGGGACUAGUACCUGGGGUGGAGUCAUAGGAUGGGAGGAUUUAGACUUUGUAGACCUACACAUGAGUCAGGUGUCGAAAGAUACUGGGACAGAUGUAGGGGUACGCAGAAGCUAAAUCAAGACAUCAAGAGACUAGGACCCUGCGACUAGCGAACGAAAGUUCUAGAUUAGACAAACAACGCGACAAAAUAAAUAAAAAAAU'
p270
aF0.9
aa(lp271
S'Thunderbolt'
p272
aS'GUAAGAUGCAAAAAAAACGUCAUGCAGAAAAAGAAAACACGAAAGAGUAGUAUAGACUAAAAAAUAGCAAAAUGCUAGAAAAAGGAAAGGGACGUAAAAAAUAACAAAAAAGGGAAAGGGAGGGAAAACGAAAGAUGGCGAAAAUGCAAAAAGGAGAGGAAAAAUCGACAAAGGGCAAGGUAUAGUUAAAAAACGACCGGAAACUGGGAGAAAAUAUGAAUUACCAAAAAAAAGCCAAAAAAGGUUACAAAGUGACCAGCGAUCAAAAAAAAAAUUGGACCAAAAAAAAAGAGCUAAAAGGUCAUUAAAAACUAAAAAAUGGAAAAAAUGACAAAAGCAAUUUCUUUCCAAAAAAAACGGCUCGAGGAAAAAGGAAAAAACAGUAUCAAACA'
p273
aF0.9642857142857143
aa(lp274
S'Mutated chicken feet'
p275
aS'AAAAAAAAUAGAUCCGAAGCUGAAAAUUGAACGAUAGGAGCUGUAAAAAUGAAAAUUAUUGUUGGAUGUGAUAAAGCAACGAAGCGAUAUAGGUAAAAAA'
p276
aF0.78
aa(lp277
S'Chicken Tracks'
p278
aS'AAAAAAAAACGGGUCGUGUAAAGACGCAAGAUCGAAAGAUCAAGAGCUAAUGCUCGACCUGUAAGCCGACCUAUGGUCAAGAGCAAAGCUCAAGGUGAAACACCGGCGAAUAAAAA'
p279
aF1.0
aa(lp280
S'Looking Back Again'
p281
aS'CAGAGGUCGUUCAAAAAGGUAUCAAAGAUACCAGAUCAAGUCGUCAAGUCAAAGAGGACAGAUACAAAGAUCGAAAGAUCAAAAGUAUCAAGACAAGACAAGGUAGUAAAAAAGAUAGAAAGCUAUCAAAAAAUACUAUUCGAUAGAAAUUAUCGAUAGAAACUAUCGGAUAUGGAAGAAGAAGGAGAAGGAGAUCGAAAGAUCGAUCCGAUCGGUCCCCAGAAAACUGAAGUAUCCAAAGAACGGACCGGAUAAAGGUCAAAAAAGGAGUACAAAAAAAAACAGAAAAACUGUGUACAAAUCCAGACCGGUAAAAAAAUGGGCAUCGAAAGAUGCCAAGUAGGAAACCAUAGAGAAACUCUAAAUACCGAAAAGACCUUAUCAAACUG'
p282
aF0.8946015424164524
aa(lp283
S'Multilooping 6'
p284
aS'AACUGGUGCGGCUUUUAAUAGAGAUGAGUUAAUACUUAAGCGAAUUGUUAAAGAACGGGGUAUGAAAGUACCUUCGCAAGGA'
p285
aF0.9146341463414634
aa(lp286
S'Cesspool'
p287
aS'UAAGAAGAAAAGAAAUAGAGUGCGUCCAAGACAUCAUAGAUGCAAGGGAAAAGUAGUUGGAGAAAAAGAGUAAAAGAAAGUAAAAAGAAAGGGUAGGAAACAAGGUGAGAGAGGCAAAGUCAACGAGGAUACAAUGAGGAAACGAGAUGGGAAAGAAAAAAAAACAAAAGAUCAAUAAGGAACUACAAAAGAAUUCGAGAUAUUGAAAUAAGAAAACGAUAGAAGGAGAAAACGAGGGGAAAAAACGACUAAAAUAAAAAAGCGGCCCAUGGAGUAGAAAGCAAGUGGAUGCAGUGAAGUACAAGAAGGACACAAGGACGAAAGGAUACGAGAAAACGAUAAAAAGAGAACGUCGGUA'
p288
aF0.7513966480446927
aa(lp289
S'Hoglafractal'
p290
aS'AAGUGGAACUAGUAAAAGAUACAAAAAAGUAUCAUCGGAGACAAGAGAGGAAAACUCUGUUUGUCAAGCCGAAAGGCGAAAGUCAAAGAUUAAAGAUCAAAAAAGAUCGAUCCUAAAGUGUAAAUCGCGAGGUAGGUAAUCUGCCCAGGAAAAUUCGAGUCAAAAAAGACGACGCAGGGAAAACUGUGUCUAGUGACACUGGUAAAAAGGAAUAAAAAAAUCCGUCAAAAAGACGGAAAACCUGGUCUCAAAAAAUUCAAAAAAGAAGAAAAAGUCGAUGAAUAGCGAAGCUAUUCUAAAAAAGAGACCUAAAAAACCAGGAAAACUUGAAAAGACAAACCAUCGAAGAAGAGAUUAAAAUGAAAACAGAUAAUUCGACAGAGAAUUUGUCCAAUCUUGC'
p291
aF0.8975
aa(lp292
S'Bullseye'
p293
aS'AAGGCCGGGAGAAUCCCAUGAUCAAGGAGCUAGCGGAAGCUGUGGCAAAAAAAAGGAUAACAAAGUUGAAGCUAUAUUAUUGAGAUCAAGCAUCUAUAAAAAAAUCUGGCUGAAACAGCGAUAUGGAAUAUAAAGAAGAAAUAUCAAUUAAAAAAAGUGAUUCUAUGAGUAAGAAGAAGUGUCAACCCCAAAGGGGCACGAA'
p294
aF0.8465346534653465
aa(lp295
S'Shooting Star'
p296
aS'AUGUGUGGACGGAUACCUAUGAUAAGGAGUUAGAUAGUGAAAGACAUACGACGCAUGGGCUUGGUAUCCAGGUUGGAGAGGUGAUGUUAGAUGGGGUUAGAUCUGGAAAGCACCAUACGAUGAGGUACAACUAAUUAAGGAUAUAAUUACGAUCAAUAGAUACAAAGUAUCACCUGGAAGCCAGGGGGAAAACAUAUAUUAGACUGGACCAAAGCAAUCCGGUUGAAGCAAUCGGUGUCACUAUGUAGCGCUGUCUACAUAAAGUGUAGGAGAUGAGAAUUAUUAGUCCAUCAAAGAAAUCUUCAAGGAGAUGGUCAGAUCAUGAAAACAAGAUAUCACAAAAUGAAUGUUGGAUCAACAUAUA'
p297
aF0.7939560439560439
aa(lp298
S'Teslagon'
p299
aS'AAAAAAUGGAAAUAACAAGAGACAAAACGACGUUUUUUUGGAUUUCAUAUAAGAAGAUUGUUUUUUUUUUUUUAACAGUGGAAAUAAUCGACUAAAAAUAGGAUCAUUUUUUUUAACAAAAAUAUAUCCCAAGAGAUUAAGAUUUUUUUUUUUUUAUUCAAAGAAGAUAGGUGUCUGUCUUUUAAAACCAUAAAUCACGUGUAAAAAAAUUAAUUUUUGUUAUUAGCGAAAAUAGGCUGUGAGACUAGGAGACUAUUUAUAAAUUAUUCAAAGAAGCGGGGUUUUUGUCCUUUAACCGUUAAAAUAAACACAAAAAAAGUGGACAAAAAAAAAAGUUUUUUAAUUAUUAAGUACAAAAAUAGUGUUGGCAAAAAUGGAAAAA'
p300
aF0.5968586387434555
aa.