(lp0
(lp1
S'Simple Hairpin'
p2
aS'AGAGCAAAAAAGCUCU'
p3
aF1.0
aa(lp4
S'Arabidopsis Thaliana 6 RNA - Difficulty Level 0'
p5
aS'ACGAUGCAAAUCGCAAAAAAAAAAAGCGCGCGGUGCAAGCGCUGUGAUAUCGUAUGCAAAGAGACAAAAAAGUCUCAGCAUACAGAUAUCACAGCGCGAGCACCGCGAAGCAUCGU'
p6
aF1.0
aa(lp7
S'Prion Pseudoknot - Difficulty Level 0'
p8
aS'GAGAGCAGAGCAAAAGCUCGCUACUCAAAAAAAAAA'
p9
aF1.0
aa(lp10
S'Human Integrated Adenovirus - Difficulty Level 0'
p11
aS'CGCGGUGUGAUAGCAGCGAUCGAAAAAAAAAAGAGCCGCGGUCCGGAGGGCCCUGUCAAAAGCGCUGGGAUGUCAAAAAAAAGACAUCCCAGAAAACGCGACAGAAAAGGUGGAAAACCCGCGAAACCGUUCAAAAAAAGAGCGGGCUCAAAAAAAAAAAAGAUCGCAGUUAAAAAUCACACAAACGCGAAA'
p12
aF1.0
aa(lp13
S'The Gammaretrovirus Signal - Difficulty Level 0'
p14
aS'AAGAGAAGCGUUCAAAAGAACGCGACGCGAAAAGGAGGAAGUCACAUGCGAUCAAAAGAUCGAAAACAUGGACCCUCAGGCGCUGGCAAAAGUCAGCGCAA'
p15
aF1.0
aa(lp16
S'Saccharomyces Cerevisiae - Difficulty Level 0'
p17
aS'GUCAUUCUGUCAAAAAAAGGACGUACUAAAAAAAAAAAAAUAUCGUGGUAUGAAAAGUCAGUACGAAUGGCAAAGAGGAAUGAGUAGCUAAAAAAUGCUGGGUUAAAAAAAAAAAUGCCAAAAUGAACAAAAAAGGUUCACAUUCCUAAAUCCAUGUCAAUGUGUAAAAAAUCACAUUAGGGGAAAAAACCCUAAAGAUUCAGUAAAAGAGGCUGAGGUAUGGUAAGGCCUUGCAAGAGAAAAAAAAAUCUCCGAUGCCAAAAAAGCGUUGAAAUCUAUCUAAAAAUGGUGGGCGAGGCAAAUUAGACUGAAGUGGCAAAAAAACUACUUGGGGGAAAAAACCCUAGAAAUCGAGCAAAAAAAGCUCGCGGUCUGUAAA'
p18
aF0.9894459102902374
aa(lp19
S'Fractal 2'
p20
aS'AAAAAUCGCUGGCAAUAGGUUGUUAUGGGACGUAAAAAAAAUCGUCAUUAGGGAAAAAAAAACCUAUAUUCCAAAAAAAAAAGGGAGAAUAAUAGCCUUAAGUGCUACGAUAUCAGCAAAAAAAAAGGCUGUAGACCGAAAAAAAAAGGUCAUUGUGAAAAAAAAAACGCAUAAUCGUAGCACAAAUUGUUGAAAUACCGACAAAAAAAAAAGUCGAAGAUCAAAAAAAAAGGAUCAACAGUAAAAAAAAAAACUGCAAUUUCAGCAAAAGGUCAGCGAAAAAA'
p21
aF1.0
aa(lp22
S'G-C Placement'
p23
aS'GAGCAAAGCUCG'
p24
aF1.0
aa(lp25
S'The Sun'
p26
aS'CACAUCGAAGGAAACCUUAAUGGGUCAAACUCAGUGAUGAAAAGAGUAACGCGAGGAACACAGCGAUGCAAGGCAUAACGCGCGAAACGAAUCGCGGGAAACUAGAACACGAGGAUCCCAGUGUAGGAAGCCUGAACACACUUAACGGAGCAAUAAUAUUUAUAAUGUUCGGAACUAAGAGAUGCGAAGCAUAACCCUGGAAAGACAGAGAUACAAAGCGUAACUCGGCGAACGCAGUGUUGCAAAGCGGAACACGCG'
p27
aF0.8294573643410853
aa(lp28
S'Frog Foot'
p29
aS'AAAAAAAAAAAAGCGAAAGCUUGGACAAAGGUCCCAGCAAGGCUG'
p30
aF1.0
aa(lp31
S'InfoRNA test 16'
p32
aS'ACGAUUAGAGCGUGCAAAAGCACGACUACAAAUCGU'
p33
aF1.0
aa(lp34
S'Mat - Martian 2'
p35
aS'GUGCAAAAGCGCAAAGCGAUGCAAGCGAUGCAAAAAAAGCAUCGCGCAUCGCAAUGCGCUGUCAAAAAAGCGAUGCAGCGAUGCAAAAAAAGCAUCGCGCAUCGCAAAGCGCUGUGAUAUCCAAAAAAAGGAUAUCAACAGCGCAAAAAAGACAGCGCUAAGCUCUGUGAUAUCUAAAAAAAAGAUAUCAAACAGAGCAAAGAGCAAAAGCUC'
p36
aF1.0
aa(lp37
S'square'
p38
aS'ACGCGGCCGCGGCCGCGGUCCGAUGCAAAGCAUCGAAAAGACCGCGAAAAGCCGCGAAAAGCCGCGU'
p39
aF1.0
aa(lp40
S'Six legd turtle 2'
p41
aS'AAAAGGUAAAAAAAAAUUAAGUCAAAAGGAAAAAAAAACCAAACUAAAAGGAAAACAAAAGGAAAAGUAAUGUCAAGCAAAAAAAAAAAAAAAAAAAA'
p42
aF0.9591836734693877
aa(lp43
S'Small and Easy 6'
p44
aS'GCGGUUAAAAAUACUCUAAAAAAAUCACAU'
p45
aF0.9333333333333333
aa(lp46
S'Fractile'
p47
aS'AAAAAAAAAAAACUAAAGGGAAAGCAAAGCAAAAGUAAUCAACUGAAAAUGAAAGAGAGUAAAGCAGAAGCAAAGGAAAUUAAAAAAAAAAAAAAAAAAAAAAAA'
p48
aF0.9619047619047619
aa(lp49
S'Six legd Turtle'
p50
aS'AAAAACCGAAAGUUAAUACAAAAGCAAAAGUAAAAGUGAAAGGCAAACCUAAUUGAAAUAGGAAAUUUAAUCGUAAAUUUAAACCAAAAAAAAAAAAAAAAAAAA'
p51
aF0.9619047619047619
aa(lp52
S'snoRNA SNORD64'
p53
aS'ACGAUCAAAAAGACAAAAGACAAAGAGACAAAAAAAAAAAAAGUCUCAAAAGUCAAGUCAAGAUCGU'
p54
aF1.0
aa(lp55
S'Chalk Outline'
p56
aS'AAAAAGAUCAGACGUAAAAGCAGUCAGACAGACGAAAGUCGUCGGUGGACUAAUGUACCACAGGGAGAAAACUCGCCGAUCGAAAAAAAAAAAAAAAAAAAAAA'
p57
aF1.0
aa(lp58
S'InfoRNA bulge test 9'
p59
aS'UCGAUUUCGAGAGCAGGAUCCUAAUGGAUCCUCCCAGAUCGA'
p60
aF1.0
aa(lp61
S'Tilted Russian Cross'
p62
aS'AAAAAGAGUGGACAAAAGUCCCAUCAGAGCGAAAGCUCGCGAUAAAAGUCGUAGUGCAAAAGCACGAUGUAGCGAAAGCUAACUCAAAAAAAAAAAAAAAAAAAA'
p63
aF1.0
aa(lp64
S'This is ACTUALLY Small And Easy 6'
p65
aS'GAGAGGGGGGGGGGGGGGGGGGGGGGGGGGGGGGGGGGGGGGGGGGGGGGGGGGGGGGGGGGGGGGGGGGGGGGGGGGGGGGGGGGGGGGGGGGGGGGGGGGGGGGGGGGGGGGGGGGGGGGGGGGGGGGGGGGGGGGGGGGGGGGGGGGGGGGGGGGGGGGGGGGGGGGGGGGGGGGGGGGGGGGGGGGGGGGGGGGGGGGGGGGGGGGGGGGGGGGGGGGGGGGGGGGGGGGGGGGGGGGGGGGGGGGGGGGGGGGGGGGGGGGGGGGGGGGGGGGGGGGGGGGGGGGGGGGGGGGGGGGGGGGGGGGGGGGGGGGGGGGGGGGGGGGGGGGGGGGGGGGGGGGGGGGGGGGGGGGGGGGGGGGGGGGGGGGGGGGGGGGGGGGGGGGGGGGGGGGGG'
p66
aF1.0
aa(lp67
S'Shortie 4'
p68
aS'GCUAAUGCAACGAAAGU'
p69
aF1.0
aa(lp70
S'Shape Test'
p71
aS'AAAAAGUGAGCAAGAGACAAAAAAAAGUCUCAAGACAGACAGAGACAAAAAGUCUCAGAGCAAAAGCUCAGUCGUCAGGCUCUCGAAAAAAAAAAAAAAAAAAA'
p72
aF1.0
aa(lp73
S'The Minitsry'
p74
aS'AGGAAAAGGACAAAAACACAAAAAGACGAAAGGAGGAAAAAAAUUCAGUCGGUGGGUCGCCU'
p75
aF1.0
aa(lp76
S'stickshift'
p77
aS'AAGCGAUCCCAAAAAGGAGAUCGCAA'
p78
aF1.0
aa(lp79
S'U'
p80
aS'AAAAAGAGACAGAGAGCAGAGCGCUGUGCAAAAGCACAGCGCCGCCCGUCUCAAAAA'
p81
aF1.0
aa(lp82
S'Still Life (Sunflower In A Vase)'
p83
aS'AAAGACCAGCUGGCUAAAUGCCAGAACGCGCAAGGCGCGAACGUACAAAAAGUACGAACCAGCAAGGCUGGAACUUUCAAAAAGAAGGAACGGCCGAAAAGGUCGGGCCCUGUGAUAUCGUAUAAUAUCGGGACAAAAAAGUCCCAGUGACAAAAAAAAAAAAGGAGCAAAAAAAAAAAAAAAAAAAAAAAAAAAAAAAAAAAAAAAAGGCUCAAAAAAAAAAAAAGUCGCGAGAGGAAAUUCUCAGAUAUUGUACGAUAUCACAGGGCAAGUGACAAAAAGUCACGGGGAGGAAAAAUCUCCAUUGAGGAAAAAUCUCAUACGAGUAAAAGACUUGAACGAGCAAAGGCUCGAGCGGGUAAAAAGCCCGAGGUCGAA'
p84
aF1.0
aa(lp85
S'Quasispecies 2-2 Loop Challenge'
p86
aS'AAAAAGAGCGGUCGAAAUCAAAAGAUUGAGGCCUGAGCAACAAAGGGGCUCUGAGCAACUAAACAAAAAGUUCUGAAGCUCGCUCAAAAAAAAAAAAAAAAAAAA'
p87
aF1.0
aa(lp88
S'Corner bulge training'
p89
aS'AGCGAUCCGAGCAAAGCUCGAAAAGAUCGCA'
p90
aF1.0
aa(lp91
S'Spiral'
p92
aS'AAAAAGAGCAGCGAUCAGACAGAGACAGAGCAGAGCAGCAGCAGCAGCAGCAGCAAAAAGCGCGCGCGCGCGCUCGCUCGUCUCGUCGAUCGCGCUCAAAAA'
p93
aF1.0
aa(lp94
S'InfoRNA bulge test'
p95
aS'AAAAAAAAAAAAAAAAAAAAAAAAAAAAAGGGCAAAAAAGGGCAAAAGACCAAAUACCAAGAGCAGAGCGAAAAGCAUCGGCAUCAAGGAUAGAAGGCUCGAAAAGCACCAAAAAAGCACCA'
p96
aF1.0
aa(lp97
S'Worm 1'
p98
aS'AAAAAAAGACUGAGAAUUGACGAGAAAUCGUAGGAUUACGCUGGC'
p99
aF0.8666666666666667
aa(lp100
S'just down to 1 bulge'
p101
aS'AAAAAGAGCAGAGACAAAAGUCUCAGACAAAAGUCAGCAUCAAAAGAGCAGACAAAAGUCAGACAAAAGUCAGCUCAAAAAAAAAAAAAAAAAAAA'
p102
aF1.0
aa(lp103
S'Iron Cross'
p104
aS'AGACAGACAAAGGCACGCAAAGCGAGACAAAAGUCAGCCAAAGGCACGCAAAAGCGAGACAAAGUCAGCCAAAGACACGCAAAAGCGAGACAAGGUCAGUCAAAGUCACGCAAAGCGGGUCAA'
p105
aF1.0
aa(lp106
S'loops and stems'
p107
aS'AAAAGGAGAUGCGAAUAGCGAAGAGCAAAGGGCAAAAAAAAAAAUCCAAAAAAAAAAAAGGGUUGAAGCUCAAAACGACAAAAAAAAAAGUCGAAAGCUCGAAGAUGAAAAAAAAUCAAAGCUAAAGGAAAAAACCGAAGCAUCUCAAAAA'
p108
aF1.0
aa(lp109
S'Water Strider'
p110
aS'AAAAGGGUGUAUGCGAGAGUUAAAGAGGUUGAAAGGAAUUCGGAGGGUGCGCAAAGCCCCCGGAAACAUAGGCGCUGGCUACAAAAAAAAAAAAAAAAAAAAA'
p111
aF0.941747572815534
aa(lp112
S'The Turtle(s) Move(s)'
p113
aS'AAAGGAAAACCAAAACGCUGGGUCAAAAAAAAAGACCCGGCGAAAACGAAUAAAUCUCGAAAAACGAAAAAGCGGAACGAGCAAAAAAAGCUCGAAAAGAGAAACCAAAAGCAUAAGGACGAAAUUAAAAAGGGAUCAAAAAAGGAUCCCGAAAUCUCAAAGAAAAAAACGAGGGAAAAGUCCAAAAAAGACAACGCAAAAAAAGGCGAAACGUUCAAAAAAGGACGAAACGACAAAAAGUCGAAUCCUCGAAAAAAAAGGGGAAACCAAAAUUAGAAAGGGAAAUACGAGCAAAAAAAAAAGUUCGGAAAAAAUC'
p114
aF0.9810126582278481
aa(lp115
S'Adenine'
p116
aS'AGAGCAGCGAUCAGCGAUCAGCGAUCAGCGAUCAGCGAUCAAAAGCGAUCAAAAAAGAUCGCAGAUCGCAGAGACAAAGCGAUGCAAAGCAUCGCGUCUCAGAUCGCAGCGCUGUGAUACAAAGUAUCACAAAAGCGCAGAUCGCAAAAGAUCGCAAAAGAUCGCAAAAGCUCU'
p117
aF1.0
aa(lp118
S'Tripod5'
p119
aS'AGGAGCCCAGAAAAAUUGGGUGCAAAAGGCACGCUCAA'
p120
aF1.0
aa(lp121
S'Shortie 6'
p122
aS'CCUAAGGGAGCGAAAGCAACGAAAGUAGGGAAACC'
p123
aF1.0
aa(lp124
S'Runner'
p125
aS'AAAAUGAGGUGAUGUAAAAGUUCAAUGUUCUGAUCUAAUGGUACGGGGCUAUGCUAAACCCACCUACCAUGUAAAAAGUAUUGAAAGACGAUGCCAAAGGGCUGUAAUCUCUAAAA'
p126
aF0.9827586206896551
aa(lp127
S'Recoil'
p128
aS'AAAAAGAGACAAGCAAGCAAGACAAGACAAGCAAGCAAAGCAGCAGUCAGUCAGCAGCAGUCUCAAAAAAAAAAAAAAAAAAAAA'
p129
aF1.0
aa(lp130
S'[CloudBeta] An Arm and a Leg 1.0'
p131
aS'AAAAAGACAGAGACAAAAGUACUCGUCAGCAAAAGCGACAGUCAAAAAAAAAAAAAAAAAAAA'
p132
aF1.0
aa(lp133
S'[CloudBeta] 5 Adjacent Stack Multi-Branch Loop'
p134
aS'UGGACGCGAUAAUUCGCGUCUCGAAAGAGGCCACAGGAAACUGUGUAGCUAAUGCUAGUCCAA'
p135
aF1.0
aa(lp136
S'Triple Y'
p137
aS'AAAAAAUGGGAGGGGUUGAAAGGCCCAAGAAAGUGUGUAACGACUCGCGAAAGCGCGUUUCAAAGGGGGGUUUCCAUGAAAAAAAAAAAAAAAAAAA'
p138
aF0.9175257731958762
aa(lp139
S'Misfolded Aptamer'
p140
aS'AGAGAAAAAAGCGACAAGGUCAGUGAAAACAAAAAAAAAGCAAAAGCUCU'
p141
aF1.0
aa(lp142
S'Flower power'
p143
aS'AAAAAGAGUGUACAAAGUACAGAGCGCCCAAAGGGCAAGAGGAAACCUCAAGAGCAAAGCUCGCUCACGACAAAGUCGGCUCAAAAAAAAAAAAAAAAAAAA'
p144
aF1.0
aa(lp145
S'Kudzu'
p146
aS'AAAAAGUUGGAUGAACCCCAUUGCAGCUAUGCGCAACGGGGCAUUAAGGAAUGUCAGCGGAAGUCCAAAGGCGUUAUAAACAAAAAAAAAAAAAAAAAAAA'
p147
aF0.9603960396039604
aa(lp148
S'"1,2,3and4bulges"'
p149
aS'AAAAAGGCUUACAACGAAACGCAACAAUGGACGAAAGAUUGGCCCGAAGACGUGCAGAAAACAAAUGGCACUAAUGUGAAUACGUAAAAAAAAAAAAAAAAAAAA'
p150
aF0.9619047619047619
aa(lp151
S'medallion'
p152
aS'ACUAUGAGCUGUUAAAAGACAGCGGACGAAAGUCACUUAAAAGAGUCCAGGAGAAAUCCUGGUGACAAAAACUUCCAGGCAAAGGCCUGGUCGCAAAAGCAAGGGAAAACCUACAAGGCUAAUGCUUUGGUGGCAAACCGACGAGGCGAAAGCUUCGACUGAAAUCAGACUCAAAAGGGGGUCGGCGAAAGCCGAUGAGCAAAGGUUACGGGACAAAAGUCCCGGCCCAAAAGCGAGGUAAAGACUGGGAUGCUAAUGCAUUCACCCGAAAAGGACGGGGAAAAAUCCUCGAAGAAAAGUAGGGGCUAAUACCGCGAGACAAAAGUCUCGACAUGGU'
p153
aF0.8931750741839762
aa(lp154
S'[RNA] Repetitious Sequences 8/10'
p155
aS'AGCAAAAAAGCAAAAAAGCAAAAAAGCAAAAAAGCAAAAAAGCAAAAAAGCAAAAAAGCAAAAAAGCAAAAAAGCAAAAA'
p156
aF1.0
aa(lp157
S'Documenting repetitious behavior'
p158
aS'AAAAAAAUCAAAAAAAAAGUAAAAAAAACGCAAAAAAAAUGCAAAAAAAAAGGAAAAAAAAAGCGAAAAAAAAGAAAAAAAAAACCAAAAAAAAAGCAAAAAAAAUGCAAAAAAAAAGCGAAAAAAAGUCAAAAAAAAUGCGAAAAAAAUGCAAAAAAAAAUCAAAAAAAAAGCGAAAAAAAAGAAAAAAAAAAUUAAAAAAAAAACAAAAAAAAAUCAAAAAAAAAGCGAAAAAAAGGAGAAAAAAAAGCUAAAAAAAAGCUAAAAAAAAGAAAAAAAAAAGCAAAAAAAAAGCUAAAAAAAAUCAAAAAAAAAGCAAAAAAAAAGCGAAAAAAAAGCAAAAAAAAACCAAAAAAAAAGCCAAAAAAAAGAAAAAAAAAGGCAAAAAAAAAGAAAAAAA'
p159
aF0.96
aa(lp160
S'7 multiloop'
p161
aS'GAGCUUAAAGAAAUUUAACGGUUGAAAGACCGGGGGAGAAAUCCCCUACUCUAAUGAGUAAGAGAUUCUUCUUUCUCGGUAAUCCGGGACUC'
p162
aF0.9782608695652174
aa(lp163
S'Kyurem 7'
p164
aS'AAAAUGUGACGGUAUUAAUUUAGCCAAAAGCCGCGACUAAAUGUCUUGACGAUAAAAUUCGAAAUCACGGCGGGCCGAUCGCUAAAAAAAAAAAAAAAAAAA'
p165
aF0.9803921568627451
aa(lp166
S'JF1'
p167
aS'CGCGGUGGGAUACGAGUAAGAGCCAAAAGCGAUCAAGAGACAAAGAGACAAGCGAUCAGCGCUGUGAUAUCCAAAAGGAUAUCACAGCGCAAGACAAAAGUCACGCGGUGUCAAAAGACACCGCGAACGAGCAAAAGCUCGAGAUCGCAGUCUCAGUCUCAGAUCGCAAAGCGCUGUCAAAAAGACAAGCGCAAGCGCUGUGAUAUCGUAUGAUAUCCAAAAGGAUAUCAUACGAUAAUCACAGCGCAAAGAGACAAAAAAGUCUCCGCGGUGUGCAAAAGCACACCGCGAAACGACAAAAGUCGAAGGCUCAAACUCGAGAGCAGACAGACAAAAGUCGUCGCUCAGCGCCGUGCAAAAGCACGAGCGCAAUCCACACACGCGAAA'
p168
aF1.0
aa(lp169
S'multilooping fun'
p170
aS'AAAGAAUUAUAAUUGGUAAUUUAGGGGUAAAAGGGU'
p171
aF0.8888888888888888
aa(lp172
S'Multiloop...'
p173
aS'GGACAGAACAGACGAAAGUCGGACGAAAGUCGGGCAAAGGCCGUGCAAAAGCAAAGCGAAAGCUGGCCGAAAGGCAGUUCGGAGACAAAAAAGUCUCGCCGAAAGGCGUCC'
p174
aF1.0
aa(lp175
S'hard Y'
p176
aS'AAAAUGAGCGGAUCGUUGUCUAAUGACAACGUACCUCACUAUUAUUAAUGUGAUAGUGAGCUCUAAAA'
p177
aF0.9705882352941176
aa(lp178
S'Mat - Elements & Sections'
p179
aS'AAAAUGACCGUUAGCUCGGAAGAGCACAGAAUAUCGGCCGAUAAAAGUCUGAAGGUGGGCGUGCGAAGCAUCCGUGAAUAAGGUCUAAAAAAAAAAAAAAAAAAA'
p180
aF0.9619047619047619
aa(lp181
S'Chicken feet'
p182
aS'AAAAAUCAGGUUUAAAGGAGCUAAGUAAUCCGCGGGAAGAUAAAACGAGAGAAUCAAGUUACUAAAA'
p183
aF0.8805970149253731
aa(lp184
S'Bug 18'
p185
aS'AUCGUCAGACGGAAGAGAACACAGAACGAAGUAUCACCAAUCGGUACAAAGAG'
p186
aF0.9622641509433962
aa(lp187
S'Fractal star x5'
p188
aS'AAAAUCUGCGGGAAAGAAUAAAGAUUCAGAGACAAAAGUCUAACGUCGAAAGGCGAUUCAGAAAACUGGUAUCUCGCGGUAAAUCGCGGUGUUUCUGCAAAAGCAGUACACUAAACAGUGCAUGUAUAAUUACAAUGGUGAAAACAUCUUACACCGCGUAAAAGGUGGAGCGAGCGCAAAAGCGCAACGACGAAAGUCGAUGGAAAAAAUUCCUUCCCCAAAAGGGGUAGUUCCACUGAAAACACUGAGCGGUAGCAAAAGCUAAACAGAUAAUUCUGAUUGAGAAAGCUCAUAUGGAAAAAUCCGGAGUUCGGUGGAAAACAGAUGGCAAGUGCAAAGGCGCAAAGGCAAAAGCCUGGCGAGAAAACUCGAUUAACGAAAGUUGUGGCCGUUUGGAAAA'
p189
aF1.0
aa(lp190
S'Crop circle 2'
p191
aS'UCAAGCCUAAUUCUAAAAGGAAAAAAAAAUUGAAAAAAAAAAAAAAAAAAAAAAAAAAAAAGGAAAAAAAAAAAAAAACCAAAAAAAAACGUAAAAAUGGAAAAGAAAAA'
p192
aF0.9636363636363636
aa(lp193
S'Branching Loop'
p194
aS'AGAAAGCAAAAAAAUGUUCUAAUGAGCCGGUUCAAAAAAA'
p195
aF0.95
aa(lp196
S'Bug 38'
p197
aS'AACGUUAGGAAGGUUAAAAGCAGCUAAAGAAAAGUA'
p198
aF0.9444444444444444
aa(lp199
S'Simple Single Bond'
p200
aS'AAAAAAGGAAAAAAAUGGGCGAAAAGCCUUAAAAAAGACGAAAAAAAAAAAAAAAAAAAAA'
p201
aF1.0
aa(lp202
S'Taraxacum officinale'
p203
aS'AAUUAAAAAAGCUACCACGAAAGAUGGACGACGAAAGAAUGUCCAGAAAGUAAGUUCGACGAAAGAUCGACGACAAAGGACCGAGCGCUGGGAUCGCUCUCUGAUCAAAGAUCAAGAGGGCUGAGAGAACAGCUGUUACAAGGGAUGGAAGUCAUCCCAGUAACAGCUGGCGCAAUGAUCAAAGAUUAUGCGCCUCUCUAAGAUCUCGGCGCGGCACAAAAGAUUCACAGGAAAGUUUUGGCGACUAAUGUUUGACGAUAAAAGCCCGACGGAAAAACACCG'
p204
aF0.8936170212765957
aa(lp205
S'Headless Bug on Windshield'
p206
aS'AGCGUCAAAAAAAUUCAAAGCGGAUAAAAAAAAAAAAAAAAAAAAAAAAACUCAUCAAAGAAAUUAAAGGCACAGAAAAGAUAAUUAAAAAAGGUGAAAAUAAAAAAAGCGUCAAAAAACUCACAUACAAAAAAAGAUAGAAAAGUCAAGCAGAAAAAAAAAAAAAAAAGAUCAAGCAAGGACCGUACUUAAGUAACUGA'
p207
aF0.95
aa(lp208
S'Pokeball'
p209
aS'AAAUUGAUGCAAAAUUGAGUAAGACAAGCAAGUAAACAAGCUGCCAAGCAAAGCAGGAUGAGGUAACGGGCAGUCCACGGAGUAUCGAGAAAAAAACCAACGGAAAAGCCACCAAGUUGAAGAGUAGAGCAAGCAUUCAACAUAUUCAGGUAGCGGCAUCAAUCAGAUAGGAGCUCGUUGGAAA'
p210
aF0.9565217391304348
aa(lp211
S'Variation of a crop circle'
p212
aS'AAAUCCUAAAGAUAAAGGUAAACCAAUGAAACGAAGUAACCAAAAGGAAAAAUUCAAAAAAUGCAAAAAAAACGCUAAAAAAAAAAAA'
p213
aF0.9545454545454546
aa(lp214
S'Loop next to a Multiloop'
p215
aS'AAUCGCUGUCGAAAAAGUUGCGAUCAAAAGAUCGCUGCGAUGCGAAAGCAUCGCUGAAAAAAAGGCGGCGAGA'
p216
aF0.9726027397260274
aa(lp217
S'Snowflake 4'
p218
aS'AGACAGAGUAUCGGGAUAAAAAUAGGAGCAAGACACCUUAAUAGGGAGUGACCGAAGGUCAAUGACGAAGUCAGCUCCCUUAAAAUAUGUCGAGAGACCAAAAGUGCGAGCGUCCGAACGACAAGGAAUAAGUCUGCUCGCCGAAAAGGUUUCAAGACAAACAAAAGGUGACUCGCCAAAGGCGAACGACGAAGGCGAGUCAGGGAAACUGUCUUAUGACAGCCAAAGGGCGAUCCGACGAAGUUGAACUACGAAGUCGGGUCGCAAAAAGGUUGUCUAGAGAGCCAAAGGCCGAGUGGAAAAAUUCCAACGCCAAAGGCGGCUCGGCAAAGGCUUCUCAAGCUCUGGAAAGUCUCUCGUCGAAAAAUCG'
p219
aF0.8594594594594595
aa(lp220
S'Mat - Cuboid'
p221
aS'GAAGAAAAAUUAAGCAAAAGCAAUCAAAAGAAAUAAACAAAAGUGAUUAAGGAAAAGAAGUAAGUAAACAAAAGUAUGUAAGCAGACAAAAGUGAGUAAGUAAGAAAGCAAAAGGAAUCAAGCAAGGAAGCAAAAACAAGCAAGCGAGCAAGCAAUCAAAAGUAAGCGAACAAUCAAGUAACCAAAAGUAAUCAGUCAAUCAAGGAAACAAAAAAGUAAUUGGGAAAGGAAGAAAGCGCAAGCAGGGAAGCAAGCAACCGCAAGAAACCAAGAAAUCAAGCGCAAUCAAGCAGGCAAUGGCAAUCAAACAAACAAACGUAAACAAACUGGCGGAAGCAAAUAGCCCAGAAAAGGGUAAAUAACGAAGGCGCAGAAGCGAC'
p222
aF0.7947368421052632
aa(lp223
S'Misfolded Aptamer 6'
p224
aS'AAAAAAGACGAAAAAGUGCAGGGAAUGACAAAAAAAAGUCUAAACAAAAGGCGCAAAAAAAGUCAAAAAAAAAAA'
p225
aF1.0
aa(lp226
S'Snowflake 3'
p227
aS'AGUUCAAAGGUAGACCGGAAAGCCGAACAACAGAGUAAUACGAAAGUACGAAGCAAAGGCGGCAAAGCUCCAAAAGGAUCGCGUAAAAACGAAAUUCAGGUCAAGGUAAAAGCCCGAAGAAAAAUCCGCAAAGCGGAAAAAUGAUCAGGCAAAAGCUAAAAUCGGCGCAAGUCCAAAAGCUAAGGAAAAAUCCGCAAAGCACCAAAGGGAUUAGUCGAAAGGCACGUCCAGAGGAAGGUAAAAAUUCGAAGGUAAUUCCGCAAAGCGCCGAAAGGAUGAUGCAAAAGUGAAGGCCAGACCAAGAGAAAAUUCCGUUGCGAAAGUAGCAAAGCUCCAAAAGGUGCGCGCGAAAGCGAAGCUCAGUUGAAGACAAAAGUCGGCAGCAAAAGUACU'
p228
aF0.7709923664122137
aa(lp229
S'Hard Y and a bit more'
p230
aS'AAAAAGUGAUGAAGAGAGAAAGCUCUACUUUAGAGAGCAGUAUUGAAAAAUAAUGAGACAAAAAAGUCUCUGGCGCUUUAAUCGCGAAAAAAAAAAAAAAAAAAAA'
p231
aF0.9716981132075472
aa(lp232
S'Mat - Lot 2-2 B'
p233
aS'GAUGCCAAGAGCAACCAAAAGAGAGAUCGAAAGGAAAAUCAAACGUAAGAAAAAUCGAGGUCAAGUAAGCAAUUUCAGGCAAAAGCAAGAUCAAGCAAAAGAAAAGUUGAAAGCAAAAUCAAGCGCAAGCGCAAGCAAGCAAAAGCGCAAGAGGAAUCAAAAGUUAGGGCAAAAACAAAACAAUUCCGAAUCAAAAUCAGGCGCAAGCAAGAAAGCGCAAGCAAAAGCAAGACUAAGGAAAAACAAAGGCCCAAAGAAAAUCAAGCGCAGGCGCAGGGAACUAC'
p234
aF0.8204225352112676
aa(lp235
S'Shapes and Energy'
p236
aS'AAAAAAGAGAUCAGAGUAAAAGGAAAGGCGGGAAACAGCCUAAACACUCAAGGAAAAAUCAUUAAAAAGUGCCAGGUCGCAAAAAAAAAAAAAAAAAAAAA'
p237
aF1.0
aa(lp238
S"Spiral of 5's"
p239
aS'AAAAAGAGACAAAGAGAUAAUGAGAUAAAAGAGGCAAAGAGAUAAGGAGAUAAGAGACAAAAGAGACAAAGAGAUGAAGAGACAAGAGACAAAGAGAUAAAGAGAUAAGAGACAAAGAGAUAAGAGACGAGAGACAAGAGACAAGAGACAGAGACGGCGCUGUGACAAAAAGUCACGGGGGAGCGCAAAAAGUCUCAAAAAGUCUCAAAAAGUCUCAAAAAGUCUCAAAAAGUCUCAAAAAAUCUCAAAAAGUCUCAAAAAAUCUCAAAAGAUCUCAAAAAGUCUCAAAAAGUCUCGAAAAAUCUCAAAAAGUCUCAAAAAGUCUCAAAAAAUCUCAAAAAAUCUCAAAAAGCCUCAAAAAAUCUCUAAAAAUCUCAAAAAGUCUCAAAAAUAAAAA'
p240
aF0.9949622166246851
aa(lp241
S'Campfire'
p242
aS'AAAAGGGAAAGAGAUUAGUAUAAGAGCAAAAGGUUUGCGAUCAAGGAUACGCGUGCCCCAUGAAAAGCAGACGCUAAUGCAUUCGCUUCGGACACAAGAAGUUAAUCCACGCUCGGAGACUAAUGUACUAUGAAGAGACCGCAUAGCGAUGUCGGGUCCGCGUUAUAGGGAAACUUGAGCUGGUAAGACAUGAAAUUAGCAUCGUCCCUCCC'
p243
aF0.9245283018867925
aa(lp244
S'Anemone'
p245
aS'AACGCGGACAAAGGUUCGCGGUAUAAAGGUAGUCGGAAAGAAAUUUCGUGCGAGAAAGCUCGCGGCAGUGAAAACUCGCUUGUCGAAAGGCGGUGGGCUAAUGCCUGGCGACCGAAAGGUCGCAAGUGGGAAACCACAAGAUGUGAAAGCGUCUAGAGUGAAAGCUCGCGGAUGGAAAUUUUCCUAAGGAAAGCUUUGCGACGCAAAACCGUCG'
p246
aF0.9065420560747663
aa(lp247
S'Fractal 3'
p248
aS'AAAAAGGACUUAAUGAAAAGUCGCAAAAGUUUAAUCACAACUAAUGGCCAAAAGGGGGGGUACAGAGAAAUCGGAAAAUCAGUCAGUAAUCGAAAGAGCAAAGGUAUAAAGUCCAAAAA'
p249
aF0.865546218487395
aa(lp250
S'Kyurem 5'
p251
aS'AAAAAGGAGUUUAGCUAAUAUUAAGAAAAGAGUCGGCGAAUGCUAAAGGCAGUCGAGCUAAAAUUCCAAUUCGUAACAUACUUCGAAAAAAAAAAAAAAAAAAA'
p252
aF0.9423076923076923
aa(lp253
S'Snowflake Necklace ( or v2.0 )'
p254
aS'ACUCUUUGCAAGAUCAGUGAUUUCAAAAAGGUGCAAAAAGCACCGAAAAGGAACAAAAAGUGCCAAAAAGGAAUCACGGUCAAAAAAACGGUCAUAUGAAAAAUCGCUAAAAAGGAUAAAAAAGCACCAAAAAGAACCAAAAAGGAAUUACAGAUAAAAAAUCAGAGAUGGAAAAAAUCAACAAAAAGCAUCAAAAAAGUUCAAAAAGAUACAAAAGGGAAUCUCAGACUAAAUGUCAGCGAUAGCAAAAAGCGGUGAAAAGUAUAAAAAAUGAUAUAAAAGGAUGAAAAAUAAAUCGCAGCCAAAAAGUCAGAGUUACCCAAAAGGACCAAAAAGGACCAAAAAGGACCAAAAAGGCACGAAAAGUGAACUCAGAUCUUGCAGAGAGU'
p255
aF0.8406169665809768
aa(lp256
S'Methaqualone C16H14N2O Structural Representation'
p257
aS'AAAAAAAGACCAGAGCAGGCGUACAAAAGUAAGACGUGCAAAAGCAAGGCAGAUGAAAGUCAGACAGACAAAAGUCACGCGAAAAAAGCGAGUCAGUCAGUCAGCCAGAAACAGCUCAGAUCUAAGCAGGCAAAGCAAAUCAAAAAAAAGUUAACCAGACAAAAGUCUCCAAAAGGGCGCAAAAGCGGCUAGCAAAGAGCAGAAGCGGACACAGACGCUGACAGAUGAAAGACAAAAGUCAAUCACUCAAAAGGGAGUCAAACAAAAGUUUGCGAGUGAAAACACACUCAGACGAAAAAAGCCCGCAAAAGUGACGCAAAAGCGCUUGGUCAGCUCAAUGGUCGGGUCAAAAAGG'
p258
aF0.952112676056338
aa(lp259
S"Cat's Toy 2"
p260
aS'AAAAGCGGUUUCGAAAUUCAAUAAAAAAAAAAAAAAAAAGUUACUAAACUAAAGGGGGUACUAAUGUUAAAAAAAGGAAAAAAGAGAGACCGCAAAA'
p261
aF0.9381443298969072
aa(lp262
S'Zigzag Semicircle'
p263
aS'AAAAGCUACCGAGUAAAAGUAAAGAGUAGCGAAA'
p264
aF0.9411764705882353
aa(lp265
S'Short String 4'
p266
aS'AAAAAAACAGUAAGCAACGAAGAGGAGCGAAAGCCCAAUAAAUAACAAUCAAAAGAAAGUAAAAAAGAGCAAACGUAAAAAAAAAAAAAAAAAAAAA'
p267
aF0.9381443298969072
aa(lp268
S'Gladius'
p269
aS'GGAAACAGGAAAAUAAAGAGGAGGAGAAGGACGGACGAAGACCAAAAGGUCAGCGGCAAGAGAUAUAAGAGCAAAGGUGCGGGAUCGCUGUCAGCGCUGUGAGAAAGAGGACAGCAAGAGCAAAGCUCAGCUAGCCUCUAUCUCUAAGCGCGAACAGCGGACCAGCACAAUGGCUCAAUAAUCAAUGGCCGCAGUCAAAGACAGGGACAGAAGACAUAAGAUCUGAAUUGCGGAAGCGAUGCACCGAUCACAGCUAACGAGCAGAUUGCGAUCAAAGGAUCGCUAAUCGAUUCGACAGCUAGGAUCGAGGCAUCGCACAAGCGGGCAUGGUCAAAAGUCACAAGUCCCUGUGCAAAAGCACAACGUCAGUCAAGCGACGCAACAAAAAAAAUAAGAAAAU'
p270
aF0.905
aa(lp271
S'Thunderbolt'
p272
aS'GUGAUACACAAAAAAAGGAGUAAGAACAAAAAGUAAUCUCUGCUGUCAAAAAAAAGCCAAAAAGGUGCAAAAAGCAUAAAAAAGGAAAGCAACCAAAAAAAGAUGAAAAAACUACAAGCAAGGAAAAAGGAAACAGAGGUAAAAGAGAAAAAGAAUCACAAAGAGAAACAAAAACCCAGAGAAAAUAAAAAAAGGAUAUUGAAGGACAACAAAAAAAUAAAUCUCAAAAAAAUCCUCAAAAAGUGGUCAAAGACCGCACCAAGAAAAAAAAAAAGGCAAGCAAAAAAAAAGAAGUUAAUGAGAGGCAAAAAGAAAAAAAAUGAAAAGCCUCUAACGACAAAGGCAGCGGUAAAAAAAGACCAAGUAUAAAAAGGAAAAAGCGGUGUAAAACA'
p273
aF0.9438775510204082
aa(lp274
S'Mutated chicken feet'
p275
aS'AAAAAAACGAACGACAAAAUAGUUAUACAAGGUUCGUCAGCAGCAAAGUAGGAAAUCAAAGAGAAAUACCACCGAAGCGGUUAUCCAAAGCGUAAAAAAA'
p276
aF0.84
aa(lp277
S'Chicken Tracks'
p278
aS'AAAAAAAAGAAGUACCAUUGAAAGAUGAAUCGCUAAUGUGAAAGAACUAAUGUUCGUACUUUAUGCCGCCCAAGGGGCAACGACCAAGUCGGAGAGCUAUGCUCGGCUAAAAAAAA'
p279
aF1.0
aa(lp280
S'Looking Back Again'
p281
aS'AGCAAAACCGCUAAAAAGCGAUCAAAGAUCGCAAGCGAAGACCGCAAGACAAAAUAGCGAGUGACAAAGGGCAAAAGCUCAAAAGUCGCAAGUCAAGCCAAGAGCGAAAAAAAGAGGCAAAAGUCUCAAAAAAGUCGCGUCGAGGCAAAGUCUCCGGGGAAACCCCGCGUUCCCCUAGAGGAAGAAGGUGAAGAGUAAAAGCUCGCCUCGACCAAUUGGCCCAAAAGGGAAGGGACGAAAGACUCGCUCGUAGAUAGAUCAAAAAGGCAAUGCAAAAAAAAGAGCGAAAAGUACGAAUAGACGCAGCCCUAGCAAAAAGGCAUAGGUAAAAGCCUGUAAAAACAAAAUGACGAGCAAAGCUCGAAUUUGUAAAAGGUCAUCUGGAAGCU'
p282
aF0.9048843187660668
aa(lp283
S'Multilooping 6'
p284
aS'AAACUGGCCGCUUUCUAACGGGCGGAAUGUAAUCCUCCUGACUUUUAACUAAUGUUAAUCAGCUAAUGCUGGCCCUCCGUGA'
p285
aF0.926829268292683
aa(lp286
S'Cesspool'
p287
aS'GAAUAAGGAAAUAUCCUAACAGAGGGAAACCCAACAAGGAGAGUAAAAUAAAAAAGUAGAAGAAAGCAACAAAAAGAAAACGAAAACAGGAAAAAGAAAACAAAGCAAUCGAGACAAACUAGGCAUGAAGAUAAUAAUAAAAGAAAAUAAGAAAAUAACAAAACCAAAAGUAUAACAGGCAAGAAGAAAACAAUGGAAGAAAGGGAAAGUCAAUAACAAACAGAGGGCAAAAGAACAGAAGAAAACAACAAAAGGAAAACAACAAGGAACAAACAAUAAAAAAAAGCAAGAGAUAAAAAGUAAGUAAAAAACUAAGAAGGAAACAACAGAAGAAAACAACAAAAUAAAAAUAAGAGUG'
p288
aF0.7569832402234636
aa(lp289
S'Hoglafractal'
p290
aS'AAGAAGGAAACGCAAAAGAGGCAAAAAAGCCUCGUAUUGAGCAAAGAGGUAAAUUCUCGCUCUGAAAGACAAAAGUCGCGAGACAAAUAGCAAAGAGGGAAAAACUUCGCUACGCAAGACGAAAAGUUGCGAUAUCUAAUGGGUACAAUAAAAGACAACACAAAAAAGUGGUCCCAGGUAAAUCCGGAACAAAAGUCAGAGAUGAAAAGCAGCAAAAAAGCGAUGUUAAAUACGAAAAAAGCAGCGGUCAAAAAAGACAAAAAAGUCCCAAAAGCGAAACACGGUCGAAGACCGUGAAAAAAAGACCGCAAAAAAAUCUCAAAAACUUGAAAAGUCAAAUGAACGAAGAGCAGUGCAAAAUCAAAGGCCGAAAAGGGGCGGCAAAGCCGCCAGCUAGGUC'
p291
aF0.89
aa(lp292
S'Bullseye'
p293
aS'AAACUCGAGAAAAUUUCAAGAUCAAGGAUCAAGGUCGAUGCUCGGGAAAAAAAAGGCCGACAAAGUCGAAGAGGGAAGCUCAAGUGCUAUGCGCGCCGAAAAAAUGUCGUGCGAAGAAUAAGUGCUAUGUACAAGAUCAAAGGUCGAUUAAAAAAUCGUCGCCUAUGGCGAGGUGGUAUCUACAAGAGAGAACCUCCCGUAA'
p294
aF0.8811881188118812
aa(lp295
S'Shooting Star'
p296
aS'ACGAUCCAGCGCGAUGCAAGGAGAAGCAUACAGGGACCAAAGGAACUAUGUGGCAUAACCAGGCAUCGCAGAUACGAGAAGAUGGAACAGGGAGAAAAAGUGCAGUAAAAAACGCAACUUUUAUCCACGUUACCAAACCGAGGGAAACAGCGUAUGGGGGAUAAAGAGCCUACUUGCAAGGCAGACAGAAAACGGGCAUGAGCUGAGAACAGAUUAAAGCGUUGUAAAACAAUGCACCGUGAAAGCCGGGAUCACGGUGCAAGGCACCGUAAGAGUAAAGCUCUGUACGCCCAAGGAAACGAGGAAUAGCUAGGAGAGUGCAGGAAAAUACGCGAUCUCAUUACAACACAACGGGCAGAUCGUA'
p297
aF0.804945054945055
aa(lp298
S'Teslagon'
p299
aS'AAAAAAGCAAAAAAAGGAGGAAAAAAAGGAGCGAAAAAAAAAAAAAACCUAAAAAUUUUUAAAAAAAAAAAAAAAAGAUCAAAAAAACCAGUAAAAAAAGCUAAAAAAAAAAAAAUGCAAAAAAAACAGAAAAAAAAACAGGAAAAAAAAAAAAAAACUAAAAAAUUACCAAAAAAAAAAAAAAAGGAGUAAAAAAGUCAGCAAAAAAAGCAAAAAAAAAAAAAAAGUAAAAAAAGGGGCAAAAAAUGCGGCAAAAAAAAAAAAAAAGCAAAAAAUUAACAAAAAAAAAAAAAAAGUAGCUAAAAAAGGAACAAAAAAUACAAAAAAAAAAAAUCAAAAAAAAAAAAAAAGCAGCUAAAAAGGUGUCGAAAAAAGUAAAAAA'
p300
aF0.9057591623036649
aa.