(lp0
(lp1
S'Simple Hairpin'
p2
aS'AUAGCAAAAAAGCUAU'
p3
aF1.0
aa(lp4
S'Arabidopsis Thaliana 6 RNA - Difficulty Level 0'
p5
aS'AUAGAACAAAUUAGAAAAAAAAAAACUAUAGAAUACUAUACAUAUAUAUAUAUAUAUCAAGAUAUAAAAAAGUAUCCAUAUAUAGUAUAUAUAUGUAGUGUAUUCUAAAGUUCUAU'
p6
aF1.0
aa(lp7
S'Prion Pseudoknot - Difficulty Level 0'
p8
aS'GAUAGCAGCGCGAAAGCGCGCUAGUCAAAAAAAAAA'
p9
aF1.0
aa(lp10
S'Human Integrated Adenovirus - Difficulty Level 0'
p11
aS'GCUAAAGUUCCUGUUUUGAGCAAAAAAAAAAAUCUGCGUGACGACUACGACUGAAGCAAAAGACAUUUAGAAACAAAAAAAGGUUUCUGAAUCAAAGUCGCUUUAUAACACUCCAAAUACACGAAAGCUUGCGCAAAAAGUGAGCCGGCGAAAAAAAAAAGUCUCCAUAUAGAAAAUAGUUUAAAUAGCAAA'
p12
aF0.9895833333333334
aa(lp13
S'The Gammaretrovirus Signal - Difficulty Level 0'
p14
aS'GUGUGGGUAGAACAAAGGUUCUAAACUCUAAAAUGUGCAAGACAGAUUGUAGCGAAAGCUACGAAAGAUCGUCGCACUAGCCAUAUCGAAAGAUAUGGUAA'
p15
aF1.0
aa(lp16
S'Saccharomyces Cerevisiae - Difficulty Level 0'
p17
aS'GCCAUUGUGACGAUAAAAAGUUGACUUAGCCGAAAACACAUAGGAAUUAGUGUAAAAAUCAUUACAAUGGCAAAAGAGAUAUAAAGGCAAAAAAAGGCCUGCCAAAAAAAAAAAAGGGCAAAUUAUACUAAAAAUGUAUAAUAUCUCGAAGUCUAUUGGGUCGCUAAAAAAUGCGAAGGGAUUAAAAAUGUCCCAAAAAAGCCCAAAAAAAGGGUUCGAUGGAAAAAGCGGCGAAAGCGCUAAAAAAUGCGCCGGUUUAAAAAAAGAAUCGAAAAUCGACUAAAAAUGUCGAUCGUCGCAAAGGAGGGUUAAGCGCUAAAAAAUGCGCCGAGAGGAAAAAAUUUUCGAAAUUAGAUAAAAAAGGUCUAAACCCUCAAAA'
p18
aF0.9894459102902374
aa(lp19
S'Fractal 2'
p20
aS'AAAAAGGGAUACCGAUUUAGAGUAGUUAGCAUAAAAAAAAAGGUGCAAGUGCGAAAAAAAAAGCACAAGCGGAAAAAAAAAAUCGCGUACUACUCUAAUAUAUAUACUAGUUGGCGCAAAAAAAAAAGCGCAAGGCCAAAAAAAAAAGGCCAACGGGAAAAAAAAAGCCUGAUGCUAGUAUAUUAGGUAGUAUAGCAAGUCGGAAAAAAAAACGGCAUUAGCAAAAAAAAAAGCUGCAUCAUAAAAAAAAAGGUGAAAGCUAUACUACAAAGGUAUCCUAAAAA'
p21
aF1.0
aa(lp22
S'G-C Placement'
p23
aS'GCGCAAAGCGCG'
p24
aF1.0
aa(lp25
S'The Sun'
p26
aS'GCCAGUGAGACGAUGUCUAACACGGCAAAAGCACUCAUAGUAUCUAGAAGGGGGUGAACGAAGCGAUCGAAACGAUAACGCUCGGAACGAAGAGAUACAAGGUAAAACUCUCGAAAAGCCGUGAUACUAUGUAUAACACGCGAAACACAGAGGGUCAAAGACUAACUAGUGGAGAGAAGAGAUUCAAAGAAUAACUAUCUAAACUCAAAGAUACAAGGUAUAACUCGAGGAACGCGUAGUUGGUAUUUAUAACCCGUA'
p27
aF0.9224806201550387
aa(lp28
S'Frog Foot'
p29
aS'AAAAAAAAAACCUCGAAAGAGGGUGCUAAUGUACGCUCAAUGAGC'
p30
aF1.0
aa(lp31
S'InfoRNA test 16'
p32
aS'AUAGAUUCAGAAAUCGAAAGAUUUACUCGUAUCUAU'
p33
aF1.0
aa(lp34
S'Mat - Martian 2'
p35
aS'GCGCGAAAGCGCAAAGAGAUACAAGAGAUAUAAAAAAAGUAUCUCGUAUCUCAAAGAGAUAUCAAAAAAGAGAUACAGAGAUAUAAAAAAAGUAUCUCGUAUCUCAAAGUGGGAUAGUAUACAAAAAAAGUAUACUAGUCCCACAAAAAAGAUAUCUCAAAGUGGGAUAGUAUACAAAAAAAGUAUACUUAAUCCCACAAAGCGCGAAAGCGC'
p36
aF1.0
aa(lp37
S'square'
p38
aS'AUAGAACCGAUACCGAUAUCCGAUACAAAGUAUCGAAAAGAUAUCGAAAAGUAUCGAAAAGUUCUAU'
p39
aF1.0
aa(lp40
S'Six legd turtle 2'
p41
aS'AAAAAGCAAAGCGAAAGCAAACCGAAAGGAAACCGAAAGGAAACCGAAAGGAAACCGAAAGGAAACCGAAAGGAAAGCAAAAAAAAAAAAAAAAAAAA'
p42
aF1.0
aa(lp43
S'Small and Easy 6'
p44
aS'UGCAGUAAAUUCAAUUUAAAAAAAUCGGUA'
p45
aF0.8666666666666667
aa(lp46
S'Fractile'
p47
aS'AAAAAAAAAAAAGCGAAAGCAAAGCAAAGCGAAAGCAAGCAAAGCGAAAGCAAAGCAAGCGAAAGCAAAGCAAGCGAAAGCAAAAAAAAAAAAAAAAAAAAAAAA'
p48
aF1.0
aa(lp49
S'Six legd Turtle'
p50
aS'AAAAGGUAAAAAGAAAACGAAAAACGAAAGUAAAAACAAAAGUAAAACGAAAGAGAAAGGGAAAAUGAAAAGAAAAAGUAAAAAUAAAAAAAAAAAAAAAAAAAA'
p51
aF0.9238095238095239
aa(lp52
S'snoRNA SNORD64'
p53
aS'AUAGACAAAAAGACAAAAGACAAAGAUAUAAAAAAAAAAAAAAUAUCAAAAGUCAAGUCAAGUCUAU'
p54
aF1.0
aa(lp55
S'Chalk Outline'
p56
aS'AAAAAGCGCUGAUAGGAAACUAGUCGGAUAGACGAAAGUCAUCAGUUAGCGAAAGCAUAGCAGCUACGAAAGUAUGCGCGCGAAAAAAAAAAAAAAAAAAAAAA'
p57
aF1.0
aa(lp58
S'InfoRNA bulge test 9'
p59
aS'AUAGAACAGAGAGAGAGAUAUGAAAAUAUCUCCCCGUUCUAU'
p60
aF1.0
aa(lp61
S'Tilted Russian Cross'
p62
aS'AAAAAGUGGGGACGAAAGUCCGGGCAGAGCGAAAGCUCGGUAGGAAAUUACCAGCGCUAAUGCGCGUCCGCGCGAAAGCGCCCACAAAAAAAAAAAAAAAAAAAA'
p63
aF1.0
aa(lp64
S'This is ACTUALLY Small And Easy 6'
p65
aS'GAGAGAGAGAGAGAGAGAGAGAGAGAGAGAGAGAGAGAGAGAGAGAGAGAGAGAGAGAGAGAGAGAGAGAGAGAGAGAGAGAGAGAGAGAGAGAGAGAGAGAGAGAGAGAGAGAGAGAGAGAGAGAGAGAGAGAGAGAGAGAGAGAGAGAGAGAGAGAGAGAGAGAGAGAGAGAGAGAGAGAGAGAGAGAGAGAGAGAGAGAGAGAGAGAGAGAGAGAGAGAGAGAGAGAGAGAGAGAGAGAGAGAGAGAGAGAGAGAGAGAGAGAGAGAGAGAGAGAGAGAGAGAGAGAGAGAGAGAGAGAGAGAGAGAGAGAGAGAGAGAGAGAGAGAGAGAGAGAGAGAGAGAGAGAGAGAGAGAGAGAGAGAGAGAGAGAGAGAGAGAGAGAGAGAGAGAGAGAGA'
p66
aF1.0
aa(lp67
S'Shortie 4'
p68
aS'ACGAAAGUAGCGAAAGC'
p69
aF1.0
aa(lp70
S'Shape Test'
p71
aS'AAAAAGUUAGAAAGAUAUAAAAAAAAGUAUCAAGACAGACAGAUAUAAAAAAUAUCAGCUCGAAAGGGCAGUCGUCAAUCUAUCAAAAAAAAAAAAAAAAAAAA'
p72
aF1.0
aa(lp73
S'The Minitsry'
p74
aS'GUGUAAUUGGGUAAAUAGUAAAAGAGGAAAAAGUCUAAAAAAUGGCGCCUAACUUCCUUCGC'
p75
aF1.0
aa(lp76
S'stickshift'
p77
aS'AAGAGAUCCUAAAAAAGAGAUCUCAA'
p78
aF1.0
aa(lp79
S'U'
p80
aS'AAAAAGAUACAGAGAGCAGAGAGAUAUAUGAAAAUAUAUCUCCGCCCGUAUCAAAAA'
p81
aF1.0
aa(lp82
S'Still Life (Sunflower In A Vase)'
p83
aS'AAGUCACAACUUUAUAAAAUGGAGGCGGGAGAAGUUAACAACUAGCAAAAAGCUAGGAUCCGUAAACGGGAAGAAGAGAAAAACUUAGAACGGGUUAAAUACUAGAGAGCGAUUGUAUAAUAGUAUAACGAGACAAAAAAGUCUCCGUCCUAAAAAAAAAAAAAGCGCAAAAAAAAAAAAAAAAAAAAAAAAAAAAAAAAAAAAAAAAAGCGCAAAAAAAAAAAAGAGGACCUCGCGAAAGCGAGAGUUAUACUAUUAUACGAUCGUUUGAGAUAUGAAAAAUAUCAACCACAAAAAGUGUGGGGUCUGUAAAAGUCUGGUAUGGUUAAAAAAACCAGACUAGCGAAAACCAAAGUGCUGAAAAGCGGCAAGGGGAAA'
p84
aF0.9682539682539683
aa(lp85
S'Quasispecies 2-2 Loop Challenge'
p86
aS'AACAGUCGGUCUCUUCAGCGAAAGCUGUUGAGAUGCCUAGCAAAGAGGGGCUAUAAUUUAAUACGAAAAGUAGGAUUUUAUCCGAGAAAAAAAAAAAAAAAAAAA'
p87
aF1.0
aa(lp88
S'Corner bulge training'
p89
aS'GGAUAUCUAUCCAAAGGAUGAAAUGAUAUCA'
p90
aF1.0
aa(lp91
S'Spiral'
p92
aS'AAAAAGCGCAGAUAUCAGACAGAUACAGCGCAGCGCAGCAGCAGCAGCAGCAGCAAAAAGCGCGCGCGCGCGCGCGCGCGUAUCGUCGGUGUCGCGCAAAAA'
p93
aF1.0
aa(lp94
S'InfoRNA bulge test'
p95
aS'AAAAAAAAAAAAAAAAAAAAAAAAAAAAAGGACGAAAAAUUUCAAAAAGGGAAGGCGCGGCUGGAGUUUGAAAACAAAGGUUAAGAAAGAGCAAGUAACUAGAAAGCAGAAAAAAAGGGUUG'
p96
aF0.9508196721311475
aa(lp97
S'Worm 1'
p98
aS'AAAAAAACGCUGGUAAAAUUACAAAAAAUGAUUAUGCGAACUGAG'
p99
aF0.9111111111111111
aa(lp100
S'just down to 1 bulge'
p101
aS'AAAAAGCGCAUAGACGAAAGUCUAAGACGAAAGUCAGCAGCAAAAGCGCAUAUGAAAAUAAGACGAAAGUCAGCGCAAAAAAAAAAAAAAAAAAAA'
p102
aF1.0
aa(lp103
S'Iron Cross'
p104
aS'UUACACAUAAGGACAUUGGAACAGGUUAGAAAUGAAGUCAAAGGCACGCAAAGGCGGUUGAAGAGAUGCCGAAUGCAUGCGAAAGCGUUGCGAAGUAUGCAGAAAUGGUGGAAAUCAAGUGUA'
p105
aF0.9349593495934959
aa(lp106
S'loops and stems'
p107
aS'AAAAAGAGACAUAAAGCGCAAAGCGCAAACCGCAAAAAAAAAGAUAUAAAAAAAAAAAAAUAUCAAAGCGGAAAAGCGUAAAAAAAAAAGCGCAAAGCGCAAAGACAAAAAAAAGUCAAAGUGCAAGCAAAAAGGCAAAGUGUUUCAAAAA'
p108
aF1.0
aa(lp109
S'Water Strider'
p110
aS'AAAAAGCGACGAUGGGCAGUUAGAGAACAGGGAAAUUAGCUGUGGGGGAUAGGAAACUAGGUGAAAACUAGGCCAAGGCACCCAAAAAAAAAAAAAAAAAAAA'
p111
aF0.912621359223301
aa(lp112
S'The Turtle(s) Move(s)'
p113
aS'AAAUGGAAACGAAACAAGAUAUAGAAAAAAAAACUAUAUCUUAAAAGCGCAAAAAGCGCAAAAACGCGAAAGCGGAACCAGUGAAAAAAGCUGGAAAACCGAAACUGAAAGGAAAAACUCAAAUGGGGAAAAGUAACAAAAAAAGUUACUAAAACUCGAAAGGGAAAAACGAUAUAAAAGACAAAAAAAGUCAACGCGAAAAAAAGCGAAACUAUUAAAAAAGGUAGAAACUACAAAAAGUAGAAAUAUCGAAAAAAAAAGCGAAAGCAAAAGGCAAAAGCAAAAUAUAUACAAAAAAAAAGGUGUAGAAAAACGG'
p114
aF1.0
aa(lp115
S'Adenine'
p116
aS'AUAGCUGAUAUCAGAUAUCAGAUAUCAGAUAUCAGAUCCCAAAAGAUAUCUAAAAUGAUAUCAGGGAUCGGUUAUAAAGAGAUACAAAGUAUCUCAUAACAGAUAUCAGUGGAUAUAUGCAAAGCAUAUAAAAUCCACAGAUAUCAAAAGAUAUCAAAAGAUAUCUAACGCUAU'
p117
aF1.0
aa(lp118
S'Tripod5'
p119
aS'AUUCGGUAGUAAAAGGCUAACGUGAAAAACGUCCGAUA'
p120
aF1.0
aa(lp121
S'Shortie 6'
p122
aS'GCGAAAGCAGCGAAAGCAGCGAAAGCAGCGAAAGC'
p123
aF1.0
aa(lp124
S'Runner'
p125
aS'AAAAUGGGCGGCGCAAAAAGCGCAAGGCGCAGCGCAAAGACAAGGUUGCAAAGCAAAAGCCGACAGCAAAGCUUAAGUCAGUCAAUGAUAAAGACGAAAGUCGGUCUGCCCUAAAA'
p126
aF1.0
aa(lp127
S'Recoil'
p128
aS'AAAAAGAUAUAAGCAAGCAAGACAAGACAAGCAAGCAAAGCAGCAGUCAGUCAGCAGCAAUAUCAAAAAAAAAAAAAAAAAAAAA'
p129
aF1.0
aa(lp130
S'[CloudBeta] An Arm and a Leg 1.0'
p131
aS'AAAAAGACAGCGAUGAAAAUAUGCGACAGUAAAGACGUCAGUCGAAAAAAAAAAAAAAAAAAA'
p132
aF1.0
aa(lp133
S'[CloudBeta] 5 Adjacent Stack Multi-Branch Loop'
p134
aS'GUUAUGCGCGAAAGCGCCGCAUGAAAAUGUGCACGUUAAUAUGUGACUCGAAAGGGUGUAGCA'
p135
aF1.0
aa(lp136
S'Triple Y'
p137
aS'AAAAGCGAGUCAAUCUCAAAGGAGAUCUGAAAGAAGGUUGAGGUGGCCUGCACAGACCAGUAAAGACUGGACGUUCGAAAAAAAAAAAAAAAAAAAA'
p138
aF0.9381443298969072
aa(lp139
S'Misfolded Aptamer'
p140
aS'ACGUUAACAUAUGUCUUCUUUGUUGAACAAUUAAGCUUCGUUAAAUAUGU'
p141
aF0.92
aa(lp142
S'Flower power'
p143
aS'AAAACGUGAGUGCAAGCCAACACUCGCUGGAAUAGCACGCGAAAGUCCGUUGCACAAAGUGUGAAUACUCGUAUCAGAUCGCGAAAAAAAAAAAAAAAAAAA'
p144
aF0.9117647058823529
aa(lp145
S'Kudzu'
p146
aS'AAAAUGGCUGAUGGGCGAAAGAGCACCACGGGGCAUCGCGAUAUCAAAACAUAUCACCUCAAAGACAAAAGUACUCCUGCUUAAAAAAAAAAAAAAAAAAA'
p147
aF0.9207920792079208
aa(lp148
S'"1,2,3and4bulges"'
p149
aS'AAAAGCGGUAGCUCUAAAGAGAAAUAGCGUACGAAAGUAAGCAUCAAAUACUCGGAUGAAAAAAAUUUGGGGAAACCCUCCUAGCUAAAAAAAAAAAAAAAAAAA'
p150
aF0.9428571428571428
aa(lp151
S'medallion'
p152
aS'GGGAGGACGAUAUGAAAAUAUUGAAGUAAAAGCGACGCGAAAGCGAGGCGCUGAAAAGCGCUACUCGAAAGAGACGAUAUGAAAAUAUCGACGCGAAAGCGGCCCGAAAGGGAGGUAAUAAAGGUUAUUGGGCGAAAGCUUAUUUUUGAAAAGAAGUUCCUGAAAAUAUGGCAAAGGCUAUGCAAUGAAAAUUGCAGAGCGAUAGCCACGGUUUGGAAAGACCGACACGAAAGUGACGGGAAACCGGCGAGCUGAAAAGUUCGACGGGAAACCGAUGAUUUUAAGAAAUUAGCGCGAAAGCGGCGCGAAAGCGACGGUAUAAAAAUACUGGCCUCCU'
p153
aF0.9821958456973294
aa(lp154
S'[RNA] Repetitious Sequences 8/10'
p155
aS'AGUAAAAAAGCAAAAAAGCAAAAAAGCAAAAAAGCAAAAAAGCAAAAAAGCAAAAAAGCAAAAAAGCAAAAAAGCAAAAA'
p156
aF1.0
aa(lp157
S'Documenting repetitious behavior'
p158
aS'AAAAAAGGUGAAAAAAAAUUAAAAAAAAAGGGAAAAAAAAGCUAAAAAAAAGUAAAAAAAAAUUAAAAAAAAGGUGAAAAAAACGGGAAAAAAAAAAAAAAAAAAACUAAAAAAAAGUCGAAAAAAAAGUAAAAAAAAGGAAAAAAAAAAAUAAAAAAAAGGGAAAAAAAAAGCAAAAAAAAUUUAAAAAAAAAGUAAAAAAAAGGCAAAAAAAAAAGAAAAAAAAACCAAAAAAAAGUCGAAAAAAAGCUAAAAAAAACCCAAAAAAAAGACUAAAAAAAAGCAAAAAAAAAGGAAAAAAAAUUCGAAAAAAAAUCAAAAAAAAAGCAAAAAAAAAGGGAAAAAAAGACAAAAAAAAUACAAAAAAAAACCGAAAAAAAAGAGAAAAAAAAGCAAAAAA'
p159
aF0.9125
aa(lp160
S'7 multiloop'
p161
aS'GCGGCAAAAGAAAUUUUGGACGAGAAAUCGUCGUAGCGAAAGCUACGGCAUUAAUAUGCCCACGGGAAACUGUGUCUAUGAAAGUAGACCGC'
p162
aF1.0
aa(lp163
S'Kyurem 7'
p164
aS'AAAAAGACAGGUUGAAAAGACAGGGAAAACCGCUAAAAAAAUUUAUGGCUUUAAAAAGUGGAAAGCGGCGGGUCCCAAUCUAGAAAAAAAAAAAAAAAAAAA'
p165
aF0.9803921568627451
aa(lp166
S'JF1'
p167
aS'UAUAGAAAUAGACUAGGAAGAUAUAAAAGAUAUCGAUAUAUAAAGAGACCAGAUAUAAAUAGAUAUAUAGACGAAAGUCUAUAUAUCUAUAAGACGAAAGUCACGAGAUAUUGAAAAAUAUCUCGAACUAGUGAAAACUAGAUAUAUCAGUCUCGAUAUAAGAUAUCAAAGAGAUAUCAAAAAGAUAGUCUCGAGUGGGAUAGUAUAAUAGUAUAAUCGAAAGAUUAUACUAUUAUAGCUAUCCCACAAAGAUAUAAAAAAGUAUCCUAGAAUAUCUAAUGAUAUUCUAGAAACUAUGAAAAUAGAAAUAUCAAUCUAGAGGGCAGGCAGACGAAAGUCGUCGCCCAGAGACAUAUGAAAAUAUGAUCUCACUAUAUUCAUAUAAAA'
p168
aF1.0
aa(lp169
S'multilooping fun'
p170
aS'GUUCAGAUCAAAAGGUUAAAGAUAGGGGAAAUGUAU'
p171
aF0.8333333333333334
aa(lp172
S'Multiloop...'
p173
aS'UCCGGGAGCGGACGAAAGUCAGACGAAAGUCACACGAAAGUGAGACGAAAGUCGGACGAAAGUCAGGCGAAAGUCAGCUCAACUUUGAAAAAAAAGUGACGAAAGUCCGGA'
p174
aF1.0
aa(lp175
S'hard Y'
p176
aS'AAAAAGUGUACAAAUAUCUGGAAAUAGAUAUAUCUGUAGGCGGGAAAAGUCUCGUUUACUCAGGAAAA'
p177
aF0.9705882352941176
aa(lp178
S'Mat - Elements & Sections'
p179
aS'AAAAUCUGCGCGAACGUAGCGAAGCCCAGUGGCGCCAUUACCGAAAGGUUAAUGUGCGACGGGUGAAAUGGCUAAGGAAGAGCAGUAAAAAAAAAAAAAAAAAAA'
p180
aF0.9619047619047619
aa(lp181
S'Chicken feet'
p182
aS'AAAAGACAGCAGAAAAGCUGGAAACCUAACCGAACCAACACCAAAGAGUCAAAGAAAGGGACUAAAA'
p183
aF0.8805970149253731
aa(lp184
S'Bug 18'
p185
aS'UCUAGAGUAAGCGAGCGAGGCAGAAACAUAUCAGUAGUAAAAAAUUGAAGAUU'
p186
aF0.8490566037735849
aa(lp187
S'Fractal star x5'
p188
aS'AAAAACGAGAUAUAAUAGCGAAAGCUAAACGAUGAAAAUUGAACUAUGAAAAUAGAACUAUGAAAAUAGAAAUAUCUCGAAAAACGAGAUAUAAUAGCGAAAGCUAAACUAUGAAAAUAGAACUAUGAAAAUAGAACGAUGAAAAUUGAAAUAUCUCGGAAAACGAGAUAUAAUAGCGAAAGCUAAACUCUGAAAAGGGAACUAUGAAAAUAGAACUAUGAAAAUAGAAAUAUCUCGAAAAACGAGAUAUAAUAGCGAAAGCUAAAUUCUGAAAAGAGAACUAUGAAAAUAGAACUAUGAAAAUAGAAAUAUCUCGAAAAACGAGAUAUAAUAGCGAAAGCUAAACUAUGAAAAUAGAACUAUGAAAAUAGAACGAUGAAAAUUGAAAUAUCUCGAAAAA'
p189
aF1.0
aa(lp190
S'Crop circle 2'
p191
aS'GGAAAGUGACACGAAAAAGGCAAAAAAAAGUAAAAAAAAAAAAAAAAAAAAAAAAAAAAAGGUGAAAAAAAAAAAAAUGUAAAAAAAAUUGAAAAAAAAUAAAAGCAUAA'
p192
aF0.9454545454545454
aa(lp193
S'Branching Loop'
p194
aS'UCCGGUGUAAAAAAAUUGCGAAAGCGAAUUCGGUAAAAAA'
p195
aF0.95
aa(lp196
S'Bug 38'
p197
aS'ACCAGGAGCAUGGUUAAAAUUCAUCGGCUAAAGGGG'
p198
aF0.9444444444444444
aa(lp199
S'Simple Single Bond'
p200
aS'AAAAAAGAAAAAAAAUAACGUAAAUCGUUUAAAAAAAGCAAAAAAAAAAAAAAAAAAAAAA'
p201
aF1.0
aa(lp202
S'Taraxacum officinale'
p203
aS'UGGUGAAAACCCGAUCGGAAAGUCUGAACCGGGAAACACGGACUACUAAUGAUAGACCGUGAAAAGGGAUCUACGAAAGUUGGUGUGGAUAUAUUUCUAGAAACAUAAGGUGUAUUCUAGAAGAUAGAAGUCGACGUUCAGGAGAGACGAAGUCUCUCAGAAUGUCGACACACAGAUAUCAAGGAUAUCGUGUCUAUCGAAAAUGUAUCCACACAUCGAAAGAGGGACAGCGAAAGACUGAUGAGGAAACAGCGGCCGCAAAGGAUGGACGACGAAAGCUCG'
p204
aF0.9716312056737588
aa(lp205
S'Headless Bug on Windshield'
p206
aS'AUGCACAAAAAGAGAGGAAGCAAUGAAAAAAAAAAAAAAAAAAAAAAAAACGUAGAAAAGUCAUUAAGGUGUAGGAUAAGUCAAAUAAAAAAAGCGAAAGCAAAAACAGUGGAAAAAAAAACAAUCGUAAAAUAGACCAAGAGAAUUAAUCGUAUAUCUCUAUCUCGUAGGUGUACAGACGUGCUCGGGUAAGUAAGAAG'
p207
aF0.875
aa(lp208
S'Pokeball'
p209
aS'AAAAAGAGCCAAACGUAUACGAGAAAAUAGUGCAGGAAACUGUUGGAGCAAAGCACAGAAGGUCAGUGGUGAUUCGGUCGCGGUUCUUGAAAAAAAGAGAUAGAAAAGAAGGAUAGGAAAAGGAGAAAGAGACAGACCCAUAAAAUGAGGGUGCAUCAUGGUCUGGUCUCUAUCCUAUCUCAAA'
p210
aF0.9130434782608695
aa(lp211
S'Variation of a crop circle'
p212
aS'AAAUUCUAAGAGUAUGAAUAAGCGAGAAUUAUGAAAUGAGUAAAAUGUAAAAUUCUAAAAAUUUAAAAAAAAUGGUAAAAAAAAAAAA'
p213
aF0.9090909090909091
aa(lp214
S'Loop next to a Multiloop'
p215
aS'AAGAGAUAUUUAAAGAGCGGCCAUCGAAAGAUGGCGGAGUUAUGAAAAUAACUCAGAAAAAAUGAUAUCUCAA'
p216
aF1.0
aa(lp217
S'Snowflake 4'
p218
aS'CUCUAAAUGAGCGUUCACGAAAGUCUAGGUUGAGAAGCGAAAGCCUAGGGAGCAAAGCUCAAGUAUAAGGUACUCUAGGCGAAAGCUUGUCUAGAUACCCGAAAAGUGAUCCGAUGAAGUCGAAGCAUUAUGUGCGAUCACGGAAAGGGUAUCAACCUACUGGAAACAUAAUGCGAUAAACUAAAACUUUUAUGAAGGUUGACCGAAAGGAUAUGAAGUUGGCCGAAAGGCGAUUCGACAAACGGGAACAAAAAAUUUGAAUUGUAGAAAAAGUAGUAAGAAAUUCGAAAGAGUAGGGCGCAAGGCGUAACGAUAAUGUUGCCUACCCGAAAGGAUGUCAUCAUAGGCGAAAGCGAGCGGCGCAAAGUGC'
p219
aF0.7945945945945946
aa(lp220
S'Mat - Cuboid'
p221
aS'GUAACAAAAGUAAUUAAAAGUUAGCAAAAGAAGUGUGAAAAAGGAAGUAAGGAAAAGCAAUGAGUUAGGAAAACUAAGUAAGUAAGUAAAAGUAGAUAAGUAAUCUAGCAAAACCUUUCAUGCGUUCUGUCAAAAGCUUUCUCUGUAUCUUACUUUCAAAUGAGUGCUUUCUUUUUAGCUUUCAGAAGUAGCCGUUCUUUGUUUCUUGCAAAAAUGUUUGAUUCAUUGAUUGGAAACGAAUGGGUGGUUUAUUGCUCUCCAUUGUUUGAGUGAUAGAUUGCGAACGAUACGUGAAUUGCACAUGAGAACAAGGAGGCCCAAGCGAACAAGGUCAUGCAAGCAAUGUAAGCAAUCGCUAGGAGUACAUGCGAGAGCGUAUU'
p222
aF0.7052631578947368
aa(lp223
S'Misfolded Aptamer 6'
p224
aS'AAAAAAGACAAAAAAGCGCAACAAAAUACUAAAAAAUGUAGAAGGGAAAAGCGCGAAAAAAGUCAAAAAAAAAAA'
p225
aF1.0
aa(lp226
S'Snowflake 3'
p227
aS'UUAUCGAAAGGAGCAAGCGAAAGCUAAUUGCAGUGCAAGACAAAGGUUCUUACUGAAAGGUGGAAAGCGACGAAAGUAAAGCGCGAAAGGAAAGCGCAGGGCAAGACAAAGGUCCGUACUGAAAAGCUCAAAGAGCUGAAAGGAACGCGCUAAUGUGAAGCCCUGCCCAAGACGAAAGUCGGUACCGAAACGCCCGAAGGGCCGAAAGGAAUCCGCGAAAGCGAAGGGCUUCUCAAGACGAAAGUCCGUACCCAAAUGAGCUAUGCUCCGAAAGGAACGCGCGAAAGCGAAGAGGUGUGGAAGACGAAAGUUCGUUUCGAAAGGCGUAAAGCGCCGAAAGGUACGCGCGAAAGUGAAGCACAGCGGAAGACGAAAGUCAUCACUGAAAGUGCA'
p228
aF0.8778625954198473
aa(lp229
S'Hard Y and a bit more'
p230
aS'AAAAGGAUAUAGAUGUAGAAAGCUAUAACUGCGCGAUCAUGCACGAAAGUGCUAGAUCUAAAAAGGGAUCAGGGUAGCGCAUAUCAAAAAAAAAAAAAAAAAAAAA'
p231
aF0.9716981132075472
aa(lp232
S'Mat - Lot 2-2 B'
p233
aS'AAUGGCAAGGGUAGGUAAAAGGGUAAAUGAAAAUAAAAUGUAUCACGGACAAAAUCGGGCCCAGACAACUUUACUCUUUCAGAAUCGAGAGAGGUCAAUAACGAAAGUGACAUCAAGAGCAACGGAUAAAGCUGUAAAGUGAAAACGGUUUAGAGUUGGAAAUUAUGAGCGAAAGUAAAAUAUUAAGAAAACAAAAUAGUCCUAAUGCAGGUAUGGGCUUUCAAAAGCUUGAGCGAUCAAAAUAAAAGGAGAGUUCAAAAUUUAGCGAUUGCGUAGGGAACUGU'
p234
aF0.7676056338028169
aa(lp235
S'Shapes and Energy'
p236
aS'AAAAAAGAUUGAAGGUCAAAAGGAGGCGCACGAAAGAGCGCAAACGACCGAGGAAAAAUCAGCGAAAGCUGCCGUCAAGCAAAAAAAAAAAAAAAAAAAAA'
p237
aF1.0
aa(lp238
S"Spiral of 5's"
p239
aS'GAAAAUAUCCAAUGAUAUAAUGAUAUAAAAGAUAUAAAGAUAGUAAGAUAUAAGAUCUAAAAGAUAUGAAGAAAUAAGGAUAUAAGAUAUUAAGAUAUAAAGGAAUAAGAUAUUAAGAUACAUGAUAUAAGAUACAGGAUACAAGAUGUGCCUAUAGCAGCGGAGUAAAAAACUCUCGGGGGACGCGAAAAUUCUCAAAAAGCAUCAAAAAGUAUCAAAAAGUAUCAAAAACUAUCUAAAAAUAUCAAAAUAUAUCAAAAAAUUCCAAAAGAUAUCAAAAAAUAUCAAAAAAUAUCAAAAAAUUUCAAAAAAUAUCAAAAAAGAUCAAAAAAUAUCAAAAUCUAUCAAAAAAUAUCAAAAAAUAUCUAAAAAUAUCUAAAAGGAUGAAAAAUAAAAA'
p240
aF0.9949622166246851
aa(lp241
S'Campfire'
p242
aS'AAAAGCGAAGAGCGUAAGCGAAGUGGUUAAAUGCUAAAGGUCUAUGAUACUGUCGCUCUAAAAAUAUAAGAGAUGAAAGUAUUCUGGGCUGACAUGAGAAACAAAGGCUCUGGCGCAGACGACAGUACGACGCAAGCACGGCUUAAGAGCUUUCUCAGAGACGUAACGCAAAGGCGUAGGUUCCAGUCACGUAUCAUGGCACCAAGGUUUGC'
p243
aF0.8490566037735849
aa(lp244
S'Anemone'
p245
aS'AAAUGUAGCGAAAGCUAUGGUGGGUAAUUCCUAUAUUGUUAAUGUCGUCUGGCGGAAACGCUCGUGAGCAAAGGCUAAUAUACUUAAAGCAGGAAAUUGAAAACUUUGGCACCGAAAGGUGUCACUAGUAAAGACUAGCCGAUUAAAGGGUCGGGAAAGAAAGAUAUCUAUAUCGAAAGAUAUAAAUCGAAAGUGAUUGUUUGCGAAAGCGAAC'
p246
aF0.9392523364485982
aa(lp247
S'Fractal 3'
p248
aS'AAAAGGCGCAAGCAUCGAAAGAGCGAAAGCAGCUAGGGAUCGAAAGAGCAAAUGCACCCAGACAUCGAAAGAGCUAAUGUAGUCGGACAGCGAAAGUGCGAAAGCAGUCAGCGCAAAAA'
p249
aF1.0
aa(lp250
S'Kyurem 5'
p251
aS'AAAAGGGGUUGUAGCGAAAAUUGGCAAAACCGUUAUCAAACCAAAAAGGGGGAUGGUCGAAAAAGAUAGCGGGUCUCACCCCCCAAAAAAAAAAAAAAAAAAAA'
p252
aF0.9615384615384616
aa(lp253
S'Snowflake Necklace ( or v2.0 )'
p254
aS'GUUGUUUUCUAGAUCAGAUAUAACAAAAACUAUCAAAAAGAAUUAAAAAAAAUCAAAAAGACCCAAAAAGGAACAUUAGAUAAAAAGUCAUAUCCAACAAAAAGUAUCUAAAUGAGGCAAAAAGUGUCAAAAAGAAGUAAAAAGAAGGGUAAGUGAAAAGCGAAGAUAUAGCAAAAAGCGUUAAAAAAGAGCAAAAAGCGACAAAAAGAUGCAAAAAGUAAUAUCAGACAAAAAGACGUAGACAGGAAAAACCAUCAAAAAGAGCCAAAAAGGAUCAAAAAGAAGCAAAAAGCAGUCUAAGGCAAAAAGUCAGCUUUAGAAAAAAUCGUCAAAAAGAAUCAAAAAAAAGCUAAAUGCGCCAAAAAGGAAUAGCAGAUCUAGAGGGCGAC'
p255
aF0.8431876606683805
aa(lp256
S'Methaqualone C16H14N2O Structural Representation'
p257
aS'AGGGGAAGCGUACUGGAUACGUGGGAAACCAAGACACACUAAUGCGGUACAUGGGAAACCAAGAAAAGCGAAAGCUAUAGAAAAAAACUAAUUCGGUAUGUCAGUAAGGAACACCGCAGAGAAAGUCACAGAAAGCAAAGCAAAAAGAACCCACAUACGCGAAAGUGUAUCAAAAGGUUGGAAAAAAAUAAGGAAACCUGAGAAGCAGAUGGACACUCUUCGAGAUAAAAGACGAAAGUCAAUUAAGCGAAAGCUACGAAUACGAAAGUACGAGGGGCGAAAGCCAGUCAGUGGACGAAAGUCUGGGAAAACAAAGCGAAAGCUCAUAAUCAAAGCAAACCAGAACGCGGGGAAG'
p258
aF0.895774647887324
aa(lp259
S"Cat's Toy 2"
p260
aS'AAAAGGGCUAUCCAAAGAUAGAAAAAAAAAAAAAAAAAAAUGGACAAAGCGAAAGGAAAGUUAACACAAAAAAAGGAAAAAAUUCGAUGGCCUAAAA'
p261
aF0.9587628865979382
aa(lp262
S'Zigzag Semicircle'
p263
aS'AAAUAAUUAUGGAGAAAAUCACAGAGGGUUUAAA'
p264
aF0.9411764705882353
aa(lp265
S'Short String 4'
p266
aS'AAAAAUGGAGGGAGCUAUUACGAUAGGCAAAGGCAGAGAAAAUCGUCAGCAAAGGUAAACGGAAAAGUGCGACUCUCAAAAAAAAAAAAAAAAAAAA'
p267
aF0.9587628865979382
aa(lp268
S'Gladius'
p269
aS'GGAAACAAAUACCGAAAAGACAAAAUAAUGGCCGAAGAAGCGCGAAAGCGCGCUGUUUAGGUACAAUAAAGUCUCAGCGCAAUAGGCGGAUCAUUGGGCAUAAUAAGCGCACCGCAAAAUCAAAGAUUAGUGUAGCGCUAGUUGGAUCCAAGAGUCCGCCAAAAGCGUAAGUGCUUAAGAGUGAACGAACAGAUUCAACGACAGAAGCGGUAAAGUUAUGAGCCGAAGAUCACAUGGUAUACACGAUAUAUAGAGAGAAAGUAGAUUGAUUUCGAAAGAAAUCAUAUCACCUUUACUUCUAGAUAUCAGGUAUAUCGGGAGAUCACUUGUUUUGAACUUGCAAGCUUCACCACGAAAGUGGAAAGUCUGUCUAGAAGCGGAAUAAAUCAAUUAACGAAAG'
p270
aF0.8975
aa(lp271
S'Thunderbolt'
p272
aS'GUAAGAUAGUAAAAAAAAGUUAGUCAGGGGGGAAAAAUAGAUAUAGAAAAAAAAAUUGAAAAAAGGGUAAAAAACUUGAAAAAUAUAAGCUCACAAAAAACGUGAAUAAAACUUUAAGCAAACGAAAAGAAAACAGAAGAAAAUAAGUAAAAGGGUCUAAAAUUGAACCAAAAUCUUAGCGCAAGGAAAAAAAUGCUAAAAAUUGGGUAGAAAAGAACAAAGCGUAAAAAAAAUUUCGGGGUUAUAAUAAAGUUCUAUAAAGGUAAAAAAAAAAAGCAUUCACAAAAAAAGUUCCGAGAGCGGUGAAAAAAAGAAAAAAAUGAAAAUCACCGAAAGGCAAAUUUGUGUCAAAAAAAACGGAUAAAAUAAAAAGAAAAAAAAUGUAUCAGACA'
p273
aF0.8418367346938775
aa(lp274
S'Mutated chicken feet'
p275
aS'AAAAAAAGCAUCAGCAAAGGGGCAAAGCAAGGGACAGGAGCACGAAAGGCCCAAAGAAAACCGCGACAGGAUUAAAGAAGGCAAGUGAAUAGCAAAAAAA'
p276
aF0.88
aa(lp277
S'Chicken Tracks'
p278
aS'AAAAAAAGUAGAUAGACCCGAAAGGGUGAGCGCGAAAGCGCGCGUGCAAAGGCACCUAUCUAAAGGAGGCCGAAGGCCAUGCGCAAAGCGCUCCCGCAAAGCGGUCCAAAGAAAAA'
p279
aF1.0
aa(lp280
S'Looking Back Again'
p281
aS'UCCAUUUCUAGAAAAAACAUCUGAAAUAGAUGAUCUAAAGACGGCAAGACAAGGUCGCCAUAUACGAAGCGCGAAAGCGCAAAAGUACAAAGUCAAGGAUACCGUGAGAAAAGGAUAGGAAACUAUCAAAAAAUUCGAUCUGAUACAAAGUAUCGGUAGAAGUUAUCCAGAUCCUGAGUUUUAGUUCGAGAAUGACUAAUGCUAGGCGGUUCAUUCGGGGACGAAAGUCAAGAGCUCAAAAGAUCGCUCAUAUACACGACAAAAAGGAGUUAUAAAAAAAAGCGCAAAAAGCGCAUAUAAACUCAAUUGACGCAAAAAAGUCGAUAUGAAAAUAUCGAACUCUUAAAGAGAUAGCAAAGCUAUAACAGACAAAAGCGCGUCCAGAAGGA'
p282
aF0.8534704370179949
aa(lp283
S'Multilooping 6'
p284
aS'AUGUUAUGAGUAGUCUAAUGACUAGCUAAUAAUUUAGCCUCCUCGAUACGAAAGUGUGUACAAGUAAUUGUAAGGAUAACUA'
p285
aF0.926829268292683
aa(lp286
S'Cesspool'
p287
aS'GAUGAAGAAAACAACGAUUAAGUUUCAAAAAGCAUGAAUCGUGAAGAGCGAAAGAGUAGGCUAAAGGUACGAAAUGAAAACUAUACCAAAUUUAAGAAAACAACGCUCUACACUUGUAAAGAAGAAAGUCCAUAGAAUGAAAGGCGGGAUAGAAAGAGCAAAAUUAAAAAAAAUAACAGCUAGAACUAAUGAACAUAUUAGAAUCAAAGCUUACAAACGGUGAUAUUAAAAAGAUAUAUGUGAAAGAUGAAAAUGAAAACAAUAUGCCAGCGUGAGUAAAAGAGAGCUCGUUUUAAAAAUAACUAUAUUUGCUAUCUUUGAAAGAAGAGCUGAAAGGUUCAAGAUUAAAAGAACUAUC'
p288
aF0.659217877094972
aa(lp289
S'Hoglafractal'
p290
aS'AAGAAAAAGAUAUAAAAGAUAUAAAAAAGUAUCAUAUCGGGGAAAGCGAGAAAAUCGCUACCCGCAAGAGGAAAUUCGCCAGAUAAAGUGCAAAGCGGAAAAAACCGUGCGCAGCAAGACUAAAUGUCUCUCUGAAGAAAUGGGAGUAUAAAAGUGAAGAUUAAAAUAUCUCUUGAGCAAAAAGCUACGUGAAAACGGGAUUUAAAAAGCCGCCAAAAAGCCGCGAAAAAAGGGCCGAAAGGAGAUAUCAAAAAUGACAAAAAGGUCUCAAAAGGAAAACGAUAUCAAGGAUAUCGGAAAAAAGAUAUCAAAAAAAGAUCAAAAGGGACAAAAAUCGAGUUGACAAAGAGUGGAGCAAACACGAAAGUUGGAAACGGUCUACGAAGUGGGAAGGUCGAGC'
p291
aF0.8975
aa(lp292
S'Bullseye'
p293
aS'AAGUCUGCGGAUGCUGCAUGUCCAAGGGGCUAGGAGAAGUUUCGUCAAAAAAAUUUUACGCAAAGCGGAUCGAGUAUUUCUUUUCGGGAACCGCGGGUAAAAAAUCUACCGAAAAGAGGAGAGGCAAGGUUCAACCGGGAAGCGGCGGUAAAAAAAUUUUAUCUAUAGUAAAGAUUUAUGAUCAAGUAAGAAGUAAGUGAAA'
p294
aF0.8514851485148515
aa(lp295
S'Shooting Star'
p296
aS'UAUAUCGCGCUAGCGCCAAGGAGUAUCAAGCAGACACCGAAAGAGGUACGCUGGAAGACCAAGGCGCUAACAUAUGUAAGUCUCUAAUAGAAGCAGUCACCGUAGUGAAAGCCACGAGGUCGAGUUACUAUUGAGCUCAGAACGAAACAGGACCUGGUUGAGCGAAGCUUGACUGCUAAAGGUAGUGAAAAAUACAGCUCCGUGCAGCGCAGGGUAAAUAUAUAGUAUCUAUAUGACGCGGAAAUCGCGACCCGACUUACUAUGUAGGUCACUAGCGAAGCUAGACGCACGAAAGAAAAUGGUUUUGGAUAAAGGCACCGCACUGAAAGUCGCGAGGAUACAAAGUCUGUUCGUGUAGAUAUGA'
p297
aF0.8214285714285714
aa(lp298
S'Teslagon'
p299
aS'AAAAAAGUUAAAGAGGUGGAGAAAAAAGCAUCGGGGGGGGGGGGGAAGGAAAAAAUUAAAUAUAUCUUUUUUAUAUUGGCGAAAGAAUCACUACAAAUAUCAGGGGGGGGGGGGAGGGGAAAAAAGGAUUAAAAAAAUCGUAGGGGGGGGGGGGGAAGGAAAAAAUUACCGUUUUCUUUUUUUAAGGAGGAAAAGAAAAAGUAAAAAAAUCGGGGGGGGGGGGGAAGGAAAAGAGGCGUUAAAAAAAGUAACUGGGGGGGCGGGGAUGUAAAGAAUUUACAGAUUUGUUAUUUAGGCUAAAGAAGACGAAGUAAUAAAGGGAAAAAAACAAAAGGGGGGGGGGGGGGGAAUCAUCAAAAGUAGUAGUAAAAAAAGCAAAAAA'
p300
aF0.7591623036649214
aa.