(lp0
(lp1
S'Simple Hairpin'
p2
aS'GAUACAAAAAAGUAUC'
p3
aF1.0
aa(lp4
S'Arabidopsis Thaliana 6 RNA - Difficulty Level 0'
p5
aS'GAGAUGCAAAAGAGAAAAAAAAAAACUCCAGGGUACGGUAGAGUAUAGGAUAUGAUCAAAGAUACAAAAAAGUAUCAGAUCAUAAUCCUAUACUCUAAAGUACCCUGAAGCAUCUC'
p6
aF1.0
aa(lp7
S'Prion Pseudoknot - Difficulty Level 0'
p8
aS'GAGAGCAGAUCAAAAGAUCGCUACUCAAAAAAAAAA'
p9
aF1.0
aa(lp10
S'Human Integrated Adenovirus - Difficulty Level 0'
p11
aS'AGGAUAUGCACGCCUGGAGGGUAAAAAAAAAGGGGGCCAGUCCGACAGAGCCGUGGUUAAAGUCAUGGGAUCUGUAAAAAAUCAGAUCUCAUAAAAGACGCCGCAAAAGGCCGGGAAAGCUGGAAAGAGGGUGAAAAAAACCUUCCCCCAAAAAAAAAAAUUCCUUCUGGUGAAAAUGCGUAAAAUCCUAAA'
p12
aF1.0
aa(lp13
S'The Gammaretrovirus Signal - Difficulty Level 0'
p14
aS'AACUGAGUACGACAAAAGUCGUAAGCUGGAAAAAGAUCAAUAGCGUGGCGGGCUAAUGCCCGGAAACCACCUAGGUCGUGAGAUGGCAAAAGCCAUCUCUA'
p15
aF1.0
aa(lp16
S'Saccharomyces Cerevisiae - Difficulty Level 0'
p17
aS'CAGAUGGCCUGUAAAAAAUCAGGUCUUAAAAAAAAAAAAAUAGUAAUGAUACGAAAAAAGUAUCCCGUCUGAAAAGACGUGGACAGUAUGAAAAAUUGCUAGGACUAAAAAAAAACCUCAAAAGAGAGAAAAAAGCUAUCCCACGUCGAAAGCCUCGCAACCUAAAAAAAAGUGGGGACGAUGAAAAAAAUCGUCAAAAGAGAAUAAAAAUUUCUCGUGGGGUAAAGGUGGAGUAAGUGGGAAAAAAAUUUGUGCCAUGAAAAAAGUGGCAAAAAAGAGCUAAAAUUGCUUAGCUCCACAAAGGGCCUUUAAGAUCGAAAAAAAGAUCGGCGAGUAAAAAUUUCGCCAAAAGAUACUAAAAAUGUAUCAGAGGUCAAAA'
p18
aF0.978891820580475
aa(lp19
S'Fractal 2'
p20
aS'AAAAAGAGAUGGCAAAAGAGUAUAGCAAGCGCUAAAAAAAAUGCGCAAGAGCAAAAAAAAAAGCUCAAGAUCAAAAAAAAAAGAUCAAGCUAUACUCUAAAGAGAUGGGACAAGAGAAAAAAAAAAAUCUCAAGAGCUAAAAAAAAUGCUCAAGAUCAAAAAAAAAAGAUCAAGUCCCAUCUCAAAGAGAUGGGAGAAGAGCAAAAAAAAAAGCUCAAGAGCAAAAAAAAAAGCUCAAGAUCAAAAAAAAAAGAUCAACUCCCAUCUCAAAGCCAUCUCAAAAA'
p21
aF1.0
aa(lp22
S'G-C Placement'
p23
aS'GAUCAAAGAUCG'
p24
aF1.0
aa(lp25
S'The Sun'
p26
aS'GAGAGAACUAUAAGGCAUUAUCCAUCAAAGAGACACCGACUAUCUCGAAGUCCUCAAAGGGACCGGUGCAAGGUACAACGGCUCGAAGUGAGCUAUGGGAACCAUUAAGCCACGAAGCAAGACGUGCAAGGUACAAGUCUGCGAAGGGAGAGAUGCUAUGUAUAACUCCCUGAAGACAGGUAUGCUAUGUACAAAUCCUCGAACAGAGAGCAAUAAAAUUGGACUCCUGGAAGUGAGGUAGGCGAAGUCUCAAUCCGC'
p27
aF0.8914728682170543
aa(lp28
S'Frog Foot'
p29
aS'AAAAAAAAACCGUGUAAUCACGCCGCAAAGGUGGGGUCUAUGACC'
p30
aF1.0
aa(lp31
S'InfoRNA test 16'
p32
aS'GACGGCACCGAGUACAAAGGUACUAUGAGAGCCGUC'
p33
aF1.0
aa(lp34
S'Mat - Martian 2'
p35
aS'GAUCAAAAGAUCAAAGAGAUGCAAGAGAUGCAAAAAAAGCAUCUCGCAUCUCAAAGAAGGCGCAAAAAAGAGAUGCAGAGAUGCAAAAAAAGCAUCUCGCAUCUCAAAGAGAUGUGAUAUGCAAAAAAAGCAUAUCAACAUCUCAAAAAAGCGCCUUCAAAGAAGGCUAUAGGACCAAAAAAGUCCUAUAAAGCCUUCAAAAUACAAAAGUAU'
p36
aF1.0
aa(lp37
S'square'
p38
aS'GAGAUGCCGGGGCCGGGGGCCGGGGCAAAGCCCCGAAAAGCCCCCGAAAAGCCCCGAAAAGCAUCUC'
p39
aF1.0
aa(lp40
S'Six legd turtle 2'
p41
aS'AAAAUGGAAACCAAAAAGAACGGAAAAUCAAAGAAAACUAAAAAUAAAAGUAAAUCAAAAGAAAAGCAAAAGUAAACGAAAAAAAAAAAAAAAAAAAA'
p42
aF0.9591836734693877
aa(lp43
S'Small and Easy 6'
p44
aS'GAGUGAAAAGCAAAGAAAAAAAAAGUUAUC'
p45
aF0.8666666666666667
aa(lp46
S'Fractile'
p47
aS'AAAAAAAAAAAAACAAAAUCAAAGAAAGGGUAAUAUUAGCAAAGAAAAGUCGAAGGAAUUAAAAAAAAAAAAUGCAAAACCUAAAAAAAAAAAAAAAAAAAAAAA'
p48
aF0.9619047619047619
aa(lp49
S'Six legd Turtle'
p50
aS'AAAAUGGAAAUGGAAAACCUAAAUCAAAAGGAAAUCUGAAAGGUAAACUAAAGAGGAAAGUAAAAGCAAAAUCCAAUGAAAAACCUAAAAAAAAAAAAAAAAAAA'
p51
aF0.9428571428571428
aa(lp52
S'snoRNA SNORD64'
p53
aS'GACGGCAAAAAGAGAAAAGAGAAAGAUACAAAAAAAAAAAAAGUAUCGAAACUCAACUCAAGCCGUC'
p54
aF1.0
aa(lp55
S'Chalk Outline'
p56
aS'AAAAUGAACAGCAGCGAAAGUAUGCGGUGUACGGAAACGUCACGGUGGGGGAAACCACUAUAGCUUGGAAACGAUGCGUUCUAAAAAAAAAAAAAAAAAAAAAA'
p57
aF1.0
aa(lp58
S'InfoRNA bulge test 9'
p59
aS'GUGAUGCAGCGAGACUGACGCGAAAGCGUCGGCCCGCAUCAC'
p60
aF1.0
aa(lp61
S'Tilted Russian Cross'
p62
aS'AAAAAGAGAUUGCUAAUGCGAGCCGAAGACUAAUGUCUGCGACUAAUGCUGCAGGUCUAAUGACCUAGUGCCCAAAGGGCUCCGUGAAAAAAAAAAAAAAAAAAA'
p63
aF0.9809523809523809
aa(lp64
S'This is ACTUALLY Small And Easy 6'
p65
aS'AGAGGAGGAGGAGGAGGAGGAGGAGGAGGAGGAGGAGGAGGAGGAGGAGGAGGAGGAGGAGGAGGAGGAGGAGGAGGAGGAGGAGGAGGAGGAGGAGGAGGAGGAGGAGGAGGAGGAGGAGGAGGAGGAGGAGGAGGAGGAGGAGGAGGAGGAGGAGGAGGAGGAGGAGGAGGAGGAGGAGGAGGAGGAGGAGGAGGAGGAGGAGGAGGAGGAGGAGGAGGAGGAGGAGGAGGAGGAGGAGGAGGAGGAGGAGGAGGAGGAGGAGGAGGAGGAGGAGGAGGAGGAGGAGGAGGAGGAGGAGGAGGAGGAGGAGGAGGAGGAGGAGGAGGAGGAGGAGGAGGAGGAGGAGGAGGAGGAGGAGGAGGAGGAGGAGGAGGAGGAGGAGGAGGAGGAGGAGAGA'
p66
aF1.0
aa(lp67
S'Shortie 4'
p68
aS'UCGAAAGGAGCGAAAGU'
p69
aF1.0
aa(lp70
S'Shape Test'
p71
aS'AAAAAGAGGUCAAUAUACUAAAAAAUGUGUGAAGAGAGAGUGAUACAAAAAGUAUCUGAUCGAAAGAUCACUCCUCAAGAUCGCAAAAAAAAAAAAAAAAAAAA'
p72
aF1.0
aa(lp73
S'The Minitsry'
p74
aS'GAGAAAAACAUAAAAAGGGUAAAUAAGAAAAAUAGAAAAAAAACUGGCUUUCCCGGUGGCUC'
p75
aF1.0
aa(lp76
S'stickshift'
p77
aS'AAGAGAUCCCAAAAAGGAGAUCUCAA'
p78
aF1.0
aa(lp79
S'U'
p80
aS'AAAAAGAUACAGAGAGCAGAGAGAUGGGCAAAAGCCCAUCUCCGCCCGUAUCAAAAA'
p81
aF1.0
aa(lp82
S'Still Life (Sunflower In A Vase)'
p83
aS'AAAGAUCAACGUAGAAAAACUACGGAGAUGCAAAGCAUCAAGAUACGAAAAGUAUCAAGUUACAAAGUAACAACAUACAAAAAGUAUGGAAAUACAAAAAGUGUUAGAGAUGGGUGAUGAUAUGAUAUGCGAGCAAAAAGGCUCGAGAUACUAAAAAAAAAAAAGGUCCCCCCCCCCCCCCCCCCCCCCCCCCCCCCCCCCCCCCAAAAGACCAAAAAAAAAAAAUGUAUUGGAGCGAAAGCUCCACAUAUCAUAUCAUUACCCAUUUCAAUAGACAAAAAGUCUAAAAAGACAAAAAGUCUUAAGAUGGUAAAUUUAUCAAUAGGCAAAAGGCCUAAAUAUACGAAAGUAUAGAUGUACAAAAAGUACAAGAUCAAA'
p84
aF1.0
aa(lp85
S'Quasispecies 2-2 Loop Challenge'
p86
aS'AAAAAGGGGGUUUGGUUUCGAAAGAGAAAAAAUGGAGCGACUAUGGAGCUCAUAUCGGGUGUACUAAAUGUAAUCAAGAUACCCCAAAAAAAAAAAAAAAAAAAA'
p87
aF1.0
aa(lp88
S'Corner bulge training'
p89
aS'AGACGGCCGAGCAAAGCUCGAAAAGCCGUCA'
p90
aF1.0
aa(lp91
S'Spiral'
p92
aS'AAAAAGAUCAGACGGCAGAGAGAUACAGAUCAGAUCAGCAGCAGCAGCAGCAGCAAAAAGCGCGCGCGCGCGAUCGAUCGUAUCCUCGCCGUCGAUCAAAAA'
p93
aF1.0
aa(lp94
S'InfoRNA bulge test'
p95
aS'AAAAAAAAAAAAAAAAAAAAAAAAAAAAAGCGUUAAAAGAUAGAAAUGGCUUAGGGACAUGAUUUUUGUAAAAGGCUAGGUAAUUAGGUACGAAUAGACUUAAAGUUUUCAAAAAUGCAGUG'
p96
aF0.9836065573770492
aa(lp97
S'Worm 1'
p98
aS'AAAAAAACUAAUCCGCUUGCAAACCAAAGAUAGUGUGAGAAGAUG'
p99
aF0.9111111111111111
aa(lp100
S'just down to 1 bulge'
p101
aS'AAAAAGGACUCCUUCGAAAGAGGGUGUUGAAAAACUGUACCGAAAGUUCGGCGAAAACGCAGAGAAAACUUAGAGCAAAAAAAAAAAAAAAAAAAA'
p102
aF1.0
aa(lp103
S'Iron Cross'
p104
aS'AGAGAGAGAAAGACACGCAAAGCGAGAGAAAACUCAGUCAAAGGCACGCAAAAGCGAGAGAAACUCAGCCAAAUGCACGCAAAAGCGAGAGAAACUCAGCGAAACUCACGCAAAGCGACUCAA'
p105
aF1.0
aa(lp106
S'loops and stems'
p107
aS'AAAAAUAGAUGCAAAGAUCAAAGAGCAAAGAUCAAAAAAAAAGAUACGAAAAAAAAAAAGUAUUAAAGAUCGAAAGAACAAAAAAAAAAGUUCAAAGUUCAAAGAGAAAAAAAACUCAAAGAUCAAGCAAAAAAGCAAAGCAUCUGAAAAA'
p108
aF1.0
aa(lp109
S'Water Strider'
p110
aS'AAAAAAGUGAAAGUACUAUCUAAAGGGGGGUGAAAGUCGGUAUACAAAAUAUUAAUAUGAUUUAAUAAUAUUGGAAGGCGCAGAAAAAAAAAAAAAAAAAAAA'
p111
aF0.941747572815534
aa(lp112
S'The Turtle(s) Move(s)'
p113
aS'AAAGCGAAAGCAAAAGAGAUGGGCAAAAAAAAAGCCUAUCUCAAAACAUCAAAAUGAUCAAAAAGUGAAAACCCAAAGAUACAAAAAAAGUAUCAAAAGAGAAAGGAAAAUCAAAAAGUGAAAACACAAAAGACGGCCAAAAAAGUCGUCAAAACAUAAAGAUGAAAAGGACGGAAAACGACCAAAAAAGUCAAGAGCAAAAAAACUCAAAGUUGGAAAAAACCAGCAAUGAUUAAAAAAAUCUAUCCGUCAAAAAAAAACGAAAAGGAAAAGCGAAAAUGAAAAAGGAAACAAAAAAAAAAGUUUCAAAAAACUC'
p114
aF0.9873417721518988
aa(lp115
S'Adenine'
p116
aS'GAUACAGACGGCAGACGGCAGACGGCAGACGGCAGACGGCAAAAGACGGCAAAAAAGCCGUCAGCCGUCAGAUACAAAGAGAUGCAAAGCAUCUCGUAUCAGCCGUCAGAGAAGGGAUACAAAGUAUCCCAAAUUCUCAGCCGUCAAAAGCCGUCAAAAGCCGUCAAAAGUAUC'
p117
aF1.0
aa(lp118
S'Tripod5'
p119
aS'AGUAGACGGGGAAAACUCGCUCGAAAAUCGAGUCUAAA'
p120
aF1.0
aa(lp121
S'Shortie 6'
p122
aS'GGGAAACCGGUGAAAGCAGCAAAAGCAGGGAAACC'
p123
aF1.0
aa(lp124
S'Runner'
p125
aS'AAAAAGGACAUUUCAAAAGGGGUAAGAUUAAGAACGAAGAGAAGGUCGCAAAGCGAAAGUCCAGGUCAAUCGGAAACUUCUACAAAGACAAAAAGAAAACGUAGUCAGUUCAAAAA'
p126
aF0.9827586206896551
aa(lp127
S'Recoil'
p128
aS'AAAAAGAUACAAGCAAGCAAGAGAAGAGAAGCAAGCAAAGCAGCACUCACUCAGCAGCAGUAUCAAAAAAAAAAAAAAAAAAAAA'
p129
aF1.0
aa(lp130
S'[CloudBeta] An Arm and a Leg 1.0'
p131
aS'AAAAAGAGGGAGCCAAAAGGACUCGGCAGCAAAAGCGCCACUCAAAAAAAAAAAAAAAAAAAA'
p132
aF1.0
aa(lp133
S'[CloudBeta] 5 Adjacent Stack Multi-Branch Loop'
p134
aS'GAUAGUCCAGAAAUGGAGAACAGAAAUGUUUGCGCCAAAGGGUGUCGUCGAAAGGCGCUGUCA'
p135
aF1.0
aa(lp136
S'Triple Y'
p137
aS'AAAAGGAUCCUGGAGGAUAAUUUCUAUUAAAAGUAAUGUCGGGCGGAGUGAAAGUCGGGUCAUAGUACGCGUCGGUUAAAAAAAAAAAAAAAAAAAA'
p138
aF0.9072164948453608
aa(lp139
S'Misfolded Aptamer'
p140
aS'GAUCGAAAAAGGCGGGAACCGAGCGAAAGCAAAAAAAAACCGAAAAGAUC'
p141
aF1.0
aa(lp142
S'Flower power'
p143
aS'AAAAAGAUCUCGCAAAGCGAAGCCCGCGCAAAGCGCAAGAUCAAAGAUCAGAGACAAAGUCUGGGCACGAGAAACUCGGAUCAAAAAAAAAAAAAAAAAAAA'
p144
aF1.0
aa(lp145
S'Kudzu'
p146
aS'AAAAAGCGUUAAGGCAACCAGUCCAGCAAAGCGCAACGGUUAUGCAAAGCAGUGAAAGUGCAUAGCGAACUCACGGGUCGCAAAAAAAAAAAAAAAAAAAA'
p147
aF0.9603960396039604
aa(lp148
S'"1,2,3and4bulges"'
p149
aS'AAAAGCGUUUUAACCUAAUGGCAAAACACCUAGAAAUACUACUCAAAAAUAAGUGAUAAAAGAAAUCAAAGAAAGCCCGCAAAUGGAAAAAAAAAAAAAAAAAAA'
p150
aF0.9619047619047619
aa(lp151
S'medallion'
p152
aS'GUCGGGACGAGUGAAAGCGUUUGACGGAAAACCGACUGUAAAGCGACUAGUCGAAAGGCUAGACUCAAAGGAGGCUGGGCGAAAGCCCGGACGUGAAAGCCACGCUAAAGUGAGGAGACAAAAGUCUUUACCCUAAUGGGACCAGGCAAAAGUCUGGACGCAAAUGCCUCGGAAAACAGGCGACGUAAAAACGUCGACAUAAAAACAACUACGUAAAAACGUGGGGAAAAAAUCCAACCAAAGGUUACGCCGUUAAUACGGCGGCUGGAAAUCGCGGUGGCAAAAGCCAUUAAGCAAAAUCGACGCAAAAGCGACUAGGUAAAAGCCUGGACCCGGC'
p153
aF0.8635014836795252
aa(lp154
S'[RNA] Repetitious Sequences 8/10'
p155
aS'AGCAAAAAAGCAAAAAAGCAAAAAAGCAAAAAAGCAAAAAAGCAAAAAAGCAAAAAAGCAAAAAAGCAAAAAAGCAAAAA'
p156
aF1.0
aa(lp157
S'Documenting repetitious behavior'
p158
aS'AAAAAAACCAAAAAAAAAGCAAAAAAAAAGCAAAAAAAAAGCAAAAAAAAAAGAAAAAAAAAUCAAAAAAAAAGCGAAAAAAAAGCAAAAAAAAAGCAAAAAAAAAGAAAAAAAAAAUUAAAAAAAAAGCAAAAAAAAGGUUAAAAAAAAGCAAAAAAAAAGUGAAAAAAAUGCAAAAAAAAAUCAAAAAAAAGGGAAAAAAAAACUAAAAAAAAAGAGAAAAAAAAGAUAAAAAAAAACCGAAAAAAACAGAAAAAAAUGCAAAAAAAAACCGAAAAAAAAAGGAAAAAAAAACGAAAAAAAAGCAAAAAAAAAGUAAAAAAAAAUCGAAAAAAAAGGAAAAAAAAAUCAAAAAAAAGGCAAAAAAAAAGCAAAAAAAAAGCAAAAAAAAAGGAAAAAA'
p159
aF0.96
aa(lp160
S'7 multiloop'
p161
aS'GCCCCACGAUAAUUCGUGACGACUAAUGUCGUUAGAGGAAACUCUACUUCCUAAUGGAAGACUACGAAAGUAGUGUUACAAAGGUAACGGGC'
p162
aF1.0
aa(lp163
S'Kyurem 7'
p164
aS'AAAAACAGGCCCGAGGAAACUCCCGAAAAGAUCCGAAGAAAAUUCAAGGCCUUAAAAUAGGAAACCUGAUCCGGGGGACCUGCAAAAAAAAAAAAAAAAAAA'
p165
aF1.0
aa(lp166
S'JF1'
p167
aS'AGAACAUGAUGAGAUAUAAGAUACAAAAGACGGCAAGAUACAAAGAAGCAAGACGGCAGAGAUGGGAUAUGCAAAAGCAUAUCCCAUCUCAAGAGAAAACUCAGAGAUGGGCAAAAGCCCAUCUCAAGAUACAAAAGUAUCAGCCGUCAGCUUCAGUAUCAGCCGUCAAAGAGAUGGCAAAAAGCCAAUCUCAAGAGAUGGGAUAUGAUAUGAUAUGCAAAAGCAUAUCAUAUCAUAAUCCCAUCUCAAAGAUACAAAAAAGUAUCCGAGAUGGGCAAAAGCCCAUCUCGAAAGAUUAAAAAAUCAAGUAUCCGAUAUCAGAUCAGAGAGAGAAAACUCCUCGAUCAGAGGGUAUCAAAAGAUACACCUCACAUCAAUGAUUCUAAA'
p168
aF1.0
aa(lp169
S'multilooping fun'
p170
aS'GUAGAAGGUGAAAAACGACGAAUGGUAAAAAAUGAC'
p171
aF0.7777777777777778
aa(lp172
S'Multiloop...'
p173
aS'GACCUGAUUAGUGCAAAUGAAGAGGAAACUCGGUGAAAACGUAGGGGAAACCCAAAGGAAACUUUGUGUCAACACUAAUCACCGGCAAAAAAGUUGGGAGGAAACUCGGUC'
p174
aF0.9459459459459459
aa(lp175
S'hard Y'
p176
aS'AAAAAGAUCGGACAGAUAGUUAAUACUAUCUAGUCCGAUGGUGAGUAAUUUUACCGUCGGAUCAAAAA'
p177
aF0.9705882352941176
aa(lp178
S'Mat - Elements & Sections'
p179
aS'AAAAGGUUCUUAAAGGGCAGAGCGUUCCUGAGCUGCAUAAGUAAAGGCUGGAUCAGCCAAGGACCAAUCGCUGCACGAGAUGGAUAAAAAAAAAAAAAAAAAAAA'
p180
aF0.9619047619047619
aa(lp181
S'Chicken feet'
p182
aS'AAAAUCGACAUCGGAACAGCCAUGGCAAUACUGUGGAGCACCUAUUGACACAAGGGAAAGUCAUAAA'
p183
aF0.8805970149253731
aa(lp184
S'Bug 18'
p185
aS'AGUGCGUAGGUUAAUAAAACGAGAAACUAGGUAGGGGGGGGUUUUCGAAAACG'
p186
aF0.9245283018867925
aa(lp187
S'Fractal star x5'
p188
aS'AAAAAGAGGUGCCAAUCUCGAAAGAGGAAUGACUAAAGUCGAAGGUUAAAGAAUCAAUCGCAAAGGCGGGGGGCACCUCGAAAAGAAAUGGUUAGAUUUAAUAAUCAUCAUGAAAUCGUGUAGCGCGAAAGCGCGAUUGCAAGGGCAGGUACCAUUUCAAAAGGAGGACACUAGGGCGAAAGUUCAAGAGUCAAAACUUAGGUUUAAAAGAACAAGGUGGAAACGCCGUGUGUCUUCAAAAAGUGAUGUCGAGUUCGAAAGAACGUGAUCUAAUGAUCUUGCUCAAAAGAGCUAGAGCUAAUGUUCGAGACGUCACAAAAGGAGAGUGGUGGGUCGAAAGACCAUGCUAAAAGUAGCUAAGUGAAAACACUAAGAAGUAAUUUUCGUCUACUCUCAAAAA'
p189
aF1.0
aa(lp190
S'Crop circle 2'
p191
aS'ACGAAUAGAAAACCAAAAGAAAAAAAAAUACUAAAAAAAAAAAAAAAAAAAAAAAAAAAAUGCUAAAAAAAAAAAAAGUGGAAAAAAAUGUAAAAAAAUAAAAACUAAAA'
p192
aF0.9636363636363636
aa(lp193
S'Branching Loop'
p194
aS'UGUUACUAAAAAAUGGACGUAAUCGUCAAUAACUAAAAAA'
p195
aF0.95
aa(lp196
S'Bug 38'
p197
aS'CCAUAGAGCCGGCCCAAAGCACAUCGCCUAACUCGA'
p198
aF0.9444444444444444
aa(lp199
S'Simple Single Bond'
p200
aS'AAAAAGUUAAAAAAAGUAUGAAAAAGAUAAAAAAAAAUGAAAAAAAAAAAAAAAAAAAAAA'
p201
aF0.9672131147540983
aa(lp202
S'Taraxacum officinale'
p203
aS'UAGCGAAAUACUGAUAGGGAAACACUAAAAGCAAAAGACUUGGACGAAAGGACUCAUACUGAAAAAGAGAGAGCGAAAGAACCAGAGAUGGGUUGGAGAUGAGCUGGAACAGCAUCAUCUCAGAUACAAGAGAUGGGACAGGAGUUGCAAAGCAACUCAGUCCCAUCUCGACCACACUGCAAAGCAGUGGGUCGUGUCAAAUAACCCAUCUCGGCACAUAGGAGUCAGUUCAGAAGAAGCGAAGGAAAAGACUCAGAGCAAAAGACUCGACACAAAAGAUUC'
p204
aF0.9042553191489362
aa(lp205
S'Headless Bug on Windshield'
p206
aS'AUAAAGAAAACGCGGCGAAGCGUUCUAAAAAAAAAAAAAAAAAAAAAAAUGAGAGCAAAGCCAUCAAACUCUGAGGUAUAGACAGCUAAAAAGAGAAAACUAAAAAAUGCUGCUAAAAAGUCGCAGACAAAAAAGGAGAAGACUGAGGGGCAUGGAAAAAAAAAAAAAAACUGAAGUAACUUUAUCGUUCAAGCAACUGG'
p207
aF0.93
aa(lp208
S'Pokeball'
p209
aS'AAUUUUGAGCAAAAGGAAGGAAGAGAAGAUGGCAAGAAUGUAGGUGAGCAAACUAGCAGACUUUACUAAUCACUCACCACCGCGUAGAUAAAAAAGCUGUAGUAAAAACAAUUAAGAGAAUGGGGCGAGCGAGAGGACAAAGAAAACGGUAAUCAGCAGUAAUGGCUCAAAAGUGGCGCAGAAA'
p210
aF0.967391304347826
aa(lp211
S'Variation of a crop circle'
p212
aS'AAAAGCGAAGUUAAAAACAAAAGAAAUCCUUCAAAAAUAGAAAAGUCAAAAAAGCAAAAAAGGGAAAAAAAAAGUGAAAAAAAAAAAA'
p213
aF0.9545454545454546
aa(lp214
S'Loop next to a Multiloop'
p215
aS'AUGAGAGGGUAAAAAAUUUGGCAGCAAAGGCUGCCAGCGUUGCUAAUGCAGCGUUGUAAAAAAAUCCUCUCUA'
p216
aF0.9726027397260274
aa(lp217
S'Snowflake 4'
p218
aS'GAAGAAAGUUCGGGGGGACAAUUUCGUACAAGAUAUUCGCAAGACUCAGGGAAAUAUUCUAAGAUCGAAGAUCCUAGGCCAAAGGGGCGACGAGAUCCCCAAAGAGCGGGUUGGCAAAGCCGCAGAGCAAAGUUCGCCCGUGAAAAGGUGGUCAGUGUACCUUAAUAGUGAGGCGGCAAAGCCGAAGAUGAAAUAUCCCUCACCUAAUGGGUGCGAGUUUCCACAAAGUACGAGCCUGCAAAGCGGUAGUUCAAAGAGGGCUCGAUAAAAGUAUGUCAAAGUAUUCAAAGGACAUUCGGAGAAACUCCAAGAUGUAUGAUCGACUCAAAAAAUUGCAACGGGUGCGGCAAAAGCCUCCUCGCGAAGCGCG'
p219
aF0.845945945945946
aa(lp220
S'Mat - Cuboid'
p221
aS'GAAGCAAAAGCUAACAAAACGGAGCAAAAGUAGUAUACAAAAGCGAGCAGCAAAAAUAAUCAAUCAAGGAAAACGGGUAAAGCAAGAAAAAGAAAAUAAGCAAUCAUGCAAAACUGGUGGGUUGGUCGGUCAAAAGCGGUCUGGCAGCCGGUCGGUCAAAAGCGGGCAGUCGGUCAGUGGGUCAAAAUGGGUCGGUUGGACGGUAGGGAAAAAAAUUAAUAAAGUAAGAAAGAAACGGAAAUAAGGAAAGAAGGUAAGCGAAAGAAAGGAAGCAUGAAAGCGAAAGAAAAAAACAAAGCACUGGGAAGGAAGUAGACGCAAGCAGUCAACGCCAAGGAACCCUAAGAAGCAAGCGCGAGCCUUGCAAUGGCAUGCGCGCC'
p222
aF0.85
aa(lp223
S'Misfolded Aptamer 6'
p224
aS'AAAAAAGAGAAAAAAGAUGAACAAAAUCGCAAAAAAACGAAAAGGGAAAGCGUCGAAAAAGUUCGAAAAAAAAAA'
p225
aF1.0
aa(lp226
S'Snowflake 3'
p227
aS'GGGUCGAAAGGUCAGCCCAAAAGGGAUAAGUAGAGUGAGAUAAACGAACCCAGCAAAAGUCGUAAAGCUGAAAAAUCAGCGCAAAAAGAUGAAGAUGAGAUCAAGACAAAAAUCCGCAAAAAAAUUCGCAAAGCACCAAAAGGAGCGUGCAAAACCAAAGAUCAGUGCAAGAGAAAACUCUGAAGCAAAAGCCGCAAAGCUCCAAAAGGAUCACGCGAAAGCGAAGUGCAGAUGAAGGUAAAAGCCAGCAGCGAAAGCCACAAAGUGUCAAAAGGGGCGCGCGAAAGCGAAUAUCAGAUAAAGAGAAAACUCCGCAGCAAAAGCAGCGAAGCUCCAAAAGGAGCGCACUAAUGUCAAGAUCGGAUGUAGAUAAAAUUCCUCUCCACAAGGCCC'
p228
aF0.821882951653944
aa(lp229
S'Hard Y and a bit more'
p230
aS'AAAAGGUGGCGCAUAUAGAAAAUUAUUAGCGAUUCUAAGAGAUCAAAAGAUCGUCGUACGAAAAAGUACAUAUAUGGGUCGCCACAAAAAAAAAAAAAAAAAAAAA'
p231
aF0.9716981132075472
aa(lp232
S'Mat - Lot 2-2 B'
p233
aS'GAGCUGGGAAGGCAUCAAAAAGGUAUACAAAAGUAAAAGUUAUUGAAACUAAAAUAAACCAAAACCAAGCGGCGGUAAAAAAAAUGGAAGACCGUCAAAAGCAAAAGUGAAACUAAAACGGAUAUAAGGUCAGGUGAAGCAAAAGACCGAUGAGGGUCAAAAGAGGUGAGAAAAGUAAAACAAAUCGAGACUAAAACAGAGGUAAAGGAAUGAAGCACGAUCAAAAGCAGUGACGGGCAAAAAAGAAAUUGUAAGUAAAACAAGGUGAGAGUCCUGUGAAGAAU'
p234
aF0.8204225352112676
aa(lp235
S'Shapes and Energy'
p236
aS'AAAAAGUUGGUGGCGACAAAAGGAUUUGCUCGAAAGUGAAGUAACGUUGGAGUAAAAAAGAUCAAAAGAUCGCCGAUCUAAAAAAAAAAAAAAAAAAAAAA'
p237
aF0.9603960396039604
aa(lp238
S"Spiral of 5's"
p239
aS'UAAAAGAUACAAAGAGACAAAGAUACAAAAGAUAUGAAGAUACAAGGAUACAAGAUACAAAAGAUACAAAGAUACAAAGAUACAAGAUACAAAGAUACAAAGUUACAAGAUACAAAGGUAUAGGAUACUAGUUACAAGUUAUGAGAUACAGAUACAGAGGUUGGUCAAAAAGACCGGGGGGACCUCGAAAAGUAUCAAAAGGUUUCAAAAGGCAGCAAAAAGUACCAAAAUGUAUCAAAAAAUGCCAAAAAGGAUCAAAAAGUAGCAAAAAGUAUCAAAAAGUAUCGAAAAGUAUCAAAAAGUAUCAAAAAGUAUCAAAAAGUAUCAAAAAGUAUCAAAAAGUAUCAAAAAAUAUCAAAAAGUAUCAAAAAGUUUCAAAAAGUAUCAAAAAAAAAAA'
p240
aF0.9949622166246851
aa(lp241
S'Campfire'
p242
aS'AAAAAAUCAAUAUUCAACUACAAGUUGAAAAACAACAUCAGCUAUGCUAGAUGAGAAAAAGCCUCAGCACAGACGAAAGUACUGGCGACGGGCGGUACCAGCGAAAGCGGGCAGGAAGAGAAAGCUACUACCUAAGUACCGUCUAUGAGGAUGCGCAGAGAGUAGGAAUAAAAAUUCAUACUCGACAUGAGGAAUUCAAUAGCAGAUGGAUU'
p243
aF0.8207547169811321
aa(lp244
S'Anemone'
p245
aS'AAAUAUGCCGAAAGGUAUACUUUCGAAAGGAGGGUGGAAAAAGUUCUACGUAGUAAAGGCUACGGUGAAGAAAUUCGCCCUGAGGAAACUCAGGUUGCGAAAGCAACGGCUACAAAUGUGGCCCAGACGAAAGCGUCUCGUUGGAAAACCAACGGUUGCAAAGGCAACCUGUGGGAAACCGCAGGGGUCGAAAGAUCCGUCGCCUAAUGGCGGC'
p246
aF1.0
aa(lp247
S'Fractal 3'
p248
aS'AAAAAGAGGAUCCAACAAAAAUCCAAAAGUGGGAGGACAGUAAAGGCCAAAACUCGCGAGAAGAGCAAAAGCCUGAAAAGAAUCAAAGAGCAAAGACAUAAAGGUACUCUCCUCAAAAA'
p249
aF0.8823529411764706
aa(lp250
S'Kyurem 5'
p251
aS'AAAAGUUUGAACGUGAAAGAACGCCAAAACCUAAGCGAAAGAGAAAAGGACCGCUUGCGAAAAAGUGAUAUGGGCGGAAACGGUAAAAAAAAAAAAAAAAAAAA'
p252
aF0.9423076923076923
aa(lp253
S'Snowflake Necklace ( or v2.0 )'
p254
aS'GAAAUUGGGUAUGAUAUGAACGACAAAAAUCACCAAAAAGGAUGAAAAACGUCCAAAAGGGUCCAAAAGGGAGUACGAGGGAAAAACCCACAUACAGGAAAAAUCAGAAAAAAUCACCAAAAAGCACCAAAAAGAAUCAAAAAGAAGCAUCAGAGAAAAACUCAGAUACAUGAAAAACGACCAAAAAGAAACAAAAAGUAGCAAAAAGGAACAAAAAGUAGUAUAAGGGAAAAACCCAGAUCCGGCAAAAAGCACCGAAAAGGACCAAAAAGGGCCAAAAAGGAGCAAAAGGCAGGAUCAGAGAAAAACUCAGAUCCAGCAAAAAGCUCCAAAAAGGGCCAAAAAGGACCAAAAAGGAUCAAAAAAGAGUAUCAAUUAUAUCCGAUUUC'
p255
aF0.8766066838046273
aa(lp256
S'Methaqualone C16H14N2O Structural Representation'
p257
aS'AAAAAAAGAGCAAAACAAAGAGAGAAAAUUCGGAGAGAUAAAACUCAGACAGAGAAAACUCAGCGCGAGAAAGAUCAGAGCAAAAAACUCACGGACGCACGCACCCGGAAACAGUUCAGCGGAAAGGGCGCAAAGCAAAGCAAAAAAAACCGUGGGAGAGAAAACUCCUCAAAAGGGGGCAAAGGCUCCCAUCAAAUAACAGAAACGGAGAGAGAGAGAUGGAGAGGAAAGACAAAAUUGACUCGUAGAAAACUGACUAAAUGGAAACGUACUCAAAGAAAAAUUACUCAGAGGGGAAAACCUCGCAAAAGAUAGAAAAAGCUCCUCACUCAGUUGAAAUCGCAGUUGAAAAAAA'
p258
aF0.8619718309859155
aa(lp259
S"Cat's Toy 2"
p260
aS'AAAUGGUAUGGUAAAAGCAUGGAAAAAAAAAAAAAAAAAACCUCAAAGGCGAAAGCAAGUCAAUGCGAAAAAAAAUCAAAAAAACACUAUAUCUAAA'
p261
aF0.979381443298969
aa(lp262
S'Zigzag Semicircle'
p263
aS'AAAAGGUACAAAAUAAAAGUAGCCGCUACCGAAA'
p264
aF0.9411764705882353
aa(lp265
S'Short String 4'
p266
aS'AAAAAACUUGUAAACGGUGAAUAGAACCAAAAGGUGAGAAAGGAUCAAUCAAAAGAGGGGUGCAAAGAGUAGGCACAAAAAAAAAAAAAAAAAAAAA'
p267
aF0.9587628865979382
aa(lp268
S'Gladius'
p269
aS'GAAAUCAUCUAAAGAAACAAACUAGGAAAGAGAGCCGAAGAUCAAAGGAUCGUAUACAAGAGAGAAUGGAUCAAUGUCUAACGAGAGAAGUAAGGCAUGAGAUGGAGAUCAGAUCAAGAACAAAGUUCAGAUACGAUCCACAUCGAAUGCCUCGCUUCUCAACCUAGAAUGAGAUUAAGGCUCAACAGUAUAAGGCAAAGAUGCGAGUGUAGUAGAGAGGAUCAGCACGUCAGUCGAGUUGCACACGUCACAUACUCGUGCAAGAGGGAUAGCAAAAGCUGUCAACUCAGGCGUACGUAUAGGGCGUAGGCAGCUCUCAAGAUGGCAAGGUCACAACUAGGUAGCUCGAGAGCAAAAGCUCAAAAUCACUCAAACAGAUCCGGGAACAAAUGCACAAAAG'
p270
aF0.895
aa(lp271
S'Thunderbolt'
p272
aS'GCAAGAUACUAAAAAAAGAGGAAGCAGAAAAAGAAAACAGCGAUGGAGAAAAAAAAGCAAAAAAGAUCAAAAAGAUCAAAAAAGAAAAGCGGUGAAAAAAGGGGCAAAAAAGAACAAGAGGACAAAAAGAAAACAGACCAAAAACAGAAAAAGGCUUACAAAGAGAAACAAAAACUCGGUUGAAAAAGCAAAAGGGCAAGAAACUAGAACAAAAAAACAAAGAUAAAAAAAAACAUCAAAAAGACGGCAAAGCCGUCAGUAAGCAAAAAAAAAAACAAAGCAAAAAAAAACUGAGAAAAGCGAGACAAAAAGAAAAAAAACAAAAAGUCUCGAAAAUACAAUCCAUCGCAAAAAAAACAGCAACCAAAAAAGGAAAAAAACAGUAUCAAGUA'
p273
aF0.9591836734693877
aa(lp274
S'Mutated chicken feet'
p275
aS'AAAAAAAAUAGCAGCAAAGCGGCAAAGCAAAGCACGCCAAGGAGAAGGGUGCAAAGAUAAUCGCGACAGUGACUAUGCGUAAAGGCAAAACGUAAAAAAA'
p276
aF0.86
aa(lp277
S'Chicken Tracks'
p278
aS'AAAAAAAAGAGAUGCCCAGAAAACUGGAAGAUCAAAAGGUCAAGCUCAAAAGAGCGCAUCUCAAGAGUGCGAAACGCAAAGCACAAAGUGCAAGUGGAAACCACCUCGAAAAAAAA'
p279
aF1.0
aa(lp280
S'Looking Back Again'
p281
aS'GGCAAGAUUGAGAAAAUGACGGCUAUGCCGUCCCUCGAAGGUUGUAAGUGAAAGACGCGAGAUACGAUGAUCAAAAGAUCUAAAGUAUCAAGCCGCAUCAAUGAAUGCAAAAGGAUAAAAAAUUAUCAAAAAAGCACAAGGCGAGGAAACCUCGAGAGCAAAGCUCGUAGAGCCUAAGGGCAAGUUUAGGUACAACAAAAGCUGAUCAAUUCGAACGAGCGUGAAAGCGCUACUGUAAAACCUUGUUCAUCCAGUGGCUCAAAAAAGACAUGGAAAAAAAAGCUCAAAAAGAGCCCGUAAAGUCAGAGCACGAAAAAAUGCCGAGUCAAAAGGCUCGAAGUGCCAAAGGAUCAUCAAGGAUCUGACUCGCUAAGGCGCGCUCGAAGGCC'
p282
aF0.8663239074550129
aa(lp283
S'Multilooping 6'
p284
aS'AAAGUAUUAUCGAACUAAUGUUUGGGUGUUAAUGCCCCGGUGAGCGGUAAAUGUGCCGUUAGCGAAAGUUAACUUAUACUGA'
p285
aF0.9146341463414634
aa(lp286
S'Cesspool'
p287
aS'CAAGAAGAAAAUGACGCGUAAAAGAGAAACUCAACAAGUAGAGAAGGGUAAAAAAACAAGACAAAAGGAUAAAAAUAAAGGAAAGGGAAAGGUGAGAAAGCAACAGGGUAGGGAAAAAUUCAACAAAAACUGAAGAGAAAAGUAGCAGGGCAAAAGAACAAAAAGAAAGUAAAAAUAAGUGGUAAGGAAACAGAUGGACAGAAAGGAACUUAACAAGAACGUAAGAGUAAAGAAACACGGGAAAAUAUGAAAAAUAAAAGACAAAGCAAGCGGAUAGAAACCAGCAGGCCAGUGAUAAGGUCUACAAGAACUGAAGGGUAAAAAAACAGGGCAAAAGAACAAAAAGAAAACAUAAAGC'
p288
aF0.7821229050279329
aa(lp289
S'Hoglafractal'
p290
aS'AUGGCAAAUGAGCAAAAGAUACAAAAAAGUAUCGCUCACGAGAAAAAUCAAAAAGAUCCUCGCGCAAGCCAAAGGGCGCUAGUCUCAGACCAAACAUGAAAAAGUAUGGGUCCGCAAAAGAAAAACUCGCGCCAGCAAAGGUGGACGAGAAAAGCGAAGAGAAAAAGCUCCUACCAGCAAAAAGCGAAUUAAAAGACGGAUACAAAAAGUAGCUAAAAUGCGCAAGAAAAACUAUCGAAAGAAGAAGGCAAAAAAGAUAAAAAAGUCCAAAAAAUGAAAGAGUUGCGAAGCAGCUCAAAAAAAGCCUUCAAAAAAGUAUCAAAAACUCGGAAUGGCAAAGCAACUAAGACAAGAUGAAAAGCAAAAGCCCAAAAGACGAGGCAAAGCCUCGAGAGCUGAC'
p291
aF0.895
aa(lp292
S'Bullseye'
p293
aS'AAAGAUCGAAUAAUUCGAAGAUCGAAGUAAAAAAGCAAAGCUAAUCAAAAAAAUGAUCGUGAAACUCGAUGAUCAAAGAUAUAGAUCGAAGAUAAUCUAAAAAAACAUCGAGAAACUCGAAGAGCAAAGAUCGAGUUCUAUGAGUUUCAAAAAAAAAAGUUAGAAACUGAAAGUUCUAUGAGUAACAUCAAAGAUUCUCAAA'
p294
aF0.7623762376237624
aa(lp295
S'Shooting Star'
p296
aS'GACGGCGACCCGGCCGUAAAGAGGGUUCCUCAGAGAGCUAAAGACCUACGAGAGAAAACCAGACGGUCGAGUUGGGCUAGGAACGUUGGGCUGUAGAGACUUUAUAAAAGUAAAAGAGUGCAACAGAUCAAAGAAAACAAAGGGAAACGACAUCCGAUCGAGCGAACCUCGAGAUUCAAAGAAUCCACAAAAGGAAAUUGAGGUUAGAACAGAUCAAAGAGGUGCAAAGCACCUCAGAUAGAAACUAUCGACCCGACUGCAAAGCAGUCGAGAUACAAAGUAUCGAACGCUCAAGAAAAUGCUUAUGACCUUUAUUAGCUCAUCAAAAGAAGAAACAAUUUAUGGGCUUUAGAAGCAGCCGUCA'
p297
aF0.8269230769230769
aa(lp298
S'Teslagon'
p299
aS'AAAAAAGGAAAAAAAGCGUAAAAAAAAGUGCCAAAAAAAAAAAAAAAGGAAAAAAAAAGUUAAAAAAAAAAAAAUGCAACAAAAAAAUAAGCAAAAAAGAUAAAAAAAAAAAAAAAGUAAAAAAAACAUCAAAAAAAUGAUCAAAAAAAAAAAAAAAGAAAAAAAAAAGCAAAAAAAAAAAAAAAGUGGAAAAAAAAGCAACAAAAAAAACAAAAAAAAAAAAAAAGCAAAAAAAGCAGAAAAAAAAACAUCAAAAAAAAAAAAAAAGAAAAAAAAAGACAAAAAAAAAAAAAAAACAGGAAAAAAAACAUCAAAAAAAGUAAAAAAAAAAAAGCAAAAAAAAAAAAAAAGUUGGAAAAAAAGAAACAAAAAAAGCGAAAAA'
p300
aF0.9162303664921466
aa.