(lp0
(lp1
S'Simple Hairpin'
p2
aS'GAUACAAAAAAGUAUC'
p3
aF1.0
aa(lp4
S'Arabidopsis Thaliana 6 RNA - Difficulty Level 0'
p5
aS'GCGAUGCAAAAGUCAAAAAAAAAAAGACGUGGACUCGUGAUAUUAUAAUAACAUAAUAAAGAUACAAAAAAGUAUCAAUUAUGCUUAUUAUAAUAUCUAGAGUUCACAAGCAUCGC'
p6
aF1.0
aa(lp7
S'Prion Pseudoknot - Difficulty Level 0'
p8
aS'GAGAUCAGAUCGAAAGAUCGAUACUCAAAAAAAAAA'
p9
aF1.0
aa(lp10
S'Human Integrated Adenovirus - Difficulty Level 0'
p11
aS'GAUACUCUUAGAUAAGCAUGGGAAAAAAAAGAGAUCCUGGACUCAGGGGGCCGACUCAAAAGCAGUUGAUAAUCGAAAAAAAGAUUAUCAACAAAAUGCGAGUCAAAGGGCGAGAAAAUCCAGUAGACUUAGUAAAAAUCUAAGUGAUCGAAAAAAAAAAAUUAUGCGUAUCAAAAUGAGAGAAAUAUCAAA'
p12
aF1.0
aa(lp13
S'The Gammaretrovirus Signal - Difficulty Level 0'
p14
aS'GAGGCGAGCAGGGAAAACUUUGCGAGACAAAAAAGAUCAAGUCAGAUCCUGUAAAAAUACAGUAAAGAUCGACGAUCAAGCGAUGAGAAAACUCAUCGCAA'
p15
aF1.0
aa(lp16
S'Saccharomyces Cerevisiae - Difficulty Level 0'
p17
aS'GCCUGUGCAUCAAAAAAAAGAUGAGGUCAACCCCCCCCCAAUUCAACGAGACAAAAAAGGUUUCCACGGGUAAAAGCUAGGAAAGCAGAAAAAAAACUGUAGGAAAAAAAAAAAGGCUUAAACUAUACUAAAAAUGUAUGUCUUGGCAAAAGGUACGCAACAUGAAAAAAAACAUGGUACGCUAAAAAUGCGUACAAAGGAGGCGAAAAAAGUUUUGCGUACCGAAUACGAUGGAACAAUUAAAAAAUAAUGCGAGACUAAAAAUGUCUUGAAAUGAUACGAAAAAAAUGUCCCAUCGUUAAAGCGAUCUAACUUGUAAAAAAUCAGGCUAUGCAAAAAAGGUAUAGAAAAUAUUGUAAAAAUCAAUAAGAUCGCGAAA'
p18
aF0.9947229551451188
aa(lp19
S'Fractal 2'
p20
aS'AAAAGGCGAUGGCUAGUAGGUAUACUAUGGCGAAAAAAAAAACGCCUGGCUCAAAAAAAAAAGGGCAAGGACAAAAAAAAAGGUCCAGAGUGUACCUGAAAAGGGGCUUUUUGGUUCUAAAAAAAAUGGACAAGCUUAAAAAAAAAAAGGCGAGCUGGAAAAAAAAAUAGCAUAAAGGCCCCUGAUGACGUCCAUUAUUGGGAAAAAAAAAACUCAUAGGUAUAAAAAAAAUUAUCAGGAACAAAAAAAAAGGUUCAAAAUGGACGUCUAUGCUGUCGCAAAAA'
p21
aF1.0
aa(lp22
S'G-C Placement'
p23
aS'AGAGAAACUCUA'
p24
aF1.0
aa(lp25
S'The Sun'
p26
aS'GUCAGCAAUGCAAAGCAUAAUGUGAGAAGGAAACGGAUUCAAAGAAUAACCCUUGAACCACAUCGAUGGAAACCAUAACGAGUGAAGCACAGCGACUCGAAGAGUAACGCGUGAAUCAAAUCUAUGCAAAGCGUAAGGAUUGUAGAACAUUGAGGCAAAGCUUAACAGGUUAACACAAGCGAUACAAAGUAUAACGCUGGAAACACAGCGAUUCAAAGGAUAACGCGUGAACAAUAGGGAUUCUAUGAAUAACCCGGU'
p27
aF0.9069767441860465
aa(lp28
S'Frog Foot'
p29
aS'AAAAAAAAACCAUGUAAUCAUGCAUCGAAAGAUGGGUCAAAGACC'
p30
aF1.0
aa(lp31
S'InfoRNA test 16'
p32
aS'ACGAGGUCUAGACUCAAAGGAGUCAUACGUCUUUGU'
p33
aF1.0
aa(lp34
S'Mat - Martian 2'
p35
aS'GAUCGAAAGAUCAAAGCGAUGCAAGCGAUGCAAAAAAAGCAUCGCGCAUCGCAAAGCUACACGAAAAAAGCGAUGCAGCGAUGCAAAAAAAGCAUCGCGCAUCGCAAAGAUAUUAGAUGAUCAAAAAAAGAUCAUCAUGAUAUCAAAAAACGUGUAGCAAAGAUAUUAGAUGAUCAAAAAAAGAUCAUCAAUGAUAUCAAAAGAGAAAACUCU'
p36
aF1.0
aa(lp37
S'square'
p38
aS'GCGAUGCUGGUCCUGGUCUGCGAUGCGAAGCAUCGAAAACAGACCGAAACGGACCAAAACGCAUCGC'
p39
aF1.0
aa(lp40
S'Six legd turtle 2'
p41
aS'AAAAACCAAAGGAAAACCAAACCGAAAGGAAACCGAAAGGAAACCGAAAGGAAACCGAAAGGAAACCGAAAGGAAAGGAAAAAAAAAAAAAAAAAAAA'
p42
aF1.0
aa(lp43
S'Small and Easy 6'
p44
aS'GGAGAAAAAGAUCUUCUAAAAAAAUGGUCC'
p45
aF0.8666666666666667
aa(lp46
S'Fractile'
p47
aS'AAAAAAAAAAAACCGAAAGGAAAGGAAAGCAAAGGCAAGGGAAGCAAAAGCAAACCAAGGAAAACCAAACCAACCGAAAGGAAAAUAAAAAAAAAAAAAAAAAAA'
p48
aF1.0
aa(lp49
S'Six legd Turtle'
p50
aS'AACAGUAAAAAUGAAAAUAAAAAAUUAAGGGAAAAAAAAAGAUAAAUGAAAAAUCUAAAGCUAAUUUGAAGCCGAAAGGAAUACGAAAAAAAAAAAAAAAAAAAA'
p51
aF0.9619047619047619
aa(lp52
S'snoRNA SNORD64'
p53
aS'GCAUGGAAAAAGUCAAAAGUCAAAGAUACAAAAAAAAAAAAAGUAUCAAAAGACAAGACAACCAUGC'
p54
aF1.0
aa(lp55
S'Chalk Outline'
p56
aS'AAAAACAUGAGAGAGAAAACUACUCAGUCAGUCGAAAGACGACAGCAGGGAAAACCACUGCAGCUACGAAAGUAUGCCAUGAAAGAAAAAAAAAAAAAAAAAAA'
p57
aF1.0
aa(lp58
S'InfoRNA bulge test 9'
p59
aS'GCGAUCCAGAGAGAGCGAUGCUAAUGCAUCGCCCCGGGUCGC'
p60
aF1.0
aa(lp61
S'Tilted Russian Cross'
p62
aS'AAAAAUCGGCUACGAAAGUAGGAGCAGCGGUAAUUCGCGAUACGAAAGUAUCAGUUCGAAAGAACGCUCGAGGGAAACUUCCCGGAAAAAAAAAAAAAAAAAAAA'
p63
aF1.0
aa(lp64
S'This is ACTUALLY Small And Easy 6'
p65
aS'AAAGAAAAAAAAAAAAAAAAAAAAAAAAAAAAAAAAAAAAAAAAAAAAAAAAAAAAAAAAAAAAAAAAAAAAAAAAAAAAAAAAAAAAAAAAAAAAAAAAAAAAAAAAAAAAAAAAAAAAAAAAAAAAAAAAAAAAAAAAAAAAAAAAAAAAAAAAAAAAAAAAAAAAAAAAAAAAAAAAAAAAAAAAAAAAAAAAAAAAAAAAAAAAAAAAAAAAAAAAAAAAAAAAAAAAAAAAAAAAAAAAAAAAAAAAAAAAAAAAAAAAAAAAAAAAAAAAAAAAAAAAAAAAAAAAAAAAAAAAAAAAAAAAAAAAAAAAAAAAAAAAAAAAAAAAAAAAAAAAAAAAAAAAAAAAAAAAAAAAAAAAAAAAAAAAAAAAAAAAAAAAAAAAAAAAAAAAAAAA'
p66
aF1.0
aa(lp67
S'Shortie 4'
p68
aS'GGAAAACCAGGGAAACC'
p69
aF1.0
aa(lp70
S'Shape Test'
p71
aS'AAAAACGGAUCAAGAUACAAAAAAAAGUAUCAAGUCAUACAGAUACAAAAAGUAUCAGGUCGAAAGACCAGUAGACAAGAUCGGAAAAAAAAAAAAAAAAAAAA'
p72
aF1.0
aa(lp73
S'The Minitsry'
p74
aS'CCGAAAAAGCUUAAAUGGAGAAAAGUCAAAAAGCCAAAAAAAAGGCGGACGUCCUAGCGUGG'
p75
aF1.0
aa(lp76
S'stickshift'
p77
aS'AAGCGAUGCCAAAAAGGACAUCGCAA'
p78
aF1.0
aa(lp79
S'U'
p80
aS'AAAAAGAUACAGAGAGGAGAGCGAUGAUUGAAAGAUCAUCGCCCCCCGUAUCAAAAA'
p81
aF1.0
aa(lp82
S'Still Life (Sunflower In A Vase)'
p83
aS'AAAUCGCAACAGUGUAAAUCAUUGAACGUGCAAGGCACGGAGCCCGAAAAACGGGCGACCUGGGAGCCAGGAACACGGGAAAACUGUGAACGGUAAAAAAUACCGAGAUAUUAGUAUAUUACAAUAUUACAUGGAAAAAACCAUGAGACAGAAAAAAAAAAAAUCUUGCAAAAAAAAAAAAAAAAAAAAAAAAAAAAAAAAAAAAAACCCAAGUAAAAAAAAAAAGUUGUCGAAUCGAAAGAUUCAUAAUAUUGUAAUGUGUUAAUAUCAAGAUACAAAAGGUAUUGAGUGGCAAAAAGCCGCAAGACGUAAAAGACGUUAACAUUGAAAAACAAUGGAGAUCGGAAACGAUCGACAAGCAAAAAGCUUGAGCGAGAA'
p84
aF1.0
aa(lp85
S'Quasispecies 2-2 Loop Challenge'
p86
aS'AAAAUUGGCUCAGUAACAGUAAUUUGUGUCUGAAUGAGAUUAAGGAGCUCAGGGGUGUGUAGCUUCAAUACCGGUUAACUCGAUGUGAAAAAAAAAAAAAAAAAA'
p87
aF0.9809523809523809
aa(lp88
S'Corner bulge training'
p89
aS'AGCAUGCGAUACAAAGUAUCAAAAGCAUGCA'
p90
aF1.0
aa(lp91
S'Spiral'
p92
aS'AAAAAGAUCAGCAUGCAGUCAGAUACAGAUCAGAUCAGGAGGAGGAGGAGGAGGAAAAACCCCCCCCCCCCGAUCGAUCGUAUCGACGCAUGCGAUCAAAAA'
p93
aF1.0
aa(lp94
S'InfoRNA bulge test'
p95
aS'AAAAAAAAAAAAAAAAAAAAAAAAAAAAGCGGUAAAAAAGAGAAAAGGCGCAAAGCGUAAGCCGAGCGGAAAAACCAGCACGAGCGGGCAGCAAAGCAGUAAAAGUCAUCGAAAAAACACGA'
p96
aF1.0
aa(lp97
S'Worm 1'
p98
aS'AAAAAAAGGGAGAGCCGGGGAUGAGAAAUGAUAGCAGUAGAGCAU'
p99
aF0.9555555555555556
aa(lp100
S'just down to 1 bulge'
p101
aS'AAAAAGCGCAAUAGGAAAACCUAUAGUCGAAAGACAGCAGCAAAAGAUCAGUCGAAAGACAGUCGAAAGACAGAUCAAAAAAAAAAAAAAAAAAAA'
p102
aF1.0
aa(lp103
S'Iron Cross'
p104
aS'ACACAGGAGAAUAGGGGCAAAGCCGGUCGAAAGACACUAAAGCAGAGGCGAAAGCCAGUCGAAGACGCUGAAACAGACAGGAAACUGAGCCAAAGGCGCUGAAAUCCACACAAAGUGAGUGAA'
p105
aF1.0
aa(lp106
S'loops and stems'
p107
aS'AAAAAGCGAUGCAAAGAUCAAAGUUCAAAGAUCAAAAAAAAAGAUACAAAAAAAAAAAAGUAUCAAAGAUCAAAAGAGCAAAAAAAAAAGCUCGAAGAACACAGUCAAAAAAAAGACAAAGAUCAAGGAAAAAACCGAAGCAUCGCAAAAA'
p108
aF1.0
aa(lp109
S'Water Strider'
p110
aS'AAAAAGCAGGUUGUGACACUGAAACGAGCACGAAAGUGGUCCGAGGAUUUUCGAAAGGGGACAAAGGUCAAAUGCCUCAGGUAAAAAAAAAAAAAAAAAAAAA'
p111
aF0.9611650485436893
aa(lp112
S'The Turtle(s) Move(s)'
p113
aS'AAAGGAAAACCAAAAGCGAUGAUUAAAAAAAAAGAUCAUCGCAAAAGAUCAAAAAGAUCAAAAACACGAAAGUGAAACAUGGAAAAAAACCAUGAAAAGGCAAAGCAAAAGCAAAAACACGAAAGUGAAAAGCAUGGAAAAAAGCUAUGCAAAACACGAAAGUGAAAAACUAUACAAAAGUCAAAAAAAGACAACAGAAAAAAAACUGAAACAUGGAAAAAACCAUGAAACAUGAAAAACAUGAAGUAUAGAAAAAAAAAGGAAAACCAAAAACCUAAUGGAAAAAAAUAGGAAAAAAAAAACCUAUAAAAAAGCC'
p114
aF1.0
aa(lp115
S'Adenine'
p116
aS'GAUACAGCAUGGAGCAUGGAGCAUGGAGCAUGAAGCAUGGAAAAGCAUGGAAAAAACUAUGCACUAUGCAGAUACAAAGCGAUGCAAAGCAUCGCGUAUCAUCAUGCAGAUAAGCUUAGCAAAGCUGAGCAAAUUAUCACUAUGCAAAACUAUGCAAAACUAUGCAAAAGUAUC'
p117
aF1.0
aa(lp118
S'Tripod5'
p119
aS'AAAAGGUAUCUAAAUGAUAGAACGAAAAGUUCCCUUAA'
p120
aF1.0
aa(lp121
S'Shortie 6'
p122
aS'AGGAAACUUGGUAAUCCGGAGAAAUCGGCUAACGC'
p123
aF1.0
aa(lp124
S'Runner'
p125
aS'AAAAAGAUCAGAUGAAAAAAGAUGGAAUCUGUAUCAAAGUUAAUCGAUUAAACAUAAACGAGACACGCUUUGUAAAACCGUGCAAAUUCAAAAUGGAAAUAUACAAGGAUCAAAAA'
p126
aF0.9482758620689655
aa(lp127
S'Recoil'
p128
aS'AAAAACAUGGAAGGAAGGAAGUCAAGUCAAGGAAGCAAAGCACCAGACAGACACCACCACCAUGAAAAAAAAAAAAAAAAAAAAA'
p129
aF1.0
aa(lp130
S'[CloudBeta] An Arm and a Leg 1.0'
p131
aS'AAAAACAUGCAGAGAAAACUACUGGGCAGGAAAACCGCCAAUGAAAAAAGAAAAAAAAAAAAA'
p132
aF1.0
aa(lp133
S'[CloudBeta] 5 Adjacent Stack Multi-Branch Loop'
p134
aS'GUAGCCAUGGAAACAUGGAUACGAAAGUAUCCACAGUAAUCUGUGGACUGAAAAGUCGCUACA'
p135
aF1.0
aa(lp136
S'Triple Y'
p137
aS'AAAAACACACAUUGAUUGAAAAAUCGAGGUAAAUUCAUAUCCAUCUACCUAAUGGUAGUACGAAAGUUCCAUGUGUGCAAAAAAAAAAAAAAAAAAA'
p138
aF0.9175257731958762
aa(lp139
S'Misfolded Aptamer'
p140
aS'GAGCGAAAAAGGGUCAAAGACAGGAAAACCAAAAAAAAACCGAAAAGUUC'
p141
aF1.0
aa(lp142
S'Flower power'
p143
aS'AAAAGCAUCCUACUAUGUAGAACUCGACUUAUAGUUUAGAAGUAGCAACGUACAGAAUCAGUGACCAGUUCAACGAACGCUGAAAAAAAAAAAAAAAAAAAA'
p144
aF0.9215686274509803
aa(lp145
S'Kudzu'
p146
aS'AAAAAAAUUGUGGGGCUAAACCGUAGGGAAACACAGGACCGCCGCAAUGGAGGCCAAGGGUAUCUCAGGGGCGCAUCUGUUAAAAAAAAAAAAAAAAAAAA'
p147
aF0.9801980198019802
aa(lp148
S'"1,2,3and4bulges"'
p149
aS'AAAAAACGGGAACACAAAGGUUAAAAUGGGUGUAGUCACACCAGUAAAAACUCAACAUAAUGAAAGCGAUUAAAUAAUAGGAAGUAAAAAAAAAAAAAAAAAAAA'
p150
aF0.9809523809523809
aa(lp151
S'medallion'
p152
aS'GCAUGCACUAUACGAAAGUAUGGAUUCCAAAGAAACUCGAAAGAGGCUAUACGAAAGUAUAGACACGAAAGUGACUAUACGAAAGUAUAGGCACGAAAGUGACACGAAAGUGGCUAUUCGAAAGGAUAGACACGAAAGUGGCUAUACGAAAGUAUAGACACGAAAGUGACAUAAAGGUAACUAUACGAAAGUAAAGUCACGAAAUUGAGUAUACGAAAGUGUAUCCACGAAAGUGACACGAAAGUGACUAUACGAAAGUAUAGACGCGAAAGUGACGAUACGAAAGUAUCGUGUCUAAUUUGUCAUGAAAAUGACUAUAAGAAAGUAUAGAGUAUGC'
p153
aF0.9762611275964391
aa(lp154
S'[RNA] Repetitious Sequences 8/10'
p155
aS'AGGAAAAAAGGAAAAAACCAAAAAAGGAAAAAAGUAAAAAAACAAAAAAGCAAAAAAGCAAAAAACCAAAAAACCAAAAA'
p156
aF1.0
aa(lp157
S'Documenting repetitious behavior'
p158
aS'AAAAAAAUCAAAAAAAAACGAAAAAAAAACCAAAAAAAAACAAAAAAAAAACCAAAAAAAAAACAAAAAAAAACCGAAAAAAAACCAAAAAAAAACCAUAAAAACAUAGAAAAAAAAUAAAAAAAAAAUCAAAAAAAAAGCAAAAAAAAAGGAAAAAAAAAAGAAAAAAAAACGGAAAAAAAAUGUAAAAAAAAUAAAAAAAAAAUAAAAAAAAAUUAAAAAAAAAAUAAAAAAAAAACUAAAAAAAAAUAAAAAAAAAAGCGAAAAAAAAGAAAAAAAAAAACAAAGAAAAAUGAAAAAAAAAGGAAAAAAAAAGGAAAAAAAAAGCAAAAAAAAAGGAAAAAAAAACGAAAAAAAAAGGAAAAAAAAAGGAAAAAAAAAUGAAAAAAAAAGUAAAAAA'
p159
aF0.94
aa(lp160
S'7 multiloop'
p161
aS'GAGCGUUGAGAAAUUAACCGGGGUAAUCCCUGUAUGCAAAGGCAUAGUUCCUAAUGGAGCCCGAGGAAACUUGGCUUCGGAAACGAAGGCUC'
p162
aF1.0
aa(lp163
S'Kyurem 7'
p164
aS'AAAAGCGCAGUCUAUGAAAGUGCAGAAAAGUACUGCCGAAAAGGUAGUCUGCAAAAAAGCGAAAGGCGCACCGCGACAUGCGAAAAAAAAAAAAAAAAAAAA'
p165
aF0.9411764705882353
aa(lp166
S'JF1'
p167
aS'GAUACUACUACACAUGGAAGAUACAAAAGCAUGGAAGAUACAAAGAGAGAAGACAUGACAGAUUAGAUUAUCGAAAGAUAAUCUAAUCUGAAGUCGAAAGACACUGGUCUACGAAAGUAGACCAGAACAUGGAAAACCAUGACAUGUCGCUCUCAGUAUCACUAUGCAAAGCGACGUCAAAAAGACAGUCGCAAGAUAUUAUAAGAUUAUAAUAUUACGAAAGUGAUAUUAUAAUCAUUAUAAUAUCAAAGAUACAAAAAAGUAUCCAGGUAUACUGAAAGGUAUACUUGAAACAUGAAAACAUGAAGUAUCAACCAUGAAGAGAGUCAGUCGAAAGACGACCUCUACUGGGAUACGAAAGUAUCACCAGAGUAGAUAGAUAUCAAA'
p168
aF1.0
aa(lp169
S'multilooping fun'
p170
aS'GGUUGAUUAAAAGUGUAAAGAAUGAGAGAAAAAUCC'
p171
aF0.8888888888888888
aa(lp172
S'Multiloop...'
p173
aS'GAUCAGAUCAGUCAAAGGACAGUCGAAAGACAGUCGAAAGACGGUCGAAAGACAGUCGAAAGACAGUCGAAAGACGGAUCAUAGACAAAAAAGUUUAGGGUAAUCCCGAUC'
p174
aF1.0
aa(lp175
S'hard Y'
p176
aS'AAAAGGAGUCUACGCUAAGCAAAGGCUUAGCCGGUGGCUUGGAUUGAAAGAUCCGGGUCUGUAAAAAA'
p177
aF0.9705882352941176
aa(lp178
S'Mat - Elements & Sections'
p179
aS'AAAAACAUGUGGAUCAGUGGAGCGGAUACGCGGUGAGCUGACGAAAGUCUGACUACCCCAAUUCUAAUAACCGCGGUAAUUCAUGAAAAAAAAAAAAAAAAAAAA'
p180
aF0.9619047619047619
aa(lp181
S'Chicken feet'
p182
aS'AAAAAGGAGGAGCAAAGCACGAAACGAAACCCCAGCAGGACGAAACGAGGAAGCCAAACCGCAAAAA'
p183
aF1.0
aa(lp184
S'Bug 18'
p185
aS'AAUGAGUUAAGGAAUGCUAGAUGUAUUGGGCCUUGGUCAAUCUGCUAAAAGUA'
p186
aF0.9622641509433962
aa(lp187
S'Fractal star x5'
p188
aS'AAAAACUGGUGUUAAACGUAAAAGCGUAACUUGAAAACAAGAACAUGUAAUCAUGAAGGUAAAAAUGCCAGGACACCAGAAAAAAUGGUCUGAACCGGAAAACCGGAACAUUAAAAGAUGAACUCGUAAUCGGGAAUACAGAAAUGUGGAUAGACCAUGAAAGCUUCUCUGAAGAUCAAAAGAUCAACAUUAAAAAAUGAAUAUGAAAACAUAAACUUAUAAUUGAGAGUAGAGGAGAAAAACUGUUCGGUACUUGAAAACAAGAAAGGGGAAACCCUAACCUGAAAACGGGAAGACAGAAAUGUCGUUUGAGUAGGAAAACUGGGCCGAACACGAAAACGUGAACAUGAAAACAUGGAAAAGGAAACUUUGACAGGAAAACUUGAAUGGCCCAGAAAAA'
p189
aF1.0
aa(lp190
S'Crop circle 2'
p191
aS'GGGAACUGAAUGCGACGUGGAUUAAAAAAUAUAAAAAAAAAAAAAAAAAAAAAAAAAAAAUCGGAAAAAAAAAAAAAGCCCAAAAAAAAGCUAAAAAAUGGAAAUUAAAA'
p192
aF0.9454545454545454
aa(lp193
S'Branching Loop'
p194
aS'UCCCCCGAAAAAAUGUGGUGAAAACUGGUGGGGUAAAAAA'
p195
aF0.95
aa(lp196
S'Bug 38'
p197
aS'UAUUGUGACACCUGAAAAUAAGAGAAAAAUUAAACA'
p198
aF0.9444444444444444
aa(lp199
S'Simple Single Bond'
p200
aS'AAAAAAGAAAAAAAAUGCGGGAAAACUGUUAAAAAAAGCGAAAAAAAAAAAAAAAAAAAAA'
p201
aF1.0
aa(lp202
S'Taraxacum officinale'
p203
aS'UCGGGAAACACGGACAGAGAAAUACUGCGAGCAAAAGACCCAGAGCGAAACACUCACAGUGAAAAACUGAGAUUAAAAGAAUUGGAGAGACUUUCGAUACACCAUCUAUGAUGAGUGUGUCAGAUACAAGACGGCGAUUAAAACAUGCAAAGCAUGUUAAAUCGCCGUCGAUCAGCAUGCUAUGCAUGCGAUGGUAUCGAAGAAAGUCUUUCAGACGGAAACAGUCACCGCAAAAGAGUGGCAGGGAAACACUGACAGGGAAACACUGAAUUGAAAACAAAU'
p204
aF0.9574468085106383
aa(lp205
S'Headless Bug on Windshield'
p206
aS'AGACGGAAAAUCAGUGAAACCUGGGAAAAAAAAAAAAAAAAAAAAAAAAGCCCCGGAAGCACAUGUAACUUCCAGUCUAAUAAGCGAAAAAAUUCUAAUGAUAAAAGACGAAUAAAAAGGACAGAAUUAAAAAAAGCAAAGUUUGGACUGAAGCGUCCCCCCCCCCCCAUCGCAACCUUUCCUUGCCUGCAGCGUAUUCA'
p207
aF0.96
aa(lp208
S'Pokeball'
p209
aS'AAACGGAUGCAAAAGCGAGCGUGAGAAUGAGGGAAGAUAGCUUGCGUGGAAGCCUGCAUGCUCAGCCAGCAGCUCAGCACCGUAUCCGAAAAAAAAUUGAUGAAAAAAAACGGAGGAAAAUAAAGGAAGGCCAAAUGCUACGAAACGCACUAUUAUCGUCGGUAGAACACCACUUUGUCAAGAA'
p210
aF0.9347826086956522
aa(lp211
S'Variation of a crop circle'
p212
aS'AAAAUCAAAACUGAAGCGAAAAUGCAGGAUCUUAUGAUUGCAAAACAGCAAAACGUUAAAAACCAAAAAAAAAGUGAAAAAAAAAAAA'
p213
aF0.9318181818181818
aa(lp214
S'Loop next to a Multiloop'
p215
aS'AGGGGUUGUUAAAACGUUAGGUCUGAAAGCAGACCGGCGAUGCGAAAGCAUCGCUGUAAAAAAGGCGACUCAA'
p216
aF0.9726027397260274
aa(lp217
S'Snowflake 4'
p218
aS'CAUGAAGCAUGGAUGUCCGAAAGGGAUGGAUGAUGGCCAAAGGGCAGAAGAUAAAAUAUCACCCUGAAACAGGAUUUGCCGAAAGGCUAUCUGCAUGCCCUAAUGGCUAUCUUGCGAAGCGAAAGAUGAAAGAUGGUAAGCCGAAAGGGCAUCUACAUGGUCUAAUGACCGUCCUUCAAGGAAGAACGUGAAACACGGAUGGCCGAAACCCCAUGGACAUGCCCGAAAGGCUACCCUACAAAGUAGAACAUGGAACAUAGAUAGCCUAAUGGGCAUGAUCAUGGGAAAAAACCGGGGCUUUAAAGAGGAACAGGAAACUUGCUCUGCCGAAAGGCCAUGUAUUAUUGGGAAACCACAUUCAUGAAACAUG'
p219
aF0.8162162162162162
aa(lp220
S'Mat - Cuboid'
p221
aS'GAGGGAAAAGAUGGGAAAAGCAACGAAAAGUAGCAAGGAAAAGCAAGCAAGGAAAAGAAUCAAGCAAAGAAAAGGAAGCAAGCAAGCAAAAGCAAGAAAGGAAGGUAGGAAAAGUGUGCUUCGUUGGUAGGAAAAGGUUAGUGGGUUGGUUAGUUGGGAAAGGUUGGUUUGUUGUUUGGUUGGAAAAGGUUGGUAUGUUGAAUUGUUGGAAAAAAGCUUCAUGCCUUCAGUCCUUCCCUUUCCUUACUUCUUUCCUAUCUCUGCCUUUCUUCCAUCUUUCGCCGUCCUUCCUUGGUUGCCCAUUCAACCAACCAAACCAAAGCAAGCAAGCCUAAGCAAGAAACCUAAGCAAGCCCAAGCAUCCCAAGCCCAAGCCCAAC'
p222
aF0.8789473684210526
aa(lp223
S'Misfolded Aptamer 6'
p224
aS'AAAAAACGGAAAAAGGAUCAAGAAAAAACAAAAAAAAGUUAAAGCGAAAAGAUCAAAAAAACCGAAAAAAAAAAA'
p225
aF1.0
aa(lp226
S'Snowflake 3'
p227
aS'GUCACUAAAGUACUCUACGAAAGUAAAGAUCAGAUCAAGGUGAAAACCCAGAUGAAAGCGCAUGAAAUGGGAAAACCAGUGCGCGAAAGUGCAGCUUGGUUUAAGUCAAAGGACCACAGGAAAAGCGACAAAGGUGGAAAACCAGUGCACGAAAGUGAAGAACGGAACAAGUCGAAAGAUCACAGGAAAACCAACAAAGUUCGAAAGCGAGUGGACAAAGGAUAAGAUCGUCGCAAGUCGAAAGACCACAGGAAAACCUACUAUGUAGAAAAACCAGUGCACGAAAGUGAAGCGGGGGUAAAGUCGAAAGAUCACAGGAAAGCUGACAAAGUUCGGAAACCGGUGCACGAAAGUGAAUAGCAGAUCAAGCCGAAAGGCGACAGGAAAACCGGC'
p228
aF0.9007633587786259
aa(lp229
S'Hard Y and a bit more'
p230
aS'AAAAACAUACUAACGGAGGAAAUUCCAAGCGAUACAGAAGCGUCGAAAGACGAAGAUACUAAAAUGUACCGGUCAGUAUUGUAUGAAAAAAAAAAAAAAAAAAAAA'
p231
aF0.9716981132075472
aa(lp232
S'Mat - Lot 2-2 B'
p233
aS'UGUUGCUUGCGUUUGUAAAAGGAUUAGGGAAACCAAAAGAUCCCGCUUACGAUAGCUUGAGCAUGCAAGGUUGGGGGUAAAAAAAGUGGCUGUAGGAAAACCGAAACGCCUUCGCAAAGCAUCCUCUACUUCUUUGAACCAAAGGGGUUUACGGUAGGAACAGUCUGGUGAAAACGAAAAUCUUACCCUGCCAAAAGUUAACCCGGGGCAUCAUCCGGUGGGAAAAUCAUCUGGUUUUGAAAAAAAAAUAGAUUCUAAAAGGUGGACUAUUCGUUGGAAAAAAA'
p234
aF0.7394366197183099
aa(lp235
S'Shapes and Energy'
p236
aS'AAAAAACUCUGCUAUAUAAAAGGAUGAUGUCGAAAGUCAUUUAAGCGGUUGCUUAAUACGUUCAAAGGGACAGAGCAGUGAAAAAAAAAAAAAAAAAAAAA'
p237
aF0.9603960396039604
aa(lp238
S"Spiral of 5's"
p239
aS'UAAAAGAAACAAAGAUAGAAAGAUAGAAAAGAUACAAGGAUAGAAAGAUAAAAGAUACAAAUGAUACAAAGAUAGAAAGAUAGGAGAUACAAAGAUAGAAAGCUAGAUAGUACAAAGAUAUAAGAUACAAGAUACAAGAUACAGUAGAUAUAGACAGACGUCAGUGAAAAGCAUUGGGGGGGCGUCAAAAGGUCUGAAAAAAUCUGAAAAGGUAUCAAAAAGUAUCAAAAAGUAUCAAAAGGUAUCAAAAGGUACUUAAAACUAGCAAAAACUAUCAAAAAGUAUCAAAAACUAUCAAAAACUAUUAAAAAGUAUCUAAAAGUAUCAAAAAUUAUCAAAAACUAUCAAAAAGUAUCAAAAACUAUCAAAAGCUAUCAAAAAGUUUCAAAAAAAAAAA'
p240
aF0.9949622166246851
aa(lp241
S'Campfire'
p242
aS'AAAAGACUCCGACAAAACACCAAGAUGUAAAUCAUUUCUUACGAAGUAAGGAGAUCUUACAUAGGAGAAGUGUGGAAACUACGCUUCCCCGACGACACUAUGAAAGCGGCGAUAGCAUUCGAAAGAAAGACGGAAGUACGCAUGAUAGGUGUAUCAACUUAGCCACUUCUAAUGGAGGGCAAGGGCCACUCUAUGAGUUGAGCCGUGAAGUC'
p243
aF0.8726415094339622
aa(lp244
S'Anemone'
p245
aS'AAAGCAGGAGAAAUUCUGCGGUCCUAAUGGGCCGUAUACUAAUGUGUACCACUGUAAUCAGUGCGAUUGGAAACGAUUGGUUAGGAAACUAGCGAUUUGAAAAGAUCGAAUAGGAAACUAUUCAAGUGGGAAACCACUGCACGGAAAACUGUGUGGUACGAAAGUACCGGCUGGAAGACUAGCCGACAAUAAUUUGUCGCAUGUUAAUACAUGC'
p246
aF1.0
aa(lp247
S'Fractal 3'
p248
aS'AAAAACCUCACACAGGAAAAAUCAAAAAUCAGUGAGUGCGGGAAACCACAAAAUGACACAACUGGGGAAAUCGAAAAAUCAAGUAGCUAGGAAAACCGUAUAAGCAAACAGAGGAAAAA'
p249
aF0.9159663865546218
aa(lp250
S'Kyurem 5'
p251
aS'AAAAACCAGCUUCAGGAAACUGGAAAAACGCGCGGGCAAAGCCUAAAUGGCGCCCGUCAAAAAGGACAGCGCCGUGGGAUCUGGGAAAAAAAAAAAAAAAAAAA'
p252
aF0.9423076923076923
aa(lp253
S'Snowflake Necklace ( or v2.0 )'
p254
aS'GAUAUUAGCUGAUGUAGAUACGGCAAAAGGAAUCAAAAAGAACGAAAAAGGAUUAAAAAGAAGAAAAAACUAGUAUCAUUCAAAAACAAACAAGAACCAAAAAGGAUCAAAAAGAAGAUAAAUUCAUUUAAAUAACCCAAAAAUGAUUUUGAGCCAAAAAGGCAGAGAGACCAAAAAAGUUCAAAAAGAUCCAAAAAGGAUCAAAAAGAGCUAAAAAAGAUUCUCAGUUUAAAUGACGCACAGAUCAAAAAGAAUCAAAAAGAAGGAAAAACCAUCAAAAAGAAUAAAAAAUGAUUGUGGGGCAAAAAGCCACAAAGACCUAAAUAGAGCAAAAUGAACGAAAAAGGAUCUAAAUGAAGGUAAAUCCAUUAUGAACAUCAGCUAAUAUC'
p255
aF0.87146529562982
aa(lp256
S'Methaqualone C16H14N2O Structural Representation'
p257
aS'ACCCCAAGUUAAGAUCAGUCAAUGGAAACAUAGGUACACGAAAGUGAGUGUGUAGAAAUACGGUGACACGAAAGUGACAGAAAAAAACUGACACUUACAGCCAGACGCAAGGAGAUCACGACAAAGAACAGGAACGAAACGAAAAAAAAGUGAGUGCCACGAAAGUGCAGGAAACUGGUCGAAAGACCAAGACAAAUGACGGGAAGGGAGAUAGACAGAGACACAGAAAAGUCGAAAGAUACUGAUACGAAAGUGAGUCAGUCUAAUGACGCUGGGUGGAAAGACACUAGGUCGACGAAAGUCAUCGAAAGAUACACGAAAGUGGACGGUCAGCCAAAAGUCCAGAACCCGCACA'
p258
aF0.9492957746478873
aa(lp259
S"Cat's Toy 2"
p260
aS'AAAACGUAGUUUUAAAAGAGAGAAAAAAAAAAAAAAAAAAUAAUGGAGCGAAAACGAAACGCAAGCGAAAAAAAACAAAAAAGCUGGGCUAUGAAAA'
p261
aF0.979381443298969
aa(lp262
S'Zigzag Semicircle'
p263
aS'AAAGCGACUCAAAGAAAAGCAUAAAAGUUGAAAA'
p264
aF0.9411764705882353
aa(lp265
S'Short String 4'
p266
aS'AAAAAGAUAGGGAGCGGGGAUGGGUGGAUAAUUUCCAACUAAUAACAGGUUAAUACAGGAACAAGACAGCAAUUGCAAAAAAAAAAAAAAAAAAAAA'
p267
aF0.9587628865979382
aa(lp268
S'Gladius'
p269
aS'GGAAACAAUGAGGGAAAAAAGUGAAUUAAGUCAGUCAAAGAUCGAAAGAUCGAAAACAGGCGUCGAUGAUACAAUAGAGGAUGAGAUAUUCCAGAUAAUCAAUAAAGAUUAGAUCAGGAUCGAAGAUCAGAUACAAUCUCUAUUGAUUAUCGAGGAUAUUAACGCCUCAAAAGUAUAAAAGACAAGGGUUUUAGACGAAGUCAGAAGGUGCGGGUAGAUGGUGAGAAGAUUAUAAGGUCUACAGUUAGCAGGUACAGAUUAAAUGUAGGACGCAAAAGCGUUUAAAAAACUAGUACGUACUCGCUAAACGUGGAUCGAAAAAUCACAACACCUCAAAUCAAUACCUUCGGUGCGAAAGCACAAAGACAGACAAUGAGCUCAAUAAACAAAAAAACGAAAG'
p270
aF0.9
aa(lp271
S'Thunderbolt'
p272
aS'AUUUGCUACAAAAAAAAUACAAAUGAUAAAAACAAAAGGGUGAUGGGAAACAGAAACUUAAAAAAAUCAAAAAGAUUGAAAAUAGAACUGGUGUGAAAACAGGGAAAAAAGUAAUCGGGAGACAAAAAAGAAAUACGUAGAAAAAUCAAAAAUGCGCAAAAGUAGCCACAAAAAGAUUGACAGAAAACAAAAACUACUGGGUACCCAUUCGAAAAGAUAAUUGACUACAAAAAUGCCAAAACGGAUGAAAAUCGAUCAGCAGCCAAAAAAAAAAAGAUCCAAAAAAAAAACGAACGGGAGUUAUUUGAAAACUAAAAAAUGAAAAAGAAUGGAAGAAGACAUUCGUCACAAAAAAAACGCGAAGGGAAAAAAGAAAAAAACAGUAGUUUGUA'
p273
aF0.8903061224489796
aa(lp274
S'Mutated chicken feet'
p275
aS'AAAAAAAACAAGAAUACGGUGAUAAAAUAAAUUGUUUUAGCGCGAAAUGCGGAAACUAAAGCGGUGGAGGACGAAGAGAUCUAUUGAAGUCGCGAAAAAA'
p276
aF0.88
aa(lp277
S'Chicken Tracks'
p278
aS'AAAAAAAUCUGUUAUUGAGAAAAAUUGAUGCAUUAAUGAGCUAUUUGGAAAUAGGAUGACAGUAAUUAACCAAAGAAGAUGAUGGAAUAUUUAGAUAAGGUAUCGACCUAUAAAAA'
p279
aF0.9482758620689655
aa(lp280
S'Looking Back Again'
p281
aS'AUCAAGUCUGGGAAAAAGGAUGCUAUGCAUUCAGCAAAAAUCCACAAGGCAAGGCCGUGUGCUACAAACGUCGAAAGACGGAAGGUAGCUAGACAAGACAUUAUCAUUAAAAUGAUACGAAAGUAUCUAAAAAGAUGUUAGGCCACAAAGUAUCCCUGCAAAGCCGGGCGAUUCCUCGUGCAGGUUUAAGGAGAUAAAAAUAUCGACAAUGUGAGCCGGAUCGAAAGAUAAGAUCGCAAAUUUCCCAUAUGUGAUAGGUCAAAAAUAUCGUCCAAAAAAAACGUGGAAAACAUGGGAAAAACGUAGACAGGUUAAAAAAGCCUGUACUAAUGUAUAGAAGCCCCAAAAGAGAUCUGAAAGAUCAAGGCGCAAACAACCGUCGCAAAGAU'
p282
aF0.8946015424164524
aa(lp283
S'Multilooping 6'
p284
aS'AGCCUAGUAUGUACGUAAUUUUAUGAGUCGAAAGACUCUUGCUUGAUACUAAUGUAUCGGAACGAAAGUGCCUAAUUAGGAA'
p285
aF0.9146341463414634
aa(lp286
S'Cesspool'
p287
aS'GAUGAUGACAACUACGCUUCAUAGGAAAAUACAAAGAGUUUUGAAGAGCGUAAGUGUAUUUUGAAUAUUAAAAAGCUAAUAAAAAGUAACUUGUAGAAAAUGAGAGUUUACAUGUGAAGAGAACAACUUUGUAGGUUAGAAAUCUCACUUUGAAGAUUGAAAAAAAAAAGUUCUUAGAGGAUCAGGAAACUAAUGUGAGAGAAACAAAGUUGAUAAUGUGCGGAGAAAGAAAUGCUAGUGUAAAGAAUUAAAAAGAAAAUCCCUGCUAAGGCUAAAGAAAGCGAUAGUUUGUAGUCACGCACAAAAAGAUUGGAAGUUAGAAAUUAUGGUUUGAAAACUCAAAAAGAAAAUACUGUCC'
p288
aF0.6256983240223464
aa(lp289
S'Hoglafractal'
p290
aS'AGUAGGCACAUCUAAAAUAUUUAAAAAAGGAUGCGAUGGAUAAAAAGAGAAAAACUCUUACCCACAAGGCGAAAGUCGUGGGUUAAAGAUCAAAGGUCGAAAAAGAUCGAUCAACAAAGCAAAAAGAAGUUACAUCGAAAGAGUCCGACUAAAGUCAAGUCAAAAAAGACGACUCAGGAAAAACCGGGUGUAAUUACACAGUGAAAAAGGAAGAAAAAACCCAUGCAAAAAGCAUCGCAAGAAGCAGGCAAAAAAAUCAAAAAGGGUGGAAAAAUUGACCUGUUAGAAACUGACAGAAAAAAAGUCUGCGAAAAACCAUGAAAAUCAUGGAAAGCCAGGCCAACAAACACGAGAUCUACAGCAAAAGCGAGAAAGCGACAUUGAAGAUGUCUGAUCCGGG'
p291
aF0.88
aa(lp292
S'Bullseye'
p293
aS'AAAGAGGAUCAAAGAUCAAGAUUAAGGAACAAGAUAAACGGUCCUUAAAAAAAACAUUAUCAAGGAACAUCGGUGAAGCUGUAGAUCCAUCAUCAUGAAAAAAAUAGGUAUAUAUUAAGAACUUCGAAGAAGAAGAACUAUUAAAGUUUAAAAAAACAUAAAUAAGUUUCAUGAAGAAAUUUCUAGACUGAAACUUGUGAAA'
p294
aF0.8415841584158416
aa(lp295
S'Shooting Star'
p296
aS'CCUUAUGAUCGCAAUGGGAGGAGUCGCAGUCAGUCAGCGAAAGACGAACGAUAUAUUUCCAACCAUUGCAGGUGUAGGAGAGGCGGUCAGGCAGAGUCAGAAUAUCGAAAGCAAUUACGACGAUGCACGACAGAUUGCGGAACAAAAGAUUAUAUAUCGAUGCGAAGCAUCAGAAGCAAGGCUUUGUCGAAAGUCAGAUCAAAUUAGGUAACAUGAAAGUAUUAGAAACUGAUACACAUGCUAUUCACAGAUGGCUACCCAAAGGGUGGCAUGUGCGAUGCGUAUAGCCUUGAAGAAAGUCGGUCAGCUUACUGUAACAUCAUAGAAAUUGGAUAGUACAGAGAUUUGAAAGUAGCAGUAAGGA'
p297
aF0.7939560439560439
aa(lp298
S'Teslagon'
p299
aS'AAAAAAUCAAAACGACCGCGAAAAAAAUCAAGACCCCACCCCCCCAGGUAAAGAAUAAGUCGCCCCCCCCCCCAACCAUGAAAACGACUAUUAAAAAAACCCCCCCCCCCCCCUAAGUAAAACGAACGCAAAAAAAAUAAGCGCCCCCCCCCCCCAAGUAAAGAAUAAUGUGUCCCCCCCGGCAUCCGUGAAAAAGAUAGAGAAAAAAGCCGCCCCCCCCCCCCAAGGAAAACGACCUAGAAAAAAGACACCCCCCCCCCCCCCCAAGGAAAGAAUAGAGCAACCCCCCCCGCAACCAGUAAAACGACCUCGAAAAAAACCGAAAAAAAAAAUACGCCCCCCCCCCCCAAGCCCUGAAAAGGCGAGGAAAAAAGGGAAAAAA'
p300
aF0.8324607329842932
aa.