(lp0
(lp1
S'Simple Hairpin'
p2
aS'GAUACAAAAAAGUAUC'
p3
aF1.0
aa(lp4
S'Arabidopsis Thaliana 6 RNA - Difficulty Level 0'
p5
aS'GCGAUGCAAAAGAGAAAAAAAAAAACUCGCGCGUGCGAGAUAUUAUAUUAUAUUAUCAAAGAUACAAAAAAGUAUCAGAUAAUAAUGAUAUAAUAUCGAGCACGCGCAAGCAUCGC'
p6
aF1.0
aa(lp7
S'Prion Pseudoknot - Difficulty Level 0'
p8
aS'GAGAUCAGAUCAAAAGAUCGAUACUCAAAAAAAAAA'
p9
aF1.0
aa(lp10
S'Human Integrated Adenovirus - Difficulty Level 0'
p11
aS'GACUGUGGUAAAACAGCUAUGGAAAAAAAAGAGACCGCGAGAGGCCUCAGCGCUGGCAGAAGCGAUGGAUUCUCGAAAAAAAGAGGAUCCAUAAAACGCGCCAGAAAACGCCCUAAGACUCGCAAAGCCAUGGAAAAAACAUGGCGGUUGAAAAAAAAAAAUAUAGCGGUUUAAAAUACCACAAAGGUCAAA'
p12
aF1.0
aa(lp13
S'The Gammaretrovirus Signal - Difficulty Level 0'
p14
aS'AAGAGAAGAUAUGUAAUCAUGUCGACGCAAAAAAGAUCAAGAGAGAUCCUAUGAAAACGUAGAAAAGAUCCUCGAUCAAGGGGGUGCAAAAGCACCCCCAA'
p15
aF1.0
aa(lp16
S'Saccharomyces Cerevisiae - Difficulty Level 0'
p17
aS'ACUGUUCGAUCGAAAAAAAGAUCUUCAAAAAAAAAAAAAAAGGUAAGGUUAUUAAAAAUAUAACGGACGGUAAAUGGGAGGCAAGAUCUAAAAAAUGAUCGGGGAAAAAAAAAAAACACAAAAGCUACAAAAAAGGUAGUGGUUCCCUAAAGCGAUACAAAAUCAAAAAAAAGAUUGGUACCGAAAAAAGGUAUCCAAACGUUUAAAAACCAGACGGUAUCGCGAAAUCGAUGCAUGACGGAAAAAAAUGUCGGCAUGUAAAAAUCAUGCCAAAAGAUGCAAAAAAAGCGUUGCAUCGAGAAGGCGAAACAACAGCGAAAAAAAGCUGGCUAUGUAAAAAUCAUAGUAAAAGAUACAAAAAAAGUAUCGCUUCGCAAAA'
p18
aF0.9894459102902374
aa(lp19
S'Fractal 2'
p20
aS'AAAAAGCGCCUGCAAAUAUAUGUGACAGGGGUAAAAAAAAAAACUCAAGAGCAAAAAAAAAAGCUCAAGAUCAAAAAAAAAAGAUCAAGUCACAUAUAAAAGAAAUCUGUCAAGAGCAAAAAAAAAAGCUCAAUAGCGAAAAAAAAAGCUGAAAACCAAAAAAAAAAGGUUAGGACAGAUUUCAAAGUUAUGUGUCAUGGGCAAAAAAAAAAGCUCUAGAGCAAAAAAAAAAGCUCAUGAUCUAAAAAAAAUGAUCUAGACACAUAACAAAGCAGGCGCAAAAA'
p21
aF1.0
aa(lp22
S'G-C Placement'
p23
aS'GAUCAAAGAUCA'
p24
aF1.0
aa(lp25
S'The Sun'
p26
aS'GAGAGAGGGGCGAAGUCCAAUCUCUCAAAGGGACUGAUGCACAGUAUAAAAGCGCGAAUUGAGUGAUGCAAGGCAUAACCACACGACGGGAUCCGCGUAAAAUGUAAGGUCCUAAAGAGAGCUCUCGGAACGAGAAGGCCUCGAAGUGAACUGGCCAAAGGUCAAAGCCACGAAGCGAGUGAUGUAAAACAUAACACCGCGAGAACAGCAAUUCGAAGCAUAAUCCCUCAAGCAGAGUUAUCGAAGCGAUAAAACCUG'
p27
aF0.8604651162790697
aa(lp28
S'Frog Foot'
p29
aS'AAAAAAAAAAGUGCGAAAGUACGAGAGAAAUCUCGUCCUAUGGAC'
p30
aF1.0
aa(lp31
S'InfoRNA test 16'
p32
aS'GCUAUGAGAGAUGUCAAAAGACAUACUACACAUAGC'
p33
aF1.0
aa(lp34
S'Mat - Martian 2'
p35
aS'GAUCAAAAGAUCAAAGCGAUGCAAGCGAUGCAAAAAAAGCAUCGCGCAUCGCAAAGCGCGUGCAAAAAAGCGAUGCAGCGAUGCAAAAAAAGCAUCGCGCAUCGCAAAGAUAUUAUAUUAUCGAAAAAAGAUAAUACUGAUAUCAAAAAAGCACGCGCAAAGAUAUUAUAUUAUCGAAAAAAGAUAAUAAAUGAUAUCAAAAUACAAAAGUAU'
p36
aF1.0
aa(lp37
S'square'
p38
aS'GCGCGUCGCGUGCGCGUGUCGCGUGCAAAGCACGCAAAAGACACGCAAAAGCACGCAAAAGACGCGC'
p39
aF1.0
aa(lp40
S'Six legd turtle 2'
p41
aS'AAAAGUUAAAACAAAGCUAAAGAAAAAGCGAAGUAAAGGCAAAUCUAAUGCGAAUAUAAAUGAAUGAUGAUGGUAAAAAAAAAAAAAAAAAAAAAAAA'
p42
aF0.9591836734693877
aa(lp43
S'Small and Easy 6'
p44
aS'AAGUGUAAAUUGAAGGUGAAAAAAAUGCUU'
p45
aF0.8666666666666667
aa(lp46
S'Fractile'
p47
aS'AAAAAAAAAAAAUGAAAAUAAAACAAAAGUAAAAGUGAGCAAAUGAAAGUAAAACCAAUCUAAAUAAAAACAAUCAAAAGGAAAAAAAAAAAAAAAAAAAAAAAA'
p48
aF0.9619047619047619
aa(lp49
S'Six legd Turtle'
p50
aS'AAAAAGCAAAAUCGAAAGAAAAACGAAAAGGAAAGGAAAAACCAAAAUGCAAACAAAAAGCAAAAGUAAAACUAAAAGUAAAGGGAAAAAAAAAAAAAAAAAAAA'
p51
aF0.9619047619047619
aa(lp52
S'snoRNA SNORD64'
p53
aS'GCUAUGAAAAAGAGAAAAGAGAAAGAUACAAAAAAAAAAAAAGUAUCGAAACUCAACUCAACAUAGC'
p54
aF1.0
aa(lp55
S'Chalk Outline'
p56
aS'AAAAAGAGCAGAGAGAAAACUACUCAAUCAGAGAAAACUCGAUAGCUAGCAAAAGCAUAGCAGCUACUAAUGUACGCGUUCAAAAAAAAAAAAAAAAAAAAAAA'
p57
aF1.0
aa(lp58
S'InfoRNA bulge test 9'
p59
aS'GCGAUGCAGAGAGAGCGAUGCAAAAGCAUCGCCCCGCAUCGC'
p60
aF1.0
aa(lp61
S'Tilted Russian Cross'
p62
aS'AAAAGUGUGUAGUUAAUACUGCCUCAGCGCGAAAGCGUGUCCGAAAGUGGACACUUCAAAGGAAGGGGGGGCGAAAGAGUCGAUAAAAAAAAAAAAAAAAAAAAA'
p63
aF0.9809523809523809
aa(lp64
S'This is ACTUALLY Small And Easy 6'
p65
aS'GAGAAAAAAAAAAAAAAAAAAAAAAAAAAAAAAAAAAAAAAAAAAAAAAAAAAAAAAAAAAAAAAAAAAAAAAAAAAAAAAAAAAAAAAAAAAAAAAAAAAAAAAAAAAAAAAAAAAAAAAAAAAAAAAAAAAAAAAAAAAAAAAAAAAAAAAAAAAAAAAAAAAAAAAAAAAAAAAAAAAAAAAAAAAAAAAAAAAAAAAAAAAAAAAAAAAAAAAAAAAAAAAAAAAAAAAAAAAAAAAAAAAAAAAAAAAAAAAAAAAAAAAAAAAAAAAAAAAAAAAAAAAAAAAAAAAAAAAAAAAAAAAAAAAAAAAAAAAAAAAAAAAAAAAAAAAAAAAAAAAAAAAAAAAAAAAAAAAAAAAAAAAAAAAAAAAAAAAAAAAAAAAAAAAAAAAAAAAAAA'
p66
aF1.0
aa(lp67
S'Shortie 4'
p68
aS'GCAAAAGCAGCGAAAGC'
p69
aF1.0
aa(lp70
S'Shape Test'
p71
aS'AAAAAGAGAUCAAGAUACAAAAAAAAGUAUCAAGAGAUAGAGAUACAAAAAGUAUCAGAUCAAAAGAUCACUACUCGAGAUCGCGAAAAAAAAAAAAAAAAAAA'
p72
aF1.0
aa(lp73
S'The Minitsry'
p74
aS'GAGAAAAAGCAAAAAAGACAAAAAGGUGAAAAGGGGAAAAAAACCUAGCCGGUCCUGCGCUC'
p75
aF1.0
aa(lp76
S'stickshift'
p77
aS'AAGCGAUCCGAAAAACGAGAUCGCAA'
p78
aF1.0
aa(lp79
S'U'
p80
aS'AAAAAGAUACAGAGAGCAGAGCGCGUGUCAAAAGACACGCGCCGCCCGUAUCAAAAA'
p81
aF1.0
aa(lp82
S'Still Life (Sunflower In A Vase)'
p83
aS'AAACAUCAAUAGACAAAAAGUUUGGAGACUGAAAAAGUAAGGAUGCAAAAGGCAUCAAUUGCCGCAUGUUCGAGAAACAAAAAAUAUCAGGAUACAAAAAGUAUCAGAUGUUAUAUUACAUUAUAAUACGAUAUAAAAAAGUAUCAGAUACUAAAAAAAAAAAAGAUCACCCCCCCCCCCCCCCCCCCCCCCCCCCCCCCCCCCCAAAGGAUCGAAAAAAAAAAAUGUAUCGAAUCAAAAGAUUCAGUGUUAUAAUGUAAUAUAACGUCAAGAGUCAAAAAGCCUUAAAUAAGAAAAAGUCCUAAGGUGAUAAAUUCACCAAGAUCCAAAAAGGAUCGAGAUGUGAAAGCAUCGACAUCAAAAAGUGAUGAGAUGGAA'
p84
aF0.9682539682539683
aa(lp85
S'Quasispecies 2-2 Loop Challenge'
p86
aS'AAAAGGAACGUACUGUAUCAAAAGAUAAUGUACAGGUGAACCAAGGGCACCGGCGAGAGAGAAAGAAAAUUUAGCGAUCGCGUUCAAAAAAAAAAAAAAAAAAAA'
p87
aF1.0
aa(lp88
S'Corner bulge training'
p89
aS'AGCUAUCGAUACAAAGUAUCAAAAGAUAGCA'
p90
aF1.0
aa(lp91
S'Spiral'
p92
aS'AAAAAGAUCAGCUAUCAGAGAGAUACAGAUCAGAUCAGCAGCAGCAGCAGCAGCAAAAAGCGCGCGCGCGCGAUCGAUCGUAUCCUCGAUAGCGAUCAAAAA'
p93
aF1.0
aa(lp94
S'InfoRNA bulge test'
p95
aS'AAAAAAAAAAAAAAAAAAAAAAAAAAAAAGGACAAAAAAGGACAAAAGGACGAAGGACGAGGACAGGACAAAAAGUACCAGUACCAAGUACCGAAGUACCAAAAAGUACCAAAAAAGUACCA'
p96
aF1.0
aa(lp97
S'Worm 1'
p98
aS'AAAAAAACACGGGCUCGGGACGUUAAAAGUCUUCCAUUGAUAGGA'
p99
aF0.9111111111111111
aa(lp100
S'just down to 1 bulge'
p101
aS'AAAAAGGACAGAUACAAAAGUAUCAGAGAAAACUCAGUACCAAAAGAUCAGAGAAAACUCAGAGAAAACUCAGAUCAAAAAAAAAAAAAAAAAAAA'
p102
aF1.0
aa(lp103
S'Iron Cross'
p104
aS'AGAGAGAGAAAGCCAUAGAAACUAAGAGAAAACUCAGGCAAAGGCAUAGAAAACUAAGAGAAACUCAGCUAAACGGAUAGAAAACUAAGAGAAACUCACCGAAACUCACAGAAACUGACUCAA'
p105
aF1.0
aa(lp106
S'loops and stems'
p107
aS'AAAAAGCGAUGCAAAGAUAAAAGAUCAAAGGUCAAAAAAAAAGAUACUAAAAAAAAAAUGUAUCAAAGACCGAAAGAGCAAAAAAAAAAGCUCAAAGAUCAAAGAGAAAAAAAACUCAAAUAUCAAGCAAAAAAGCAAAGCAUCGCAAAAA'
p108
aF1.0
aa(lp109
S'Water Strider'
p110
aS'AAAAAUCUUCAUGCAAGAGCUGAAAGGCUCCGAAAGGGCUACAAGAAGGGGGCAAACUCCAGGAAAGGGACUCGCUGGGUGAGAAAAAAAAAAAAAAAAAAAA'
p111
aF0.9223300970873787
aa(lp112
S'The Turtle(s) Move(s)'
p113
aS'AAAGCGAAAGCAGAUGCGUGGGCGAAAAAAAAACGUCCGCGCUAAAGAUCAAAAAGAUCAAAAACCGAAAACGGGAGGAUACAAAAAAAGUAUCAAAAGGGAAGGAGAAAUCAAAAAGACAAAAGUCAAAACUGAUGAAAAAAAUAUCAGGAAGCAGGAAACUGAAAAAGCUAUGAAAAGAGCAAAAAACUCAAAGGAAAAAAAGCCUAAAGAUGCAAAAAAGCAUCAAAGUGGAAAAACCGCAACGUAGUAAAAAAAAAGGGAAACCCAAAAGCGAAAGUAAAAAUAUAGCAAAAAAAAAAGCUAUUAAAAACCC'
p114
aF1.0
aa(lp115
S'Adenine'
p116
aS'GAUACAGCUAUGAGCUAUGAGCUAUGAGCUAUGAGCUAUGAAAAGCUAUGAAAAAACAUAGCACAUAGCAGAUACAAAGCGAUGCAAAGCAUCGCGUAUCACAUAGCAGAUAGAUGUAUCAAAGAUACAUAAACUAUCACAUAGCAAAACAUAGCAAAACAUAGCAAAAGUAUC'
p117
aF1.0
aa(lp118
S'Tripod5'
p119
aS'AUCCUGCUGCUAGAUGCAGGGCCGAAAAGGUCCAGGUA'
p120
aF1.0
aa(lp121
S'Shortie 6'
p122
aS'GAGAAAUCUGUGAAAACUGCGAAAGUUGCGAAAGU'
p123
aF1.0
aa(lp124
S'Runner'
p125
aS'AAAAUAAUCGGCUGAAAAGGACCCAAGGUCACAGCAAGACGUAAAGAGCAAGCUAAAAUAUUAGCCGCAACGGAAACAAUGGCAAGGUGAAACCGUAACCGGGCACAGAUUUAAAA'
p126
aF0.9482758620689655
aa(lp127
S'Recoil'
p128
aS'AAAAAGAUACAAGCAAGCAAGAGAAGAGAAGCAAGCAAAGCAGCACUCACUCAGCAGCAGUAUCAAAAAAAAAAAAAAAAAAAAA'
p129
aF1.0
aa(lp130
S'[CloudBeta] An Arm and a Leg 1.0'
p131
aS'AAAAAGAGAGAGACAAAAGUACUCGGCAGCAAAAGCGCCACUCAAAAAAAAAAAAAAAAAAAA'
p132
aF1.0
aa(lp133
S'[CloudBeta] 5 Adjacent Stack Multi-Branch Loop'
p134
aS'GAUACGAUCGAAAGAUCCCAUCAAAAGAUGGCUUACAAAGGUAGGGCACGAAAGUGCGUAUCA'
p135
aF1.0
aa(lp136
S'Triple Y'
p137
aS'AAGAAGACUGUUAACCAUAAUAUGAUGUGAAAGCGUCCAGUGUCGGAGAGGAAUUUCUUUCUGAUGGAAUAGCAGUGGAAAAAAAAAAAAAAAAAAA'
p138
aF0.8865979381443299
aa(lp139
S'Misfolded Aptamer'
p140
aS'AAUCUAAAAAGGCAGAAACUGAGCAAAAGCAAAAAAAAACCGAAAUGAUU'
p141
aF1.0
aa(lp142
S'Flower power'
p143
aS'AAAAAGAACGAUAGAAAUUCAUUUUGUUUUUUAAGGACGUCGAAACAAAUUUAUUAAAAGUAGGAAAGACGAAGUAUCUUUUAAAAAAAAAAAAAAAAAAAA'
p144
aF0.9019607843137255
aa(lp145
S'Kudzu'
p146
aS'AAAAAGUGAGUAGUGCUACUGAACAGCGAAGCGUACCGUUGGAAUGAAAGAUUGGGUCAGAAACUCUAACUAACGUCGUAUGAAAAAAAAAAAAAAAAAAA'
p147
aF0.9801980198019802
aa(lp148
S'"1,2,3and4bulges"'
p149
aS'AAAAGGGAAAGGGCUAAAGGGGAAACCCGGUGGAAAUCUACUACCAAAAGGUCGGUGUAAUCAAAAUAGGGGAAACUGAAGAACUAAAAAAAAAAAAAAAAAAAA'
p150
aF0.9619047619047619
aa(lp151
S'medallion'
p152
aS'GCUAAAAGAUAGCAAAAGCAAUAAGAGAAAAUUCAUAGAAAACUAAGAUUUGAAAACAAAUCAGACUGAUGACAUGCAUCAAAAGGUGUAGGAGUAAAAUAAUAGAAAACUAGCCUAUCAAAAGAUAGGAGGCAAAGGUUAGACGGCAAAAGCCGUCGAAGAAAAUUUAUAGGAAACUACCACGUAAAAGGGUAUUAUCCAAAGGAAGGACGUCAAAGGAUGUAAUAGAAAGUUAAUACAAAAGAAGCAUAACAAAGGUUAUGGUAUAAAAGUAAGAGCUUAAAAGAGCUCAUAGAAAACUAGUACAAAACUAAUACGUCGCAAGAUGUGAUUUAGC'
p153
aF0.827893175074184
aa(lp154
S'[RNA] Repetitious Sequences 8/10'
p155
aS'AGGAAAAAAGCAAAAAAGCAAAAAAGGAAAAAAGAAAAAAAUCAAAAAAGCAAAAAAGCAAAAAACCAAAAAACCAAAAA'
p156
aF1.0
aa(lp157
S'Documenting repetitious behavior'
p158
aS'AAAAAAUGGAAAAAAAAAUGAAAAAAAAAUCAAAUAAAAAGGAAAAAAAAAGCAAAAAAAACGUGAAAAAAAAUGAAAAAAAAGGGAAAAAAAAAAGAAAAAAAAAGGCAAAAAAAAGGUAAAAAAAGAGAAAAAAAAGGGGAAAAAAAAGCAAAAAAAAAUAAAAAAAGAAAUUAAAAAAAACUAAAAAAAAGUCAAAGAAAAGGAAAAAAAAAAACAAAAAAAAUGAAAAAAAAAAUCAAAAAAAAACCAAAAAAAAACUAAAAAAAAACUAAAAAAAAUAGAAAAAAAAUCCAAAAAAAAACUAAAAAAAAACCAAAAAAAAACCGAAAAAAAAACAAAAAAAAACCGAAAAAAAAUCAAAAAAAAAGAAAAAAAAAACAAAAAAAAAACCUAAAAA'
p159
aF0.9825
aa(lp160
S'7 multiloop'
p161
aS'GCAGGGCACAAAGGUGUCGGCUUGAAAAAGCCGCUCCGAAAGGAGCGAGAGAAAGCUCUCGAUGCGAAAGUAUCCUUACAAAGGUAGGCUGC'
p162
aF1.0
aa(lp163
S'Kyurem 7'
p164
aS'AAAAAGCGCGGCGUGGAAACACAAUAAAAUACGAGGCAAAAUGCCGUCAAGCGAAAAAGCUAUAUGAUUGACCGGCUAGCGCGAAAAAAAAAAAAAAAAAAA'
p165
aF0.9215686274509803
aa(lp166
S'JF1'
p167
aS'AUAAUAGAUUAUGAUACAAGAUACAAAAGCUAUGAAGAUACAAAGAGACAAGAUAUCAGAUAUUAUAUUAUCAAAAGAUAAUAUAAUAUCAAGAGAAAACUCAGCGCGUGUCAAAAGACACGCGCAAGAUACAAAAGUAUCAGAUAUCAGUCUCAGUAUCACAUAGCAAAGCGCGAUCAAAAAGAUACGCGCAAGAUAUUAUAAGAUUAUAUUAUAUCAAAAGAUAUAAUAUAAUUGUUAUAAUAUCAAAGAUACAAAAAAGUAUCGAUAGAUGUCAAAAGACAUCUAUCAAAGAUGAAAACAUCAAGUAUCAAGUAUCAGAUCAGAGAGAGAAAACUCCUCGAUCAGCGAGUAUCAAAAGAUACAUCGCUUAAUACUACUUAUAAA'
p168
aF1.0
aa(lp169
S'multilooping fun'
p170
aS'GGUAAGAGGGAAAUAGUAAUCGUAGAUGAAAACUCA'
p171
aF0.8333333333333334
aa(lp172
S'Multiloop...'
p173
aS'ACUUAGAUCAGUCUAAUCUAAGAGAAAACAAAGUCAAAGGGCUAAGAAAACUCUGUUUAACGCCAGCAGAAAUGCGGUUCAUAUAUAAAAAAAUAUGUGCAAACGUAAAGU'
p174
aF0.9459459459459459
aa(lp175
S'hard Y'
p176
aS'AAAAUAGACGAAAAUAGGGGAAAGUUCUUAUAUUCGAUUUCUCCCUAAUGGGAGAGAUCGUCUUAAAA'
p177
aF0.9705882352941176
aa(lp178
S'Mat - Elements & Sections'
p179
aS'AAAAAGAUCUGGAAGAAAGGAGGGGUCAGGAGUUCACCUGAGCAAACCCUCUGGAACCACGAUCAAAAAAUAUCACGAACUGAUCAAAAAAAAAAAAAAAAAAAA'
p180
aF0.9619047619047619
aa(lp181
S'Chicken feet'
p182
aS'AAAAAGCAGGUGCAAAGCAACUAUCUAAUGGGUGGCACGUAGAAAUCAAAGAAUUUACCCCCAAAAA'
p183
aF0.8507462686567164
aa(lp184
S'Bug 18'
p185
aS'GGUGAGAUGUUAAGGGGAGCGACAAGGAAGACAAGGGCCACGAACUAAAAGCA'
p186
aF0.9622641509433962
aa(lp187
S'Fractal star x5'
p188
aS'AAAAGGUAGGUCGAAGAUGAAAACAUCAGGAUCAAAAGGUCAAGAUUAAAAGAUCAAUACUGAAAAGUAAAUGACCUGCAAAAAGCACGUGCAAGAUAGAAAUAUCGAGAGGUAAUCCUCAAGAUCAAAAGAUCAAGAUCAAAAGAUCGAGCACGUGCAAAAAGCGCGGGCAAGCGCAAAAGUGCAAAGCGAAAACGCUAGCAUUAAAAGAUGAAUCUUAAAAGAGAAAGUCCGCGCAAAAAGCUCGUUCAAGGUCAAAAGACCGAGAUCAAAGGAUCAAUAUUGAAAGAUAGAGAUGGAAAUAUCAAGGACGAGCAAAAAGGGCGUACGAUAUCAAAAGGUGAAUAUCGAAAGAUAAAGAUCAAAGGAUCAAGAUUAAAAAAUCAAGUACGCUCAAAAA'
p189
aF1.0
aa(lp190
S'Crop circle 2'
p191
aS'GCGAACAAAAUCGUAAAAGUAAAAAAAAUUGAAAAAAAAAAAAAAAAAAAAAAAAAAAAAGCGUAAAAAAAAAAAAAGGUGAAAAAAAUCGUAAAAAGUCAAAAGUAAAA'
p192
aF0.9454545454545454
aa(lp193
S'Branching Loop'
p194
aS'ACCUCGGAAAAAAACUAUGAAAAUGGAAAGACGGAAAAAA'
p195
aF0.95
aa(lp196
S'Bug 38'
p197
aS'UCAUCUAGUGCCCAAAAAUGGGAAAUGCGUAAUGGU'
p198
aF0.8888888888888888
aa(lp199
S'Simple Single Bond'
p200
aS'AAAAAAGGAAAAAAAUAGUCUAAAUGACUUAAAAAAAACGAAAAAAAAAAAAAAAAAAAAA'
p201
aF1.0
aa(lp202
S'Taraxacum officinale'
p203
aS'GCGAAAAGUACUCGGAGAAAAGCAAUCAGAAGGAAACAUUCAGAGGGAAACACUCACACGAAAAUAGGCCUAAUAAAAAACAAGGAUGUGUGUACGAUAUGUUCGCAAAGCGAUGUAUGUCUGCUACAAGGUAUGUGUGAAGAUGUGCAAAGCACAUCGCACACAUAUCGGUCAGCUAUCAAGGAUAGCGACCGUAGCUAAGUACACACGUCAGCAUAAAAGAUGCUGCGGAAAACACACAUAAUAAAAGACUAUGUUGGAAACAAUAUGCUCAAAAGAUCC'
p204
aF0.8971631205673759
aa(lp205
S'Headless Bug on Windshield'
p206
aS'AGCGGCAAAAAUAGACAAAGUAGCGAAAAGAAAAAAAAAAAAAAAAAAAAUACGACAAGGUCAUAAAAGCUCGGGAGAACGGAAGCAAAAAAAGAGAAAUCGAAAAAAGUCCGAAAAAACUAAGCCGCGAAAAAAGAGAAAGUAAAGUACCAGAGAAAAAAAAAAAAAAGUUCAAGCAUCUUUUCUGCUCAAGCAAGGGA'
p207
aF0.99
aa(lp208
S'Pokeball'
p209
aS'AAAGCGGUGCAAAAGCGAGGAAGAGAGGAAAGCAAGGAAGGGAGCAAGCAAAGCAGCAACCGCCAGCGAUCACUCACCAGCGCAUCGCAAAAAAAAGCCAUGCAAAAGCGAGGAAGAGAAUGAAGCAAGGAAGGAAGCAAGCAAAGCAGCAACCACCAGCAACAGCUCACCAGCGCAUGGCAAA'
p210
aF1.0
aa(lp211
S'Variation of a crop circle'
p212
aS'AAAUGCUAAUGUAAAACGUAAACUAAGCGGUAUAUUGAAGCAAAGGGGAAAAUCGAAAAAAAGCUAAAAAAAUACUAAAAAAAAAAAA'
p213
aF0.9545454545454546
aa(lp214
S'Loop next to a Multiloop'
p215
aS'AAUAGCGUUCAAAAAAAGAGCGAGGAAAGCCUCGCAACGAUGCAAAAGCAUCGUGCAAAAAAGGGACGCUAAA'
p216
aF0.9726027397260274
aa(lp217
S'Snowflake 4'
p218
aS'GAGGGAACAUAAGGGUUUGAAAGAGAUACGAGAUGUGUAAAAAAGAUACGAGCAAAACUCAAGAUCAAAGAUCGUAUCGCAAAGGUACAUCAAAUUGUGCGAAAGCGGUACUAUGAAAGAGAAAUGUAAAGUAUAGUACCGCAAAAGCGCAGUAGGAUUCGCAAAGGUGCAACUAUCAAAGAUAAAGCUCAAGGAGCGUUGCCCGAAAGCGGAUCAAGAUCCCCAAAACCGCUACGGGCAAAGCCCAACGUCAAAGAUGGUAGCGUGAAAGCGGAUCAAACCUCGGAAAACCGAUCAGGUCGAAGACCAAGAGCAAGGCUCUGAUCGUGAAAACGGGGUAAGUAUCGUAAAGUCGCUUUAAAAAAGGUUU'
p219
aF0.8810810810810811
aa(lp220
S'Mat - Cuboid'
p221
aS'GAAACAAAAGAAGGGAAAAGGAAACAAAAUAAGCGAACAAAAGUAAGCAAUGAAAAGAAGUAAUCAUAAAAAAGGAAAAAAGUAAGUAAAAUCAAUGAAGCAAGCAGAGAAAAGCGAAGGGGCAAGCGAGAAAAAUGUAUCUACUGAUCGAGCAGGUAAAAGCGUUGGGGUGAGUAGGGGAGGAAAACAGAGCGCGCGAGGGAUCAGGAAAAAAAUUAGGGAAUCAAGCAAGUGAGUGCAACCAGAUAAGCAAUAUAGCACAGGCAAGAAAGGAAGGAAUCUCGAGCAAGCAACUAAGUCUAAGCAAGCAACAAGGAACGAACAAGCGAGCCCUAGGAAACAACUGGAACAAGCGUAAGCGAGUUGAUGGAAAUCGCGAC'
p222
aF0.8947368421052632
aa(lp223
S'Misfolded Aptamer 6'
p224
aS'AAAAAAGACUAAAAAGAUUAACGAAGUAGGAAAAAAACUAAAAAGGAAAAGAUCGAAAAAUGUCAAAAAAAAAAA'
p225
aF1.0
aa(lp226
S'Snowflake 3'
p227
aS'GAGCGUAAUCGGGAGGAGAAAGUACAUGAUCAGAUGAACAUGAAAGUGGAGAUCUAAUGAGAGAAAUUCUGUAAUUAAAUCUCAUAAUCAAAAUAUCAGCUCAAGGGAAAACUCGUCAGCAAAAGUUGGAAACUCCGGAAAUGAGACGCGAAAACUCAAGAGCGUAGGUAGAGUAAUUCCUAGGGCAAAACCGACAAAGUUUCAAAAGAACCUGAUAAUCCCCAUCCUGACUUCGACAGAAAAAUUCAGAGCAAAAACGAGAAACUUGAAAAGGCACUGCAGGAAACUCAAGAACGGAUCGAGAGAAAGCCGGACAGUAAAAGGAAUAAAGUUAUAAAAGCAGUCAAGAAACCUUAAGUUUACACCUAAAGAAAACUUCUCAGCAAAAGCUUC'
p228
aF0.8422391857506362
aa(lp229
S'Hard Y and a bit more'
p230
aS'AAAAUUAUGCUUAGAAUGUAAUCAUUACGAGUGGCAGCGUGAUCAAAGGAUCUAGAUACGAAAAAGUAUCGAGCGGCCGCGCAUGUAAAAAAAAAAAAAAAAAAAA'
p231
aF0.9716981132075472
aa(lp232
S'Mat - Lot 2-2 B'
p233
aS'GGAGUCGAGGAAAAGCAAGAGCGAGUGUAAAAACAAAAGCAAGAGCAAGUAAAACCGAGGGCAAGCAAGCGGAGGCGUGCAAAAGCGAAGACUUGGAAAAGAGAAAGCCCUUGUAAAACUAAGAGCUAGCAUAAGGAAGCAAAAGCGCGAGGACUUGCAAAAGCGAGGAGUAAUCUAAAACCAAGGGCUUGUAAAACCAAGCCCAGGCAAAGAAGCGCGAUCAAAAGCAAUGCCUAGCAAAAUCGAAAGAGUAUGUAAAACAAGGCGAAAGUGCAAACAACGAC'
p234
aF0.8028169014084507
aa(lp235
S'Shapes and Energy'
p236
aS'AAAAAGGAGGUCCGUGAAAAACAAAGAUGGCAAAGGACGACACGCGUAGAACUAAAAAAGAUCUAAUGAUUGGUGAUCGAAAAAAAAAAAAAAAAAAAAAA'
p237
aF0.9603960396039604
aa(lp238
S"Spiral of 5's"
p239
aS'UAAAAGAUACGAAGAUAGAAAGAUAGAAAAGAUAUAAAGAUAGGAAGAUAGAAGAUACAAAAGAGACAAAGAUAGAAAGAUAGAAGAUGCAAAGAUAGUAAGAUAGAAGAUACAAAGAUAUAAGACACAAGAUACGAGAUACAAGAUACAGAUACGGAUAGAUGUCAAAAAGACAUGGGGGCUAUCAAAAAGUAUCAAAAAGUAUCAAAAAGUAUCAAAAAGUAUCAAAAAGUGUCAAAAAAUAUCAAAAAGUAUCAAAAACUAUCAAAAUCUAUCAAAAAGCAUCGAAAACUAUCAAAAACUAUCAAAAAGUCUCGAAAAGUAUCAAAAACUAUCAAAAACUAUCAAAAAGUAUCAAAAGCUAUCAAAAACUAUCAAAAAGUAUCAAAAAAAAAAA'
p240
aF0.9949622166246851
aa(lp241
S'Campfire'
p242
aS'AAAAGAUCAAAACUCAAGGGCAACUUCAAAAGGAAGGCCAGCAAAGCUAGGCGCCCGCCUCGAGCAGCUGAGAUAAAGGUACUCCCGCGAAACUAGACGAGCUAAUGCCGUUCAGUAAAGGAAAUUAUAACUGAUGUCUUCCGAAGGCGGUUCCAAGGAGAGGCAGAUCAAAGGAUCGCCCUCGUGAAAGGGAAGUUACGACGAAUUCGAUC'
p243
aF0.8584905660377359
aa(lp244
S'Anemone'
p245
aS'AAACCUUGGAAAACCGAGGGAAACUAAUGUUUCGUCGUUUAAUGAUGACCUCCGUAAUAUAUUGCUGUCGAAAGACAGAUUGACGAAAGUCAACAGACGCAUAUAACGCAAGGAAAGCCUAGCAUAGACGAAAGUCUAUGUUCGUAAUUGAAAACAACAGAAAUUCCAGGCUUGGUAGUGAACCCGUGCUAAUGCACGUCGAGCAAAGGCUUGA'
p246
aF0.8925233644859814
aa(lp247
S'Fractal 3'
p248
aS'AAAAAGAUCUUCUAUUGAAAGAGAAAAAGCGCCGAGAGAGCGAAAGUCCAAAAGGAGCAGCAUGGUAAAAGCGUAAAAGCAAUCAGGGAGAAAAAUCGCAAAGCAACGCUGAUUGAAAA'
p249
aF0.9159663865546218
aa(lp250
S'Kyurem 5'
p251
aS'AAAAUAUGAGCGGAGGAAAUUCUCCAAAAGGGCCACGAAAGUCAAAAGGGCGGUCCCGAAAAAGAACAGCUCGCUCACAAUUAUUAAAAAAAAAAAAAAAAAAA'
p252
aF0.9423076923076923
aa(lp253
S'Snowflake Necklace ( or v2.0 )'
p254
aS'GAUAUUGGACUUCGCAGAUACAUCAAAAAGGAUCAAAAAGAAUCAAAAAGAAUCAAAAAGAAGCAAAAAGAAGUAUCAGGGAAAAACUCAUUAACAGCGAAAAGCAUGAAAAAUAAUCAAAAGGAAUUAAAAGGAAAUAAAAGGAAGUAGAAUUGAAAAACGCAUACACAUCAAAAAGGACCAAAAAGGAUAGAAAAUAAUCAAAAAGAAUCGAAAAGAAGUGUAGAACAAAAAGUUAUAUACAGCGAAAAGCAUCAAAAAGAAUCAAAAAGAAUCAAAAAGAAUCAAAAAGAGGUUUAGGAGAAAAACUCACAUAUAGCAAAAAACAGCGAAAAGCGUCAAAAGGGGUGAAAAAGAAUCAAAAGGAGGUAUGAGUGGGGUUCAAUAUC'
p255
aF0.8354755784061697
aa(lp256
S'Methaqualone C16H14N2O Structural Representation'
p257
aS'AAAAAAAUAUCAGAUCGGACGGGGAAAACUCAAAGAGCGGAAACGCAGGGAGACAAAAAUAAGGGGGAGAAAACUUAGAGCAAAAAACUCACUCGCUCACCUAGCCAUAAAGAGAUCAGGACAAAGCAUUGCAUGCGAAGCUAAAAAAACAAAUAGAGAAAAAAUUCGUGAAAAUGCUAAAAAAGUACUGAGCAAAUAUCGGAAACGGCGGGAGAGCGGGAUAAAGUAAAGGGGAAACUUUCUUAGAGAAAACUUGCUCAUAGAAAAAUGACUCAGUCAAAAGAUACUCAGAAGAGAAAACUCGUCAAAAGGCAGAGAAAACUCUCCACUCAGAUGAAAGUCCAGAUAGAAAAAA'
p258
aF0.8591549295774648
aa(lp259
S"Cat's Toy 2"
p260
aS'AAAACAGGCUGUCAAACUAUUAAAAAAAAAAAAAAAAAAAGAACAAAUAAUACUUCUAUGGAAAACGUAAAAACAUGAAAAAGGGGCGGUCUGAAAA'
p261
aF0.9587628865979382
aa(lp262
S'Zigzag Semicircle'
p263
aS'AAAAUGGGUAGGAUAAAAACACAUAAUCUAGAAA'
p264
aF0.9411764705882353
aa(lp265
S'Short String 4'
p266
aS'AAAAAACCACAUUUGAAGGAAGACCAUGGAAAUAGGAACAAAGCGGGCGGUAAUUCAAGUAGUCAAUAUGUCAGUGAAAAAAAAAAAAAAAAAAAAA'
p267
aF0.9587628865979382
aa(lp268
S'Gladius'
p269
aS'GGAAACAAUAAAAGAAAGAAGGGAAGGAAGAUUUUAUAAGAUCAAAAGAUCAGAUACAAGACUGAAUUUAUCAGUAGCUUGACAGCUUUUGGAGUUACCAGAUAAAGAUCAAAUCAAGAUCAAAGAUCAGAUGAGAUCGGUAUCGAGUAACCACGAGAGCAAGAGAGCAAAAGAUGUAAACGGAACACUAUCUGAAAAAGACGUGAUGAGAAAAGAGAAAAUCAGAAGAUCGGAGGAUAUGCACUUUACAGAUACGCAUAUCAGAUAGCUAGUGAAAAUUAGCAAAUCAAAUAUCGGUAUACGUAAAAAGCAUAUCACAAGAUCAUAAGAUUACAACUUACGUCAUUGAUAGCAAAAGCUCAAGCUCUUUCAAACGGCGCGACAAACAAAGAUAAAAAAU'
p270
aF0.91
aa(lp271
S'Thunderbolt'
p272
aS'GCAAGAUACAAAAAAAAGAGCAAGCAGAAAAAGAAAACAUGGCGUGCAAAAAAAAGCCAAAAAAGAUCAAAAAGAUCAAAAAGGGGAGGGGAGGAAAAAAAAGAGAAAAAACAAUAAGCGAGCAAAAUGGAAACUUAUGAAAAACAGUAAAAGGAUCAGAAACAGGAACAAAAUCUAAGCUCGAAGAGAAAAAGGAGAGGAAACUAUAACAAAAAAACGGAGAGCAAGAAAAACAUCAAAAAACUAUGGAAUAUAGUAGCAAACAGAAAAAAAAACCAACCAAAAAAAAAGAACUAAAAGGCUAUGAAAAGGAAAAAAAACAAAAACAUAGCAAGAACAAAGCGCGCUGAAAAAAAACAGCAAGCAGGAAAAGAAAAAAACAGUAUCAAGCA'
p273
aF0.9489795918367347
aa(lp274
S'Mutated chicken feet'
p275
aS'AAAAAAGGAAGAGGCAAAGCAGUAAGACAAUUCUCAGCACUGGCGAAGCACCAAAGGAAAGGCAGGGAUUACCUAUGGGACAAAGCAAAGAGCAAAAAAA'
p276
aF0.85
aa(lp277
S'Chicken Tracks'
p278
aS'AAAAAAAAGCUGUGCGAACAAAAGUUCAAGAUCAAAAGAUCAAGUUCAAAAGAGCGCACAGCAAGAGGUCGAAACGACAAGAUCAAAGAUCAACGGCAAGGCCGCUCAAAUAAAAA'
p279
aF1.0
aa(lp280
S'Looking Back Again'
p281
aS'CAGAAGAGGCUCAAAAAGCUAUCAAAGAUAGCGGAGCAAGAGGAGAAGAGGAACUCUUAAGAUGCUAAGAUCAAAAGAUCGAAUGUAUCAACUCAACUCAAGGGCGAGAAAAAGAUCUAAAAGGAUCAAAAAAUACACUCUUGUACAAAGUACGUUUGCAAGGUAAGGCGCGCUUGUCAGGAACUAUUGUAGGAUUAAAAGAUCAAGAAAUCCAGGUAAGAGGAAACUCAAGCGCGCAGUGGCGCGUCCGGAUACAUAGCAAAAAAGCGAUGCAAAAAAAAGCUCAAAAGGAGCGCAUAAACGCGGCUAGCACGAAAAAGCGCUAUGGAAACAUAGCAAGAGAGGAAGUAGAGACAAAGUUUCAUCUCGCGAAAGUGCGUAUCAAGCUG'
p282
aF0.922879177377892
aa(lp283
S'Multilooping 6'
p284
aS'AAUGUUCAUGAGAUCAAAGGAUCUGAUUGGAAACGGUCCCUGAAUCCAGGAAACUGGAGUUGGUAUUUCAACCAUUAGUCGA'
p285
aF0.9024390243902439
aa(lp286
S'Cesspool'
p287
aS'GAAGAAUGAAAAAAGAGAAGAAAGAGAAACUAAAUAACAACUCAAAAGUAAAAGAAUAGGAGUAAUCAACAAAAAGAAAACGACGACAAAAAGAAAAAAAUAAGAGAAGAGAGCUAAAAGUAACAACAACUAAAGAAGUAAUCAACAGAAGAAAACAAUAAAAAAGAAAUAGCAAAGAUCGAGAAGAAAGUAAGAGAAAAUACAGAAACUGAAGAAUAACUGAAGAAGAAAACAACGGUUGAAAACUUUAAAAACAAAAGACCAAGAAACCGAAUAGAAAACAACUGAAAACAGUUGAAAGCUACAAUAACGGAAGAAGAAAACAACAGAAAAAAAUAACAAAAAGAAAACAUCAAGC'
p288
aF0.7681564245810056
aa(lp289
S'Hoglafractal'
p290
aS'AACAGGAACUAUGAAAAGAUACAAAAAGGUAUCCAUAGGAUCAAAUAACAAAAAGUUAGAACGAGAAGAUAAAAACGCCCAGAGGAAGAGCUAAGAGCAAAAAAGCUCGUUUGAGAAGAGAAGAACUCUGCCCUGCAAAAGAGCAGAUGAAAAGAGAAGAGAAAAAACUCCUGGCAGCAAAAAGCGCAAGAAAACAGUGAGACAAAAAGCGGAAAAAAAGCACCAGAAAAGAUGUCAAAAGAAGCUGUGAAAAAAGAGAAAAAACUCGGGAAAAUCAAAGCGAUGGAAACCAUCGCAAAAAAACACAGCAAAAAAGUUUCUAAAACAUCGAAACUCAAACCAACGGAGAGCAGAACAAAAGCAAAAGCAGAAAACAGAUAUCAAGGAUAUCCGUUCGCAC'
p291
aF0.92
aa(lp292
S'Bullseye'
p293
aS'AAACGGGAUCAAAGAUCAGGUUGGAAUAACAAGAGUAAGAUUCACGGAAAAAAAGCUGCGGAAACCCCGACAGCAAAGCUGAACAUCAAAAACGGGUGAAAAAAAUACGUUGAAACAACAAGAUUAAGGAUCAAGAGGGAACUUCGUAAAAAAAAAGACGUGGAAGCCCCAAGUGGGAACUGCAAUAUGUAUUAUGCGCAAA'
p294
aF0.8663366336633663
aa(lp295
S'Shooting Star'
p296
aS'GCUAUGCCACGCGAUUUAAGGAGAACGGGAUCAAGAUGAAAACAGCUACGUCACCGAACCAAGGAUCGCAGAUCGAGGGGAAGUAGAGAGAUAGAGGGAGAUCAGGUAAUCACGAUACCUCCAUAUACCUCACAUAGGCGCCUGAAAAAAGAUCGGGGGAUUCAAAGGAUGGGCUACGAAGUACUGAGGAAACAAACGUUAGUGCAUGGCAGACGAAGGCGAUGCAAGGCAUCGCAGAAAGAACUUUGCCAUCGCGAUUCAAAUAGUCGCAGGGAUAAAGUAUCGAUCGCAGAAGGAAACGAGGAAGAAGAUUGAGACUGGAGUAAAAAUCCAGAGCUCUGAACAAUACAAUCUGCACAUGGUA'
p297
aF0.8489010989010989
aa(lp298
S'Teslagon'
p299
aS'AAAAAAGUAAAAAAACGUGAAAAAGAAGGGUGAAAAAAAAAAAAAAGUAAAAAAAAAGGGGAAAAAAAAAAAAAAUUAUUAAAAAAAGAAGUAAAAAAGGGAAAAAAAAAAAAAAGCCAAAAAAAGCAGCAAAAGAAGCGUCAAAAAAAAAAAAAAAGGAAAAAAAAGGAAAAAAAAAAAAAAAAUUAUGAAAAAAAGUAGGAAAAAAACGAAAAAAAAAAAAAAACGAAAAAAAUGACCAAAAAAACGUUAGAAAAAAAAAAAAAAGAAAAAAAAAAUCAAAAAAAAAAAAAAAGAAUGAAAAAAAGGUCCAAAAAAGGGAAAAAAAAAAAAUCAAAAAAAAAAAAAAAACACCAAAAAAACCUCAAAAAGAAGAGGAAAA'
p300
aF0.9083769633507853
aa.