(lp0
(lp1
S'Simple Hairpin'
p2
aS'GAUACAAAAAAGUAUC'
p3
aF1.0
aa(lp4
S'Arabidopsis Thaliana 6 RNA - Difficulty Level 0'
p5
aS'GAUAAACGAAAGACAAAAAAAAAAGGUCGGUAUAUGUUCCUAAAUAGUUAAAUAUUCUAUCGAGGAAAAAGUUUCGCGAAUAUAUUAACUGUUUAGGUUUAUAUAUCAAGUUUAUC'
p6
aF1.0
aa(lp7
S'Prion Pseudoknot - Difficulty Level 0'
p8
aS'GAUAUCACGACAAAAGUCGGAUAAUCAAAAAAAAAA'
p9
aF1.0
aa(lp10
S'Human Integrated Adenovirus - Difficulty Level 0'
p11
aS'GCUAGGCUGAUACCGGUUAACGAAAAAAAAAAGACCGGAUAUCCAAAAAGCAGCUACUAAAGGCUCUUUACAUCAAAAAAAGGAUGUGAAGAAAUAGCUGUGGCCAAAUGCGGAAAACUAUCCAAACCGUGGAAAAAAGUCACGGGGUCGAAAAAAAAAAAGUUAGCAGGUAAAAAUCGGUCCAGUAGCAAA'
p12
aF1.0
aa(lp13
S'The Gammaretrovirus Signal - Difficulty Level 0'
p14
aS'AAGAGGAUAUAUCAAAAGAUAUAGGCGCGAAAAACAUCAACGCAUGACCGAUCAAAAGAUCGAAAAGUCGGCGGGUGAAAUUUAUACAAAAGUAUAAAUAA'
p15
aF1.0
aa(lp16
S'Saccharomyces Cerevisiae - Difficulty Level 0'
p17
aS'GAUCGAGCGACAAAAAAAAGUCGAGGGAAAAAAAAAAAAAACCGAAAGUGUGAAAAAACCGCACCUUGGUCAAAUGACGGACAAGAUCAAAAAAAAGAUCCCCAAAAAAAAAAAAAGGGCAAAGAUACUAAAAAUGUAUCGUCCGUCUAAAGAGAUACAAGGGUUAAAAAAUACCCCGAUGCAAAAAAAGUAUUGGAAAGAUGUAAAAAAAAUAUCGUAUCUCGAAAUCUAUACAACUGCUAAAAAAUGCAGCGAUACUAAAAAUGUAUCGUUAAGCUAUGAAAAAAGUAGCGUAUGGGGAAAGACAUACAAGAGCAAAAAAAAGCUCGGAUACUAAAAAUGUAUCCGUAAGAUAGAAAAAACCUAUCGUAUGUCAAAA'
p18
aF1.0
aa(lp19
S'Fractal 2'
p20
aS'AAAAAAGAUACACAAAGACAUAUAUCAAGCGGAAAAAAAAAACCGCGGGAUCGAAAAAAAAAGAUCAGGAUCAAAAAAAAAGGGUCAAGAUAUAUGUCAAAGGUAUUGAACAGCGGCAAAAAAAAAAGCUGAAGAUCAAAAAAAAAAGAUCGACCUUUAAAAAAAACAAGGAAGUUUAAUGCCGAAUAUGUAGGUCUAGUUCAAAAAAAAAGGAGCGAGGUUGAAAAAAAAAAACCGAGAUGGAAAAAAAAAUAUCAUGAUCUACAUGAAAGUGUAUUUAAAAA'
p21
aF1.0
aa(lp22
S'G-C Placement'
p23
aS'GAUCAAAGAUCA'
p24
aF1.0
aa(lp25
S'The Sun'
p26
aS'GACAGCACGUCAAAGACGAAACUGUCAAAUGCAGGUGAUAAAAUAUUAAGUUGUGAAAGGCAGUAUUUCAAAGAGAAAUGUGUGAAACGCAUUAUAUCAAGGAAAAAUAGGCGAAACGCAGGAAACCGAAGGUUAAUCCGCGAAACGGACUUUAUCAAACAUAAAGGGCUGGAUCGUACGACGACAAGGAUAAAUCGGCGUAGACCACGAGAUCAAGAGUCAAUGGACUAAACGAACCAUAUCAAAGAUAAAUCGUGG'
p27
aF0.8333333333333334
aa(lp28
S'Frog Foot'
p29
aS'AAAAAAAAAACGACAAAAGUCGCGUAAAAGUACGGGUCAAAGACC'
p30
aF1.0
aa(lp31
S'InfoRNA test 16'
p32
aS'GAUAUUAGGUAUAUUAAAAAGUGUCACACAAAUAUC'
p33
aF1.0
aa(lp34
S'Mat - Martian 2'
p35
aS'GAUAAAAAUAUCAAAGAUAUACAACGAUAUCAAAAAAAGAUAUCGGUAUAUCAAAAUAUAUACAAAAAAGAUAUACACGAUAUCAAAAAAAGAUAUCGGUAUAUCAAAGAUAUAUAUAUAUCAAAAAAAGAUAUAUAAUAUAUCAAAAAAGUAUAUAUAAAAUGUAUAUAUAUACAAAAAAAGUAUAUAAAUAUACAUAAAGAUCAAAAGAUC'
p36
aF1.0
aa(lp37
S'square'
p38
aS'GAUAUACCGAUACCGAUAUCCGAUACAAAGUAUCGAAAAGAUAUCGAAAAGUAUCGAAAAGUAUAUC'
p39
aF1.0
aa(lp40
S'Six legd turtle 2'
p41
aS'AAAAAUGAAGCAUAAUGUAAGGAAAAAUCAAAUUAAAAAGAAAUGCAAGUAAAAGCAAAAUUGGAAUAAAAGGAAGUAAAAAAAAAAAAAAAAAAAAA'
p42
aF0.9591836734693877
aa(lp43
S'Small and Easy 6'
p44
aS'CUGGCGAAAAGCAACGUAAAAAAAUCGGGG'
p45
aF0.8666666666666667
aa(lp46
S'Fractile'
p47
aS'AAAAAAAAAAAAUCGAAAGAAAAGCAAAGUGAAAACAAGCGAACUAAAAGGAAAGCAAGCAAAAGCAAAGCAACCAAAAGGAAAAAAAAAAAAAAAAAAAAAAAA'
p48
aF1.0
aa(lp49
S'Six legd Turtle'
p50
aS'AAAAAUGUUAAGGUAACCGAAAACAAAAAGAGAAAUGGAAAAGGAAAACAAAGAUAAAAAUAAAGAUAAAAUUAAAAGGAAAUUAAAAAAAAAAAAAAAAAAAAA'
p51
aF0.9619047619047619
aa(lp52
S'snoRNA SNORD64'
p53
aS'GAUAUCAAAAAGACAAAAGACAAACGAUCAAAAAAAAAAAAAGAUCGAAAAGUCAAGUCAAGAUAUC'
p54
aF1.0
aa(lp55
S'Chalk Outline'
p56
aS'AAAAUUAACGACGCGAAAAUCCUGUAAUUAUCGAAAGUGGCCUGAAAUUGAAAGCGAAUGUGUUGUCAAAAGAUAGGGUUGUAAAAAAAAAAAAAAAAAAAAAA'
p57
aF0.9807692307692307
aa(lp58
S'InfoRNA bulge test 9'
p59
aS'GAUUUACAGAGAGACGAUGUAGAAAUAUAUCGCCCGUGGAUC'
p60
aF1.0
aa(lp61
S'Tilted Russian Cross'
p62
aS'AAAAAUGGGGUUCGAAAGAGCGCACACGUCGAAAGGCGCUGUCAAAAGACAGAGUGAGAAAUCACGUGCCAUCGAAAGAUGCCCAAAAAAAAAAAAAAAAAAAAA'
p63
aF1.0
aa(lp64
S'This is ACTUALLY Small And Easy 6'
p65
aS'GAAAAAAAAAAAAAAAAAAAAAAAAAAAAAAAAAAAAAAAAAAAAAAAAAAAAAAAAAAAAAAAAAAAAAAAAAAAAAAAAAAAAAAAAAAAAAAAAAAAAAAAAAAAAAAAAAAAAAAAAAAAAAAAAAAAAAAAAAAAAAAAAAAAAAAAAAAAAAAAAAAAAAAAAAAAAAAAAAAAAAAAAAAAAAAAAAAAAAAAAAAAAAAAAAAAAAAAAAAAAAAAAAAAAAAAAAAAAAAAAAAAAAAAAAAAAAAAAAAAAAAAAAAAAAAAAAAAAAAAAAAAAAAAAAAAAAAAAAAAAAAAAAAAAAAAAAAAAAAAAAAAAAAAAAAAAAAAAAAAAAAAAAAAAAAAAAAAAAAAAAAAAAAAAAAAAAAAAAAAAAAAAAAAAAAAAAAAAAAA'
p66
aF1.0
aa(lp67
S'Shortie 4'
p68
aS'CCAAAAGGAGGGAAACC'
p69
aF1.0
aa(lp70
S'Shape Test'
p71
aS'AAAAAGUGAUCGAGUUUCAAAAAAAAGAAACGAGAUAUGCACGAUCUAAAUGAUCGAAUACAAAAGUAUGGCAGUCGAGAUCUCAAAAAAAAAAAAAAAAAAAA'
p72
aF1.0
aa(lp73
S'The Minitsry'
p74
aS'GGCAAAAACCCGCAAGAACAAAAAGACAAAAAGACAAAAAAAAGUCAGUCGGUUAGGGAGCC'
p75
aF1.0
aa(lp76
S'stickshift'
p77
aS'AACGAUACCCAAAAAGGAGUAUCGAA'
p78
aF1.0
aa(lp79
S'U'
p80
aS'AAAAAAUGUCAGAGAGCAGAUGAUAUUUCAAAAGAAAUAUCGCGCCCGACAUGAAAA'
p81
aF1.0
aa(lp82
S'Still Life (Sunflower In A Vase)'
p83
aS'AAGCCAAUGCGCUCAAAAAGAGCGAAUUACCAAAACCGGAACGAUCAAAAAGAUCGGGUGAGCAACGGCGGAAAGUUCAAAAAGAACUCACGGUGAAAAGCACUGGGUUUUAUAUAAAAAUUUGUGUACGUUUCAAAAAAGAAGCACAAUGUAAAAAAAAAAAAUAUCAAAAAAAAAAAAAAAAAAAAAAAAAAAAAAAAAAAAAAAAAGAUAGAAAAAAAAAAAUCAUUGCGAUUGAAAAAUCGAGUAUACAAAUUUUUAUAUAAAGCUAGAUACUAAAUGUAUCGAUUGUGAAAAACAUCAGACGAUUGAAAAGAUCGGGCCAACUAAAUCUACGAACUAUAUAAUUAUGGGAUGUUUAAAAAAAAAGGUUAUACA'
p84
aF0.9206349206349206
aa(lp85
S'Quasispecies 2-2 Loop Challenge'
p86
aS'AAAAAGUUCGGCGGUAAUGAAAACAUUUACGCCAGCCUAAGGAACGGAGGCAUCUCGGUGACGCGAAAAGUGGGAGGGGGAGGACAAAAAAAAAAAAAAAAAAAA'
p87
aF1.0
aa(lp88
S'Corner bulge training'
p89
aS'AGAUAUCCAUACAAAGUAUGAAAAGAUAUCA'
p90
aF1.0
aa(lp91
S'Spiral'
p92
aS'AAAAAAUACAGAUAUCAGACAGAUACAGAUCAGAUCACCACCACCACCACCACCAAAAAGGGGGGGGGGGGGAUCGAUCGUAUCGUCGAUAUCGUAUAAAAA'
p93
aF1.0
aa(lp94
S'InfoRNA bulge test'
p95
aS'AAAAAAAAAAAAAAAAAAAAAAAAAAAAGUAUCGAAAAAGCCGGAGAGUUGAAACGACAAAAACAAUGGAAAAGCUAGGGUCAUAGGUUAUGGGGCAUGUGGAAACGAGGGAAAAACGCUAA'
p96
aF0.9836065573770492
aa(lp97
S'Worm 1'
p98
aS'AAAAAAAGUGAUGGUUUAUUUAGGAAAAUACAUCUUAUCAGGCUC'
p99
aF0.9111111111111111
aa(lp100
S'just down to 1 bulge'
p101
aS'AAAAAGAGCAGAUACAAAAGUAUCAUGUAAAAGCAAGCAUCGAAGAGUCGGUCUAAUGACAGACGAAAGUCAGAUUAAAAAAAAAAAAAAAAAAAA'
p102
aF1.0
aa(lp103
S'Iron Cross'
p104
aS'GGGCAAUGAAAUACGUCCAAAGCGAGAGAAAGUUCAGUAUAAUACACUCUAAGUGGACUUAAAGCCGGUAAAUUAUACCUAAAAGGGUUAGUAUCGAUGUAUAACACACGUGAAACGACUCAA'
p105
aF0.8373983739837398
aa(lp106
S'loops and stems'
p107
aS'AAAAAAUAUAUCAAAGAUCAAAGCUCAAAAUCCAAAAAAAAUGAUACAAAAAAAAAAAAGUAUCUAAGGGUAAAAGAUCAAAAAAAAAAGAUCAAAGAGCAAAAUCAAAAAAAAGAUAAAGAUCAACCAAAAAAGGGAAGAUAUAUAAAAA'
p108
aF1.0
aa(lp109
S'Water Strider'
p110
aS'AAAAAUUUGUGAGGUAUAAUCUAAUGGUAUUAAAAAGUGGAAAAAAUAUUUAAAAAGAAUACGAAAGUGAGAAUCGGGGUACAAAAAAAAAAAAAAAAAAAAA'
p111
aF0.941747572815534
aa(lp112
S'The Turtle(s) Move(s)'
p113
aS'AAACCAAAGGGGAAAGAUAUAUGCAAAAAAAAGGCAUAUAUUGAAAGAUCAAAAAGACCGGAGACCCGAAAGGGGAGCGUUCAAAAAGGGAGCGAAAAAUAAAAGCGAAAGUGGAGGAGGUAAUCCGUAAACGAUACAAAAAAAGUAUUGAAAAUGCAAAUGCGAAAAACGACUGAAAACUAUAAAAAUUGGGACUCAAAAAAAAGGGGAACGAAUAAAAAAAUUCGAAACGAAAAAAAUUCGGACAGUCGAAAAAAAAAGCAAAAGCGAAGAGUUAAUGUGAAAAUGAUACAAAAAAAAAAGUAUCUAAAAGUAG'
p114
aF0.9810126582278481
aa(lp115
S'Adenine'
p116
aS'GAUACAGAUAUCAGAUAUCAGAUAUCACGAUACACGAUACAAAACGAUACAAAAAAGUAUCGAGUAUCGAGAUACAAACGAUAUCAAAGAUAUCGGUAUCAGUAUCGACGAUAUAUAUACAAAGUAUAUAAAAUAUCGAGAUAUCAAAAGAUAUCAAAAGAUAUCAAAAGUAUC'
p117
aF1.0
aa(lp118
S'Tripod5'
p119
aS'AAGAGGGAUCAAAAUGGUCGGGCUAAAUGCCCCCUUGA'
p120
aF1.0
aa(lp121
S'Shortie 6'
p122
aS'GAAAAAACUUGAAAGCAUAUAAAGAUGAGAAAACU'
p123
aF0.8857142857142857
aa(lp124
S'Runner'
p125
aS'AAAAAGUUCAUUCCGAAAGUAUCAAGGAUAAGGAGAAAAGCAACCAUCGAAACGAAAAUGGGGACACAAAGUGAAAUCCGGCUAAACACUAACUCAAAAGAGCGUGAGAAUAAAAA'
p126
aF1.0
aa(lp127
S'Recoil'
p128
aS'AAAAAUAUACAACCAACCAACGAAACGCAACUGACCAAAGGGAGAGCGAUCGAGGAGGAGUAUAAAAAAAAAAAAAAAAAAAAAA'
p129
aF1.0
aa(lp130
S'[CloudBeta] An Arm and a Leg 1.0'
p131
aS'AAAAAUACACGAGCAAAAGCGUCGCGCACCAAAAGGGCGAGUAGAAAAAAAAAAAAAAAAAAA'
p132
aF1.0
aa(lp133
S'[CloudBeta] 5 Adjacent Stack Multi-Branch Loop'
p134
aS'GAUGCCAUCGAAAGAUGCUACCAAAGGGUAGGGGUGUAAUUACCCGGACAAAAGUCCGUAUCA'
p135
aF1.0
aa(lp136
S'Triple Y'
p137
aS'AAAAGUGGUAGGGUAGGGCAAUCUGUGGUGAAAACCGUCAAUUAUAUAGAAAGAUAAGUGCAAAGGCACGUACGCCAUAAAAAAAAAAAAAAAAAAA'
p138
aF0.9175257731958762
aa(lp139
S'Misfolded Aptamer'
p140
aS'GAUGAAAAAGCGUGGAAGUCAAGCAAAGUUAGGUCAGGUCCAAAAAAAUC'
p141
aF0.92
aa(lp142
S'Flower power'
p143
aS'AAAAAUUUUGGACAAGUAUCUGCUCAUCCAAGGGGUAAAGAUAAGCUCAGAACUCGAAGGGAAGGAUAACCGAAGGUUAAAAGAAAAAAAAAAAAAAAAAAA'
p144
aF0.8431372549019608
aa(lp145
S'Kudzu'
p146
aS'AACAUGACAGGUCAUAGAAACGGGCUCGCAAACGACUUCGAGGAGGAACCAGCUCUGAUGGAACUAAAGCGAAGUACGAUCUAAAAAAAAAAAAAAAAAAA'
p147
aF0.8811881188118812
aa(lp148
S'"1,2,3and4bulges"'
p149
aS'AAAAAGUUCUCACCCAAAACGAAAAGGGUUCUAAAAGGAUGACGUAAAAGAGCAUUCAAAGGAAAGAGAUGUAAUUAUCAUAACCGAAAAAAAAAAAAAAAAAAA'
p150
aF0.9619047619047619
aa(lp151
S'medallion'
p152
aS'GAUCUCAUGAUACAAAAGUAUCAAGUCAAAAUACGGAUAAAAGUCGCUGCUCAAAAGAGUGGAGAUGAAAGUCGGACAUCAAAAGAUGUCGUCCGAAAGGAAGUCAAAAGACACAUAUCGAAAGAUAUGAGUUAAAAGACAGGAAAUCAAGAUUCUUGGACAAAACUCGGACAAAAGAAAGAUUGCAAAAGUGAUCUGCCGAAAGGCAGGUACCAAAGAGUAUCACUGAAAACAGGGAGAAAAGUCAGUUAUCAAAGGAUAACAUAGAAAACUGAGAUAUCAAACGAAAUCAUCCGAAAGGAUCGCAAAAGCCUUAUGUCAAAAGAUAUGAGAUAUC'
p153
aF0.8694362017804155
aa(lp154
S'[RNA] Repetitious Sequences 8/10'
p155
aS'ACGAAAAAAGCAAAAAAGCAAAAAAGCAAAAAAGCAAAAAAGCAAAAAAGCAAAAAAGCAAAAAAGCAAAAAACGAAAAA'
p156
aF1.0
aa(lp157
S'Documenting repetitious behavior'
p158
aS'AAAAAAAGUAAAAAAAAAUUAAAAAAAAUUUAAAAAAAAGUGUAAAAAAAAAGAAAAAAAAAAAGAAAAAAAACAAAAAAAAAAUGAAAAAAAAAUGAAAAAAAAAUGAAAAAAAAAGAAAAAAAAAUUGAAAUAAAAGUGAAAAAAAAAUGAAAAAAAAAGGGAAAAAAAAAGUAAAAAAAGAUAAAAAAAAAUGAAAAAAAAGGAAAAAAAAAGGUAAAAAAAAACUAAAAAAAAACCAAAAAAAAUCACAAAAAAAACAAAAAAAAAACAUAAAAAAAAAUGAAAAAAAACAGAAAAAAAACCGAAAAAAAAUCAAAAAAAAACGAAAAAAAAAGAAAAAAAAAAUCGAAAAAAAACAAAAAAAAAAGAUAAAAAAAAAAAAAAAAAAAAUGCAAAA'
p159
aF0.8875
aa(lp160
S'7 multiloop'
p161
aS'GACCGGAAAUACUUCACUACUUUUAAUGGAGUGUUUCGAAAGAGGUACGGAUAAUUUCGUGGAGCAAAGGCUCCUGAGGGAAUUAUCGGGUC'
p162
aF0.9782608695652174
aa(lp163
S'Kyurem 7'
p164
aS'AAAAGUGCCCCCUUAAAAGUGGGGCAAAACCAUGUGGGAAAACCAAGCCGGCUAAAAUUUCAAACCUAUGGGAUGGUCGCUGAAAAAAAAAAAAAAAAAAAA'
p165
aF0.9607843137254902
aa(lp166
S'JF1'
p167
aS'GAUAGCGGGGCUCGUCCGGGAUUCAAAAGAUAUCUACGAUCAAACGAUCAACGAGACACGAGAUACAUAUACUAAUGUAUAUGUAUUUCGGGGUCUAAUGACACUAUAUAUCAAAAGAUAUAUGGGACGAUCAAAAGAUCGAGUCUCGAGAUCGGGAUCGCGAUAUCAAAGAUAUAUCUAAAUGAUAAUAUCGAGAUAUAUAUAUAUAUAUUUAUACCAAAAGGUAUAAAUAUAUAUUAUAUAUAUCAAACUUACAAAAAAGUGAGCGAUAUAUACAAAGGUAUAUAUCGGAACGACAAAGGUCGAAGGAUCGGGGGCGUGAUCACGCACGCAAAAGCGGCGGAUCAUAUGCAUACUAAUGUAUGACAUAAGUUUGCGUAUAUCAAA'
p168
aF1.0
aa(lp169
S'multilooping fun'
p170
aS'UUUGGUUAUGAAAGGGGAAAUUAAGUUGAAAAUUAG'
p171
aF0.8888888888888888
aa(lp172
S'Multiloop...'
p173
aS'AAUAAGUAGUGAAUAAAUUAACAAAUAAUUGAGCGUAAUUGCUGACAAAAAUCUGCGUAUUUUAAGGGAAAACCCAGUACACGUGCAAAAAAGCACGAUCAAAAGACUAUU'
p174
aF0.8558558558558559
aa(lp175
S'hard Y'
p176
aS'AAAAGGGAUGACGGAAGUAUGAAAGUAUUUCCCUCGGCGGUCUAAUAAUAUGGAUUGUUCGUUACAAA'
p177
aF0.9705882352941176
aa(lp178
S'Mat - Elements & Sections'
p179
aS'AAAAGUAUCAGGAAGGGGUUAAGUGGCAGGACGACGGUAUGCAAAAGUAAAAUGUUGGACGCGGAAAAUGAACCACGAAUGGAUAAAAAAAAAAAAAAAAAAAAA'
p180
aF0.9619047619047619
aa(lp181
S'Chicken feet'
p182
aS'AAAAAUAAGUGUGAAAAUAACUAAGUGAAGGGAAUUAUGGGGGAACAGUGGAUGACAAUACGGAAAA'
p183
aF0.8805970149253731
aa(lp184
S'Bug 18'
p185
aS'UACCACACGAACAUGCUAACAGGAAAACAAGAUAUAUCAAUGAAGAGAAAGGA'
p186
aF0.9622641509433962
aa(lp187
S'Fractal star x5'
p188
aS'AAAAAUGUUAGCCUGCCAAUAAUUUGGAACUAAAAAGUUAGGAUGGUAAAAGCCGGAGGAUAAAGGUCUAUGGCUAGCAAAAAUCUAUAUACAUCUGUGAAAGCGGUAGGUAAAAAUACCGGCGAUGAAAAUCGAAAGACAAAAGUCUGGGUAUAUAGUAAAGCGUUAUAGAAGCAAAAAGUUGUGGGGGUAAAGACCUAACGUAAAAAUACGAAGGAUAAAAGUUCAACUAUAGCGAAAAUCGGUAUAGAACUACAAAGGUAGGACGCCAAAAGGCGGUCGAAAAAAUUCGUAAGGCAAAAGUCUAAUUAUACCGUAAAAAGAUAUACAGGCCAAAAAUGGCAACUAGAAAGUUAGGUCUUGAAAACAAGUGGUAUAAAAAUGCAAGUAUAUCUAAAAA'
p189
aF1.0
aa(lp190
S'Crop circle 2'
p191
aS'GUGAUCUGAAGAGUAAAAGUAAAAAAAAAGGUAAGAAAAAAAAAAAAAAAAAAAAAAAAAUGCAAAAAAAAAAAAAAAGUGAAAAAAAUGUAAAAAAAGGUAAAGCAAAA'
p192
aF0.9454545454545454
aa(lp193
S'Branching Loop'
p194
aS'GGGGCUUAAAAAUUAGGACGAAAGUCCAUGCUCAAAAAAA'
p195
aF0.95
aa(lp196
S'Bug 38'
p197
aS'AACAGUAACAAUAAAAAAGACGAGGUCAUCAAGGUA'
p198
aF0.9444444444444444
aa(lp199
S'Simple Single Bond'
p200
aS'AAAAAAGGAAAAAAAUGACCAAAAAGGUUUAAAAAAAACAAAAAAAAAAAAAAAAAAAAAA'
p201
aF1.0
aa(lp202
S'Taraxacum officinale'
p203
aS'GGGCAAAAGACCCACGACAAAGGAUCCGCGACGAAAGAGAGAAGGUAAAUGACCUAUUCUGAACGACCAGUACCAAAGCAGGGUGAUAUAGCUACCUAAAUGCGUCAAAGAUGACAUUUAGAGCUACAAGUCGAUAUUAAAGGAGAUUUAUGAUUUCCGUGGUAUUGGGGACCAUGAUAUAAAAUAUUGGAUCGUAGCGAAGUAGUUAUAUCUCUUUAACGGAAGGUUGGUAAAGGACCGGAGUUGAAAGACUCAGUGUGAAAUUUGCAAUGAAAAAGGUGU'
p204
aF0.8581560283687943
aa(lp205
S'Headless Bug on Windshield'
p206
aS'GGAAUUAAAAGUAUGAAAAAUGGGCAAAAAAAAAAAAAAAAAAAAAAAAAGCCAAUGAAUCGCUAAAGGAAUCACUCAGCCCAAUUGAAAAAAUCAAAAGAGAAAAAAAGGCGAAAAAAGGGGCGAUCUAAAAAAAUAGAAGGAUGCUAUGGCUCAAAAAAAAAAAAAAAGAGAACAGUGUAGAUGAUAGGAGAAAGAAA'
p207
aF0.915
aa(lp208
S'Pokeball'
p209
aS'AAAAAGUGGGAAAACAUAUCGACAUUUUUGCUCAAACAGGUAGAUAACAAACAGAGAAGAUAGGAGUUCUGUGCGAGAGUGUCCACUUAAAAAAAAGUGGUCCAAAACCAACCGGUGCAAACGGUCAAUCGAACGGUCAACCAAAGGGGAGGGUAGAGGAAAGUGGCGAGGGGGGGACCACGAA'
p210
aF0.9239130434782609
aa(lp211
S'Variation of a crop circle'
p212
aS'AAAAUUAAAAACUAAAUCACACUUAAAUGGGCAAAGAGAGUUAAGAGCAAAAAGGAAAAAAUGUAAAAAAAAGAGAAAAAAAAAAAAA'
p213
aF0.8636363636363636
aa(lp214
S'Loop next to a Multiloop'
p215
aS'AUCGAUAUUUUAAAAAGCACGAGAGAAAAUUUCCAGGAUAUUCAAAAGGAUAUCAGCAAAAAUAGAUGUCGUA'
p216
aF0.9726027397260274
aa(lp217
S'Snowflake 4'
p218
aS'CUACAAAGCAGCGAUCGGAAAAAGCUCUUAAGAUACCCGAAAGGCGGAUCCACAAAGUGGGACGACGAAGUCCAUCCGAUGAAAAUGUAUUAAUAAACCAAAAGGGGGAACUGACAAAGUCGGACGGUGAAGCCGGUUCCCAAAAACGGUUUAGAGAAAUCCAAAAGGCGGAAAGACAAAGUCUGGCGCCAAAGGCGAUCCGCCAAAAGGAUUUUAAUAUACCAAAAGUGGGUUCUGCGAAACUCAACCCACAAUGUGGGAACCCAAAAGUGGUAUAAAUUUACCCAAAGGGAUGACGGACAAAGUCGGAUGACAAGGCCGGGCGUCCAAAAGGGUAGAAAAAGAGCCUAAUGCGAUUGAUGCAAAGUAC'
p219
aF0.8594594594594595
aa(lp220
S'Mat - Cuboid'
p221
aS'GGGUGAAAAACGGGUAAAAUCGGCCAAAAGACCCGGUCAAAAUCGGCAGGGCAAAAGGGCCGGGCAGGCAAAAGCGGGCGAGUGGGAAAAAGUUAGCGGGCGGGCAAAGAAAACGGGUCGAUCGGUCGGUUAAAACCUGUCGUACAGUAGGUCGGUCAAAACCCGUCGAUCAGUGAGUCGGUCAAAACCGGUUGGUGAGUCGGUGGACUUAAAAUAGGGCAAGUAGGUAGGGAGAUGGCGCUAGAUAGGUAGGUAGGUGGAGAUAGGUCGGUUUGUAGGUGGAGGUAAGUAGGUGGAAGUGAAGCGGGCGGGCGUUCUAGGGCGGGCGGGCGCAGGCGGGUGGCGCAGUGGGGGGAGGAGGGUGGGGCAGCGGGUUGGGC'
p222
aF0.7
aa(lp223
S'Misfolded Aptamer 6'
p224
aS'AAAAAAUGGUAAAAAUAGGAGGGGCGGGCGAAAAAAAGCUGAAACAAAAACCUAAAAAAAUCCAGAAAAAAAAAA'
p225
aF1.0
aa(lp226
S'Snowflake 3'
p227
aS'GACCCUAAUGGAUGCCGUAAAAGCGAAGAUCGUCUUGACGCAAAAGACCGCAGCAAAAGUCGGAAGUCGGCAAAAGUAGCGCGCAAAAGCGAAGAUGAGCUUUACUGGAAAUAGCGCACCAAAAGGCAUAAAAUGCCAAAAGGAGCGCUCGAAAAGGAUGAGUGUAGCAACGAAAAGGCGCGCACCAAAGCGCGCAAGGCGAAAAAAGGAGCGCUCAAAAGGGAGGCUAAUGACGACGCAAAACGGCGCGCCAAAAGGCUGAAGCGGCCAAAAGGAGCGCACAAAAGCGAAGUCAUAAACAACGAGAAAUCUUUCACCAAAGGGCGCAAAGCGUCAAAAGGAGGGUGCAAAGGAGAAGUCAUGAUCAAGAUAAAAAUCGCGAUCUAAUGAGUC'
p228
aF0.8422391857506362
aa(lp229
S'Hard Y and a bit more'
p230
aS'AAAAACAUUAAUACGGGCAAAAGCCCAGGUAAUCGGUAAAGGUCUAAUGGUCGAGCUACUAAAAUGUAGCAGUAAUGAUAUCACCGAAAAAAAAAAAAAAAAAAAA'
p231
aF0.9716981132075472
aa(lp232
S'Mat - Lot 2-2 B'
p233
aS'GGAGGCAGUAGCAAUCAAAACAAGGAGCUAAUGCAAAAUGGGUGGAGGUUAAAAUAGGUCCCGUGCAAGGAUUCCCGGUCAAAACCUGUAUCGGUCAAAAGCAAAAGGGAGAUAAAAAUAAUUGGAGGUGCCAGGCAAGGAAAAUGGCGGUCUUGGUCAAAAGCGGUAUGAAAAUAAAAAUAGGGUGAGGGAAAAAGAGGUCGCGGGGAAGGUGUCCACGUCAAAACAGGUAUCGGACAAAACCCAAUGGUUGAUAAAAAUAAGUGGAGGUGUCGGGGAAUGGC'
p234
aF0.75
aa(lp235
S'Shapes and Energy'
p236
aS'AAAAAAUUCAUAGAGUCAAAAGAAAUGACAGUAAUCAGUCGGAGGGGGUUACAAAAAAGCCGCAAAGGGGGAGAGGUGUGUAAAAAAAAAAAAAAAAAAAA'
p237
aF0.9603960396039604
aa(lp238
S"Spiral of 5's"
p239
aS'AAAAAGAUACAAACGAACUAUCGAUAAAAAGACACAAACGAUUAAACGAACAACGAUCGAAAAAGACAAACGGGUAAACCUUGAACGAUCAAAUGUACAAAGAUACUACGAUUAAAGAUACAACGAUCUUCGAUCAACGGACAACGAUCACGACCGCGAUAUAUACGAAAAGUAUAAAAAAUAUCGGAAAAGGUCGAAAAAGAUCGAAAAGGUUCGAAAAAGAUCGUAAAUGAUCGAAAAAGUAUCAAAAAAAUCGAAAAUGUAUCAAAAAGUAUAAAAAAGAUCGAAAAACAAGGAAAAAAUCCGAAAAAGUUUUAAAAAGAUCGAAAAAGUUCGAAAAAAAUCGAAAAAGUGUCAAAAAUAUCGUAAAUGUUCGAAAAAGUAUCAAAAAUAAAAA'
p240
aF0.9949622166246851
aa(lp241
S'Campfire'
p242
aS'AAAACGACGACUUACAAAAUCAACUACAAAAAGUGGCAUAUAGAAGAUAAUGGAUUGGAGACAUCACUAGGUCCAAAAGGAACCAGAGUUUACAUGACCACCGAAAGGCGGCGAUCACGUUAAUACAGGAAUCAAGUAAGAGCCAUCGUUAGCCACUUCCAAGCACGACAAAAGUUGGUUGGAGGUCUUGCAAAGUAAGAAGCCUGUGGUCU'
p243
aF0.9339622641509434
aa(lp244
S'Anemone'
p245
aS'AACUUAAUCAAAAGAUUGGGAUGAAAAUUCAUCGAUUUCGAAAGAGAUCGUUAGGAAAUUGGCGAUGACGAAAGUUAUCCAGUCAAAGAAGAGGUUCUUAAUGUAACGCGUGGGAAAAUGCCUAGCUACAAAGCAUUUGAGGUCGAAAGAUCUCCGAGGGAAAUUUCGGCUAGGAAAGUCUAGCCAUACUAAUGUAUGGACUUGUAAUCAAGUC'
p246
aF0.8691588785046729
aa(lp247
S'Fractal 3'
p248
aS'AAAAAGCAUAAGCAGCAAAGGGCCAAAAGAGGUUAAGCGGAAAAAGAGCAAAGGCUGAUGUUCGGGUAAUUCACAAAGGUAGAUAAACAGAAAAAGGUCAAAAGGGGCCGAUGCAAAAA'
p249
aF0.8571428571428571
aa(lp250
S'Kyurem 5'
p251
aS'AAAAGCUUUGACGGCGAAAGCUGACAAAAUCUCGACUAAAAGGUAAGUCCGGCAGUAUGAAAAAAUAAGAGAUCUGUUAAGCGAAAAAAAAAAAAAAAAAAAAA'
p252
aF0.8942307692307693
aa(lp253
S'Snowflake Necklace ( or v2.0 )'
p254
aS'GAUAUAUAUACAUAAAGAGAAAGUAAAAAGGUAAAAAAAAGUGCAAAAAGCAGCAAAAAGCACUAAAAAGGAUUUUCAGUCAAAAAGACAGACACACCAAAAAGGAGCAAAAGGCACCAAAAAGGGCCAAAAAGGACCAAAAAGGAGUGUCAGGGAAAAGUUGAUAUGGAUCAAAAAUGAUCAAAAAGGGAUAAAAAGCACGAAAAAGGAGGAAAAAGGAUUAUAAGCGAAAAAGGCAAAUCAAGUAAAAAAUGGCAAAAAGCACCAAAAAGGACCAAAAAGGAGCUAAAUGCAGGAUCGGUCAAAAAGGCGGAUACAGCAAAAAGCACAGAAAAUCAGGAAAAACCAGCAAAAAGCACAUAAAUUGAAUAUUAUUAUGUAUGUAUAUC'
p255
aF0.8791773778920309
aa(lp256
S'Methaqualone C16H14N2O Structural Representation'
p257
aS'AAAAAAGGAUCAAUACGGACUGACAAAGGUAGGGCACUCUAAUGUGAUACAUGCAAAAGCGAAACGGGCAAAGGCCAAGCAAAAAAAGCUAGUUGGUAGGUCUGUUAUGAACAGUAUAGAGCAAAACUACCAAAGCAAAUCAAAAAAAAGGGUUAGACACAAAAGUCGGUAAAAGUUUUUAAAAAAAAGGAGUAAAAUCCAGGAACGUACACAAAAGCAGACACGCAAAAUGGAAAACCGAGCGAGGCGAAAGUCAGUUAGACAAAAGUCAGCUGUACAAAAGUGAUCCAGUCCGGAAAAUCGCGCAAAAGCGACGGAAAAUCGGACAGUCAGGAUAAAGUUCGGAUCAAAAAAA'
p258
aF0.8985915492957747
aa(lp259
S"Cat's Toy 2"
p260
aS'AAAACACAUACGGAAACCAAUAAAAAAAAAAAAAAAAAAGAGAUUAAGCUGAAAGGAAAUCGAAAGGGAAAAAAGAGAAAAAAGGAGUAUGUGGAAA'
p261
aF0.9381443298969072
aa(lp262
S'Zigzag Semicircle'
p263
aS'AAAGCAUAUAUCAUAAAAGGAGACAGUGUGAAAA'
p264
aF0.9411764705882353
aa(lp265
S'Short String 4'
p266
aS'AAAAAAGCACCAAAAAUGAAAAUUUACCUAAUGGAAUAUAAAAAACUGUGGAAAUAGUGUCAUAAACUUUUCGGGCAAAAAAAAAAAAAAAAAAAAA'
p267
aF0.9381443298969072
aa(lp268
S'Gladius'
p269
aS'GGAAACAGAGAAAGAAUGGACGCGUGAAAUUAAAGCAAAAUACAAAAGUAUAAUUUUAAUGGACAACAGAUCAAGGGUUUAAUAGAACUCUCACGAUUGAAGAUAACGACACGGCCUCGACGAAGUCGUGCCAGGUCGGAAUCUAAAAUCGGAAGAGUUCAAGAGAAUAACAGAUUGAGUGUCAAAAGAGAGGGCAAAGGCCACUAUCAGAACGAAGAACGACGGGACGACAUAAGUAUCUCUAGAUACACGGUGAGGAUACACGCUGAUAUUAAAAGAUAUCAUGCGGAUAUCACCAUCAGGUAUCACGAGAUGCAAAAGUCGAAAAGUCGACAAUCGACAGGAUGGGGAUCAAAAGAUCGAGGGCGGCCAAGAUUGGGGGGUAAGAGGAAAAAAAAAG'
p270
aF0.9
aa(lp271
S'Thunderbolt'
p272
aS'GCGGGAUUCAAAAAAAAAAGUGGGCAGGGGGGGGAAACAUAUAUCCCAAAAAAAAAGCAAAAAUCGUCAAAAAGGCGUAAAAAGUGAGUCGGUCAAAAAAAGGGGAAAAAGCGGCAAAUAGUCAAAAAGAAAAUACGAGAAAAAAGCAAAAACGGUCCGUAUCGAGGGGAAAAAUGCAGGUCAAUAAAAAAAUCGGAUCGGAAGAUAGGGUAAAAAAAUAAGAGCAAAAAAAACUCGGGGGGGAUCCCAAAGGGAUCGGGGAGUGAAAAAAAAAAGAGGUGAAAAAAAAGGUGCCAAAAGCUGCACGAAAUAAAAAAAAAUUAAAAGAGCGGAACGGGAAGGGGAUAUGAAAAAAAACAGCUGACAUAAAAAGAAAAAAACAGGAUCAGGCA'
p273
aF0.8852040816326531
aa(lp274
S'Mutated chicken feet'
p275
aS'GAAAAAAGCACGAGGGAACCGGCUAUGUAAAGGACGCCAACAGCAAAUCUGCGAACCUAAGGCGAUGACCGGUAAAAUUCGGAAGUAAAAGUGGAAAAAA'
p276
aF0.84
aa(lp277
S'Chicken Tracks'
p278
aS'AAAAAAAUUGUCAUACGUCAAAGCGGGGACAGCAAAGGCUGACCAUACAAAUGUAGGAGACAUGUGCAUUAUAUAGCAAGGACUAAGGGAUAAUUCGAAGUAAGGUGAAAAAAAAA'
p279
aF0.9137931034482759
aa(lp280
S'Looking Back Again'
p281
aS'GGCAAACCUACCAAAAAGAUAUCAAAGAUAUCGGGUGGUGACCAUAACGCAAGGCGACGAUAGUCUAACGACAAAAGUCGAAAUGACUAAACCCUAGGUAACAUCGCAAAAAAAUAUCAAAAGAUAUAAAAAGGGUUAUACAGUACAACGUAUAGGGAUUAUGUUCCAAUAUACUAUGAGUAACUGGGAGACUAUAAAAGGAUACGUACGUCAGGCCGGUCCGAAAGGGAAAAGAUCAAAGUAAGGAUGACGAUCAUGACGAGAAAGAGAUACAAAAAAAACGACUAAAUGUCGGUAUAAAUUCAGUCACGUAAAAAAACCCGAUACAAAAGUAUUGAAGACGGAAACCACGGUCGAAGAGUGAAGUCGGAAAAGGCGGAUCGAAAGUC'
p282
aF0.8431876606683805
aa(lp283
S'Multilooping 6'
p284
aS'AUCGUACAUUUGCACUAAUGUGUGUACUUGAAAAGGUAGCCCACAGAACAAAGGUUCUUACUUGAAAGAGAAGUGGUACGUA'
p285
aF0.926829268292683
aa(lp286
S'Cesspool'
p287
aS'UGGUGAAAAAAUGGAGCGGUAAAGCGAAACGCAGUAAAGGGCGGAGGGUAAAAAGAUGAGGUAAAAAGGUGGAGAAAAAAUAAGGGGAAGAGGAGGAAAACAAGGUGGUAAAGAUAAAAUCAAUAAACGUCCGAAAGCGAAAGGGUUGGGUUAAUAGGAGGAGAAAAAAUGAUACCAGAUCGGAAGAAAACAAGCUGGGGAAGUUAAAGGCAAUAGACGAGGGAGGGGAAAAUGAUACGGAAAAAUGGGGGAGAAAAAAGAACUGAUAAAUGAGAAGAAAACGACGCUGUAAAAUCAAAGAAAAUAAAGUUCGGAGGGUAAAAAGGUGAGGAAAAAUGGUGGAGAAAAAAUAACGGAU'
p288
aF0.7402234636871509
aa(lp289
S'Hoglafractal'
p290
aS'AAGAAGAACGACCAAAACGAUCGAAAAAGAUCGGGUCGAAUUAAACGACAAAAAGUCGAAUCCGUAACGGAAAGUCGACGAGCUAAAGCUAAAAGGAUAUAAAAGUCUUACGCGCAACGCAAAAGGCGGCGCUAUCAAAACGGGAGAUUAAAAGGCAAGGCAAAAAAGCCGCUGGACCGAAAAGGCACUCAAAAGAGCGUUAUAAAAACUACCAAAAAAGGAGCCUGAAAAGCGAAAAAAGAAGAUAUCUAAAAACACGAAAGGGAGCUGAAAAAGGAACGGGAUCAAAGAUUUCGAAAAAAUGAUAUCAAAAAAAUAGCAAAAAGAUCGAAAAUCAAACUAUCAAACAUCAAGUCAAAACAUAAUUGCCAAAAGGAGGUACAAAGUACCUAGGCUUAAG'
p291
aF0.915
aa(lp292
S'Bullseye'
p293
aS'AAAUGAUGAUAAGGUCGGAGAUGAAGUAUCGAGAGGGAAUCUGGCAAAAAAAAAAUCGAAAAAGAAUCUGGUUCUAUGAACAAAAAGGAACUUUGAUAAAAAAAACGCGGGUAAAGCCCGGGAUCAAAGCAAAAUGUUGAAGACAGAGAAAAAAAACGGUAUUAAAGAUAAAGAUCUAUCGUCGAGAUAAAAUGUCCCGGAA'
p294
aF0.7920792079207921
aa(lp295
S'Shooting Star'
p296
aS'UAUAUCCGAUUAUAGGCAAAAAGGGUCAUAAACGCACAUAAUUAGGCAGUUAAGAAGGCUCAGCUUAUAACGACCGAUGAGGGCGUGCAUGAUCACGCACGACAUCAAAGGAGGUCAGGCGGAAUCAAGCAAGGAGGUAGGUAAAAAGAAAUCGUCACUGAUCAAAAAUCAACGAUCGAAGAUCGAAGAAAACAGAGAUAAGUCGACCCCAGCGAAACUUUGAUCAAAGAAUAGGACGAGUGAAGUUCGUCCCGAUAUACAAAGUAUAUCACGGCCAAAAAACGGUCGCCCCAAGGAAACCGGGGGGUGUAAAACCAGGAGACGAAAACGGUUAAAGGUAUAAAGUCACGGGGGGGAGAUAUGA'
p297
aF0.8214285714285714
aa(lp298
S'Teslagon'
p299
aS'AAAAAAAGAAAAAAAUCGAGAAAAAAAGCGGAGAAAAAAAAAAAAAAUCAAAAAGAAGUGAAAAAAAAAAAAAAAGAAACGAAAAAGUCAGGAAAAAAAACAAAAAAAAAAAAAAAGUAAAAAAAAAGAGAAAAAAAUGGGAAAAAAAAAAAAAAAAUCUGAGAGAAAGGAAAAAAAAAAAAAAGCCACAAAAAAAACUAUAAAAAAAAAAAAAAAAAAAAAAAAAGUAAAAAAACAAUGAAAAAAAACAAUAAAAAAAAAAAAAAAAUGAAGAGAAAAGAAAAAAAAAAAAAAGAUAGAAAAAAAACAGCAAAAAAAACGGAAAAAAAAAAAGCAAAAAAAAAAAAAAAGUACGAAAAAAGUCAAAAAAAAAACUGAAAAA'
p300
aF0.8638743455497382
aa.