(lp0
(lp1
S'Simple Hairpin'
p2
aS'GAUACAAAAAAGUAUC'
p3
aF1.0
aa(lp4
S'Arabidopsis Thaliana 6 RNA - Difficulty Level 0'
p5
aS'GGUAUACAUGUCACAAAAAAAAAAAGUGGGUGUAUCUUCAGAUAUAUAUAUAUAUACAAAGAUACAAAAAAGUAUCAGUAUAUAGUAUAUAUAUCUGUCGAUACACCAAGUAUACC'
p6
aF1.0
aa(lp7
S'Prion Pseudoknot - Difficulty Level 0'
p8
aS'GAUAUCAGUACAAAAGUACGAUAGUCAAAAAAAAAA'
p9
aF1.0
aa(lp10
S'Human Integrated Adenovirus - Difficulty Level 0'
p11
aS'GUUGAAAUAUUAUGGGUUUUGUAAAAAAAAAUGUACCGGUCCCCAAGCAUCCCCGAUCCAAGACAUAGUUUUACGAAAAAAAGUGGGACUAUAAAAGUCGUCGGUAAAGGAGGGAAAAGACCGAAACGUAUCUAAAAAUGAUACGGUACUAAAAAAAAAAUCAAAGCACAUAAAAAAUAUUUAACCAGCAAA'
p12
aF1.0
aa(lp13
S'The Gammaretrovirus Signal - Difficulty Level 0'
p14
aS'AGGGGGGCGUAUUAAAAGAUACGAACGCAAAAACGUACAAGACAGAUGGAUACGAAAGUGUCGAAAUAUCGUCGUACAAGGUUUAUCAAAAGAUAAACCAA'
p15
aF1.0
aa(lp16
S'Saccharomyces Cerevisiae - Difficulty Level 0'
p17
aS'GUCGCACGAUUUAAAAAAUUGCGAAUAAAAAAAAAAAAAAAGUGUAGGACAUAAAAAAGGUGUCGUGCGACAAAGUCUAUUCAAGUGUAAAAAAAAGCACCCGGAAAAAAAAAAAACGGAUGAGGUAGAAAAAAGUUACCGAGUAGAAAAUCGGAAACAACCGCAAAAAAAAGUGGGAUAGCAAAAAAGGUUAUCAUGUGGGUCGAAAAAAGAUCCGUUUUCGUAAGUGAAUACAAGUACGAAAAAAAGUACGGGAUCUAAAAAUGAUUCCAUGUUAGACAAAAAAGGUCUAGUAUUCGAAAGGCCAUACAAUAUCGAAAAAAAGAUGGGUAUUGAAAAAAAAUACCGGGUAACACGAAAAAAGUGUUGUAUGGCAAAA'
p18
aF0.9894459102902374
aa(lp19
S'Fractal 2'
p20
aS'AAAAAGGUUUGCGAAGGGGGUUGUUGAACAACAAAAAAAAAAGUUGAAGUCCGAAAAAAAAAGGGCGGGGACUAAAAAAAAUGUCUAACAGCAAUCCCAAAAAAGAUAGGGUUGGGCAAAAAAAAAAGCUCUUCUCCAAAAAAAAAGGGAGUGUCAGGAAAAAAUAGCUGAGUCCCUGUCUUUAAAGAAUGUCUUCAUGUGCUAAAAAAAAUGUACUAGAACGAAAAAAAAAGUUCAGGUCCUAAAAAAAAUGGACAAGGAGAUAUUCGAACGCAGACCGAAAA'
p21
aF1.0
aa(lp22
S'G-C Placement'
p23
aS'GUACAAAGUACG'
p24
aF1.0
aa(lp25
S'The Sun'
p26
aS'GCCAGGGGUGCGAAGCACAGUACGCCAAAGGAAUGAAUGUGAAGCAUAAUUGGCCGAGGAUAUGCGUUCUAUGCAUAAGCCGUGAAAGGUACGGUAUCUAUGGUGCACCGGCCAAGGACAUAAUAGCAAGGAUAAAUUAGUCAAUGACAGUGAGCUGAAGGCUAACACGUCUAUGACCUGUGUACUAUCGGAAAACCGGCUAAGACAAGCUUGCUAUGCAAAUGCCGUCGAAGAGAGUGCAGCGAAGUUGAACACUUC'
p27
aF0.8798449612403101
aa(lp28
S'Frog Foot'
p29
aS'AAAAAAAAAAUUAGGAAACUAAGUACGAAAGUACGGACUAUGUCC'
p30
aF1.0
aa(lp31
S'InfoRNA test 16'
p32
aS'GGUAUCGCCGAGGGCUAAUGCCUUAUGAGAGAUGCC'
p33
aF1.0
aa(lp34
S'Mat - Martian 2'
p35
aS'GUACAAAAGUGCAAAGGUAUACAAGGUGUACAAAAAAAGUAUACCGUAUACCAAGGGAUAUACAAAAAAAGUAUACAUGUAUACAAAAAAAGUAUACAGUAUACUAAAGAUAUAUAUAUAUGUAAAAAUCAUAUAUAGUAUAUCAAAAAAGUAUAUCCAAAGAAUAUGGUAUAUCAAAAAAAGAUAUAUAACAUAUUCGAAGCGCAAAAGCGC'
p36
aF1.0
aa(lp37
S'square'
p38
aS'GGUGUACGGAUACGGGUUCCUGUAUCUAUGAUACAAAAUGGGACCCAAAAGUAUCCAAAAGUACACC'
p39
aF1.0
aa(lp40
S'Six legd turtle 2'
p41
aS'AAAAAACUAGUUGAAAAAAAGAGAAAGAUAAAGGAAAACCGAAGAUAAUACGAAUCAAAAGGGAGGGAAAAAUAAUGUAAAAAAAAAAAAAAAAAAAA'
p42
aF0.9591836734693877
aa(lp43
S'Small and Easy 6'
p44
aS'UUAGGUAAAUCCAAAUUAAAAAAAUAUUAA'
p45
aF0.8666666666666667
aa(lp46
S'Fractile'
p47
aS'AAAAAAAAAAAAGCAAAAGCAAAGCAAAGCGAAAGCAACCAAAGCAAAAGCAAAGGAAGCAAAAGCAAAGCAAGCGAAAGCAAAAAAAAAAAAAAAAAAAAAAAA'
p48
aF1.0
aa(lp49
S'Six legd Turtle'
p50
aS'AAAAAUCAAAAGAGAAAUUAAAGAUAAAAAUAAAACCGAAAGUAAAAAGAAAAUUAAAAGCAAAGGCAAAAGCAAAAGUUAAACAAAAAAAAAAAAAAAAAAAAA'
p51
aF0.9619047619047619
aa(lp52
S'snoRNA SNORD64'
p53
aS'GGUAUCAAAAAGACAAAAGACAAAGAUACAAAAAAAAAAAAAGUAUCGAAAGUCAAGUCAAGAUACC'
p54
aF1.0
aa(lp55
S'Chalk Outline'
p56
aS'AAAAAGUACAGAUACAAAAGUAGUCAAUCAGACAAAAGUCGAUAGCUCCCAAAAGGUGAGCAGGAUCGAAAGAUACCGUACAAAAAAAAAAAAAAAAAAAAAAA'
p57
aF1.0
aa(lp58
S'InfoRNA bulge test 9'
p59
aS'GCUAUACAGAGAGAGGUAUAGAAAGUUAUACCCCCGUAUAGC'
p60
aF1.0
aa(lp61
S'Tilted Russian Cross'
p62
aS'AAAAAAGGUGUACAAAGGUAAUGAAACUACAAAGAUAAGGUAUGAAAAUAUCGGCGCUAAUGGGUGCCGCACCAAAAGGUGAUAAGAAAAAAAAAAAAAAAAAAA'
p63
aF0.9142857142857143
aa(lp64
S'This is ACTUALLY Small And Easy 6'
p65
aS'GGGGAGAGAGAGAGAGAGAGAGAGAGAGAGAGAGAGAGAGAGAGAGAGAGAGAGAGAGAGAGAGAGAGAGAGAGAGAGAGAGAGAGAGAGAGAGAGAGAGAGAGAGAGAGAGAGAGAGAGAGAGAGAGAGAGAGAGAGAGAGAGAGAGAGAGAGAGAGAGAGAGAGAGAGAGAGAGAGAGAGAGAGAGAGAGAGAGAGAGAGAGAGAGAGAGAGAGAGAGAGAGAGAGAGAGAGAGAGAGAGAGAGAGAGAGAGAGAGAGAGAGAGAGAGAGAGAGAGAGAGAGAGAGAGAGAGAGAGAGAGAGAGAGAGAGAGAGAGAGAGAGAGAGAGAGAGAGAGAGAGAGAGAGAGAGAGAGAGAGAGAGAGAGAGAGAGAGAGAGAGAGAGAGAGAGAGAGAGAU'
p66
aF1.0
aa(lp67
S'Shortie 4'
p68
aS'GUGAAAACAGCGAAAGU'
p69
aF1.0
aa(lp70
S'Shape Test'
p71
aS'AAAAAGUGUUCAAGAUAGUAAAAAAUUUAUCGAGACAGAGAGUUACAAAAAGUAACGGUACAAAAGUGCACUCGUCAAGAACUCAAAAAAAAAAAAAAAAAAAA'
p72
aF1.0
aa(lp73
S'The Minitsry'
p74
aS'GACAAAAAGGCAAAAAGACAAAAAGACAAAAAGACAAAAAAAAGUCAGUCAGUCAGCCGGUC'
p75
aF1.0
aa(lp76
S'stickshift'
p77
aS'AAGGUAUCGCAAAAAGCAGAUACCAA'
p78
aF1.0
aa(lp79
S'U'
p80
aS'AAAAAGAUACAGAGAGCAGAGGUGUAUACAAAAGUAUACACCCGCCCGUAUCAAAAA'
p81
aF1.0
aa(lp82
S'Still Life (Sunflower In A Vase)'
p83
aS'AAAUUACAGUAGUCAAAAAGAUUAAUCGGGAAAAUCCCGUAGAUACAAAAAGUAUCAAGAUGCAAAGUAUCAGGAGCAAAAAAGGCUUGAGGCGCGAAAAGUGUCGGCUAUGUGUACAAAUCUAGGUAAGACCCAAAAAAGGGUCAGGUGCAAAAAAAAAAAAAGUACUAAAAAAAAAAAAAAAAAAAAAAAAAAAAAAAAAAAACCCUGUACAAAAAAAAAAAAAGUACCUAGGGAAAACCUUGAUUACUUAGAUUUGUAUAUAUAGCAAUAAACAAAAAGUUUAAAGACGUGAAAAGCUUCAAGAUGCGAAAAGCAUCAAUCCCAAAAUAUGUGAAGGAGACAAAAGUCUCAUUAGCCAAAAAGGCUAUGUAAAAA'
p84
aF0.9629629629629629
aa(lp85
S'Quasispecies 2-2 Loop Challenge'
p86
aS'AAAAAAGACGAACUACCUGAAAACAGGGUGUUCUGUACUUGUAUUCUGUACUGUCCUACAUCACGAAAAGUGGGGCUGGACGUUUAAAAAAAAAAAAAAAAAAAA'
p87
aF0.9809523809523809
aa(lp88
S'Corner bulge training'
p89
aS'AGGUAUCGAUACAAAGUAUCAAAAGAUACCA'
p90
aF1.0
aa(lp91
S'Spiral'
p92
aS'AAAAAGUACAGGUAUCAGACAGAUACAGUACAGUACAGCAGCAGCAGCAGCAGCAAAAAGCGCGCGCGCGCGUACGUACGUAUCGUCGAUACCGUACAAAAA'
p93
aF1.0
aa(lp94
S'InfoRNA bulge test'
p95
aS'AAAAAAAAAAAAAAAAAAAAAAAAAAAAAGGCGUAAAACGGCCAAAUGAAGUAUGACAUUGCGCUUCAGGAAAACUCGAUGCAGUUUUGAUCUAUCUGUCUAAAGGGACCUAAAAUCGACCG'
p96
aF1.0
aa(lp97
S'Worm 1'
p98
aS'AAAAAAAUAGCGGAACAUCCUCGCAAAAGAGGUAGGUGUACACGA'
p99
aF0.9555555555555556
aa(lp100
S'just down to 1 bulge'
p101
aS'AAAAGGCACAGAUACAAAAGUAUCAGACAAAAGUCAGUAGCAAAGGUACAGAGAAAACUCAGACAAAAGUCGGUACAAAAAAAAAAAAAAAAAAAA'
p102
aF1.0
aa(lp103
S'Iron Cross'
p104
aS'UAGAAUACAAAGGCAACCAAACGAACAGAAAAUUGAUCUAAAGGCGAUCAAAGGAUAGGCAAAGCCAGCCAAAUGUAAUUAAAAGUAGGAAAAAUCCAGCAAAAGUGAAUCAAAGAUAUUUUA'
p105
aF0.926829268292683
aa(lp106
S'loops and stems'
p107
aS'AAAAAGGUAUACAAAGUACAAAGGACAAAGGACAAAAAAAAAGAUACAAAAAAAAAAAAGUAUCAAAGUCCGAAAGUACAAAAAAAAAAGUACAAAGUCCAAAGACAAAAAAAAGUCAAAGUACAAGCAAAAAAGCAAAGUAUACCAAAAA'
p108
aF1.0
aa(lp109
S'Water Strider'
p110
aS'AAAAGGGUCAUUUAAGCAGCUAAAAAGAGGAGAAAUUCGUGGGGGGGGGCUUUAAUAGGUCUAAAGAUGACCUUAUUUGUCUAAAAAAAAAAAAAAAAAAAAA'
p111
aF0.941747572815534
aa(lp112
S'The Turtle(s) Move(s)'
p113
aS'AAAACAAAAGUAGGAGGAUAGAUUAAAAAAAAAGGUUUAUCCGAGAGUGCAAAACGCACGGAGUCAAAAAAUUGUGGUAUACAAAAAAAGUAUAAAAAACCAAGUUAAAGAGUCAGACACGAAAGUGGAAAGGUAUCAAAAAAAGAUGCCAAAAUACAAAAGUGAAAAACUCUACAAAGGAGAAAAAACCUCAUGACCAAAAAAUGUCUAAGAUGCUAAAAUGCAUCAAAGUAGAAAAACUACAAGUAGAGAAAAAAAAAGCGAAAGCACAGAACAAAAGUAAUGCCCAUAGGAAAAAAAAAUUAUGAAAAAAGGU'
p114
aF0.9810126582278481
aa(lp115
S'Adenine'
p116
aS'GAUACAGGUAUCAGGUAUCAGGUAUCAGGUAUGAGGUAUCAAAAGGUAUCAAAAAAGAUACCAGAUACCGGAUACAAAGGUAUACAAAGUAUACCGUGUCACAUACCAGAUACAUGUAUGAAACAUACAUAAAGUAUCAGAUACCAAAAGAUACCAAAAGAUACCAAAAGUAUC'
p117
aF1.0
aa(lp118
S'Tripod5'
p119
aS'AUGCGAGUGUUAAAUACAUCAACUAAAUGUUGUCGCUA'
p120
aF1.0
aa(lp121
S'Shortie 6'
p122
aS'GCGAAAGCGGCAAAGGCAGCAAAAGCUUCGAAAGA'
p123
aF1.0
aa(lp124
S'Runner'
p125
aS'AAUAUGCCAUGGUCCAAAAUUCCAAGGGGAGGGCCUAUGCCAAGAUAGUGGGAUUAGCAUCCCUUAUAAGGAGACAAAUGGGAUACGCCGAUAAUGAAAACGUGUCUUGCUUAAAA'
p126
aF0.9224137931034483
aa(lp127
S'Recoil'
p128
aS'AAAAAGAUACAAGCAAGCAAGACAAGACAAGCAAGCAAAGCAGCAGUCAGUCAGCAGCAGUAUCAAAAAAAAAAAAAAAAAAAAA'
p129
aF1.0
aa(lp130
S'[CloudBeta] An Arm and a Leg 1.0'
p131
aS'AAAAAGACACACACAAAAGUCGUGGGGAGCAAAAGCCUCAGUCAAAAAAAAAAAAAAAAAAAA'
p132
aF1.0
aa(lp133
S'[CloudBeta] 5 Adjacent Stack Multi-Branch Loop'
p134
aS'GUUAGCAGCUAAUGCUGGUAUCGAAAGAUACGGUACGAAAGUGCCGCUUGAAAAGGCCUAACA'
p135
aF1.0
aa(lp136
S'Triple Y'
p137
aS'AAAAGUGCGGUACGCGCGAAAAUGAGUAUUAAUGAAACUAAGUAGAUAAUAAUUACCGUGCGAAAGUACGUACCGCAAAAAAAAAAAAAAAAAAAAA'
p138
aF0.9175257731958762
aa(lp139
S'Misfolded Aptamer'
p140
aS'GAUCGAAAAAACCGCAAGGCGGGCAAAGGCAAGGGGGGGGUUAAAAGAUC'
p141
aF0.92
aa(lp142
S'Flower power'
p143
aS'AAAAAGUACGCACAAAGUGCAGUUCGGAUAAAAUCCAAGUAGAAACUACAAUUCCAAGGGAAGAACAGUCCAAAGGACGUACAAAAAAAAAAAAAAAAAAAA'
p144
aF1.0
aa(lp145
S'Kudzu'
p146
aS'AAAAAAACUUAAGAGAGGCAGCAAAGCGAAGUUGAGCGCGAUGAGGAACCACAUCAGGUCGAAGAUAAACUCGUAGAUGUUAAAAAAAAAAAAAAAAAAAA'
p147
aF0.9207920792079208
aa(lp148
S'"1,2,3and4bulges"'
p149
aS'AAAAAAGGUGUGGGUAAAAAAGAAAGUAAGCAUAAUUGUAGCAUCGAAACCGCAAGCGAAAGAAUUUGGACUAAUGUCAGUAAGGAAAAAAAAAAAAAAAAAAAA'
p150
aF0.9809523809523809
aa(lp151
S'medallion'
p152
aS'GGUAUAUAUAGUCUAAUGACUAUUGCGUAACUGCAAACGAAACACGUGUAGCAAAGACUACAAAACUAAUGUUGGCUACCAAAAGGUAGCAGCUAAAGGGCUGUCAAAGUCCUGCCGUCUAAUGAUGGCGGUCAAAAGGCACGUUUCGAAAGAAAUAGGACGAAAGUCUCAGAAAAUUGCUGUCUCAAAAGAGAUAAGAGGAAACUCUGUGUUCAAAAGAAUACUCUCAAAGGCCACUCAAAAGAGGGGUUUGGAAACAAGCUAGGAAAAAUCCGGGUAUCGAAAGAUACCUGAUAAAUAGCUGAUAAAAAUCAGGCUUCAAAAGGAGCCAUAUACC'
p153
aF0.9465875370919882
aa(lp154
S'[RNA] Repetitious Sequences 8/10'
p155
aS'AGCAAAAAAGCAAAAAAGCAAAAAAGCAAAAAAGUAAAAAAGCAAAAAAGCAAAAAAGCAAAAAAGCAAAAAAGCAAAAA'
p156
aF1.0
aa(lp157
S'Documenting repetitious behavior'
p158
aS'AAAAAAACAUAAAAAAAAUCAAAAAAAAAUCAAAAAAAAAGGGAAAAAAAAUCUAAAAAAAAGCAAAAAAAAAACAAAAAAAAAUGAAAAAAAAAGGAAAAAAAAGCCGAAAAAAAUCUAAAAAAAAAUUAAAAAAAAACAAAAAAAAAACGGAAAAAAAAUGAAAAAAAAACAGAAAAAAAGCGAAAAAAAAGACGAAAAAAAAGAAAAAAAAAAAGAAAAAAAACCUAAAAAAAAACGAAAAAAAAACGUAAAAAAAACGGAAAAAAAAAGUAAAAAAAGAGAAAAAAAAAGUAAAAAAAAGUCAAAAAAAAUCGUAAAAAAAAGUAAAAAAAAGGCAAAAAAAAAGAAAAAAAAAAGCAAAAAAAAAGAAAAAAAAAGGAAAAAAAAAUCGAAAAAA'
p159
aF0.94
aa(lp160
S'7 multiloop'
p161
aS'AUGGGGGUCAAAGGGCUCGAUGGUUAACAAUUCGGACGAAAGUUCGGUUUGGAAAUAAACUGCGAUAAUGUAUUAGUUGGAAACAGCUCUAC'
p162
aF0.9565217391304348
aa(lp163
S'Kyurem 7'
p164
aS'AAAAAGUUGGUCGUUUAAUAUCUGUAAAAGACCGGCUAAAGAGGAAGCCGUCUAAAAUGACAAAGGCAGUCCUAAAUACAACAAAAAAAAAAAAAAAAAAAA'
p165
aF0.9411764705882353
aa(lp166
S'JF1'
p167
aS'GAUGGUGUUCCAGAUACAAGAUACAAAAGGUAUCAAGAUGCAAAGAGACAAGGUAUGAGUAUAUAUAUAUAGUAAUCUAUAUAUAUAUAUAAGACAAAAGUCAGGCGGAUACGAAAGUAUUCGCCAUGAUACAAAAGUAUCUCAUACCAGUCUCAGCAUCAGAUACCGAAGGUGGAUCAAAAAGAUACCACCAUGAUAUCUAUGAAUAUAUAUAUAUGAAAACAUAUAUAUAUAUUACAUAGAUAUCUAAGAUACAAAAAAGUAUCGAUGAUAUACAAAAGUAUAUCAUCAGAGUAGGAAACUACAAGUAUCAAGUAUCAGUACAGACAGACAAAAGUCGUCGUACAGGUGUAUACAAAAGUAUACCACCAGGAAUCAUACAUCAAA'
p168
aF1.0
aa(lp169
S'multilooping fun'
p170
aS'UCCUGAGAGGAAAGAAGAAAUGCGUGUGGAACCAGA'
p171
aF0.8888888888888888
aa(lp172
S'Multiloop...'
p173
aS'GUACACUACAACUUAAAGUCACGCGACAGAGGGGGAAAACGCAUGCGAAAGUGGGACAAAGGUCAGUCAAACAAAUGUAGGUAAUCUAAAAUGAUUAAGCAAAAGCUGUAC'
p174
aF0.9459459459459459
aa(lp175
S'hard Y'
p176
aS'AAAAGGGAUCAAGGUGUAUCUAAUGAUACACCCGAUAUUUUAUAAAAAGUUAUAAGAUAGUCCAAAAA'
p177
aF0.9705882352941176
aa(lp178
S'Mat - Elements & Sections'
p179
aS'AAAAAGUAAGGGAAGAGUUUAGGGGAGAAAUUUACCAUGGAUAAAAGUCAGACGUCACACCUCCAAAACGGAUUGCGAACAUAACAAAAAAAAAAAAAAAAAAAA'
p180
aF0.9619047619047619
aa(lp181
S'Chicken feet'
p182
aS'AAAAAGCCGAACCAAGGGAGCAAAGAGAGUGGCGGUAGCAGAAAAGCUUAGAAUCAAGGGGAAAAAA'
p183
aF0.8507462686567164
aa(lp184
S'Bug 18'
p185
aS'GUGUGCUGAUAGAGGGUUGCUCUAAAAGAUUCUUCACUAUUUCUGCGGAACGU'
p186
aF0.9245283018867925
aa(lp187
S'Fractal star x5'
p188
aS'AAAAAGAUGCAUGAAUUACAAAGGUAAGGGUGUAAAAACACAAGGACAAAAGUUCAAGUAGAAAACUACAACAUGCGUUGAAAAGGUGUAUUAUGUACAAAAGUACUAGUAUAAAGAUACAAGUCCAAAGGGACAAGAAGGAAACUUCGAGAUACACCAAAAGGGGUUAUGGAGGACAAAAGUCCAGGCACAAAAGUGCAAGUACAAAAGUACAAGAAAAAAGUUUCAACAUAGCCCAAAAAUAUGUAUUCAGUACAAAAGUACAAGAACAAAAGUUCAAGACUAAAAAGUUAGGUAGAAAACUACAUAAUACAUAAAAAAGGUGUAUAAAGAAAAAAAUUUCAGGGAGAAAGCUCCAAAUGCUAAUGCGUAAGUUCAAAAGGGCAAUAUGCACCGAAAA'
p189
aF1.0
aa(lp190
S'Crop circle 2'
p191
aS'ACUAGGUGAAGUUAAAAUGCAAAAAAAAAAAAAAAAAAAAAAAAAAAAAAAAAAAAAAAAAUUGAGAAAAAAAAAAAGGCAAAAAAAAAACAAAAAAAGUAAAGUUAAAA'
p192
aF0.9636363636363636
aa(lp193
S'Branching Loop'
p194
aS'AUGAGACUAAAAGAUAAGAUAACGUUUUAGCAAGUAAAAA'
p195
aF0.95
aa(lp196
S'Bug 38'
p197
aS'UUAAGGGUGAAGCUAAAACUGCGCGCACCGAAGCAU'
p198
aF0.9444444444444444
aa(lp199
S'Simple Single Bond'
p200
aS'AAAAAAGGAAAAAAAUAGACGAAAAGUCUUAAAAAAAACAAAAAAAAAAAAAAAAAAAAAA'
p201
aF1.0
aa(lp202
S'Taraxacum officinale'
p203
aS'UAGGGAAACACUAGGUGAGAAAAUCACAGUGCUAAUGACACACUGGAAAGCCUAGUCUCCAAAGGAUGUAGUCGUAAUUAGACGGAUGGUAUAUCGAUGUUGAAUUGAAGAUUACGACAUCAGUUACAAAUGGCUGGUCUAGGUAUACAAAGUAUACCUGACCAGCCAUGUACAGGUAUGAAGCAUACCGUACGUAACAAAGAUAUACCAUCAGGACGAAAGACUCAAAACAAAGAAAUUGGAGUAAAGGACACUACUGCCAGGAUAUUUUGCAAAAGAAAG'
p204
aF0.8936170212765957
aa(lp205
S'Headless Bug on Windshield'
p206
aS'GGUAUCGAAAGAUUUGAAGGCACGCAAAAAAAAAAAAAAAAAAAAAAAAAGACAGCAAGGAACGUAAAUCAGUAGGGAAGAAACGGUAAAAAGGCAAAAGCAAAAAAUUCUUCAAAAAACCCAGCAGCAAAAAAAGAAAAUGAACAAUAGCACCCUAAAAAAAAAAAAAUGGGGGGCGCCUGGGCAAUUCAGUCAAUCCA'
p207
aF0.97
aa(lp208
S'Pokeball'
p209
aS'AAAGGUAUGCAAAAGCAAGUAGUUCUAGUUCUUAGUUAGCUUAGGUGGGAAACUUCUCCACAAAAAACUACGGGGAGGAGCGCGUGCCAAAAAAAAGGGCGCCAAAAGGAACGAAGUGGAGAAGCCAAGUAAAGUUUGAGUGAAACAACACUAGGGCCUGAGUCACACACGGCCGGCGCCUAAA'
p210
aF0.9347826086956522
aa(lp211
S'Variation of a crop circle'
p212
aS'AAAUGCGAAUUCAAAGACAAAAUUGAGGAUGCAAAGAUCUCAAAACAAAAAAGUUAAAAAAAGGUAAAAAAAAGUUAAAAAAAAAAAA'
p213
aF0.9545454545454546
aa(lp214
S'Loop next to a Multiloop'
p215
aS'AGGGUGGAUGAAAAAAUCCCUUAUCAAAAGAUAGGAGGUAUCCGAAAGGAUACCGGUAAAAAAUAUUCACCAA'
p216
aF0.9726027397260274
aa(lp217
S'Snowflake 4'
p218
aS'AGCGAAACGUUCCUACCCAAAAAUAAUACUGGCAACGCGAAAGCAAUAGGUACAAAGUACAAGUCCGAAGGACCUAUUGCAAAGGCGUUGCAAGCUCGGGAAAGUCAGAGCCAUCUAUGAUGAAGUACUAUGUACGCUCUGCAAAGGCCGAGCGUGAUAUGCAAAAAUGGAACGAUCAAAGAUCAAGUACAAAGUACGUUCCCCAAAAGCAUAUCUUUGUUCUUAAAAACGGAUUGAUCAAAGAUCAAGUAUAAAGUACGAUCCGCAAAAGCGGACGUAUAGCCGUCAAUGUGUUGCGGACGAAGUCCAAGUUCAAAGAACGUAGCGCUAAUGCGGUUGGCGUGUUGUGAAAGAGUAGGGAAUAAAAUUC'
p219
aF0.9135135135135135
aa(lp220
S'Mat - Cuboid'
p221
aS'AAAUUAAAAGGAAGCAAAAUCAAGAAAAAGAAGUAAGCAAAAGCGAGCUAGCAAAAGGAGAGGCAAAGCAAAACGUAGCUUGGAAGCAAAAGCAACCAACCAUGCAGGAAAAAGUGGCCUUCCAGCCAUUCAAAAGCCGCCCUCCAUCCAGCCAUCCAAAAACUGCCUGUUAGCCAUACAUCCAAAAUCCUAUGACUUAAUUACAUUCAAAAAAAUGCCUGGCAUGCAGGAAUUAUAGGAGGUCGGGACGGUUGGACACCGAGCGUGGGUAGGUCGGACGGGGUUGGCGGCCCGGACGCGCAGGGUAUGAGGCGAGUCCAAUUUUACAUCGGUGAGCAAGCAAGGCAUCCAAGCGCAAAGGAGUCAAGAGUAACUAGAAA'
p222
aF0.7763157894736842
aa(lp223
S'Misfolded Aptamer 6'
p224
aS'AAAAAGGGCAAAAAAGGACAGGGAUGGAUGAAAAAAAAUUAGUACAAAAGGUUCAAAAAAAGUCAAAAAAAAAAA'
p225
aF1.0
aa(lp226
S'Snowflake 3'
p227
aS'GACUCAAAGAAACGCGACAAAAGUCAAGUACAGUACAAGCCAAAAGGCGAGAACUAAUGUACCGAAUGUACAAAAGUACUCGACAAAAGUCAGUUACAGGACAAGACAAAAGUCGGGACCAAAAGAGUUAAAGACCCAAAAGUGUUCGUUAAAAGACAGGUACUGUACAAUUGAAAACAAGAGAACUAAUGUAUCAAAGAUACAAAAGUACUCGACAAAAGUCAAGUGCUUUACAAGACAAAAGUCGAGAACAAAAGUAUUAAAGAUACGAAAGUACUCGACAAAAGACAAGUAGUGUACAAGACAAAAAUCUAGAACUAAUGUAUCGAAGAUACAAAAGUACUCGAAGAAACUCAAGUAUUGUACAAGGCAAAAGACGUGGUGAAAAGGGUC'
p228
aF0.7989821882951654
aa(lp229
S'Hard Y and a bit more'
p230
aS'AAAAACAGAGACAGCCACUAAUGUGGACUUUAUACUGCUGGAAUAAAAGUUCAAGAUACAAAAAAGUAUUAUGCUGUAUGCUCUGAAAAAAAAAAAAAAAAAAAAA'
p231
aF0.9716981132075472
aa(lp232
S'Mat - Lot 2-2 B'
p233
aS'AGAGGCUGCGAGCUACAAAAGCGAUCUUAAAGGAAAAAGGGCGGCGCCUCAAAACGAUGCUAAAGCAAGGUGGGUGUACCAAAAGAGGCAAUUGCCAAAAGAAAAAGCGCACGUAAAAUAACGUGGGCGGGGUGAGCAUGAACAUAGCUUAGAUAACCAAAAGAGACGACAAAAGUAAAACGGAUCGCGGGUAAAAUUUGCCCUACCUCAUCAACCACUUCCAAAAGCUUCUGCGGCUAAACUCUAAUGGGGCAGUACAAAGUCGUCCCUGCUUAAUAAACGAA'
p234
aF0.6830985915492958
aa(lp235
S'Shapes and Energy'
p236
aS'AAAAAAGAGCCCGUACCAAAAGAAGGCUCACGAAAGGGGCCAAGCGGUAAAUGAAAAACGUUUGAAAAGACCGACGGCCCGAAAAAAAAAAAAAAAAAAAA'
p237
aF0.9603960396039604
aa(lp238
S"Spiral of 5's"
p239
aS'GAAAAGAUACAAAGAUAGAAAGAUAGAAAAGAUGCAAAGAGAGAAAGAUAGAAGGUGCAAAAGAUACAAAGAUAGAAAGAUAGAAGAUACAAAGAUCGAAAGAUAGAAGAUACUAAUAUAGAAGAUACAAGAUACAAGAUACAAGAUACAGAUACGGGUGUUAUACAAAAAGUAUGGGGGAACACCAAAAAGUAUCAAAAAGUAUCAAAAAGUAUCAAAAAGUAUCGAAAAGUAUCAAAAACUAUAAAAAUGUAUCAAAAACUAUCGAAAACGAUCGAAAAGUAUCGAAAACUAUCAAAAACUAUCAAAAAGUAUCAAAAAGUACCAAAAACUAUCAAAAACUUUCAAAAAGUAUCAAAAACUGUCAAAAACUAUCAAAAAGUAUCAAAAACAAAAA'
p240
aF0.9949622166246851
aa(lp241
S'Campfire'
p242
aS'AAAAGGGCGAGUGUCCAAGUCAACUAAUAAAUUUAGGAGUUGAAAGUAUUUCGUUGUGGUCUAUAUUGUGUAAAGAAAUUAUGCCCUGUAACCGGCACCAACUAAUGUGGGCGUAUAAUCAAAGGGGCGAUACAAGGAGAAGACACUAGAAAUCACAUAGAGACAUUUCGAAAGAAGGUCUUGGAAGUUGGAAAUCAAGCAUUCGGUGGUAC'
p243
aF0.8490566037735849
aa(lp244
S'Anemone'
p245
aS'AAAGGGAUCAAAAGAUCCCGGACCAAAGGGUUCCCCGUGAAAACGCGGGUUUGCAAAGGUGAAAGUCUAGAACCAUGACUAUGUCAAUGUUUAUACCCUAAUGGAUAGAGAACGAAAGUUCUCACAGACAAAAGGUUAAUGAGCAAAGGCUUAUGUUCCUAAUGCAAAGGCAUAUAAUUACGCCGUAUGGAAACAUACGACUUCGAAAGAGACA'
p246
aF0.8644859813084113
aa(lp247
S'Fractal 3'
p248
aS'AAAAAGUAUAGAGAUCGAAUGGUAGAAAUGACUAAGAGUGAAAAGGCGGAAAACCACUCAGACAGAAAAGUCGAGAAAUCAGUCGAACAGAUAACCCGCGAAAGUAGCUAGUACAAAAA'
p249
aF0.9159663865546218
aa(lp250
S'Kyurem 5'
p251
aS'AAAAUACAAAGUUAAUAAUUUAAAGAAAACUUGAUAUAAAUCCUAAAUGGGGGAUGUUGAAAAAAACAGAACGAAGCAGAUACUUAAAAAAAAAAAAAAAAAAA'
p252
aF0.9230769230769231
aa(lp253
S'Snowflake Necklace ( or v2.0 )'
p254
aS'UGUAAUUUUAUUUACAGACACGUCAAAAAAAAGGAAAAACCAGUAAAAGGCAGCAAAAAGUAGCAAAAAGUAGUGUCAAGCAAAAAUUCAGAAAUAACAAAAAAUAGUAAAAAGUAUCAAAAAGAAGCAAAAGGCAGCUAAAUGCAGCUUCAGACAAAAGGCCAGUUUCGGCAAAAAGCAUCGAAAAGAAGCAAAAAGCAUCAAAAGGAAGGAAAAACCAAAAGCACGCAAAAAGCCAGACAAACCUAAAAGGAUCGAAAAGUAUUAAAAAAAAUGAAAAACAAGCGAAAAGCAUUGACAGCAUAAAUUGCACGUACAGCAAAAAGCUUAUAAAUUAGCAAAAAAGGAGCAAAAAGCAAGUAAAUUUGGUAUGAGUAAAUAGAGUUAUA'
p255
aF0.8766066838046273
aa(lp256
S'Methaqualone C16H14N2O Structural Representation'
p257
aS'AAAAAAAUUGCAGUUAUUACAGCCAAAAGACAGCCACACAAAGGCGACACAGACAAAAGUCAGCCAAGCAAAAGCUAGGCCAAAAAAGCCAGGCCGUGAGGCAGUGUGACACAGAACAGUACAAGGAAAUCAAUGCAAAGCUAAAAAAAGAUAGUUAGCCAAAAGUCUGCAAAGGUAGACAAAACUCGACUUCAAAACACAUAAAAGUUCAGCGAAACAGAGAGACAAAAGACAAAAGUCAGUAAGACAAAAGUCACACAGGCAAAGGACCGUGGCAAGAAAUUGACUCAGACGACAAAAGUCUACUAAUGUAAUACAAAAGUAGUCAGUAAGUAUAAAGUACGGUAGAAAAAAA'
p258
aF0.8985915492957747
aa(lp259
S"Cat's Toy 2"
p260
aS'AAAAAAUGGUUGUAAAGCGUUUAAAAAAAAAAAAAAACAUGUACUAAAUUAAAAGGAAAUUAAAGAAAAAAAAAGGGGAAAAAGUCAGUCAUUAAAA'
p261
aF0.979381443298969
aa(lp262
S'Zigzag Semicircle'
p263
aS'AAAUGGUCUGUUUCAAAAGGACAUAAGACCUAAA'
p264
aF0.9411764705882353
aa(lp265
S'Short String 4'
p266
aS'AAAAAAACAGCUAGUAAGAAACAGUGGGAAAGCCGCAAGGAAAUGCGAAAAAAGCGGAGGUAUAAAUAGCAUGGGUAAAAAAAAAAAAAAAAAAAAA'
p267
aF0.9381443298969072
aa(lp268
S'Gladius'
p269
aS'GAAAAGAAAGAGAGAAAAGAGAAAACAAAUGCUGUCAAAGUACAAAAGUACAUAUACACGAGACAAUAUUUCAUGUUUACAAGUGAUAUAUCACACAACAGAUGGAGUACUGUUCAAGAUCAAAGAUCAGAGAUGUACCACAUCGAUUGUGGAGUAUAUCUCCAGUAGUGCGGAAAAAAGGUCAAUAGUAUGAGACUAAGACAGAUACGGAUGACACACGUUCAGAAACUCGGAUGCUUUACAGUAUCCAGAUUCAAGUUGUAGAUAGGUACUGAAAGGUACCAAAUCGACAACAGGAAUACGGAUAACGUAAAGCUUAAGGGUAUAAGAACUGAGGUCUCAAGUAUCUUUACAAAGGUAAUAAGUCAGCAAAGGAAUACAAUAAAAGGGACAAGAAAAC'
p270
aF0.8925
aa(lp271
S'Thunderbolt'
p272
aS'GCAAGUGAUAAAAAAAAGGGGCUGCGCAGGGGGGAAACACGAGUCGCAAAGAAAAAGCAAAAAAGUACAAAAAGUACAAAAAGACAAAGGGUGGAAAAAAAAAGUUAAAAUAAAUAAGUGAGGAAAAAGAGAGUAGCUGAAAAACUCAAAAUGUGCGAAAAUCACGACCUAAAAGAGAUUACGAAAAAAAAAAGAUCUGCAAAGCGGACCAAAAAACUGAAGUAGGAAAAAAACAGCAGGGGAGUACCUAUGGUACUGCGACAUAAAAAAAAAAACCCCCCAAAAAAAAACAUUUAAAAACGUUGCUAAAAGAAAAAAAACGAAAUGCAGCGAACUAGAAAGUGACUCGAAAAAAAAGAGCUACCACAAAAAGAAAAAAACAAUCGCAAGCA'
p273
aF0.923469387755102
aa(lp274
S'Mutated chicken feet'
p275
aS'GAAAAAAGCAGAGGCAAAGCUGCAAAGCAAAGUUCGGCAGCGACAAGUGAACAAAUCGAACUCAAGGACGAGGAAGCUAGCAAAGUUAGGAGCAAAAAAA'
p276
aF0.83
aa(lp277
S'Chicken Tracks'
p278
aS'AAAAAAAAAGAACACGUACAAAAGUACAAGUACAAAGGUACAAGGUCAAAAGACCGUGUUCUAAGACCUCGAAACGAGAAGUACAAAGUACAAGCGGUAUCCGUGUCAAAAAAAAA'
p279
aF1.0
aa(lp280
S'Looking Back Again'
p281
aS'GACAGGUCGUACAAAAAGGUACCGAAGAUACCGGUACAAGACAAGAAGACAAAGUCUUUGGAUUCAAAAUACAAAGGUAUAAAAGAAUCAAGUCGAGGCAAGUGGGAAUAAAAGAGUCAAAGGGCUCAAAAAUUUUGACAUGAUACAAACUAUCGAUACAAAGUAUCAUUGUCAGAAUUAUAAGCUCAAGGGCAUGAAACCAUGAACAGCACGCAGAUUGGGAAAACUCAAGACAAUAAAGUAUCGACGGCAUGGAAAUAAAAAAAGGGCUGGAAAAAAAAGCACAAAAGGUGCCCGGAAACCCAUGUUGUACAAAAAAGCGGUAUCAAAAGUUACCAAGACACAAAGUGUAUACAAGGUAUAAAGUCGCAAAAGUCCCUAUCAAGGAC'
p282
aF0.8946015424164524
aa(lp283
S'Multilooping 6'
p284
aS'AGUGGACUGUGUAAUGAAAAUUGCGGUACGAAAGUAUCUCAGGUGAUGCUAAUGCGUCGACAUUAAUGUGUCGUCGUCCAAA'
p285
aF0.926829268292683
aa(lp286
S'Cesspool'
p287
aS'GAAGAAGAAAGCAAAACUUCGGAAGCAAUGCUAACAAGCUGUCGAGUCGAAAACCCCAAUUCAAAAGCCUACAGGGGAAACAACAAAAGUUUUAGGAAAACAAGACUUCUGGGUGAAACUUAACAUGCCGUCGAGGUGAAAACCACAAUUCAAAAGCCAACACAAUAACCCCAUCAAACCUUUAACAAAAGAAUAGUAUAUGGACAAACUCAACAAAUCUUCAAGUUUAAAAACCCAGUUCAAAAGCCCACAGUUAAAAGAAAUAGGAACGAUUAUCAAAAGUUGGGUGAUGAGACAAACUCAAAUAUCCCACUUGUAGUAAUCGAAUAUUCAAAAGCCCACAGUAAAAAUAGAUCUG'
p288
aF0.6564245810055865
aa(lp289
S'Hoglafractal'
p290
aS'AAGUGUAAGUUACAAAACUUGUAAAAAAGCAAGGUAACGAACAAAGUACGAAAAGUACGUACUACAACACCAAUGUGGUCAGACAAAGUAGAAAGUACAAAAAAGUACCUACGACAAGACAAAAAGUCGUCGCAGCGAAAGCGCAGUCGAAAAGAGAAGACGAAAAAGUCCUCAGACCGAAAAAGCUGGUUAGCACCUGAUACGAAAAAUAGCUAAAAUGCAUGACAAAAAGUCGCAAAAGCAGGUAUGUAAAAUGUGAAAAGGUACUCUAAAUGAAACCGGAUGCUAUGCGUCCGAAAAAAUCAUACCAAAAAAGUAUCUAAAACUAUGAAAGUUAAAGUAUCAAAGAGGAGAAGAAAAGCAAAAGCGAAAAGUCGAUAUCGAAGAUAUCCCUACUCAC'
p291
aF0.9125
aa(lp292
S'Bullseye'
p293
aS'AAGUAUAUGCAAGGUACAGAUACAAAGUACUAGUGCGAAGUACGACAAAAAAAACCUGUUCUAUGUUCAAGUGCAAAGCACGUUUACAAGGUACGGGAAAAAAAACAGGUACUAUUUACAUGAGGAAACUUCUAGUAUAAACUACCUGAAAAAAAGGACGCACAAAGUGCAAGUACAAGGUACAAUGUCAAAGUCCGUCAAA'
p294
aF0.8316831683168316
aa(lp295
S'Shooting Star'
p296
aS'GGUUUGGUACCGUAUAGAAACACUUCGAAACAGAUAGUAAAAGACGUACGUCGCAGUCGCAACUGCACCAGAUGGUACAGAUUCUCAAAGAUACAGACAGAUCAACGAAAGCGGAUACGUCGAUAGACUUCUGAGUCUGGCGUAAAACAACAUCGUAUGAUACAAAGUAUCAGAUGCAAAGAAUCGAAAAAGGACAGUACAGGACAGUACAGUACAAACGUAUACAAGGUAUAUGGGAUUCGAAGGAUCGUGCGGCAUACAAAGUAUGCAAGGUGGAAACCACCGUACCUGCAACUAAUGAAAUAAUGUCAGAGACAGAACAUGAAAAGAGGUUACGUCACAGGCAGUGAAUGUACACAAACCA'
p297
aF0.8021978021978022
aa(lp298
S'Teslagon'
p299
aS'AAAAAAUUAAAAAAAGGUCGAAAAAAGGCGGGAAAAAAAAAAAAAAAGCCAACAGUAAUCAAAAAAAAAAAAAAGGCGGCAAAAAAAAGGUCUAAAAAUUCGAAAAAAAAAAAAAAGGUAAAAAAGGAGCAAAAAAAAGAUCCAAAAAAAAAAAAAAGGAAACAGUAUCUAAAAAAAAAAAAAAGGGGCUAAAAAAAACAGUAAAAAAAGCAAAAAAAAAAAAAAAACUAAAAAGACCGUAAAAAAAUCCGUAAAAAAAAAAAAAAAUCUAACAGUAUGCAAAAAAAAAAAAAAAACAGGAAAAAAAGCUUCUAAAAAAGUAAAAAAAAAAAACGAAACAAAAAAAAAAACAAACCAAAAAAGCUUUUAAAAAAGGGGAAAA'
p300
aF0.8979057591623036
aa.