(lp0
(lp1
S'Simple Hairpin'
p2
aS'GAUAGAAAAAACUAUC'
p3
aF1.0
aa(lp4
S'Arabidopsis Thaliana 6 RNA - Difficulty Level 0'
p5
aS'GAUAUACAAAACACAAAAAAAAAAAGUGCAUAUAUCAAGAUAUAUAUAUAUAUAUAGAAACAUAGAAAAAACUAUGACUAUAUAAUAUAUAUAUAUCAAGAUAUAUGAAGUAUAUC'
p6
aF1.0
aa(lp7
S'Prion Pseudoknot - Difficulty Level 0'
p8
aS'GAUAUCAGAUCAAAAGAUCGAUAAUCAAAAAAAAAA'
p9
aF1.0
aa(lp10
S'Human Integrated Adenovirus - Difficulty Level 0'
p11
aS'GGUGAUCUUAUAUGGGCGCUCAAAAAAAAAAGACUCCAGAUUGAAACAAACUUUAGAUAAACUGAGAGACAUUCUAAAAAAUGAAUGUUUUUGACAGGAUUUAUAAAAAGAUCAAAACGUCUGAAAGAUAUAGAAAAAAUAUAUCGGGUAAAAAAAAAAAGGAGUGCAUAUAAAAAUAGGGUAAAUAUCAAA'
p12
aF0.9583333333333334
aa(lp13
S'The Gammaretrovirus Signal - Difficulty Level 0'
p14
aS'AAGGCGGGAUAUCAAAGGAUAUCAAGACAAAAAAGAUCAAGAGAGAUCGGUAGAAAACUACCAAAAGAUCCUCGAUUAAGAUAUAUCAAAGGAUAUAUCGA'
p15
aF1.0
aa(lp16
S'Saccharomyces Cerevisiae - Difficulty Level 0'
p17
aS'GAGCUUGGCCCAAAAAACGGGGCGGGGAAAAAAAAAAAUAACCAGAAUGACGUAAAAACCGUCACGAGUUCAAAUGAUAAGCAUGUGCAAAAAAAGGUACCCCAAAAAAAAAAAAAGGGAAAACAGCGGAAAAAAUGUUGGUUUAUUUAAUCUUAUACAAGACCGAAAAAAAGGUCCAUUACUAAAAAUGUAAUGAAAACACACUAAAAAUGUGUGGUGUGGGUAAGCACAUAUAAGAUCAAAAAAAGGAUCCACAUCUAAAAAUGAUGUGAAAAUGUUCGAAAAAAGAAUAGUAUGUGAAAUUAUAUCCAAGUUCGAAAAAAAGAACCAUUUCUAAAAAUGAGAUGAAAACAUCGGAAAAAAUGAUGGGAUGUAUAAA'
p18
aF1.0
aa(lp19
S'Fractal 2'
p20
aS'AAAAUGAUAUAGUAAACAUAUAUAUCAAGAUGAAAAAAAAAACAUCAACAUCGAAAAAAAAAGAUGAACAUCAAAAAAAAAAGAUGGAGAUAUAUGUGAAAGAUAUAUAUCUAGAUCAAAAAAAAAAGAUCAAGAUCAAAAAAAAAAGAUCAAGCUCAAAAAAAAAAGAGCAUGAUAUAUAUCGAAGAUGUAUAUCAAGAUCAAAAAAAAAAGAUCAUCAUCUAAAAAAAAUGAUGUGCGUGGAAAAAAAAACACGAAGAUAUACAUCAAAAUUAUAUCUAAAA'
p21
aF1.0
aa(lp22
S'G-C Placement'
p23
aS'GGAGGAAUUCCA'
p24
aF1.0
aa(lp25
S'The Sun'
p26
aS'CAGAGUACGAGAAGCUUGGAUGCCUGAAACGGAGUCAUGGAAGCUGUCAUACCUUAAACGGGGACAUAGUAUCUACAAAACCUGGAACCGAUAUAUAGUAUCUAUUAAUGCGGAAGUGGAAAUAUAUAAGGAAUAAAUUCCGAAGUUCAGUGAAAGAAGUCUUAACACGGAAAACAGAGAUAUAAAAGUUGUAAGUCCUGAAUAAGAGUAAGAGGAACCAGCAAGCUGGUAAUAGAGAGAUCUAAGAGAUAACUCCUG'
p27
aF0.7868217054263565
aa(lp28
S'Frog Foot'
p29
aS'AAAAAAAAAACGCUUAAUAGCGCGGGUAAUUCUGGGUCAAGGACC'
p30
aF1.0
aa(lp31
S'InfoRNA test 16'
p32
aS'GAUAGGAGACAUAUCAAAGGAUAUAGUACAUUUAUC'
p33
aF1.0
aa(lp34
S'Mat - Martian 2'
p35
aS'GAUCAAAAGAUCAAACAUAUAGAAGAUAUACAAAAAAAGUAUAUCCUAUAUGAAAGAUAUAUCAAAAAUGAUAUAGAGAUAUACUAAAAAUGUAUAUCCUAUAUCUAUCAUAUAUAUUUAUCAAAAAAAGAUAAAUAAUAUAUGUAAAAAGAUAUAUCAAAGAUAUAGAUAUAUCAAAAAAAGAUAUAUAACUAUAUCAAACAUCAAAAGAUG'
p36
aF1.0
aa(lp37
S'square'
p38
aS'GAUAUAGCAUAUCGAUAUAGCAUAUCAAAGAUAUGAAAACUAUAUCAAAAGAUAUGAAAACUAUAUC'
p39
aF1.0
aa(lp40
S'Six legd turtle 2'
p41
aS'AAAAACUAAACAAAAAUGACAUUCAAUGAUAAGGAACGACAAGGUAAAAACAAACAGAAAAGAAAAGAAAGAGAAAAGGAAAAAAAAAAAAAAAAAAA'
p42
aF0.9591836734693877
aa(lp43
S'Small and Easy 6'
p44
aS'AGGUGGAAAACAAAGGUAAAAAAAAGCCUU'
p45
aF0.8666666666666667
aa(lp46
S'Fractile'
p47
aS'AAAAAAAAAAAACCAAAAGGAAACCAAAGAGAAAUCGAUGAAAGCGAAAGUAAGCAAACCAAAAGGAAAGGAAGCAAAAGCAAAAAAAAAAAAAAAAAAAAAAAA'
p48
aF1.0
aa(lp49
S'Six legd Turtle'
p50
aS'AAAAAUCUAAUUUAAAUGGUAAAUAGAAAUGAAAAUUGAAAGGAAAACCAAAGGGAAAACAUAAUCCUAAAGCUAAUGCGAAUGACAAAAAAAAAAAAAAAAAAA'
p51
aF0.9619047619047619
aa(lp52
S'snoRNA SNORD64'
p53
aS'GAUAUCAAAAACACAAAACACAAAGAUACAAAAAAAAAAAAAGUAUCAAAAGUGAAGUGAAGAUAUC'
p54
aF1.0
aa(lp55
S'Chalk Outline'
p56
aS'AAAAGCAGCAGACUCUAAUGACGUCUGGGAGAUGAAAAUCCCCUGAUAGCUAAUGUAUAUCUCGAAGGAAACUUGCGGCUGAAAAAAAAAAAAAAAAAAAAAAA'
p57
aF1.0
aa(lp58
S'InfoRNA bulge test 9'
p59
aS'GAUAUAGAGAGAGAGAUAUAGAAAACUAUAUCCCCCUAUAUC'
p60
aF1.0
aa(lp61
S'Tilted Russian Cross'
p62
aS'AAAAGCAGGCUUCGAAAGAAGUCGGAGAUCGAAAGAUCGAUGCGAAAGUAUCACAUCAAAAGGUGCCGAAAUCGAAAGAUUCCUGAAAAAAAAAAAAAAAAAAAA'
p63
aF1.0
aa(lp64
S'This is ACTUALLY Small And Easy 6'
p65
aS'AAAAAAAAAAAAAAAAAAAAAAAAAAAAAAAAAAAAAAAAAAAAAAAAAAAAAAAAAAAAAAAAAAAAAAAAAAAAAAAAAAAAAAAAAAAAAAAAAAAAAAAAAAAAAAAAAAAAAAAAAAAAAAAAAAAAAAAAAAAAAAAAAAAAAAAAAAAAAAAAAAAAAAAAAAAAAAAAAAAAAAAAAAAAAAAAAAAAAAAAAAAAAAAAAAAAAAAAAAAAAAAAAAAAAAAAAAAAAAAAAAAAAAAAAAAAAAAAAAAAAAAAAAAAAAAAAAAAAAAAAAAAAAAAAAAAAAAAAAAAAAAAAAAAAAAAAAAAAAAAAAAAAAAAAAAAAAAAAAAAAAAAAAAAAAAAAAAAAAAAAAAAAAAAAAAAAAAAAAAAAAAAAAAAAAAAAAAAAAAA'
p66
aF1.0
aa(lp67
S'Shortie 4'
p68
aS'GCUAAUGCAGCGAAAGU'
p69
aF1.0
aa(lp70
S'Shape Test'
p71
aS'AAAAAGAGAUCUAGAUACAAAAAAAAGUAUCAACAGAGAUAGAUAGAAAAACUAUCAACUCAAAAGAGUGGUCCUGAUGAUCGCGAAAAAAAAAAAAAAAAAAA'
p72
aF1.0
aa(lp73
S'The Minitsry'
p74
aS'CUCAAAAAGAGUAAAUUGCGAAAACCAAAAAGCACGAAAAAAAGUGGUGGAGUAUCUCGGAG'
p75
aF1.0
aa(lp76
S'stickshift'
p77
aS'AAGAUAUCGCAAAAAGCAGAUAUCAA'
p78
aF1.0
aa(lp79
S'U'
p80
aS'AAAAAGAUAGAGAGAGCAGAGAUAUAUAGAAAACUAUAUAUCCGCCCCUAUCAAAAA'
p81
aF1.0
aa(lp82
S'Still Life (Sunflower In A Vase)'
p83
aS'AAAGACCGUACGCGGAAAACGCGUUACACCGAAACGAGGAACACGGGAAAACCGUGGGCAUUGAAAAGCAGAGCUAGAAAAAGCUUAGAACAAGGAAAAAUUGUUGCAUUUAAGUCUUUGUAUAGAUAAGAUAGAAAAAACUAUCAGGUGCGAAAAAAAAAAAGCGACAAAAAAAAAAAAAAAAAAAAAAAAAAAAAAAAAAAAAAAAGGUUGAAAAAAAAAAAAAGUACCACUGUAAAAGCAGUAUUAUUUGUACGGAGGCUUAAAUGAACAGGUAAAAGACUUGAAGCUCGGAAAAUGAGUGACGUAGGAAAAGUGCGAAGACAAAAAAAUUGUUAAUUCAGAAAACCGAACGCCGAAGAAAACAUCGCGGUCGAA'
p84
aF0.9417989417989417
aa(lp85
S'Quasispecies 2-2 Loop Challenge'
p86
aS'AAAAAGGUCCAGCAUGAUUAAAAGAUCUAGCUGAGCUCAACAAAGGGGAGCGUCGCUUUAAGGCGAAAAGCCAGAUUGCGAGAUCAAAAAAAAAAAAAAAAAAAA'
p87
aF1.0
aa(lp88
S'Corner bulge training'
p89
aS'AGAUAUCCAUAGAAACUAUGAAAAGAUAUCA'
p90
aF1.0
aa(lp91
S'Spiral'
p92
aS'AAAAAGAUCAGAUAUCAGAGAGAUAGAGAUCAGAUCAGCAGCAGCAGCAGCAGCAAAAAGCGCGCGCGCGCGAUCGAUCCUAUCCUCGAUAUCGAUCAAAAA'
p93
aF1.0
aa(lp94
S'InfoRNA bulge test'
p95
aS'AAAAAAAAAAAAAAAAAAAAAAAAAAAAUCGGAGGAAAGAAAGGAAUCCUGAAGGCGGAAGGCUUGGUGUAAAUCGACCUACCCCAGUCAACAAGCAUGAUAAAGUAAUUAAAAAAUUAGGU'
p96
aF0.9836065573770492
aa(lp97
S'Worm 1'
p98
aS'AAAAAAACCCAAUGCUACUUUACUAAGAAAGGUAGGGACUUUGCC'
p99
aF0.9111111111111111
aa(lp100
S'just down to 1 bulge'
p101
aS'AAAAACAACGGCUAGAAAACUAGCAGAGAAAACUCAGUAUGAAAAGAUCAGAGAAAACUCAGAGAAAACUCAGAUCAAAAAAAAAAAAAAAAAAAA'
p102
aF1.0
aa(lp103
S'Iron Cross'
p104
aS'AGAGAGACAAAGGCAGAGAAACUCACAGAAAACUGAGCCAAAGACAGAGAAAACUCACGGAAACCGAGUCAAAGACAGAGAAAACUCACAGAAGCUGGGUCAAAGUCAGAGAAACUCACUCAA'
p105
aF1.0
aa(lp106
S'loops and stems'
p107
aS'AAAAAUAUAUAGAAAGAUCAAACAUCAAAGAUCAAAAAAAAAGUUACAAAAAAAAAAAAGUAACAAAGAUCAAAGGAGCAAAAAAAAAAGCUCAAAGAUGAAAGACAAAAAAAAGUCAAAGAUCAAGCAAAAAAGCAAACUAUAUAAAAAA'
p108
aF1.0
aa(lp109
S'Water Strider'
p110
aS'AAAAACAUGCAAGGACCAGAAAAAGUUGAUGGAAACAUGACAAAAAUCGCAUUAAUAUGUCUAAAAAUGAGUGCGUAGCUUGGAAAAAAAAAAAAAAAAAAAA'
p111
aF0.9320388349514563
aa(lp112
S'The Turtle(s) Move(s)'
p113
aS'AAAGCGAAAGUAAAACAUAUAUACAAAAAAAAGGUAUAUAUGAAAACAUCGAAAAGAUGAAAAACUGGAAACAGGAACAUACAAAAAAAGUAUGAAAAAGGAAAACUAAUUCAAAAACACAAAAGUGAAAGACCAUCAAAAAAAGAUGGUAAACGGUAAAGACCAAAAACGUAGGAAAACACAAAAAAAGUGAACACAAAAAAAAGUGAAACAUUGUAAAAUCAAUGAAACAGCAAAAAGCUGAGCCUACGAAAAAAAAAGAAAAAACAAAAUACAAAAGUUAAAAACAUACAAAAAAAAAGGUAUGAAAAAACCU'
p114
aF0.9873417721518988
aa(lp115
S'Adenine'
p116
aS'GAUAGGGCUAUCGGAUAUCACAUAUCAGAUAUCAGAUAUCAAAAGAUAUCAAAAAAGAUAUCGGAUAUCACAUAGAAAGAUAGAGAAACUUUAUCCUAUGAGAUAUCAGAUACAUAUACCAAAGGUAUAUCAAGUAUCAGAUAUGAAAAGAUAUCGAAAGAUAGCAAAACUAUC'
p117
aF1.0
aa(lp118
S'Tripod5'
p119
aS'AGGUUCGGUGGAAAACGCCCUGUUAAAUGCGGGAACAA'
p120
aF1.0
aa(lp121
S'Shortie 6'
p122
aS'GCAAAAGCACCGAAAGGACCAAAAGGGCCGAAAGG'
p123
aF1.0
aa(lp124
S'Runner'
p125
aS'AAAAAUAUCUCAUGAAAAGUAUUGAAAAUAAUAUCUAAGCGGACAGUACAAAUUAAACCGGGAAUCCAAAGGAUAAUGCAUGCAAACACAAUUAGAAAACUAUGUAAGAUGAAAAA'
p126
aF0.9827586206896551
aa(lp127
S'Recoil'
p128
aS'AAAAACAUAGAAGCAAGCAAGAGAAGAGAAGCAAGCAAAGCAGCACUCACUCAGCAGCACUAUGAAAAAAAAAAAAAAAAAAAAA'
p129
aF1.0
aa(lp130
S'[CloudBeta] An Arm and a Leg 1.0'
p131
aS'AAAAACAGAGCUAGAAAACUAAGCCAGAGCAAAGGCCUGACUGAAAAAAAAAAAAAAAAAAAA'
p132
aF1.0
aa(lp133
S'[CloudBeta] 5 Adjacent Stack Multi-Branch Loop'
p134
aS'CUAGACCGCGAAAGUGGGAGAUAAAGGUCUCCCUCAGAAAUGAGGCGAUGAAAAUCGUCUAGA'
p135
aF1.0
aa(lp136
S'Triple Y'
p137
aS'AAAAGUAGACGGGGAGCGAAAGCCGGGUGAAAUCGCCGCUACAAACUCCAAAAGGAGGGUGAAAGCCACUAUAACUAAAAAAAAAAAAAAAAAAAAA'
p138
aF0.8969072164948454
aa(lp139
S'Misfolded Aptamer'
p140
aS'GAUCGAAAAGGCCCGGAACGGACCAAAAGGAAAAAAAAAGCAAAAAGAUC'
p141
aF1.0
aa(lp142
S'Flower power'
p143
aS'AAAAACAGUAAUCAAAUAUUUCUUGGAACUAUGUUAAGGAUCUAUGGUCAACAUGAAAGGUGUAAGUAUGUGAAGCAAGCUGAAAAAAAAAAAAAAAAAAAA'
p144
aF0.8431372549019608
aa(lp145
S'Kudzu'
p146
aS'AAAAAAAGGCAAUGGAGGCAAGUCACUAAAGGGAGCCACGGUAGGAAGUCAUCUCAGAAUAAAGUUAAACUCAAAGGACUUAAAAAAAAAAAAAAAAAAAA'
p147
aF0.9405940594059405
aa(lp148
S'"1,2,3and4bulges"'
p149
aS'AAAAAUAGCAUCCCUGAAAGGAAAAGGAGGGGAAAAACCAGAAUGAAAUGUUAGGAGAAAAAAAAUUGCUCAAAAGAGAUAAACCUAAAAAAAAAAAAAAAAAAA'
p150
aF0.9238095238095239
aa(lp151
S'medallion'
p152
aS'GGUAUCUCGGACCAAAAGGUUUGACAGGAAAAUCGCAGGAAACGCGCCUAGCGAAAGCUAGGAUUGAAAACAGACAUAGAGAAAUCUAUGACCGAAAAUAGACAGAAAAUUGACACAUCAAAGUAUGUGACACAAAGCUGCGAUUUUAAAAAAGAUCUCAUAAAAAGGAGGGAAAACCCACGUAUCAAAAGAUACGGCGGAAAACUGACAUAUUAAAAAAUAUGACCGAAAGCUGACAAAAAACUGGCAUUUCAAAAGAGAUGAGAGAAAACUCGCAGAUCAAAAGAGUUGGAAGAAAACUUAUACGAAAGUGAUAUAUUAAAAGAUAUAGGAUACC'
p153
aF0.884272997032641
aa(lp154
S'[RNA] Repetitious Sequences 8/10'
p155
aS'AGCAAAAAACCAAAAAAGGAAAAAAGCAAAAAAGCAAAAAAGCAAAAAACCAAAAAAGGAAAAAAGCAAAAAAGCAAAAA'
p156
aF1.0
aa(lp157
S'Documenting repetitious behavior'
p158
aS'AAAAAAAGCAAAAAAAAACCAAAAAAAAACCAAAAAAAAACCAAAAAAAAACCAAAAAAAAACCAAAAAAAAACCAAAAAAAAACCAAAAAAAAACCAAAAAAAAACCAAAAAAAAACCAAAAAAAAACCAAAAAAAAACCAAAAAAAAACCAAAAAAAAACCAAAAAAAAACCAAAAAAAAACCAAAAAAAAACCAAAAAAAAAGGAAAAAAAAAGGAAAAAAAAAGGAAAAAAAAAGGAAAAAAAAAGGAAAAAAAAAGGAAAAAAAAAGGAAAAAAAAAGGAAAAAAAAAGGAAAAAAAAAGGAAAAAAAAAGGAAAAAAAAAGGAAAAAAAAAGGAAAAAAAAAGGAAAAAAAAAGGAAAAAAAAAGGAAAAAAAAAGGAAAAAAAAAGCAAAAAA'
p159
aF1.0
aa(lp160
S'7 multiloop'
p161
aS'GCCCGAUUGGAAACAAUCGUGCGGAAACGUACCUGAUGAAAAUCAGCAACUAAAGGGUUGGAUUGGAAACAAUCGGGAAUACUUUCCCGGGC'
p162
aF1.0
aa(lp163
S'Kyurem 7'
p164
aS'AAAAUCCCGUUUUGAGAAAGCACCUAACAUACAUGGUUAAAUAUCUUCGUCGGAAAAACGAAAACGGCCUAUAAGUCUGAGCUAAAAAAAAAAAAAAAAAAA'
p165
aF0.9411764705882353
aa(lp166
S'JF1'
p167
aS'GAUAGCUCUAAACACAGAAGAUAAAAAAGAUAUCAAGAUAGAAACAUAGAAGAUAUGAGAUAUAUAUAUAUCAAAAGAUAUAUAUAUAUCAACAGAAAACUGACAUAUAUAGAAAACUAUAUAUGAACAUAGAAAACUAUGACAUAUCACUAUGACUAUCAGAUAUCAAACAUAUAUCAAAAAGAUAAUAUGAACAUAUAUAUACAUAUAUAUAUAUCAAAAGAUAUAUAUAUAUGAUAUAUAUAUGAAAGAUAGAAAAAACUAUCCUUAUAUAUCAAAAGAUAUAUAGGAAACAUCAAAAGAUGAAUUAUCAACUGUGAUAGCAGAGAGAGAAAACUCCUCGCUAACAUAUAUAGGAAACUAUACUAUGAUUAGAAGCAUAUCAAA'
p168
aF1.0
aa(lp169
S'multilooping fun'
p170
aS'UCUCGAGUUCAAUGAUAACUCGCAAGAUAAAGAUGG'
p171
aF0.8333333333333334
aa(lp172
S'Multiloop...'
p173
aS'GACCCGUCUCCGGAAAGUCAGCAAAAAGUUAACAGAAAAUCGACCGGAAACGGUUUUAAAAUGGUACAAAAACCGAACGCUUUACGAAAAAACGUGGCUGGAAACACGGUC'
p174
aF0.9459459459459459
aa(lp175
S'hard Y'
p176
aS'AAAAAGAUUACCCCUAUUUCGAAAGAAGUAGAGCGGAUAUAGUUCAAAGGAGCUAUGUCAAUCAAAAA'
p177
aF0.9705882352941176
aa(lp178
S'Mat - Elements & Sections'
p179
aS'AAAAGGACCUGGAUGUCAACGCGGUUCCGCAGUGUCACUCUGAAAUCUCUCCAGCAUGAUUGAGGAAAGAGCUCUCUAACUGGUAAGAAAAAAAAAAAAAAAAAA'
p180
aF0.9619047619047619
aa(lp181
S'Chicken feet'
p182
aS'AAAAUGCACCGUUAAAUUUGAGAAUUGAAGGCUACUACGGACGAAGUAAGAAACCGAACUAAGAAAA'
p183
aF0.8507462686567164
aa(lp184
S'Bug 18'
p185
aS'AGUACGGGUAGAAAGUAUCCGACAAAGAAAGAUGGAUCGAACGAUGGAAUGUG'
p186
aF0.9245283018867925
aa(lp187
S'Fractal star x5'
p188
aS'AAAAGUAUUUGUGGAGAUCAAAAGAUCAACCUCUAAUGAGGGGUACCAAAAGGUGAACAUGAAAGUAUGAACACAAAUGAAAAUCAUGUUGCAAGAUAAAAAUAUCAACACGUAAUUGUGAAGAUCAAAGGAUCAAGUGCAAAAGCAUAAGUAAUAUGUAAAACAUAAUUGACGCUCAAAAGAGCAAUAACGAAAGUUGGGCUUAUAAUUAGGAACAUGAAAACAUGAACAGUUAUGAAAAACUGGUAAGAUGAUCGAAAGAUCUUCUUCAAAAGAAGUACUAUAAAAAUGGAUCAGCAAAAGCUGUACUUAUCGGAAAAACAUAUACGAGGGUCAAAAGAUCAACAUCGAAAGGUGAACAUCAAAGGAUGAAGUCAAAAAUGAUAACGUAUAUGAAAAA'
p189
aF1.0
aa(lp190
S'Crop circle 2'
p191
aS'UUGAAUUAAAGGUGAAAAACAAAAAAAAGUCUAAAAAAAAAAAAAAAAAAAAAAAAAAAAAGAAAAAAAAAAAAAAAAGCAAAAAAAAAACAAAAAAAGAAAAAAAAAAA'
p192
aF0.9636363636363636
aa(lp193
S'Branching Loop'
p194
aS'ACUGGCAAAAAAAGGUGUGUAAUCGCGACUCAGAAAAAAA'
p195
aF0.95
aa(lp196
S'Bug 38'
p197
aS'ACUGCUACAAACUAUAAAGGGAGCGAGACAAAAAGA'
p198
aF0.9444444444444444
aa(lp199
S'Simple Single Bond'
p200
aS'AAAAAAGAAAAAAAAUGUGCAAAAGGCAUUAAAAAAAGCGAAAAAAAAAAAAAAAAAAAAA'
p201
aF1.0
aa(lp202
S'Taraxacum officinale'
p203
aS'GCCCAAAAGAGGCACAGGAAAACACUGAUACCGAAAGAGUAGGCGUAAAUGACACCCAAUGAAAAGAAGAUCUUUAAUCAAGAGCGUAGAUAUGGGAUAUAAAUACAAGGUAUAUUGUAUCGCGUACAAGACAUGUAUCAGGAAAGCGAAGCGUUUUCAGAUACAUGUCGAUCAGUUGUCAAAGACAGCGGUCGUAUGAAACUGUAUCUAUGGGCUCGAAAGAAGCAUAUAUAAGCAACAAGUCUAAAGAAGUGGUCCCGAAAGAGGGGUACCAAAAGUGUG'
p204
aF0.8652482269503546
aa(lp205
S'Headless Bug on Windshield'
p206
aS'UCCUGCAAAAGGCGGGAAGAUAGUCUAAAAAAAAAAAAAAAAAAAAAAUUGGCUGUAAAUCUAGCAAGGCUGGUUGCAACCCAACGGAAAAAAGCAAAAGUGAAAAAAUGGGGAAAAAAGCAAUACGCUACAAAAGAGAAGCGGGAGUAUGACGCAAAAAAAAAAAAAAAGCGAAUAAUCUCAAGCGCUCACGUAAGUGA'
p207
aF0.98
aa(lp208
S'Pokeball'
p209
aS'AAAAAUAUAUAAAAGGGAGUAAGUGAAGUAAUCAAAUGGGCAAGGGGAUGAAAGCUGAAGCAAAAGGGAGGACACAAUACCCUAUAUUAAAAAAAAAGAAUGGAAAACCAAGGAAGAGAAGCAAACAAGGUGGAAUCGAAGCAAAGCACGUAUCUCCAGUAAGCGCUCGCCAGGCCGUUCUGAA'
p210
aF0.9891304347826086
aa(lp211
S'Variation of a crop circle'
p212
aS'AAAAGUAAAACGAAAAUUAAAAUUAAACAGGUAAAGCAAGGGAAAGAAAAAAAAUAAAAAAACGGAAAAAAAAGCAAAAAAAAAAAAA'
p213
aF0.9545454545454546
aa(lp214
S'Loop next to a Multiloop'
p215
aS'AUGGGAUAUUGAAAAAAUGGAUAUCAAAAGAUAUCACUGGAUGAAAACGUUUAGGGGAAAAAAGAUAUCUCUA'
p216
aF0.9726027397260274
aa(lp217
S'Snowflake 4'
p218
aS'UGUCUAUAAUAGAUCCCCAAAAGGCAUAUGACAGACCCAAAAGGCAUACCCUCUAUGAGGAACAGCAAAGAGGGUAUGGCAAAAGGGUCUGGACAUAUCCGAAAGGUAUAGCAUCGAAGAUGAACGGCUAUGCCGCUAUAGCGAAAGCGUAUGAAUACUUCCAAAGGGGAUAGACUCAAAUAUGAAUAUCAAAGAUACUAUUCCAAAAGGGUCUGAACAAAGCGAAAAUGAGUAUCAACAAAGUUGAACUGCAAAGCGGGUAUUCCAAAAGGCUUUGAUCUUACAGGAAAUUCAUACCGUCAAAGGCGAUCCUCGAAGAAGGUAUGCAAAAAUGGUAAGAAAUAUGCCGAAAGGGGAUCCAUGUAUGAUG'
p219
aF0.827027027027027
aa(lp220
S'Mat - Cuboid'
p221
aS'GAAUCAAAAGAAGGCAAAAGUAAACAAAACAAGUAUCCAAAACCAGGCAACAAAAACAAUCAAGAAUGAAAAAUCGAGGAGACAGACAAAAGAAAGUAACCAAGCAAGAAAAAGAAACUAACUAACGAAGCAAAAGCAUACAGAUAACGAAGCAAGCAAACCCAAGCAAGCAAGCAAGGAAGCAAAAUCAAACAAGCAAGGAAUAAAGGAAAAAACCAAUAAAGUAAGUAAGCGAGCGCGACCAAGCAAGCAAGCAAGGGCAAGCAGCGAAGUAAGUUAUCACAAGCAGGGAAGCAAUGGAAAGCAAGCAAGGAACCGUAAGAAAGAAAGGGCAAACAAGGGAGGGAAGCAAGGGCGAGCAAGGCAGGCCCAAUCGGAAC'
p222
aF0.8736842105263158
aa(lp223
S'Misfolded Aptamer 6'
p224
aS'AAAAAAGUCAAAAAAGACGGGCUAAAUAGAAAAAAAACUAGAAUGAAAAAUGUCGAAAAAAGGCGAAAAAAAAAA'
p225
aF1.0
aa(lp226
S'Snowflake 3'
p227
aS'GAUACAAAGGUACACAAGAAAACAUAAGAGCAGCGCAAGAGAAAACUCUAGAGCGAAAGCCAUAAAAUGCAAAAGGGACUAAGGAAAACUUAGGCGCAGAUCAAGAGAAAACGCCAGAGCGAAAGCAAGAAACUUGCGAAAGCAUUGAAGAAAACUGAAGAUCUGAUUAAGAGAAAACUCCUGAGCAAAAGCCAGAAACCGAGAAAGUGACUACAGAAAACUGAAGAUCUGUCCAAGAGAAAACACCUCGGCAAAAGCCAGGCACUCUCAAAAGAGGGGCAGAAAACUGAGGGACAGAUCAAGAGAAAACUUCACAGUAAAAACCUGAAACAGCCAAAAGGAGUGGAGAAAACUCAAGAUCGGUUCAAGAGAAAACUCGUCAGCAAAAGGAUC'
p228
aF0.7938931297709924
aa(lp229
S'Hard Y and a bit more'
p230
aS'AAAAGCGUGGAGUCAUUGUAAUCAAUCCCUGAGAGUGAUUGAUCAAAGGAUUUGGGGAGAAAAAACUCCCAUUCAUUCACCUGUGAAAAAAAAAAAAAAAAAAAAA'
p231
aF0.9716981132075472
aa(lp232
S'Mat - Lot 2-2 B'
p233
aS'GAAUGCAAGAUUAAGCAAAAGCAACAUGAAAAUAAAAAUCAAGCGCAAGAAAAAUCGAGCGCAAUGAACCAAGGGCAGGCAAAAGUAAGAUCGAGCAAAAGCAAAAGCGCAAGAAAAAUCAAACGUAAGGCCAGGUAAGUAAAAACGCAGGACCAAGUAAAACCAAUAUGAAAACAAAUAUCAGGCGCAAGAAAAAUCAAGAACAACGAACAAAGGACUUGCAAAAGCAAGAUAAAGAAAAAGCAAAAACUCAGUAAAAAUCAAGCUAUUGAUAGAGCAAGGAC'
p234
aF0.7816901408450704
aa(lp235
S'Shapes and Energy'
p236
aS'AAAAAUAUUAAAUAGUCAAAAACAAUAGCUUGAAAGGGCUAAAACGACUUGUUAGAAAAAAUGUAAUGAAUGAAGUUAUUUAAAAAAAAAAAAAAAAAAAA'
p237
aF0.9405940594059405
aa(lp238
S"Spiral of 5's"
p239
aS'CUAAACAUGCAAAGAUACAAAGAUACAAAACAUACAAAGAUACAAGGAUACAAGAUACUAAACAUACAAAGAUACAAAGGUAGAAGAUACAAACAUACAAUCAUAGAUCAUACUAACAUAGAAUAUAGAACAUGGAAGAUAUGACAUAGAGUCGGUGAUAGUUACCUAAAUGGUCAAAAAACACUCUAAAACUGGCAAAAACUAUGAAAAAAUAUUAAAAACCAUGAAAAACUAUGAAAAACUAUGGAAAUGUAUGUAAAACUAUGUAAAAGUAUGAAAAAGUAUCAAAAACUACCAAAAAGUAUCAAAAAGUAUGAAAAUGUAUCAAAAAGUAUCAAAAAGUAUCAAAAAGUAUGAAAAAGUAUCAAAAAGUAUCAAAAAGCAUGAAAAUGAAAAA'
p240
aF0.9949622166246851
aa(lp241
S'Campfire'
p242
aS'AAAAACUCAACAGACAAGGCAAAGAUGUAAAUCGUCCAUAUUAAGGAUAAUGCUUCGAUCUGAGCAGAAGAAGGGAAACAAUUCUUGCAAGACAAUAGAUGUAAAGACUCAUGAUCAUUAAAAGUGACGAAUUAAGUAUCUCAUAAUCGUCUGCACGGAUACAUUGAAUAAAGGUUCGUGAUCGUUAAAUAAAGUAGAUUAAACAGUGGAGU'
p243
aF0.8207547169811321
aa(lp244
S'Anemone'
p245
aS'AAACCCAGAGAAAUCUGGGCUUAAGAAAUUAAGGCUGAGAAAGCUCAGUGAUAGGAAACUAUUUAUAUUUAAUGAUAUAGUGUCAAACGAUACGUACUAAGGGGUACCAUACUAAAAGGUAUGAGGUGAGAAAUUACUUAUAGGGAAACUUAUAGGGAGGAAACUUCCCAUAUGGAAACAUAUGCGGAGGAAACUCCGCCUAGAUAAUUCUGGG'
p246
aF1.0
aa(lp247
S'Fractal 3'
p248
aS'AAAAUGAACGGACAGCAAAACCGGAAAAGUAGUAAUACGGCAAAAGUCUAAAAGGAGCCUAUCAUAAAAAAGUCAAAAGCGGGCCUAUAGCAACGGUUUAAAAGAAAUAAGUUCUAAAA'
p249
aF0.8907563025210085
aa(lp250
S'Kyurem 5'
p251
aS'AAAAUGAGCCUACAGUAAUCUGGUAAAAAGGUACGUAAAAACCGAAAUGUGGACGAGGAAAAAGCUUAUAUCAGCUGGAAGCUCUAAAAAAAAAAAAAAAAAAA'
p252
aF0.9423076923076923
aa(lp253
S'Snowflake Necklace ( or v2.0 )'
p254
aS'GAGAUAUAUAUAUACAGAUUCAUCGAAAAGGAGCAAAAAGCAGCGAAAAGCACCAAAAAGGGACAAAAAGGAGAAUCGCAGAAAAAUUGGCACACAGCGAAAAGCACCAAAAGGAACGAAAAAUGACCAAAAAGCACUAAAAAAGAGUGUGACACGAAAAGUGACAUAGAACAAAAAGCGUGCAAAGGAUCCAAAAAGGACCAAAAACGAGCAAAAGACCUUAUGACGGAAAAAUCGGCAUACAGCAAAAAGCACAAAAAAUGACCAAAAAGGACCAAAAAGGAACAAAAAGGAGUAUGUCAGAAAAACUGUCUUACAGCAAAAAGCACCAAAAAGGACCAAAAAGAAGCAAAAAGUAAAAAAAGUGAGUAGGAGUAUAUAUAUAUCUC'
p255
aF0.8817480719794345
aa(lp256
S'Methaqualone C16H14N2O Structural Representation'
p257
aS'AAAAAAAGACCAUUUCAGAGAGAUAAAAGUCAUUAUGCUAAAAAGCUUACAUUAAAAGUAAAGGCGGUAAAAGUACAGACAAAAAAAGUCGGCCAGUGGUAAGCUCGUGAAAAGAAGACCUCAAAGCAGACGAACCAAAGGAAAAAAAAGUCACACAGAGAAAACUCGAGAAAACUUUAUGAAAAUAGUGAGCGAGGAGCAGUAUCAUAUAGCGAGUAAUUAAGGUAAAAGAGAAAGCGCAGUCAGAAAAAAUUUGUGAAUAAUAAUUUAACGCACGGAAAGAUGAUGCAGGCCAAAAAACUAUGGAAAACCACGCAAAAAUGCGUCGCAGCGAUCGAAAAGGAGGUCAAAAAAA'
p258
aF0.8676056338028169
aa(lp259
S"Cat's Toy 2"
p260
aS'AAAUCGCAUGUCAAAAUUAACUAAAAAAAAAAAAAAAAAGUUGUAUAUGGUAACCCUAUGCAAAGGCUAAAAAAUCAAAAAAUGAGACGUGCGUAAA'
p261
aF0.9587628865979382
aa(lp262
S'Zigzag Semicircle'
p263
aS'AAAGGCGAAGACUCAAAAUGAAGUAUUCGCAAAA'
p264
aF0.9411764705882353
aa(lp265
S'Short String 4'
p266
aS'AAAAAACCAUUAAGUAAGAAACAGUAGUAAAACCGUGGGAAAUGUCGAAGAAAACUAAGAAAAAAAUAAUAAGAUGAAAAAAAAAAAAAAAAAAAAA'
p267
aF0.9381443298969072
aa(lp268
S'Gladius'
p269
aS'CGAAAGAGCGAAACGAACAAUAAAACGAGUACAGACAAAGAUCAAAAGAUCUGAUAGAAUGUAGAAAAGACUUUGACUUCAACAGAUAUAGUAGAUAUCAGAUAUAGGUCCGAUCAAGUUAAAAUAGCGGAUGAGGCCAAUAUCGAAUAUCAUCUAUAUCAAGGGAGGGAUCAGUCAAUACUAAUGACUAUCUGUCAAUCAGAGUUAAACAAGAGGUAAUAGCAGAAGAUUAGAGGGUAUAGCUAUAUGAUAUAGAGAUAUGAGAGAGAUAUCAAAAGAUAUUAGCUCGAAUAUACCUAUAACAUAUGGCUAUACCACAAAAUCAGGGGCUGGAAGUUCAGAAUUAACAUAUCAAAAGAUGAAGCUGUGUCAAAGAGUGAAAGAAAGGAAACAAAAAAAC'
p270
aF0.895
aa(lp271
S'Thunderbolt'
p272
aS'GGUAGCUAGUAAAAAAACAGCGAGAGAAAAAAUAAAGAACAGCUAUCAAAAAAAAACCAAAAAAGAACAAAAAGUUCAAAAAAGGAAAGCAUGCAAAAAAACUACAAAAAAGAUGAAGCGACCAAAAAGGAAACAGGUCAAAAAGGCAAAAAGAAGCACAAAGAGCAACAAAAAGUCACAUCAAAGAAAAAAAGGAUCGCAAAGAAGAACAAAAAAACAAGGAUGAAAAAAAAGACCAAAAACAUAUCGAAGAUAUGAGGAAGCAAAAAAAAAAAGCUAGCAAAAAAAAAGAAAUUAAUGCGAAUCAAAAAGGAAAAAAACAAAAAGAUUUGAAUGACAAAGAUAGCUGAAAAAAAAUAUCAAGCGGAAAAACAAAAAAAGUCUAGCUUUUA'
p273
aF0.9540816326530612
aa(lp274
S'Mutated chicken feet'
p275
aS'AAAAAAACCAGCGUUAAGAGACCAAAGGGAACGGGGGGGGGUGCAAAGGCCCGAAGGUAACCACACCCGCAGUAAAACGCAAAGGGAAAGCGGAAAAAAA'
p276
aF0.87
aa(lp277
S'Chicken Tracks'
p278
aS'AAAAAAAACAUAUACGCUCAAAAGAGCAAGAUCAAAAGAUCAAGAUCAAAAGAUCGUAUAUGAACAGGCUGAAACAGCAAGAUCAAAGAUCAAGGAUAAAGUCCCUGGAAAAAAAA'
p279
aF1.0
aa(lp280
S'Looking Back Again'
p281
aS'GACAUGUUCACCUAAAACAUCGUUAUAUUACCUGGUGAAGAGCAGAAGAGAAAAUCCUGAGAUACAAAGAUUAAAAAAUCAAAAGUAUUAACUCAAGUUAAUUGGGCCAAAAACAUAGUAAUCUAUGAAAAAAGGCCAUAGAAUAAUAUUUAUCCGGAGAAACUUUGGGUUUCGCAACCACAACAACGACAAGAUCGAAAGAUCGAGAGGGGGGAGAGCCAGAAAACUGAAGAGACCAAACUAUACUUCACGUCAAGAUUAAAAAACGUAUACAAAAAAAACAUCAAAAAGAUGGUAAAAAACGGAAUCGAUCAAAAAGGCCAUAUCGAAAGAUAUGAACAGCUUAUAGACACAGUAUCUAUGAACUGGCAAAAGACCGGACGAAAGUU'
p282
aF0.897172236503856
aa(lp283
S'Multilooping 6'
p284
aS'AAUAGUAGCACCGCCUAAAGUAGUGUUGCGAAAUUGGCUGCGUCGUUGCUAAUCCAUUUACCCAAGGGGGUGCAAUCUUAGA'
p285
aF0.926829268292683
aa(lp286
S'Cesspool'
p287
aS'GAGCAAGAAAACAACCGAACACACAGAAACUGAAGAAGAACUGGAAAAGGAAAUAAUACAAAAAAACGAGAAAAACAAAAGAAGUACAAGAACAAGAAAACAAGGCAACACAGAGAAACUCCAAAAGAAGCUAACAACUAAUGAAGGCAAAAAAAUAAGAAAAACUAAUGAAGAACAGGCAACAUAGAAAUUACGGAGCACAGAAAAAUUCAAGGAGAACCGAACUACAAAAGAUGACGACAAAAGAAGAAAAAUAAAAGAAGAGGCACGCAUCGAUAAAAAAAACGAACACAGUGAAACGCAAGAAGAACAGAACAACAAAAGAGGUCUAUGAAAAAUGAAAAACUCAAGAAGUAGC'
p288
aF0.7793296089385475
aa(lp289
S'Hoglafractal'
p290
aS'AUGUGGAAGCGAGAAAAGUUAUAAAAAAAUAGCCUUGCCACCAAGGAUCAAAAAGAUCGAUGCGGAAGAGAAAACUUCCGAUACAAAGAUCAAAGAGUAAAAAGGAUCAAUCCAGAAGCGAAAAACGCCGGCGAGCAAAGGCCGUCAUCAAAAGAGAAGGCUAAAAUGUCCUCCAAGCAAAAGGCUGAAGAAACCUCGGAUACAAAAAGAAGGAAAAAAUCACCUUAAAAAAAGGGAAAGGUAGAUAGCAAAAAACAUAAAAAGGUGAAAAAAAUGAAACAUAUAGGAACUAUAUGAAAAAAAGCUAUCAAAAAAGUAUCAAAAAGAUUAAAAGUGAAACCAUCUGAGUGAAGAUGAAAAGUAAAAUCUCAAAAGGCGUAACAAAGUUAUGACAUCGUUC'
p291
aF0.88
aa(lp292
S'Bullseye'
p293
aS'AAACGGCAUUUAUGAUCAACAAGUAUCUUGAACGUUAAGAAUGUAGAAAAAAAACAGCGGCAAAGCCGAAGAUCAAAGAUGAACCUCAAAGAGGCUGGAAAAAAACGUGUUCAAAGAUCAAUUCCGAAGGAAAAGAUCAAGGACUGCGGAAAAAAAAUGUAUUAAAAAUGAACAUCAAAGAUGGACUUCAAAGAUAUGUAAA'
p294
aF0.8811881188118812
aa(lp295
S'Shooting Star'
p296
aS'AGAUAGGAUUCAGAUCCGAAGACAGGCAGAGAGAGAGCUAAUGAUUUACCUCAGACAAGUAAGAAUCUGAGAUAGAUGACAGGGGGGGAGGAAGAGAGAGUGUAGCUAAUGACAUAACGUCCAUUUACCGCACACAACGUACGUAAUCAAUAUCGUUCCAUUGAAACGAUGACAUAGAAACUGUGCACUAAUGGGAGAACAGAUCAUAUGAGAUGAAUGAUAGGAGAACUCUGUCUCAUAAAAACAAUGCGUCCAUUUAUAAAAUGGGCGACAUAGAAAGUAUGCAUCCAUGAAGAAAACGAAGAACAACACAGAGAGAACAGCAAAAGACAUUAUAUCGGGAGAAGACAACAAUCACUAUCUA'
p297
aF0.7939560439560439
aa(lp298
S'Teslagon'
p299
aS'AAAAAAUCAAAAAAAUCAGCAAAAAAAACACCAAAAAAAAAAAAAAAGGAAAAAAAAACCAAAAAAAAAAAAAAAUGAGUAAAAAAAGUAGAAAAAAAAACAAAAAAAAAAAAAAAACAAAAAAAGGAGGAAAAAAGGGUACUAAAAAAAAAAAAAUGUAAAAAAAAGCCAAAAAAAAAAAAAAAGGUCCAAAAAAAGAAGCAAAAAAAACGAAAAAAAAAAAAAAGUGAAAAAACCGGAAAAAAAACCAUCAAAAAAAAAAAAAAAGAGAAAAAAAACAAAAAAAAAAAAAAAAGGAGUAAAAAAACCAGCAAAAAAAAGAAAAAAAAAAAACCAAAAAAAAAAAAAAACGACUAAAAAAAACAGGAAAAAAAGGAAAAAA'
p300
aF0.9162303664921466
aa.