(lp0
(lp1
S'Simple Hairpin'
p2
aS'AGGGCUAAAAUGUUCU'
p3
aF1.0
aa(lp4
S'Arabidopsis Thaliana 6 RNA - Difficulty Level 0'
p5
aS'CGAGGGCUAAAGCUUAAAAAAAAAUGGCGACACGGUCGCCCCCGUGAGGGCUGGGGCAAAGAUGCUAAAAUGCAUCGGCCCCAUGCCCUCGCGGGGGAAGCCGUGUCAUGCCCUUG'
p6
aF1.0
aa(lp7
S'Prion Pseudoknot - Difficulty Level 0'
p8
aS'UCUAAUCACUAUAAUUAGUAUUCAGAAAAAAAAAAA'
p9
aF1.0
aa(lp10
S'Human Integrated Adenovirus - Difficulty Level 0'
p11
aS'AGCAGGUCGUUCUUUGCUGGUGAAAAAAAAAGUCCCUACUUGGCCCGUAUCGGCGCUAAAAGUCGGCGGGGAUCUAAAAAAUGGACCUCGUCAAACGACGAGGUAAAAUCCACUUAAAGAGUAUAAUCGAAGAAAAAAGCUUCGGGGGAAAAAAAAAAACAGCUGGCUAAGAAAAAGCGGCCAAAUGCUAAA'
p12
aF0.9583333333333334
aa(lp13
S'The Gammaretrovirus Signal - Difficulty Level 0'
p14
aS'AAGUGGGCGGGUUGAAAAACUCGAACUCGAAAAUUGGCCAAUCAGAUCCCGGCGAAAGUCGGUAAAGGUCGGUGUCAUUGCCUGGGCGAAAGCCUAGGCUA'
p15
aF1.0
aa(lp16
S'Saccharomyces Cerevisiae - Difficulty Level 0'
p17
aS'AUAAUCGCCGGCAAAAAAAUCGGGGAUAGAAAAAAAAAAACCAAAAACACACUAAAAAUGUGCCGCGACACAAAUCAUGCGCAAGGACAAAAAAAGGUCUGGCGAAAAAAAAAAAAGCCAAAAGAGGGUAAAAAUCCCCUCCGCGCGUAAAAACACUGAAUUCUGAAAAAAACGAGGGGAUCGAAAAAAGAAUCCUAAAGGCAUUAAAAAUGUCUUCCGCGCCGAAAUAAACGUAAGACGGAAAAAAACGUCACCAGUGAAAAAAAGUGUGAAAAUAUUCUAAAAAUCGGAAACGGUUGGAAGCUCGCUGAAAAGUAAAAAACGUCCAGACUGAAAAAAAAUCAGUCCAAACAAAUUAAAAAUAUGUGGAGCGACAAAA'
p18
aF0.8153034300791556
aa(lp19
S'Fractal 2'
p20
aS'AAAAAGUCACGGCAAUGCCUUGGCGGAUAUGCGAAAAAAAAAGCAUUAGAAGAAAAAAAAAACUUCGACACCAAAAAAAAAAGGUGGGCCGCCAGGGCUAAUACACAGGUGAACAGCUAAAAAAAAUGCUGGAUGGGAAAAAAAAAACCCGGUCGAAGAAAAAAAAAUUCGUGCACCUGUGUGAAUCGCUCGCCGUAUGGUUAAAAAAAAAGGACCUGUGGGAAAAAAAAAGCCCGAAGUGCAAAAAAAAAAGCGCAAACGGCGAGUGUAAGCCGUGACGAAAA'
p21
aF1.0
aa(lp22
S'G-C Placement'
p23
aS'GUGGAAGCCGCG'
p24
aF1.0
aa(lp25
S'The Sun'
p26
aS'AAGAGACACGUAAAGCGUAAGUACGCAAAGCGAGGCUCUAAAAUAGGAAGCCCGCGAGGGGAGGCUUGCUUUACGAAAGUUUCUAAAGACAGAUGAGAAAGUCCUAAGUCGCCGAUAUCAGACUGGCUAUGCCAAAGCCCGGUAGCCCACACGCUAGAAGCGAAAGACUGGAAAGCCGGAGGCUGAAACAGGAAUCAGGCAAAGAUAUGUGUAAUAUUUACAAGCGGCCAAAGGGAGACAUGAAAAUCGUAACCUUUC'
p27
aF0.7984496124031008
aa(lp28
S'Frog Foot'
p29
aS'AAAAAAAAAGAGGAUAAUUCCUACACUAAUGUGUGACGAAGCGUC'
p30
aF1.0
aa(lp31
S'InfoRNA test 16'
p32
aS'CCAUUCUCAGGCUAUUAAUAUAGCACUAGUGAAUGG'
p33
aF1.0
aa(lp34
S'Mat - Martian 2'
p35
aS'UGUCUAAUGGCAAAAUGCAUGGAAGCUGGGCAAAAAAGGCCCGGUCCAUGCGGAAGGGUGGGCAAAAAGGUCCGGCACCGGCGGAAAAAAGUCGUUGGGCUGGGCAGGGCAACGCGGAGGGCUAAAAAUGUCCUUCAGCGUUGUAAAAAGGCCUAUCCGAAGUUACUACCGGGGGAAAAAAGUCCCCGGAAUAGUAACAAAACCUGAAAGGGU'
p36
aF1.0
aa(lp37
S'square'
p38
aS'GCGGGGCCGGGGCCGGGGGCCGGGGCUAUGCCCCGAAAAGCCCCCGAAAAGCCCCGAAAAGCCCUGU'
p39
aF1.0
aa(lp40
S'Six legd turtle 2'
p41
aS'AAAAACGAAAGUGAACCCGAGUGUAAACGAAGCGGAAACGAAAAUAAAACCAAGGGAAAACUAAAGGAAAACUAAGUCAAAAAAAAAAAAAAAAAAAA'
p42
aF0.9591836734693877
aa(lp43
S'Small and Easy 6'
p44
aS'ACUGGGAAAACCACCAGAAAAAAAAUGAGC'
p45
aF0.9333333333333333
aa(lp46
S'Fractile'
p47
aS'AAAAAAAAAAAAGAAAAAGGAAAUGAAUGCAAAACUUAUAGAAUAGAAAUAAAACAAAUUAAAGAGAAAUCGGAUAAAAGUAAAAAAAAAAAAAAAAAAAAAAAA'
p48
aF0.9619047619047619
aa(lp49
S'Six legd Turtle'
p50
aS'AAAAUCCAAACGUUAACACAAAAGUAAAAAUAAAAGGCAAAUAAAAAAGUAAGCCAAAAUAGAAAAGAAAUAGAAAGCUUAAGGGUAAAAAAAAAAAAAAAAAAA'
p51
aF0.9619047619047619
aa(lp52
S'snoRNA SNORD64'
p53
aS'GUGCAUGAACUGUACAAAAACGAGUCUGCGAAAAAAAAAAAAGCAGAAAAAGUUAAUACUAGUGUAC'
p54
aF1.0
aa(lp55
S'Chalk Outline'
p56
aS'AAAAUCAGAAGUGGCUAAUGCGCACGGAUAGAGAACGCUCGUCAGGGCGGGAAACCAGCUCGUUGUUGAAAGACAAGUCUGUAAAAAAAAAAAAAAAAAAAAAA'
p57
aF0.9807692307692307
aa(lp58
S'InfoRNA bulge test 9'
p59
aS'UCUGUGCAGAGCGAGGCCUGCUAAUGCAGGCCCCCGCACGGA'
p60
aF1.0
aa(lp61
S'Tilted Russian Cross'
p62
aS'AAAAUGAGUCAGAUACUUCCGAUUGACGUAAAAGUCUGAUCUCUAAUGAGGUGAAUAGGAAUAUUGGACAUGUUCACACAAAUCUUAAAAAAAAAAAAAAAAAAA'
p63
aF0.8666666666666667
aa(lp64
S'This is ACTUALLY Small And Easy 6'
p65
aS'AAAAAAAAAAAAAAAAAAAAAAAAAAAAAAAAAAAAAAAAAAAAAAAAAAAAAAAAAAAAAAAAAAAAAAAAAAAAAAAAAAAAAAAAAAAAAAAAAAAAAAAAAAAAAAAAAAAAAAAAAAAAAAAAAAAAAAAAAAAAAAAAAAAAAAAAAAAAAAAAAAAAAAAAAAAAAAAAAAAAAAAAAAAAAAAAAAAAAAAAAAAAAAAAAAAAAAAAAAAAAAAAAAAAAAAAAAAAAAAAAAAAAAAAAAAAAAAAAAAAAAAAAAAAAAAAAAAAAAAAAAAAAAAAAAAAAAAAAAAAAAAAAAAAAAAAAAAAAAAAAAAAAAAAAAAAAAAAAAAAAAAAAAAAAAAAAAAAAAAAAAAAAAAAAAAAAAAAAAAAAAAAAAAAAAAAAAAAAAAA'
p66
aF1.0
aa(lp67
S'Shortie 4'
p68
aS'GCAAAAGCAAGGAAACU'
p69
aF1.0
aa(lp70
S'Shape Test'
p71
aS'AAAAAGAGUGAAUCAAUCAAAAACAGGAUUGUACGUAUGGGGCAAUGAAAAAUUGCAUGGGAAAGCCCAACCAGCGGGUCACGCGAUAAAAAAAAAAAAAAAAA'
p72
aF1.0
aa(lp73
S'The Minitsry'
p74
aS'GCCGAAAACAGAAAAAGUCCAAACGCCAAAAAGCCAAAAAAAAGGCGGGCCGACGCUGAGGU'
p75
aF1.0
aa(lp76
S'stickshift'
p77
aS'AAGCCGCCCCAAAAAGGAGGCGGCAA'
p78
aF1.0
aa(lp79
S'U'
p80
aS'AAAAAGAAGACUCCAGCUCAUGUUCUGGCUAAUGUUGGAAUGACAUACUUUUGAAAA'
p81
aF0.9298245614035088
aa(lp82
S'Still Life (Sunflower In A Vase)'
p83
aS'AAUGGCGAAGGAUCAAAAAUACUCUUUAAGUUAUACAUAUAGCCACUAAAUGUACCGCGACUGGAACGGUCAGUUAGCAAAAAGUGUCAGCUUACAAAAGGCAAGGGCCGGUGUGGGGAGAGUGGGUGGGAACGAAAAAAUCGACAUGGAAUUAAAAAAAAAAAGACGCAAAAAAAAAAAAAAAAAAAAAAAAAAAAAAAAAAAAACCUCGUCAAAAAAAAAAAAUUUCUGGAGAGAAAGUCUCCACCGCCCACUCUUCCCGCACCGGCAGGCGACGAAAAGGCCAAAGAAGGGGAAAUGUACAACCUACAAAAAAAGGCAGAUCUCUAAAUCAGACAGCACACUAAUGCUCCAGGUCCCAAAAAAGCACACGCUUAA'
p84
aF0.8650793650793651
aa(lp85
S'Quasispecies 2-2 Loop Challenge'
p86
aS'AAACAAUGUGUCUUGCGGCGAAAUCUGUUGGGUUGAGCACCCCAGUUGUAUCUCCCAUUCGGCCAAUAGGGUAAGUGGGGGGCGUGAAAAAAAAAAAAAAAAAAA'
p87
aF0.9809523809523809
aa(lp88
S'Corner bulge training'
p89
aS'GUUUACCCUAACUAUGUUAGAAAAGGUGGGA'
p90
aF1.0
aa(lp91
S'Spiral'
p92
aS'AAAAGAGCCAGACAUCGCGCAUUCUGAGGCCAGGGCAGGAGGAGGAGGAGGAUGAAAAGCACCCCCCCCCCGUUCGGUCCAGGAGUGGAUGUCGGCUAAAAA'
p93
aF1.0
aa(lp94
S'InfoRNA bulge test'
p95
aS'AAAAAAAAAAAAAAAAAAAAAAAAAAAAAGGGUUAAAAUGGGUUAAGAAGGGAUAAGGCACGAAGUUGUUAAAUAUAAAAACACGGAUCAGUUAACCACUAAAAGCCACUUAAAAUGUACCA'
p96
aF0.9672131147540983
aa(lp97
S'Worm 1'
p98
aS'AAAAAAAUUGACGUCGGGAAGGAGAAAAUAUCGGAACAUAGGAUC'
p99
aF0.9111111111111111
aa(lp100
S'just down to 1 bulge'
p101
aS'AAAAAGUACAGCUGCGAAAGUAGUGAGCGAAAGCUAGUCACAAAUUACCGGUCGAAAGACAGACUAAUGUCAGGUAUAAAAAAAAAAAAAAAAAAA'
p102
aF1.0
aa(lp103
S'Iron Cross'
p104
aS'UGCGUUACAAGAGGAGAUAAAGCAGAUCAAAAUACGGACAAACCUGAUAAAAAGAUAGGAAAAGAUGCCGAAAGGCAUAGAAAAUUACGCGAAACGCGGUCAAGGCGAGAGAAAUAUUCGAUA'
p105
aF0.8130081300813008
aa(lp106
S'loops and stems'
p107
aS'AAAUUGCAGUGCGAGUGAGAAAGCCGAAUGUCGUAAAAAAAAGUGGAUAAAAAAAAAAUUCCAUGAUCGACUAAAAUAGGAAAAAAAAACUGUGAGUGGCAAACUGGAAAAAAACGGGAACUCGAUCGUAUAAUCGUAAGCGCUGUUAAAA'
p108
aF1.0
aa(lp109
S'Water Strider'
p110
aS'AAACCCCGGUUAAUUAGAGAAGAAAAGUGGUUAAUAUCGAGUUGGGUGUUUCGAAAGGAUAAGAACUUGCUCGGCCAACAGGAAAAAAAAAAAAAAAAAAAAA'
p111
aF0.9223300970873787
aa(lp112
S'The Turtle(s) Move(s)'
p113
aS'AAAGAAAACCCAAAUGAACUAUGGAAAAAAAAGCCAUAGUUCUAAAGCGUAAAAAAUGCAAAAUGAAGAAAUACUGAGAUGGAAAAAAAAGUUGAAAAGGCUAAGGGAAACUAAAAAUAUGAAAGCAGAAUUUCAUGGAAAAAAUAUGGGUAAUGGUUGAAGGCUAAAACUACCGAAAAGGGCAAAAAGGCCGACGCAAAAAAAUGUGGAGGGGGCAAAAAAGCCCCAAAGACGAAAAACCCCGAUGGUAGAAAAAAAAAGAUAAUUUAAAAAUAUAAUUGAAGAGACACCUUAAAAAAAAUGUUGCAAAAAUGCC'
p114
aF0.8924050632911392
aa(lp115
S'Adenine'
p116
aS'UGGAUAGUCAUGAUGCCCGAGCCUCGUCCCGCCAGCCCGUAAAAUUAAUAAAAAAGUGUUAAGAUGGGUAGCCUCAUAGGCGCGGAAGCCGCGCCGGGGCGGGCGGGUGAUCUAUGCGAUGAAAUCGCAUACGAGAUCUCGGGGCGAAACGGGUAGAAGCAUGACGAAGAUCUA'
p117
aF1.0
aa(lp118
S'Tripod5'
p119
aS'AAGUCCCCGCAAAAGGCGGGCCCAAAAAGGGCGGACAA'
p120
aF1.0
aa(lp121
S'Shortie 6'
p122
aS'GGGAAACCGAGGAAACUAUGGAAACAAGCGAAAGU'
p123
aF1.0
aa(lp124
S'Runner'
p125
aS'AAAAAUAUGGUCCCAAAAAGACCAAGGGUCAGGUGAAGCCAUAUUCGCGAAGCGCAAAGAAGUUCACAAAGUGAAAGGAUAGCUAAAGCUGAGUCGAAAGGCAGUUGCGCGAAAAA'
p126
aF0.896551724137931
aa(lp127
S'Recoil'
p128
aS'AAAAUUUUGCUAAGUGGCAAUAAUAGUAAGAGAAUGAAGCGAUUAUGUUUUGGCUAUUUCCGGGUAAAAAAAAAAAAAAAAAAAA'
p129
aF0.9764705882352941
aa(lp130
S'[CloudBeta] An Arm and a Leg 1.0'
p131
aS'AAAAGGACGAUGAUGAAAGUACAUUGCAGGGAAACCGCAAGUCAAAAAAAAAAAAAAAAAAAA'
p132
aF1.0
aa(lp133
S'[CloudBeta] 5 Adjacent Stack Multi-Branch Loop'
p134
aS'UCUCAGGAGGAAACUCUGCUUCUAAUAGGCCACCGAUAAUUUGGACGUCCAAUGGCGUGGGGA'
p135
aF0.9682539682539683
aa(lp136
S'Triple Y'
p137
aS'AAAAGUACUAACCGCACUAAUGUGCCGGAUAAUAAGUGGAUCGCCCAAUCAAAAUUUGUUCUAAUGAGCGCCGAGUAAAAAAAAAAAAAAAAAAAAA'
p138
aF0.9072164948453608
aa(lp139
S'Misfolded Aptamer'
p140
aS'UCUAUAAAAUCCGGCUAUGCCACUGAAAGGGAAAAAAAAGGUCAAUUAGA'
p141
aF1.0
aa(lp142
S'Flower power'
p143
aS'AAAAGGGGCGGGAAAAGCAGUGUUGCUGGAACCGAGAAGUCUAACGAACAAGCAAUAUUAGUUAGGUAGGGAAAAUACGCUUAAAAAAAAAAAAAAAAAAAA'
p144
aF0.9215686274509803
aa(lp145
S'Kudzu'
p146
aS'AAAAAGACUGUGGAUCUAAGGUUAUACGCAGAUGGACUACUUGAUAAGGUACGGGAACCGGAAAAGGGAGGAGUAAUUGUCAAAAAAAAAAAAAAAAAAAA'
p147
aF0.8613861386138614
aa(lp148
S'"1,2,3and4bulges"'
p149
aS'AAAAGGACAGGGAAGAAAGCUGAAUCUAGUAGGAAACUAAUGAGGAAAAAUCUUACGUAACCAAACCAGCUAAAGGGUGGGAAGGCAAAAAAAAAAAAAAAAAAA'
p150
aF0.8857142857142857
aa(lp151
S'medallion'
p152
aS'ACAGGCUGCCACCAAAAGGCCGCUGGCCAAUUUCACACAAACCCCAGACAGCAAAAGAUCCCGGAAAAAAGCUUGCCUGGUAAUUCGGGUUGAGUAAUCCCUGCUAAAAGGCAGACGGCUAAUGCUGUCGUAUAAAACCGGGACCCGUAAUUGGGGUAGACAAAAGCCUGGCAAAAGCCGGCCACCGAAAUGAGCAGAAAAAAAUCCAAACGCAUAAUUGUGCAGGUAAAAAGAGAGUUAAAAACAGUGUGUUGAAAGAUGCAAUAGUAAUCCGAGAGACGAAAGCACUUCAAAGGAAACUUAGAAUAACGUUAAUCUUGGAAAUAGGAUAGCCCGC'
p153
aF0.7537091988130564
aa(lp154
S'[RNA] Repetitious Sequences 8/10'
p155
aS'AGGAAAAAAGGAAAAAACCAAAAAAGGAAAAAAGCAAAAAAGCAAAAAAGGAAAAAACCAAAAAACCAAAAAACCAAAAA'
p156
aF1.0
aa(lp157
S'Documenting repetitious behavior'
p158
aS'AAAAAAAGGAAAAAAAAAGGAAAAAAAAAGGAAAAAAAAAGGAAAAAAAAAGGAAAAAAAAAGGAAAAAAAAAGGAAAAAAAAAGGAAAAAAAAAGGAAAAAAAAAGGAAAAAAAAAGGAAAAAAAAAGGAAAAAAAAAGGAAAAAAAAAGGAAAAAAAAAGGAAAAAAAAAGGAAAAAAAAAGGAAAAAAAAAGGAAAAAAAAACCAAAAAAAAACCAAAAAAAAACCAAAAAAAAACCAAAAAAAAACCAAAAAAAAACCAAAAAAAAACCAAAAAAAAACCAAAAAAAAACCAAAAAAAAACCAAAAAAAAACCAAAAAAAAACCAAAAAAAAACCAAAAAAAAACCAAAAAAAAACCAAAAAAAAACCAAAAAAAAACCAAAAAAAAACCAAAAAA'
p159
aF1.0
aa(lp160
S'7 multiloop'
p161
aS'ACCGAAAUCUAAUGGUUUUCUGCAAAGGCGGAGGGGUAAAGACCCCCUUUCGAAAGAAAGGAUGCGAAAGUGUCGAGAGGAAACUCUCCGGU'
p162
aF0.9782608695652174
aa(lp163
S'Kyurem 7'
p164
aS'AAAAAGUGUCAGUGGGAAACCAUGGAAACUGCUAUGAUAAGUUUAGGCCCAGAAAAAGUUGAUAGGCAGCACUGUUGAGCGCGAAAAAAAAAAAAAAAAAAA'
p165
aF0.9019607843137255
aa(lp166
S'JF1'
p167
aS'UCUGGAUGGGGACACACAAGUUAUCAAAGCCAACAUGACGCAAAGUCACAGGGGUCCAGCCUCGUGGGGGGCUAAUGCCCCCCACGGGGCAAGGUAAAAGCCAGGGACGGGAAAAAUCCCGCCCCGAGCGACAAAAGCUGUGGGACCCAGUGACGCCACCUAGAGGCAAAGCCCAGGAAAAAGGCCAUUGGCGAGGCUCGGGGAUGGUUGGGGGAGGCUAAUGCCUCCCCCAGUCACUCCUCGGGCUAAACGUAGUAAAAUCCCACACCACCGGGUAAAGACCCGGUGGUAGCGGCAUAAUUGCCAAGCGACAGGUGAGGACAGAGCCGGACAAAAGUGCCGUUCCAGCCAUGGGCAAAAGCCCAAUGGCGCCCCAAUCACGGGAGA'
p168
aF0.9121447028423773
aa(lp169
S'multilooping fun'
p170
aS'GCAGGACGGGAAACAGGAAACAGGACAGGAAACGGC'
p171
aF1.0
aa(lp172
S'Multiloop...'
p173
aS'UUCCGGUCUUGGCAAAAACGUAGAAAAAUCUGCGAAAAGCCGACAUUAAUAAGGUACUAAUGAGAAUAAAAGGAAUCGACAGCCUCGAAAAAAAGGGCGAAAAGAUGCGGA'
p174
aF0.7927927927927928
aa(lp175
S'hard Y'
p176
aS'AAAAGGCACUGCGCGUUGGCUAAUGCCAGUGAUUGGCCUGGUGUUGAAAGAUACCGGGCGUACAAAAA'
p177
aF0.9705882352941176
aa(lp178
S'Mat - Elements & Sections'
p179
aS'AAAAGGACGCCUAGCUACAAAGUAGCGUAGCAUCAUGCAACAUAAUUGUGGAUUGGCGGUUGAAUGAACGUUGUUGAAUGAUGUUAAAAAAAAAAAAAAAAAAAA'
p180
aF0.9619047619047619
aa(lp181
S'Chicken feet'
p182
aS'AAAAAGGACAGGGAAGUUAUGAAUACUACUCCCAAAAGCGCGGAACCAGGGAAACAAAGCUCAAAAA'
p183
aF0.9701492537313433
aa(lp184
S'Bug 18'
p185
aS'UACGGGAUUUUCAGAGAAGGAGAGAACUAACAAAUACCUUACAAAAAAAAGCU'
p186
aF0.9622641509433962
aa(lp187
S'Fractal star x5'
p188
aS'AAAAAACUGCGGUAAUACCACAGGGUCGGGGUUAAAGAAUCAAAGGCAAAGGGUAGAGCUGGAAACAGCAAGUGCUAGAAAAAGGAUAAUGCAUGGCUAAAGAGUCUAGGGGGAAAGCCCAAGACUGAAAGGUCAAGCUGAAAAUAGCAAGUGGCGCCAAAAUUAAUAAGUGUAAUCAAAAGGAAAAUAGCGAAAGCUGAAGUACAAAAGUGCGAGUCUAAAGGGACGAGUAUGCCAAAAAAUAAACGCUGAUACAAAAAAGCGACGUCGAAAAUGAUAAGAGCAAAAGUUUAAAGGAAAAACUCGAAGCCGGUAAGAAAGGGGACUUCUUGAUCUAAUGAUCUACAAUAAAAGUUGGGGCCAGAAAUGGUAUGUUAGAAAUGGCUUGAAGCUACAAAAA'
p189
aF0.83
aa(lp190
S'Crop circle 2'
p191
aS'GUUAGUGUAAAGGAAAAGGAGAAAAAAAAGCAAAAAAAAAAAAAAAAAAAAAAAAAAAAAAGCAAAAAAAAAAAAAAAUUAAAAAAAAAUGAAAAAAUCAAAACAUAAAA'
p192
aF0.9272727272727272
aa(lp193
S'Branching Loop'
p194
aS'AUCUUCAAGAAAAGACUAUUAAUAUAUAAAGGGUAAAAAA'
p195
aF0.95
aa(lp196
S'Bug 38'
p197
aS'UGGAGCAGUAUAUACAAAGGGGUGUGCGCAAAGGCU'
p198
aF0.9444444444444444
aa(lp199
S'Simple Single Bond'
p200
aS'AAAAAAGGAAAAAAAUGUCUAAAAAAGAUUAAAAAAAACGAAAAAAAAAAAAAAAAAAAAA'
p201
aF1.0
aa(lp202
S'Taraxacum officinale'
p203
aS'CGGGGAAACACUGAGAAUGAAAGAUCUAGACCAAAAGAGUCGUACAAAAACACCCGGAUGAAAACAGACAGGUUAAAGGACCCAGCCGCGGGGGGGAUUCGUGGGCAAAGCCCAGCGGGCUAUAGGCAAGGGAUGUGCGAGGAUCCUUAAAGAGGGCCAUGCGCACUCCCAGCAGACACCAAGUGCGCCGCCCGCGAAGAACCCCCCGCGGCGGACGAAAGUAGUUAGUGGAAAAUACACGGACGGAAACAGUCAGGGGGAAACACCCAAAGCAAAAGAGCU'
p204
aF0.8156028368794326
aa(lp205
S'Headless Bug on Windshield'
p206
aS'AGUACGAAAAUGAGACAAAGAACUGAAAAAAAAAAAAAAAAAAAAAAAAAUAGGUCAAAGUUAUCUAACGAACGGAUAAGCCAAGUAAAAAAAUGUAAUCAAAAAAAAGGGGCAAAAAAGCAGGACAGAAAAAAGUCCAUAAGACAAUACGAGCUACGAAAAAAAAAAAAGGUAACUAAUCGAACCUCUUAAUCAAGUCA'
p207
aF0.87
aa(lp208
S'Pokeball'
p209
aS'AAAACCUUGCAAAAGCAUCCAUAAAUAAUCUUCGAUGAGGGCGAAAAGGAAACCAUUAACCAUCAGAUAAUGGGUUAGUCCGCAAGGUGAAAAAAAUUCCGUAAAAAGAAAAGAGGCGAUUGUUGUAAGGACUGCCGCAAGGGAAAGAGCAACAACCAACUCGCUCGCACGAUCUACGGAGAAA'
p210
aF0.9130434782608695
aa(lp211
S'Variation of a crop circle'
p212
aS'AAAAGGUAAAAGAAAAGGGAAACAAAUUCCUGUAUUGAGAAAAAGAGAAAAUACCGAAAAAGCUGAAAAAAAUCUGAAAAAAAAAAAA'
p213
aF0.9545454545454546
aa(lp214
S'Loop next to a Multiloop'
p215
aS'AAGGAAGAGCGAAAAAGCUUUGUAUUAAUAUACGCGGGUUCCCAAAGGGGAGCCAGAAAAAAAGCUUUUCCGA'
p216
aF0.9726027397260274
aa(lp217
S'Snowflake 4'
p218
aS'CUGCUAGCCGGCAACCUGAAAACAGCCCCGAGGCUGUGAAAACGGUAGCCGCCUAUGGCUAAGACCAAAGGCUGUCGCGAAAAGUCACGCCAACGCACGCUAAUGCGCUAGCGGCAAAGCCGAAGCGCGAACCGCUCGGCGCGAAAGCGCAUGAGGAGGAAUAAAAGUGACACGGUCGAAGGCCAAGACCGAAGGCAGCGUCUGUAAUCGGCGCCAGUACAACGAAAACGGGCAAAGGCAAGGCCCAAGACGAAACGUCUUGUCGGAAAGCUUUGUGAUGACACGGAAAACCGAGACCGGCAAAGCUGAAGAGCGAAGCUCGUUCCCUUAAUAAACGCCUAGGUAAAGAAAACUAACGAUAGAAAAGUUA'
p219
aF0.7189189189189189
aa(lp220
S'Mat - Cuboid'
p221
aS'AAAGAAAAAAGGAGGAAAAGAAACCAAAAUGACAAUGGAAAAGCUAGGAAGUAAAACGAGGAGGGAAUAAAAACGAAACAAGGAAAUAAAAAGAGGGAAAGAAGGAAGGAAAACGCGCACCCUUCCCGACCAAAAGGCCGCCCCCACCCCCCCCCGAAAAAUACCCCACUCCACUGUCGCCCCAAAAGCCUGCCAGCCUCCCCUACCCGAAAAAGGGAAUUAAGCAAAUGAGCUAGCGGAACGUAAUGAGGAGGGAAUAGUAACUAAGGAGGGAAGUAAUCGGGAGGAUGGAAUAAACGCCAACCCACUCACCAACUGACAUCCGCUCACGAACAACAACCAAGGCAACCCUCCCCUAGCGAGCCCACCCCAACCUCAAC'
p222
aF0.8447368421052631
aa(lp223
S'Misfolded Aptamer 6'
p224
aS'AAAAAAGUCUAAAAAGAAUAACGAAACUAAAAAAAAAUAGAAAAGGAAAGAUUCGAAAAAUGACAAAAAAAAAAA'
p225
aF1.0
aa(lp226
S'Snowflake 3'
p227
aS'AGUGCGAAAGGAGCGGAUAAAAACCAGUACCAGACGAAGGGAAAACUCGUCAGGAAAGCCCGUGAAGUCGCAAAAGCAGGCGACAAAGUCCCACCCUUGCUGAAUAUAAAAACGAGGAGCGAAACCAAGAAACUUGGACGGCCCAAUGUAGAAAAACAAUGGCAGAGGGAGUCAAAAGACGGCAGCAAAAGCGACAAGGCCAAGAAAUUAGCCGAUGAAAGCAAACCUCAGGACGAGACAAAGUCUUAUAAGUAAUGCCUCAACGGGGAGAAACAAGUGAAUAAAAGUUAAGGUCAGAAAAAGUAAAAACCCGAAGGGUAAUACGACGAAGCCGGAAAAUCAGCCGAGAAAACCCAGUUUCACUCCAAGUCAAAGGGCUACAAGAAAACCGCU'
p228
aF0.7531806615776081
aa(lp229
S'Hard Y and a bit more'
p230
aS'AAACUCCGCCGAGACUGAGAAAUCAUAUAACGGUACAAUAGCGUAAAGGCGUAGAGGAUGUAAAAGUUCUAUCUAUAGCGGGCGGUAAAAAAAAAAAAAAAAAAAA'
p231
aF0.9716981132075472
aa(lp232
S'Mat - Lot 2-2 B'
p233
aS'AAAUGCCGCGGUUGUGAAAAGGCUCGGCAAAAGCAAAACGUACCGGAUGCAAAACGAACCCCAAGGAAACAGGGGGGACCAAAAGAUCCGUCCGCGAAAAGCUAAUGCUGAAGAAAAACUAUUCGGGACCGUACCUAAUAGAAAUGGCCACGGACACCAAAAAACAGGGUAAAAGCAAAACCGAUCGUGAGUAAAACGGACCGCAGCCAACGAUCUGGCAGGAAAAAGAAUGUGAGAGAAAAUUAAACCGAUACGAAAAACGGACCCUGAGCACAAGGAAAAGC'
p234
aF0.7112676056338029
aa(lp235
S'Shapes and Energy'
p236
aS'AAAAAAAUCGGGACAGUAAAAAGAAAGCGACGAAAGGUGUUGAAUGCUGGAGGGCUUACGUCUGAAAAGACUCGGCACUAGAAAAAAAAAAAAAAAAAAAA'
p237
aF0.9801980198019802
aa(lp238
S"Spiral of 5's"
p239
aS'GAAAAACCACUAUGACAUAAAGCGUGAAAAGGCACAAAUAAAGUAAGACACAUUAUACGAAAGACGCAAAUAAGCAAACUCGAGAGCAUGGAAGACUCAAUUGCACUCGUUGCGAGGACACAAGAGACGAGACAGAUGCCAGAAGACUGAGACAUCGACACGAUGUUAAAAACGUCGGGCGACAGUAAAAAGCUCCAAAAAGUUCGGAAAGCAAGAUAACGUCGCCAAAAAGCCGAAAAAGGCGCCAAAAAAUGACAAAAUGCGCAUAAAAGAGCCAAAAAGGUUCGAAAAUUGAGGUAAGGCUCGGAAAGGUGCCGAAAAACGCCAAAAGGUCCCAAAAUUCUCAAAAAAGCGGCAAAAACCUGGAAAAAACGCUUAAAUGGUGUAAAAACAAAAA'
p240
aF0.7481108312342569
aa(lp241
S'Campfire'
p242
aS'AAAAGUCUAAGAAAAAAGGCGAAGUCGAAAAGUGACACAUCGUAUCGAACGCCGCUCUCUCAAGGAGGCACCUAAAAGGGAGGUCCCCCCGCUGCGAGGAUGUAAUUAUCCGUAGGAGUUAAAGCCACAACCAAAACAUGGAGAAGGCUUUGAGGCGAGCAGUAAAGAGGAAACUCUUGCGUCACUGGGACAAGGUCACCAAGAAGGAGCAC'
p243
aF0.8679245283018868
aa(lp244
S'Anemone'
p245
aS'AAAUAGAUGGAAACGUUUGUUCGGAAAGCCCCGUUUUACUAAUGUGAAGGCGCUAUAGGACGCUAUGUAGAAAUACAUGGAAAAGAAAUUUUUGGCUCAAAUGAGCAAUACCUCAAUAAGUAUAGGGCUAAUGUGUGGCUCACCGAAAGGUGGGGAUAGAAAGAAAUCAGCCGGGAAAACGGAAUGUGUAAAGACGCAGCGCGGAAAGACGCGC'
p246
aF0.8551401869158879
aa(lp247
S'Fractal 3'
p248
aS'AAAACGGGGUCACAGAUAAUUCGUAAAAGCGGCGUGACAGCGAAAGCGUAAAAACAGUCUCUGACGCAUUGCCCAAAAGGGUAGUCGCACUUAAUGGACAAAGGCAGCCUCCUCGAAAA'
p249
aF0.8991596638655462
aa(lp250
S'Kyurem 5'
p251
aS'AAAAGUUAUAAUUGGUAAUUCGUAUAAAACAAUCAGUUAAGAAUAAAUUCCGUACGUAGAAAAAGAAAGUCCGCGUUGAAAUGGAAAAAAAAAAAAAAAAAAAA'
p252
aF0.8365384615384616
aa(lp253
S'Snowflake Necklace ( or v2.0 )'
p254
aS'AUGGGGGGCGGGGGGGCCCUCAUUGAAAAGGGGUAAAAAGAAGGAAAAACCAUGAAAAACAAUGGAAAAACAGGGGGGGACAAAAGGCUAAUCACAGGAAAAACCAUGAAAAACGACGAAAAACGAGAAAAAAGUUCCAAAAAGGUGCGACAGAGAAAAGCCCGGAGUCAGGAAAAACCACGCAAACCGUGGAAAAACCAGCAAAAGGCAGGGAAACCCAGGCUCAGCUAAAAAAGCAGACAUAGGAAAAAUCAGGAAAAACCGCGGAAAAUGACGAAAAACCAGGAAAAGACAGUGGCAGUGAAAAACACAGCCGCAGCAAAAACCAGGAAAAACCAGCAAAAAGCAGCAAAAAGCAGGAAAAACCAGCGGCAUCUCCCGCCCCCCGU'
p255
aF0.8611825192802056
aa(lp256
S'Methaqualone C16H14N2O Structural Representation'
p257
aS'AAAAAAGGAAGAACUGAGUCAGAUAAAACCCAAUCGCCCAAAAGGGUAUCCGACAAAAGAGUGACGGACAAAAGCCAUCCAAAAAAAGGAAGACGGUUAGGCGGGCAGUAUCACAGUGAGAGAAAGAAGAAAAAGGAAACCAAAAAAAACCCGCGCAUGCAAAAGUAGUCAAAAGCCGGCAAAAGACAUCAUCGAAGGAGUUAAACAGAGGCACAAAAAGAGGGACAAAUGACAAAGGACUGCCAGUUGAAAGGUUCCCGGGCAAAGGAUAUCCAGAUUAAACUCAACCACACGCUAAAAGGCGUAUAAUGUCAGCUGAAAAGCGUCUAUCGUUUUGAACUCUGUUCCAAAAAAA'
p258
aF0.7830985915492957
aa(lp259
S"Cat's Toy 2"
p260
aS'AAAUUAUUCGAACAAAUUUAGGAAAAAAAAAAAAAAAAAACGAGCAAAGGAAAACCGAGGGAAAGCUAAAAAAAAACAAAAAUAUUUCGGGUGUAAA'
p261
aF0.9587628865979382
aa(lp262
S'Zigzag Semicircle'
p263
aS'AAAGUAGAGCUAUUAAAAUCACGGCUCCUAAAAA'
p264
aF0.9411764705882353
aa(lp265
S'Short String 4'
p266
aS'AAAAAAGCAUGAACUAAGAAUGAGUAGGAAAACCAUAGCUAAUAUGAACAAAAGUGGAGAGAAAAGCGAGCACUCUGAAAAAAAAAAAAAAAAAAAA'
p267
aF0.9587628865979382
aa(lp268
S'Gladius'
p269
aS'GAAAACAACAAAAGAAAGGAGAAAAGAAAGACAAGCUAGGUCUAAAAGAGCAUACAUGAGAUUCUAGUUUCGAAGAGUCCAAUUGGCUGUAUAGAGGCUAGACACAGUCGAGCUCAGGGCUUAUGGCCAGAGACCGACGACACUGAGUCUCCAUACGAUCAUAAGUGCAACGGUGCUUCGGGAAACGAAGCGCAUCGAUCGCCGGCGCAGAAGACAAAAAACCAGAAUGCUAGACGUUACGCAGGAAUAAGGUUUAGACCCCAGGCAAUCCCGAAAACGGGGCAAGUCGAGGUCAUGUGUAUUUCCGACGGGAGCAACAAGGUACCGAUGCUCUGGGUCGGAGGCGUCGGAUGGAAACGUCAAAGCCUGGCGAACAAAGUGACAAACAAAAGGAGAAAAC'
p270
aF0.7775
aa(lp271
S'Thunderbolt'
p272
aS'CGAAGCAUCAAAAAAAAGAGGAAGUAGAGGGGGGAAACACUCGCGAAAAAGAAAAAGGAAAAAAAGGCGAAAAGCUUAAAAAACCAAAGCUCGGAAAAAAAGCACAAAAAACCACAAUUCACCAAAAAGGAAACAAGGCGAAAAAGCGAAAGUCACAAAAAAUAUGAAGAAAAAGCGAUAACCAAGAGAAAAAGAGGAGUAAAGCAAUGCAAAAAAACGAAGGCAAAAAAAAAGACAGGAUUCGGGCCAAAGGCCCGGAGAAGAAAAAAAAAAACGCAUGCAAAAAAAAUAGCGAAAAAUGAUACCAAAAAGAAAAAAAAUGAAAAGUCGCCAAUAACAAAUUCGUGGGAAAAAAAACAGCGACCAAAAAAAGAAAAAAACAGGUGCCACGA'
p273
aF0.8826530612244898
aa(lp274
S'Mutated chicken feet'
p275
aS'AAAAAAGAGAAGUUGAAACCAAGAAAAGGAUCUCCAGGAAGAGGAAACCAGGAAGGCGAACCCCAUGAGCAGCAAACCAGGAAACCAAAGCCAUAAAAAA'
p276
aF0.94
aa(lp277
S'Chicken Tracks'
p278
aS'AAAAAAAUUGAUGUCCCACAAAGGUGGAGAUCAGAAAUGGUAAGUGCAAAAGCGCGGCGUCAUAGGAGCUAAAAUAGCAAGAUCAAGGAUCAAUGCCUACGGUAUCCAAAAAAAAA'
p279
aF1.0
aa(lp280
S'Looking Back Again'
p281
aS'CUCAAAAGGACCAAAAAGAGACUGAAAGCCCCAGGCCAAGAUGACAAUGCGAAGUAGUCAGAGUCAAAGACCAAAAGGCCAAAAGGUCAAAGUAAAUCUAAGGUAGACAAAAAGACGUUAAUACGCCAAAAAAUCCCAUUGGACACAAGACGUCGACACAAAACCGCGACAUUGCUAGAUCAAGCGCAAGCACGAUAAAAAUCGGACAGAAUGUGCUCGAACAAAGUCCGAGGCCCCAAACACCUCACCAGGCACACGGCAAAAAAGACGGGCAAAAAAAAGACGAAAAACGUCCCUCAAAGCCGGCUCGUGUAAAAAACAGUUACGAAAACGUAACAAGAGGCAAAACAGAUACGAAGCGUCAACCCUCAAAAACACGUACCAAAGAG'
p282
aF0.7763496143958869
aa(lp283
S'Multilooping 6'
p284
aS'AUCCUUCGCAAGCAGUAAUCUGCUCGUUCUAAUCAGCGGGGUCACGCUCUAUUAUCCCCGAGUUAAUUCUUCAGAGUGGGUA'
p285
aF0.9146341463414634
aa(lp286
S'Cesspool'
p287
aS'GAAGAACAAAAGAACUCCCCAGUGUCAAACAAAUCAAGAAGGGAAGCCCAAAAGAACAUCCGAAAAUAACUAAAAGAAAACAGCCGCCAACACAUGAAAACUAGGCCGGGUUGACAAAACCUAGAAGAAGCCAAGACCAAAAGAACACCACGAAAGGAGGAAAAAAAAAUACGGAUAAGGCCCAAUAAAAGAAGAUCUCAGAGGCAAGGUCAACAAGUAGCCAAACCGAAAAUAACAGGCCAAAAGAACAAAAAGAAAACACAAACCAAGACCCAAGAAAACAAGACGGCAGAGUCUAGGUCAAUAAGAAGCCAAACCCAAAAGAACGGUCCAAAAGAACAAAAAUAAAAAACAAACC'
p288
aF0.7122905027932961
aa(lp289
S'Hoglafractal'
p290
aS'AAUAGAUAGACUCAAAACAACCAAAAAAGGUUGAGCACCUCCAAAAUUUGAAAAGAGUGGGGGAUAAGACAAAAGCCGCGAGACAAAGACCAAAGACCAAAAAAGGUUGUCCCAUAAUAAUAAAUUCCGUCGGCGGAAAGAUCAUGAGAAAAAGGCAAGACAAAAAGCAAGCCCGAUGAAAAACGCGGAGAAAAUUCGCACACUAAAAUCAUGAAAAAACGGGGGGAAAAACCCGGGAAACUAGACACCAAAAAAGACAAAAAGGCCGUAAAAGGCGAGGAGACGCAAAGAUCUCUAAAAAAAUGCUCCAAAAAUGCGCUAAAAGCGCCUAAAGCAAAUUCAGUGAAGGAUAGCGAAAAAGUAAAAGCAGAAAACCCACACCAAAGGCGCCCCGGGCGAC'
p291
aF0.7075
aa(lp292
S'Bullseye'
p293
aS'AAAUGCGCGCGAAGCGCAGCAAUAAGACCGAAGGCAGAAGGCCGCCAAAAAAAUGAGGACCGAAGGCUAAGGCCAAAGGUCGAGUGCAAGUAAACCCUAAAAAAUGACCAUCAAGGAUGAAGACCUAUGGCCAAAAGGUAUUCCUGCCUAAAAAAGGAGGACGAAGGUUCAACAUCAAAGAUCAAGAGCAAAGGCCUCCAAA'
p294
aF0.7821782178217822
aa(lp295
S'Shooting Star'
p296
aS'GCUAUAGACCCAGGAUUUAGGAAGGGGUGACAGGGAGAAAAAUACCCACGCCACACAAUCAUAGCCCGGAGAAAACGCAGCCGAAGGCAUAUACAGAUAGCGCAGGAAAACACGCCACAUCGAGGUAAGCCAUAGAACGAAGUCAAAGAGCGCCCGGCGACACGAACCGCCAGACACAAGGCGCCGUAAAAGUUCAGUCGAGGCCAGAAUAGCGUAAGGACACACAAAGUGCGCCAGACAAAAGGAUCCACGCGGCCCGAAAAACCGGGUACACACAAGGCGCGGUUCGCGCAAGGAAACUCCUUAUCGACGGGAAGGGGUGCUAAAAAUGGCAACUCAACAAAAACUGAAGCGCCAUGUGGCA'
p297
aF0.6978021978021978
aa(lp298
S'Teslagon'
p299
aS'AAAAAACGAAAAAAAGGAGGAAAAAAAGUAUGAAAAAAAAAAAAAAACACAGGAACGGUGCAAAAAAAAAAAAAAAAAACAAAAAAAACAGGAAAAAAAGGAAAAAAAAAAAAAAAUCAAAAAAACCAAGAAAAAAAGCUAGAAAAAAAAAAAAAAACAGAGGAACAGUUAAAAAAAAAAAAAAGGAAGCAAAAAAACAGGUAAAAAAAAUAAAAAAAAAAAAAAAGCAAAAAAAACAGGAAAAAAAGAUGGAAAAAAAAAAAAAAACGUAGGAACGGGGAAAAAAAAAAAAAAACGAGCAAAAAAACUGUCAAAAGACGAUAAAAAAAAAAGUGAAAAAAAAAAAAAAAAAACAAAAAAAAGAACGAAAAAAACGAAAAAA'
p300
aF0.9109947643979057
aa.