(lp0
(lp1
S'Simple Hairpin'
p2
aS'AUAUCAAAAAAGAUAU'
p3
aF1.0
aa(lp4
S'Arabidopsis Thaliana 6 RNA - Difficulty Level 0'
p5
aS'AUAAAUCAAAGUGCUAAGAGAAAAUGUAGAUAUAUCAGGUAUAUGUAUAAAGAUCCCAAUUCUUUUAAAAUAGAGAGGGGAUCAUUUAUAUAUAUACAGGAUGUAUCAAGAUUUAU'
p6
aF1.0
aa(lp7
S'Prion Pseudoknot - Difficulty Level 0'
p8
aS'GAUAUCAUUAGGAAAUUAGGAUAAUCAAAAAAAAAA'
p9
aF1.0
aa(lp10
S'Human Integrated Adenovirus - Difficulty Level 0'
p11
aS'GCUAGGGUCUAGUUUAAAUAUAAAAAAAAAAGUAACCGACUACCAAAAUUCUAUGCGUAGAGGGAUAUAGGUUUGAAAAAAAGGACCUAUAUAAAACCCCGCAAAAACAAAGGUCAUUUGUUGAAAUUUAUCUAAAAAUGAUAAAGUUGAAAAAAAAAAAGAUGUUUUAAUUAAAAAGACUUAAAUAGCAAA'
p12
aF0.96875
aa(lp13
S'The Gammaretrovirus Signal - Difficulty Level 0'
p14
aS'AAGUGAAGUUAUUAAAGGAUAGCGGCUCAAAAAGAAUCAAGACAUGUCUAUAGAAAGUUAUAGUGCGACAGUCGAUUAAGAAGAUACAAAAGUGUUUUCAA'
p15
aF1.0
aa(lp16
S'Saccharomyces Cerevisiae - Difficulty Level 0'
p17
aS'UUAAUUCGAUCUAAAAAAUGAUUGGUGAAAAAAAAAAAAAAAAAAAAGUUACAAAAAAAGUAGCGGAUUGGAAAAGAUAGUCAAACAAUAAAAAAUUUGUGUCGAAAAAAAAAAAAGACAAAUGUUAUUAAAAAUCUAUCGACUAUCGAAGAAUGUACAAUGAUUAAAAAAUGUCACUGGAGAAAAAAGCUAUAGAACGGUUUCUAAAAAUGAAGCGCAUGUUAAAAGUUAUAAAAAUACGAAAAAAAGUAUCUAUUAAAAAAAGUAAUAGCAAUGGUAUAAAAAAAAUACCUUGUAACGAAUGGUUGUUAAAUAUUAAAAAACGUAGAUAGAAAAAAAAGUUCUAUCAAUGGCCUAAAAAAGGUGUCAACUAUUUAAA'
p18
aF0.862796833773087
aa(lp19
S'Fractal 2'
p20
aS'AAAAAGUAUAUAUAAAGUAUGGGUAUGGGAUCAAAAAAAAAGGAUCAAGAUCAAAAAAAAAAGAUCAGGAGCUAAAAAAAAUGCUCAAAUAUUCAUACGAAGUAUAUAUAUAAGGAGAAAAAAAAAACUUCAACGUUAAAAAAAAAAGACGAUGCGCAAAAAAAAAGGCGCUGAUAUAUAUACAAAGGGUGUAUUAAAGUCGUAAAAAAAAUUGGCGAGAGCAAAAAAAAAAGUUCAAGAUAAAAAAAAAAAUGUCAGUGAUACAUCUAAAAUAUAUACAAAAA'
p21
aF1.0
aa(lp22
S'G-C Placement'
p23
aS'GAUCAAAGAUCA'
p24
aF1.0
aa(lp25
S'The Sun'
p26
aS'GUCACUAGACCGAAGGUCAACAAGACAAAAUCAUUUUCGCAAGGCGACAGAAGUUGAGUUAACGACCUCUAUGAGGAAUCGGAAAAAUACAAUAUAGCAAAGAUAUAUAUGUAGAUUACAAUAUAGCAAGGGUAAACAUAUAUAUUACAUUAUAUCAAGGAGUAAUGGGUAUAAUACAUUACAUUUGCAGUGAAUAGGUGGAAUAUACGAUAUCAAAGAUAAACAUGUAAAAUACACUAUAACAAAGAUAAAUAUGUA'
p27
aF0.8217054263565892
aa(lp28
S'Frog Foot'
p29
aS'AAAAAAAAAAGGUCUAAUGACCGCGGGAAACCGCGCUGUAUCAGC'
p30
aF1.0
aa(lp31
S'InfoRNA test 16'
p32
aS'AGAUACGCAACAUACAAAAGUAUGAUUCGAGUAUCU'
p33
aF1.0
aa(lp34
S'Mat - Martian 2'
p35
aS'AGAGGAAACUCUAAGGAUAGUUAAGCUAUAAUAAAAAUUUAUAGCAGCUAUCAAGAUCCAUAUGAAAAAGAUAUGCAUUAUAUCGAAAAAAGAUAUAAGCAUAUCGAUGUAUGUAAAGAUAUAAAAAAAGUAUCUUAUAUAUACUAAAAAGUAUGGAUAAGAUAUGGAUAUAGACAAAAAAGGUUUAUAAAUCUGUAUAAAGAUCGAAAGGUC'
p36
aF1.0
aa(lp37
S'square'
p38
aS'AUACAUCAACAUCUAUAUACAAUAUCGAAGAUAUUAAAAGUAUAUGAAAUGAUGUUAAAGGAUGUAU'
p39
aF1.0
aa(lp40
S'Six legd turtle 2'
p41
aS'AAAAAGCAAAGCGAAAGUAAAAGAAACAUAACGUAAACGUAAAUAGAAAUAAAGAUGAAAAGAGACUGAAACGGAACCAAAAAAAAAAAAAAAAAAAA'
p42
aF0.9591836734693877
aa(lp43
S'Small and Easy 6'
p44
aS'GCCGUGAAAAACAACCGAAAAAAAAGGGGC'
p45
aF1.0
aa(lp46
S'Fractile'
p47
aS'AAAAAAAAAAAAGUAAAAGAAAUUCAAUACAAAGGUAAGCAAAGUGAAAGCGAAACGGUGGAAACAAAAGGUGCGGAAACGAAAAAAAAAAAAAAAAAAAAAAAA'
p48
aF0.9619047619047619
aa(lp49
S'Six legd Turtle'
p50
aS'AAAAAGCAAAAUGAAAUGGGAAGAAGAAAUUAAAAUAAAAACAAAAACUAAAAGGAAAAGUGAAAAUGAAAUUAAAAGAAAAAGUAAAAAAAAAAAAAAAAAAAA'
p51
aF0.9238095238095239
aa(lp52
S'snoRNA SNORD64'
p53
aS'AUAGCGUAAAAUUCAAAAGAUAAAGAUUUAAAAAAAAAAAAGAGAUCAAAAAUCAGGAAAUUGUUAU'
p54
aF1.0
aa(lp55
S'Chalk Outline'
p56
aS'AAAAAGAUCAGUAUCAAAAGAUUACAAUCACUUAAAAAAGGAUAAAGUACAAAAGUAACUUAGGCACGAAAGUGACCGAUCAAAAAAAAAAAAAAAAAAAAAAA'
p57
aF1.0
aa(lp58
S'InfoRNA bulge test 9'
p59
aS'AUAUAUAAGAGAGACUAUAUCGAAAGAUAUAGCCCUAUAUAU'
p60
aF1.0
aa(lp61
S'Tilted Russian Cross'
p62
aS'AAAAAGGAGGCUCAAAAGAGCGGUCAGUCCGAAAGGAUUAUCCGAAAGGGUGAGGUCGAAAGAUCGACCCAUCGAAAGAUGCUCCAAAAAAAAAAAAAAAAAAAA'
p63
aF1.0
aa(lp64
S'This is ACTUALLY Small And Easy 6'
p65
aS'AAAAAAAAAAAAAAAAAAAAAAAAAAAAAAAAAAAAAAAAAAAAAAAAAAAAAAAAAAAAAAAAAAAAAAAAAAAAAAAAAAAAAAAAAAAAAAAAAAAAAAAAAAAAAAAAAAAAAAAAAAAAAAAAAAAAAAAAAAAAAAAAAAAAAAAAAAAAAAAAAAAAAAAAAAAAAAAAAAAAAAAAAAAAAAAAAAAAAAAAAAAAAAAAAAAAAAAAAAAAAAAAAAAAAAAAAAAAAAAAAAAAAAAAAAAAAAAAAAAAAAAAAAAAAAAAAAAAAAAAAAAAAAAAAAAAAAAAAAAAAAAAAAAAAAAAAAAAAAAAAAAAAAAAAAAAAAAAAAAAAAAAAAAAAAAAAAAAAAAAAAAAAAAAAAAAAAAAAAAAAAAAAAAAAAAAAAAAAAAA'
p66
aF1.0
aa(lp67
S'Shortie 4'
p68
aS'ACGAAAGUAACGAAAGU'
p69
aF1.0
aa(lp70
S'Shape Test'
p71
aS'AAAAAGUGUAGAAUGGGCAAAAAAAAGUCUAAAAUCAUUCAAAUACGAAAAGUAUUAAUACAAAAGUAUAGGAGAUGACUACUCAAAAAAAAAAAAAAAAAAAA'
p72
aF1.0
aa(lp73
S'The Minitsry'
p74
aS'ACCAAAAAACCAAAAAGCUAAAAACGCGAAAAUGCAAAAAAAAGCGAGCGGAGCGGGUGGGU'
p75
aF1.0
aa(lp76
S'stickshift'
p77
aS'AAGAUCUCCCAAAAGGGAGAGAUCAA'
p78
aF1.0
aa(lp79
S'U'
p80
aS'AAAAUAUAUCAGAGAGCAGAGUCUAUGUCUAAUGACAUAGACCGCCCGAUAUUAAAA'
p81
aF1.0
aa(lp82
S'Still Life (Sunflower In A Vase)'
p83
aS'AAAGGUAGAGCUUCGAAAAGACGUAAUUGAUGAAGUCGAAAUUUAUAAAAAAUAAAAAGGAAUCAGAUAUCGAUCGCCAAAAAGGCGAAGUGGCCAAAAGGACUGAUUAUAUUAAUCUAUAUAUAUUGAAAUAGAAAAAGUUAUUAGAUAUUAAAAAAAAAAAGGAUCAAAAAAAAAAAAAAAAAAAAAAAAAAAAAAAAAAAAAACCCGAUCAAAAAAAAAAAAUAUAUCCAUACUAAUGUAUGAUCAAUAUAUGUAGAUUAAUAUAAAUGCUACAAAAGGUAGCUGUGGGGAAAAGCUCUAAGCACACAAAAAGUGUGAAGUUGCAAAAGCCGGCAGGAUUCGAAAGAAUCAGUAUCGGAAAACGAUAAGGCUAAA'
p84
aF0.9523809523809523
aa(lp85
S'Quasispecies 2-2 Loop Challenge'
p86
aS'AAAAAGUAGCAUAUAGGGCUAAUGCUCAUUAUGAGUGCAUAGAAUUAGAGCAGGCCGUCUAGAAAAAAAUUCGUGUAGGCCAUGCAAAAAAAAAAAAAAAAAAAA'
p87
aF0.9809523809523809
aa(lp88
S'Corner bulge training'
p89
aS'AGAUAUCGAUACAAAGUAUCAAAAGAUAUCA'
p90
aF1.0
aa(lp91
S'Spiral'
p92
aS'AAAAUACACAUAUAUAAGACAUUGACAGAUGAGAUUAGCAUGUGUACCACCAGCUUAAUGCGGGGAUCAGCAAUCCAUCGUUAGGUCUAUAUAGUGUUAAAA'
p93
aF1.0
aa(lp94
S'InfoRNA bulge test'
p95
aS'AAAAAAAAAAAAAAAAAAAAAAAAAAAAGGAGCAAAAAAGAGUGAAAUUUGGUGCAACAAGGGUAAGUCUAAAUGGUCUAAUACUGAGUAUCAAAUGAAGGCAAAACGUGGAAAAGGUAUCA'
p96
aF0.9836065573770492
aa(lp97
S'Worm 1'
p98
aS'AAAAAAGCUCGGGAGAGUGGGAAUAAAAGGUCGCAAUAUGUAGUG'
p99
aF0.9111111111111111
aa(lp100
S'just down to 1 bulge'
p101
aS'AAAAAGGGCAGCUACAAAAGUAGCAAUUAAAAGAUAGCACCAAAAGAUCUGCCAAAAGGCUGACAAAAGUCAGAUCAAAAAAAAAAAAAAAAAAAA'
p102
aF1.0
aa(lp103
S'Iron Cross'
p104
aS'AUUAACUUAAAGCUACGCAAAGUGGGCAAAAAUGCAAGCGAUGAUACUCGAAAGACAGGUAAAAUCGAUUAAAGAUAUGCGAAAGUAAUACAAAGUAGAACGAGGCGUUUUAAAGGGUUAAAA'
p105
aF0.8861788617886179
aa(lp106
S'loops and stems'
p107
aS'AAAAAAUAUAUCAAUGACUAAAACAUAAACGCUUAAAAAAAAGAUAUAAAAAAAAAAAAAUAUCAAUAGCGAAAAGAAUGAAAAAAAAAAUUCAAAAUGUAAAAACAAAAAAAAGUUAAAGGUCUAGCAAAAAAGCAAAGAUAUAUGAAAA'
p108
aF1.0
aa(lp109
S'Water Strider'
p110
aS'AAAAUCUUUCUAUCCGUAGACGAAAUAUAGAAAAAUCUGGUUGGUGUGCUUUAACGGAGGUUGAACGGCAGUAGAGUGGUAGUAAAAAAAAAAAAAAAAAAAA'
p111
aF0.9320388349514563
aa(lp112
S'The Turtle(s) Move(s)'
p113
aS'AAGUGGAAACAAAAGGGUUCAUUUAAAAAAAAGAAAUGGGUCAAAAGCUUAAAAAAAGCGAAAAGUUAAAGGACGAGGAAGUAAAAAAAGCUUCAAACCGUUACGCAAAGGCAAAAACGUAAAAACGGAAUAAAUAUAAAAAAAGCAUGUUAAUUUUAAAAUUGAAAAAUCUUGCAAAUGUCAAAAAAAGACUGUCCAAAAAAAAGGAAAAUAUGCUAAAAUGUAUAGAAUACCAAAAAGGUAAAGUGAGAAAAAAAAAAUCGAAAGAGAAAAUGUAAUCGCAAAUCUAUUCAAAAAAAAAAGGAUGUAAAAUGCG'
p114
aF0.9810126582278481
aa(lp115
S'Adenine'
p116
aS'AUAUCAGUUAUUAGAAACCAGAUGUAAGAUAUCAGAUAUCAAAAGAUAUCAAAAAAGAUAUCAGAUAUCAAUAUCAAAGAUAUAGAAAUUAUAUCGAUAUAGAUAUCAGUAUAUAUAAAUAAGAUUUAUAAAAUAUACAUACAUCAAAAGGUUUCAAAAGAUAGCAAAAGAUAU'
p117
aF1.0
aa(lp118
S'Tripod5'
p119
aS'AAGACCGCUCGAAAAGAGCCAGGAAAAACCUGGGUCAA'
p120
aF1.0
aa(lp121
S'Shortie 6'
p122
aS'GCGAAAGUGAGGAAACUAGGUAAACCGCCGAAAGG'
p123
aF1.0
aa(lp124
S'Runner'
p125
aS'AAAAGCGCGUAUUGGAAAGAAACGUUGUUUAUAAUUAAAUGGAAUCUGCAAGGUGAAAAGCCUUAGGACACCUAAAAGGAGGUGAAUGAAAUCGUAAAAGCCUGAUGCGUGAAAAA'
p126
aF0.8706896551724138
aa(lp127
S'Recoil'
p128
aS'AAAAAGAUAUAAGCAAGCAAGACAAGACAAGCAAGCAAAGCAGCAGUCAGUCAGCAGCAAUAUCAAAAAAAAAAAAAAAAAAAAA'
p129
aF1.0
aa(lp130
S'[CloudBeta] An Arm and a Leg 1.0'
p131
aS'AAAAAAAUAGUUAAGAAAUUAAACGAUACAAAAGUGGUUUAUUGAAAAAAAAAAAAAAAAAAA'
p132
aF0.9682539682539683
aa(lp133
S'[CloudBeta] 5 Adjacent Stack Multi-Branch Loop'
p134
aS'GAUAGGAUCUAAUGAUCGGAUCUAACGGUUCCAUACGAAAGUAUGCUGCUUAUGCAGCUAUCA'
p135
aF1.0
aa(lp136
S'Triple Y'
p137
aS'AAAAGGUCUGGACAAACAAAGGUUUUAUCAAAAGAUAUACCGUUAAGUGGAAACACUGAUAUAAUGGGAGGACAGACAAAAAAAAAAAAAAAAAAAA'
p138
aF0.9175257731958762
aa(lp139
S'Misfolded Aptamer'
p140
aS'AGAGUAAAAACCGACAAAGUCAGCAAAAGCAAAAAAAAAGGAAAAUCUCU'
p141
aF1.0
aa(lp142
S'Flower power'
p143
aS'AAAAAUAUCACUCAAAGAGUUGUACGAGCGAAGUUCAGACACAAAGUAUAAUGAAAAAUUCUGUACUUAUCUAUGUUAGAUGGAAAAAAAAAAAAAAAAAAA'
p144
aF0.8921568627450981
aa(lp145
S'Kudzu'
p146
aS'AAAAAGUGAUAAUAGCGACAGUAGAACAAAGUUCAAGUUGAUAGCGAAGCAUAUCUAAUUAAGGCCAAACGUGAAGAGCGCAAAAAAAAAAAAAAAAAAAA'
p147
aF0.9603960396039604
aa(lp148
S'"1,2,3and4bulges"'
p149
aS'AAAAAGUUCAGAGAAGAAAUAGAAAUUCGACUCAAAAAUAGUAGCGAAACAUAUGACUAAUGAAAUGAGAUAAAAACCUUGAAUCAAAAAAAAAAAAAAAAAAAA'
p150
aF0.8857142857142857
aa(lp151
S'medallion'
p152
aS'AUAUAAGUUUCUCAAAGAAUACAAGAAAAAGGUAAUAUAAAAAUAAUACUGCUAAUAUAAUAAUAAAAAAGCAGUAUAUAAAAAUAUAUAAUCCAAAAGUGGUACAAAAGUAACAUAUUAAAAGAUAUGAUAUAAAAGUAAUUUAUCAAAAGAUAAAAUACAAAAGUAAUCUAAGAAUAGUAAUUCAAAAGAAAUAAUGCAAAAGCAUUAUAACAAAAGCUAUAUUACAAAAGCAGUACAAAAAUAAUGUAGCGAAAGUUACAGUAGAAAGGUAAUAGUUAUAAUUAAUUUAUCCAAAGGGAAUAAAAAGUUAAAUUUUAAAAUGAAAUAAUUGUAU'
p153
aF0.8071216617210683
aa(lp154
S'[RNA] Repetitious Sequences 8/10'
p155
aS'AGUAAAAAAGCAAAAAAGCAAAAAACCAAAAAAGUAAAAAAGCGAAAAGGCAAAAAAGCAAAAAAGGAAAAAAGCAAAAA'
p156
aF1.0
aa(lp157
S'Documenting repetitious behavior'
p158
aS'AAAAAAAAAAAAAAAAAAAUAAAAAAAAAGAAAAAAAAAAAUGAAAAAAAUCCAAAAAAAAAGUGAAAAAAAAGGAAAAAAAAAGUAAAAAAAAAUCAAAAAAAAAGUGAAAAAAAACUAAAAAAAAAGUAAAAAAAAAGUUAAAAAAAAGUUAAAAAAAAAUUAAAAAAAAGUGAAAAAAAAGCGAAAAAAAAGGAAAAAAAAACCUAAAAAAAAGCAAAAAAAAAAUGAAAAAAAUGCGAAAAAAAUACAAAAAAAAAGGGAAAAAAAAGCGAAAAAAAAAGAAAAAAAAAGUAAAAAAAAACCAAAAAAAAAGAAAAAAAAAACCAAAAAAAAACCCAAAAAAAACCUAAAAAAAUAUAAAAAAAAAUCAAAAAAAAAGUAAAAAAAAAUUUAAAAA'
p159
aF0.8975
aa(lp160
S'7 multiloop'
p161
aS'AGGGUCCCUAAAGGGGGAGGAUCGAAAGAUUCGGCGCUAAUGCGCCCCGGCGAAAGUCGGGAAGUGAAAACUUCGCCGCGAAAGUGGCCCCU'
p162
aF1.0
aa(lp163
S'Kyurem 7'
p164
aS'AAAAGUAUAGACGAUGAAAGGAGACAAAAUCCGAGUUUAAAUGGUCUGGUAAGAAAGAUCAAAACCGUGGAGUUGUCAUAGGAAAAAAAAAAAAAAAAAAAA'
p165
aF0.9215686274509803
aa(lp166
S'JF1'
p167
aS'GUAUAUAAAUGGUCUCUAAGAUAUAAAAGAUAUCAAGGUAUAAAGGAUCAAGAAAUCAAUCUAUAUAUAUAUAAAAAUAUAUAUAUAGGUAAGACAAAAGUCAUAGAUAUAUAAAGAUAUAUUUAAUUAUACGAAAGUAUAGGAUUUCAGAUUCAAUACCAGAUAUCAAAUAUGUAUCAAAAGGAUAAUAUAAGGUUUGUUAAUAUAGAUGGAAACAUAAAAAUGUUUCUAUCUAUAAUUGAUAGACAAACUGUUAAAAAAAGCAGCUAUUUUAGUAAAAACUAGAAUAGGAAAGCUAAAGAGUUAAAUAUCGAGGAGAAGAUCGCUCCGUCAAAAGAUGAGGAUCAGUUACAACCAAAGGGUUGCUAGCACAUUCUAUAGUACAAA'
p168
aF1.0
aa(lp169
S'multilooping fun'
p170
aS'UUAUAAGAGGAAAUGGACAGCGUGUGUUAACCGGGA'
p171
aF0.8333333333333334
aa(lp172
S'Multiloop...'
p173
aS'UAUUACCGGAAUCUAAUGAUAGUGUAAUUUCCGUAUAAUCACUAUCUAAUGGUUAGUUAAUGCUGAUAAAAAUAUGUAAGGGCUUCUAAAAUGAGAUUGAGAAAGAAGAAG'
p174
aF0.8558558558558559
aa(lp175
S'hard Y'
p176
aS'AAAAUGCCUAGAUGUUGGUGAAAGUGUCGGCUGCCUGAGCAUUUUUAAUAAGGAGUUUGAUCUUAAAA'
p177
aF0.9705882352941176
aa(lp178
S'Mat - Elements & Sections'
p179
aS'AAAAACCGCAGAAAGUAUACACGUACCAGGAAUGGUACAAUCAAAAGCUGGGUGCAUAACGGAAAAAGGAAUAUUAGAGCAGCGGGAAAAAAAAAAAAAAAAAAA'
p180
aF0.9619047619047619
aa(lp181
S'Chicken feet'
p182
aS'AAAAAGCAAUUAAAAAUCGGCAGGGGUAUUUGCUUGAGGAAGAAAUAUACGAAGAUAGUCGGUAAAA'
p183
aF0.7611940298507462
aa(lp184
S'Bug 18'
p185
aS'GUUUGCGUGAACGAACUACCUGAAAAUUUUCCGGAGGAAGCUAAGUAAAUGAA'
p186
aF0.8867924528301887
aa(lp187
S'Fractal star x5'
p188
aS'AAAAAUGUAAAGCUAAUACGAAAGUGUAAUAUCAAAAGAUAAAGAUCAAAAGAUUAAUUUAGAAAUAGGAUGCUUUACAAAAAUGUUAUGUCUAAUACAAAAGUAUAAAAAGAAAUCUUUAAUAGUAAAAGCUGAAUCUCUAAUGAGAAUGACAUAAUUAAAAUAUUUAUCAAUUACGAAAGUAAAGGAGAAAACUCUCAAUACCAAAAGGUAGACCGUAAAGAUGGAGGAUAAAUAAAAAAUGUACAUCGAAUACGAAAGUAUGAGACCGAAAGGUCGAUAUGAAAACAUAAAUAGCAAAAGCUAAAGAUGUACAAAAACUGUAUUUGUAGUUUAAAAAGACAAUAGCAAAAGUUAGAAAUCGAAAGAUUAAUAUCAAAAGAUAAUCAGAUACAAAAAA'
p189
aF1.0
aa(lp190
S'Crop circle 2'
p191
aS'UGUAUUGAAAUUAGAAAAACAAAAAAAAUGUGAAAAAAAAAAAAAAAAAAAAAAAAAAAAAACUAAAAAAAAAAAAAGGUCAAAAAAAAGGUAAAAAAGAUAAUUAAAAA'
p192
aF0.9363636363636364
aa(lp193
S'Branching Loop'
p194
aS'AAGCUAGAAAAAAAAUAUGGAAACAUGCACGCUGCAAAAA'
p195
aF0.95
aa(lp196
S'Bug 38'
p197
aS'AACUAAAUACAGCGGAAACAGCGACGGUUAAAUGUA'
p198
aF0.9444444444444444
aa(lp199
S'Simple Single Bond'
p200
aS'AAAAAAGAAAAAAAAUGACCAAAAGGGUUUAAAAAAAGCAAAAAAAAAAAAAAAAAAAAAA'
p201
aF1.0
aa(lp202
S'Taraxacum officinale'
p203
aS'ACAGAAACUAUGCAACAAAAAAUAUUUAUAACAAAAGUAAAGUCUCGAACGAGAGGUAGCUAAUUAUUCAUCCUAAAGGAAUAUAUACUUAUCUCGUGACUUAAUCUAUGAUAGAAGUUACUAUAUGAAGCUUAUAUGUGAGACUUACAAAGUAAGUCAAUAUAUAGGUGACCUAGAUACAAAGUAUUUGGUCUAUAUUAAGGGAUAAGUAUGCGGGUAAUCAAUGAGAUUUAAAGAAUAGUAGCGAAAGGAUAGAAACAAAGGGACAACUGCAAAAGACGG'
p204
aF0.8014184397163121
aa(lp205
S'Headless Bug on Windshield'
p206
aS'AGAGAGAAAAAUCAUCAAACCGAGCAAAAAAAAAAAAAAAAAAAAAAAAACUUAGGAAAGAUAGAAAAUAAGCAGCUAGGCGAAGUAAAAAAAGCAAAAGCGAAAAAAGCCACAAAAAGGGCUAUGUCAAAAAAAGUCUAGAGAGAUAACCCGGUAAAAAAAAAAAAAAAAUCGUGGAAGUCGAUCUGACAACGUAUGCA'
p207
aF0.93
aa(lp208
S'Pokeball'
p209
aS'AAAGAACUUCAAAAGCAGGGUUGACGAGAAAUGAGGAAAGAAAGGAAGGAAGCCAUCAAUCGUUACAAAUCAGUCUCCAGUGGAGUUCAAAAAAAAGAUAUUCAAAAGCAAGUCUGGUUGGAAGGUAAGAUUUCAAGGAAGGAAGCUAUUAAUACACAGUACUCUGCUUACAGCGGAUAUCAAA'
p210
aF0.967391304347826
aa(lp211
S'Variation of a crop circle'
p212
aS'AAAUGGUAAAAAAAAUACGAAACGAAGAUCGAUAUUUCUGCAAAAUGAAAAAAGUUAAAAAGUAGAAAAAUAUCCUUAAAAAAAAAAA'
p213
aF0.9090909090909091
aa(lp214
S'Loop next to a Multiloop'
p215
aS'AGCAUUUGUUUAAAAAGCGGGUAUCAAAAGAUACCAAUAUUUAGAAAUAAAUAUAGAAAAAAUGAUAAAUGAA'
p216
aF1.0
aa(lp217
S'Snowflake 4'
p218
aS'AGGCGAAGCCUCUAUGUGAAAAGACUAGCGUGAUCCUUUAAUACAAUUAUAGAAAGGAUAAAUCGUUAUUUUAUAAUUUCAAAAGAGCGUCUAGGUAGUCAAAAGUAAAACGUUUAAAAAACAAUAGAGAAGCUAGUAUUCGGAAAAAUUAUCGUCUUAUGCAAAGGCUAGACCCUCAAGAAGAAAUUUGUAUGAUAGUUUAUCAAAAGUAUAGCAAAAUACUCAAAAGAGGUAGUGUUGAAAGCAAAUAUAAAGGAUAUUAUUUCAAAGGGGUAUUAAUAUAGAAUAAUAUCUUGUUAAUAAGGUGGAAUAUGUAUUAUAGCAAGAGAAAUCUUUAUGGAGUUAGUAGAAAUACAUAGGAGUUAUCUUC'
p219
aF0.8162162162162162
aa(lp220
S'Mat - Cuboid'
p221
aS'GAAGCAAAAAUAAGUAAAAAUGAGCUAAAGAAGGAACCAAAAAUAAGUAAACAAAAGAAGUAAGUAGGCAAAAGUAAGUGAGUAUGCAAAAUUAAGUAAGUAUGAAAGUAAAAACAACUAUCGAAGGAAACAAAAGCAAGUAAGCAAGCAACCGAGCAAAAGCAAGCAAGCAAGCAAGGAAGCAAAAGCAAGCAAGAAAACAAGAAAGGAAAAAAUCGAUCGAGUGAUCAAGCAAGCGCAACCGAGCAAGCGAGCAAGUGCAAGGAAGCAGGCAAGCAGACGUAAGCAAGCUAAGAAGCACAAGCUAUGAAACAAGGGCUAGCGAGCUAGAGAAAGCAGGCAGCGCAAGCAAGUGGAAGCAACGCAAGUGCAAACGUAAC'
p222
aF0.8394736842105263
aa(lp223
S'Misfolded Aptamer 6'
p224
aS'AAAAAAGAUAAAAAAAUACAGCGAAAAUCAAAAAAAGGAUGAAAGAAAAAGUAUAAAAAAGGUCAAAAAAAAAAA'
p225
aF1.0
aa(lp226
S'Snowflake 3'
p227
aS'AUCGGAAAAGUUCAUCGCAAAAGUGAAGACCAGAUCAAAUCAAAAGAUCUAAACAAAAGUCUCAAAAAGCGAAAAGGAUAGCUUAAAAAAGAAGCUCAGAUGAAAUGAAAAUAUCUAAACUAAUGUCUCAAAGAGUCAAAAGAAUAGCUCAAAAGAGAAGAGUGGCUCAAACCAAAAGGUCUAAACGAAAGUUUCAAAGAACGAAAAUGAUCGCUAAAAAGAGAAGGGAAUGUCGAAUGGAAACAUCUCAACAAAAGUCUAAAAUAGAUAAAAAUAUACCCCAAAGGGGAAGAUCAGAUCAAGCCUAAUGGCCUAACGAAAAUCUGCAAAGCAAUAAAAAGAUAGCUUAAAAAAGAAGAUCGGGUCAAGCUUAAUAGCAUCUACAAAAGUGAU'
p228
aF0.727735368956743
aa(lp229
S'Hard Y and a bit more'
p230
aS'AAAAUUAUUCGGACUACCAAAAGGUAACUCGAGUUGCCAAGAUGAAAACAUUAAAAUCUGAAAAAGAAUUAAUUAAGUUACAAAGUAAAAAAAAAAAAAAAAAAAA'
p231
aF0.9716981132075472
aa(lp232
S'Mat - Lot 2-2 B'
p233
aS'GAACGCAAGCUCGACCAAAAGUUUGAACAAAAGAAAAAUCUACCGCGAGAAAAAGCAGGCUUAAACAACCAAGCACAAGCAAAAGCAAAAUCAGGCAAAAAUGAAAAUGCAAGAAAAAUUAAGUGCAAGCGAAAACAAACAAAAGUGAAAGAACGGUCAAAAGUAAGCUCAAAAGAAAAAUCAACCGCAAGAAAAAUCAAAGGGGAUCAAGCGAGGCAAGGGAAAAAUAAGCUGAGGCAAAAGUAAAAACGCAAUAAAAAUCAAAGGCAAGCGCAAGUAAGAGA'
p234
aF0.7605633802816901
aa(lp235
S'Shapes and Energy'
p236
aS'AAAAAACUCUCUACCGCAACAGCAUCUUGCGAAAGCACGGGCAACGAUGGAAGAAAACAGUCUGAAAAGACUAGGGGGUGAAAAAAAAAAAAAAAAAAAAA'
p237
aF0.9603960396039604
aa(lp238
S"Spiral of 5's"
p239
aS'AAAAAAUAUCAAAGAUAUGAUGAUAUUAAAAUUUCAAAUAUACAAAAAUGUAAGAAAUAAAUAUACGAAAUAUUUAAACACAUAAGAUAUAAAGAUAUGAGGAUAUUGGACCCAAAGUUAUAAGAUACAUGAUGUAAGAUAUAGGAGUCCGAUACAGUAUAUAUAAAAAAAUUAUGGGGGUUAUACAAAAGGUAUCCAAAUGACUCAAAAAAUAUCAAAAAGUAUCUAAAAGUAUCAAAAAAUAGCAAAAAGGGUCAAAAUAUAUCAAAAAAUAUCAAAAAAUAUCGAAAAAUAUGAAAAAAUAGGAAAAACGUAUUAAAGAUUUCAAAAAGUAUUAAAAGGUAUGAAAAAGAGAUAAAAUAUAUCUAAAAAUAUCAAAAAGAUAUAAAAAUAAAAA'
p240
aF0.9949622166246851
aa(lp241
S'Campfire'
p242
aS'AAAAGACGAGAUUAGAAGAACAACUACUAAAUGUAUAGAACCAAAGGUAUGUGUUCGGAAGAAUCAGGAACUUCGAAGAGAAGCCCGGUAUAUGGGGUGGCCAAAGGGUACAUGUCUUUGUACUUAAAGAACAAAAUAGUAGUUGACACUACUGCCUACCAUUUAUAUCGAAAGAUGGAAGGUGACUAUAUGAAGUGAAAAAUCUGGCCGUU'
p243
aF0.8490566037735849
aa(lp244
S'Anemone'
p245
aS'AAAGCGGCCAAAGGGUCGUGGUACGAAAGUACCCGUGUAAAAGUAUGUUGUAGCGAAAGUUGCCAUCCGGAAAUAAAUCCGCGGAAAGCCGUGCCGAGAAAGCUCGGAUUGUAGAAAUAUAGUAACAUUGAAAAGUGUGAGAUGAAAGCAUCUCAGUGAGAAAUCACUUAUGGGAAAACCCUCGGGAGGAAAGUCACCAUGAUCGAAAGAUCAU'
p246
aF0.9813084112149533
aa(lp247
S'Fractal 3'
p248
aS'AAAAACUAGAAAGAACAAAAGGUCAAAGGAGCUUAUUCAUGGAAAUAACAUAUACAGAAUACCAGUAAAAGAACAAAAGCAGAUUAUUAAUGAAGGUCCAAAGGGAGGUAUCAGAAAAA'
p249
aF0.8319327731092437
aa(lp250
S'Kyurem 5'
p251
aS'AAAAAGCGGUAUGGUAAAAGCCUAGAAAACAUUGAUAAAAUACGAAAAGUGUGGCCAUAAAAAGAGCCGAUGCUAAGAAACUGUGAAAAAAAAAAAAAAAAAAA'
p252
aF0.9230769230769231
aa(lp253
S'Snowflake Necklace ( or v2.0 )'
p254
aS'CUAUUGCUAUUUAUUAGGUGUACUAAAAAGGACCAAAAAGAAUCAAAAAGAAUCAAAAACAACCAAAAAGGAAUACCAGACAAAAAGUCAUACAAAACGAAAAGUAUCGAAAAGAAUGAAAACUAAUCGAAAAUAAUCAAAAAGAAAUGUAAGAGUAAAUCUCAUAGAUAACAAAAGCUGUCAAAAAGAAUUAAAAACAGGCAAAAAGCAACAAAAAUUUGUUUAAGACAAAAAGUCGUAUACAACAAAAAGUAUCAAAAAUAAUCUAAAUGAAUGAAAAACAAUCAAAAAGAAGUAUAAGUCAAAAAUCCGACUACGACGAAAAGCAUAAAAAAGAAGCAAAAGGUACCAAAAGGGAGUAAAAAGUAAUAUAAAAUAAAUAGCAGUAG'
p255
aF0.8251928020565553
aa(lp256
S'Methaqualone C16H14N2O Structural Representation'
p257
aS'AAAAAAAGUGCAAGAUAGGUGGUCAAAAGGUUGCUACGCAAAAGCGGUAUAUACGAAAGUAAUUUACUCAAAAAAGGUAUAAAAAAAGUAAAACAAUAAAGCAGGCGAAAAUAAUCUAAGACAAAAUAGUUAAAACAAAGUAAAAAAAAGAUAAAUAAGGGAAAUCCCUGAAAACAUAUGAAAACGUAUAAAUAAGAUUUAAAAAAGAUCUGCCACUUUCAGAAUGAAAGUUCAAAAGAGAUAGUUGCAAAAGCAUCUAACACAAAGGUGAGAGAUGAAAAAUUGAGGCUAUGGACAAAAGACUGCAAAAGCAAAGCAAAAGUUUAUUGAUGGACUAAACUACGGCGCAAAAAAA'
p258
aF0.8140845070422535
aa(lp259
S"Cat's Toy 2"
p260
aS'AAAUAUAGAAAACAAACUGGGGAAAAAAAAAAAAAAAAAAUAACCGAAGAGAAAUCAAGGCAAAAGCAAAAAAAAUGAAAAAAGAUUUUCUAUUAAA'
p261
aF0.979381443298969
aa(lp262
S'Zigzag Semicircle'
p263
aS'AAAUAUUUUAUGGCAAAUGCAACUUAAUGUUAAA'
p264
aF0.9411764705882353
aa(lp265
S'Short String 4'
p266
aS'AAAAAAGUAUUAAACGAGAAGAGGAUACGAAAGUGCAAUAAAGCCCAUAAAAAAGUUAGGAUAAAGUAGUAAAGACAAAAAAAAAAAAAAAAAAAAA'
p267
aF0.9381443298969072
aa(lp268
S'Gladius'
p269
aS'GAAAACAAGGAAAGAAAUAAUAGAAUAAAGAGAGACGAGAGACAAAGGUUUAAUAUUGGGAGUCAGUAGUACAAGGAUUAAAGAAUCAAUACAAUACGAAAUAUGAAUACACGACAAGAGCAAGGCUCAGUCCAGUGUCAAUAUACUGUAUGAUAUUGGUAACGUAAUAUCGGUACAAGAGACAAAAAAUAUAGUCAAAAUCACACCUACAAUACCAGAGAUCAAUGCAUCUAAGGAUAUACAAGCUAGUGUUUCAUUAAUGAAUCAAUAUUCUAAUGGAUAUAAGAUCAAUUACGGAAAACUUAGUACGUAUAUCAUUCGAUGAUAAGAUCAUACGUAGGAAAGGUGAACAUAAAAGUGUAAAGAUGCUCAAAAGGCAGAGAAAGAGAAAGGAGAAAAG'
p270
aF0.895
aa(lp271
S'Thunderbolt'
p272
aS'GUAAGAUAUAAAAAAAAAAAGAUAAAAAUGAGAAAAAUAAUAUCUAUAAAAAAAAACCAAAAAAACACAAAAAGUGUAAAAAACCGAAGUAAGUAAAAAAAAAACAAAAAACGACAAUCAAGCAAAAACGAAAGAUAUCACAAUGAUGAAAAAAAGGAAAAAUACCGAUAAAAAAGCUGUUCAAAGAAAAAAAAAAAGACAAAGUAUAAUAAAAAAAAAAAGAAUAAAAAAAAGAUGAGGGGGAUAUCAAAGAUAUCAGCAAGCCAAAAAAAAAAGUAAUCAAAAAAAAACAAGUCAAAGCUAUAUAAAAAAAAAAAAAAUAAAAAAUAUAGAACAAGAAGAUAGAUAUAAAAAAAACGUAUACCAUAAAAAAAAAAAAAUAAUAUCAAGCA'
p273
aF0.8877551020408163
aa(lp274
S'Mutated chicken feet'
p275
aS'AAAAAAAGCACCACUGGACGAGCGAAGCAAAGUUCAUGAGUACGAAAUACGAAAGUCAACUCGAGUAAACUGGAAACCAGAAAAUCAAGAUUAAAAAAAA'
p276
aF0.78
aa(lp277
S'Chicken Tracks'
p278
aS'AAAAAAAAGAUAUAGUAUCAAAAGAUAAAGAUCAAAAGGUCAAGAUGAAAGCAUCCUAUAUCAAGGCGCUUAAAGAGCAAGAUCAAAGAUCGAGAGGUAUCCUCGCCAAAAAAAAA'
p279
aF1.0
aa(lp280
S'Looking Back Again'
p281
aS'GAUAAGGCCAGUGAAAAAUGUACGAAGUAUAUAACUAAAGACAAGAAGGUAAGGCCUUUAGUUAUGAAGAUCUAAUGAUCAAAAAUAGUAAGUCACGCCAAGUACGUUAAAAAAUUUAGAAAUAAAUAAAAAAAACGAUACGUUCCGAAUGGGUCAUGCAAAGUAUAUGUAACACGACAAGAAGGGAAAGAACAACAAAAGUUGGAUGAAAGCAAGAGGGACAAAAGUCAAGAUAAAAAAGUAGCGUACAGAUAGAAUAUAAAAAAAUAGAUAAAAAAAAAGAUGAAAAAUAGCUACUAAAAAUAAGACUAUCAAAAAAACUAUGUCGAAAGACAUACAGAUCCAAGGGAUUGUCCAUCGCUAAAAACGAAAAAGGAACUUUCAAAGUC'
p282
aF0.7917737789203085
aa(lp283
S'Multilooping 6'
p284
aS'AUUACGGGGGAAACAAACAUGUUUCAUAUGAAAAUAUGGUCCGGAACACCAAUGUGUUCCCCCGAAAGGGGGCAGUCGUGUA'
p285
aF0.926829268292683
aa(lp286
S'Cesspool'
p287
aS'GAAGAAGAAAACAUUCUGAAGAAAUUAAGCACAAAAAUAAAUAGAAUAAAAAAUAUUAGAGAAAAAUAACAAAAUUAAAAGAACGACAAAAAGAGUAAAAAAAUUGGAAUUAAGUAUAGCGCAGAUUAACAAAAUAAAAAAAUAAAAUAAGAAAACGAAAAAAUGAAAACAACAAUAAAAACGAAUGAAAAAAAAUAAAAAAAUCAAACACAAUAAUAAAUUAAAAAAAAAAUAAUAGAAAAAAAUAACAAAAAGGAAAUAACAAAUAAAUAGGAAUAAAAGAAUAUUUGAAAACGUAUCAUCAUAAUUAGUGAAAGAAAAAAUAAUAGAUAAAAAUUACGAAAUGAAAACACUAGAC'
p288
aF0.7011173184357542
aa(lp289
S'Hoglafractal'
p290
aS'AAAUGUAAGGUCUAAAAGGUUUAAAAAAGGACCAGACCAUGCAAAGAUGAAAAUCGACGCGUAAGAACCCGAAAGGGUAUAGGUUAAUAUCAAAGUCCUAAAAUGGACGAUACUCAAGCCAAAACGUCGAAUCAGCAAAAGCCAAGACAAAAAGAUGAGACUAAAAUGUCAGAUCAACAAAAAGUAAAACUAAUGUUAAUGUUAAAAAUAAAUUAAAAUGAAGUACAAAAGGUAUCCAAGGAUGGUGUAGAAAAAGAUUAAAAUGUCACAAAAGGUAACUAUGUACGAAGUAUAUAAAAAAAAUACACCUAAAAAAACGUGAAAAUAUAAAAAACCAAAAUCAAGAAACACACUGCGAACGCGAAAGCCUGUAAAGUUUAUCAAAGAUAAAAGUAGGUAU'
p291
aF0.865
aa(lp292
S'Bullseye'
p293
aS'AAAGGUUCUUAAAGGGAAAGAGCUAUGCUCGAGGUUGAAAACAACCAAAAAAAAUAAGAGCAAAGCUCAUUGUGAAGCUUAUAAAUGAAAUAUUGUAAAAAAAAAGAUCACCAAAGGUUAACAAAAAAUUUGAAUAUCAAGGAUGAUAAAAAAAAAUAGAUAGAAAUAACAAGAUCAAAGAUCAAGGUCAAAGGUGGUGAAA'
p294
aF0.8316831683168316
aa(lp295
S'Shooting Star'
p296
aS'GAGAUCGAUAGGACUACAAUAAGAAGUAUUCAAUCGACAAAAGCAGAAUGAGGGACAAUUUAGUAGUUCAGAUAUUUGAAAUGCAAACAUUUUCAAUCACUACAACGAAAGAUGUAAGGAUGUAAAAAGAUAGACUAACUUAAUAAUUAGUAUCGAUUUAUACAAGGUUUAAUAUGCAAAGUAUAAAAAAAAUGUAGAUCAGAUCAAUCCAGUAUAAAAUAUAUUAAGGAUAUGUAGAAUCAAAGGUAUAUCUGGUAUUCAAAGAAUACCAUAUACAAAGCAUAGUAUCAUCAAGAAAACAAAAGAGAAUAAGAUCAAUAAAAUAAAAGUUUUAAUGAUAUAAGGACCUAAUGAUCAGAUUUCA'
p297
aF0.7774725274725275
aa(lp298
S'Teslagon'
p299
aS'AAAAAUAUAAAAAAAGGAGAAAAAAAUAGAUUAAAAAAAAAAAAAAAAAAAAAAAGUUACAAAAAAAAAAAAAAAGUAGUUAAAAAAGCAGGAAAAAAAGAAAAAAAAAAAAAAAAUCAAAAAAGCAAGUAAAAAAGGAGCUAAAAAAAAAAAAAAAGGAAAAAAGCAGUAAAAAAAAAAAAAAAGUCGAAAAAAAAACAGUAAAAAAACGAAAAAAAAAAAAAAACGAAAAAAACCGCUCAAAAAACCACCAAAAAAAAAAAAAAAGGAAAAAAAUUGAAAAAAAAAAAAAAAAUCAGAAAAAAAAGGAUUAAAAAAAGAAAAAAAAAAAAUGUAAAAAAAAAAAAAAAGCUCCAAAAAAAGGAUCAAAAAAGGUUAAAAA'
p300
aF0.900523560209424
aa.