(lp0
(lp1
S'Simple Hairpin'
p2
aS'GAUACAAAAAAGUAUC'
p3
aF1.0
aa(lp4
S'Arabidopsis Thaliana 6 RNA - Difficulty Level 0'
p5
aS'GCGAUGCAAAAGUCGAAAAAAAAAAGACGUAUAAUCGAGAUAUUAUAAUACCAGUACAAAGAUACAAAAAGGUAUUAGUACUGAGUAUUAUAAUAUCGAGAUUAUACAAGCAUCGC'
p6
aF1.0
aa(lp7
S'Prion Pseudoknot - Difficulty Level 0'
p8
aS'GUACAGAGAUAGAAAUAUCCUGAUACAAAAAAAAAA'
p9
aF1.0
aa(lp10
S'Human Integrated Adenovirus - Difficulty Level 0'
p11
aS'CAGUUUAGUAGUGGAGCAUAGAAAAAAAAAAACAUCGUGGCCUUCGGGGAUGGACUGAAAAGCGCUGAGUGGUUUAAAAAAUAACUACUCAGAAAACGCCAGUCAAGGUAUAAGAAAAGUUAUUAAACAUGCUAAAAAUGCAUGUGAUGGAAAAAAAAAAGUUAUGCGCCAUAAAAUAUUAGAAAGCUGAAA'
p12
aF0.9791666666666666
aa(lp13
S'The Gammaretrovirus Signal - Difficulty Level 0'
p14
aS'AAGAGGGGCAUAGAAAACUGUGCUACGCAAAAAAGUUCAAGACAGGUUCAGUGAAAACAUUGCAAAAAUCGUCGAGCAGCCGAUGUCAAAGGAUAUCGGAA'
p15
aF1.0
aa(lp16
S'Saccharomyces Cerevisiae - Difficulty Level 0'
p17
aS'UCUAGACCUAGGAAAAAAACUAGAGUGUAAUAUAUAUAUAAAUAAAAGAUACAAAAAAAGUAUCGUCUAGAAAAAUUAAUGCAAGAUCAAAAAAAGGAUCGGCUAAAAAAAAAAAUGCCAAAGGAUACAAAAAAAGUAUCGUAUUAAAAAAGCUAUGCAAGAUCUAAAAAAUGAUCGCGUAGGAAAAAACUACGCUAAGGAUUCAAAAAAGGAGUCGCAUAGCGAAUUCGAUGCAAGCACUAAAAAAUGUGCGCAGAUAAAAAAAGUUUGCUAAGGUUAAAAAAAAAUUAGCGCAUCGAUAAGCCGGUGUAAUCUCAAAAAAAGGAGAGUAUAGAAAAAAACUAUACAAAAGACAGGAAAAAAUUGUCACACCGGAAAA'
p18
aF0.9894459102902374
aa(lp19
S'Fractal 2'
p20
aS'AAAAAGCGAUGUCAAAAUUAAUUAUAAAGAUUAAAAAAAAAAGAUCAAGGGCAAAAAAAAAAGCCCAGCAUCAAAAAAAAAGGAUGAAUAUAAUUAGUAAACAUACUAGUCAAGAGUAAAAAAAAAAACUCAACAGCAAAAAAAAAAGCUGAAGAUCAAAAAAAAACGAUCAAGACUAGUAUGAAAGAUACUAGUCAAGAGCAAAAAAAAAAGCUCAAGAACAAAAAAAAAAGUUCAAGAUCUAAAAAAAAUGAUCAAGACUAGUAUCGAAGAUAUCGCGAAAA'
p21
aF1.0
aa(lp22
S'G-C Placement'
p23
aS'AUGGAAGCCAUA'
p24
aF1.0
aa(lp25
S'The Sun'
p26
aS'GCUAGCACAGAAAAACUGAAUGUAGUAAGUGCAGCACCACGAUGCAGAAAGCCAGAAACUCAGCAUGUCGAAGGCGAAUGCGAGAAACCCCGCACGAGAAGUGCGACUGCUUGGAAAUGACCGCUGGAAGCCGGAACGGAAUAAACAGGGGACAGCUUUGAUGAAUUCUUGGAAUAUAACACCAGAAGGAGGAAUGCCUAUAAACCAGCCCACAAAACGGGAAGGUGAGGCACUCAGCGCUCCUAUGGAGAACCCGAG'
p27
aF0.8488372093023255
aa(lp28
S'Frog Foot'
p29
aS'AAAAAAAAAAGUCGGAAACGAUCUAGUUAUCUAGCUCCGAAGGAG'
p30
aF1.0
aa(lp31
S'InfoRNA test 16'
p32
aS'GCAUAGGGCAGGUGCGAAAGCACCAUGACGCUAUGC'
p33
aF1.0
aa(lp34
S'Mat - Martian 2'
p35
aS'GAUCGAAAGAUCAAAGCGAUGCAAGCGAUGCUAAAAAUGCAUCGCGCAUCGCAAAGCAGUGGCAAAAAAGCGAUGCAGCGAUGCAAAAAAAGCAUCGCGCAUCGCAAAGAUAUUACAUGUUCAAAAAAAGAGCGUGAUAAUAUCAAAAAAGCCACUGCAAAGAAAUAACAUGUUAAAAAAAAUAAUAUGAAUUAUUUCAAACUUGAAAACGAG'
p36
aF1.0
aa(lp37
S'square'
p38
aS'GCGAUGCGAGUUCGAGUUGCGAUGUCAAAGACAUCAAAAGCAGCUCAAAAGAACUCAAAAGCAUCGC'
p39
aF1.0
aa(lp40
S'Six legd turtle 2'
p41
aS'AAAAAGCAAAGUGAAAGCAAAUCGAAAGGAAAACGAAAGUGAAUCGAAAGAAAAGGGAAACCAAACUGAAAAGAAAGCAAAAAAAAAAAAAAAAAAAA'
p42
aF1.0
aa(lp43
S'Small and Easy 6'
p44
aS'UACCGAAAAACGAACCGAAAAAAAAAGGGG'
p45
aF0.9333333333333333
aa(lp46
S'Fractile'
p47
aS'AAAAAAAAAAAACUGAAAGGAAAGCAAAGCAAAAGCAAGGAAAGAAAAAUCGAACCAAGGAAAACCAAAGCAACUGAAAGGAAAAAAAAAAAAAAAAAAAAAAAA'
p48
aF1.0
aa(lp49
S'Six legd Turtle'
p50
aS'AAAAGGAAAAGGAGAAAAUAAAAAUAAAUUGGAAUUCCAAAGAUAAACUGAAAAGAAAAUCGAAUAGGAAAAUUAAUGUAACAUAGGAAAAAAAAAAAAAAAAAA'
p51
aF0.9238095238095239
aa(lp52
S'snoRNA SNORD64'
p53
aS'GCAUAGAAUAAGUCAAAAGUCAAAGAUACAAAAAAAAAAAAAGUAUCAAAAGACAAGACAACUAUGC'
p54
aF1.0
aa(lp55
S'Chalk Outline'
p56
aS'AAAAAGAACAGUCGCUAAUGCAGACAAUGAGUCUAAUGACCAUAGGACCGAAAGCGAGUCCACGAUCGAAAGAUGCGGUUCAAAAAAAAAAAAAAAAAAAAAAA'
p57
aF1.0
aa(lp58
S'InfoRNA bulge test 9'
p59
aS'GGGAUUCAGUGCGAGCUCGGCAAAGGCUGAGCCCCGAAUCCC'
p60
aF1.0
aa(lp61
S'Tilted Russian Cross'
p62
aS'AAAAGGGUCGUUCGAAAGGACCAUCAUACCGAAAGGUAGUUUCGAAAGGAGCAGCGCUAAUGCGUGAUGCAGCGAAAGUUGGACCAAAAAAAAAAAAAAAAAAAA'
p63
aF1.0
aa(lp64
S'This is ACTUALLY Small And Easy 6'
p65
aS'AAAAAAAAAAAAAAAAAAAAAAAAAAAAAAAAAAAAAAAAAAAAAAAAAAAAAAAAAAAAAAAAAAAAAAAAAAAAAAAAAAAAAAAAAAAAAAAAAAAAAAAAAAAAAAAAAAAAAAAAAAAAAAAAAAAAAAAAAAAAAAAAAAAAAAAAAAAAAAAAAAAAAAAAAAAAAAAAAAAAAAAAAAAAAAAAAAAAAAAAAAAAAAAAAAAAAAAAAAAAAAAAAAAAAAAAAAAAAAAAAAAAAAAAAAAAAAAAAAAAAAAAAAAAAAAAAAAAAAAAAAAAAAAAAAAAAAAAAAAAAAAAAAAAAAAAAAAAAAAAAAAAAAAAAAAAAAAAAAAAAAAAAAAAAAAAAAAAAAAAAAAAAAAAAAAAAAAAAAAAAAAAAAAAAAAAAAAAAAAA'
p66
aF1.0
aa(lp67
S'Shortie 4'
p68
aS'GGAAAGCCACCGAAAGG'
p69
aF1.0
aa(lp70
S'Shape Test'
p71
aS'AAAAACGGAUCAAGAUACAAAAAAAAGUAUCAAGUCAUAGAGAUACAAAAAGUAUCAGUAUGAAAGUACACUAGACAAGAUCGGAAAAAAAAAAAAAAAAAAAA'
p72
aF1.0
aa(lp73
S'The Minitsry'
p74
aS'GGAGAAAAGGCAAAAAGUUAAAAAGUCAAAAAGUCAAAAAAAAGACGGACAAACAGCCAUCC'
p75
aF1.0
aa(lp76
S'stickshift'
p77
aS'AAGCGAUGCGAAAAACGACAUCGCAA'
p78
aF1.0
aa(lp79
S'U'
p80
aS'AAAAAGAUACAGAGAGGAGAGCGAUGUUGAAAACAACAUCGCCCCCCGUAUCAAAAA'
p81
aF1.0
aa(lp82
S'Still Life (Sunflower In A Vase)'
p83
aS'AAUGAUCUACUACAAAAAAAGAGGAAGAUUUAAAGAAUCAGCUAUUGAAAAAGUAGAACUAGCAAAGCUAGAACUUGAAAAAAUAUUUAAUUAGCAAAAAACCAGUGUUAUUAUAAGAUUUUAUUAUGCGAUACAAAAAGGUAUCAGUUCGAAAAAAAAAAAAAGAGCCCCCCCCCCCCCCCCCCCCCCCCCCCCCCCCCCCCCCAAAAGCUCAAAAAAAAAAAAACGAGCGAAUCUAAUGAUUCAGUAUAGUAGAAUCUUAUAAUAACUAGAUUCAAAAAGAAUCAACUAGGGAAAAUCUAGCUGUAGUGAAAAGCUACUACUCCUAAAAGACGAGGAAUAGCAAAGGCAAUAACGAGCAAAAAGCUCGGGAUCUAA'
p84
aF0.9470899470899471
aa(lp85
S'Quasispecies 2-2 Loop Challenge'
p86
aS'AAAAGCAGCGCUUACGUUGGAUAUAACCCAAGCGAGCUAUAUAAUUGGUCAAGUGCCGUUUGUCAAAAGGACUCAAAGUGCGUGGAAAAAAAAAAAAAAAAAAAA'
p87
aF0.9809523809523809
aa(lp88
S'Corner bulge training'
p89
aS'AGCAUAGGAUACAAAGUAUCAAAACUAUGCA'
p90
aF1.0
aa(lp91
S'Spiral'
p92
aS'AAAAAGAUCAGCAUAGAGUCAGAUACAGAUCAGAUCAGGAGGAGGAGGAGGAGGAAAAACCCCCCCCCCCCGAUCGAUCGUAUCGACCUAUGCGAUCAAAAA'
p93
aF1.0
aa(lp94
S'InfoRNA bulge test'
p95
aS'AAAAAAAAAAAAAAAAAAAAAAAAAAAAUGUAGAAAAAAGCUCGAAAAAGGGACCACUUAUGCUAGAAUAAAAAAGAUAGACAUCGAAGAUGAAACUAUUAAAAAAUAGCGAAAAGGCUACU'
p96
aF0.9836065573770492
aa(lp97
S'Worm 1'
p98
aS'AAAAAAAAAGGAGAAGAGGCACUAAAAAUGGGAUAACAGAUACGU'
p99
aF0.9555555555555556
aa(lp100
S'just down to 1 bulge'
p101
aS'AAAAAGACUAAGGUCGAAAGGCCUAGUCGAAAGACAAGAUCAAAAGGCCAGUCGAAAGACGGUCGAAAGACAGGUCAAAAAAAAAAAAAAAAAAAA'
p102
aF1.0
aa(lp103
S'Iron Cross'
p104
aS'ACUCAGUGAAACGGGGUGAAACGCAGUCGAAAGACACCGAAACGGAGUCGAAAGACAGUCAAAGACACCGAAACGCAGUCGAAAGACAGUCAAAGACAGCGAAACACAGUCAAAGACAGAGGA'
p105
aF1.0
aa(lp106
S'loops and stems'
p107
aS'AAAAAGCGAUGCAAAGAUAAAAGAUCAAAGAUCAAAAAAAAAGAUACAAAAAAAAAAAAGUAUCGAAGAUCAAAAGAAUAAAAAAAAAAGUUCGAAGAUCAAAGUCAAAAAAAAGACAAAUAUCAAGGAAAAAACCGAAGCAUCGCAAAAA'
p108
aF1.0
aa(lp109
S'Water Strider'
p110
aS'AAAAAAAACGUUUAGUCAUUGGAAACAAGAUCAAAAACGGCGGAAACACCUCAAAGGAGGUUGAAAAACAUUGAAUUUGGUUAAAAAAAAAAAAAAAAAAAAA'
p111
aF0.9611650485436893
aa(lp112
S'The Turtle(s) Move(s)'
p113
aS'AAAGGAAAACCGAAGGGAAAAUUGAAAAAAAAGUAGUUUUCUACAAGAUUAAAAAAAUCAAAAACGCGAAAGUGGAAUUAGUAAAAAAAACUGAAAAACUCAAAGCAAAAGCAAAAAUUCGAAAGAAAAAUUUAGAGAAAAAAACUCUAAUAAACCCAAAGGGGGAAAACUAGAUAAAGGUCAAAAAAGGACAACUCAAAAAAAAGAGGAACUAGUAAAAAAACUAGGAACUAUUAAAUAUAGAAGUCUAGAAAAAAAAAGCUAAUGCAAAAUUGUAAUCAUAAAAAGAUACAAAAAAAAAGGUAUCAAAAAGGAG'
p114
aF0.9873417721518988
aa(lp115
S'Adenine'
p116
aS'GAUACAGCAUAGAGCAUAGAGCAUAGAGCAUAAAGCAUAGAAAAGCAUAGAAAAAACUAUGCACUAUGCAGAUACAAAGCGAUGCAAAGCAUCGCGUAUCAUUAUGCAGAUACCAGUAUCAAAGAUACUGAAAGUAUCACUAUGCAAAACUAUGCAAAACUAUGCAAAAGUAUC'
p117
aF1.0
aa(lp118
S'Tripod5'
p119
aS'ACAGCCCUGGAAAAGCCAGGAUCUAAAUGAUCGGCUAA'
p120
aF1.0
aa(lp121
S'Shortie 6'
p122
aS'GCAAAGGCACCGAAAGGGGCGAAAGCAGGGAAACU'
p123
aF1.0
aa(lp124
S'Runner'
p125
aS'AAAAAGACCAGGGCGUAAAAAUGAAACAUUAGUCCGAAGGUAAUCCCGCGAAACGAAAGGGGAAAGCAAGACUAAAUUCAGAUAAAUUCAAACUCGAAAGGUAGAUAGGUCAAAAA'
p126
aF0.9482758620689655
aa(lp127
S'Recoil'
p128
aS'AAAAAGAUACAAGGAAGGAAGUCAAGUCAAGGAAGCAAAGCACCAGACAGACACCACCAGUAUCAAAAAAAAAAAAAAAAAAAAA'
p129
aF1.0
aa(lp130
S'[CloudBeta] An Arm and a Leg 1.0'
p131
aS'AAAAAGUCAGACCCGAAAGGAGUCGUCAGGAAAACCGACAGACAAAAAAAAAAAAAAAAAAAA'
p132
aF1.0
aa(lp133
S'[CloudBeta] 5 Adjacent Stack Multi-Branch Loop'
p134
aS'UAGGGGCUCGAAAGAGUUGAUCGAAAGAUUAGAGAUUAAUAUCUUGGAGUUAUCUCCCCCUAA'
p135
aF1.0
aa(lp136
S'Triple Y'
p137
aS'AAAAAGUGGCUGGGGUCGAAAGAUCGAACGAAAGUUCCCAGGGUGUAUGGAAACAUAAUUCGAAAGAGUCGCCCCGCAAAAAAAAAAAAAAAAAAAA'
p138
aF1.0
aa(lp139
S'Misfolded Aptamer'
p140
aS'GCUCAAAAAUGGCUCAAGGAGAGGAAAACCAAAAAAAAACCUAAAGGAGC'
p141
aF1.0
aa(lp142
S'Flower power'
p143
aS'AAAAAAAUGCUACAGCGUACUGAUAUGUCAAAGAUGAAGGUAAAGUACUAACUAGAGAUUAUUAACGGAAUAAAAUGUCAUUAAAAAAAAAAAAAAAAAAAA'
p144
aF0.9215686274509803
aa(lp145
S'Kudzu'
p146
aS'AAAAGGUGGCAGGAGUCCGAGUCUACGAAAACAGAGUUAGCGCGGUCUCUCACGCAUGUCAAGGACUAAGUCUCAAGGUACAAAAAAAAAAAAAAAAAAAA'
p147
aF0.9603960396039604
aa(lp148
S'"1,2,3and4bulges"'
p149
aS'AAAAAGCCUACAUAAGAAAUUGAAACUGGCAAUAAUUUGAGGAGCGAAAUGGUGGCUGAAAGAAAGCAGGAGAAAAUCGGAAACAGAAAAAAAAAAAAAAAAAAA'
p150
aF0.9428571428571428
aa(lp151
S'medallion'
p152
aS'GCACCCAGUAGAGAAAUCUCUAUGAACGAAAGUUAGUCGAAAGACGGUUUAGGAAACUAAAUAGUUAAAGAACAGUUCGGAAAACUGAACAGUCGAAAGACAGUCGAAAGACGGCAUAGAAAACUAUGCAGUCGAAAGACGGCAGGGAAAACCCUGCAUUCUAAUGAGGGUCGAAAGACAGGAGAGUAAUUUCUCCAGAGGAAACUCAACCCCCAAAAGGGGGGAGUGGAAACACGGUGUAAGCACACUCUAGAAAACUAGGGAGACUAAGGUCACGUCAGAAAGCUGACGGGUCGAAAGACAGUCGAAAGACAGUAUAGAAAACUAUACGCGUUGC'
p153
aF0.9762611275964391
aa(lp154
S'[RNA] Repetitious Sequences 8/10'
p155
aS'AGGAAAAAAGGAAAAAACCAAAAAAGCAAAAAAGUAAAAAAACAAAAAAGCAAAAAAGCAAAAAAGCAAAAAACCAAAAA'
p156
aF1.0
aa(lp157
S'Documenting repetitious behavior'
p158
aS'AAAAAAUGCAUAAUUAAGAGAAAGCUCAUGGUACAUGAAACGAAAUCCAAAGUAAAUCCAAGAGAUAUAUAAAGCACGUUCAAUGUAAAUUUAACGUGAAAAAAAAGGGAAAAAUCGGAAAAAACAAUCGGACAAUAUAGGAAAAAAUUUGGGAAAACGGAGAAAAAGAUUAGGGAAAAAGUAGUAAAAAAUUAUCAAAAAAAAAGGGACAUUAAGGCGCAUUGAAAUCGACUAUAAGACGCACUUAAACCGAACUGAAGCCGAACUUAAACGACGAUUAAAUCACACUAAAACCAAAAAAAAAGCAAAAAUUUUACUAAAAAACGGCAAAAAAUCGCUAAACAAUUUGCGAAACAUUUCGAAAGAAUCUCCUAAACAUUUUUAAAAAAUCUGCUAAAAA'
p159
aF0.895
aa(lp160
S'7 multiloop'
p161
aS'GGCCGCAGGUAAUUCUGCCUACCUAAUGGUAGCUAGUGAAAGCUAGCCGGUGAAAGCUGGGCGCAAAAGUGCGCGGGACAAAGGUCCCGGCC'
p162
aF1.0
aa(lp163
S'Kyurem 7'
p164
aS'AAAAUGUGAUCUUGCUAAAGUCUAUAAAAUACUCGAUACAAGAUUAGGGCUUAAAAAGGGGAAAACCCGUGUUCGAGAUUGCUAAAAAAAAAAAAAAAAAAA'
p165
aF0.9215686274509803
aa(lp166
S'JF1'
p167
aS'GAUACUACAUGACUAGCAAGAUACAAAAGCAUAGAAGAUACAAAGAAUCAAGACACGACAUAAUAAUAUAACGAAAGUUAUAUUAUUAUGAAGUCGAAAGACACUAGACUCUGAAAAGAGUCUAGAACUAGUGAAAGCUAGACGUGUCAGAUUCAGUAUCACUAUGCAAAGCGAAGUCAAAAAGACAUUCGCAAGAUAUUAUAACAUGUUAUGUUAUCGAAAGAUAGCAUAACAUGAUUAUAAUAUCAAAGAUACAAAAAAGUAUCGAUAAUAAUAAAAAUAUUAUUAUCUGACUAAAAAAUUAGAAGUAUCAAGCUAGAGAUCAGUCAGUCGAAAGACGACGAUCAGCGACUCGUGAAAGCGAGAUCGCACAUGAUAGAUAUCAAA'
p168
aF1.0
aa(lp169
S'multilooping fun'
p170
aS'AUGCAGGUAAAAGUUGGAAAUAUAUGUGAAAACCGU'
p171
aF0.8888888888888888
aa(lp172
S'Multiloop...'
p173
aS'GUCGAGAUCAGUCGAAAGACAGUCGAAAGACAGUCGAAAGACAGUCAAAGGACGGUCGAAAGACAGUCGAAAGACAGAUCAGAUCCAAAAAAGGAUCGUCGAAAGACCGAC'
p174
aF1.0
aa(lp175
S'hard Y'
p176
aS'AAAAGAAACCAAACGACGUCUAAUGGCGUCGAUAGAGUACAAAUCAAAGGAUUUGUACUGAGGAAAAA'
p177
aF0.9705882352941176
aa(lp178
S'Mat - Elements & Sections'
p179
aS'AAAAAGCCGGGAACAUGAGAAUUUCCUAGGAAAUCCGGGGUUGAAAAAGAUACGGUUGAGAAGACACUUGUUUAUCUAAUAUGGUAAAAAAAAAAAAAAAAAAAA'
p180
aF0.9619047619047619
aa(lp181
S'Chicken feet'
p182
aS'AAAAGGGAACAGUAAAACACGUAUUAGAACUCAACGAGGAGGAAACCAUGAAACAAAACCAGAAAAA'
p183
aF0.9701492537313433
aa(lp184
S'Bug 18'
p185
aS'AGGAUGAGUUGAAGGCAUGUGCGAAGAAAUGCGCAACCGUACGAUGAAAAGCG'
p186
aF0.9622641509433962
aa(lp187
S'Fractal star x5'
p188
aS'AAAAGUGCUGCCCGGGAUCUAAUGAUUAACGUGAAAGCAUGAGCUAGGAAACUAGAACGAAAAAGUUCGGAGGGCGGUAAAAAGGUUGGCUGAAUAUCGAAAGAUAAACGAGAAAGCUUGAUCUACAAAGGUAGUACAACUAAUGUUGGACAGCCGAUAAAAACGAGGCAGUACAUCGAAAGAUGGCCGUGGAAACACGAAGACCUAAUGGUUGCGUCAGAAAUGGCAUCUGUCUUGAAAAUCCACGCGCAUUAACUAAUGUUAUGGGUGGAAACGCUAACGCCGAAAGGUGGAUGGGAAAACCCAGAGUGUGUGGUAAAUCUUGAUCCGAAUUAGAAAUAAUAUUUAAGAAAUUAAUUCUACUAAUGUAGUAGUAGGAAACUAUGAGGAUCAAGUAAAA'
p189
aF1.0
aa(lp190
S'Crop circle 2'
p191
aS'GUUAAGGGAAGACAAAAAGGGAAAAAAAUGGUAAAAAAAAAAAAAAAAAAAAAAAAAAAAUCUUAAAAAAAAAAAAAAGCAAAAAAAAAGUAAAAAAACUGAAUAUAAAA'
p192
aF0.9636363636363636
aa(lp193
S'Branching Loop'
p194
aS'AGAUAGCAGAAAAUCUUAGAAAGCGUAAAUAUCGACAAAA'
p195
aF0.95
aa(lp196
S'Bug 38'
p197
aS'UCGUUAAGAAUAAGCAAAGAUUUUUUGGAUAAGAGU'
p198
aF0.9444444444444444
aa(lp199
S'Simple Single Bond'
p200
aS'AAAACAGAAAAAAAAUGAUCGAAAAGGUUUAAAAAAAGCGAAAAAAAAAAAAAAAAAAAAA'
p201
aF1.0
aa(lp202
S'Taraxacum officinale'
p203
aS'GACCGAAAGAGUCACUACGAAAGAUAGACUACGAAAGAUAGACUACGAAAGAUAGACUACGAAAGAUAGACUACGAAAGAUAGACAUGUUGUUACGAUACUACAUGAAACAUGAUAGUAUCAGAUACAAGAUACUAGUCAAGAUACUCAAAGAGUAUCAGACUAGUAUCGAUCAGCAUAGAAACUAUGCGAUCGUAUCAAAGUGACAGCAUGAGACCGAAAGAGUCACUACGAAAGAUAGACUACGAAAGAUAGACUACGAAAGAUAGACUACGAAAGAUAG'
p204
aF1.0
aa(lp205
S'Headless Bug on Windshield'
p206
aS'AUGAAGGAAAUGAGGCGAAUUAGUGAAAAAAAAAAAAAAAAAAAAAAAAAUACGGAAAAGCCAUCUAAACAACAGUGAAGCUAACGUAAAAAAUUGAAAAAGAAAUAUUGGACAAAAAGGCCAUAGUCAAAAAAUGUAAUGAGACUCGAGGAUUCAUAUAUAUAUCUAAAGAACACCGAGAGCAUCUAACAAGGAAUCAA'
p207
aF0.915
aa(lp208
S'Pokeball'
p209
aS'AAUACGAUGCAAAAUGAAGUAAUAAAAGAGAUGAAGAAACAUUGUAAGGAAGUCAGCAUUGAUCACAUAUCAUUGAACACCGUAUCCCUAAAAAAAGAGAUCCAAAAGGUAGAGAGUGAGUGGUGGAGCAAGUGAUUGAGUGUAUUAACGAAUCAUGAACAACGACGCAUCUCCGCAUCGUAAA'
p210
aF0.8586956521739131
aa(lp211
S'Variation of a crop circle'
p212
aS'AAAAUUAAAUUUGAAAUUAAAAGGCAUGAAGGAAGCGCGCAGAAUCCGAAAAGAUAAAAAAAAGUAAAAAAAGAGUAAAAAAAAAAAA'
p213
aF0.9318181818181818
aa(lp214
S'Loop next to a Multiloop'
p215
aS'AAGCGAUGUUUAAAUAGCGGACGAGUAAUCUUGUCAGCUAUGCUAAUGCAUGGCAGAAAAAAUGAUAUCGCGA'
p216
aF1.0
aa(lp217
S'Snowflake 4'
p218
aS'GGUCAAUGAUUCUGGCACAAAGGACGCGUGAGAUACCAAAAAUGUGGGAUAUCAAAGAUGAACUCUGAAAGAGUUCCCCGUAAUGGGUGUCGUAUUACCUGAAAGGCUAUUGGUUAAAGACCAACUAGAAACUAGAAUAGCUGAAAGGGUAAUUAGAGACAUGAAAGUCUAUUUACCGAAAGGAAAUGUGAAACGCAGGUAGACGAAGGGGUCUCCACAAAUUGGAAAGCCUGUAGGCGUAUCGCUAAACAGAAGCUGUUACAGAUGACAAAAUUUGAUGAAUUGCAAAGGCUUUUCUAAAGCAUACGAACCCCAAGGGGAAAAACCAGAAAUGGGUUAUACCUAGGGGAAACCGACGACUGGAAACUUG'
p219
aF0.8405405405405405
aa(lp220
S'Mat - Cuboid'
p221
aS'CAAGUAAAAGUAAGGAAAAGGAAGAAAAAGAAGUAAGGAAAAUGAAGUAGUGAAAAGAAGCGAUGAGGUAAACCGGGGUAGACAAGGAAAAGCAGGAAAGGAGGGACUGAAAAGGGACACUGGCUUGUGGGAAAAGGGAGCUAAGGUGGGUCGAGUGAAAAGCCUAGAGGAUUGACGGGGUGGAAAACGUGCGUUGAAAGUAAGGUUCGGAAAAACGCUCCGGACGGUCUUCGAACGCCUGCCACUUUAUCACCUAUGCCAAGCGUGCCAACUGAGCCAGCCCAUCAUACUAAUCGACCCAGACCAACCGAUCAGGCCCGAGCAAACGACGACAACCUAGAGACCAAAACAACGACGAACUACUCGACCCCUAACACUAG'
p222
aF0.9210526315789473
aa(lp223
S'Misfolded Aptamer 6'
p224
aS'AAAAACCUCUAAAAAGAUCAGCUGAGCUCAAAAAAAAGAGAAAUGAAAAGGAUUAAAAAAUGAGAAAAAAAAAAA'
p225
aF1.0
aa(lp226
S'Snowflake 3'
p227
aS'GGCCGGAAACGUGACUUCGAAAGAGAGCAGAGGAUCAAAUCGAAAGAAGUAAGGAAAAACGGCAAAGCCGGAAAAUUAUUCGUCGAAAGACAAGGUCGGAGUAAGUUGAAAGAUAUAAGGAAAACGGGCAAAGCCGAAAAACCAUAUGUCGAAAGACAAGUUCGCAGUAAGGUAAGGGUCGUAAGGAAAACCGCCCAUGGCGGAAAACCAUACGGUGAAAGCCAAGAUCGGUUCAAGUGGAAACACGGAAGGAAAACCGUCAAAGACGGAAAAACAUCCGUCGAAAGACAAGGGCGGAUCAAGUGGAAAUACGUAAGGAAAACCGUCAAUGACGCAAAAGCAUACCUUGAAAGAGAAGAUCAGCUGAAGAUGAAAGUCGCCUGCAAAACAGCA'
p228
aF0.8244274809160306
aa(lp229
S'Hard Y and a bit more'
p230
aS'AAAAAGAGACUGAUUUUUGAAAGGAACACGAAUCCGGGAUGAUUGAAAAAUCUUUAUACAAAAAAGUAUGUACCAGGAUUGUUUCAAAAAAAAAAAAAAAAAAAAA'
p231
aF0.9716981132075472
aa(lp232
S'Mat - Lot 2-2 B'
p233
aS'GAACGUCUGCACUGGGAAAAGAGUGUGUAAAGAUAAAACCAAUCCCAAGUAAAAGCUAACAGAUGGAAGGAUGUGGUCGGAAAAGGCUGACUAAGGAAAAUGUAAUCCCCGGAGAAAAUCUACCCCGACCCGUUGAAAGUAAAAAAGGUUGAAUGUGGAAAAGGAUGACGGAAAUGAAAAUCUGCCCCUAAUAAAAUCUAUCUCAAUGAGCAGUCACGUUGGAAAACGUAGACUUUAUAAAAGUAAAAGCAUAAAGAAAAUCCACGCCAACGCCUACAAACUAC'
p234
aF0.8098591549295775
aa(lp235
S'Shapes and Energy'
p236
aS'AAAAAGCGAGGCACAAGAAAAGAAGGAGUAGUGAUCGAUUGAAGGCAUGGAUGAAAAAAGAGUGAAAGCUUCGAGCUUGGAAAAAAAAAAAAAAAAAAAAA'
p237
aF0.9603960396039604
aa(lp238
S"Spiral of 5's"
p239
aS'UGAAAGAUACAAAGAGAAGAAGAUAAGAAAGAUACAAAGGUAAAAAGUUAAUAGAUACAAAAGAUAGGAAAUUAAAAAGUUAAGAGAGACAAAGAUAAAAAGAAAAAAGAUACAAAGAGAAAAGAUUUAAGAAACAAGAUCAAAGAUAUACUCACAUUGGUGUGACAAAAAGUCGCAGAAGGCCGGAAUAAGUGAGAAAAAAUAUCAAAAAUGAUCAAAAAGUUUCAAAAAGUAUGAAAAGUUUUCUAAAAGUAUCAAAAAUUACCGAAAAUUAUGGCAAAGUUUCAAAAAUUAACAAAAAUUAGUAAAAAUUAUCAAAAAGUAUCGAAAUUUAACGAAAAUUACCGAAAAGUGUUAAAAAUUAUCAAAAAUUCUCGAAAAGUAUCAAAAAGAAAAA'
p240
aF0.9949622166246851
aa(lp241
S'Campfire'
p242
aS'AAAAGACCACUUGUCAAGUUGAAGGUAAAAAGUACUGGUCGCAAGGCGACAUUAACGCACUGAGGAUGAGACCCUAAUGGAGUCCACUGACCCAAGACAACGUAAACGUGUUGACAACGCGAAAGUAGUAGUCAGGGAGGCCAUAUGCGACAGAGGUGUCAGAGAGUCCGAAAGGACCUCGACAACGUCCCUAUGGGAACAGUCUGAAGGUC'
p243
aF0.9339622641509434
aa(lp244
S'Anemone'
p245
aS'AAUGCAUAGAAAGCUAUGCGGGUCGAAAGGCCCGGUUGCUAAUGCGGCCGACGCAAAGGCGUCGAACUUGAAAGAGUUCGCUACGAAAGUAGCCCUAGAAAGCUAGGGGAGGGGAAACUCUUCAGUUCGGAAACGAGCGCUUAAAAAUUUAAGCGACAGGAAACUGUCCGGGUAGAAAUGCCUGGAUCCAAAGGGGUCGUCUAAAAAAUUAGAC'
p246
aF1.0
aa(lp247
S'Fractal 3'
p248
aS'AAAAAAAUCUCUUAGGAAAAUCGAGAAAUCAAGGAGUAAGGAAAGCCUCGAAAGAAGGUAGUUAUCAAAGCAGGAAAGCCAAAUAGGCAGUAAAAGCUGGAAACAAGACUGAUUAAAAA'
p249
aF0.8991596638655462
aa(lp250
S'Kyurem 5'
p251
aS'AAAAAGGGUCACGACAUAGGGCUUCAUAAAAUCGAAGAAACUGAAAAGCGGCAUUUUGAAAAAACAGAGGAGCAAGUGAAACUCGAAAAAAAAAAAAAAAAAAA'
p252
aF0.9326923076923077
aa(lp253
S'Snowflake Necklace ( or v2.0 )'
p254
aS'GAUAUUAUAAUAUUAACAUAGGGGAAAAGCCGGGAAAAACAAGGAAAAGCUAGGAAAAGCCACUAAAAAAGAUUAUGAGCCAAAAAGGCAGAUUCAUGAAAAACCAGGAAAAACCACUAAAAAACAGGAAAAACCAGUAAAAACCAGUAUCAGUCAAAAAGACAGGGACACGAAAAGCCAGCAAAAAGCAGGAAAAACUACGAAAAAUGAAGAAAAACCAGUCCUAGACAAAAAGUCAGAACCGGGAAAAACCAGGAAAAACCAAUGAAAAAAAGUAAAAAACGGGAAAAACCGGGUUCAGUGAAAAAUACGGAUGCAGCAAAAACCGCUUAAAUAGAGUUAAAUGCAGCAAAAAGCGCCAAAAGGGAGCAUCAUGAUAUUAUAAUAUC'
p255
aF0.8817480719794345
aa(lp256
S'Methaqualone C16H14N2O Structural Representation'
p257
aS'AUAUAAAAAUUUGAUCAGCCAAUCGAAAGAUGAUGACUCGAAAGAGAUUCAGUUGAAAAACAGUCACUUGAAAGAGACUCAAAAAAAGAGAGACGGAGACGUAGGCAGAAACAUAUCAGAUCAAAGAAGUAAAAUGAAACCAAAAAAAAGGCACUCAGUCGAAAGACGGCGAAAGUCGGCGAAAGCCACCAUCAAAGGUCAUAAAGAAGCUAUAACUCAGUAAGUCAAAAGUCGAAAGACACACACUCGAAAGAGACACGGUCGAAAGACCGAGAGGCGAAAGCCAUAUCGUUGUAGAAAUACUCCGAAAGGGACUCGAAAGAGCACUGUGAGACCAAAGAUCUAAUUAUAUAAA'
p258
aF0.9549295774647887
aa(lp259
S"Cat's Toy 2"
p260
aS'AAAAAUGCCGUGAAAGUGAAUUAAAAAAAAAAAAAAAAAUAGAGCUAAGAGAAAUCGAACCUAAUGGGAAAAACUGCGAAAAAUCCACGGUAUGAAA'
p261
aF0.9587628865979382
aa(lp262
S'Zigzag Semicircle'
p263
aS'AGAUAGUGGCAGAGAAUCGGAGAGACGUGUGAAA'
p264
aF0.9411764705882353
aa(lp265
S'Short String 4'
p266
aS'AAAAAUAUAAAAUAGAAGAAUAUGUAUGAAAACGACAAUCAUUACGGCGGUAAUCCCACGUAUUAACGCUAGUUGUUAAAAAAAAAAAAAAAAAAAA'
p267
aF0.9381443298969072
aa(lp268
S'Gladius'
p269
aS'CGAAAGAGGAACGCGAAGUAUACAAGAAAGUCGGAUAAAGAUGGAAAUAUCAGAUACAAAAGUCACGCGCUCAAGAUGCCAAGAGCUGUUUACGUUACGAUAUACAGAUUAUUUCAAGAUUAAAGAUCAGAGCGGAUCGUUAUGUAGUAGCUAAAGUAGCGACAGGUAGGCAGAGCCCCAGACAGGAGUAUCAAUCAAAGUCGCUAGUAGAGGAGAGAUUCUAGGGAUUUCUGUAGUUAUCGACGGAUCUGAAUCAGCAUGCAGUAAUCAUAGGAAACUAUGGAAUACGACAUGACGAUUAUGAUUCAGCGAUAACUCAUGAAAAGAAUAGGUUAACUCACAAACUAGAUAGCGAAAGUUAAAAGACGGACGAACGAGGAAUUAAUGAGAACAACGAAAG'
p270
aF0.9
aa(lp271
S'Thunderbolt'
p272
aS'AGAGUAUUCAAAAAAAACGUGACGCGGAAAAUGUAAUCUGCGUUGUUAAAAAAAAGACACAAAAUUAUAAAAAGUAAGAAAAAGUAAAGGCAGCAAAAAAACUUUAAAAAAGAUGAAGUGAGCAAAAACGAAAGGCCCUAAAAAAUCAAAAGCUACAAGUAUCGUUCAGAAAAGGUUAGGUCAAACGAAAAAAUACCAAUAAAGCAGUAUAAAAUAACCAGGAUUAAAAAAAAAGGGAAAAAGCAUAGAAACUAUGCGGCGAGCAGAAAAAAAAAGCAACCAAAAAAAAAUAUAUAAAAGCUAUAGAAAAGCAAAAAAAAGAAAAACUAUAGAAUUAGAAAGAUAACGUAAAAAAAACGGCAACAGGAAAAAGAAAAAAACAGAAUGAACUA'
p273
aF0.9489795918367347
aa(lp274
S'Mutated chicken feet'
p275
aS'AAAAAAAGGAUCUGGAAAUCUGCAAAGCUAUGCGCCGGAGCAGGGAAACAGGUAUGCGAAGUCCUUGACCACGAAACCGAGAAACUGAAGGCAUAGAAAA'
p276
aF0.86
aa(lp277
S'Chicken Tracks'
p278
aS'AAAAAAAACUAGACCCUACAAAGGUAGAAGAUCGAAAGAUCGAGAUCAAAGGAUCGGUCUAGAUGCGGGCCAAAGGCCAAGAUCAAGGAUCAAAGUCAAAGACUCGCUCAGAAAAA'
p279
aF1.0
aa(lp280
S'Looking Back Again'
p281
aS'GCAAAGUCCGGUAAAAAGCACAGAAACUGUGCGACCGAACUUCUCAAGUCAAAGACGGGAGAUACAAAGUUCGAAAGAGCGAAGGUAUCAAGAGAAGACAGGAUAGUGAAAAAGAUAAUAAUUUAUCAAAAAAGCCGAUCCAAAGCAAAGUUUUGGUACAAAGUAUCGCGUGGCGAUUUUUAAGUGAAGGGAUAUGGAAACAUGGGCAGAACAUACUUGGCCUAAUGGCAACACCGCGAAGUAUAUACCAGGUACACGGCAAAAAGUCUACGGAAAAAAAAUGUGAAAAACGCACCGUAAAGGCAGGAGGCUCAAAAAUGGUUCGAGAAAACUCUAAAAGUGCUAAAGGAUUAGUAAAACUAAAACACCCUAAAGAUCGCACCAAGUGC'
p282
aF0.8766066838046273
aa(lp283
S'Multilooping 6'
p284
aS'AUCGUAGUCGGCGGCGAAAGCCGCGAUAUUACUAUAACCCACUGGCGAUUAUUGACACCUCACGAAAGUGGGUGAUCACGUA'
p285
aF0.926829268292683
aa(lp286
S'Cesspool'
p287
aS'GAACAAUAAAAGAACAGAUUAGACUCUAUGAGAACAAGAACUGAAGUACAAAACAACAUAGGGAAACAGGAAAAAGAAAACAAUUACAACGUCAAGAAAACAACUGUGCACGGUCAAAGACAAGAAGGACAGAAAUUGAAAACAUUACUUCUAAUGAAGAAAAGGAAAACACGAGGAAGGUUCAAGAAAACAACCGUUCAGAAUAAAAGAUAACAAGCACAGAAGUUGAAAACAACAGAAUGAAAAGGCAAAAAUAAAAAACGAACCAAGGUUUAAAAAAAUGAAUGUUAAAAUUCAAAGAAAUCAAGAAUAGAAGGUGAAAACAAUAGCGGGAAAUAACAAAAAGAAAACACAAACC'
p288
aF0.8100558659217877
aa(lp289
S'Hoglafractal'
p290
aS'AGUUCGAAUUGGUAAAAGUCACUAAAAUGUGGCACCAAGAGUAAAAUAGUAAAUCUAUACUCGUAAACCCGAAAGGGGACAGACAAAGACCAAAGUUCAAAAAAGAACGAGCGUCAAGUCAAAAAAACGACGGAACGAAAGGCUAAAGUAAAAGUUGAGCCAAAAAAGGCAACACAUGAAAAACGGUACAUAAAUGCAGUAGCAAAAACGAGGAAAAAACCCGGUUUAAAUAACAGAAAACUAGCAACGAAAAAAGUCAAAAAGGACGGUAAAAUCCACUUGUACCAAGGGUAUAAAAAAAAGCGUUGCAAAAAAACUAGAAAAAGUUUAAAGGUCAAACGAACAAACGAGAGAGUAAAAGGAAAACCGGUAAUCCAACACGAAACGUGUUCGCUCCUAG'
p291
aF0.925
aa(lp292
S'Bullseye'
p293
aS'AAACUCCUAGUAACUAACAGAACAAAGCGCGAGGCCAAACUCCGAGAAAAAAAAGUAACUUAAAAUGCAAUUCCAAAGGGGUAGUCCAAGGAGAUGCAAAAAAAAGAGCUAGUAAUUAGAUGCGAAAGGGUCUACUUUAACGGUGCAGGCAAAAAACUCUGACAAAGACGAAGCUCAAGGCGCAAGCUCAAAGAGCGAGGAA'
p294
aF0.8267326732673267
aa(lp295
S'Shooting Star'
p296
aS'AACGCGGAUGCUAGGCUAAGCAGUAGCAGGCAGCUAACGAAAGAAGGACGAUAGAAGACCAAAGUCUAGAGAGACGUGAGUUGCGGUCAGCUAUAUUCAGCUCUACGAAAGACGAGACGAAAAUAGACGACAGAAGUCCAGGGGAAACAGUUUCGAGCCUUAGAAAUUAAGAUCAGGAAAGCUGAGGCGAAAAACAGCUCCCAUCAGAUCAGAGUAAAGCGCUGCAAAGCAGCGUACUAUUGAAAAUAUAUACGGUUAGCAAAGCUGGCCAGUAGUAAAACUACGGUCGUCCAACGAAAGCUUCAAGUUCGUAGUCAGCUCAGCGAAAGACGAGACGACAAGAGAACGGAAGGGACACGCGUUA'
p297
aF0.8681318681318682
aa(lp298
S'Teslagon'
p299
aS'AAAAAUGGAAAAUAAUGAGUAAAAAAGCGGGUAUAUAAAAAAUAUACGUAAAAAAAUGCGAUAGAUAUAUAAAAACGUUGAAAAUAAGCGGGAAAAAAAGGGCAUAUGAACAUAAAUGAAAAGAAUUAGGAAAAAAACGGCGAUAUAUAAUAUUUAGACAAAAAAAUGUUAUACAUAUAUAUAAAAGAUUAAAAUAACCAGUAAAAAAUCUAUAAGUAAAUAUAAAGGAAAAUAAACGACUAAAAAACUAGCGCAUAUAAUAGAUAAGCUAAAAAAUAAUGUAUUUAUGAAUUAAAUGGGAAAAUAUGUAUGAAAACGACGAAAAAAAAAAAACUAUAUGUAAAAAUAAAGGGCGGAAAUAUCAAUGAAAAAAAUCUGAAAA'
p300
aF0.7617801047120419
aa.