(lp0
(lp1
S'Simple Hairpin'
p2
aS'GAUACAAAAAAGUAUC'
p3
aF1.0
aa(lp4
S'Arabidopsis Thaliana 6 RNA - Difficulty Level 0'
p5
aS'GAUAUACAAAAGGCAAAAAAAAAAAGCCGAUAUAUCAAGAUAUAUAUAUAUAUAUACAAAGAUACAAAAAAGUAUCAGUAUAUAAUAUAUAUAUAUCAAGAUAUAUCAAGUAUAUC'
p6
aF1.0
aa(lp7
S'Prion Pseudoknot - Difficulty Level 0'
p8
aS'GAUAUCAGAUCAAAAGAUCGAUAAUCAAAAAAAAAA'
p9
aF1.0
aa(lp10
S'Human Integrated Adenovirus - Difficulty Level 0'
p11
aS'GAUACAUAUAUAUUGGAUAUCGAAAAAAAAAAGCUGGGCUCCUGAAAAACGCAUAUCACAACGCAUAGAUAUAUGAAAAAAAAUAUAUCUAUCAAAGCGGAUAUAAAAGCGCAGAAAAGAGCCAACGAUAGCUAAAAAUGUUAUCCAGUGAAAAAAAAAAAGAUAUCAGAUAAAAAUAUAUGAAAUAUCAAA'
p12
aF1.0
aa(lp13
S'The Gammaretrovirus Signal - Difficulty Level 0'
p14
aS'AAGUGGGGAUAUCUAAUGAUAUCAACUCAAAAAGGGUCAAGGCACAUCCGGCCGAAAGGCCGAAAAGAUGGCCGACCAGGCUAUAUGUAAUCAUAUAGCAA'
p15
aF1.0
aa(lp16
S'Saccharomyces Cerevisiae - Difficulty Level 0'
p17
aS'CAUAUGGGGAGGACAAAAACUCCGGCUCAAAAAAAAAAACUGCAAACGGACCUAAAAAUGGUCCCUAUAUGAAAUCAUGGCCAAGAUCAAAAAAAAGAUCGGCGAAAAAAAAAAAAGCCAAAAUAGUGAAAAAAGUGCUAGGUCAUGUAAUGAUUCCGCAGUACAAAAAAAAGUACGGUAACAAAAAAGGUUAUCAAUUCAAGCAAAAAAAGCUUGCGGAAUCUAAAUUUCUACAAGCUGUAAAAAAUCAGCGGCGUCGGAAAAAGACGCCAAAACAUAGAAAAAAGCUAUGGUGGAGACAAACGGCUGUAAAACUGAAAAAAAGCGGGGUAUCGAAAAAAGAUAUCAAAGUUUACUAAAAAUAUAAAGCAGUUGGAAA'
p18
aF0.9894459102902374
aa(lp19
S'Fractal 2'
p20
aS'AAAAAGAUAUAUCAAGUAUACAUAGGAAGAGCAAAAAAAAAGGUUCGAGAUCAAAAAAAAAAGAUCAAGGUCAAAAAAAAAGGACCAGCCUAUGUAUGAAGCUUAUAUGAAAGCAUCAAAAAAAAAAGAUGAGGGGCAAAAAAAAAAGCCCAUGCUUAAAAAAAAAAAAGCUAUUUAUAUAAGAAAGGUAUGUAUAGACAGCAAAAAAAAAAGUUGGAUCCCUAAAAAAAAUGGGAAAGAUCGAAAAAAAAAGAUCAAUAUACAUAUCAAAGAUGUAUCAAAAA'
p21
aF1.0
aa(lp22
S'G-C Placement'
p23
aS'AUGCUAUGCAUA'
p24
aF1.0
aa(lp25
S'The Sun'
p26
aS'GGAAGAUCUACGAAGUAGCAAUUUCCAAAGGCAAAUGUGCAAAGUAUAAAUUGCCGAACACAGAUUUCCACAGGAACAGUCGUAAAUGUGAGAUAUUCAAGGAAUAUGUCCGCUAGGGCAGGGGUACAAAGUACAAUCCGCCAAAGGCAGGGCCUCAAAGAGCGAACCGUCAAACACAUUCGUAUGAUGUACAAGGAGUGGAAGGGAGCUAGACAAAGUCUAAAGCCCCAAAGUUAGAGAGACUAUGUUUAACUCACC'
p27
aF0.9263565891472868
aa(lp28
S'Frog Foot'
p29
aS'AAAAAAAAAAGGCCGAAAGGUCCAUCGGAAGGUGUCGCAUGGCGA'
p30
aF1.0
aa(lp31
S'InfoRNA test 16'
p32
aS'GGCUUAUCCUUUCGCGAAAGCGAGCAGAGUUAAGUC'
p33
aF1.0
aa(lp34
S'Mat - Martian 2'
p35
aS'GAUCGAAAGAUCAAAGAUAUACAAGAUAUACGAAAAAAGUAUAUCGUAUAUCAAAGAUAUAUCUAAAAAUAUAGACAGAUAUACGAAAAAAGUAUAUCGUCUAUAAAAGAUAUAUAUAGAUCAAAAAAAGAUUUAUAAUAUAUCAAAAAUGAUAUAUCAAAGAUAUAUAUAUAUCAAAAAAGGAUAUAUAAGUAUAUCAAAGGCUAAAAGGUC'
p36
aF1.0
aa(lp37
S'square'
p38
aS'GAUAUACCGGCUCCGGCUACCGGCUCAAAGAGCCGAAAAGUAGCCGAAAAGAGCCGAAAAGUAUAUC'
p39
aF1.0
aa(lp40
S'Six legd turtle 2'
p41
aS'AAAAGGGACGGAAAAAUUAAUGGUAAUCCUAACGAAAACGAAUCGAAAGAGUAACCGAAAGCAAUGCCAAGGCAAGCCAAAAAAAAAAAAAAAAAAAA'
p42
aF0.9591836734693877
aa(lp43
S'Small and Easy 6'
p44
aS'GGCGCGAAAAGCAAGGGAAAAAAAACCGCC'
p45
aF1.0
aa(lp46
S'Fractile'
p47
aS'AAAAAAAAAAAGUUUAAUGGAAAGCUAUGGAAAACUUUUGGAAGUGAUAACGCACGUACUGAAAAGAAUGCAAGAAAAGUCAAAAGAAAAAAAAAAAAAAAAAAA'
p48
aF0.9428571428571428
aa(lp49
S'Six legd Turtle'
p50
aS'AAAAACUAAAAGUAAAAGUAAAAUUAAAGGAAAAACGAAAACUAAAUCUAAAGACAAAUAUAAAGACAAAAUGAAAACGAAAAGGAAAAAAAAAAAAAAAAAAAA'
p51
aF0.9238095238095239
aa(lp52
S'snoRNA SNORD64'
p53
aS'GAUAUCAAAAAGGCAAAAGGCAAAGAUACAAAAAAAAAAAAAGUAUCAAAAGCCAAGCCAAGAUAUC'
p54
aF1.0
aa(lp55
S'Chalk Outline'
p56
aS'AAAAAGGUCAGGUACUAAUGUAACCUAGGAGGUAAAAGCCCCUAUCUACCGAAAGGCUAGAGCGGAGGAAACUCACGGAUCGAAAAAAAAAAAAAAAAAAAAAA'
p57
aF1.0
aa(lp58
S'InfoRNA bulge test 9'
p59
aS'GAUAUACAGAGAGAGAUAUACAAAAGUAUAUCCCCGUAUAUC'
p60
aF1.0
aa(lp61
S'Tilted Russian Cross'
p62
aS'AAAAAUCCCUUAAAAAAAUAGUAUUAGGCCAAAAGGCUGUUAUUAGUAUGACAGUUUGAAAAAGCGGUCGAUCAAAGUAUUGGGAAAAAAAAAAAAAAAAAAAAA'
p63
aF0.9238095238095239
aa(lp64
S'This is ACTUALLY Small And Easy 6'
p65
aS'AUAAUAAUAAUAAUAAUAAUAAUAAUAAUAAUAAUAAUAAUAAUAAUAAUAAUAAUAAUAAUAAUAAUAAUAAUAAUAAUAAUAAUAAUAAUAAUAAUAAUAAUAAUAAUAAUAAUAAUAAUAAUAAUAAUAAUAAUAAUAAUAAUAAUAAUAAUAAUAAUAAUAAUAAUAAUAAUAAUAAUAAUAAUAAUAAUAAUAAUAAUAAUAAUAAUAAUAAUAAUAAUAAUAAUAAUAAUAAUAAUAAUAAUAAUAAUAAUAAUAAUAAUAAUAAUAAUAAUAAUAAUAAUAAUAAUAAUAAUAAUAAUAAUAAUAAUAAUAAUAAUAAUAAUAAUAAUAAUAAUAAUAAUAAUAAUAAUAAUAAUAAUAAUAAUAAUAAUAAUAAUAAUAAUAAUAAUAAAUA'
p66
aF1.0
aa(lp67
S'Shortie 4'
p68
aS'GGAAAGCCAUCGAAAGA'
p69
aF1.0
aa(lp70
S'Shape Test'
p71
aS'AAAAAGAGAUCAAGAUACAAAAAAAAGUAUCAAGGCAUGCAGAUACAAAAAGUAUCAGAUCAAAAGAUCAGCAGCCAAGAUCGCAAAAAAAAAAAAAAAAAAAA'
p72
aF1.0
aa(lp73
S'The Minitsry'
p74
aS'GGCAAAAAGGCAAAAAGGGAAAAAGGCAAAAAGGCAAAAAAAAGCCAGCCACCCAGCCAGCC'
p75
aF1.0
aa(lp76
S'stickshift'
p77
aS'AAGAUAUCCGAAAAACGAGAUAUCAA'
p78
aF1.0
aa(lp79
S'U'
p80
aS'AAAAAGAUACAGAGAGGAGAGAUAUAUAUAAAAAUAUAUAUCCCCCCGUAUCAAAAA'
p81
aF1.0
aa(lp82
S'Still Life (Sunflower In A Vase)'
p83
aS'AAAGUCAAAGACUGGAAAAUAGUCAAGAUAAGAACUAUCGAUAGACGAAAAGUUUGAACUUCUUAACCAGAAUAGCACAAAAGGUGCGUCGAUACAAAAAGUAUCGGGUAUAUAUAUAUAUAUAUGUACUAUACAAAAAGGUAUGAGAUUCAAAAAAAAAAAAUGAACAAAAAAAAAAAAAAAAAAAAAAAAAAAAAAAAAAAAAAAAGGUUUUAAAAAAAAAAAAGGAUCGAUGUUAAUGCAUCAGUAUAUAUAUAUAUAUAUAUACCUAGAUCCAAAAAGGAUCAAGAAUCAAAAGGAUUCAAUAUGCAAAAAGUAUGAAGGUCAGAAAAUAACCAAUAGUAAAAGGACCGAAGACCCAAAAAGGGUCGGGGCAAA'
p84
aF0.9629629629629629
aa(lp85
S'Quasispecies 2-2 Loop Challenge'
p86
aS'AAAAAUUGCUUUCAGUAGCAAAAGCUAAAAGUAAGUGAGCUGAAAUAUGGCAAAUCUACGGGUAUAAAUGGCAAGGUGAUCGUAAGAAAAAAAAAAAAAAAAAAA'
p87
aF0.9809523809523809
aa(lp88
S'Corner bulge training'
p89
aS'AGAUAUCGAUACAAAGUAUCAAAAGAUAUCA'
p90
aF1.0
aa(lp91
S'Spiral'
p92
aS'AAAAAGAUCAGAUAUCAGGCAGAUACAGAUCAGAUCAGGAGGAGGAGGAGGAGGAAAAACCCCCCCCCCCCGAUCGAUCGUAUCGCCGAUAUCGAUCAAAAA'
p93
aF1.0
aa(lp94
S'InfoRNA bulge test'
p95
aS'AAAAAAAAAAAAAAAAAAAAAAAAAAAAGGCUGUAAAAGGGGUAAAGACGUAAGAGGCAUAGGAAUGGUAAAAGACACAGUCACUUGGCACUAAGGCUGUAAAAGACACCAGAAAUCACGUA'
p96
aF1.0
aa(lp97
S'Worm 1'
p98
aS'AAAAAAAGAAAGGUAUAGGUCGGAAAAAUAUGUCCGAGAUGUAGU'
p99
aF0.9111111111111111
aa(lp100
S'just down to 1 bulge'
p101
aS'AAAAAGAACAGAUACAAAAGUGUCAGGCAAAAGCCAGUAUCAAAAGAUCAGGCGAAAGCCAGGCAAAAGCCGGAUCAAAAAAAAAAAAAAAAAAAA'
p102
aF1.0
aa(lp103
S'Iron Cross'
p104
aS'UCGGGAGCGAAGUAGUGUAAAUCCAGGCUAAUGUCAGGAAAGGACAGGAGAAAUCUAAGCAAAGCUAGUCUAAAAGAGUGAAAGCACGGUGAAACACAUCCAAAGUUUUGCAAGGCGUUCGUA'
p105
aF0.9512195121951219
aa(lp106
S'loops and stems'
p107
aS'AAAAAGAUAUACAAAGAUCAAAGAUCAAAGAUCAAAAAAAAAGAUACAAAAAAAAAAAAGUAUCAAAGAUCAAAAGAGCAAAAAAAAAAGCUCAAAGAUCAAAGGCAAAAAAAAGCCAAAGAUCAAGGAAAAAACCGAAGUAUAUCAAAAA'
p108
aF1.0
aa(lp109
S'Water Strider'
p110
aS'AAAAAGUUUAGAGACUUACCGUAAUAUCGCGGAAACGUGAGAAAAACCUGACGAAUGCGAAGAAAGCGUAAUGUCGAUGUGUGCAAAAAAAAAAAAAAAAAAA'
p111
aF0.941747572815534
aa(lp112
S'The Turtle(s) Move(s)'
p113
aS'AAGGGAAAACCAAAAGCUAUGAAUAAAAAAAAAGUUUAUAGCAAAAGAUCAAAAAGAUCAAAAACAGAAAACUGGAAGAUUCAAAAAAAGAAUCAAAAGUGAAAGGGAAACUAAAAAUUAGCAAUAGAAAAGAUAUCAAAAAAGGAUAUCAAAAAUGAAAACCUAAAACUCUAUAAAAAGGCAAAAAAAGCCGAGGCAAAAAAAAGCUGAAACUUCGAAAAAGGAGUGAAGAUCAAAAAGAUUAAUAUGUGCAAAAAAAAGCAAAGUCAAAAAAGAAAAACAAAAAGGAUACAAAAAAAAAAGUAUCGAAAAAUUC'
p114
aF0.9810126582278481
aa(lp115
S'Adenine'
p116
aS'GAUACAGGGAGCAGAUCUGAGAUCUCGGAUACAGCAUAUCAAAAGAUAUCGAAAAAGAUAUCGGAUAUGGAACUCAAAGAUAUACAAAGUAUAUCGGGUUAUGUAUCAAUGUAAUAUAUCAAGGAUAUAUAAAUGCAUAGAGAUCGAAGCAGAUCGAAAGCUCCCAAAAGUAUC'
p117
aF1.0
aa(lp118
S'Tripod5'
p119
aS'AAGUUCGCUCUAAAUGAGCGGUCAAAAAGGCCGAACAA'
p120
aF1.0
aa(lp121
S'Shortie 6'
p122
aS'GGAAAACCAGGAAAGCCAGCAAAAGCGGGGAAACC'
p123
aF1.0
aa(lp124
S'Runner'
p125
aS'AAAAGGAGUGUACUAGAAGGAUCAAAGAUCAAAUGAAGGGCAAGACACAUAUUGUAAAGUGGUACUAAAAUAUAAAGACGGCAAAUGAAAAUGGUAAAAGACUUACUAUUCAAAAA'
p126
aF0.8793103448275862
aa(lp127
S'Recoil'
p128
aS'AAAAAGAUACAAGGAAGGAAGGCAAGGCAAGGAAGCAAAGCACCAGCCAGCCACCACCAGUAUCAAAAAAAAAAAAAAAAAAAAA'
p129
aF1.0
aa(lp130
S'[CloudBeta] An Arm and a Leg 1.0'
p131
aS'AAAAGGGCGGGCCUGAAAAGAGUCGGCAUGAAAGCAGCCAGCCAAAAAAAAAAAAAAAAAAAA'
p132
aF1.0
aa(lp133
S'[CloudBeta] 5 Adjacent Stack Multi-Branch Loop'
p134
aS'UCCGAGACCUAAUGGUCGGGGCUAAUGCCCCCAGGCUAAUGCUUGCUUGGAAACAGGUCGGGA'
p135
aF1.0
aa(lp136
S'Triple Y'
p137
aS'AAAAUGGUCGAGAGUGUAAAAAUAUGAUCUAAUGAUCGAUCGAUCUAGCUAAUGGUGCAGCAAAAUACCAGUCGACUUAAAAAAAAAAAAAAAAAAA'
p138
aF0.9175257731958762
aa(lp139
S'Misfolded Aptamer'
p140
aS'AAUCUAAAAAGGGGCGAAGCCGGGGAAACUAAAAAAAAACCGAAAUGAUU'
p141
aF1.0
aa(lp142
S'Flower power'
p143
aS'AAAAUGAUAGAUCAGGCACCAGAUCGCUUUAUGAUCAAGGAUUAUAUUCAAGCACAAAGAGCAAUUAGCGGAAGUAGCGAUGUAAAAAUAAAAAAAAAAAAA'
p144
aF0.9019607843137255
aa(lp145
S'Kudzu'
p146
aS'AAAAUGCUGAAACAGGCUGCAAACAGGGAGCCUUAUACAGAUCCCAAGGCAAGGCAGCGGAAACCGAAAGGCGGAAUAGACUAAAAAAAAAAAAAAAAAAA'
p147
aF0.9801980198019802
aa(lp148
S'"1,2,3and4bulges"'
p149
aS'AAAAUGACAAGAGGUGCAAGUAAACACCGGUGGAAUCUCAUGAUCUAAAGCCUUGGCAAUAGAAAUCAGGUCAAAGUCGAGCAGCGAAAAAAAAAAAAAAAAAAA'
p150
aF0.9523809523809523
aa(lp151
S'medallion'
p152
aS'GUUAUCACAUAUCAAAAGAUGUGGGGGAAAACCCACCCAAAAAGGAGAUAUUCAAGAAUGUCGCGCAAAAGUCAGGUAUGAAAACAUACCAGGAAAAAUCCGGGCGAAAGCCAGGUAUCAAAAGAUACCAGGCAAAACCCACAUGGAAAAAUCUAUGGGAUAAAAGCCGUUCCAACAUAAGAAACGUAAUCGUUUCAGGCGAAAGCCGGACAUCAAAAGAUGUCAUGCAAAAGUAGUGUGAAAACAAGAGGUAAAAAUAUCUCAAACAAAUGUCGAAUAGAAAAAUCUAUUAACCAAAAGCUAGGUAAAAGCCAGAAAUCAAAGGAUUUCGGAUAGC'
p153
aF0.9258160237388724
aa(lp154
S'[RNA] Repetitious Sequences 8/10'
p155
aS'AGCAAAAAAGGAAAAAACCAAAAAAGGAAAAAAGAAAAAAAUCAAAAAAGCAAAAAAGCAAAAAACCAAAAAAGCAAAAA'
p156
aF1.0
aa(lp157
S'Documenting repetitious behavior'
p158
aS'AAAAAAAGGAAAGAGAAAGCAAAGAGAAAGCAAAGAGAAACCAAAGAGAAAGUGAAGAGAAACCAAAGAGAAAGUAAAGAGAAACUAAAGAGAAGGCAAAAAAAAAGCGAAAAAGAGGCUAAAAAGAGACAAAAAAGAGGCAAAAAAGAAGCAAAAAAGAAGGAAAAAAGAGGCAAAAAAGAGACAAAAAAGAGGAUAAAAAAAUUCAAAGGGAAAAUAAAGAGAAAGCAAAGAGAAGCCGAAGAGAAAGCGAAGAGAAAGCAAAGAGAAAGCAAAGAGAAUUCAAAGAGAAAGUGAAAAAAAAGAAAAAAAGAGAGAAAAAAGAGGCAAAAAAGAGGCAAAAAAGAAACAAAAAAGAGAGAAAAAAGAGGCAAAAAAGAGGCAAAAAAGAGGCAAAAAA'
p159
aF0.97
aa(lp160
S'7 multiloop'
p161
aS'GCCCCCGAGUAAUCUCGGCGCACGAAAGUGCGGAUACGAAAGUAUCGGUUUUUUUGAACCGCUACAAAGGUAGCGCUAUGAAAGUAGCGGGC'
p162
aF1.0
aa(lp163
S'Kyurem 7'
p164
aS'AAAAAGUUGAAAGGGAAAAUCACAGAAAAGAUUUUGGGAAAACCGUGAGCGCGAAAAAGUGAAAGUCAGUCUGCCGACUAGCGAAAAAAAAAAAAAAAAAAA'
p165
aF0.9215686274509803
aa(lp166
S'JF1'
p167
aS'CUAGCUAGAUAAGAUACAGGAUACUAAAAAUACCAGGAUACGAAGAGAGAAGAUGUCAGAUAUAUGUAUAUCGAAAGAUAUACAUAUAUCAAGGCAAAAGCCGGAUAUAUAUAAAAAUAUAUAUCUAGAUAGAAAGCUAUCAGAUAUCACUCUCAGUAUCAGGUAUUAAAGAUAUAUCAAAAAGAUAAUAUCAAGAUAUAUAUAGAUAUCGAUAUAUCAAAAGAUAUAUUGAUAUCAUAUAUAUAUCAAAGAGCCAAAAAAGGCUCGAUAUAUAUCAAAAGAUAUAUAUCAAAGAUCUAAUGAUCAUGUAUCAGGUAUCAUGGCAGGCAUGCAAAAGCAGCCGCCAAGAUCUGAGCAAAAGCUUAUGAUCGUAUCAUAGACUAGAAA'
p168
aF1.0
aa(lp169
S'multilooping fun'
p170
aS'GUGUCCGAAAAAGUCUCCAAAGGAAAAUAAAAAAAC'
p171
aF0.8888888888888888
aa(lp172
S'Multiloop...'
p173
aS'GAUCAGAUCAGGGGAAAUCCAGGCGAAAGCCACGCAAAAGCGAGACAAAAGUCAGGCAAAAGCCAGGCAAAAGCCAGAUCACAUACAAAAAAGUAUGGGCAAAAGCCGAUC'
p174
aF1.0
aa(lp175
S'hard Y'
p176
aS'AAAAGGUUCAUCAUUUCAACGAAAGUUGGAAACGCGAUGAAUGCCUAAUGGCAUUCAUCAAGCAAAAA'
p177
aF0.9705882352941176
aa(lp178
S'Mat - Elements & Sections'
p179
aS'AAAAGGUUAAGGAGCGGGUCGCGGAUGUUGAGACGCGCAAGUAAAAGCUAUACCGUCGCGCCACUAAAGAGACCAGAAACGUAGCAAAAAAAAAAAAAAAAAAAA'
p180
aF0.9809523809523809
aa(lp181
S'Chicken feet'
p182
aS'AAAAAAGAUGAUGAAACCAUUAAGAAAAACCGUAUGAUGAUCUAAGGAAAGAACUAAAUCCAAAAAA'
p183
aF0.9402985074626866
aa(lp184
S'Bug 18'
p185
aS'CGAAGUAGGAAGAAGAAGAGACGAAACGAAAAAUCACGAACUAAAUGAAGGCC'
p186
aF0.9245283018867925
aa(lp187
S'Fractal star x5'
p188
aS'AAAAUGUUAUACUAUUUACCAAUGUAAUAGACUAAAGGGUCAAGAUCGAAAGAUCAUGAGAAAAAUGUCUAGGUAUAACUAAAAGAUCUAUAAUUCUCGAAAGAGGUGGUUCAAAAGAGCAACGCAAAAGAGGCAAGUGAAAAGUCGCAAUAUGGAUCAAAAGGUUAUGUGAACAUUAAAAAGCUCAGUGUGAAAGAUAGCGGUAAACAGAAUAAGAUAUAAUUAUCAAUACGUAACAAAAUGAGUUUUUAAAACGGAAAUGUUAAUACUAAAAAGUGAAGAUCAAAAGAUUAAGCCCGAAAGGGCGAAAAAAUUCUAAAUUACUUAUAAAGAACAAAAGUUCAAGUUCAAAGGAAUGACAUGAAAACAUGAUGACCAAAAGGUCUGUAUAGGUGUAAAA'
p189
aF0.97
aa(lp190
S'Crop circle 2'
p191
aS'UGAAAGGAAAAGGAAAAAGACAAAAAAAAUUAAAAAAAAAAAAAAAAAAAAAAAAAAAAAAAGGAAAAAAAAAAAAAGUCAAAAAAAAGCCGAAAAAACUGAAGUAAAAA'
p192
aF0.9272727272727272
aa(lp193
S'Branching Loop'
p194
aS'GGAUCAGAAAAAAAUUCUAAAAGUGGGACGGUCAAAAAAA'
p195
aF0.95
aa(lp196
S'Bug 38'
p197
aS'GAUGGUGGGCUACAGAAACAGUUCCAAACAAAAGUA'
p198
aF0.9444444444444444
aa(lp199
S'Simple Single Bond'
p200
aS'AAAAAAGGAAAAAAAUAGGUAAAAAACCUUAAAAAAAACAAAAAAAAAAAAAAAAAAAAAA'
p201
aF1.0
aa(lp202
S'Taraxacum officinale'
p203
aS'GUUGAACGCAAGCAGAUCGAAAGCAUCGCAACAAAAGAUAGAAUUCGAAUGAAACAGAUCGAAAGUAUUGAUUCAAAACAAAUAGGUUUAUUUAGGAUGUAUAUACAAAGUAUAAUAUAUCGGAUUCAAGAUACAUACCAGGAUAUACAAAGUAUAUCGGGUAUGUAUCGAUCAGAUAUCGAAGAUAUCGAUCGAAUCAAACUAAAUAGAUCGGGCCAAAAGAAUUAGAUUAAAAAAAUUGGCCCUAAUGAAUCAGAAAGAAAUAUUCAGUUAAAAACGAUA'
p204
aF0.900709219858156
aa(lp205
S'Headless Bug on Windshield'
p206
aS'AGGAGGAAAAAGAGAGAAAUUAGGGAAAAAAAAAAAAAAAAAAAAAAAAACCCGAGGAACUCAACAAACCGCCCGGGAAGGCAAGCAAAAAAAGGAAAACCAAAAAAAGCGUCAAAAAACCCGUACUCAAAAAAAGUUUAGAAUGUAAAAGUGGAAAAAAAAAAAAAAAAUCCUACUAGAAAUAUGUAGCAAGGAAGUCA'
p207
aF0.99
aa(lp208
S'Pokeball'
p209
aS'AAAGAUGUACAAAAGGAAGAAAGAGAAGAAAGGAAGGAAGAAAAGAACGAAACGGCUAAUCACCACCAAUCACUCAUCACCGUACAUCAAAAAAAAGUUAUACAAAAGGAAGAAAGAGAAGAAAGGAAGAAAGAAAGGAAGCAAAGCACCAAUCAUCACCAAUCACUCAUCACCGUAUAGCAAA'
p210
aF1.0
aa(lp211
S'Variation of a crop circle'
p212
aS'AAAAGCUAAAAUAAAAGGAAAAUACAGGAAGUGAAAUAAUCGAAGGGGAAAAGCUGAAAAAAGGGAAAAAAAUGCGAAAAAAAAAAAA'
p213
aF0.9545454545454546
aa(lp214
S'Loop next to a Multiloop'
p215
aS'AUGGUUUAUCAAAAAAAGGGAUUUCUAAUGAGGUCGUGUAUAAGAAAUUAUAUAAUAAAAAAAGAUAGACCUA'
p216
aF0.9726027397260274
aa(lp217
S'Snowflake 4'
p218
aS'GAUCAAGGGUCCCGCUCGAAAAAGUGUACGUGGUACUAAAAAGAGAUAAAAUCAAAGAUUAAGACCGAAGGUCUUAUCGGAAAGUCGUACCUAGAUGCAGGAAAUUGAUACCCUCAAAGAGGAAGAUCAAAGAUCGUAUCGCAAAACGGGAUCAAGAUAGGGAAAACCGGUAAUUGCAAAGCAGACUACCAAAGGUGCUACCGAAAAACCUUUUUAAGGUAGGGAAAGACGAUACCGGGUAUCCCGAAGCCCAAAGGACGUAUUGCAAAACCUUAUCGACAGGCAAGAAAGCUAUACGAUCAAAGAUCAAGCUCAAAGAGCGUAUGGAAAAAUAGUUUAGAGUAUGGAGAAACUAGCGGGAACAAGGGUC'
p219
aF0.9027027027027027
aa(lp220
S'Mat - Cuboid'
p221
aS'UAAGGAAAAGGAAGGAAAAUGAAGCAAAAGAAGGAACUAAAAGGAAGGAAGGAAAAGAAGUAAGGAAGGAAAAGGAAGGAAGAAAGGAAAAGGAAGGAAGGAAGGAAAGAAAAGGAUGCAAGGAAGGAAUGAAAAGGAAGGAACGAAGGAAGUUAGGAAAAGGAAGGAAUGAAGGAAGGAAGGAAAAGGAGGGAAAUAAGGAAGGAAAGAAAAAACUAACCAACCAAGUAACCAACCCCAACCAACCAACAAACCAACCCCAUGCAACCAACGAACCAACCCAAACCAACCAAGCUACCCUAACCAACCAACCAACCCCGAUCAACCAACCCCAGCCAAGCAACCCAACCAACCGCAACUGACCCAACGCCAACCUCAAA'
p222
aF0.9947368421052631
aa(lp223
S'Misfolded Aptamer 6'
p224
aS'AAAAAAUGCAAAAAACAUCGGCAAAAGGCAAAAAAAAGCUAAAGGAAAAAGGUGAAAAAAAGCAGAAAAAAAAAA'
p225
aF1.0
aa(lp226
S'Snowflake 3'
p227
aS'GGCCGAAAACGAGGCGGCAAAAGCCAAGAUCAGACCAAGGCAAAAGCGGGCAGCUAAUGCCAGAAACCGGGAAAACCAGCCGCCAAAAGGCAAGGUCAGUACAAUGAAAAAUUAGUCGUGAAAACACGGAAGCCGGGAAAACAAUGCCCCAAAAGGGAAUUACGGAUGGAGGUAAAAGCCAGCGGGAAAACGCUAAAAUAGAGAAAACCAGCUGGCGAAAGCCAAUAUCAGAUCGAGGCGAAAGCCGGUGGGAAAACCCGGAAACCGGGAAAACCAACCAGGUAAUCCGAAGAUGAGAACAAGGCAAAGGCAGGCAGGGAAACCUGUAAAGCAGGAAAGCCAGCCAGCAAAAGCCAAGUUCGGAUCAAGGCGAAAGCCGCCAGCAAAAGCGCC'
p228
aF0.8625954198473282
aa(lp229
S'Hard Y and a bit more'
p230
aS'AAAAAGAUACCUAAGUUUUAAUAAAUAAGGGAGAAUGGAAGAUCAAAAGAUCAGGCGUUAAAAAAAGCGCAACCUUUCUCGUAUCGAAAAAAAAAAAAAAAAAAAA'
p231
aF0.9716981132075472
aa(lp232
S'Mat - Lot 2-2 B'
p233
aS'GAAGAUGAUAUCAAGGAAAAGGAAGUUAUAAUUAAAAAUCGACUUGAAGAAAAAUCGACCGAAAGUAAGGAAGCGUAGGGAAAAAGAAGAUCAAGGAUAAUGUAAUCACCAAGAAAAAUCAGUUCCAACCGGAAGGAAUGUAAUCAGGAUGAUCGAGGAAAAGUAAGACAAAAAUGAAAAUCAAGCCCAUGAAAAAUCUACCCCAACCACGCAAACGCCAGAAAAAGGAACAGCCGGGAAAAGGAAAAUUCCAAGAAAAAUGAAUCUAGUUCGCAACCAACAAC'
p234
aF0.7746478873239436
aa(lp235
S'Shapes and Energy'
p236
aS'AAAAAAGAGAUCAGACCAAAAGAAAGAUCGGGAAACAGAUCGAGCGGUCAAGGAAAAACUAUCAAAAGAUGCCAGAUCGCAAAAAAAAAAAAAAAAAAAAA'
p237
aF1.0
aa(lp238
S"Spiral of 5's"
p239
aS'GAAAUGAUUCGAAGAUACUAAGAUAUAAAAGAUAGAAUGAUACAAAGAUACUAGUUUCAAAAGAUACAAAGAGAUAAAGAUACAAGAUACUAAGAUUCAAGGAUACAAGAUACAAAGAUACUAGAUACAAGAUACUAGAUACGAGAUAAGGAUACAGAUAGAGUUCAAAAAGAACUAAAAAUUAUCAAAAAGUAUCAAAAAUUAUCAAAAAGUAUCAAAAUGUAUCAAAAAGUAUCAAAAUGUAUCAAAAAGUAUCAAAAAGUAUCAAAAAGGAUCAAAAUGUAUCAAAAAGUAUCAAAAAGUUUCAAAAAGUAUCAAAAAGAAGCAAAAUGUAUCGAAAAGUAUCUAAAAUUAUCAAAAAGUAUCAAAAUGUAUCAAAAAGGAUUUAAAGCAAAAA'
p240
aF1.0
aa(lp241
S'Campfire'
p242
aS'AAAAGAUCAAGAUACAAGAGGAAUAGCAAAAGGAUCAUCAACAAGGUUAGGUUUUCGGUAUCAGGAGGAGCAUCUAAUGAAAGCCCCGGAUGCUUGACGACGAAAAAGCACACAUCAAACAAAGGUACAUAUAAUCCAAUCGAUAAUCGUAUCGGCAUACAGGAAGUUCGAAAGAACUCUGUCGGUACAUCAAGGAUAGUAAUCGGAGGAUC'
p243
aF0.8490566037735849
aa(lp244
S'Anemone'
p245
aS'AAAUCUUGAUAACCCAUGCGAAUUUAAUGAUUCGACAUUUCAUGAUGAACCUAUAAAAGUAGGAUCCUCGAAAAGGGGCGAUCCGAAAGGAUCUGGGUGAAAAUUCGGAUAUGUAAUUGUAUCAUUGACGAAAGUUGAGGUUUUGAUUAAAUUCGUUACACAGGUAGCCAUAAUAAAGAUUGUGGGUGAUAUUUCAUCGUUGUAUAAUUACAAC'
p246
aF0.9906542056074766
aa(lp247
S'Fractal 3'
p248
aS'AAAAAUGACAGGCCGAAAAAUGGGAAAGACACCCUGGCAUGGCAACUGGAAAGCCCGAAUGGGAGACAAACCGAAAAGUCGCCCAAGCAGCAAAAGCGGAAAACCGGGCAGUCAGAAAA'
p249
aF0.9327731092436975
aa(lp250
S'Kyurem 5'
p251
aS'AAAAUGUUAUACUCCAAAGAGAGCCAAAAUAGGGACGAAACUCUAAAUGAUCAUCGGCAAAAAGGCCAUUCCGCCGUAACUAACUAAAAAAAAAAAAAAAAAAA'
p252
aF0.9326923076923077
aa(lp253
S'Snowflake Necklace ( or v2.0 )'
p254
aS'GAUUAAUAUAUAUAUAGAGAUAGAAAAAAUCAAUAAAAACGAUGAAAAACAAUGAAAAACAAUGAAAAACAAAUCUCAUGGAAAAACCGAGACACAGGAAAAAUCGUGAAAACCAACCAAAAGGGAUGAAAAACAACUAAAAACGAGUGUCAGCCAAAAUGGCAGAUUCAUGAAAAACAAUGUAAAUUCAGGAAAAACCACGAAAAAAAAUGAAAAACAAGAAUCAAGGCAAAACGCGUCGACAGGAAAAACCACGAAAAAUAGUGAAAAACGUUUAAAAAAAUUGAAAAACGGGUCGAAGGAGAAAAGCCAUCUACGUGAAAAACAAGAAAAAAUCAUGAAAAACAAGCAAAAAGCAUGAAAAACAAGUAGGAAUAUAUAUAUUAAUC'
p255
aF0.8534704370179949
aa(lp256
S'Methaqualone C16H14N2O Structural Representation'
p257
aS'AAAAAAAGAUCAGAUCAGGCAGCCUAAUGCCAGGCAGGCAAAAGCCGGGCACGCAAAAGUAAGGCAUUGAAAAUGGAGGCGAAAAAAGCCAGCCAGCCAGCCAGUCAGAAACGGACCAGAGCAAAGAAUGGAAACGGAAACAAAAAAAACCAAGGUAGUUAAAAGCCCGAAAAAUCGGGUAAAAGGCACCAUUAAAGAUUGAAAAUAGACAGGCUGGCAUGCGGUCAAAAUGCAAAAGCGGGGCAGGGUAAUGCCAGCAAGACAAAAGUCCGCCAGGCAAUAGUCUGCCAGGCGGCAAAACCCCGGGAAACCGAGGAAAAAUCCGCCAGUCAGAUCAAGGCUCAGAUCGAAAAAA'
p258
aF0.9549295774647887
aa(lp259
S"Cat's Toy 2"
p260
aS'AAAAUUGCUUGUAAAAGUAUAAAAAAAAAAAAAAAAAAAGUAAGAUAAGAUAAUUCGAUGUAGAACCUAAAAAAUGUAAAAAGAUGCAAGCAAAAAA'
p261
aF0.9587628865979382
aa(lp262
S'Zigzag Semicircle'
p263
aS'AAAAGCGUCGGGGCAAAAAUAUAUAGACGCGAAA'
p264
aF0.9411764705882353
aa(lp265
S'Short String 4'
p266
aS'AAAAAAAUAGGAAGGAAGAAAAAGGAUGAAAACGCCAGUAAAGUGGAUAUAAAGAUUACCUUUAAAUACCGACUGUAAAAAAAAAAAAAAAAAAAAA'
p267
aF0.9381443298969072
aa(lp268
S'Gladius'
p269
aS'GAAAACAAAACCCCUAAGAAAUCAAAUAAGGCGGUCAAAGCUCAAAGGAGCAGAUGUAUGGGGCUCUAGUUCUUAAGAACGCGGGCAAUAUCAUAUAUAAGAGACCGAUUGGAUCAAGAUCUAUGAUCGGAUGGGAUCGAUUUCAAAUAUAGAAUAUUGCAAUAGUUCGACUGAACGUGUGCCAACAACAUCAGACAGGUGCUGUUAAAACUGAGGCAGUAUCAGUUGAUCGUAGGAUAUACUGGAUACAAAUGAAGAUAUGAUAUAGAUAGCAAAAGCUAUCAAAUAAGAUAUACUCAUAAGUGUUAUGUAUAUCAGAAGAUCUCAGGAUAAGGACUCCAAAUUAGCUGUUCUAAUGGGCAAAGCAAGCCAACUGAGAUGACAAUGUAAAUAAGAAAAU'
p270
aF0.895
aa(lp271
S'Thunderbolt'
p272
aS'CGUUGAUAUAAAAAAAAGAGGAAGAAUGGGGCCAAAAGAGAUAUAUGAAAUAAAACCUAAAAAAGAUCAAAAGGAUCAAAAAAGGAAAACAAGCAAAAAAAGAUGGAAAAACUACAAUGAAAGAAAAACAAAGGACGGCAAAAAAGAUAAAAGAAGGAAAAAUACCAACAAAAUGGUAAAUCAAACAAAAAAAGAAGACUAAAAGACAACAAAAAAAGGAAGAUUAAAAAAAAGCCGAGAACCAAGACGAAGUCUUGCACAACAAAAAAAAAAAAGCAACUAAAAAAAAACAAGGUAAACGAUAGCAAAAAGGAAAAAAACAAAAAGUUAUCAAAAAGAAAUAUAUAUCAAAAAAAAGGGCAGCUUAAAAAAGAAAAAAACAAUAUCUUCGA'
p273
aF0.9209183673469388
aa(lp274
S'Mutated chicken feet'
p275
aS'AAAAAAAGGAAGAAGAAACCGUUGAAGAAAGGUGCUGCACAAAGAAACUAAUUAUGCAAAUGGGACCCUGGCGAAGAAACGUAUCGAAAUAGUGAAAAAA'
p276
aF0.82
aa(lp277
S'Chicken Tracks'
p278
aS'AAAAAAAAGAAAUACGAUGAAAACAUCAAGAUCUAAUGAUCAAGUGCUAAUGCACGUAUUUCAAGGCGACCGAAGGUCAAGAUCUAUGAUCACGCUCAAAGAGCGCCAAAAAAAAA'
p279
aF1.0
aa(lp280
S'Looking Back Again'
p281
aS'GGUAAGGCGAUCAAAAAGUUAUCAAAGAUAACGGAUCAAACAGGGAAGGCAAAGCCUCAUGAUAUAAAAACCAAAAGGUUGAAGGUAUCUAGCGCAGCCAAAAUCUGCAAAAAGAUAGAAAACUAUCAAAAAAGCAUAUGUGGUCUUAUAUGCUGAUUCAAAGAAUCCAUAUCGGAAUAGGAAGAGGAAGAAGAUUAAAAAAUCAACGCAAGCAAGGCUGGCAAAAGCCGAGAUAUGAACGCCCCGAUUGGUUAGAGAGCGAAAAAGAGAAGGAAAAAAAAGGUCGAAAAGAUCGAUUAAACUAGUCUCGAGUAAAAAUAGGGUCUCGAAAGAGAUCAACAGUGAAUUAUGAUACAAAGUAUCAAUCGCUUAAAGUUCUUAGCAAGACC'
p282
aF0.8868894601542416
aa(lp283
S'Multilooping 6'
p284
aS'AGUAGAGGACAUUGGAAAGUCAAUGACGCUAAUUCGUUUACGGUGUAACUAAUGGUGCUGAGCAAAGGCUCAACACUCUGAA'
p285
aF0.926829268292683
aa(lp286
S'Cesspool'
p287
aS'GGAGGAGAAAACAUGUUAAGAGACACAAAGUCAACAACAAAAAUAGAAGAAAACAACAGAAGAAAACAACGAAAAGAAAACAAUAACAAGAAGAAGAAAACGAGGCAGGAGGGGCAAAUCUAAGAAAAGGCAAAGAAGAAAACAAAAUGAGAAAAAAAAAAAAAUAAAAAAAUAACAAAGAAGAACGAAAGAAGGAAAGAGAAACAAGCGUAACAACAAUCAGAGAAAGAAAUAACAGUAGAAAACAUCAAAAAUGAAAAAAUAACCAAGGAAGAAGAAAACAAGGUAGGUGAUGGAAAACGAACUACAAAGCAACGAGAAAACAAUGGGAUAAAACAACAAAAAUAAAAGAAUAACC'
p288
aF0.7932960893854749
aa(lp289
S'Hoglafractal'
p290
aS'AAUGGGAAGACAAAAAAGCUACAAAAAAGUAGCUUAUCGAUCAAAAUACAAAAGGUAUGGUCGUCAAGUCAAAAGGCGCGAGGCAAAUCUCAAAGAUGAAAAAACGUCGAAGCACAAGGGAAAAGGCCGAAGGGGGAAAACCCCAGAACAAAAGUCAAGGGAAAAAAUCCGCUGGACGAAAAACCUACGGGAAACCGAGAUACAAAAAGGAGGAAAAAGUCACGGGAAAAACCCCGGAAACGAGAUAUGUAAAAAGACGAAAAAGUCCGAUAAACGAAACGGGAUGAAACAUCCUGGAAAAAUCAUAUCGAAAAAGUAUCGAAAAGAUCAAAAGCCAAACCAAAAAAGAGGAGACCAAAAAGAAAACCCGAAAACGGAGAUCAAAGAUCUCAGGUCCCAC'
p291
aF0.915
aa(lp292
S'Bullseye'
p293
aS'AAAGGGGACGAAUUAUCGAGGUCUAUGACUGACGUUGAAGGUCUCUGAAAAAAAGCCCAGGGAACUAGAUGUUGAAAUAGUUAGAGAAAAUCUCGGCGAAAAAAUGGUGAACGAAGUCCAGCGUUUAUAGCGAAGUGCGAAGUUUACCUAAAAAAAUGGAAGCCAGGCCUAGAGUGAAGCACUAAAUUCAACGAAUUCAAAA'
p294
aF0.8217821782178217
aa(lp295
S'Shooting Star'
p296
aS'AUGAACGAUCGAUGUACAAAGAGGAGUUGCCAGGGAGGAAAACACCCACGGCUGACAACCAGGUACAUCAGAUAGAAGAGUGCGUGGCAGAGACAGGCAGAUAAGGAAAGCACUACACGCCGAUUUACGUCUCACAUACAACCGAAAGAAAAGCGAUUGAUAAUAUUUAUUAAAGGCAAGGUUUCCUGGAAACUGAGAUCAGUUCAGGUCAGAUGAAACAGUUAGUAUUUAGCUGAGAGAUAAAAUCUUCAUCGACAUACAAAGUAUGUCACAGACAAAGUCUGGGCCGUCCAAUAAAGGGAUAUACUAGUGAGGCAUAGCAGGAAAACACGUUAGGCCGCUACAUCUCCGUGAACAGUAUAUA'
p297
aF0.8406593406593407
aa(lp298
S'Teslagon'
p299
aS'AAAAAAACAAAAAAAGGGGCAAAAAAAGUAGGAAAAAAAAAAAAAAGCUAAAAAAAACUGAAAAAAAAAAAAAACCCAGCAAAAAAAGCAGCAAAAAAAUGAAAAAAAAAAAAAAACGGUAAAAAGCAACAAAAAAAGUGACAAAAAAAAAAAAAAAGUAAAAAAAUUACAAAAAAAAAAAAAAAGCACCAAAAAAGCUUGUAAAAAAAGGAAAAAAAAAAAAAAACCGAAAAAAACAGGAAAAAAAGGAGGAAAAAAAAAAAAAAACUAAAAAAAUAGUAAAAAAAAAAAAAAACUGCCAAAAAAACCCGCAAAAAAAUGAAAAAAAAAAAAGAAAAAAAAAAAAAAAAUCAUGAAAAAAGAUAUCAAAAAAAGUAAAAAA'
p300
aF0.8952879581151832
aa.