(lp0
(lp1
S'Simple Hairpin'
p2
aS'GAUACAAAAAAGUAUC'
p3
aF1.0
aa(lp4
S'Arabidopsis Thaliana 6 RNA - Difficulty Level 0'
p5
aS'GCAUGUCAAAAGUCAAAAAAAAAAAGACGCAGUCUCAAGAUAUAUAUAUAAGAUGACAUAGAUACAAAAAAGUAUCGGUCAUUAUUAUAUAUAUAUCAAGAGGCUGCAAGACAUGC'
p6
aF1.0
aa(lp7
S'Prion Pseudoknot - Difficulty Level 0'
p8
aS'GAGCGGAGAUCGAAAGAUCCCGACUCAAAAAAAAAA'
p9
aF1.0
aa(lp10
S'Human Integrated Adenovirus - Difficulty Level 0'
p11
aS'CCUGCAAGUAUAACUGCAUGCUAAAAAAAAGGGUUACUAGGAUCGUCCUCUGCGGUCAAAUUCAGUGGAUACUUUAAAAAAUAAGUAUCUAUAAAAAGGGACCGAAAACGGAAGCAAACCUGGAAAGCAGGCUAACAAUGCUUAUUGGCAAAAAAAAAAAUGCAUGCUGUUAAAAAUACUUGAAACAGGAAA'
p12
aF0.9791666666666666
aa(lp13
S'The Gammaretrovirus Signal - Difficulty Level 0'
p14
aS'AAGAGAGGCAUGCGAAAGCAUGCAACGCAAAAAAAAUCAAGUCAGAUCCUGGGAAAGCCCAGUAAAGAUCGACGAUUAAGCGGUCUCGAAAGAGGCCGCGA'
p15
aF1.0
aa(lp16
S'Saccharomyces Cerevisiae - Difficulty Level 0'
p17
aS'ACAUGUCCAAGAAAAAAAACUUGAGGGAAAAAAAAAAAAAACCGAAUAAUCCUAAAAAUGGAUUGACAUGUAAAAGCUUGUCUACGGGAAAAAAAACCCGCUCUAAAAAAAAAAAUGAGAAAAGUCACAAAAAAAGUGACGACGAGCGAAAGCGUGUCAACAGGUAAAAAAUCCUGCGUGUUGAAAAAAAAUACGAAAAGAUAUUAAAAAUAUAUCGACAUGCGAAAGGAUGGCAUGGGGCAAAAAAUCCUCCGUAGUGAAAAAAACUGCGAAAAGAUACAAAAAAAGUAUCGUCAUUCAAAUGCUUGUGAACAGGUAAAAAAUCCUGCGCCGCUAAAAAUGCGGCGAAAUGAUGCAAAAAAGGCAUCCACAAGCUAAA'
p18
aF1.0
aa(lp19
S'Fractal 2'
p20
aS'AAAAAGUAUUCUCGAAGAGCGGCGACAAUUGCUUAAAAAAAUGCAAAUGAGCCCAAAAAAAUGUUCUGCAACGUAAAAAAAAGUUGAAGUCGCUGUUCAAGGUGAGUAUACAGGAUCGAAAAAAAAAGAUCAUGCAAUUAAAAAAUUUUGCUACAUCAAAAAAAAUCGAUGAAGUGUAUUCGCAAAGAGAAGGUAGAAGGGAAUAAAAAAAAUCCCGAGAGAGCAAAAACCAUCUCGAGUUCUGAAAAAAUUGAGCAACUACCUUUUCGAAGAGGGUGCAAAAA'
p21
aF1.0
aa(lp22
S'G-C Placement'
p23
aS'AAGCAAAGCUUA'
p24
aF1.0
aa(lp25
S'The Sun'
p26
aS'CUGAAAGCUGGAAGCCAGAAUUUCAGAAACACAGGGCUGCCAGGCAGAAUGUGGGGAUCUCAUCGGCGCUAAGCGCAACCAGAGUAGGUUAGCGCGGCGAAGCCGCACGCAAGAAUCGCAGGUUUGUAAGAUACAAGCCGCGUAGCUCAGUGGUUCAAGGGACAAUACGAGAAACUUACUUCCUUAAAGAGGAAAGGAAGGAACUCAGCGUCCAGAAAGAGAAUGCGAGAAACUCACUGGGCUUAUAGUCAACGCGAG'
p27
aF0.8682170542635659
aa(lp28
S'Frog Foot'
p29
aS'AAAAAAAAAAGAUCGAAAGAUCGAUCGAAAGAUCCAGGAAACCUG'
p30
aF1.0
aa(lp31
S'InfoRNA test 16'
p32
aS'GCAUGCGGCAGAUACGAAAGUAUCAUGACGGCAUGC'
p33
aF1.0
aa(lp34
S'Mat - Martian 2'
p35
aS'AAGGAAAACCUUAAAGCAUGUCAAGCAUGUCCAAAAAAGACAUGCGACAUGCAAAGCAGUCUCAAAAAAGCAUGUCAGCAUGUCCAAAAAAGACAUGCGACAUGCAAAGAUAUAGCUAUAUCAAAAAAAGAUAUAGACUAUAUCAAAAAAGAGGCUGCAAAGAAAUUACAUGUUGAAAAAAACAGCAUGAAUGAUUUCAAACAGGAAAACCUG'
p36
aF1.0
aa(lp37
S'square'
p38
aS'GCAGUCCCGAUGCCGAUGGCCGGGGCAAAGCCCCGAAAAGCCAUCGAAAAGCAUCGAAAAGGACUGC'
p39
aF1.0
aa(lp40
S'Six legd turtle 2'
p41
aS'AAACAGUGAAGGGAAACUGAAAGGAAACUAAUUAGAAAUAUAAUUAAAGGUUAACUUAAUCGAAAUAGAUAAGGAAGAGGAAAAAAAAAAAAAAAAAA'
p42
aF0.9387755102040817
aa(lp43
S'Small and Easy 6'
p44
aS'GUCACUAAAUCGAAUCGAAAAAAAAGAGAC'
p45
aF0.8666666666666667
aa(lp46
S'Fractile'
p47
aS'AAAAAAAAAAAAGCAAAAGCAAAGGAAAGAGAAAUCAAGGAAGCGAAAACGAAACCAAGGAAAACCAAACCAAGCAAAAGCGAAAAAAAAAAAAAAAAAAAAAAA'
p48
aF1.0
aa(lp49
S'Six legd Turtle'
p50
aS'AAAAGCGAAAAGGAAAUAUGAAAUAGAAAUGAAAACGAAAAUGAAAGAGUAAUCAAAAAUUAAAGGGGAAUGAGAAAUUUAAACGAAAAAAAAAAAAAAAAAAAA'
p51
aF0.9238095238095239
aa(lp52
S'snoRNA SNORD64'
p53
aS'GCAUGCAAAAAGUCAAAAGUCAAAGAUACAAAAAAAAAAAAAGUAUCAAAAGACAAGACAAGCAUGC'
p54
aF1.0
aa(lp55
S'Chalk Outline'
p56
aS'AAAAAGAUCAUAGCCUAAUGGACUGGCGCACGCGAAAGCGGCGGGGAGCCAAAGGGACUCCACGCUGGAAACGGACGGAUCACAAAAAAAAAAAAAAAAAAAAA'
p57
aF1.0
aa(lp58
S'InfoRNA bulge test 9'
p59
aS'GCAUGUCAGAGAGAGCAUGUCUAAUGACAUGCCCCGACAUGC'
p60
aF1.0
aa(lp61
S'Tilted Russian Cross'
p62
aS'AAAAAGAUGCUACGAAAGUAGGCUCGCGGCGAAAGCCGGAUACGAAAGUAUCACAGGAAAACCUGGAGCGAUCGAAAGAUCCAUCAAAAAAAAAAAAAAAAAAAA'
p63
aF1.0
aa(lp64
S'This is ACTUALLY Small And Easy 6'
p65
aS'AAGAAAAAAAAAAAAAAAAAAAAAAAAAAAAAAAAAAAAAAAAAAAAAAAAAAAAAAAAAAAAAAAAAAAAAAAAAAAAAAAAAAAAAAAAAAAAAAAAAAAAAAAAAAAAAAAAAAAAAAAAAAAAAAAAAAAAAAAAAAAAAAAAAAAAAAAAAAAAAAAAAAAAAAAAAAAAAAAAAAAAAAAAAAAAAAAAAAAAAAAAAAAAAAAAAAAAAAAAAAAAAAAAAAAAAAAAAAAAAAAAAAAAAAAAAAAAAAAAAAAAAAAAAAAAAAAAAAAAAAAAAAAAAAAAAAAAAAAAAAAAAAAAAAAAAAAAAAAAAAAAAAAAAAAAAAAAAAAAAAAAAAAAAAAAAAAAAAAAAAAAAAAAAAAAAAAAAAAAAAAAAAAAAAAAAAAAAAAAA'
p66
aF1.0
aa(lp67
S'Shortie 4'
p68
aS'CAGAAAUGAGCGAAAGU'
p69
aF1.0
aa(lp70
S'Shape Test'
p71
aS'AAAAAGAGAUCAAGAGACAAAAAAAAGUCUCAAGUCACUCAGAUACGAAAAGUAUCAGAUCAAAGGAUCGGAGGACAAGAUCGCAAAAAAAAAAAAAAAAAAAA'
p72
aF1.0
aa(lp73
S'The Minitsry'
p74
aS'GCAAAAAAUUCAAAAAACCGAAAGCCAGCAAGGUGAAAAAAAGCGCAUGGAGGUGGAAGUGC'
p75
aF1.0
aa(lp76
S'stickshift'
p77
aS'AAGCAUGCCUGAAAAAGAGCAUGCGA'
p78
aF1.0
aa(lp79
S'U'
p80
aS'AAAAGGGUAUAGAGAGGAGAGCAGUCUUUGAAAGAAGACUGCCCCCCAUAUCAAAAA'
p81
aF1.0
aa(lp82
S'Still Life (Sunflower In A Vase)'
p83
aS'AAAGAGUAACAAGGAAAAGCCUUGAAUAGACAAAGUCUAAACAGUUGAAAAAAUUGAAGGGAUAAAGUCCCAACGUAUGAAAAAUACGAACACAUGAAAAAUGUGGGACAUAUAAUCUGAUAAUAUUAGCAGGUAAAAAAAUCUGAAUUACAAAAAAAAAAAAGGAUCCCCCCCCCCCCCCCCCCCCCCCCCCCCCCCCCCCCCCAAAAGAUCACAAAAAAAAAAAGUAAUGAUAUGAAAGUAUCACUAGUAUUAUCAGAUUAUAUGUUAUGAUACUAAAUGUAUCUAAAAGUGAAAAACUUUAACAGAUGAAAAAUCUGAACAUUUGAAAAAAGUGAAGAGAGUAAUUUCUCAACAAGUGAAAAACUUGAGCUCAAA'
p84
aF1.0
aa(lp85
S'Quasispecies 2-2 Loop Challenge'
p86
aS'AAAAGCCUUGAUGAAAUUCGAAAGAGUGAUAACUAUCAUUCUAUGUUUUAUUUCGGUUGGGGGCGAAAUGCUAACUUCCGAAAGGAAAAAAAAAAAAAAAAAAAA'
p87
aF0.9809523809523809
aa(lp88
S'Corner bulge training'
p89
aS'AGCAUGCGAUACAAAGUAUCAAAAGCAUGCA'
p90
aF1.0
aa(lp91
S'Spiral'
p92
aS'AAAAAGAUCAGCAUGCAGUCAGAUACAGAUCAGAUCAGAAGAAGAAGAAGAAGGAAAAACCUCUCUCUCUCGAUCGAUCGUAUCGACGCAUGCGAUCAAAAA'
p93
aF1.0
aa(lp94
S'InfoRNA bulge test'
p95
aS'AAAAAAAAAAAAAAAAAAAAAAAAAAAAAGAGCGAAAAAGAGCAAAAGAGCGAAGAGCAAGAGCAGAGCGAAAAGCAUCGGCAUCAAGCAUCAAAGCAUCAAAAAGCAUCGAAAAAGCAUCA'
p96
aF1.0
aa(lp97
S'Worm 1'
p98
aS'AAAAAAACAAUGAGUCUGGUGAACAAAAGGUCUCUUGUAAUUUGG'
p99
aF0.9555555555555556
aa(lp100
S'just down to 1 bulge'
p101
aS'AAAAAGAGCGGAUACGAAAGUAUCACUCGAAAGAGAGCAUCAAAAGAUCGCUCGAAAGAGAGUCGAAAGACGGAUCAAAAAAAAAAAAAAAAAAAA'
p102
aF1.0
aa(lp103
S'Iron Cross'
p104
aS'ACGUGGUGUAAGAUGCCCAAAGGGAGUGGAAACGCGAUCGAAUACGCACGAAAGUGAGUAAAAGGCGGUGAAAGAGGAUGGAAAUAUGGCCAAAUGCAGUGGAUCGUUACCAAAGGUUAUGAA'
p105
aF0.943089430894309
aa(lp106
S'loops and stems'
p107
aS'AAAAAUCAUGUCUAAGAUAAAAGAUGAAAGAUCAAAAAAAAAGAUACAAAAAAAAAAAAGUGUCAAAGAUCAAAAGAAGCUAAAAAAAACUUCGAAUAUCAAAGUCAAAAAAAGGACAAAUAUCAAUGAAAAAACAGAUGACAUGAAAAAA'
p108
aF1.0
aa(lp109
S'Water Strider'
p110
aS'AAAAAGAAUGAAGAGUCCUCCGAAAGGACGGGAAACCGACCUCGUAACACUCAAAGGGGUUUUAUUAAAAUGUUCGGCGGUAGAAAAAAAAAAAAAAAAAAAA'
p111
aF0.941747572815534
aa(lp112
S'The Turtle(s) Move(s)'
p113
aS'AAUGUAAAGACUCCGGCGGACGAUGAAAAAAAAGUCGUUCGCAAAAUAGGAAAAGCCUAACACAGACAAAGUAUGAAUUAUCUAAUAAUCCUAGAAAAUAGAAAUUAAAAACGAACACUCGAAAGAGAAAUGGAGGCUAUAAAUGCCUUCUAAACUCGAAAGGGAAAAACAUCACAAAAGUCCAAAAAAGACGAGUCAAAAAAAAGACGAAUAGAUGAAAAAAUCUAGAACAGGAAAAACCUGAAGUGAUGAAAAAAAAAGAAAAACCAAAAUCUAAAAAGGAAAACCCGGGAAAAAAACCCCCCGGAAAAAACUC'
p114
aF0.9810126582278481
aa(lp115
S'Adenine'
p116
aS'GAUACGCGUCGCGCGUCGCGCGUCGCGGCAUGAAGCAUGCAAAAGCAUGCAAAAAAGCAUGCGGCAUGCAGAUACAAAGCAUGUCAAAGACAUGCGUAUCGUUAUGCAGAUAGCAGUUACAAAGUGACUGAAACUAUCAGCGACGAAAAGCGACGAAAAGCGACGAAAAGUAUC'
p117
aF1.0
aa(lp118
S'Tripod5'
p119
aS'AAGAUCGGGCAAAAGGCCCCAUAGAAAAUAUGGAUCGA'
p120
aF1.0
aa(lp121
S'Shortie 6'
p122
aS'GCAAAUGCAGAGAAAUCGAGGAAACUAACGAAAGU'
p123
aF1.0
aa(lp124
S'Runner'
p125
aS'AAAACGGUUGGGUCUAAACGAGUAAAGCUCUGACCAAGGCUUAGUGCCCUAAGAAAAACACAGGUGGAAAACUAAAUCAUGGCGAAUCAGUCCUAGAAAUAGAAGGAGAUCGAAAA'
p126
aF0.9827586206896551
aa(lp127
S'Recoil'
p128
aS'AAAAAGAUACAAGGAAGGAAGUCAAGUCAAGGAACGAAACGGCCGGACGGACGCCGCCGGUAUCAAAAAAAAAAAAAAAAAAAAA'
p129
aF1.0
aa(lp130
S'[CloudBeta] An Arm and a Leg 1.0'
p131
aS'AAAAAGUCGCAGAUGAAAGUACUGGUCAGAAAAAUCGACGGACAAAAAAAAAAAAAAAAAAAA'
p132
aF1.0
aa(lp133
S'[CloudBeta] 5 Adjacent Stack Multi-Branch Loop'
p134
aS'AAUUUCCUUGAAAGAGUCGAUAGAAAUGUCGCGGUGGAAACACUGAGUAGAAAGAGUAAAUUA'
p135
aF0.9682539682539683
aa(lp136
S'Triple Y'
p137
aS'AAAAAGGAACUUGGAUUGAAAAAUCGCCGUAACUCGCCGCCUCACCGUAUAAUUGCGCAUGGUAAGGUGGUAGGUCCGAAAAAAAAAAAAAAAAAAA'
p138
aF0.979381443298969
aa(lp139
S'Misfolded Aptamer'
p140
aS'GAUUAAAAAAUAUUCGAAGAACAUGAAAGUACCCCCCCCAAGAAAGAAUC'
p141
aF0.92
aa(lp142
S'Flower power'
p143
aS'AAAAAGAUGCUACAAAGUAGAGGUCGCUCAAAGAGCAACAGCGAAGCUGAACAGGUAUCCUGGACCGGAGCAAAGCUUCAUCGAAAAAAAAAAAAAAAAAAA'
p144
aF1.0
aa(lp145
S'Kudzu'
p146
aS'AAAAACUGAGAAGGGUUUCUAAAGAGCGAACUCUACUGGGGGGCGAAAUGACCCUAAGAUGAAGGUAAAGACACGACUCGGAAAAAAAAAAAAAAAAAAAA'
p147
aF0.9405940594059405
aa(lp148
S'"1,2,3and4bulges"'
p149
aS'AAAAAGAACGGAAUCGAAAGGUAAAGUCUCACUAAUGUGAGCAGUGAAAAGUAACAUGAAAAAAUUGGGGUAAAGGCCAGCAACCAAAAAAAAAAAAAAAAAAAA'
p150
aF0.9809523809523809
aa(lp151
S'medallion'
p152
aS'GCACGCACGUCGCGAAAGCGACGAGUCGAAAGACACUCGAAAGAGACGUCGCGAAAGCGACGACUCGAAAGAGACGUCGCGAAAGCGACGACUCGAAAGAGACUCGAAAGAGACGUCGCGAAAGCGACGACUCGAAAGAGACGUCGCGAAAGCGACGACUCGAAAGAGACUCGAAAGAGACGUCGCGAAAGCGACGACUCGAAAGAGACGUCGCGAAAGCGACGACUCGAAAGAGACUCGAAAGAGACGUCGCGAAAGCGACGACUCGAAAGAGACGUCGCGAAAGCGACGACUCGAAAGAGACUCGAAAGAGACGUCGCGAAAGCGACGAGCGUGC'
p153
aF1.0
aa(lp154
S'[RNA] Repetitious Sequences 8/10'
p155
aS'AGGAAAAAAGGAAAAAACCAAAAAAGGAAAAAAGAAAAAAAUCAAACAAGCAAAAAAGCAAAAAACCAAAAAACCAAAAA'
p156
aF1.0
aa(lp157
S'Documenting repetitious behavior'
p158
aS'AAAAAAAGGAAAAAAAAAGGAAAAAAAAAGGAAAAAAAAAGGAAAAAAAAAGGAAAAAAAAAGGAAAAAAAAAGGAAAAAAAAAGGAAAAAAAAAGGAAAAAAAAAGGAAAAAAAAAGGAAAAAAAAAGGAAAAAAAAAGGAAAAAAAAAGGAAAAAAAAAGGAAAAAAAAAGGAAAAAAAAAGGAAAAAAAAAGGAAAAAAAAACCAAAAAAAAACCAAAAAAAAACCAAAAAAAAACCAAAAAAAAACCAAAAAAAAACCAAAAAAAAACCAAAAAAAAACCAAAAAAAAACCAAAAAAAAACCAAAAAAAAACCAAAAAAAAACCAAAAAAAAACCAAAAAAAAACCAAAAAAAAACCAAAAAAAAACCAAAAAAAAACCAAAAAAAAACCAAAAAA'
p159
aF1.0
aa(lp160
S'7 multiloop'
p161
aS'GGGGGAAACGAAAGUUUCGUUACGAAAGUAGCGUAUUGAAAGGUACCUUACGAAAGUAGGCGGAUUAAUGUCCGGGGUCGAAAGACCCCCCC'
p162
aF1.0
aa(lp163
S'Kyurem 7'
p164
aS'AAAAUGAAGCUAGUCGAAAGACCCGAAAAGACGAUACGAAAAGUGUGGCGAGGAAAAACUCAAAGCCCGUCCGGUAGACUUCUAAAAAAAAAAAAAAAAAAA'
p165
aF1.0
aa(lp166
S'JF1'
p167
aS'AAAGCUACAUAACAGAUGUGAUACAAAAGCAUGCAAGAUACAAAGAAUCAAGACAAAACAGAUAGAAUUAUCGAAAGAUAAUUCUAUCUGAAGUCGAAAGACACGCGGUGGCGAAAGCCACCGCGAACAGAUGAAAGUCUGAUUUGUCGGAUUCGGUAUCGGCAUGCAAAGCAGGCUCGAAAAGAGACCUGCAAGAAAUAUAUACAUAUAUAUAUAUCGAAAGAUAUAUAUAUAUGAUAUAUAUUUCAAAGAUACAAAAAAGUAUCCUGAAUAUACGAAAGUAUAUUCAGAAACAGGAAAGCCUGAAGUAUCUAAUCUGAACGGUGUCAGUCGAAAGACGACCCGUACGCGGUGGCGAAAGCCACACGCGAUAUGAUAGACUUUGAA'
p168
aF1.0
aa(lp169
S'multilooping fun'
p170
aS'CGAUGUCUUAUAAAUUAAAGAAGUACGGAGAACCUU'
p171
aF0.8888888888888888
aa(lp172
S'Multiloop...'
p173
aS'GUACGGAUCAGGCUAAUGCUAGGCGAAAGUCAUCAGAAAUGGAGUCGAAAGACAGUCAAAGGACAGUCGAAAGACGGAUCGUAGAAAAAAAAUUCUGGUGGAAACACGUGC'
p174
aF1.0
aa(lp175
S'hard Y'
p176
aS'AAAAUUCUCGGCCGGGCCUCAAAGGGGGCUCAUCCGUGUCGUUACGAAAGUGACGGCACGUUGCAAAA'
p177
aF0.9705882352941176
aa(lp178
S'Mat - Elements & Sections'
p179
aS'AAAAAAAUUGGGAAGGGAUGAGAGAUCAUAAGAUCACCUGUCUAAUGAAUGCCGAUCCAAGAUCGAAACACGUCACAGACAAAUUAAAAAAAAAAAAAAAAAAAA'
p180
aF0.9619047619047619
aa(lp181
S'Chicken feet'
p182
aS'AAAAAAGACCAGAAAGUCGGAUAUUCAAAGCUGGUUAAGUGUUAUGACCACAAUCUAUAUAGAAAAA'
p183
aF0.8208955223880597
aa(lp184
S'Bug 18'
p185
aS'GCAUCGAUAUUAAAGAAUUGAGUAAGGAAGGGGAUGUAAUUAAGCGGAAAUGA'
p186
aF0.9245283018867925
aa(lp187
S'Fractal star x5'
p188
aS'AAAAACUCGGUGGAAUACUAAAGGGUGAACAAUAAAAAUUGAACGUGAAAGCACGGACAGAAAAAUCUGAACCACCGAGAAAAGCGCUUUGGGAGUCCAAAAGGGCAACAGGUAAUCCUGAUUAGCGAAAGCUAUAUAGAAAAAUCUAAACCAGGGCGAAAAUGGGGGGGUAACAGUAAAAAUUGAACCGGAAAACUGGGGUUGGGAAACUAAAAGUGAAAAGUCGCAAACCCCCCCUAAAGGGUGGUAGAACAGUUAAUAUUGAACUCGGAAACGAGCAAAGGAAAACCUUAGCCGAAAAAUCGGAGCUACCACUAAAAACGCGGUGGAAGAAGGAAACUUUAGCAGUAAAAGCUGAACAGGAAAACCUGGACGGUGAAAACCGAAUCACCGCGGAAAA'
p189
aF1.0
aa(lp190
S'Crop circle 2'
p191
aS'GGGAGGUUAAGUAAAAAUUGUAACAAAAUGGAAAAAAAAAAAAAAAAAAAAAAAAAAAAAGCUAAAAAAAAAAAAAAUUCUGAAAAAAAGCAAAAAAUACAAAACGGAAA'
p192
aF0.9454545454545454
aa(lp193
S'Branching Loop'
p194
aS'UCAGCCUAAAAAAUGGUAAUAAUUGACAAGCUGUAAAAAA'
p195
aF0.95
aa(lp196
S'Bug 38'
p197
aS'AGAUAUGGACUGGUAACAUUCCAUUAAGUGAUUUCA'
p198
aF0.8888888888888888
aa(lp199
S'Simple Single Bond'
p200
aS'AAAAAAGAAAAAAAAUGCUCAAAAGGAGUUAAAAAAAGCGAAAAAAAAAAAAAAAAAAAAA'
p201
aF1.0
aa(lp202
S'Taraxacum officinale'
p203
aS'GAGCGAAAGACUCACAGCGAAAGACUGACAGCGAAAGACUGACAGCGAAAGACUGACAGCGAAAGACUGACAGCGAAAGACUGACAGAUAGAAUUCAGAUAGCAUCAAAGAUGACUAUCUGAGAUACAACAGAUAGAAUAAGACAAGCAAAGCUUGUCGAUUCUAUCUGGAUCAGCAUGCAAAGCAUGCGAUCGUAUCAAAGAUUCUAUCUGAGAGCGAAAGACUCACAGCGAAAGACUGACAGCGAAAGACUGACAGCGAAAGACUGACAGCGAAAGACUG'
p204
aF1.0
aa(lp205
S'Headless Bug on Windshield'
p206
aS'GGGUAGAAAAGGCGUCGGACUAGUGGAAAGAAAAAAAAAAAAAAAAAAAACACGGGGAAGGCAGCAAACCUUCAGACAAACCAACGAAAAAAGGAAAAGUCAAAAAAACGGAGGUAAAAGUCGGAUUAAAAAAAAGUCAAGUAUGUAAUAGUGUCAAAAAAAAAAAAAAGCCUUACAUAUAUUAAUCGGCAGGAAAGUCA'
p207
aF0.95
aa(lp208
S'Pokeball'
p209
aS'AAAUCAUGGCAAAAGUGAGUAGGACAGGAAAACGAGCAAGAAAUGGGCGAAAACACCAGUCGGCGGUAGUCAGUCAGCGUCGCCGUGAAAAAAAAGAGGUUUCAAAAGGGAGGAAAACAAGAAAGGUGGUUAGAAAGGGAAGGAACUGCCAAUGUACUCAAGUCGGUUGCCACCGAGAUUUAAA'
p210
aF0.9782608695652174
aa(lp211
S'Variation of a crop circle'
p212
aS'AAAAUCUAAAAGAAAAUGAAAGGUGAGGGACCGAAGCGAGUAAAAGCAAAAAGCGAAAAAAGUGAAAAAAAAUUGGAAAAAAAAAAAA'
p213
aF0.9772727272727273
aa(lp214
S'Loop next to a Multiloop'
p215
aS'AAUCAGUUUUUAAAAAGCGGCAUGCGAAAGCAUGCAGCGUGUCGAAAGACACGCAGAAAAAAUGAAACUGAGA'
p216
aF1.0
aa(lp217
S'Snowflake 4'
p218
aS'GAUCAAUGAUCCGGGUUAAAAGUAUAGUUUAGAUACGGGAAAUCCACAUCAGGAAACCUGAAUCGGAAACCGGGUCUGGAAAAGGCGUAUCAGGUUACCAAAAAUGUGUCCGUGUAAAGCGUAACAGGGAACCUGGGACGUAAAAAUGGUAGCAAGUCACCAAAAAUGGGGCCAGGAGAAUCCGAACAUGAAACCUCGGUUUGAAAAAUGGUGGCAAGAUUCCAAAAAUGCGUCGAGAUAAAGUCGAACAAGAAAUACGUGACGGAAAAGUGGGAUCGUGAAACGAAAAAGUCAGAUCAGCAAAGCUGAAGAAGAAAGUUUAUCUGCAAAAAUGCUUUCUUGGCUGUAUAAUUGACCCGCCGGUAUCUGG'
p219
aF0.8486486486486486
aa(lp220
S'Mat - Cuboid'
p221
aS'GAAGGUAAAAUAAGGAAAAGAAAAGAAAAUAAGGAAGGAAAAGGAAGGAAGCAAAAGAAGGAAGGAAGGAAAAGGUAGUAAGGAGGUAAAAGGAAGGAAGGAAGGAACGAAAAGGAAGGAAGGAAGGAAGAAAAAGGAAGGAAGGAAGGGAAGAAGUAAAAGGAAGGUAGGAAGGAAGGAAGAAAAAGGAAGGAAGGAAGGGACGAAGGAAAAAACCAACGAACUAACUAAUCAACCUCAACCAACAAACCAUCCAACCGCAACUAACCAACCAACCAACCUCAACCAACCAACCAACCCGGACCAACCAACCAACCGCAACCAAACAUCCCCAACCAACCAACGCAACCAACCCCAACCAAGCUAACCCCAAAUCAAAC'
p222
aF0.9947368421052631
aa(lp223
S'Misfolded Aptamer 6'
p224
aS'AAAAAACUAGAAAAUUGUGAGCUGCCCGAUUAAAAAUUCGCAAUGAAAAGCACGUAAAAAAUAGGAAAAAAAAAA'
p225
aF1.0
aa(lp226
S'Snowflake 3'
p227
aS'GUGUAAAAAAGUGUCCUAGAAAUAGAAGAUCGAAUCGAGUCAAAGGACCUCUGAAAAAUCGUCAAAGGAUAGAAAUUUCGGCUCGAAAGAGAAGAUCAUAUGAAGUGGAAACACCUCACAGAAAUGCUGGAACAGCAGAAAUGAGGGCGCGAACGUGAGCAUGGGAGCAAGUCGAAAGACAUAACAUAAUUGUACAAAGUAUCGAAAGAGAGGCUCGAAAGAGAAGACCGGACCAAGGCGAAAGUGCUCGCGAAAACACUCUAUGGGGAAAAGUGAGAGUUCGAAAGAGGAGGUUGUCUCAAGUCAAAGGACCACACUAAAAAGCGCAAAGAGCAAAAAUGAGCGCGUGAAAGCGAAGAUGAGAUCAAAUCGAAAGGUGACUCGAAAAUAUAC'
p228
aF0.8549618320610687
aa(lp229
S'Hard Y and a bit more'
p230
aS'AAAAAGAUACGGGUGGACGAAAGUUCAGUUUAGGCGGGUUGAUCGAAAGAUCUGGAGUAAAAAAAUGUUCAUUCAGCCUAGUAUCAAAAAAAAAAAAAAAAAAAAA'
p231
aF0.9716981132075472
aa(lp232
S'Mat - Lot 2-2 B'
p233
aS'GAGGUGGACUCGAAUGCAGACCAACAGCGAAAGUAAAACGAAUGUGAACGAAAAAGAACACUAUGAAAGGAGGGGGAAGGAAAAGGAAGGGGAAGAAAAAGAAAAAUCACAACCAAAAUCAACCCCACCCCGAAAAAAUGGAAACAGAAGGCGCAAUAAAAAGAUAGUGCUAAUGCAAAAACGUUCUAAAACAAAAGCAAUCCCAACCAACUAACAGGAGGAAAAAUUAGGAGCAUGGAAAAGAGAAAUAUCUAACAAAAUCAAGAGCAACCUCUGUGAACAAC'
p234
aF0.8274647887323944
aa(lp235
S'Shapes and Energy'
p236
aS'AAAAAUAGAGCUGUGUGCAAAUGGGUAUCGUUAAUGAGAUAAAACUGUGGAUGAAAAAUUAAGGAAAUUUAUAACACGAUUAAAAGAAAAAAAAAAAAAAA'
p237
aF0.9603960396039604
aa(lp238
S"Spiral of 5's"
p239
aS'AAAAAGAUACAAUGAUAGGAAGAUAGGAAAGAUGAAAAGAUAGAAAGAUAGAAGAUACAAAAGAUACAAAGACAGAAAGAUAGAAGAUACAAAGAAAGAAAGAUAGAAGAUACAAAGAUAGAAGAUACAAGAUACAAGAUACUAGAUACGGAUCCGGACACCUAAGGAAAACUUAGCUUUUGUGUUAAAAAGGAUCAAAAAGUAUCAAAAUGUAUCAAAAAGUAUCAAAAAGUGUCAAAAACUAUCAAAAAGUAUCAAAAACUAUCGAAAACUUUCAAAAAGUAUCAAAAACUAUCAAAAACUGUCGAAAAGUAUCAAAAAGUAUCAAAAACUAUCAAAAACUAUCAAAAAUCAUCGAAAACUAUCAAAAACUAUCUAAAAGUAUUAAAAAUAAAAA'
p240
aF0.9949622166246851
aa(lp241
S'Campfire'
p242
aS'AAAAGUAUCUCGCAGAAGAGCAACCGCUAAACGCGUAGGAGCAAGGCUACGUGUUCUCAGUCACUAGAAGAGCGGAAACGACUCCCGGGAGCCAACUCAAGCAAAAUCUGGGGAGCAGCUGAAAGGACGACUCAGGGACUCGACAUGACUUUGCUAAAGGAGAUAGGUCGAAAGAUCCUCCCUGUGGGGUCUAUGACACUAAGCGGAGAUGC'
p243
aF0.9198113207547169
aa(lp244
S'Anemone'
p245
aS'AAACUACCGUAAUCGGUGGCAGAUGAAAGUCUGGGUACUAAAGGGUGCCGGGUUAAAGAACCCGAUGACGAAAGUCAUCCCUCAGAAAUGAGGCAGCUGAAAAGCUGUUACGCCAAUGCGUGAAGGGGAAAAGUCCCCCUCCUUGAAAAAGGAGCGCGUUAAUGCGCGGUUCGCGAAAGCGAGCGUAAUGAAAGUUACGGUUGCUAAUGCAACC'
p246
aF1.0
aa(lp247
S'Fractal 3'
p248
aS'AAAAGAAUCACUAGGCAAAAGUUAAAAAUAAUACAGCCGCCAAAAGUGAAAAAUGAGACAGAUGCAAAAAUGCACAAAUCAGAAGGGCUCAAAAAUGGAUAAUGGAGUCGGAUUAAAAA'
p249
aF0.8151260504201681
aa(lp250
S'Kyurem 5'
p251
aS'AAAAUCCCAUGGGACGAAAGUUGCGAAAGCCUUGGCAAAAGUCGAAAAGGCUGCCCUGCAAAAGUAGAUAGGAGCUCGAAUGGGUAAAAAAAAAAAAAAAAAAA'
p252
aF0.9423076923076923
aa(lp253
S'Snowflake Necklace ( or v2.0 )'
p254
aS'UAUCAAUAUAUAUACAGAUGGAAAAAAAAUUGCGGAAAAUGACAUAAAUUGACAAAAAGGGAUUUAAAUUGACAAUCACGCGAAAAGUUACAGUCAUGAAAAACAAGUAAAAAAUACAAAAAAGCUCAAAAAAUGUCAAAAAAUGAGACAGAAUCGAAAAGAUAGUGCGCAGGAAAACUGCAUAAAUUGAUAAAAAACGAGGAAAAAUCUCUAAAAAUGUCAAAUGGUCGAAAGGGCAUGCAGGUGAAAAACGAUAAAAAAUGACAAAAAAAGACAAAAAAUGACCGAAAAGGACUGCAACUCUAAAUGGGAUACAGUUGAAAAACAAUAAAAAACGACAAAAAAUGUAUAAAAAUUACAAAAAGUGUCUCUAAGUAUAUAUAUUGAUG'
p255
aF0.7557840616966581
aa(lp256
S'Methaqualone C16H14N2O Structural Representation'
p257
aS'AAAAAAAGAUAAGAUCGUUCACUCUAAUGAGGGUCACUCGAAAGAGAGUGGAGCGAAAGCUACUCGCGCGAAAGUGUCUCGAAAAAAGAGUGAGACACGGGCAGAAAUGACAGGAUCGGGAGAAAGCAUCUAAAGAAAAUUAAAAAAAAAGAGGUCGCUCAAAGAAGCUCGUAAGAGCACGAAAGGGGACGGCAAUCAGCAGAAACAGAGGGAGAGGCGGUUACUCAAAAGUCGAAAGACGGAGAUUCGAAAGAAAGACAUUCUAAUGAAAGUUAGUCGAAAGACGCUCAGGCGGCGAAAGCCCGCGAAAGCGACUCGAAAGAGGCCGGCCGGUUGUAACUCCAUAUCAAAAAAA'
p258
aF0.9774647887323944
aa(lp259
S"Cat's Toy 2"
p260
aS'AAAAGUCUUUUCUAAAAAAAAAAAAAAAAAAAAAAAAAACUGAUGUACGGUAAUCCCAAGCUAAUUCAAAAAAAUCUAAAAUGGGGGAAGGAUAAAA'
p261
aF0.9587628865979382
aa(lp262
S'Zigzag Semicircle'
p263
aS'AAAGCUAAGGUGCUGAAAAUGACCAGUUGGAAAA'
p264
aF0.9411764705882353
aa(lp265
S'Short String 4'
p266
aS'AAAAAAUAAGGGGUAGAGUAACAUAGCUAAAAAGGAAACAAAUCAUAAGGGAAAUAAUAUGAAAAUGACAAUAUUCAAAAAAAAAAAAAAAAAAAAA'
p267
aF0.9587628865979382
aa(lp268
S'Gladius'
p269
aS'GAAAACAGAGUAAAUAACGUGUUUCGGAAGUCAGGCAAGGAAUAAAGAUUCACAUACAAGAGUCUUAAAAUUAACAGAACAAGAGAUAUGGGAGUUACAAGAUGGAGAUUAGGAGAAGAUCAAAGAUCGCUCACGAUCCACAUUAAGUGAUCACCAUAUCAGCGGUUCACGCAAUUAGACGACAACAGUAUGGGCCAAUGUGCCAGAAGGGAGACUGAUGAUCGGAAGAGCAGAAGAUAUACAGGUUUUAGCUACAGCAUACAGGUAGCAUGCGAAAGCAUGCGGGUCGAUGUGACGUAGACAAAGCAGGUAUAUCGCGAGCUCGCAAGAUCUGAUGUCAGAAUUCUGUGAUCGAAAGAUCUAAGACUGACAAAUAUAUCUAGAGAAAUCAAAACGAAAG'
p270
aF0.9
aa(lp271
S'Thunderbolt'
p272
aS'ACGAGGCACAAAAAAAAACGCAAGGGGAAAAGAAAAAUGGCAGACUCGCCAAAAACCGGAAAAAGUUUGAAAAAAGCGAAAAAGGAAAAGAAGGAAAAAAAUAACAAAAAAGAGAGAAGUAAGAAAAGGAAAACAUGAGAAAAAAGCAAAAGGAAGUAAAAAUGGAAACAAAAAGCCACAUCGGAGAAAAAAACAACGGGAAGCCCGAGGGAAAAAACUAGGAUGAAGAAAAACUCAAAAAGGCAUGAAAAUCGUGCGCCAUCAAAAAAAAAAAACUAAUCAAAAAAAAAGAAUUAGAAGGUACAGAAAAAGUAAAAAAUCGAAAACAGAAGAAUAGCAAAGAGUUUGCAAAAAAAACGCCGAGCAAAAAAAAUAAAAAAUAGUGCCGAGUA'
p273
aF0.9591836734693877
aa(lp274
S'Mutated chicken feet'
p275
aS'AAAAAAAGGAGAGCAAAGGCUAUAAUCCAAAUCCCAAGAGUAAAGAAUUAAAAAAUUAAGACUCCGGACGGGCUCUCUAGUUAUGCGAACGACGAAAAAA'
p276
aF0.8
aa(lp277
S'Chicken Tracks'
p278
aS'AAAAAAAAGCAGCUGGUCCUAAUGGACAUGUUUGAAAGAGCUAGCCCAAAGGGGCUAGCUGCAUCUCCAUCAAGGAUCAUGGCCGAAGGUUAAGCCGUAAUGGAGACUAAAAAAAA'
p279
aF0.9482758620689655
aa(lp280
S'Looking Back Again'
p281
aS'GCCAGGUGGGGGAAAAGGCAAGCAAAGCUUGCACCCCAAGUCCUCAAGUCAAAGACGAGAGAUACAAAGAUCGAAAGAUCAAAAGUAUCAAGACGAGUCAAGAACGUCAAAAAGAUACGAAAGUAUUGAAAAAGAUAGUACUAUACAAAGUGUGCAGAUAAAGUCCGGGAGUCGUUUGUACAAGAAGAAGAAUAUCGAAAGAUGAGUGUAACGAUAUACCACAAAGGUGAAGACUCCAAAGUAUCGAUAGGGUACACAUGAAAAAAGCGAUGGAGAGAGACGAUCUAAAUGAUCCCGUAAACGCGCCUGGGAGAAAAAAGACGUCGCGAAAGCGACGAAGCCGCAAAACAUAGAUAAAGUCUAAAGGCAGAAAACUCCGUACCAAAGAC'
p282
aF0.9074550128534704
aa(lp283
S'Multilooping 6'
p284
aS'AAUCAACCAAUAAAUAAAGGUAUAGAUCUUAAUGGAUUUCGACGGUUUAAAAGUGUACGAUAAGAAAUUAUGUGCGUUGAGA'
p285
aF0.975609756097561
aa(lp286
S'Cesspool'
p287
aS'GAAGAAGAAAACAACUCGACGGACAAAAAGAGAACAAGAAAAGGACAGAAAAACAACAGGGUGAAAAAAUAAACACAAAAGAACAACAAGAAGGAGAAAACAACGCAACGGAGUCAAAGGCGACAAGGAGCGAAGAAGAAAACAACAUAACAAAAGAAAAAACAGAAAGCAACAACAAUGAAGAAGAAAACAACAGAACGGACUCAAAGAGAACAAGAAGAGAAGAAGGAAACAACGAAACGAAAGGACAAACAGAAAACACGAACAAACGAAGAAAAAAAUAAAUCAAUGGGGGCAAAGACUGUAAAAAGGUAAAAAGAAAACAAUAGGACGAAAGAACAAACAGAAAAUACGAAGC'
p288
aF0.7932960893854749
aa(lp289
S'Hoglafractal'
p290
aS'AAGGGGAGCAUAUAAAAUAUACUAAAAUGUGUGAUGCGGUGCAAGUAUCGAAAAGAUACCACCUCGAGGAGAAAUCCGAGAUUAAAAGAUCAAAGGUCAAAAAAGACCGAUCAUCAAUGCGAGAAGUAGAUCGAGAUAAUGCCGACAGGAAAAUUCCAGUCAAAAAAGACGACCCAGGAAAAACCGGUUCUAGCGAGAGAUGUAAAAAGGAGGAAAAAACCUCCCCUAAAUGAGCAGAAAUGAGGUGGCUAAAACAUCAAAACAGAUCAUGAAUGGGGGCGAUGUCAAGGACGUCGAAAAAAUGUCGCCGAAAAAAUAUCAAAAACCUGAAAAGCGAGACCAACGAGGACACGCACAAAAGAAAAAUUCAAAAGUGGAGAGCAAGACGCUCCGAUCUGGC'
p291
aF0.8625
aa(lp292
S'Bullseye'
p293
aS'AAACGUACCCAAAGGGCAAAUUCAAGGAAUAAAGGCAAGUGCGGGGAAAAAAAUUUCGAUUGAAGGUCAAUAUCAAGGAUGAACAACAAAAAAGGAAUAAAAAAAGUCAAUUAAAGGUUAAAAUCGAAGGUUAAGUUAGAAUAGCGGCGAAAAAAACUCGGAUUACGUUAAGGAUUAAAAGUCAACAUCUAUGAUGGAGAAA'
p294
aF0.8712871287128713
aa(lp295
S'Shooting Star'
p296
aS'UUUCAGGGUAUUUUACUAAGGACAAGUUGUUAGCGAGCAAAGUAUCGACGACUGACAGGCAAAGUAAGAAGGUUCAUGACAAGCGGUCAUGAUCAGUCAGAAGAGCUAAUGACCUUACGACGAAUCAGGACAGAUGAGCUAGUAAAAAAAUACCACUUCAGAUAAGGUCUGACGGGUAAAACCUGUUAAAAGUUGGACGUGUAUCGGAACGAGGGAUACGUGUCCGAAGGGCGCGAGAGAUAAAGUCUUCCCUGGAGUCGAAACAACUUCACUGAUAAAGUCGGGUACGAGCAACGAAAGGAACAAGGAAGGAGCCAGGAAAGCGAAAGACUUCACGGCGCUAUAACGGACCGCUCACUGAGAA'
p297
aF0.8131868131868132
aa(lp298
S'Teslagon'
p299
aS'AAAAAAGUUAAAAAAGGACGGCAAGAAGGGCCAAAAAAAAAAAAAAAGGGAAAACAAACUAAAAAAAAAAAAAAAUCAGAGAAAAACCAGGGAAAAAAAGGUAAAAAAAAAAAAAUCCGAAAAAGCCAGUGAAAGAGUGAGCAAAAAAAAAAAAAAAGUAAAAACAAUGCAAAAAAAAAAAAAAAGGACAAAAAAAAUCGCGAAAAAAAGGAAAAAAAAAAAAAAACCGAAAAAACCAUGAAAAAAAGGACGGAAAAAAAAAAAAAUCGGAAAACAAGCGCAAAAAAAAAAAAAUUGAACGAAAAAGCGAACAAAAAAAGCAAAAAAAAAAAAGGAAAAAAAAAAAAAAACGGGCGAAAAAGGUGACGAAAGAUGCAAAAAA'
p300
aF0.8900523560209425
aa.