(lp0
(lp1
S'Simple Hairpin'
p2
aS'GGGGUGAAAAAACCCC'
p3
aF1.0
aa(lp4
S'Arabidopsis Thaliana 6 RNA - Difficulty Level 0'
p5
aS'GGGGGGUAAGGGGUGAAAAAAAAAAACCGGGGGGGUGAUAUAGGAUAUGAUGGGAUCAAAGGGGUGAAAAAACCCCAGAUCCCAAUCAUAUCCUAUAAAACCCCCCCAAACCCCCC'
p6
aF1.0
aa(lp7
S'Prion Pseudoknot - Difficulty Level 0'
p8
aS'UCAGGUACAUGGAAACAUGACUAUGAAAAAAAAAAA'
p9
aF1.0
aa(lp10
S'Human Integrated Adenovirus - Difficulty Level 0'
p11
aS'GGGUGGGGGGGGGCGGUCGGUUAAAAAAAAAUGGACUCGGGGGUGAAGGAAAGGGGGAAAAGUUGAGCAUCGGUUAAAAAAUGCGCAUCCACAAAAGGCCUCCCAAAAUUCACCAAAACCCGAAAAGGGCGUUAAAAAUACGCCCGUCCUAAAAAAAAAAUACCGGCAGCCCAAAACUCCCCAAAACCCAAA'
p12
aF0.96875
aa(lp13
S'The Gammaretrovirus Signal - Difficulty Level 0'
p14
aS'AAGUCAGUGUAGGGAAACCUACAAAGUCGAAAAAGCGUAAGGGAGGGGGGGGCAAAAGCCCCGAAAUCCCCCCGCGCAAGGGGGGACAAAAGUCCCCCCAA'
p15
aF1.0
aa(lp16
S'Saccharomyces Cerevisiae - Difficulty Level 0'
p17
aS'UUGCGACGCGUAAAAAAAGACGCUGGGAAAAAAAAAAAAGACCAAGGGGGGUAAAAAAGACCCCGUCGUAGGAAGGGUCGACAACGGUUAAAAAAUACUGGCGAAAAAAAAAAAUGCGCAAACGGUGCUAAAAAUGCGCCGUCGACCAAAAACGCUCGCAAGGUGAAAAAAAACCUGGGCAGGAAAAAACUGCCCAAUCAGUGCAAAAAAGGCACUCGGGCGUGAAGGGGAUGGCAUGAGAAAAAAAGCUCAGAAGUUAAAAAAGGACUUCAAGAAAGCCAAAAAAGGGCUUCCGUCCCAAAAGGGAGGGAAUGGUGAAAAAAAACUAGGGGUUGAAAAAAAGCCUCAAGCGAGUUAAAAAAGGGCUCCUCUCCCGAAA'
p18
aF1.0
aa(lp19
S'Fractal 2'
p20
aS'AAAAAGUGGGGGGGAAGGAGGGGGUUUCGUGUGAAAAAAAAGAUACAUGGGUGAAAAAAAAAACCCUACGGAAAAAAAAAAGUCCGAUAACCCCCUCCGAAGGUGGGGGGUGAUGGUGAAAAAAAAAACCGAAGGGGGAAAAAAAAACCCCAAGGGGGAAAAAAAAACUCCGAACCCCCCGCCAAGGGGGGGCGGUAAUAGGGAAAAAAAAACCUAAAGGGUGAAAAAAAAAACCCAAUCCGGAAAAAAAAAUGGGGGACCGCCCCCCAAAUCCCCCACAAAAA'
p21
aF1.0
aa(lp22
S'G-C Placement'
p23
aS'GGGCAAAGCCCG'
p24
aF1.0
aa(lp25
S'The Sun'
p26
aS'GGGAAGAGGGCAAAGCCCAAUUUUCCAAUGCUACAGCGGCAAAGCCGAACUGAGCUAAAGGAGUGGGCCGAAGGCCAAACCCCCAAUGGCAGGGGGCUAAAAGCCAACCUACCUAUGGCAGGGGUGUUAUACACAACCCACCUAUGGAAGCGGGGCGAAGCCCAAAGCUCCUAUUGCAGAGCAGCGAAGCCCAACCGACCUAUGGGAGGGGGCCGAAGGCCAACCCCCCUAAGGCACUAUAGCAAAGCUAAACAGACC'
p27
aF0.8217054263565892
aa(lp28
S'Frog Foot'
p29
aS'AAAAAAAAAAGGUCGAAAGACCGAUCGAAAGGUCCCGCGAAGUGG'
p30
aF1.0
aa(lp31
S'InfoRNA test 16'
p32
aS'GGGGGCACAGGGGGCAAAAGCCCCACUAGAGCCCCC'
p33
aF1.0
aa(lp34
S'Mat - Martian 2'
p35
aS'AAAUGAAAGUUUAAGGAGGGCGAAGAGGGUUAAAAAAGAGCCCUCCGCCCUCAAACGGGUGGUAAAAAAGGGGGUUAGGGGGAGUAAAAAUCUCCCCCAACCUCCAAUGGGGGGGGGGGGGUGAAAAAAACCCCCCACCCCCCCUAAAAGACCGCCCGAAAUCGUGGGUGUGAGUAAAAAAGACUCACAACCCCACGGGAAGGGUGAAAGCCC'
p36
aF1.0
aa(lp37
S'square'
p38
aS'GGGGGGCGGGGGCGGGGGGCGGGGGCAAAGCCCCCAAAAGCCCCCCAAAAGCCCCCAAAAGCCCCCC'
p39
aF1.0
aa(lp40
S'Six legd turtle 2'
p41
aS'AAAAAAUGAAUUAAAAAGAAAAGGAAACUAAAGGAAAGGCAAAAUAAAAGAGAAGCUAAUGGAAAUUGAAAGGAAAACAAAAAAAAAAAAAAAAAAAA'
p42
aF0.9387755102040817
aa(lp43
S'Small and Easy 6'
p44
aS'AACACGAAUAGCAAUGAAAAAAAAGCGGUU'
p45
aF0.8666666666666667
aa(lp46
S'Fractile'
p47
aS'AAAAAAAAAAAAGCAAAAGCAAAGGGAAGGGAAACUAACGUAAUCAAAAGAAAUCGGAGCAAAAGCAAACCAAGGAAAACCAAAAAAAAAAAAAAAAAAAAAAAA'
p48
aF1.0
aa(lp49
S'Six legd Turtle'
p50
aS'AAAAAUAGACGAAUAAUCUAAAACGGAAAUCAAAUUAUAAAUAUAAAGUGAAAGUAAAUUCGAAAGAUAAAUCAAAGGAGAAACAGAAAAAAAAAAAAAAAAAAA'
p51
aF0.9619047619047619
aa(lp52
S'snoRNA SNORD64'
p53
aS'GGGGGUGAAAAGGUGAAAGGUGAAGGGGUGAAAAAAAAAAAAACCCCAAAAACCAAACCAAACCCCC'
p54
aF1.0
aa(lp55
S'Chalk Outline'
p56
aS'AAAAUGUGUACGGGUGAAAACACAGGCGGAGUUGAAAAGCCUGGCGUAUGCAAGCAGUGCUAAGGCAAAAGUGCCACUUACUAAAAAAAAAAAAAAAAAAAAAA'
p57
aF0.9807692307692307
aa(lp58
S'InfoRNA bulge test 9'
p59
aS'GGGGGGAAGAGAGAGGGGGGCAAAAGCCCCCCCCCUCCCCCC'
p60
aF1.0
aa(lp61
S'Tilted Russian Cross'
p62
aS'AAAAUAGGUGGCAAAAAUGCUGGUGAGCCCUAAUGUACUGGUUUAAUCGCCAAGCGGCAAAUAGCCGCCCGUGGAAAUGCAAUCCUAAAAAAAAAAAAAAAAAAA'
p63
aF0.9809523809523809
aa(lp64
S'This is ACTUALLY Small And Easy 6'
p65
aS'AAAAAAAAAAAAAAAAAAAAAAAAAAAAAAAAAAAAAAAAAAAAAAAAAAAAAAAAAAAAAAAAAAAAAAAAAAAAAAAAAAAAAAAAAAAAAAAAAAAAAAAAAAAAAAAAAAAAAAAAAAAAAAAAAAAAAAAAAAAAAAAAAAAAAAAAAAAAAAAAAAAAAAAAAAAAAAAAAAAAAAAAAAAAAAAAAAAAAAAAAAAAAAAAAAAAAAAAAAAAAAAAAAAAAAAAAAAAAAAAAAAAAAAAAAAAAAAAAAAAAAAAAAAAAAAAAAAAAAAAAAAAAAAAAAAAAAAAAAAAAAAAAAAAAAAAAAAAAAAAAAAAAAAAAAAAAAAAAAAAAAAAAAAAAAAAAAAAAAAAAAAAAAAAAAAAAAAAAAAAAAAAAAAAAAAAAAAAAAAA'
p66
aF1.0
aa(lp67
S'Shortie 4'
p68
aS'GCAAAGGCAGCGAAAGC'
p69
aF1.0
aa(lp70
S'Shape Test'
p71
aS'AAAAAGUGGGUGAGGGGUGAAAAAAAACCCCAAGGGAGGCUGGGGCAAAAAGCCCCUGGGCAAAAGCCCAGCCCCCAAACCCUCAAAAAAAAAAAAAAAAAAAA'
p72
aF1.0
aa(lp73
S'The Minitsry'
p74
aS'GGCGAAAAGGUGAAAAGGUGAAAAGGUGAAAAGGUGAAAAAAAACCAACCAACCAACCAGCC'
p75
aF1.0
aa(lp76
S'stickshift'
p77
aS'AAGGGGGCGCAAAAAGCAGCCCCCAA'
p78
aF1.0
aa(lp79
S'U'
p80
aS'AAAAAGGGGCAGAGAGGAGAGGGGGGGGCAAAAGCCCCCCCCCCCCCGCCCCGAAAA'
p81
aF1.0
aa(lp82
S'Still Life (Sunflower In A Vase)'
p83
aS'AAGGUGUAGUGAUGAAAAACGUCCAACGCUCGAAACCGGAUUUGGCAAAAAGACGAUAAACUAAAACAUCAGAGGCGUAAAAGAUUCCAAGGGUAAAAAAUACCCGGGGGGAGCGGGGGGGGGGGGGGUGCGUUGAAAAAAGCGCAGGGGUAAAAAAAAAAAAGGGGUGAAAAAAAAAAAAAAAAAAAAAAAAAAAAAAAAAAAAAAAAACUCAAAAAAAAAAAAAACCCCGGGGCAAAAGCCCCAACCCCCCCCCCCCCCGCUCCCCCAAAGAGCUAAAUACCUUAAGUGGCGAAAAGCCGCAAACGCCAAAAAGGCGUAACGAGCUAAAUGCUCGAAACGGUAAAAGCCGUGACUGUGAAAAAGGAAUAUCACAAA'
p84
aF0.9682539682539683
aa(lp85
S'Quasispecies 2-2 Loop Challenge'
p86
aS'AAAAAGGCGUAUGAUUAGCGAAAGUUAUACAUAUGGAUAACAAAGGAGUCCUCGGCGACAGUAUUAAAUGUAAAGAAGCCGCGCCAAAAAAAAAAAAAAAAAAAA'
p87
aF1.0
aa(lp88
S'Corner bulge training'
p89
aS'AGGGGGGGGGGCAAAGCCCCAAAACCCCCCA'
p90
aF1.0
aa(lp91
S'Spiral'
p92
aS'AAAAAGUGAACGGGAUAUGGAGAUGCAGGUAAGGCAAGCAGUAUCUAUAGUCGGGAAAACCACAUGAGCGCUGCCUACCGCGUCCCGGUCCCGUCACGAAAA'
p93
aF1.0
aa(lp94
S'InfoRNA bulge test'
p95
aS'AAAAAAAAAAAAAAAAAAAAAAAAAAAAAGGGUAAAAAAGGGUGAAAGGGCGAAGGGCAAUAGCAGGGCAAAAAGCACCAGCAUAAAGCACCGAAGCACCAAAAAACGCCGAAAAAACACCA'
p96
aF1.0
aa(lp97
S'Worm 1'
p98
aS'AAAAAAAGUGACGCAGGCUUGAAGAAAACGUUUAGACGCAGUCUC'
p99
aF0.9111111111111111
aa(lp100
S'just down to 1 bulge'
p101
aS'AAAAAGGCUGGGGGCAAAAGCCCCAGGCAAAAGCCAAGACCAAAAGGGUAGGCAAAAGCCGGGCAAAAGCCAACCCAAAAAAAAAAAAAAAAAAAA'
p102
aF1.0
aa(lp103
S'Iron Cross'
p104
aS'AGGGAGGGAAUGGUGGUCGAAGGUUGGCAAAAGCGAGCCAAGUGUGGGCAAAAGCCUGUCGAAGUCUAAGAAUAGUGAGCGAAAGUUAAACAAAGUAAAGCUAAUCCGUCCUAUGGGACUCGA'
p105
aF0.943089430894309
aa(lp106
S'loops and stems'
p107
aS'AAAAAGGGGGGCAAAGGGUGAAUGGUGAUGGGCGAAAAAAAAGGCGUGAAAAAAAAAAAACGCCAAAGCCCUAAUUGGUGAAAAAAAAAACCAUAAACCAAAAGGUGAAAAAAAACCAAAACCCAUGCAAAAAGGCUAAGCCCCCCAAAAA'
p108
aF1.0
aa(lp109
S'Water Strider'
p110
aS'AAAAAGGUGAUUUCGUCGUGAAUAAUUAUUAGAAAUGAGCGUGCGAGAGUGUGUAAGCAUAAGAAAAUGGAAUGGUUCCUCCGCAAAAAAAAAAAAAAAAAAA'
p111
aF0.941747572815534
aa(lp112
S'The Turtle(s) Move(s)'
p113
aS'AAAGCAAAAUCAAAGUGUCGAUUGUAAAAAAAUCAAUUGACAAAGGGUGCAAAAGGCGCAAAAGGUCUAGUGACAAAGAGGGAAAAAAGCCCUCGAAAACUGAAGCGAAAUCAAAAGGACAAAAGUCAAAGGACGUUGAAAAAAAACGUCAAAAGGUAAAAGCCAAAAUGGGAGUGAAGGUUAAAAAAAGCCAUCGUUAAAAAAUACGUAAGGGGUGAAAAAAUCCCGAAGGCUAAAAAAGUCGAACUCCCUAAAAAAAUGCGAAAGCUAAAACGAAAUUUGAAUGGGUGUUGAAAAAAAAAAACACAAAAAAGAU'
p114
aF0.9683544303797469
aa(lp115
S'Adenine'
p116
aS'GGGGCAGGGGGCAGGGGGCAGGGGGCAGGGGGCAGGGGGUGAAAGGGGGUGAAAAAACCCCCAACCCCCAGGGGGAAAGGGGGGCAAAGCCCCCCCCCCCAGCCCCCAGGGGGGGGGGGCAAAGCCCCCCAAACCCCCAGCCCCCAAAAGCCCCCAAAAGCCCCCAAAAGCCCC'
p117
aF1.0
aa(lp118
S'Tripod5'
p119
aS'AAGGGGGGGCAAAAGGCCCGGGGAAAAACCCCCCCCAA'
p120
aF1.0
aa(lp121
S'Shortie 6'
p122
aS'CCAAAAGGAGGAAAACCAGCAAAAGCAGCGAAAGC'
p123
aF1.0
aa(lp124
S'Runner'
p125
aS'AAAAUGGAUGGCUUGAAAAGGGCAAGGCCUAAGGCAAAGGCGAUGGUUCGAAGGCAAACUGUGGUGAGAACUUAAAAUAAGCCGAAGGCAAAGGUAAAAGUCAGCCAAUUCUAAAA'
p126
aF0.9482758620689655
aa(lp127
S'Recoil'
p128
aS'AAAAAGGGGCAAGCAAGCAAGGCAAGGCAAGCAAGCAAAGCAGCAGCCAGCCAGCAGCAGCCCCAAAAAAAAAAAAAAAAAAAAA'
p129
aF1.0
aa(lp130
S'[CloudBeta] An Arm and a Leg 1.0'
p131
aS'AAAAGGUCACGAGCGAAAGCAUCGGUCAGGGAAACCGGCGGAUAAAAAAAAAAAAAAAAAAAA'
p132
aF1.0
aa(lp133
S'[CloudBeta] 5 Adjacent Stack Multi-Branch Loop'
p134
aS'GGUGCGGGCGAAAGCCCGUGGCGAAAGCCACGGGGCGAAAGCCCCGCGCAAAAGCGCGCACCA'
p135
aF1.0
aa(lp136
S'Triple Y'
p137
aS'AAAAUUACAACGCAGCGAAAGGUCCGGGCGAAAGCCCGUGAAUGAGGGCAAAGGCCCGAUAUAAUUGUACUCCGAUAUAAAAAAAAAAAAAAAAAAA'
p138
aF0.9587628865979382
aa(lp139
S'Misfolded Aptamer'
p140
aS'GGGUGAAAAAGCGGCAAAGCCAGUAAAAACAAAAAAAAAGCAAAAAACCC'
p141
aF1.0
aa(lp142
S'Flower power'
p143
aS'AAAAUGUAAUCGCGAAGUGAUUCCGGGGCAAAGCCUAGGGACUAUGUCCAAUGCCAAAGCUACGUGGACGCAAAACGCUUGCUAAAAAAAAAAAAAAAAAAA'
p144
aF0.9215686274509803
aa(lp145
S'Kudzu'
p146
aS'AAAAAAGAUCAGCAGGGUCAUAUGAGCUAUGUCAAUAGCUGCUUGAAGCGAAGCAAAUAGGAAGCAGAAUGAAGAGCGUUUAAAAAAAAAAAAAAAAAAAA'
p147
aF0.9405940594059405
aa(lp148
S'"1,2,3and4bulges"'
p149
aS'AAAAUGGUGGGUGGAGAAAUCGAAAGACAGGAUAAUCCCGUCAUGUAAAGUGAAGUAGAAAUAAAAUAUGCAAAGGCAGACAAGUAAAAAAAAAAAAAAAAAAAA'
p150
aF0.9619047619047619
aa(lp151
S'medallion'
p152
aS'GGGCGUAGGUCGCAAAAGCGACCAGGCAAAAGCCAGUCAAAAGACAGUGGGCAAAAUUCCGCAGAAUAAUUUCAGAAGGGUAAAACACGGAACCUAAGGCCGGGAAAAAUCCAGGGGCCAAAAGGCCUCGGGCAAAAGCCAGGGUGCUAAUGCACCCAGCCAAAAGCAAGGGAAAACCCGGGGCGGUAAUCCCCCCAGGAGAAAUCCAGGGGGAAAAAUCCAUCGCGCGAAAGCGAAUCAAAGGCCGGGAUGCGAAAGCGUUCUGCAAAAAUGGUGUGGGCAAAAGCCCGCAGCUAAACGGGGGGCAAAGGCCAGCAUGCAAAAGCGGGCGACGCCU'
p153
aF0.884272997032641
aa(lp154
S'[RNA] Repetitious Sequences 8/10'
p155
aS'AGGAAAAAAGCAAAAAAGCAAAAAAGUGAAAAAGCAAAAAAGCAAAAAAGCAAAAAAGCAAAAAAACAAAAAACCAAAAA'
p156
aF1.0
aa(lp157
S'Documenting repetitious behavior'
p158
aS'AAAAAAAUUAAAAAAAAAAUAAAAAAAAAUCUAAAAAAAAGGAAAAAAAAAGGAAAAAAAAACGAAAAAAAAAGAAAAAAAAAAGUAAAAAAAAUCUAAAAAAAAAUCAAAAAAAAUAUGAAAAAAAAAUUAAAAAAAGGCAAAAAAAAAAUCCAAAAAAACCGAAAAAAAAUCGAAAAAAAAGCAAAAAAAAAGUGAAAAGAAAAAAAAAAAAAAACAAAAAAAAAGGAAAAAAAAAGGUAAAAAAAAACAAAAAAAAAGCAAAAAAAAUAUAAAAAAAAAAUUAAAAAAAAACGAAAAAAAGAGUAAAAAAAAGCAAAAAAAAACCGAAAAAAGAAGAAAAAAAAACCGAAAAAAAACCAAAAAAAAUGAAAAAAAAAAAUAAAAAAAAAAAAAAAAA'
p159
aF0.8975
aa(lp160
S'7 multiloop'
p161
aS'GGGCGAGACGAAAGUCUCGGUCCGAAAGGGCCGGUGCGAAAGCGCCGGGGCGAAAGCCCCCCGUCAAAAGACGGCGGACGAAAGUUCGGCCC'
p162
aF1.0
aa(lp163
S'Kyurem 7'
p164
aS'AAAAAGGGCGGCAGAUAAUUCGCCCAAAAUAGGAUUUUAAAUAACAGAAAGCGAAAAAGCUAAACUCCCUGAGGGCCAGCCCGAAAAAAAAAAAAAAAAAAA'
p165
aF0.9803921568627451
aa(lp166
S'JF1'
p167
aS'GGGGGGGGGGGAGGGUUAAGGGGUGAAAGGGGGCAAGGGGUGAAGGGGCAAGGGGGUGGGGGGGGGGGGGGCAAAAGCCCCCCCCCCCCCAAGGCAAAAGCCAGGGGGGGGCAAAAGCCCCCCCCAAGGGGCAAAAGCCCCAACCCCCAGCCCCAACCCCAGCCCCCAAAGGGGGGGCAAAAAGCCACCCCCAAGGGGGGGGGGGGGGGGGGGGGGGCAAAAGCCCCCCCCCCCCCACCCCCCCCCCAAAGGGGUGAAAAAACCCCGGGGGGGGGCAAAAGCCCCCCCCCAAAGGGCAAAAGCCCAAACCCCAAAGCCCAGGGUAGUAAGGCAAAAGCCUGCGCCCAGGGGGGGGCAAAAGCCCCACCCCACCCCACCCACCCCAAA'
p168
aF1.0
aa(lp169
S'multilooping fun'
p170
aS'CAAAAAGGGAAAGCGUGAAAGACAGUGAAAAAUUUG'
p171
aF0.8888888888888888
aa(lp172
S'Multiloop...'
p173
aS'AGCUGUGGUAUAAAAAAUUAACUCAAAAGGGCGACAAAGGUCUUUCAAAAGGUGGAUGAAAGUCUGACGAAAGUCAACCAAAGGGUGAAAAAACCCUAACGAAAGUUAGCU'
p174
aF0.9459459459459459
aa(lp175
S'hard Y'
p176
aS'AAAAAGGGGGGACGGAGGGCGAAAGCCCUCCUGCCGGGGCGGGGGUAAUCCCCCGCCCCCCCCAAAAA'
p177
aF0.9705882352941176
aa(lp178
S'Mat - Elements & Sections'
p179
aS'AAAAAUGUCGCAAGGUGGGUUGGUGUAUCGUCCGUCAUGCGGAAAGUGGAAGAACGGUAGAGUAAAAGCUGCCCUUAAGGAGACAAAAAAAAAAAAAAAAAAAAA'
p180
aF0.9619047619047619
aa(lp181
S'Chicken feet'
p182
aS'AAAAAGGAGCUCUAAAGGACGAAAAGAACGACAAGUAUCUCGGAAUCGUAAAAGGAAUCGCCGAAAA'
p183
aF0.8507462686567164
aa(lp184
S'Bug 18'
p185
aS'AGUGGUAGGAGCAACCUGGCUACUAUGUUAGCAACGAUAAUCAGACAAAAGGA'
p186
aF0.9245283018867925
aa(lp187
S'Fractal star x5'
p188
aS'AAAAGGGAGGGGUGAGGUUGAAAAACCAUGCGCAAAAGCGCUAUGGCGAAAGUCGAACACUAAAAGGUGGAACCCCUCCAAAAAAGGCGCGGGAUGUUGAAAAACAAAGGGAUAAUUCCCGAGUGUAAAAACGCGAGGAUGAAAAUCUGACCGCGCUUAAAAAGGGGGGGUUAGACCGAAAGGUCAAGGCCGAAAGGCCGGGUUCGAAAGGACAAGCGCAAAAGCGUGUACCCCCCCAAAAGGAAGCGGUGAGUUUAAAAAAACGUGGGCGAAAGUCCUGUGGCGAAAGCUAAGUGGCUAAUGCCGAAACUGCUUCAAAAGGGGGGGCCGCGUUGACAACAACUACGAAAAAAUUCGAAGGGCAAAAGCUCAAUCGGAACGCCGAAAGGCCCCCCAAAAA'
p189
aF1.0
aa(lp190
S'Crop circle 2'
p191
aS'CAAAAUAAAAGGGAAAAAACAAAAAAAAGCGUAAAAAAAAAAAAAAAAAAAAAAAAAAAAUUUAAAAAAAAAAAAAAAGAGAAAAAACGUGAAAUAAAGGGCAGGGGAAA'
p192
aF0.9454545454545454
aa(lp193
S'Branching Loop'
p194
aS'GGGGUACAAAAAAAACAUCGAAAGGUGGAACCCAAAAAAA'
p195
aF0.95
aa(lp196
S'Bug 38'
p197
aS'GUUGGUUCGAUUGAAAAAUGGCUCGGUAAAAAAAAA'
p198
aF0.9444444444444444
aa(lp199
S'Simple Single Bond'
p200
aS'AAAAAAGAAAAAAAAUAGAUGAAAAGUCUUAAAAAAAGCAAAAAAAAAAAAAAAAAAAAAA'
p201
aF1.0
aa(lp202
S'Taraxacum officinale'
p203
aS'CUAGGAAACAUAGAGGGGGAAACACCCAGGUCGAAAGAACCAGGGGGAAACACCCGGGGGGAAACACCCAUGGAGAAAUACCAAGGGGGGAGGGUGUGGGGGGGUGAAACGCCACCCCCGCGGGGGUAAGUGUUGUGAUAAUGUGGGCAAGGCCCGCGGGUCGUAGCGCGCGGAUGGGGCAAAGCCCCGCUGCACCCCAAAGCCCUCCCCCCAGAGCAAAAGACUCAGCGCUAAUGACGCGGGCGGAAACAGCCAGGGCAAAAGACCCAGGGCAAAAGACCC'
p204
aF1.0
aa(lp205
S'Headless Bug on Windshield'
p206
aS'AAAAGCAAAAAGAGGUGAAGAACUUAAAAAAAAAAAAAAAAAAAAAAAAAAAAAUUAAAGCCAUCAAUGCCUUAUCAGAGCCAAGUUAAAAAGGCUAAUGCAAAAAAUACUGUGAAAAAUGAGGGUGCGAAAAAAUGAAAGCAAUAAGGCGAGGUGAAAAAAAAAAAAAAAUUAAUGAAUUAAAGCAGCGAACUGUCACA'
p207
aF0.97
aa(lp208
S'Pokeball'
p209
aS'AAGGGUAUUUAAAAUGAAUCGUGGGAAGCAAUGAAACUAGCAAUGAAGGAAAGCACAAAGCUGCGCAAAGCACCCUGAACAGAGUACCAAAAAAAAGGGGCGCAAAAUCCGGACUGGCGAUAAAGGGAGAAAUGAAACAAUAAAAUGAGUAAAAGUCACAAACAAGCCGGCAGCGCGUUCCAAA'
p210
aF0.9782608695652174
aa(lp211
S'Variation of a crop circle'
p212
aS'AAAAGAGAAGGCAAAGUGAAAGGAAUGCAGGUAGAAAAAACUAAUUUAAAAAGUCAAAAAACGCAAAAAAAAACUAAAAAAAAAAAAA'
p213
aF0.9090909090909091
aa(lp214
S'Loop next to a Multiloop'
p215
aS'AAGGGGGGGUUAAAAAACGGGGGGCAAAAGCCCCCAGGUGGGCAAAAGCCCGCCGGGAAAAAUACCCCCCCAA'
p216
aF1.0
aa(lp217
S'Snowflake 4'
p218
aS'ACAGAAAUUGUCGGAGCGAAAAGCGCGGUGAGAUGUCGUAUUUGGGGGACUGCAAAGCAGACUUGCAAACCGACCCCCGCUAAAGCACGCCAAGGGAUGCGAAAGUAGGGCAGGGUAGUGCCAAGUGCGAAGCGCGCUCUGCAAAAGCAUCCCAUUGGGCGGAAAAUCGGUGAGGCCAAAGUCCAAGGGCAAAGCCCGCACCGCUAAACCGCCCAUGGCGGCGAGAAAGCGUUGUGGGCAAAGGACAAGGAGGAACUUCACGCCGAUAAUUCGUCGCAACGGGUCGAAAACCGGGAUCGCCAAAGGCGAAGUACUAUUAGCACCCCUCGAAAGGCCCCCGAACCGCGCAAAACCUUCCGUGGCAAGGCCG'
p219
aF0.8891891891891892
aa(lp220
S'Mat - Cuboid'
p221
aS'GGAUAAAAACCAAGCAAAAAUAAGCAAAAGAAGUAAGCAAAAGUAUGUAAACAAAAGAUAUAUGUAAACAAAAUGAUCGAAGUAAAAAAAAGUAAUAAAGUAAGUAAGGAAAAGCAAGGUAUGUAUGAAUGAAAAGCAAUGAAGCUAUAAAUAAGUCUAAAGGUACGGAUAAACGAAUAAAUAAAAAGUAAUGAAUGAAUGAUUUAGUGUAAAAUCAAACAUAUAAACAAACAAAGCAAAAUAAACAAAUAAAUUAUCCAAAGCAAAUAAUCAGAAAGGGUCAAACGAGCGAUCAAAGCACAGACUAACAAUAAAGCACAAACAGACUACGACGAACUAACUACAUAAACUAACACAAACAACACAAAUACAAAGUGAAC'
p222
aF0.7368421052631579
aa(lp223
S'Misfolded Aptamer 6'
p224
aS'AAAAAUGGUGAAAAACUGUAGGGAAGGCUGAAAAAAAGGCAAAACAAAAAACGGAAAAAAAACCUAAAAAAAAAA'
p225
aF1.0
aa(lp226
S'Snowflake 3'
p227
aS'CGGGCAAAAGCAGGAGGCAAAAAACAAGGUGGGGGUAAAUCAAAAGACGGCGAAAAAGCUGUGACACCAAAGAAAUUAACCGGCAAAAGCCAGACCCCGGUUUAGCGGAAAUCCUGAUAGAAAACUGUCUAUGGCGCAAAAUCUUCGGGCUAAUUCAAUAACCAGGGCGAGGAUAAUUUCUUUGAGGAAACUGGGAAACCCUCGAAAGGAAAAGGUUAAUGCCAAGUCCAAGGUGACGCUAAUGCCGGUGAGGAAACUCUCUAUGACCGGAAAUGAACCGGCUAAUUCUAAGCCCACGGAGAGGGAAAACCUGGUGAGAAAACUUGCGAACCAGAUAAUUCAGCCGGCGAAAGCAAACCCCAUAUCAAGAGAAAAGCCUCCAGUGAAAGCCCG'
p228
aF0.7837150127226463
aa(lp229
S'Hard Y and a bit more'
p230
aS'AAAACGGGACAUAUUCGUAAAGGCGCAAGAGUAUCUGUAGUGUCAAAGGGCAAGGCGGAGAAAAAUCCGCAAACUGAUGCGUCCCAAAAAAAAAAAAAAAAAAAAA'
p231
aF0.9716981132075472
aa(lp232
S'Mat - Lot 2-2 B'
p233
aS'GAAGGAAACUGCGAUCAAAACAAUUAGUAAAAGUAAAAUAUAGGCAAAGGAAAAAAAGUCGUAAGGAAGCAAAGGCAGGGAAAAUCAAUAACUAUUAAAAUAAAAAUGAAAGGUAAAAUAAAGUCAAAGUUCAUCGAAUCGAAAGGGCAAUAACAAUGAAAAUCAAUAAUGAAAGUAAAAUAAAGCCGAAGCAAAAUAAAGCCAUAAAAAAAAAGCGAAAACAAAAGCAGUGGCAAUGAAAAGCAAAAGGCAAAGCAGAACAAGGAGAAAGCCCGCGCAAAAAC'
p234
aF0.7429577464788732
aa(lp235
S'Shapes and Energy'
p236
aS'AAAAAAGGGUCUAUUAAAAAAUAAGGAGUGCGAAAGAGCUCAUGAUCACCGUGGUGGCUUUGAAAAAUCGACGGGAACAUGAAAAAAAAAAAAAAAAAAAA'
p237
aF0.9603960396039604
aa(lp238
S"Spiral of 5's"
p239
aS'CAAAAGGGGUGAAGGGGUGAAGUGGUGAAAGGGGUGAAUGGGUGAAGGGUUGAGGGGUGAAAGGGGUGAAGGGGUGAAGGGGUGAGGGGUGAAGGGGGGAAGGGGUGAGGGGUGAAGGGGUGAGGGGUGAUGGGUAAGGCGUUAGGGGCAGGGGCAGGGAGGGGGCAAAAAGCCCCGGGGGCUCCCAAAAAGCCCCAAAAAGCCCCAAAAUACGCCAAAAGACCCAAAAAAACCCCAAAAAACCCCAAAAAACCCCAAAAAACCCCAAAAAUUCCCGAAAAACCCCGAAAAACCCCAAAAAACCCCAAAAAACCCCAAAAAACCCCAAAAAAGCCCAAAAAACCCGAAAAAACCCCAAAAAACCACAAAAAACCCCAAAAAACCCCAAAAAGAAAAA'
p240
aF0.9949622166246851
aa(lp241
S'Campfire'
p242
aS'AAAACGGCAAAUCGAGAGGGUAAGUGCAAAAGGCACAGAAGCGAAGCCACCUAUCCAGUAGCAGCAGCAGUGGCAAAAGCACGUGCACGGUUGGCAAGUAUCCAAAUGACACGGGGAGACAAAGGGUCCACCCAAAAAACGUCCAACCUCGAUGGCAGGUAGGAACGGCGAAAGUCGUCCACUGGGGGGGCAAAGCCACCAUCCGGCCGCCG'
p243
aF0.8820754716981132
aa(lp244
S'Anemone'
p245
aS'AACACAGCCUAAUGGCUGUAAACGUAAUCGUUUGCUCGUAAAGACGAGCCGCGGGAAACUGUGGGUGGCAAAGGCCGCCGGGGUUAAUGCCCCGGAUCUAAUGAUCCGGGAUCGAAAGGUCCCACGCGCGAAAGCGCGGCAUUCGAAAGAAUGCGUGCCUAAUGGCGCGGGUGCUAAUGUACCCGGGUUGAAAAGCCCGAGUUCAAAGGAACUC'
p246
aF1.0
aa(lp247
S'Fractal 3'
p248
aS'AAAAUGUGUGGUCAUCAAAAGCACAAAGAUAGACAGCUAGUAAAAUCGCUAAUGGAGGCGGACAUCAAAAGAUCGAAAGAAGCCACGCAGGUAAUCUAGAAAAUGAGCCUGCACUAAAA'
p249
aF0.9159663865546218
aa(lp250
S'Kyurem 5'
p251
aS'AAAAAGUGUCAAUAGUAAUCUGAUGAAAAUUGCGGUCAAAAGCUAAAUGCCGGCCCGCAAAAAGCAGAGCAGCGGACGAAACGUAAAAAAAAAAAAAAAAAAAA'
p252
aF0.9807692307692307
aa(lp253
S'Snowflake Necklace ( or v2.0 )'
p254
aS'GGGGGGUGGGGGGGGAUUCGCGGCAAAAGGAAGGAAAAAACGGCAAAAGGCAGCAAAAAGCAGCAAAAAGCAGUCGAGGUCAAAAAGAAAUGGGUGACGAAAAGCAGCGAAAAGCAGCAAAAAGGAAUAAAAAAUAGCAAAAAGCAACCCGAACCUAAAUACCGGGGGCGGAAAAAAGCAACAAAAAGUAGCAAAAAGCAGCAAAAAGCAGCAAAAAACAGCCCCAGACAAAAGGACAGCUCUGGCAAAAGGCAUAAAAAUAGGGCAAAAAGCAGCAAAAAGCAGAAAAAAUCAUGGGCAUGCGAAAAGCAAGGGCUGGUAAAAAACGGAAAAAAUCAGGAAAAAUCGGCAAAAAGCAGCAAAAAGCAAUCCCAUCCCCCCCGCCCCCC'
p255
aF0.87146529562982
aa(lp256
S'Methaqualone C16H14N2O Structural Representation'
p257
aS'AAAAAAAGGGUUGGGCAUGUGGCCAAAAGCCAGGUGGGCGAAAGCCUGGUUAUCAAAAGAUAGGUGGGAAAAAGCCAGGUAAAAAAAAUCAACCUACCUGCCAACAAGAAACAGCCCUGGGUGAAGUGGGUGAAGUAAAGCAAAAAAAAACCUGGGAGGCAAAGACCGGUAAAAAUCGGCUAAAGUCCCCUACAAAGCGCAGAAACAGGCAGGUGUGUGCUUAGGGAAAAGCCAAAAGACAGGCAGUCAAAAGACAAAUGGGCGAAAGCCAACAAGGCAAAAGCCAACCGGGACUCAAAAGAAGGAAAAAGCCCGGCAAAGCCCUCCAGCCGGCGCAAAACCCAGCCCAAAAAAA'
p258
aF0.8985915492957747
aa(lp259
S"Cat's Toy 2"
p260
aS'AAAAGGUUGGUUGAAAUGGGGUAAAAAAAAAAAAAAAAAUCAGUUGAACCGAAAGGAAACCAAAAGGAAAAAAACGAAAAAAAGAAGCCAGCCAAAA'
p261
aF0.9381443298969072
aa(lp262
S'Zigzag Semicircle'
p263
aS'AAAUGUUCGGGUAUAAAAAGACUCCCAAGCUAAA'
p264
aF0.9411764705882353
aa(lp265
S'Short String 4'
p266
aS'AAAAAGAAACUAAUCGAGAAUUACAAGCAAAUAUUGAAAAAAGAUCAAUAAAAAUAGAGGAACGAAGAGAAAACGUAAAAAAAAAAAAAAAAAAAAA'
p267
aF0.9381443298969072
aa(lp268
S'Gladius'
p269
aS'GGAAACAAUAAAUGAAAGAUGACAAUGAACGUAGGUAAGGGGCGAAAGCUCAGUGUCAAGAACGAGAGGGUCAAGUUGUCAAGUAUGGGGGCAGGAAUCAGGGGCAUUUGGGCGCAAGGGCAAGGCCCGGCGACCGAGGACCCCGAGUUCCGACCCCCGUUACAGACAUGUGGACCAAUACGUAACAGACACGACCAAUCGAAGAGGCUUCACAGAUAAUUCAGUGUGGCCCGAAGUGUGGGAGGGGGUACUAGUAGGGGGAAGGCAGGGCGCUAAUGCGCCCAAGCCUACCCCAUGCUGAGACCCCACCCCGCGCGUAUGGCUUAAAUGGAGGACCUGGGUGGUUUCAGGGCAAAAGCCCAAGUCGUACUAAUCGAGAUUGCAAACAAAGAAAGAAAAC'
p270
aF0.8925
aa(lp271
S'Thunderbolt'
p272
aS'GUGGGCGGUGAAAAAAAAAGGAAUCCUAGGGGCGAAAGAGGGGUGGUAAAAAAAACCCUAAAAAGGGUUAAAUACCCAAAAAAACAAAACGGGGAAAAAAAAAGGAAAAAACAAUGAGCAAUGAAAAAGGAAACAGGGUUAAAAGGUGAAAGCAAUCAGAAACGGAGAGAAAAAACCAGGGGGAACAGAAAAAGGAGAGCAAAGCUCAACAAAAAAGGAGACCCCAAAAAAAUAUCCAGGGAGGGGGAAAAUCCCCCGCAGAGCAGAAAAAAAAACCGAGUAAAAAAAAAAGGGCAAAAGGGGGUUGAAAUCAAAAAAAAGUAAAAAACCCCAAAAAGAAAACCGCCCUAAAAAAAAAUGAAGUCAAGAAAAGAAAAAAACAACCGUAAGCA'
p273
aF0.9540816326530612
aa(lp274
S'Mutated chicken feet'
p275
aS'AAAAAAUACCGUGGGCAAGGAGCGAAGGAAAAAAUUAAACAAGGAAGAAAGAGAAUCGAAACAUAACAAGACAAAACGAGGAAAACAAAGCAUAAAAAAA'
p276
aF0.8
aa(lp277
S'Chicken Tracks'
p278
aS'AAAAAAAAGUCGGGGUUACAAAUGUGAAAGGGCAAAAGCCCAAGGGCAAAGGCCUCCCCGACAUGGGGUCCAAGGGACAAUGGCUAUGCCAAACGACAAAGUCGCCCUAAAAAAAA'
p279
aF1.0
aa(lp280
S'Looking Back Again'
p281
aS'AGUGGCAGGGGGGAAAAGGUAAAGAAUUUCACUAUCCAGGAGGUGAAGGCAAGGUCAGCGGGUGCAAGCGGCGAAAGCCGAAAGGCACCAAUCCAACCCAAGGGGGAAGAAAGCGUUUAAAAAGGCGAAAAAAGCCGGGCUGCGGCAAAGGCCCGUGGCAAGGCCACUGGAGAGCAAGAAGAAGGGGAACAUUAUGAAAGCAUAUAGACAGCUAACUGCGUCAAAGGAGAAACCCCCAAAAGCCUCACUUGGCGUGAUACAAAAAACGUGGGUAAAAAAAAAUGUAAAAGGCAUACCCAAAUCCGGUAUGGGUAAAAAAGCGGUUCAAAAGUGAACCAAGCGGCGAAGCAGGGGCAAAGCCCCGAUGCGCAAAGACCGACGCGUAAACU'
p282
aF0.8431876606683805
aa(lp283
S'Multilooping 6'
p284
aS'AUUUCGGAGCGCGUGAAAGCACAUGUUGCUAAUGCAACCCCCGUCUACCGAAAGGUAGGGUCGGAAAUGACCGAGUUGAAUA'
p285
aF0.926829268292683
aa(lp286
S'Cesspool'
p287
aS'GAAGAAGAAAACAAGGUAAGAGUGUCAAAGACUACAACAAACCAAGUAUGAAAGAUCGAGAGAAAACAAUAAAAGAAAAAUGAAAACAAGAAGGAGAAAACAAGGCAACGGAGGAAAAUCCAGCAAGAAGGCAAAUAUGAAAGAAUACUGAAAAAUAACAAAAGAAAAACGACAACAAGCAAGAGGAAAGCUAGGGAAGAGAGCCUAUGGCAACAACAAUUCGAAAAGGAAACAACUCGAGAAAACGUCUAUAGAAAAAUGACGAGCAAGGAAGAAGAAAACAAGGGAAGAGACGCAAAGCGAACAACAACCCAAAAAUUAAAGAAUACAAGAAAACAGGAAAAGAAAAACGCCUAAC'
p288
aF0.7960893854748603
aa(lp289
S'Hoglafractal'
p290
aS'AAUGCGAAGGAUCAAAAGGGGUAAAAAGACCCCAACCCGGGCAAAGGGCGAAAAGCUCGCCCGGCAAUUUAAAAGAGACCAGGGAAAGAGCAAAGGGCUAAAAUGCCCGCUCGUCAAUGCAAAAAGCCAACGUAGCAAAGGCGCAGGGGAAAAUCCGAGGCGAAAAAGCCAGAGCAACUAAAUUCGCGGCAAAAGCUAGGGGUGAAAAGCAGUAAAAAAGCACGGCAAAAAGCCGCAAAAGCAGGGGCUGAAAAAGGCUAAAAUGCCUGAGAAACAAAAGGGGGGCAAAGCCCCCCAAAAAAAAGCCUCAAAAAAACCCCAAAAACCCCAAAACGCAAACAAAGAAAGGGUAGUGGAAAUGCAAAAGCUCAAAAGAAGGUGCAAGGUACUCACCACACGC'
p291
aF0.8975
aa(lp292
S'Bullseye'
p293
aS'AAUGCUUACUAAUGAUAAGGGACGAAGUCCAAAGCGGAAAGCUACCUAAAAAAACGUCGGCUAUGCGAAACUUUAAAGAACAAUUGUGAAAUCAACUAAAAAAAAGCCGGACGAAACCCAAGAUCUAUGAUCGAGGGCAAAGCCCAAUAAAAAAAAUAUCGACAAAGUCGAAGGGCGAAGCCCAAGUGUAACGCAUGUCGAA'
p294
aF0.8217821782178217
aa(lp295
S'Shooting Star'
p296
aS'UGGGCUGAUUUCGGGGGCAAGAGAAUGAGUGAGGGAGGAAAACACUCACUCUGCAAAAUCGUCCACCCGAGGGGCAAUGGCAUGAGGAAGUUGCAGGCAGCCCAGAAAAACACACGACGCCGACGUACAUUACAAAUCAAACCAAAAGAACUCCUGGGGCUUCAAAGAGGCAGCGGCGAAGCCGCGUAAAAAUUUACCCCAGAUCAGGCGAGGGCAAAUGGUGGCAAAGCCACCAAGAGGAAAAUCUUUGCCCGUGGGGCAAAGCCCAACAGAUACAAAGUGUCCGCUAGUGAAGGAAACAUUGAGGUAUAUAGGGCGCGCAGAAAAACACUCACCCUGGAGAAAAACCUUUCGCUAAGCCUAA'
p297
aF0.8296703296703297
aa(lp298
S'Teslagon'
p299
aS'AAAAAAGUAAAAAAAUUUGCAAAAAAAGUGGUAAAAAAAAAAAAAAGAUAAAAAAGGGUAGAAAAAAAAAAAAAAAGAACAAAAAAAACUGAAAAAAAAGGGAAAAAAAAAAAAAAAAAAAAAAAUUAGGAAAAAAUUCGCUGAAAAAAAAAAAAAAAGAAAAAAUGGGAAAAAAAAAAAAAAAUUCUGGUAAAAAGUCUCGUAAAAAAGAUAAAAAAAAAAAAACCCAAAAAAUUUUGGAAAAAAUAGGGGAAAAAAAAAAAAAAGGCAAAAAAGGGUGAAAAAAAAAAAAAAAUGACUUAAAAAGCCAGUAAAAAAAGAGAAAAAAAAAAAGGGAAAAAAAAAAAAAAUCAACGAAAAAAGCAAAAAAAAAAACGGAAAA'
p300
aF0.8586387434554974
aa.