(lp0
(lp1
S'Simple Hairpin'
p2
aS'GAAACAAAAAAGUUUC'
p3
aF1.0
aa(lp4
S'Arabidopsis Thaliana 6 RNA - Difficulty Level 0'
p5
aS'GAUACACAAAUGACAAAAAAAAAAAGUCGAUACACGUCCAUAUAUAUAUAUAUAUACAAAGGAACAAAAAAGUUCCAGUAUAUAAUAUAUAUAUAUGACCGUGUAUCAAGUGUAUC'
p6
aF1.0
aa(lp7
S'Prion Pseudoknot - Difficulty Level 0'
p8
aS'GAAACCAGAACAAAAGUUCGGUAUUCAAAAAAAAAA'
p9
aF1.0
aa(lp10
S'Human Integrated Adenovirus - Difficulty Level 0'
p11
aS'CUCCAGGAACGUAGAUGUGGCGAAAAAAAAAAGCAACGAAGGUCGUUUUCGAAGGGCAAUACAAGCUUCUAUGUAAAAAAAGGCAUAGAGGUAAAAUUUGUUUAAAAGUCGCACAAAAGUUCGGUUAUAUCCAAAAAAGGGGUAUGUGCGAAAAAAAAAAAGCUACAGCUACAAAGGUUCCUCAAGGAGAAA'
p12
aF0.9479166666666666
aa(lp13
S'The Gammaretrovirus Signal - Difficulty Level 0'
p14
aS'AAGAGACGACACCAAAAGGUGUUAGCCCAAAAAAGAACAAGACAGAAACAGACAAAAGUCUGGAAAUUUCGUCGUUCAAGAUUCACCAAAAGGUGAAUCGA'
p15
aF1.0
aa(lp16
S'Saccharomyces Cerevisiae - Difficulty Level 0'
p17
aS'UAUACCACAGGUAAAAAAUCCUGAGAAAAAAAAAAAAAAAAUCCAAUCACCUGAAAAAAAGGUGUGGUAUGAAAAGUUAUGUAAGAACAAAAAAAAGUUCCCCUAAAAAAAAAAAUGGGUAAAGUAACUAAAAAUGUUACGUGUAGCAAAGGAAACCCAAGAACAAAAAAAAGUUCCACUCGUAAAAAUCGGGUGUAAAGAAACUAAAAAUGUUUCGGGUUUCAAAAGCUACAGAAGAACUAAAAAAUGUUCCACACCAAAAAAGGGUGUGUACAGAAACGAAAAAAGUUUCUAGUAGCGAAGUAUACAAAAGUAUUAAAAAAUCUGCCACACGAAAAAAACGUGUGUAAAGAAACAAAAAAAGUUUCUUGUAUGAAAA'
p18
aF0.9947229551451188
aa(lp19
S'Fractal 2'
p20
aS'AAAAAGAUGCACGAAUGGUAGGCAUAUGGUGUAAAAAAAAAAGCACAAAGACAAAAAAAAAAGUCUAGGAUCAAAAAAAAAAGGUCAUUAUGUCUAUCUAAGAUACAGAUAGACUACAAAAAAAAAAGUGGAAGGACAAAAAAAAAAGUUCAGGACCAAAAAAAAAAGGUCAAUAUCUGUAUCGAGGAUACACAUAUUGGGUCAAAAAAAAAAUCCUAGGACAAAAAAAAAAGUCCAGCUACAAAAAAAAAAGUAGAUUAUGUGUAUCAAACGUGCAUCAAAAA'
p21
aF1.0
aa(lp22
S'G-C Placement'
p23
aS'AGGGUAUCCCUU'
p24
aF1.0
aa(lp25
S'The Sun'
p26
aS'GGCUGGUUAACGAAGUUGUAAUCGUCAAACACAGAUACGCAAAGCGUAAAUCGUGGAACACUGAUCGCGUAUAAGGAACCCGUGGAACACAGGCAGCCUAUGCGUAAGUCGUGAAUCCAAGAUGCACAAGAUAUAAAUCACGUAAAUCAUAUGAACUAUGUAUAAAUCGAUACACUCAUGUGCUCUAUGGGUAAACACAGUAACACAAAAGAGAGAAGUGGAAUUUGAGGAACACAGAUACCCAAAGAGUAAAUCGUG'
p27
aF0.8217054263565892
aa(lp28
S'Frog Foot'
p29
aS'AAAAAAAAAUUGGGAAAGCUCAGGGCUAAUGCCCGGUCAAGGACC'
p30
aF1.0
aa(lp31
S'InfoRNA test 16'
p32
aS'UAUACCUCCAACUUCUAAUGGGGUAUGUGUGGUAUG'
p33
aF1.0
aa(lp34
S'Mat - Martian 2'
p35
aS'GAACGAAAGUUCAAAGAUACACAAGAUACACAAAAAAAGUGUAUCGUGUAUCAAAGAUACACGAAAAAAGAUACACAGAUACACAAAAAAAGUGUAUCGUGUAUCAAAGAUAUACAUAUAUAAAAAAAAUAUAUAUAGUAUAUCAAAAAACGUGUAUCAAAGAUAUACAUAUUUAAAAAAAAUAAAUAUAAGUAUAUCAAAGAACAAAAGUUC'
p36
aF1.0
aa(lp37
S'square'
p38
aS'GAUACACCAGACCCAGACACCAGACCAAAGGUCUGAAAAGUGUCUGAAAAGGUCUGAAAAGUGUAUC'
p39
aF1.0
aa(lp40
S'Six legd turtle 2'
p41
aS'AAAAAUUAAAGCAAAGGGAAAACAAACAGAACCGAAAAGGAAAUCAAACGGAAAGGAAAACUGAGCUAAAAGGAAAAAAAAAAAAAAAAAAAAAAAAA'
p42
aF0.9387755102040817
aa(lp43
S'Small and Easy 6'
p44
aS'GGCGCAAAAAGCAACCGAAAAAAAAGGGCC'
p45
aF1.0
aa(lp46
S'Fractile'
p47
aS'AAAAAAAAAAAAGGAAAACCGAAGCAAAGCGAAAGCAAGGAAAGCAAAAGCAAGCCAAGCAAAAGCAAAGCGAGCAAAGGCAAAAAAAAAAAAAAAAAAAAAAAA'
p48
aF1.0
aa(lp49
S'Six legd Turtle'
p50
aS'AAAAAAUAAAUAAAAAGUUUAAAUUAAAAAAAAAAGGAAAAUCGAAUUAAAAAUGUAAGAUAAAAAGAAAUUCAAAAGAAAAGACAAAAAAAAAAAAAAAAAAAA'
p51
aF0.9428571428571428
aa(lp52
S'snoRNA SNORD64'
p53
aS'GAUACCAAAAAGACAAAAGACAAAGAAACAAAAAAAAAAAAAGUUUCAAAAGUCAAGUCAAGGUAUC'
p54
aF1.0
aa(lp55
S'Chalk Outline'
p56
aS'AAAAUGAACAGCGACGAAAGUACGCACCCAGAUAAAAAUCGGGGGAUACCGAAAGGAUAUCAGCCCAAAAAUGGAGCGUUCUGAAAAAAAAAAAAAAAAAAAAA'
p57
aF1.0
aa(lp58
S'InfoRNA bulge test 9'
p59
aS'GAUACACAGAGAGAGAUACACAAAAGUGUAUCCCCGUGUAUC'
p60
aF1.0
aa(lp61
S'Tilted Russian Cross'
p62
aS'AAAAAGUUUGAACUAGUGAAUUUAUAGAACUAAUGUUUUAGACUAAUGUUUCUCAGCUAGUGUUAGUUUCACUGAAAGCUCGGACGAAAAAAAAAAAAAAAAAAA'
p63
aF0.9238095238095239
aa(lp64
S'This is ACTUALLY Small And Easy 6'
p65
aS'AAAAAAAAAAAAAAAAAAAAAAAAAAAAAAAAAAAAAAAAAAAAAAAAAAAAAAAAAAAAAAAAAAAAAAAAAAAAAAAAAAAAAAAAAAAAAAAAAAAAAAAAAAAAAAAAAAAAAAAAAAAAAAAAAAAAAAAAAAAAAAAAAAAAAAAAAAAAAAAAAAAAAAAAAAAAAAAAAAAAAAAAAAAAAAAAAAAAAAAAAAAAAAAAAAAAAAAAAAAAAAAAAAAAAAAAAAAAAAAAAAAAAAAAAAAAAAAAAAAAAAAAAAAAAAAAAAAAAAAAAAAAAAAAAAAAAAAAAAAAAAAAAAAAAAAAAAAAAAAAAAAAAAAAAAAAAAAAAAAAAAAAAAAAAAAAAAAAAAAAAAAAAAAAAAAAAAAAAAAAAAAAAAAAAAAAAAAAAAAA'
p66
aF1.0
aa(lp67
S'Shortie 4'
p68
aS'GUGAAAGCAUCGAAAGA'
p69
aF1.0
aa(lp70
S'Shape Test'
p71
aS'AAAAAGUGAACAAGAAACAAAAAAAAGUUUCAAGACAGACAGAAACAAAAAGUUUCAGAACAAAAGUUCAGUCGUCAAGUUCUCAAAAAAAAAAAAAAAAAAAA'
p72
aF1.0
aa(lp73
S'The Minitsry'
p74
aS'GCUAAAAGGACGAAAAGCCGAAAAGAUAAAAAGACAAAAAAAGGUCAGUCAGGCAGUCAGGC'
p75
aF1.0
aa(lp76
S'stickshift'
p77
aS'AAGAUACCCCAAAAAGGAGGUAUCAA'
p78
aF1.0
aa(lp79
S'U'
p80
aS'AAAAAGAAACAGAGAGCAGAGAUACACACAAAAGUGUGUAUCCGCCCGUUUCAAAAA'
p81
aF1.0
aa(lp82
S'Still Life (Sunflower In A Vase)'
p83
aS'AAAGAUCGAAGGGUGAAAAACCUUAGAAGAGGAAUGUCUAACUUAUUAAAUACAGAGGCCGAUAAAAACUGAACGGGCAAAAUGUCUGGAUGGGCAAAAGGCCCAAGAUAUGUAUGUAUAUAUAUAUCCGAUACAAAAAAGUGUCAGAAACAAAAAAAAAAAAUGAACCCCCCCCCCCCCCCCCCCCCCCCCCCCCCCCCCCCCCAAAAGUUCCGAAAAAAAAAAAGUUUCCGAACAAAAGUUCCAGGAUAUAUAUAUACAUAUAUAUCAGGACACAAAAAGUGUCAAGUGACUAAAUGUCAUAGCGGCCAAAAAGUCCGAAUUGUAGAAAAUUCUUAACAGUUAAAGAACUGAAUUAACGAAAAGUUGAAGAUCGAA'
p84
aF0.9682539682539683
aa(lp85
S'Quasispecies 2-2 Loop Challenge'
p86
aS'AAAAAGAACGUCAACCAGUAAAAGCUGAGUGACAGACGGGCAAAGAACGUCAAGAGAGCGCCGCGAAAAGCGAAGGACUCUGUUCAAAAAAAAAAAAAAAAAAAA'
p87
aF1.0
aa(lp88
S'Corner bulge training'
p89
aS'AGAUACCGAAACAAAGUUUCAAAAGGUAUCA'
p90
aF1.0
aa(lp91
S'Spiral'
p92
aS'AAAAAGAACAGAUACCAGACAGAAACAGAACAGAACAGCAGCAGCAGCAGCAGCAAAAAGCGCGCGCGCGCGUUCGUUCGUUUCGUCGGUAUCGUUCAAAAA'
p93
aF1.0
aa(lp94
S'InfoRNA bulge test'
p95
aS'AAAAAAAAAAAAAAAAAAAAAAAAAAAAAGCACAAAAAUGGCCAAAAUCACGAAGAACACGCGGAGGACAAAAAGUAUCACCAGUAGGUAUCAAAGUAGAAAAAAGGACCUAAAAAGUAGCG'
p96
aF1.0
aa(lp97
S'Worm 1'
p98
aS'AAAAAAAAAAAUAUAGAGCGGUCGAAAACAACAGCGUAAGAGUAU'
p99
aF0.9111111111111111
aa(lp100
S'just down to 1 bulge'
p101
aS'AAAAAGAACAGAAACAAAAGUUUCAGACAAAAGUCAGUAUCAAAAGAACAGACAAAAGUCAGACAAAAGUCAGUUCAAAAAAAAAAAAAAAAAAAA'
p102
aF1.0
aa(lp103
S'Iron Cross'
p104
aS'ACAAUGUCUAAUUCGCCCAAAGGGAGUCAAAAGACAGAGAAAAACCGACAAAAGUCUGACAAAGUCAAUUAAAUACACACAAAAGUCAAGCUAUACCAGCGAAUAGUCCACGAAGUGUGUCAA'
p105
aF0.926829268292683
aa(lp106
S'loops and stems'
p107
aS'AAAAAGAGACUCAAAGAUAAAAUAGCAAAAUGCAAAAAAAAAGAAACAAAAAAAAAAAAGUUUCGAAGCGUAAAAGAACAAAAAAAAAAGUUCAAAGCUAAAAGACAAAAAAAAGUCAAAUAUCAAGCGAAAAAGCAAAGAGUUUCAAAAA'
p108
aF1.0
aa(lp109
S'Water Strider'
p110
aS'AAAAUGAAAGUAGGUAAAGAUAAAAUUAGUUGAAAAAUUAACGGGAGCUCUGAAAGUCGUACGAAAGUGAAGCUCGUUUGUCUAAAAAAAAAAAAAAAAAAAA'
p111
aF0.9611650485436893
aa(lp112
S'The Turtle(s) Move(s)'
p113
aS'AAAGCAAAAGCAAAGGGUACACACAAAAAAAAGGUGUGUACCAAACGAGCAAAAAGCUCUAAAGGACUAAUGUCAAACGGACAAAAAAAGUCUGAAAAUAGAAAUGGAAACAAAAAAUACAAAAGUGAAAAGACAUAAAAAAAAUGUGUCAAAACCCAAAAGGGAAAAACACACGAAAAGGCAAAAAAAGUCAAGCCCAAAAAAAGUCAAUGAGACAAAAAAGUCUUUAAGGGGAAAAACCUCAACGUGUGAAAAAAAAAGCAAAAGCAAAAGAAAAAAAUAAAAUUCGAUCAAAAAAAAAGGAUCGUCAAAAUUA'
p114
aF0.9873417721518988
aa(lp115
S'Adenine'
p116
aS'GAAACAGAUACCAGAUACCAGAUACCAGAUACCAGAUACCAAAAGAUACCAAAAAAGGUAUCAGGUAUCAGAAACAAAGAUACACAAAGUGUAUCGUUUCAGGUAUCAGAUACACAUAUAAAAUAUAUGUAAAGUAUCAGGUAUCAAAAGGUAUCAAAAGGUAUCAAAAGUUUC'
p117
aF1.0
aa(lp118
S'Tripod5'
p119
aS'AAGAACGCACAAAAAGUGCGAACAAAAAGUUCGUUCAA'
p120
aF1.0
aa(lp121
S'Shortie 6'
p122
aS'GCGAAAGCACCAAAAGGAGCGAAAGCAGCGAAAGU'
p123
aF1.0
aa(lp124
S'Runner'
p125
aS'AAAAGGUACAUAAGAAAAAGCACUAUGUGCGCUUAAAAGACAAGGAACCAAAGGUAAAUCCGCAACCAAAGGUAAAUGCAGUCAAAGACAAAGACAAAAGUCAGUCAGUACAAAAA'
p126
aF1.0
aa(lp127
S'Recoil'
p128
aS'AAAAAGAAACAAGCAAGCAAGACAAGACAAGCAAGCAAAGCAGCAGUCAGUCAGCAGCAGUUUCAAAAAAAAAAAAAAAAAAAAA'
p129
aF1.0
aa(lp130
S'[CloudBeta] An Arm and a Leg 1.0'
p131
aS'AAAAAGACAGCAGCAAAAGUAUGCGACAGCAAAAGCGUCAGUCAAAAAAAAAAAAAAAAAAAA'
p132
aF1.0
aa(lp133
S'[CloudBeta] 5 Adjacent Stack Multi-Branch Loop'
p134
aS'AUCUAGGUCGAGAGACCGGACCAAAGGGUCCCUACCAAAGGGUAGCGAUUAAUAUCGUAGAUA'
p135
aF1.0
aa(lp136
S'Triple Y'
p137
aS'AAAAGGAUCGUGAGGUCAAAGUAUUGAUGGAAACCUCUUACGCACGAGCGAAAGCAGUACUUAAUGGUUAGAUGAUGAAAAAAAAAAAAAAAAAAAA'
p138
aF0.8865979381443299
aa(lp139
S'Misfolded Aptamer'
p140
aS'GCUGAAAAAGCCCCCUAUGGGAGCGAAAGCAAAAAAAAAGGAAAAGCGGC'
p141
aF1.0
aa(lp142
S'Flower power'
p143
aS'AAAAAGAGUGAACAAAGUUCGCGCCGAUGUGUUGUGAUUAAGAAACUAAUAUCUCUUUAAGGGGCCAUAUGAAACGCGAACCGAAAAAAAAAAAAAAAAAAA'
p144
aF0.9215686274509803
aa(lp145
S'Kudzu'
p146
aS'AAAAACACUGGAGUGUCGGAGAACAGCGAGCCCUAUCGAUAUAUCAAGGCAUAUGAUGAAAAGUUCUAAGAUUCGAUAUGGAAAAAAAAAAAAAAAAAAAA'
p147
aF0.9801980198019802
aa(lp148
S'"1,2,3and4bulges"'
p149
aS'AAAAAACACUGGUUCGAAAGGGAAUAACAUGCAAAGGUAUGUGGCAAAACAAGUCACAAAGAAAUUAAAGGGAAAGUAACCAAUGUAAAAAAAAAAAAAAAAAAA'
p150
aF0.9428571428571428
aa(lp151
S'medallion'
p152
aS'GAUGCCACCCGCCAAAAGGCGGGGCUCGAAAUGGACGCAAAAGCGACACACCAAAAGGUGUGGAACUAAUUUUGCCCAGCAAAGGUUGGGGCGCAAAAGCGACACAAAAAAGUCGCACUAAAAAGAGUGUCACAAAAGUGACACAGGAAAAUCUGUGGGGCUAAUGUCAUCCAAAAGUGACACACCAAAAGGUGUGGCAAGAAAUUAACACCCAAAAAUGGGUGGGCGUAAUCGCACACAAAAGUGGCACAACAAAGGUUGUGUCUGAAAAGAGCUACACGAAAACGUGUGAUCAAAAAUGAAGGUUAACCGGGGACCCGAAAACGGGUCUGGUAUC'
p153
aF0.9050445103857567
aa(lp154
S'[RNA] Repetitious Sequences 8/10'
p155
aS'AGGAAAAAAGCAAAAAAGCAAAAAAGCAAAAAAGCAAAAAAGCAAAAAAGAAAAAAAUCAAAAAAGCAAAAAACCAAAAA'
p156
aF1.0
aa(lp157
S'Documenting repetitious behavior'
p158
aS'AAAAAAAGGAAAAAAAAAGGAAAAAAAAAGAAAAAAAAAUACAAAAAAAAUUCAAAAAAAAAGUAAAAAAAAAACAAAAAAAAAACAAAAAAAAAAGAAAAAAAAAUCAAAAAAAAAUGAAAAAAAAAUAAAAAAAAAAGAAAAAAAAAAACAAAAAAAAAGAAAAAAAAAAGCAAAAAAAAACGAAAAAAAAAUCAAAAAAAAAGAGAAAAAAAAUCAAAAAAAAACCAAAAAAAAAGUAAAAAAAAAGCAAAAAAAAAGCAAAAAAAAAGGAAAAAAAAACAAAAAAAAAACUAAAAAAAAAUUAAAAAAAAGGUAAAAAAAAACCAAAAAAAAAGAAAAAAAAAAGCUAAAAAAAAGCUAAAAAAAAGCGAAAAAAAACCAAAAAAAAAUCAAAAAA'
p159
aF0.96
aa(lp160
S'7 multiloop'
p161
aS'GCCGUCGAUUAAUGUCGAGGGUCGAAAGGUUUCCGGAUAAUGCUAGCAGAGGAAAUUUUGGAUAUUAAUGUGUCGAAAAAAAGAUUUCCGCG'
p162
aF0.9782608695652174
aa(lp163
S'Kyurem 7'
p164
aS'AAAAAGGCCCAGGGUUAAUGUUGGAUCAAUGGGGUGGGAAAACCCAGACCCUAAAAAAGGUAAAGUCCUCCGCCUGGAGGUUAAAAAAAAAAAAAAAAAAAA'
p165
aF0.9803921568627451
aa(lp166
S'JF1'
p167
aS'AUAAACACAUAACAGACAAGAAACAAAAGAUACCAAGAAACAAAGAAACAAGAUACCAGAUAUACAUAUAUAAAAAUAUAUAUGUAUAUCAAGACAAAAGUCACACACACACAAAAGUGUGUGUGAACAGACAAAAGUCUGAGGUAUCAGUUUCAGUUUCAGGUAUCAAAGAUACACGAAAAACGUAGUAUCAAGAUAUAUAUAGAUAUAUAUAUAUAAAAAUAUAUAUAUAUAUCAUAUAUAUAUCAAAGAAACAAAAAAGUUUCCACACACAUAAAAAUAUGUGUGUGAAACAGGAAAACCUGAAGUUUCAAGUCUGAAAACAGACAGACAAAAGUCGUCGUUUAGAUACACACAAAAGUGUGAUAUCAUAUGAUGUAUUAUAAA'
p168
aF1.0
aa(lp169
S'multilooping fun'
p170
aS'UAUAGGAAAUCGUUAGGAAAUGUAAAGUAAAAAUUG'
p171
aF0.8888888888888888
aa(lp172
S'Multiloop...'
p173
aS'GCAAUCAACUGACGAAAGUCUGCGUAAUUUUUGACAAAAGUCAGGACAAAGACAUAUAAAGAUCAGGGUAAUCCCAGUUGUGAAGCAAAAAGGCUUCAGCUAAUAUUUUGC'
p174
aF0.9279279279279279
aa(lp175
S'hard Y'
p176
aS'AAAAGUAAGGUAGAGACACGGAAACGUGUCUACUUGACAGACCGAGAAAUCGGUUUGUUUUUGAAAAA'
p177
aF0.9705882352941176
aa(lp178
S'Mat - Elements & Sections'
p179
aS'AAAAUUUAUAUGAGUUGAGCUGAGGUUAGGAGAUUACGUGAUAAAAAUCUCCGCAGCAACGAGCGACGCUGUUCUGAAAAGGUAGUAAAAAAAAAAAAAAAAAAA'
p180
aF0.9619047619047619
aa(lp181
S'Chicken feet'
p182
aS'AAAAAACACAAGCAAAGAAGGAAAACUAAUGGGGGUAAUAAUUAUAUAGGAAAGCGAAAUACAAAAA'
p183
aF0.8208955223880597
aa(lp184
S'Bug 18'
p185
aS'UCCGCGAGAAACAAUUAAGACGUGAAGAAAAUAGAGGUAAUCGAUGAAAAGGU'
p186
aF0.9622641509433962
aa(lp187
S'Fractal star x5'
p188
aS'AAAAGCGGAAGCUGGUGACAAAACUUGGACAUUAAAGGGAGGACAGGAAAACCUGGACCUCGAAAGGAGAGGGGCUUUGAAAAACACACAUGGAGCACUAAUGUGCAGGAGGGAAACCUCAACGUGAAAACAUGGACCUGAAAACAGGAACGUGUGUGAAAAUCAUGCCCGAACUGCAAAAGCGGAGGAGUUAAUACUUAGUGAGAAAACUCGAAGCGGAAAGCCGUAACGGGCAUGUAAAACACCCACGAAGUCCAAAAGGACAGAACGGAAACGUUAACCAUAAAAAUGGGGGACUUAAUAGUCAACGUGGGUGAAAAGAGUAGUUUAAGACCAAAAGGUCAUGCGUAAACACGUUAUGGGGAAACCUAAAAAGGAAAACGUUAAUGGGCGUUAAAAA'
p189
aF0.99
aa(lp190
S'Crop circle 2'
p191
aS'GAAAUACAAAAGUAAAAAUUAAAAAAAAAGUAGAAAAAAAAAAAAAAAAAAAAAAAAAAAUGCAAAAAAAAAAAAAAAGGAAAAAAAAGGCGAAAAAAGUUAAAUCAAAA'
p192
aF0.9636363636363636
aa(lp193
S'Branching Loop'
p194
aS'GGGACGAAAAAAAACCAGGAAAGCUUGCAGUCCAAAAAAA'
p195
aF0.95
aa(lp196
S'Bug 38'
p197
aS'GGAAUCGGCGAGAUGAAACUCUAGGAAGAAUAAACA'
p198
aF0.9444444444444444
aa(lp199
S'Simple Single Bond'
p200
aS'AAAAGUUUAAAAAAAAAUUCAAAAGGGGUGAAAAAAAUAUAAAAAAAAAAAAAAAAAAAAA'
p201
aF0.9672131147540983
aa(lp202
S'Taraxacum officinale'
p203
aS'GACAAAAAGAGUCGCAGGAAAACACGGUCGGGGAAACAUCGUCAGCGAAAGACAGACCCUAAAACAGGGAUAGCAAAAGACUAAGAUACACCUAAGAUACACAUACAAAGUAUAGUGUAUCGGAAACAAGAUGCGCAUAUAGAUACACAAGGUGUAUCUUAUGCGCAUCGAUCAGAUACGAAACGUAUCGGUCGUUUCAAAUUAGGUGUAUCAAGACAAACGUGCCAUCGGGAAACAUUGACAGGGAAACACUGACAGCAAUGGACCGACUGGAAAACACGG'
p204
aF0.8865248226950354
aa(lp205
S'Headless Bug on Windshield'
p206
aS'CGCAGAAAAAGGGCACAAAGCGUCCAAAAAAAAAAAAAAAAAAAAAAAAAAGGAGCGAAGUCACCAAACCGGUUCUGAAGCGAAUCGAAAAAUGCAAAAGAUAAAAAAACUGCCAAAAACUGGAACCUAAAAAAAGCAAAGAAGCACGUGCUGGCAAAAAAAAAAAAAAGGCUUGGUAAGUGAGUAGCACAGAGAACCGA'
p207
aF0.955
aa(lp208
S'Pokeball'
p209
aS'AAAGCUACGCAAAACCAAAAAUGACCUUUUGACAUGUGAGAACGCUAGGGAACCAGCACUCGGUCGGUUAAUGUCUUCAGCGUGUAGUAGAAAAAAUCAGGUCAAAACGAACAGGCGCAAGAGUUCGAGAAAGAACCCUAGAAAUACUGGAGUCAUCAGGUAUCGGCCAUGACGGUUAUGCAAA'
p210
aF0.967391304347826
aa(lp211
S'Variation of a crop circle'
p212
aS'AAAAGGAAAGGUUAAAACUAAAUCGGCCGGCCAAAGGAAGGAAAAGGAAAAAUAUGAAAAAACAAAAAAAAAACCGAAAAAAAAAAAA'
p213
aF0.9545454545454546
aa(lp214
S'Loop next to a Multiloop'
p215
aS'AAGAUAGACGAAAAAAAGUGAUACCUAAUGGUAUCUGAGACACUAAUGUGUCUUUCAAAAAAACGUUUAUCAA'
p216
aF0.9726027397260274
aa(lp217
S'Snowflake 4'
p218
aS'GAGCGAAACGGUAUAAAUGAAAACCAGGCAAGAUUCGCGAAAGAGAUCCGACGAAACGUCAACUGGGAACCAGGGAUUCCAAAAGCGAGUCAACAAAGCCAAAAGGGAUACCAGCAAAGCUGAAGAGAUAUUUUCGUAUCCCGAAAGGCUUUGGAGAAACCCAAAAUGGAUUCCGACAAGGAUGAACAACAAAGCGGGGAUCCCAAAAGGGUUUUAAGAAACCCGAAAGUGUUACCAGCAAAGCUGAAGCUCAAGGGGUGUAUCUCGAAAGGGCUUCGUCAUAUGCAAAAGUCUGACGAAUAAAGUUCAACAGCGAAGCUGGUCGGGAAAAAUCAUGUCUGCCUUGGUAAAAAAUUGUGUAAAAAGGAUA'
p219
aF0.8918918918918919
aa(lp220
S'Mat - Cuboid'
p221
aS'UAAGCAAAAGGAAGCAAAAUUAAUCAAAAGAAGGUAGCAAAAGGACGGAAGCAAAAGAAGGAAUGACUCAAAAGGAAGGUAGGACGAAAAAGCAAUGUAGGAAGCAACGAAAAGCUCACUCCCACGCACUCAAAAGCUACGACCAGCCAACCCACAUAAAAGCGACAACCCUCAGCCCCUCUGAAAAGGUGCGGCCGUCCCUACGCGCGAAAAAAUGAACGGAGGAUUGAACGAUCCCGAAGGAUGUAAGGAGUGACCCGUAGGGCAUGAAUGAAUGAAGCGAACGCAAGGGAGUAUGACGAAGCAACUUUCAUAGCUCCACCCUCCUACCGAAAUAUACCAACGCAACCCACCGCCUCCUACGAUAGAGCGACCGCUAG'
p222
aF0.8947368421052632
aa(lp223
S'Misfolded Aptamer 6'
p224
aS'AAAAAUUACAAAAAAGAACAACAAAAGUGAAAAAAAACACGAAGGGAAAAGUUCGAAAAAGGUAUAAAAAAAAAA'
p225
aF1.0
aa(lp226
S'Snowflake 3'
p227
aS'GGCGCAAAGGCUGUCCACGAAAGUGAAGUGCUAACCUACUCAAAAGAGCCGACCGAAAGGUCCAAAGGACCGAAAGAACGGGAGAAAGUUCACGGUUUGAAGAAAAAAAAAUUCCAGAGAAAAAGCCACGAAGUGCCAAAGGAUUUGGAUUAAUGUCAAUUACCCAACAAGACAAAGGUCCCUAGAAAAAACACAAAAUGUCCUAAUGGAAGGGACAAAAGUCAAGUUGAGAUAAACCUAAAGUUGCAUCGUAAAAACUAUAAAGUGCAAAAAGGGAUGGCGGAAACGCAAUAUCAGGAGAGUAUAAAAGUCUAUAGCUAAUGCCACAAAGAGCGUAAUCGGAUGGGCAAAAAUCAACUUCAGCACAAGACAAAAGUCGGCUGUAAAGGCGUC'
p228
aF0.816793893129771
aa(lp229
S'Hard Y and a bit more'
p230
aS'AAAAAGAACCGCAUUUGGUAAUACAGUAGCGAUUCAGUAAUAGCGAAAGUCAGGGACAUAAAAAGAUGUCAUACGUAAUCGGUUCAAAAAAAAAAAAAAAAAAAAA'
p231
aF0.9716981132075472
aa(lp232
S'Mat - Lot 2-2 B'
p233
aS'UAACGCUCCAAGGCCGAAAAGCUGCAGGAAAACCAAAAUGAUGCCGAACUAAAAUGAUGCCGAAUCAAGCACGCGCUCCCAAAAGAUACAGGUCCCAAAAACGAAAGUGGAACCAAAAUGGAUCGGAGGCGGUCCUAAACAAAAGUGCUCGAGGUCUCAAAAGCUCCAAGGAAAUUAAAAUGAAGCGGAAACAAAAUUAAGUGAAAGCAAGGAGACGCACCCAAAAGGGCCCCGACCAAAAAGCAAAAGCGGAGCCAAAAGGAAGCGGAAGCGGGAGGAAGUGG'
p234
aF0.8450704225352113
aa(lp235
S'Shapes and Energy'
p236
aS'AAAAAAGUUGGAAGAUAAAACGUAGCUGCAAGAAAUAGCGGAAUCUGUCAUGGUAAAACGAGCAAAAGCUUCCGUCCAUCGAAAAAAAAAAAAAAAAAAAA'
p237
aF1.0
aa(lp238
S"Spiral of 5's"
p239
aS'CAAAAGAAUCUAAGAAGCAAAGAACCUAAAGAAACAAAGAAACAAAGAAACAAGAAACAAAAGAAACAAAGAAACAAAGAAAUAAUAAACAAAGGAACAAAGAAACAAGAAACAAAGAAACAAGCAACAAGAAGUAAGGAACAAGAAAAAGACACAGAGUUGCAUAGAAAAUAUGCCGGGGGGCUCAAAAAGUGUCAAAAAUUUUCAAAAAGUUAUUAAAGGUUUCAAAAGGUUUCAAAGAGUUUCAAAAAUUGUCAAAAAGUUUCAAAAAGUCUCAAAAAGUUUAAAAAAGUUUCAAAAAGUCUCAAAAAGUUUCGAAAAGUUUCGAAAAGUUUCAAAAAGUUUCAAAAAGUUUCAAAAUGGUUCAAAAAGCUUCAAAAUGAUUCAAAAAGAAAAA'
p240
aF0.9949622166246851
aa(lp241
S'Campfire'
p242
aS'AAAAGGUGAAGAAGCAAGAACAAGAACAAAAGGUUUGGAACCAAGGGCAUCCGUUCGACACCAGUAGCAGAAACGAAAGUAUUCGCACGAGAGGCGACAAGCAAAAACUGCGACGAACACAAAAUUCGUGCGCAAUAACUCGGUAGUCGAUUCCACGGACAGGUAGGCCUAAUGGCCAUCGUCCAGAUUUCUAUGAUAGUACUCAGUGUGCC'
p243
aF0.9716981132075472
aa(lp244
S'Anemone'
p245
aS'AAAUAUCCUAAAAUGGAUGUAGAUGAAAAUCUAGACCCCUAAUGGCGUAGAGACGAAAAUUUCGUUUACUAAUGUAAGCUAAACUAAUGACCGAAAUCCAAUGAUUUGCUAACAAAGGAUUUCAAAGACAAAGGUCGUUUUACCAAAAGGUGAAGGAUGAAAACGUCGGAUCCGAAAACGUAUUGACAGAAAGUUGUCUAUCGGGAAACCGGUG'
p246
aF0.8317757009345794
aa(lp247
S'Fractal 3'
p248
aS'AAAAUGAGCGGCGCCCUAAUGGUCAAAAGCAUGUAAACUCCAAAAAAUGGAAAUAAGUUAGGUAGCAUAGGCAUAAAAACAGUUGGAGUGGAAAAACAGAAAGUUUCUCACAUUUAAAA'
p249
aF0.8991596638655462
aa(lp250
S'Kyurem 5'
p251
aS'AAAAUGACGCGGGCCUAAUGCCGAAAAAAUUGCGAGUAAAGACAAAAGGUCGUUCAAGAAAAAGCUUAUUGGCCCCUAAACAUCUAAAAAAAAAAAAAAAAAAA'
p252
aF0.9230769230769231
aa(lp253
S'Snowflake Necklace ( or v2.0 )'
p254
aS'CACUUAUAAUUAUUCAGCAUCAUCAAAAAGAAGCGAAAAGCACCAAAAAGGACCGAAAAGGAUAAAAAAGGAGAUGCAGGCAAAAGGCCACGGAUAUCGAAAAGGGUGUAAAAGGAAUAAAAAAUUCCGAAAACGUUGAAAAAUAUGUCGAAGAAAAAAAUUAAUUUUCAGCAAAAAGCACCAAAAGAGUCCAAAAAGGUCUAAAAAGGAACAAAAAGUAGAAAAAGUCAAAAAGACUUGGUCAGCAAAAAGCAUCAAAAAGGGGUAAAAAACACCGAAAAGCAUCAAAAAACCGACCGUGAAAAAAAUUCUAAAACAGCAAAAAGCACUAAAAGAGACCGAAAACGGCCUAAAUGGACCAAAAAGGAGUUUGGGAAUAAUUGUAAGUG'
p255
aF0.8791773778920309
aa(lp256
S'Methaqualone C16H14N2O Structural Representation'
p257
aS'AAAAAAAGCACUGACCAUUCAGCAUAAUGUCGUAUUCACAAAAGUGUGUCAAAUAAAGGUUAGACAGACAAAAGUCACUCAAAAAAGGAGAGUCAGUCAGAAAGUAAGAAACAGGUCGGGAAAAAGGUCACAAAGGAAACCAAAAAAAAGUGAGACAGUCAAAAGGCCGUAAAAGCCGGCAAAAGCCGUCACGAAAGAAUAUAAACGGGCAGGAACGCGAACAGAGAAAAGACGAAAGUCAGCCACACAAAAGUGAGUUAGACAAAAACCUGUGAUGCAAAAGCGAUUCAGUCCACAAAGGUGGCCAAAAGGUACACAAAAGUGGGCAGUCAAUUCAAGGUCCUGUGCAAAAAAA'
p258
aF0.8676056338028169
aa(lp259
S"Cat's Toy 2"
p260
aS'AAAAUGUGCUCGAAAAAGUAGCAAAAAAAAAAAAAAAAGCCGACCAAUUGGAAAUAUAUAUAAAAAUUAAAAAAAGGGAUAAUCUCGGGUGCAAAAA'
p261
aF0.9587628865979382
aa(lp262
S'Zigzag Semicircle'
p263
aS'AAAAUGUAGGCGCCAAAAUCAGCUACUAUAGAAA'
p264
aF0.9411764705882353
aa(lp265
S'Short String 4'
p266
aS'AAAAAUUUAGCAGACAAGUAAUACCAGGAAAAACACAAGAAAGAGUGAGCAAAAGCAAACGAUGAUCAGUGGGCGAAAAAAAAAAAAAAAAAAAAAA'
p267
aF0.9381443298969072
aa(lp268
S'Gladius'
p269
aS'GGAAACAAGAAAGGAAAAGACGGAAGAAAGAUAGGCAAUGAACAAAAGUUCUGGCACAAGGGACGAUAGAAAAAGAGAUCAAGAGAGAUACCAGAUAUGCGAGCAAGCUACGAAGAAUAACAAGAUUGAGUUACUUUACAGCUCCAAUAUCGAGUAUUUCAGCAGGUUAGCAUUUCAGGAGUCAGCAGUGCCAGCCAAGUACUGAACCAUAAGACAGAAGAACAGAGGAAGGAAAGAUAUACAGUAUACAGAUACAGAUAUUAGAUAGAUACCGAAAGGUAUCAGGUCGUAUAUACGUAUACGUAUAACGUAUAUCAUAAUUUCACAAGUUCACAGGUCAAAAGGUUCUCAUCAAAAGAUGAAUCUCAGUUAAACUAUAAUAUAAAGAAAAUAAUAAAAG'
p270
aF0.8975
aa(lp271
S'Thunderbolt'
p272
aS'GUAAGAGAUAAAAAAAAGUGGAUGCGGAAAAGGGAAACAGAGACACGUAAAGUAAGGUAAAAAAGGAUAAAAAAUUCGAAAAGACAAAGUACCAAAAAAAUACUGUAAAAUCAACUACCGAACAAAAAGUAAUCACAGGAAAAAGACAAAAAGGCUCAGAAACAGAAACAAAAAGUCGUGACAAACAAAAAAACUGUACCAAGGGAAAAGGAAAAAAGAAAGUCAAAAAAAAACCUGAAAAAGAUACCAAAGGUAUCAGUGGGGAAAAAAAAAAAUGAGGCGUAAAAAAACAGUGGAAACGCUAUAAAAAAGGAAAAAAACAAAAAUAUAUCAACAAGAAUCGUGUUUCAAAAAAAACAGCUACCUCAAAAAGCAAAAAACGGUUUCAAGCA'
p273
aF0.951530612244898
aa(lp274
S'Mutated chicken feet'
p275
aS'AAAAAAAGCAUCCGCAAAGCAGUUAUACAAAAGGUGGGAGGUCAUAUCGGCUAAGGCAAAUCCCUGCAUCAGUAAGACGGCAAAGUGAAGCUCUAAAAAA'
p276
aF0.87
aa(lp277
S'Chicken Tracks'
p278
aS'AAAAAAAAGUUACAGUAUCGAAAGGUAAAGGAUAAAAAUUCACGCUCGAAAGAGCCUGUAACAAGACGGACAAGGUCCAAGGGCGAAGCUCAAUGGGGAACCCAGUCGAAAAAAAA'
p279
aF1.0
aa(lp280
S'Looking Back Again'
p281
aS'GACAAUAUGAAUAAAAAUAUUCCAAAGGGAUAAGUUUAAGACCACAAGACAAUGUCGUGAUAAACAAUGACCGAAAGGUCUAAAGUUUAUAGUCAAGUAAAGAACCACGAAAGCAAACAAAACACUGAAAGAAAUCUAACCGAACAUAUUGUUCCAGACAAGGUUUGCAAACUACUACUACAAGUCCAAGUCCAUGGAAACGUGAGCAGAUCGGAGUGGGACAAAAGCCAAACUUUUAAAGGUUCGGUCUCAUAAAGAACAAAAAAACUUUAGAAAAAAAAGAAGAAAAACUUCCUCAAAAAGAGGUUCGGACAAAAAAGCCAUAUUAAAAAAUAUGAAGAGACAAAGUUCAGAAGAAGUCUGUAUUCGAAAAAUUCUUUAUGUAAGUC'
p282
aF0.7686375321336761
aa(lp283
S'Multilooping 6'
p284
aS'AUGACAGGACAACUUAAAGAAGAUGUGACUAAUGUCGCGCUACGGUUCCGAAAGGAGCGCUACAACCUUGGCUGUUAGUCUA'
p285
aF0.8658536585365854
aa(lp286
S'Cesspool'
p287
aS'GAAUAAGAAAACGACACUCCAGAAUCAAAGUUAGCAAGAAGUGAAGUCUAAAAAAACACUCAAAAAUAAGAAAAUGUAAUCAAAUAUAAAUCCAAGAAAACAACCCAUCAGAUACAAAGUGGGAUAGUAAGGAAGUCCAAAAGAAUAAUCCAAAAGAAUAAAAUGAAAACACGAAUAACUUCCAAGAAAGCAACGAUCCAGAGGCAAAGUCAGCAAGAAUUGAAGUCCAAAAGAACAGUCCAAAAGAAUAAAAUGAAAACACGAAAGAAGGUCCAAUAAAAGAACAUUCCAGAUACAAAGUGAGCAAGAAGUGAAGUACAAAAGGACAGUCCCAAAGAACAAAAUGAAAACACGAAUC'
p288
aF0.7150837988826816
aa(lp289
S'Hoglafractal'
p290
aS'AAGGGGAAGAAACAAAAGAGAGUAAAAUCUUUCGUUUCAAUCAAGGAGGAAAAACUCAGAUUAAUAAUAAAAAAGUAGGUAGCAAAAGUUAAAAGCAGGAAAAACUGCGGACCACAAAACAAAAAGUUGUGGCAUCGAAAGGGAACAUCAAAAUACAAGAGAAAAAACUCGUGCUAUCUAAAUGAAGGUUAAAAGUGAGAAGCAAAAAGCACCGAAAAAGGGCCACUAAAUGUGAUUAAUGUGGAAGCGAAAAAAGUCAAAAAAGACGCAAAAGGUAAACCGCGACUAUGUCGCGGAAAAAAGUGCUUCAAAAAAGAUUCGAAAAGGUGGAGAUACAAGGCAAUAAAAAGCAGCAUAAAAGGGAAAUCGUUAAUGUUAUAUCUAUGAUAUACGUGCGCUU'
p291
aF0.9
aa(lp292
S'Bullseye'
p293
aS'AAGUCUGGAGAAAUUACAAUAAUAAAAUUAGAGGAGGAACUUCGGAAAAAAAAACACGGCUAAAGCUUAAGAUCAAAGAUCGAUGCCAAACAUCGUGAAAAAAAACAGUAAUUAUGUCGAAGUUAGAAUAACGAGAACUAUGUUCAUGAAAAAAAGGAAGAAGAAAGUCCAGCAACAAACUUUAAGAAAAAAUUUAUUGAAA'
p294
aF0.8415841584158416
aa(lp295
S'Shooting Star'
p296
aS'AUAGUGGAACGAAAGAUAAGGAGGAGGACGCAGCGAGCGAAAGACCGAGGCGGUAGGACCAGGGCUUUCAGAUACUCCAGUACCAGAGAGAAAGAGAGAGAAGCGCAAAAGACAUUACCUCUAUUUACCUCGGAGGAUUAAGGGAAACAGCAUCUCGCUCGACAAAGUCGGACAGACAAAGUCCGGAGUAAUCGCAGUGAAGUUUAUAAAAGAUAAAAUAUAGACAAAGUUUAUAACUGAAAAAUUCAGUAUCUGUUUACAAAGUGUAUGCUAGCCUAUGUCUGUUUUGAAAAAGAAAACGGACUAGCCCAGUAUCAGCACAGCAAAAGUCGUAACGGUUCGAGAACUCAACUUUCACAUUAUA'
p297
aF0.7664835164835165
aa(lp298
S'Teslagon'
p299
aS'AAAAAAACAAAAAAAACAGUAAAAAAUGCAAGAAAAAAAAAAAAAAAUUUAAAAAUUACCAAAAAAAAAAAAAAAGGACCUAAAAAAGAUCCAAAAAAGGCCAAAAAAAAAAAAAAACAAAAAAAGGUGCUGAAAAAGUAAAAAAAAAAAAAAAAAAUUUAAAAAUGGGCAAAAAAAAAAAAAAAGCAACAAAAAAUGCACAAAAAAAAGAAAAAAAAAAAAAAAGGGAAAAAAAUCGGCAAAAAAAGCAACAAAAAAAAAAAAAAGGUUAAAAAUUAGAGAAAAAAAAAAAAAAGGAGAAAAAAAGUCGGGAAAAAAAUGAAAAAAAAAAAAUCAAAAAAAAAAAAAAAGGGCGAAAAAAAGCAGUAAAAAAAGUAAAAAA'
p300
aF0.8926701570680629
aa.