(lp0
(lp1
S'Simple Hairpin'
p2
aS'GAUACAAAAAAGUAUC'
p3
aF1.0
aa(lp4
S'Arabidopsis Thaliana 6 RNA - Difficulty Level 0'
p5
aS'GACUAUCAAAAGAGAAAAAAAAAAACUCGACAUUGGUUGACAUUGAUAUUAGAUUAGAAAGAUACAAAAAAGUAUCACUAAUCAUAAUAUCAAUGUCUCCCAAUGUCAAGAUAGUC'
p6
aF1.0
aa(lp7
S'Prion Pseudoknot - Difficulty Level 0'
p8
aS'GAGAUCAGAUCAAAAGAUCGAUACUCAAAAAAAAAA'
p9
aF1.0
aa(lp10
S'Human Integrated Adenovirus - Difficulty Level 0'
p11
aS'GUCUUGCUGGCCUCGGGCUACGAAAAAAAAAAGGUCGACGGUGCAACCGGCAAUUACAAAAGGCAUUAUUAUAGUAAAAAAUCUAUAGUAAUAAAAGCCGUAAUAAAAUGCGCAAAACCCGUUAAAGAGCACGAAAAAAGUGUUUGAUCGAAAAAAAAAAAGUAGUCAGAGGAAAACUAGUAAAAGGACAAA'
p12
aF1.0
aa(lp13
S'The Gammaretrovirus Signal - Difficulty Level 0'
p14
aS'AAGAGAGCAUAUCAAAAGAUAUGAACGCAAAAAAGAUCAAGACAUAUCCUAUGAAAACAUAGAAAAGAUAGUCGAUCAAGACAUUGGAAAACCAAUGUCAA'
p15
aF1.0
aa(lp16
S'Saccharomyces Cerevisiae - Difficulty Level 0'
p17
aS'ACACUGAGUCUAAAAAAUGAGAUCAUAGAAAAAAAAAAAACGUAAAAGAUACAAAAAAAGUAUCGCAGUGUAAAAUACUUGGAAGAUUUAAAAAAUAGUCGCCUAAAAAAAAAAAUGGCAAAAGAUAUGAAAAAAAUAUCCUAAGUGAAAAGAGUAUGAAGAGCAAAAAAAGGCUCGAUAAGUAAAAAUCUUAUCAAAAGUUACUAAAAAUGUAACCAUAUUCGAAGGACUAUGAAUAGUGAAAAAAAACUAGAAUUAAAAAAAGUAGAUUCAAAUAUGUGAACAAAAUAUGCGUGGUCAAAUGACGAUGAACGUAUAAAAAAUUACGGUGGUGAAAAAAGUACCACAAAAUAUACGAAAAAAGUAUGCAUCGUCUAAA'
p18
aF0.9947229551451188
aa(lp19
S'Fractal 2'
p20
aS'AAAAACACAGUAGGAUAUCGUUAAUGAUGUGCAAAAAAAAAAGCAUGAUCACAAAAAAAAAGGUGAGAUCUCAAAAAAAAUCGGGAGGUAUUGACGAUUAGGACAUCGCAGAAGAGGGAAAAAAAAACUUCAAGAGUUAAAAAAAAUAUUCAGGUUGGAAAAAAAAACAGCAACUGCGAUGUCAAGCACAUUUAUCAAGAUCAAAAAAAAAAGAUCAAGAUAAAAAAAAAAAUAUCAAAGGCUAAAAAAAAUGCCUAGGAUGGAUGUGAAAUUACUGUGGAAAA'
p21
aF1.0
aa(lp22
S'G-C Placement'
p23
aS'GUGCGAAGUACA'
p24
aF1.0
aa(lp25
S'The Sun'
p26
aS'GACAGAUGUUCAAGGAAUAAGUCGUCAAAGACAUAGAUUGGAAUAAUAAACCGUCGAGGAGAGCGACCCAAAGGAUAACGCGUCAAAAGGAGGGGGUCAAGGACCAACCCUUUGAAGUCAGAUUAUUCAAGAAGACAUCGGCAAAGGCAGUGGUUAGAAGAAUAACACGGCGAUGAGAGAGAUCGAAGCGAUAACUCCUCUAAAAGAAGGAUUCAAGGAAUAACCUUUGAAAGACACUAAUAUUAUGAAUAAUGUGUC'
p27
aF0.8953488372093024
aa(lp28
S'Frog Foot'
p29
aS'AAAAAAAAAAGAUCGAAAGAUCGAUGGAAACAUCGCUCAAAGAGC'
p30
aF1.0
aa(lp31
S'InfoRNA test 16'
p32
aS'GAUAUUAGAGAUUAGAAAACUAAUACUACAGAUAUC'
p33
aF1.0
aa(lp34
S'Mat - Martian 2'
p35
aS'GAUCAAAAGAUCAAAGACUAUCAAGACUAUCAAAAAAAGAUAGUCGAUAGUCAAAGAUAUUAGAAAAAAGACUAUCAGACUAUCAAAAAAAGAUAGUCGAUAGUCAAAGACAUUGAUAUUAGAAAAAAACUAAUAUACAAUGUCAAAAAACUAAUAUCAAAGAUAUUAUAUUAUCAAAAAAAGAUAAUAAAUAAUAUCAAAGUUCAAAAGAAC'
p36
aF1.0
aa(lp37
S'square'
p38
aS'GACUUUCGACUAAUACUAUUUAUGAGAAACUCAUAAAAAAAUAGUAAAAAUUAGUUAAAAGGAAGUC'
p39
aF1.0
aa(lp40
S'Six legd turtle 2'
p41
aS'AAAAACGAAAGUAAGUCUAAAAGGAAACUAAUGGUAAUCAUAAAAGAAAUUAAAGAAAAAUUAAAAUAAAGCGAAGUUAAAAAAAAAAAAAAAAAAAA'
p42
aF0.9591836734693877
aa(lp43
S'Small and Easy 6'
p44
aS'GAAGAAAAAGUCCCAUUCUAAAAAUGAGUU'
p45
aF0.9333333333333333
aa(lp46
S'Fractile'
p47
aS'AAAAAAAAAAUUUGAAAACCUAAUCGAUGUUACGGCUACAAAUGCCAAAAAUAAUUAACCAAAAGCAAAGAAAGCAAAAGUACAAAAAAAAAAAAAAAAAAAAAA'
p48
aF0.9619047619047619
aa(lp49
S'Six legd Turtle'
p50
aS'AAAAACAGAAGUGAAAAACAAAAUCAAAAAAAAAUCGAAAAGGUAAAUCGAAAGAAAAAACGAAAGCAAAUGGGAAACCUAAAGGAAAAAAAAAAAAAAAAAAAA'
p51
aF0.9619047619047619
aa(lp52
S'snoRNA SNORD64'
p53
aS'GAUAUCAAAAAGAGAAAAGAGAAAGAUACAAAAAAAAAAAAAGUAUCAAAACUCAACUCAAGAUAUC'
p54
aF1.0
aa(lp55
S'Chalk Outline'
p56
aS'AAAAAGAUCAGAGACAAAAGUACUCAGACAGAGAAAACUCGUCAGAUGACAAAAGUACAUCAGGAUCAAAAGAUACCGAUCAAAAAAAAAAAAAAAAAAAAAAA'
p57
aF1.0
aa(lp58
S'InfoRNA bulge test 9'
p59
aS'GACUAUCAGAGAGAGACUAUCGAAAGAUAGUCCCCGAUAGUC'
p60
aF1.0
aa(lp61
S'Tilted Russian Cross'
p62
aS'AAAAAGCUUUUAGGAAAUUAACUUGAGCUCAAAGGAGCUACCGAAAUUGAUGAAGGGAAAGCUCUCAGCAUUUUAAUAAAUGAUCGAAAAAAAAAAAAAAAAAAA'
p63
aF0.9809523809523809
aa(lp64
S'This is ACTUALLY Small And Easy 6'
p65
aS'AAAAAAAAAAAAAAAAAAAAAAAAAAAAAAAAAAAAAAAAAAAAAAAAAAAAAAAAAAAAAAAAAAAAAAAAAAAAAAAAAAAAAAAAAAAAAAAAAAAAAAAAAAAAAAAAAAAAAAAAAAAAAAAAAAAAAAAAAAAAAAAAAAAAAAAAAAAAAAAAAAAAAAAAAAAAAAAAAAAAAAAAAAAAAAAAAAAAAAAAAAAAAAAAAAAAAAAAAAAAAAAAAAAAAAAAAAAAAAAAAAAAAAAAAAAAAAAAAAAAAAAAAAAAAAAAAAAAAAAAAAAAAAAAAAAAAAAAAAAAAAAAAAAAAAAAAAAAAAAAAAAAAAAAAAAAAAAAAAAAAAAAAAAAAAAAAAAAAAAAAAAAAAAAAAAAAAAAAAAAAAAAAAAAAAAAAAAAAAAA'
p66
aF1.0
aa(lp67
S'Shortie 4'
p68
aS'UCGAAAGGAUCGAAAGA'
p69
aF1.0
aa(lp70
S'Shape Test'
p71
aS'AAAAAGAUAUCAAGAUACAAAAAAAAGUAUCAUUACAGAGUGAGACAAAAAGUCUCUGAUGGAAACAUCUCUCGUAUAGAUGACGAAAAAAAAAAAAAAAAAAA'
p72
aF1.0
aa(lp73
S'The Minitsry'
p74
aS'GACAAAAACAGAAAAAGAUUAAAUUAUGAAAGCUAAAAAAAAAUAGAAUAUAUCGCUGGGUC'
p75
aF1.0
aa(lp76
S'stickshift'
p77
aS'AAGACUAAUAGAAAAUGCUUAGUCAA'
p78
aF1.0
aa(lp79
S'U'
p80
aS'AAAAAGAUACAGAGAGCAGAGACAUUGACAAAAGUCAAUGUCCGCCCGUAUCAAAAA'
p81
aF1.0
aa(lp82
S'Still Life (Sunflower In A Vase)'
p83
aS'AAAGCUUAAGUUACAAAAGGUAAUGAGAUUCAAAGGAUCAACCGAGAAAAACUCGGGCUAUUCAAAGAAUAUAGAGUCAAAAGGGUUCAUAUUUCAAAAGGAAGUUUAUGUUGAGAAUAUAUUAUAUUCGAUACAAAAAAGUAUCAGAGUAGAAAAAAAAAAAAGAUCAAAAAAAAAAAAAAAAAAAAAAAAAAAAAAAAAAAAAAAAGGAUCAAAAAAAAAAAAAUGUUCGCUACGAAAGUAGCAGGAUGUAAUAUAUUUUCAAUGUGUCGAUGUAAAAAGCAUCAAACCUGAAAAAUUAGAGAGAGACAAAAAGUCUCCGUAGUUGUAAAAACCGAGACUCCAAAAGUAGCAAGAGACAAAAAGUUUCAAAGCGAA'
p84
aF0.9629629629629629
aa(lp85
S'Quasispecies 2-2 Loop Challenge'
p86
aS'AAAAUGAUGGGUCAGCAGCAAAAGUUGAGGAUCAGAGUGACAAAGGGACUCAGAGCGGUUCGAGGAAAACUCUUAAAGUUCCAUCUAAAAAAAAAAAAAAAAAAA'
p87
aF1.0
aa(lp88
S'Corner bulge training'
p89
aS'AGAUAUCGAUACAAAGUAUCAAAAGAUAUCA'
p90
aF1.0
aa(lp91
S'Spiral'
p92
aS'AAAAAGAUCAGAUAUCAGAGAGAUACAGAUCAGAUCAGCAGCAGCAGCAGCAGCAAAAAGCGCGCGCGCGCGAUCGAUCGUAUCCUCGAUAUCGAUCAAAAA'
p93
aF1.0
aa(lp94
S'InfoRNA bulge test'
p95
aS'AAAAAAAAAAAAAAAAAAAAAAAAAAAAAGGAGAAAAAAUGAGAAAAGGAGAAAGGAGGGGGAAGCCAGAAAAACUAGGAUUACCGACUACCAAACUACCAAAAACUACAAAAAAACUACCA'
p96
aF1.0
aa(lp97
S'Worm 1'
p98
aS'AAAAAAAGAGUGGGUGGACUUCUCAAAAGUGGUGGACUCAAUCCC'
p99
aF0.8666666666666667
aa(lp100
S'just down to 1 bulge'
p101
aS'AAAAAGCCAACUAUCAAAAGAUAGAGAGAAAACUCGUGCGCAAAAGAUCAGAUAAAAGUCAUACGAAAGUAAGAUCAAAAAAAAAAAAAAAAAAAA'
p102
aF1.0
aa(lp103
S'Iron Cross'
p104
aS'AAACAAAGAAAGAGUAUGAAAUAAGGAAAAAAUUUUCUAGAAGAAAUAGAAACCUAAGACAAAGGUACCCAAGCUGGCUAUAAACGGAGAGAAGUCCAGUGAAGCUAUUACAAAGUAUGUUAA'
p105
aF0.9349593495934959
aa(lp106
S'loops and stems'
p107
aS'AAAAAGACUAUCAAAGAUCAAAGAUCAAAGACCAAAAAAAAAGAUACAAAAAAAAAAAAGUAUCAAAGGUCAAAAGAUCAAAAAAAAAAGAUCAAAGAUCAAAGAGAAAAAAAACUCAAAGAUCAAGCAAAAAAGCAAAGAUAGUCAAAAA'
p108
aF1.0
aa(lp109
S'Water Strider'
p110
aS'AAAAAGGUCAUAGUACUACAGGAAAAUCCAGUAAUUUGGGGUGGGGGCGGCCUAAUGGCACCAAAACUUAUAUACAUGGAGUGGGGAAAAAAAAAAAAAAAAA'
p111
aF0.912621359223301
aa(lp112
S'The Turtle(s) Move(s)'
p113
aS'AAAGGUAAUGCAAAAGAGGUUGUCAAAAAAAAAGGCGAUUUCAAAAGAUCAAAAGGGUCAAAAAGAGAAAACUUAAUGGUACAAAAAAAGUACCUAAACGGAAAGUUAAAGUAAAAAUGUUAAUACGAAAAGAUAUCAAAAAAAGAUAUCGAAAGGGAAAACCCAAAAAGAUAUUAAAACACGAAAAAAGUGGAGAGCAAAAAAACUCAAAGAUUCAAAAAAGGAUCAAGGAGCAAAAAGUUCAAAAUAUCAAAAAAAAGUGAAACCAAAAAUUAAAAAGCUAAAAAUCUAAAAAAAAAAAAUUAGAAAAAAACUG'
p114
aF0.9873417721518988
aa(lp115
S'Adenine'
p116
aS'GACACGGAUAUCAGAAAUCAGCUAUGACAUAUCGGAUAUCAAAAGAACACAAAAAAGUGUUCAGAUAUCAGAUACAAAGACUAUCAAAGAUAGUCGUAUCAGAUAUGAGACAGAUUAUGCGAAGCAUAAUAAACUGUCGUAUAGCAAAAGAUUUCAAAAGAUAUCAAAUGUGUC'
p117
aF1.0
aa(lp118
S'Tripod5'
p119
aS'AAGAUCGCUGAAAAUCAGCCCUCUAAAUGAGGGAUCAA'
p120
aF1.0
aa(lp121
S'Shortie 6'
p122
aS'GAGAAAUCUAGGAAACUUCCGAAAGGGACGAAAGU'
p123
aF1.0
aa(lp124
S'Runner'
p125
aS'AAAAGGAGGAGCUCGAAAGCAGGAAACCUGAGAGCGAGAGCAAUAGGGGAAGCGGAAACUAGAAGGUGAAGCCAAGCUCACCCAAAGAGAAGGGUAAAGAUCACUCAUCUUAAAAA'
p126
aF0.9482758620689655
aa(lp127
S'Recoil'
p128
aS'AAAAAGAUACAAGCAAGCAAGAGAAGAGAAGCAAGCAAAGCAGCACUCACUCAGCAGCAGUAUCAAAAAAAAAAAAAAAAAAAAA'
p129
aF1.0
aa(lp130
S'[CloudBeta] An Arm and a Leg 1.0'
p131
aS'AAAAAGAGAGAGACAAAAGUACUCGACAGCAAAAGCGUCACUCAAAAAAAAAAAAAAAAAAAA'
p132
aF1.0
aa(lp133
S'[CloudBeta] 5 Adjacent Stack Multi-Branch Loop'
p134
aS'UGCUCGCUCGAAAGAGCGGAGGAAAGCCUCCCUCGCUAAUGCGGGGUAGGAAACUGCGAGCAA'
p135
aF1.0
aa(lp136
S'Triple Y'
p137
aS'AAAAAGUUCGACGGUAUAAAUGAGAGCCCGAAAGGGCCAUGAGUUCCGCAAAAGCGGGAUAAAAAGAUUGUCCGAACAAAAAAAAAAAAAAAAAAAA'
p138
aF0.9175257731958762
aa(lp139
S'Misfolded Aptamer'
p140
aS'GAUGAAAAAGGCGCCAAAGGCAGUAAAAACAAAAAAAAAGCAAAAGCAUC'
p141
aF1.0
aa(lp142
S'Flower power'
p143
aS'AAAAGGGCCGUACCAAGUACAGAUAUAAGAAAAUUUAGCAUGUAACACUAAGGCCUAUUGUCUAAAGUAUCAAAUAUGCCUUACAAAAAAAAAAAAAAAAAA'
p144
aF0.8823529411764706
aa(lp145
S'Kudzu'
p146
aS'AAAAAUAGUAAAGGACGCAAGGACAGCAAAGCGUACGAGGUUCGUAAGGCACAAUAAGGAAAAUGCAAACGCAUAAGUCUCGAAAAAAAAAAAAAAAAAAA'
p147
aF0.9603960396039604
aa(lp148
S'"1,2,3and4bulges"'
p149
aS'AAAAAGGUGUGAUACAAAGGUGAAAAUCAAAGGAAACUCGCAACCAAAAUGUAAUUUGAAAAAAAGAGGAGAAAGCUCAUAAACAGAAAAAAAAAAAAAAAAAAA'
p150
aF0.9809523809523809
aa(lp151
S'medallion'
p152
aS'GAUAUCAUAAAUCGAAAGAUUUAAGAGAAAGCUCUAGGAAAACCUCUUUAGCAAAAGUUAAAAUAGAAAACUAGUAUAUCAAAAGAUAUAGUAGGAAACUAUUAGAAAACAAUCAUAUCAAAAGAUAUGUUGGAAAACCAUCAUGUCGAAAGGCAUGAUACAAAAGUAUUUGAAAACAUAUCUGAAAAAAUUUAGAGUCGAAAACGAAUAUAUCAAAAAAUAUAUUCCAAAGGGAUUCGAAAGAUAAUAGAUCAAAGGAUCUACCAGUAAUCUAAUAUGUCAAAAGACAUAAUAAAAAAUAAAUACAAAAGUAAAGUCAAAAAAGUUAUAAGAUAUC'
p153
aF0.8545994065281899
aa(lp154
S'[RNA] Repetitious Sequences 8/10'
p155
aS'AGCAAAAAAGCAAAAAAGCAAAAAAGCAAAAAAGCAAAAAAGCAAAAAAGCAAAAAAGCAAAAAAGCAAAAAAGCAAAAA'
p156
aF1.0
aa(lp157
S'Documenting repetitious behavior'
p158
aS'AAAAAAAGCAAAAAAAAAGUAAAAAAAAAACAAAAAAAAAGCAAAAAAAAAGCAAAAAAAAUGCGAAAAAAAAGCAAAAAAAAACCAAAAAAAAAGUAAAAAAAAAAGGAAAAAAAAGCGAAAAAAAAGCAAAAAAAAAGCAAAAAAAAAUGAAAAAAAAACCAAAAAAAAAGUAAAAAAAAAGCAAAAAAAAAUUAAAAAAAAAGAAAAAAAAAGGCAAAAAAAAAGCAAAAAAAAAGCAAAAAAAAACGAAAAAAAAGGCAAAAAAAAAGCAAAAAAAAAGCAAAAAAAAACUAAAAAAAAAACAAAAAAAAAGCAAAAAAAAAGCAAAAAAAAAGCUAAAAAAAAGCAAAAAAAAAGCAAAAAAAAAGAAAAAAAAAAACAAAAAAAAAGUAAAAAA'
p159
aF0.96
aa(lp160
S'7 multiloop'
p161
aS'CCGUGUUACGUAAGUAGCGACCCGAAAGGGUCGCUAGGAAACUAGCGAGACAAAGGUCUCCCGUCUAAUGAUGGCCAUAUAAUUAUGGGCGG'
p162
aF1.0
aa(lp163
S'Kyurem 7'
p164
aS'AAAGGGACGCAGGGCGAAAGUCUAGAAAACCACGAUGAAAAACGUACGGUACGAAAAAGUGAAACCCGAGCCUCGGGAUGAUAAAAAAAAAAAAAAAAAAAA'
p165
aF0.9117647058823529
aa(lp166
S'JF1'
p167
aS'GACGAUGCAUAAGAUACAAGAUACAAAGGAUGUCAAGAUACGAAUAUACAAGAUAUCAGCCAUUGAUAUUAGAAAACUAAUAUCAAUGGCAGGAGAAAACUCAGACAUUGACUAAUGUCAAUGUCAAGAUACAAAAGUAUCAGAUAUCAGUAUGAGUAUCAGACAUCAAAGACAGAUGAAAAAUAUACUGUCAGGACAUUGAUUAUAGAUUAUAUUAGAAAACUAAUAUAAUCUAUAAAUCAAUGUCAAAGAUACAAAAAAGUAUCGACAUUGAUCGAAAGAUCGAUGUCAAAGAUCAAAAGAUCAAGUAUCAAGUAUCAGAUCAGACAGAGAAAACUCGUCGAUCAGACGUAGUCAAAAGACUACCGUCAUAUGAUAUACGUCAAA'
p168
aF1.0
aa(lp169
S'multilooping fun'
p170
aS'CUGGGGGGGACAACAAGAAAUGUAACACAAAAAUAA'
p171
aF0.8333333333333334
aa(lp172
S'Multiloop...'
p173
aS'GCGCAGUUCAGCGGAAACGCACAGAAAAUUGAAAGAAAGGGCGGGGUAGUCUAUUAGAAAACUGAUUAAACGCAGGGAACGGGUUAAAAAAAGAGCUGCGGAAACGCGAGC'
p174
aF0.9459459459459459
aa(lp175
S'hard Y'
p176
aS'AAAAUGUGCAUACAGAGUGGAAAGCCAUUCUAGAUGGCUGUGUUGUAAUUAACAUGGCCGCGAUCAAA'
p177
aF0.9705882352941176
aa(lp178
S'Mat - Elements & Sections'
p179
aS'AAAAGGUUGAGAAGGAUAGAAGAUUGCAUUAGAUGACGGGUGAAAGCACCUUACAGCAUAGCAAGAAACAUCUGACAAACGCAGCAAAAAAAAAAAAAAAAAAAA'
p180
aF0.9619047619047619
aa(lp181
S'Chicken feet'
p182
aS'AAAAAGGAGCAGGAAGCCCGCAAAGCAAAACCUUGUCGCAGAAAGUUUCGGAACAGCAGAGCUAAAA'
p183
aF0.8208955223880597
aa(lp184
S'Bug 18'
p185
aS'ACAAGAAGGGGGCUGAUACUUCUAAGGUGUACUUCAGUGACCAGUAGAAAUCA'
p186
aF0.9245283018867925
aa(lp187
S'Fractal star x5'
p188
aS'AAAAAAACAUUCGAAACUUAAAAAAGUAAGAUCAAAAGAUCAAUUCCAAACGGAAAAGAGUAAAGACUCAAUGAAUGUUAAAAACACUGUACAAGACCGAAAGGUCAAGAUUAAAAGAUCAAGAUGAAAGCGUCAAAAUCAAAAGAUUAAGUAUAGUGAAAAGGACUUUCAGAGAGCUAAUGCUCAGGAUCAAAAGAUCAUGCUCAAAGGAGUUAGCUUAAAAAAGCAAUGAAAGUCAAAAAGAUACUGGAAGAUCAAAAGAUCAAUACUGAAAGGUAAAGGUCAAAGGACCGAGCGGAAAUCCGUAGUCAGUAUUAAAAUGGCAGUGGAAGUACAAAAGUGCAAGAUCAAAUGAUCAAGAUCAAAAGAUCGAGAUUGAAAAAUCGAUCACUGCCUAAAA'
p189
aF1.0
aa(lp190
S'Crop circle 2'
p191
aS'CGUAUAUAAAUUCAAAAAGAAAAAAAAAGCCAAAAAAAAAAAAAAAAAAAAAAAAAAAAAGACAAAAAAAAAAAAAAAUCGAAAAAACACGUAAAAAAAGUAAUAGAAAA'
p192
aF0.9454545454545454
aa(lp193
S'Branching Loop'
p194
aS'UGUCCUUAAAAAAUAGAGGAAAGCCUUCCGGGCUAAAAAA'
p195
aF0.95
aa(lp196
S'Bug 38'
p197
aS'GCGGUCACAUGCAAGAAACGUGAUGAGGGAAAUCGA'
p198
aF0.9444444444444444
aa(lp199
S'Simple Single Bond'
p200
aS'AAAAAAGGAAAAAAAUGAUCAAAAAGAUUUAAAAAAAACAAAAAAAAAAAAAAAAAAAAAA'
p201
aF1.0
aa(lp202
S'Taraxacum officinale'
p203
aS'GUGCAAAGGAUGCAGAGCGAAAGACUCAGCGGAAAGUACGCAAGGCAAAAGAUUUUGGGCAAAAGACCCCAAUCAAAGUACCCGGACAUUGAUAAGUCAUAGAUGUAAAACAUACUAUGACAGAUACAAGACAUAGUUCAAGACUAUCAAGGAUAGUCAGGGCUGUGUCGAUCAGUGCUCAAGGAGCACGAUCGUAUCAAAUUAUCAAUGUCAUAGCGAAAGACUAGGACCAAAGGACUCAGAGUAAAAAAUCCAGAGCAAAGGACUCAAGAAAAAAGACCU'
p204
aF0.950354609929078
aa(lp205
S'Headless Bug on Windshield'
p206
aS'AGCAACAAAAAGGAGCUAAGUGGUAUAAAAAAAAAAAAAAAAAAAAAAAUUGCAACAAUGAUAUCAAAGUGGCAUUUAGGAGAAGGAAAAAAAGUAAAAACAAAAAAACCCUUAAAAAAGGCAGAACCAAAAAAAGGGAAACGUAAGACACAAAUAAAAAAAAAAAAAAAGUUGAGCUGCUUAGGUGUUCAAGGAACUCA'
p207
aF0.94
aa(lp208
S'Pokeball'
p209
aS'AAAAACAAUUAAAAUCGAGUGGGAGUUUCGUGCAAGCAGCGUUCCUUAGAAGCCUGAUAGCAGCGCAAAGGCCUCAGGAGGGAUUGUUAAAAAAAAGCCUGUAAAACAUAUGCAACAAGAUCUUCCAAGCUAGGAAUCAAAUAAAAUAGAGACCUGCAGAAAGAGAGCACCUAUUAUAGGCAAA'
p210
aF0.8586956521739131
aa(lp211
S'Variation of a crop circle'
p212
aS'AAACACGAAACCGAAAGCUAAUUCAGUCAAUGUAACAGGUAAAAAGCUAAAAUGGGAAAAAAGGAAAAAAAAAGUAAAAAAAAAAAAA'
p213
aF0.9545454545454546
aa(lp214
S'Loop next to a Multiloop'
p215
aS'AAGACAUUGUUAAAAAGCGGUUGUCAAAAGACAACAGGCUAUUAAAAAAUAGUUGGAAAAAAUGCAAUGUCGA'
p216
aF1.0
aa(lp217
S'Snowflake 4'
p218
aS'GGUCAAAUACCCUAUGACAAAAUUCCAUGAUGACACGCGAAAGUGAUGCAAUGAUAUAUUAAGGACAAAGCUCACAUCGUGAAAGCGUGUCUAGAUCCUCGAAAGGCGUAGGACCAAAGGUUAAUACCAAAGGUGCUGUGCCAAAAGAGGAUUAUGGUACUGGAAAAUCACGGAGACGAAAUUUAAGAUGGAAGAAGCCGUGCGGAAAAUGUACCUGGAGUCCCAAAAGGCAUAGUAUCGAAGAUAAAGACGAAGUGUCCUGUGCCAAAGGGGACUCAAGACACUCUAAUGCGAUCACACCAAAGGUGAAGAUCAAAGAUCGGAUCUCUAAUGAGUGUCAAUAUGGAUAAAGGUCAUAGGAUCAAGGAAC'
p219
aF0.8810810810810811
aa(lp220
S'Mat - Cuboid'
p221
aS'GAGGGAAAAACAAGCAAAGACAACCAAAAGAAGUUAGGAAAAGCAGGGAAGGAAAAGAGGCAGACAACAAAAAGCAUGUAAGCAAACAAAAGCAAAUAAGUAAGGAAGCAAAAGCUGGCAAACAAGGGACCAAAAUCAUAAAUGCUUCCAUGCGGGCAAAAGAUUGGGUCCUAGCAAGUGAGUAAAAGCCUGCGAGCAAGCUUAGUCGCGAAAAAGCUUUUAAGCGGCCGAACUAGCGCGAACGGGCAAGGUAUCAUUCGCAAGCAAGGAAGCUGUUACGGGCGAUCGGGUAGGGGAGCGAAACCAAACAAAUAAGCGCAAGCAGGUUAGCCGUAGUAAGCGACGCAAUUAACCGCGUGGAAGGCAAGUGCAAAUUCAAC'
p222
aF0.8631578947368421
aa(lp223
S'Misfolded Aptamer 6'
p224
aS'AAAAAGGACAAAAAGGAUCAAGGAAAGAGAAAAAAAACUCAAAACGAAAAGAUCAAAAAAAGUCAAAAAAAAAAA'
p225
aF1.0
aa(lp226
S'Snowflake 3'
p227
aS'UAGGCAAAACUAGGGGUCAAACGACAAUAUCGGAGCAAGAGUAAUCUCGCCAGCAAAAGCUACAAAGUAUAAAAAUAAGGCUAGAAAGCUAAGGUUCAGAUCAAGAGAAAAUUCGUCUUGUAAUCAAUCGAAGAUUCUAAUGAUGGCGAGAAAGCUCAAUAGAAUGCCGAGGCGAAAGCCGACGGCAAAACCUACAAAGUACCGAAAGCAGUCGAGAAAACACAAGGUGAGAUUAAGAGAAAACACAACAUCAAAAGAUACAAAGUAUAUAAUGAACUUAACUAAACUUAAAACCGGAACAAUAGAAAACAAGGGACCAAAGUCGAUAAAGUAUCAAAAGAGUCGUAUAAAAAUAAAGUACAGAUAAAGAGGAAACUCCCCGGCGAAAGCCUA'
p228
aF0.8040712468193384
aa(lp229
S'Hard Y and a bit more'
p230
aS'AAAAGAGUCCCCAUGUACAAAGGUACAGGGGAUGCAGUAAUAGCAAAAGUUAAAGAUGGUAAAAUCCAUCAAGCGGUAUCGGGCUAAAAAAAAAAAAAAAAAAAAA'
p231
aF0.9716981132075472
aa(lp232
S'Mat - Lot 2-2 B'
p233
aS'GAAUUCUUGAAGUCGUAAAAUCAUUGAGGAAACUAAAACUACGGACAUCUAAAAUUAUGAACUAACAAGCUGGGGCUGGCAAAAGGUUGGUGUAGCAAAAGAUAAUUAACGGUAAAAAUCAAUCGCAAGCACUGGGAAUCAAAAGGGGAAUGAGGAGCAAAAUCUUGGUAGAAAUGAAACCCUAGAGCGGCUAAAACGGGCCAUAAGCGAGCGACCACGGUCCAAAGUCUGCAGUGGGAAAAGCAAAAGUCCAACUAAAAGCAUGCGAAAGAGCACGUAAAAAC'
p234
aF0.8345070422535211
aa(lp235
S'Shapes and Energy'
p236
aS'AAAAAUGAGAGCGGUUGAAAAGAAGAAGUCCUCGUGAGUAUUAAGUCCCAAUGUUUUUCCAACAAAGAGCGUGAUCUCGCUAAAAAAAAAAAAAAAAAAAA'
p237
aF0.9405940594059405
aa(lp238
S"Spiral of 5's"
p239
aS'AAAAAGAUACAAAGAUAGAAAGAUAGAAAAGAUGCAAAGAUAGAAAGAUAGAAGAUACAAAAGAUACAAAGAUAGAAAUAUAGAAGAUACAAAGAUAGAAAGAUAGAAGGUUCAAAGAUAGAAGAUAUAAGCUACAAGAUGAAAGAUACAGAUCGAGAUAGAUUGGAAAAACCAAUGGCGGCUGUCAAAAAUGAUCAAAAAGCAUUAAAAAGUAACAAAAGGUUUCAAAAAAUAACAAAAACUAUCAAAAAGGAUCAAAAACUAUCAAAAACUAUCAAAAAGUAUCAAAAACUAUAGAAAACUAUCGAAAAGUAUCAAAAAGUAUCAAAAACUAUCAAAAACUAUCAAAAAGCAUCAAAAACUAUCAAAAACUAUCAAAAAGUAUCAAAAAUAAAAA'
p240
aF0.9949622166246851
aa(lp241
S'Campfire'
p242
aS'AAAAGUAUAAGGUAGAAGAUGAAGAGCUAAAUGUUCGUACUUUAUGAGAGACCAUAUACAUAAGCAGCAGUGACGAAAGUACACGCGCGAGACAUCACCAAGAAAGUCGGGAGACCAUCCGAAAGGACCAGUUAGGUCCUCUAUAGUGUGAAUCUAGGGGACACAGGUAGAAAGAUCGUGCUAGAGGUCACAAAGUUCGCACUGUGGGAAAC'
p243
aF0.8254716981132075
aa(lp244
S'Anemone'
p245
aS'AAAACUUUAUAAUUAGAGUGGUUUGAAAAGACCGAAUUCUGGUGGGUUCUUCCUAAAGAAGGGUUAAUGAAAGCCUUGAGAUACGAAAGUAUCCAGCGUAAUUGAUGGCUUUAAAAAUAGAGCACCCAGAAAGCUGGGGAGAGUGAAAAUUUUCAAGCCUAAUGUGCUGAUUUCAAAAGAGAUCGGUUCGAAAGGACCUGGCGGUAAUACGUGA'
p246
aF0.9672897196261683
aa(lp247
S'Fractal 3'
p248
aS'AAAAAGUUGAUGGACCAAAAGAACAAAGGUGAUGGGUAAUUGAAAAGGCUAAUCUUUGUACAUAGUGAAAGCGUAAAUCGAGGGAGAGAGGUAAACCUCAAAAGGACCUACAGCGAAAA'
p249
aF0.9327731092436975
aa(lp250
S'Kyurem 5'
p251
aS'AAAAUGUCUUAGCUGGAAAUACGUGAAAAGGCAAGAAAGAUGAUAAAUAUCUGUUGCGGAAAAACUCUAGGCCGUCUAAAGGGCUAAAAAAAAAAAAAAAAAAA'
p252
aF0.9134615384615384
aa(lp253
S'Snowflake Necklace ( or v2.0 )'
p254
aS'AACAUUGUUGUUAUCAGAUACAGCAAAAAGCAUCAAAAAGAAUCAAAAAACAUCAAAAAGAAACGAAAAGAGGUCUCAUAUAAAAAGUGAGAAACAUCAAAAAGCAACAAAAAGUAUCAAAAAGAGCCAAAAAGGAUCAAAAAGAAGCAUCAGGGUAAAUCCCAGAUACAGCAAAAAGCAUUAAAAAGAAUCAAAAAGAAGCAAAAGGUAUCGAAAAGAAGUAACUGCGAAAAACGUUGAUACACCGAAAAGGAUCAAAAAGAGUGUAAAUCAAUCAAAAAGAAUAAAAAAUAGGGAUUAGAUAAAAAGUCAGAUAUAACAAAAAGUGCCAAAAAGGGUCAAAAAGAAUCAAAAAGAAUCAAAAAGAGGUGUCAGAUAAUAGCAAUGUU'
p255
aF0.8251928020565553
aa(lp256
S'Methaqualone C16H14N2O Structural Representation'
p257
aS'AAAAAAAGAUCAGAUCGGAGAGAGAAAACUCAGAUACUCAAAGGAGAGAGAGAGAAAACUCGGUGUGGGAAAACCCAUAGAAAAAAACAAUCACACUCAAACACUCAGUAUCAGAUCAGAUCAAGGAAUGGAAAGCGAAGCAAAAAAAACUAAAAGAUAGAAAACUGUCUAAAAGUAGAGGAAACUCCUAAUCAAAGAUCGGUAUCAGAGGGAGACUCAUAGAGAUAAAGGAGAAAACUCUCUCAGGGAAAACUCGCUAGGGGGAAACCCAGAAACCGAAAACGGAGUCAGUGGAGAAAAAUCUGCAAAAGCGAGCUUAAUCUCAGCACUCAGAUCAAAGGUCAGAUCAAAAAAA'
p258
aF0.9070422535211268
aa(lp259
S"Cat's Toy 2"
p260
aS'AAAAUUGACUUGUAAAAUAUAGAAAGAAAAAAAAAAAAAACUACUAAACGGAAAUAAAACUAAAGAGAAAAAAAAGCAAAAAAACCGGGUUGAAAAA'
p261
aF0.979381443298969
aa(lp262
S'Zigzag Semicircle'
p263
aS'AAAGAGGUUACAAGAAAACGAGAUAGAUGUAAAA'
p264
aF0.9411764705882353
aa(lp265
S'Short String 4'
p266
aS'AAAAAAGCAGGAAGGAAGGAGCAGCAGCAAAAGCGCAAGAAAUAGUUGACGAAAGUAUACAAGAAAUACCGGUGGCAAAAAAAAAAAAAAAAAAAAA'
p267
aF0.9381443298969072
aa(lp268
S'Gladius'
p269
aS'AAAAAUAAUGAAAUAAAUGAGAUUAGAAAUCGUGCAGAAGAUUGAAAGAUCAGAUACACGUGAGGAUGUCUCAAGGGAGCAAAAGACAUUGCAUAUUGAAGAUGCAGAUCGGACCAAGACAUAUUGUCAGGUAAGAUCGACAUCGACAAUAGACAAUGUCAAUAGCUCAAAAGAGAAAAACUCAAUAGUAUCAUGCAAAGACAUAUACGUAAUAGCUGAGAACUGCAGAGCAGAAGUCGUUCAUAUAUCAGUUACAGAGUGCAGUGGGAACUCUAAUGAGUUCAACGCGACGCUAAGUAAACGAUAUAAGAACGAUACAAGCUCAAAAGUCCUGUUCUAAGAAGUAUGGAGGCAAAAGCUUAAAGUCUCUGAAACAUACUAACGAGGCAAAGGAGAAAAC'
p270
aF0.89
aa(lp271
S'Thunderbolt'
p272
aS'GCAAGAUAGAAAAAAAAGAGCAAGUAAUGGGGGGAAUCAGGCAUUGGAAAAAAAAAGCCAAAAGGGAUAAAAAAUCCAAAAAAGCGAAUCGACCAAAAAAUUUACAAAAAAGACCUAGCGAGCAAAAAGAAAACAGCUAUAAAAGAGAAAAAUUCUCGGGAACAGAUUCAAAAACUCGGAUCAAAAAAAAAAAGAUUAGGAAGCCAGUACAAAAAAAUAAAGGUCAAAAAAAUCAUCGGGGGGAUAUCAAAGAUGUCAGCACGCAAAAAAAAAAAGUCAGGAAAAAAAAAAUAGCAAAAGCUUAUGAAAAAGAAAAAAAACGAAAAUAUAGGAACAUUAAACCAAUGUUAAAAAAAUUGACAAGCAUAAAAAGAAAAAAACACUAUUCAGCA'
p273
aF0.9438775510204082
aa(lp274
S'Mutated chicken feet'
p275
aS'AAAAAAACUACCCCAAAAGCACGGAACCAAAGAACGUCAGAGGGAAACCCGUAAAACAAGGAGUAACAGCAUAUAUUAAGCAAAGAGAAGCGUAAAAAAA'
p276
aF0.88
aa(lp277
S'Chicken Tracks'
p278
aS'AAAAAAAAGACUGUGCUAGAAAGCUAGAUCAUCAAAGGAUGUACAUCAAAGGAUGCAUAGUCGAUACGACUAAGCCGGAUGUUCAAGGAACUAAGAGAAAAAUUGUAAAAAAAAAA'
p279
aF0.9482758620689655
aa(lp280
S'Looking Back Again'
p281
aS'GAGAAGACUAUCGAAAAGUUAUCAAAGAUAACAGAUGAGGACCUCAAGAGGCAUUCGAGAGAUGUAAAGAUCGAAAGAUCAAAAGCAUCAAGUCACGUCAAGCUCGUGGAAAGUAAGCAAAAGUUUAAAAAAACUUGAUACGAUACAAAGUAUCGAUGCAAAGUAUCGACAUCGCUGCAUUAAGCCGGAGAGCAUCAAAAGAUCGGCAUUACGUAAAGGGAGAAAACUCAAGAUGUCAAAGUAUCGAGCGGGUACAGGAGAAAAAAGAGAUGAAAAACAAAGAUCGAAAAGAUCUCAUAAACUCGCUCCGAUCAAAAAACCCACAUCAAAGGAUGUGAAUCUUAAAAGAAUAUACUAAGUAUAAACGUGGAAAAGAUCGUAUCAAGCUC'
p282
aF0.8894601542416453
aa(lp283
S'Multilooping 6'
p284
aS'AGAAUACGCCCCAUCAAAGCAUUGCACUGGAAACGGUGGACUCUAUACCAAAGGGUAUCAGAGAAAUUUCUAGAAGUGUCAA'
p285
aF0.926829268292683
aa(lp286
S'Cesspool'
p287
aS'GAAGAAGAAACCAAGGGAAUUGAGACAAAGUCAGCUAAGACCCAACUGCAAAUGAACAGUGUGAAAGAACAAAAAUAAAGGAAUUACAACAUCAAGAAAACAGGCAUUCAGUGACAAAGUAAUCAAGAACUCAAAUUUAAAACAAUACAUGAAAAGAAGAAAAUCAAAACUAGAACAUCUUUUAGGAAAACAAGAGUUUAGACUCUAUGAGAACAGAAACUCAACUAGAAAAAAAGGAUUUAAAAGAAUAAAAAGAAAAUGAAAAGGUAGCGUUAGGAAAGCAAGAGGUUAGGGGCAAAGUUAACAAGAACAUAAAUUGAAAACAAUAUUAAAAAAUGUGAAAAAGAAAACAAAAAGC'
p288
aF0.7346368715083799
aa(lp289
S'Hoglafractal'
p290
aS'AAGGGAAAGUUAGAAAAGAUACAAAAAAGUAUCCUAACGAUCAAAGAUCAAAAAGAUCGAUCUGUAAGAGAAAAAUCACAGGUGAAAGAUCAAAGAUCAAAAAAGAUCGAUCGACAAGAGAAAAACUCGUCGCAGCGAAAGCGCAUAUCUAAAGAGAAGAGUAAAAACUCCUCGCAGCUAAAUGCGCAUUAAAAGUCAAGCCCGAAAAUCAGCGAAAAAGCGGGCCAAAAAGGUAGAAAAUAAUGUGUCAAAAAAGGGGAAAAACUCACAAAAAGUAAGCACUGCGAAACGCAGUGAAAAAAAGACAUGGAAAAAGGGUUGAAAUGAUAAAAAAGCAAGCCAACGAAAAGCAGAUGAAAUGCGAAAGCUCAAAAGAUAUUUCAAAGAGAUAACAUCGCGU'
p291
aF0.905
aa(lp292
S'Bullseye'
p293
aS'AAAUAGCAUUAAAGAUCAGGAUCAAAGAUCAAGAGAAAAUCUCCUAGAAAAAAAGUCCAUCAAAGACUAAGACCAAAGGUCAAUAUCAAAGUUUGUCAAAAAAAUGAAGACCAAAGAUCAGUUUCGAAGAAAAAGAUCAAAGAUCUUCUAAAAAAACGCGGUCAAAGACCAGGAUCAAAUAUCAAAAUCAAACAUUGCGAAA'
p294
aF0.8514851485148515
aa(lp295
S'Shooting Star'
p296
aS'ACAAUCGAUCGACUUUGAAAUACUUGCGGACAGGCGGCGAAAGAGGCACGUCAGACAAGGAGUAAAGUCAGAUUCUUGAGUUACACGGAGUUGCAUACAGAUCAGCAAAAGACGAUACGUUGACAAACUCGGGAUCACCAAGUAAAACAAGCUCGAUCGUAUCAAAGAUACAGAGCGAAACGUUCGAGAAAACACAGAUCAGAUCAGAUGAGAUCCAAUAUUAUCAAAGAUAGUGAGGGAUAAAGAACCGAUCGACUUACAAAGUGAGUCAUAUCCAAAGGUUCCGUUGUAAAAGAAAAUAUGUUAGUUUAGUGACAGUGCAGAAAAAGGCGUAACGUCUCGGAAACUGAAUUUACAGAUUGUA'
p297
aF0.8269230769230769
aa(lp298
S'Teslagon'
p299
aS'AAAAAAUAAAAAAAGACAGUAAAAAAAGCUUCAAAAAAAAAAAAAAAGAAAAAAAAAAGCAAAAAAAAAAAAAAAGUUACAAAAAAAACGGCAAAAAAAGCAAAAAAAAAAAAAAACCAAAAAAAGGAACAAAAAAAACAUCAAAAAAAAAAAAAAAGAAAAAAAAAAGGAAAAAAAAAAAAAAACCGGCGAAAAAAGUACCAAAAAAAGUAAAAAAAAAAAAAAAACAAAAAAAGGAGUAAAAAAAUUACCAAAAAAAAAAAAAAAGGAAAAAAAAGGCAAAAAAAAAAAAAAAGUAGGAAAAAAAACGCCGAAAAAAGUAAAAAAAAAAAGGUAAAAAAAAAAAAAAAACAGCAAAAAAAGGACCAAAAAAAUAAAAAAA'
p300
aF0.9214659685863874
aa.