(lp0
(lp1
S'Simple Hairpin'
p2
aS'AUAUCAAAAAAGAUAU'
p3
aF1.0
aa(lp4
S'Arabidopsis Thaliana 6 RNA - Difficulty Level 0'
p5
aS'AUAUAUCAAAUGACAAAAAAAAAAAGUCGAUAUAUCAAGAUAUAUAGAUAUAUAGACAAAGAUACAAAAAAGUAUCAGUCUAUAAUAUCUAUAUAUCAAGAUAUAUCAAGAUAUAU'
p6
aF1.0
aa(lp7
S'Prion Pseudoknot - Difficulty Level 0'
p8
aS'GAUGUCAGAUCGAAAGAUCGACAAUCAAAAAAAAAA'
p9
aF1.0
aa(lp10
S'Human Integrated Adenovirus - Difficulty Level 0'
p11
aS'UAGAUAGGUAGGUCUGAGUGCUAAAAAAAAAUGAUCGCUGUGGAGGGGGAGUGUGUCAAAAAAAAUAUAUUUGGAAAAAAAGCCAGAUAUAUUCCAAGGGACACCAAAGUUACAAAAAACAGUAAAGAUAUCUAAAAAUGAUAUUGAUCUAAAAAAAAAAUGCGCUCUGACCAAAAUACCUAAAAUCUAAAA'
p12
aF0.9791666666666666
aa(lp13
S'The Gammaretrovirus Signal - Difficulty Level 0'
p14
aS'AAGUGGAGAUAUCGAAAGAUAUCAACUCAAAAAAGAUCAAGACACAUGCGGUGGAAACACCGGAAACAUGGUCGAUCAAGAUAUAUCGAAAGAUAUAUCAA'
p15
aF1.0
aa(lp16
S'Saccharomyces Cerevisiae - Difficulty Level 0'
p17
aS'GAAAUACUAUUAAAAAAACAGUAGUUAAAAAAAAAAAAAAGAGAAAGAGUUCAAAAAAGGAACUGCAUUACAAAGAGUAGUCACGUUCAAAAAAAGGAAUCGCAAAAAAAAAAAAGGCGUAAACACGCAAAAAAGGCGUGGUCUAUUAAAAGUUGCAGAAUCUCAAAAAAAGGAGAGAUAUCAAAAAAAGAUGUCAGACCAAAGUAAAAAUCUUUGCUGUAGCAAACUGGGGGAAAGUUCGAAAAACAGGGCCAACUCAAAAAAGGGGUUGAAAUCCCACGAAAAAAGUGGGUUGUUCAAAAUCGGCUGGAAGUGCGAAAAAAAGCAUUAUAUCAAAAAAAGAUAUAAAAACGUUGUAAAAAUUAGUGCCAGUCGUAAA'
p18
aF0.9894459102902374
aa(lp19
S'Fractal 2'
p20
aS'AAAAAGAUAUAUAAAAGUGAUAUACGAAGAGCAAAAAAAAAGGUUCAGGAGCAAAAAAAAAAGCUCAGGAUCAAAAAAAAAAGAUCAAUGUAUAUCACAAAGAUAUAUAGAAAGAGUAAAAAAAAAAACUCAAGACCAAAAAAAAAAGGUCGAGGUCAAAAAAAAAAGAUCAAUCUAUAUAUCAAAGAUAAUUAGAAUCGGCAAAAAAAAAAGUCGUAGCGCUAAAAAAAAUGCGCGGGUGGUAAAAAAAAUUCGCAGUCUAGUUGUCAAAUGUAUAUCGAAAA'
p21
aF1.0
aa(lp22
S'G-C Placement'
p23
aS'GAUCAAAGAUCG'
p24
aF1.0
aa(lp25
S'The Sun'
p26
aS'GAUAGAUCUACUAUGUAGCAAUCGUCAAGCACAGAUGUUGAAGCAACAAAUCGUAAAACGCAGACUGGAGAAGCCAAAGUCGCGAAGCAGAGAAGUGCAAGGCACAAUUCCCGAAUCACAGGAGUGCGAAGUACAAUCCGUGUAGCUCAGUUGGGAAAGUUCCAAAACGAGAAACUCAGGUAUGCAAGGCAUAAACCGGGAAUUACAGAGGCGGAAGCCGUAACUCGUAUAACACAGACGUGCGAACGAUAAAUCGUG'
p27
aF0.8682170542635659
aa(lp28
S'Frog Foot'
p29
aS'AAAAAAAAAAGAUAUAAUUAUCGAACGAAAGUUCCAGCUAUGCUG'
p30
aF1.0
aa(lp31
S'InfoRNA test 16'
p32
aS'AGAUACGGAUUUGUCGAAAGACAGCAUACGGUAUUU'
p33
aF1.0
aa(lp34
S'Mat - Martian 2'
p35
aS'GAUCGAAAGAUCAAAGAUAUACAAGAUAUACAAAAAAAGUAUAUCGUAUAUCAAAGAAGAUACAAAAAAGAUAUACAGAUAUACAAAAAAAGUAUAUCGUAUAUCAAAGAUAUAUGGAUAUAAAAAAAAUAUAUCCAAUAUAUCAAAAAAGUAUCUUCAAAGAAUAUAUGUAUAUAAAAAAAGUAUACAAAUAUAUUCAAAGAUCGAAAGAUC'
p36
aF1.0
aa(lp37
S'square'
p38
aS'AUAUAUCCGGUGCCGAUAUCCGAUACAAAGUAUCGAAAAGAUAUCGAAAAGCACCGAAAAGAUAUAU'
p39
aF1.0
aa(lp40
S'Six legd turtle 2'
p41
aS'AAAAAGCAAAGCGAAAGCAAACCGAAAGGAAACCGAAAGGAAACCGAAAGGAAACCGAAAGGAAACCGAAAGGAAAGCAAAAAAAAAAAAAAAAAAAA'
p42
aF1.0
aa(lp43
S'Small and Easy 6'
p44
aS'GACAGGAAAAGUAAGGAAAAAAAAGCUGUU'
p45
aF0.8666666666666667
aa(lp46
S'Fractile'
p47
aS'AAAAAAAAAAAAGCGAAAGCAAAGCAAAGCGAAAGCAAGCAAAGCGAAAGCAAAGCAAGCGAAAGCAAAGCAAGCGAAAGCAAAAAAAAAAAAAAAAAAAAAAAA'
p48
aF1.0
aa(lp49
S'Six legd Turtle'
p50
aS'AAAAAGCAAAAGCGAAAGCAAAACCGAAAGGAAAACCGAAAGGAAAACCGAAAGGAAAACCGAAAGGAAAACCGAAAGGAAAAGCAAAAAAAAAAAAAAAAAAAA'
p51
aF1.0
aa(lp52
S'snoRNA SNORD64'
p53
aS'AUAUACAAAAAGACAAAAGACAAAGAUACAAAAAAAAAAAAAGUAUCGAAAGUCAAGUCAAGUAUAU'
p54
aF1.0
aa(lp55
S'Chalk Outline'
p56
aS'AAAAAGAUCAGAUCCGAAAGGAAUCGGACAGACGAAAGUCGUCAGAUAUCGAAAGGCUAUCAGCAGCGAAAGUUAGCGAUCAAAAAAAAAAAAAAAAAAAAAAA'
p57
aF1.0
aa(lp58
S'InfoRNA bulge test 9'
p59
aS'GUUUUUGAGAGAGAGGUAUACGAAAGUAUACCCCCCAGAGGC'
p60
aF1.0
aa(lp61
S'Tilted Russian Cross'
p62
aS'AAAAAGCUGCGUCAAAGGAUGGGUCAGAUCAAAGGAUCGAUACAAAGGUAUCAGAGAGAAAUUUCGACCGAUGGAAACAUCCAGCAAAAAAAAAAAAAAAAAAAA'
p63
aF1.0
aa(lp64
S'This is ACTUALLY Small And Easy 6'
p65
aS'AAAAAAAAAAAAAAAAAAAAAAAAAAAAAAAAAAAAAAAAAAAAAAAAAAAAAAAAAAAAAAAAAAAAAAAAAAAAAAAAAAAAAAAAAAAAAAAAAAAAAAAAAAAAAAAAAAAAAAAAAAAAAAAAAAAAAAAAAAAAAAAAAAAAAAAAAAAAAAAAAAAAAAAAAAAAAAAAAAAAAAAAAAAAAAAAAAAAAAAAAAAAAAAAAAAAAAAAAAAAAAAAAAAAAAAAAAAAAAAAAAAAAAAAAAAAAAAAAAAAAAAAAAAAAAAAAAAAAAAAAAAAAAAAAAAAAAAAAAAAAAAAAAAAAAAAAAAAAAAAAAAAAAAAAAAAAAAAAAAAAAAAAAAAAAAAAAAAAAAAAAAAAAAAAAAAAAAAAAAAAAAAAAAAAAAAAAAAAAAA'
p66
aF1.0
aa(lp67
S'Shortie 4'
p68
aS'GCGAAAGCAGCGAAAGC'
p69
aF1.0
aa(lp70
S'Shape Test'
p71
aS'AAAAUCGGAUCGAGUUACAAAAAAAAGUAGCAAGACAUGCAGCUACAAAAGGUAGCGGGUCUAAUGACCAGCGGUCAAGAUCGGCAAAAAAAAAAAAAAAAAAA'
p72
aF1.0
aa(lp73
S'The Minitsry'
p74
aS'GGGAAAAAGUCUAAAUGGUUAAAUGACGAAAAGUGAAAAAAAGUACAGUCUGCCUGACGCCU'
p75
aF1.0
aa(lp76
S'stickshift'
p77
aS'AAGAUAUCCCAAAAAGGAGAUAUCAA'
p78
aF1.0
aa(lp79
S'U'
p80
aS'AAAAAGAUACAGAGAGCAGAGAUAUAUAGAAAACUAUAUAUCCGCCCGUAUCAAAAA'
p81
aF1.0
aa(lp82
S'Still Life (Sunflower In A Vase)'
p83
aS'AAUGACAUGAAUGCAAAAGGUAUUAACGGACAACGUAUGAAUUUGCGAAAAGCAAAAACAGACAAAGUCUGAACAUACGAAAAGUAUGAACGUAUAAAACGUGCGAGAUGUAUAGAUGGAUAGUUGCUCGAUAGAAAAAGCUAUCAAACUUAAAAAAAAAAAAGGAUCAAAAAAAAAAAAAAAAAAAAAAAAAAAAAAAAAAAAAAAAGGAUCAAAAAAAAAAAAAAAGUUGGUAAUAAUUUACCAGAGUAGCUAUUCAUCUAUAUAUCAUGAUUGGAAAAUGGUCUAUUUAGAAACGAAGAGAACAUUGAAAAACAAUGAAGGUGCAAAAGGUAGCAACAGACGAAAGUUUGAUCCCUUAAAAAGAGGGUGGUCUAA'
p84
aF0.9735449735449735
aa(lp85
S'Quasispecies 2-2 Loop Challenge'
p86
aS'AAAAAGAUCCAUCGAGAUCGAAAGAUCAAGAUGAGCUCAACAAGGGGGAGCAGACGAAGAACUCAAAAAGGGAACAACGUCGAUCAAAAAAAAAAAAAAAAAAAA'
p87
aF1.0
aa(lp88
S'Corner bulge training'
p89
aS'AGAUAUCGAUACAAAGUAUCAAAAGAUAUCA'
p90
aF1.0
aa(lp91
S'Spiral'
p92
aS'AAAAAGAUCAGAUAUCAGACAGAUACAGAUCAGAUCAGCAGCAGCAGCAGCAGCAAAAAGCGCGCGCGCGCGAUCGAUCGUAUCGUCGAUAUCGAUCAAAAA'
p93
aF1.0
aa(lp94
S'InfoRNA bulge test'
p95
aS'AAAAAAAAAAAAAAAAAAAAAAAAAAAACGUGUGAAAAAGACAUAAGGAACAAUGAUGAAGAAUUCACAUAAAUUGAUGUAUAUCAACGCUCGAAGUAUAAAAAUGGAUCAAAAAAGCAGGA'
p96
aF0.9836065573770492
aa(lp97
S'Worm 1'
p98
aS'AAAAAAAGGGGGGGAGAGCAGGACAAAAGAUCAGCACGCGCGCGC'
p99
aF1.0
aa(lp100
S'just down to 1 bulge'
p101
aS'AAAAAGAGCAGAUACGAAAGUAUCAGACGAAAGUCAGCAUCAAAAGAUCAGACGAAAGUCAGACGAAAGUCAGAUCAAAAAAAAAAAAAAAAAAAA'
p102
aF1.0
aa(lp103
S'Iron Cross'
p104
aS'ACACAGACAAAGGCACAUAAAGUGAGACGAAAGUCAGCCAAAGGCACACGAAAGUGAGACAAAGUCAGCCAAACGCACACGAAAGUGAGACAAAGUCAGCGAAAGUCACACAAAGUGAGUGGA'
p105
aF1.0
aa(lp106
S'loops and stems'
p107
aS'AAAAAGGGAUACAAAGAUGGAAGGUGGAAGGGGAAAAAAAAAGAUGCAAAAAAAAAAAAGUAUCAAACUCCGAAAGUCCUAAAAAAAAUGGGCAAACAUCGAAGACAAAAAAAAGUCAAACAUCAUGCAAAAAAGCUAAGUAUCCCAAAAA'
p108
aF1.0
aa(lp109
S'Water Strider'
p110
aS'AAAAUCAUGAGAGCGACGGAAGAAAAUCGACGAACGUCGUCAGACGGUUUUCGAAAGAUUACGAAAGUAAAACGAGACGGAGUAAAAAAAAAAAAAAAAAAAA'
p111
aF0.9611650485436893
aa(lp112
S'The Turtle(s) Move(s)'
p113
aS'AAGGCGAAAGCAAAAGAGAUAUAGAAAAAAAAAUUAUAUCUCGAAACAUCAAAAAGAUGAAAAGCUCGAAAGAGAGGCAUGCAAAAAAAGUAUGAAAACGGAAAGCGAAAGUAAAAUUACGAAAGUACAAAGAUAUUAAAAAAAGAUAUCGAAACACGAAAGUGAAAAAUAUAUGAAAAGACAAAAAAAGUCAACGCCAAAAAAAGUGAAACAGGCAAAAAAGCCUGAAACAUGAAAAACAUGAACAUAUAGAAAAAAAAGCGAAAGCAAAAACCGAAAGGAAAAACGAUGCAAAAAAAAAAGCAUCAAAAAGCCG'
p114
aF1.0
aa(lp115
S'Adenine'
p116
aS'AUAUCACAUAUACUAUAUGGGAUUUCAGAGUUCAGAUGGCAAAGGAUAGCAAAAAAGUUAUCAGCCAUCGGAUGCAAAGAGAUACAAAGUAUCUCGUGUCAGAAUUCAGAGUAGUGGAUCAAAGAUCCACAAAUGCUCAGAAAUCAAAACAUAUAUAAUUAUAUGAAAAGAUAU'
p117
aF1.0
aa(lp118
S'Tripod5'
p119
aS'AUCACCGGGCAAAAGGCCCGCGUAAAAGGCGCGGUGUA'
p120
aF1.0
aa(lp121
S'Shortie 6'
p122
aS'GCGAAAGCAGCGAAAGCAGCGAAAGCAGCGAAAGC'
p123
aF1.0
aa(lp124
S'Runner'
p125
aS'AAAAGGGCCAGGCCAAAAAAAAGGAAUUUUGGGACAAAGGCAAGCAGCUUAGGGGAAAUGACGACGGCAACCAAACACGAGCCGGGGGGGAAGCUAAAGGGCAACUGGAUCAAAAA'
p126
aF0.9482758620689655
aa(lp127
S'Recoil'
p128
aS'AAAAAGAUACAAGCAAGCAAGACAAGACAAGCAAGCAAAGCAGCAGUCAGUCAGCAGCAGUAUCAAAAAAAAAAAAAAAAAAAAA'
p129
aF1.0
aa(lp130
S'[CloudBeta] An Arm and a Leg 1.0'
p131
aS'AAAAUGACAGAUGCGAAAGCUAUCGACAGCGAAAGCGUCAGUCUAAAAAAAAAAAAAAAAAAA'
p132
aF1.0
aa(lp133
S'[CloudBeta] 5 Adjacent Stack Multi-Branch Loop'
p134
aS'GAUAGCAUCGAAAGAUGGUGUCGAAAGACACGAUACGAAAGUAUCGUGCGAAAGCACCUAUCA'
p135
aF1.0
aa(lp136
S'Triple Y'
p137
aS'AAAAGCACCUAUCAACCUAACGAUUUAUCCAAGGAUACAUAUACAAGCUUAAUAGCCGAUCUAAUGCCUGAUCGGUGAAAAAAAAAAAAAAAAAAAA'
p138
aF0.9175257731958762
aa(lp139
S'Misfolded Aptamer'
p140
aS'AUACUAAAAAGGGACAAAGUCAGCGAAAGCAAAAAAAAACCGAAAUGUAU'
p141
aF1.0
aa(lp142
S'Flower power'
p143
aS'AAAAACGGUAGGCAAGUGCCGGGUUUGUAUAUAAUGGGAAUCAAAGCAUAAAACCUAUGCAUGACCAGCCGGAAGAAUCACGAAAAAAAAAAAAAAAAAAAA'
p144
aF0.9215686274509803
aa(lp145
S'Kudzu'
p146
aS'AAAAAGUGACAUUAAAGGGAUUCCAGCAAAGCGUGAAUAUUUUGCAAAUGAAAAGGGGACUAUGGGAAAGUUUAUGGGCGCAAAAAAAAAAAAAAAAAAAA'
p147
aF0.9207920792079208
aa(lp148
S'"1,2,3and4bulges"'
p149
aS'AAAAAGCCGGUAAUCGAAAGAAAAACUGGGUAAAAGUACACCAGCAAAUGUUUAGUAAAAGGAAAACUUGGGAAAUCAUGAUACUUCAAAAAAAAAAAAAAAAAA'
p150
aF0.9809523809523809
aa(lp151
S'medallion'
p152
aS'GCCGCGACAGAUCGAAAGAUUUGAGACGAAAGUCAGAUGAAAAUCAGGUAUCGAAAGAUAUCACACGAAAGUGAGUUAUAGAAAUAUAGCAGACGAAAGUCAGCGAAAACGCAGAUAUCGAAAGAUAUCAGUCGAAAGGCAGAUAUCGAAAGAUAUCGUACGAAAGUAACACGAAAGUGGGAAAUCGAAAGAUUUCAGACGAAAGUCAGAAGUCGAAAGACUUCAGACGAAAGUCAUACGAAAGUAAGACAUCGAAAGAUGUCUGACGAAAGUCUGAUAUCGAAAGAUAUCUUCUGAAAAGGUGACGAAAGUCAGAUAUCGAAAGAUAUCACGCGGU'
p153
aF1.0
aa(lp154
S'[RNA] Repetitious Sequences 8/10'
p155
aS'AGUAAAAAACCAAAAAAGGAAAAAAGCAAAAAAGCAAAAAAGCAAAAAUGGAAAAAACCUAAAAAGCAAAAAGGCAAAAA'
p156
aF1.0
aa(lp157
S'Documenting repetitious behavior'
p158
aS'AAAAAAAGCAAAAAAAAAGCGAAAAAAAGGCAAAAAAAAAUGAAAAAAAAAGCAAAAAAAAAACAAAAAAAAACCAAAAAAAAAGCAAAAAAAAAACAAAAAAAAAGGAAAAAAAAUGCAAAAAAAAAGCAAAAAAAAAGCAAAAAAAAUGCAAAAAAAAAGCAAAAAAAAAGCAAAAAAAAAUCAAAAAAAAAGCAAAAAAAAAACAAAAAAAAAGGAAAAAAAAAUCAAAAAAAAAGUAAAAAAAAGCCUAAAAAAAAUCAAAAAAAAAGAAAAAAAAAACCUAAAAAAAAGCAAAAAAAAAGUAAAAAAAAAACAAAAAAAAAGGAAAAAAAAAGGAAAAAAAAAGCAAAAAAAAACCAAAAAAAAAUAAAAAAAAAAGCAAAAAAAAAGUAAAAAA'
p159
aF0.955
aa(lp160
S'7 multiloop'
p161
aS'UCAGCGGAGAAAGUUAUUGUAACUAAUGUUGCGAGGUAAAGACUGGUAGCCUAAUGGCAGAUUAGGAAACUAGGUAUACUAAUGUAUAGCGG'
p162
aF0.9565217391304348
aa(lp163
S'Kyurem 7'
p164
aS'AAAAUGAAGGUGCAUUAAUAUGUUAAAAAAAACCUAUGAAAAAUAUGGCAGUGAUAAAAUUAAAGGUGUUUGGCGAUGUUCAUAAAAAAAAAAAAAAAAAAA'
p165
aF0.9411764705882353
aa(lp166
S'JF1'
p167
aS'UAUAUCUGUAUGCAUAGAAGAUAUAAAAGAUAUCAAGAUACAAAGAUACAAGAUAUCACUAUAUAAUUAUACGAAAGUAUAAUUAUAUAGAACACGAAAGUGACAUAUAUACGAAAGUAUAUAUGAACAUACGAAAGUAUGAGAUAUCAGUAUCAGUAUCAGAUAUCAAAGAUAUGUCAAAAAGACAAUAUCAAGAUAUAUAGAGAUAUAGAUAUAUCGAAAGAUAUAUCUAUAUCAUCUAUAUAUCAAAGAUACAAAAAGGUAUCCUGUAUAUUCGAAAGAAUAUACAGAAGCAUGAAAACAUGAAAUAUCAACUAUGAGAUCAGACAGACGAAAGUCGUCGAUCAGAUAUAUAGAAAACUAUACUAUCAAUACAAGACUAUAAAA'
p168
aF1.0
aa(lp169
S'multilooping fun'
p170
aS'AGAGGAGAUUAAAGGGAAAGCACGACGCAAAAGGCU'
p171
aF0.8611111111111112
aa(lp172
S'Multiloop...'
p173
aS'ACACAGAUCAGACGAAAGUCAGACGAAAGUCAGACGAAAGUCAGACGAAAGUCGGACGAAAGUCAGACGAAAGUCAGAUCAGAUACGAAAAAGUAUCGACGAAAGUCGUGU'
p174
aF1.0
aa(lp175
S'hard Y'
p176
aS'AAAAAGGUUGGAUCGUGCGUAAAGACGCAUGAAUUAAGAUAUAGAAAAGUCUAUAUUUUGACCAAAAA'
p177
aF0.9705882352941176
aa(lp178
S'Mat - Elements & Sections'
p179
aS'AAAAAGAUCAGUACGAGAUCGUAGAGCCGCAGAUCUGCAGUCGAAAGACGGCCGAUCGACGUACGAAAAGCAUCGCUUUAGGAUCAAAAAAAAAAAAAAAAAAAA'
p180
aF0.9619047619047619
aa(lp181
S'Chicken feet'
p182
aS'AAAAAUGAGCGUGUAUUAAGCAAAGUUAACCCAACCAGAAGUAAGACGGCGAAGCAACCCGUAAAAA'
p183
aF0.8805970149253731
aa(lp184
S'Bug 18'
p185
aS'AAUACAACGGUCAAAAAACAAUUAAACGAGAUAUCAGGAAUCAAAGGAAAAUA'
p186
aF0.9245283018867925
aa(lp187
S'Fractal star x5'
p188
aS'AAAAACAUAUAUGAAGAUCGAAAGAUCAACAUCGAAAGAUGAACAUCGAAAGAUGAACAUCGAAAGAUGAACAUAUAUGAAAAACAUAUAUGAAGAUCGAAAGAUCAACAUCGAAAGAUGAACAUCGAAAGAUGAACAUCGAAAGAUGAACAUAUAUGAAAAACAUAUAUGAAGAUCGAAAGAUCAACAUCGAAAGAUGAACAUCGAAAGAUGAACAUCGAAAGAUGAACAUAUAUGAAAAACAUAUAUGAAGAUCGAAAGAUCAACAUCGAAAGAUGAACAUCGAAAGAUGAACAUCGAAAGAUGAACAUAUAUGAAAAACAUAUAUGAAGAUCGAAAGAUCAACAUCGAAAGAUGAACAUCGAAAGAUGAACAUCGAAAGAUGAACAUAUAUGAAAAA'
p189
aF1.0
aa(lp190
S'Crop circle 2'
p191
aS'CAGAACUGAAACAUAAAACGAAAAAAAAAGCGAAAAAAAAAAAAAAAAAAAAAAAAAAAAAGCAAAAAAAAAAAAAAACGAAAAAAAAUGGAAAAAAAAGGAAAUGAAAA'
p192
aF0.9454545454545454
aa(lp193
S'Branching Loop'
p194
aS'GGAUGUUAAAAAAUGGUUCAAAGGGACACCAUCAAAAAAA'
p195
aF0.95
aa(lp196
S'Bug 38'
p197
aS'AGGAGGGCCGAGCGCAAAGGGCAGGAACCGAAACCG'
p198
aF1.0
aa(lp199
S'Simple Single Bond'
p200
aS'AAAAAAGGAAAAAAAUGAGUAAAAAGCUUUAAAAAAAACAAAAAAAAAAAAAAAAAAAAAA'
p201
aF1.0
aa(lp202
S'Taraxacum officinale'
p203
aS'CAGCGAAAGUCUGACCUCGAAAGAAGGAGGUCGAAAGAACCGCCUCGAAAGAAGGACAUCGAAAGCAUGACAACGAAAGAUUGAGGUAUAUAGACGAUAUAUGGUCAAAGACCAAUAUAUCAGAUACAAGAUAUAUGGAAAGAUAUACAAAGUAUAUCAUCUAUAUAUCGAUCAGAUAUCAAGGAUAUCGAUCGUAUCAAAGUCUAUAUAUCUGAGCGAAAGACUCUGAACGAAAGAUUCACGUCGAAAGAACGAUACCGAAAGUGUAACAGCGAAAGAUUG'
p204
aF1.0
aa(lp205
S'Headless Bug on Windshield'
p206
aS'GUCAUGAAAAAGAUGCAAAGCAGAAAAAAAAAAAAAAAAAAAAAAAAAAAGUCAGCUAAGUGAUCAAAUGAUAAGACAAGAUAAUCAAAAAAUCAUAAUUGUAAAAAGGGUUUAAAAAACUUAGAAGUAAAAAAAGGCAAGCAAGGCAAGUAGGCAAAAAAAAAAAAAAAGACAAACAAGUCAAGCGGUCAAACAAUUCG'
p207
aF0.94
aa(lp208
S'Pokeball'
p209
aS'AAUGCUAGGGAAAAGCGGGAAAUUCAAUCAGGCUUGGAAGAAAUGGGGGAAACAUUAGAUCACCGGCAGGGAGAGGUCGGCUCCUAGCUAAAAAAGGUGCUGCAAAAGCGGCCGAAACGAGCAGGGAAGAAAGAGAGCAGGGGAACAAGCAAUCGUCACCAAGCAGUUAGGAGCGUAGUGCAAA'
p210
aF0.9891304347826086
aa(lp211
S'Variation of a crop circle'
p212
aS'AAAUCGUAAUGAUAAAGCUAAACAAUAUGUCCAAAGGUAAUUAACUGCAAAAAUCGAAAAAAGCUAAAAAAAUCGUAAAAAAAAAAAA'
p213
aF0.9545454545454546
aa(lp214
S'Loop next to a Multiloop'
p215
aS'AUGAUAUGUCAAAAAAAGCGUUUUCGAAAGAGAGCAGAUUUCUGAAAGGAGAUCUCGAAAAAAGACAUAUCUA'
p216
aF0.9726027397260274
aa(lp217
S'Snowflake 4'
p218
aS'GAUCAAGGAAUCUUUGCCGAAAGGUUUAUAAACUACGAAAAGACACUUCCAUGCAACAAGAACAUUGAAAAUGGAAUGUUAAAGACGUAGUGGGAUACGUGAAAAUGGGUGGUACUAUGUGCAACAUCAAAGAUGCACCUCGGAAAGAGUAUCAUGCUAGCACAAGCGUUGACCUUCAAAGAGGAAGAUCAAGGAACGUCGAUUUAAUCGCUAGCUAGAAACCAGAAAUGCAGAGGCGCUAAGUAUAACAUCGAAGAUGGUCUAACAAAGGGGUUUCGAGUUCUGCGAAAGCCAGAGGUUUAAAGAGCAACCUGGAACAGGUUCAACCGAAAGGAUGGCGGAUAGGUUGAAAGGCAGAGUGUCAAAGACC'
p219
aF0.8243243243243243
aa(lp220
S'Mat - Cuboid'
p221
aS'GGAGCAAAAGGAAGAAAAAGGAAACAAAAGAAGGUACCAAAAGCAACGAAGCAAAAGAAGGAAGGAAGCAAAACUAAGGAAAGAAGCAAAAGGAAAGUAGCAGGCAAGCAAAAGCAAAUGAUAGUCUAAGGAAAAGAAACCAGGGAAGCAAGCAACCAAAAGCAAAGAAUCAAGGAACAGAGUAAAAUGAAACAAGUAAGCAAACGAUCGAAAAAGGAAGUAAGCAAACAAGCUAUAGCACUCAAGCAAGAAAUCAAGCGCAAGCAAGCAAGCAAGCAAUUCUAAACAAUCAAGCAAGAGCAAGCAAGCAUGCAAGCGAAACGAAGCGAACGAAAGCAACCAAGGCAACCAAGCGCAUACAACGUAACCGCUAGCGCAAG'
p222
aF0.8342105263157895
aa(lp223
S'Misfolded Aptamer 6'
p224
aS'AAAAAAGCAAAAAAAGAUCAAGAAAGGAUAAAAAAAAAUCAAAGCGAAAAGAUCGAAAAAAUGCGAAAAAAAAAA'
p225
aF1.0
aa(lp226
S'Snowflake 3'
p227
aS'AACCCGAAAGGAGGCACCGAAAGGUAAGAUCUUAUCAAGAUGAAAGUCCAAUGCGAAAGUCAUAAAAUGUUAAAAAUUGUGCACGAAAGUGAAGAUUAGAUUAAGACGAAAGUCCACGGCGAAAGCCGGAAAGAGGCGAAAGCACUGCAGGAAACUGAAGAUCAUAUCAAGAAGAAAUUCCAGUGUAAAGGCAACAAAGUUGCGAAAGCUUUGCACGAAAGUGAAGAUCAGAUGGAGACGAAAGUCCACAGCGAAAUCCACAAAGUGGUGAAAGCAGUGCUCAAAGGAGAAUAUCAGAUCAACACGAAAGUGACCGGCGAAAGCCUAAAAGGAGCGAAAGCACUACACGAAAGUGAAGAUUUGAUCAAGACUAAUGUCGCCAGCGAAAGCGUU'
p228
aF0.8753180661577609
aa(lp229
S'Hard Y and a bit more'
p230
aS'AAAAGGAUACGCGUAGUCGAAAGAUUAAGCCAUGCACGGUGAUCGAAAGAUCUAAAUGCAAAAAAGAGUUAAACGGCAGCGUAUCAAAAAAAAAAAAAAAAAAAAA'
p231
aF0.9716981132075472
aa(lp232
S'Mat - Lot 2-2 B'
p233
aS'GAACGGGAGAUGCGGAAAAAGCAACGCCGAAAGGAAAACCAAGCUCAAGAAAAAUCAAGUUGAACCAAGCAAGCUCAAGAAAAAGCAACGUAAAGCAUAAAGGAAAUUGCAGUAAAAACAAAGCUCGAGGAUAAGUAGCAAAAGGCACAAGAUAAAGGAAAACUAACUUGGAAAUAAAAAGGAAGGGCAAUAAAAAUCAAGCACAAGUAAGUACGUGAGAGCAAAAUGAAGAACAAGAUAAAAAGAAAUCGCAAGUAAACACGUAACCGAUCGGAAGGAACAAG'
p234
aF0.8204225352112676
aa(lp235
S'Shapes and Energy'
p236
aS'AAAAAAGGUACAGAUCCAAAAGUAGAAUAACUAAAGGUAUUAAAUGGACAAUCAAAAAUGAGCGAAAGUUCUGAUGUGGCAAAAAAAAAAAAAAAAAAAAA'
p237
aF0.9801980198019802
aa(lp238
S"Spiral of 5's"
p239
aS'CAAAAGAUACAAAGAUACAAAGAUACAAAAGAUACAAAGAUACGAAGAUACAACAUACAAAAGAUACAAAGAUACAAAGAUACAAGAUACAAAGAUACAAAGAUACAAGAUACAAAGAUACAAGAUACAAGACACAAGAUACAGGAUACGGAGACAGAUAUGGGGCAAAAAGCCCCGGGGGGUAUCGAAAAGUUUCAAAAAGUAUCAAAAAGUAUCAAAAAGUGUCGAAAAGUAUCGAAAAGUAUCAAAAAGUAUCAAAAAGUAUCAAAAAGUAUCAAAAGGUAUCGAAAAGUAUCAAAAAGUAUCAAAAAGUAUCAAAAAGUAUGAAAAAGUAUCAAAAAGUAUCAAAAAGUAUCAAAAAGUAUCAAAAAGUAUCAAAAAGUAUCAAAAAGAAAAA'
p240
aF0.9949622166246851
aa(lp241
S'Campfire'
p242
aS'AAAAGGUCAAGCUAUAAGAUGAAGAUCAAAAGGAUCGUUGUCAAGUACAAAUCAUCCUUGUUACGAGCAGAUGCGAAAGCAAUCCCCCGAGGCUGGAGGAGUGAAAACGACCGGGGCGACAAAGAUACUAUCCAGACCCUCGACAAACAUAGCCAAAGGCACAUAGACCGAAAGGUCAUGGUCCAUGUGUCUAUGACAACAAUGAACGGAAC'
p243
aF0.9339622641509434
aa(lp244
S'Anemone'
p245
aS'AAAUAUACCAAAGGGUAUGGAUCCGAAAGGAUUGGUUGCUAAUGCAACCGACCUGAAAAGGUCCAUGUCUAAUGAUAUGCAGAAGAAAUUCUGGAGGCUAAUGCUUCGGCAUCGAAAGAUGCCUUAUACGAAAGUGUGGAAAUCGAAAGAUUUCGAUCGGAAACGAUCCUUAUUAAAGAAUAAGCUUGUGAAAGCAAGGAUAUCGAAAGAUAUC'
p246
aF1.0
aa(lp247
S'Fractal 3'
p248
aS'AAAAAGAUCAGGCAACGAAAGUGUGAAAACAGCCAGACAGCGAAAGCGCGAAAGCAGUCAGACAGCGAAAGCGCGAAAGCAGUCAGACAGCGAAAGUGCGAAAGCAGUCGGAUCAAAAA'
p249
aF1.0
aa(lp250
S'Kyurem 5'
p251
aS'AAAAUUAAUUAGGGCAAAGGCCUUCAAAAUACUGACCAAAGAUGACAAGUUGGUCUCUUAAAAUGGUAGACGUACCUACAAUUAUAAAAAAAAAAAAAAAAAAA'
p252
aF0.9230769230769231
aa(lp253
S'Snowflake Necklace ( or v2.0 )'
p254
aS'GUAUAUAUAUAUAGCAGAGAUAGAAAAAAUCGGCAAAAAGCAGCAAAAAGCAGCAAAAAGCGGCAAAAAGCAGUCUCGGGCAAAAAGUCGGACCCGGCAAAAAGAAGCAAAAAGCAAUAAAAAGCAGCAAAAAGCAGCAAAAAGCAGAACAAGUCAAAAAGACAGAUAUAUAAAAAACCAGCAAAAAGCAGGAAAAACCAUCAAAAAGGUGCUAAAUCCUAUAUCAGAUAAAAAAUCGGAGAAUCCGAAAAGGACCAAAAAGGGGCAAAAAGCACUAAAAAACAGGAAAAAUCGUAUUCUUACAAAAGGAGUCAUUUAAGAAAAAGUAUUAAAAAAGAGUAAAAAACGGAAAAAAUCAACAAAAAAUGAAAUGAGCUAUAUAUAUAUAU'
p255
aF0.8740359897172236
aa(lp256
S'Methaqualone C16H14N2O Structural Representation'
p257
aS'AAAAAAAGAUAAGACCAGAGAGACGAAAGUCAGCCACACGAAAGUGAAACAUACGAAAGUAAGACUCACGAAAGUGACGCGAAAAAAGUGUGCCGGUUAGCCGCUCGCGAAGAGGUCAUAACAAAGCGUACAAAGUAUAACAAAAAAAUCUAAUAUAUACGAAAGUUCACGAAAGUGACCGAAAGUUGUAAGCAAAGGUCGGGAACACACAGACACUCAUAGAGACAAAAGACGAAAGUCGGUCAUACGAAAGUGACUAAGACGAAAGUCGGGGAAAGGAAACUUAGGCAAACGACGAAAGUCGGCGAAAGCUACACGAAAGUGGCUGGAUGGAUUAAAGUUAAUAUCAAAAAAA'
p258
aF0.9380281690140845
aa(lp259
S"Cat's Toy 2"
p260
aS'AAAAGAGGUACCGAAAUCAAUAAAACAAAAAAAAAAAAAACAAGCAAGGAGAAAUCAAAGUCAAUACAAAAAAAAGUAAAAAGAGGGUAUUUCGAAA'
p261
aF0.979381443298969
aa(lp262
S'Zigzag Semicircle'
p263
aS'AAAUUAUAACAAAGAAAAGACCAGAUUAUGCAAA'
p264
aF0.9411764705882353
aa(lp265
S'Short String 4'
p266
aS'AAAAACACAUGAAUAAACAAAUACGAUCGAAAGACGAAAGAUGAGCUAGCUAAUGCAUGCAAUUAAGACAAACCACAAAAAAAAAAAAAAAAAAAAA'
p267
aF0.9381443298969072
aa(lp268
S'Gladius'
p269
aS'GGAAACAUCUAAAUUAAGAAAAUAAUAAAGACAGACAAAGCUUAAAGGAGCGGAGUUUAUGGACAAGAGUUCAGGGGAUCAAGAUCUAGAUGAUAUAUGCGAGAGAGAUGACUGCAUGAUCAAAGAUCUGCAAGCAUCCAUCUCCAAUAUACGAUUUAGAAACGGAUCAACAGAACGACGGUCAAAUGACUCAGUCAAAGACAGAUACUGAACGGGGAAGCUCAGAAGAUCAGAAGAUAAACAGAAUACUAUGACUGUGGUGAGAGAGGUAUCGAAAGAUAUCAACUCCAACCGAUGUCAACGUAUUACGUUUAUCACAGGAUCCCAACAACACAACUGACAUGUACUGAAUCAAAAGAUCAAAGUCAGUCAAAGAAUGUAAUAAUGAAAUUAAUGAAAG'
p270
aF0.9
aa(lp271
S'Thunderbolt'
p272
aS'GAAAGAUACAAAAAAAAGACUAAGGCGAAAUAGAAAUCAGUAAUACCAAAAAAAAGGAAAAAAAGAUCAAAAAGAUCAAAAAAGUAAAGCAAGCAAAAAAAGAAGAAAAAACAUCAAGCAAGCAAAAAUAAAAGGGAUAAAAAAGUCAAAAAGAAGCAGAAACAGCAACAAAAAGACAGAUCAAGGAGAAAAGGGAGAGCGAAGCACAACAAAAAAAUAGAGAUCAAAAAAAAUAUCAAAAUGAUAUCAAAGAUAUUGGCAAGCAGAAAAAAAAAGCAAGCAAAAAAAAAUAAUAGAAAGCAUAACGAAAAGGAAAAAAACAAAAAGUUAUGAAAAAGAAAGGUAUUACAAAAAAAACGCUAAAGAUAAAAAGAAAAAACCAGUAUUAAUCA'
p273
aF0.9540816326530612
aa(lp274
S'Mutated chicken feet'
p275
aS'AAAAAAAUCACCAGCAAAGUGGUGAAUCAAAGCGGAUCAAGUGAGAAUUAGCAAAGAAAUCUGAAGCAGUAGCAAAUCUGCUAUGCUAAGCGCAAAAAAA'
p276
aF0.84
aa(lp277
S'Chicken Tracks'
p278
aS'AAAAAAAACAUGGACCCUCGAAAGGGGAAGAAAGAAAUUUCAAGUUCUAAUGAACGUCCAUGGUGUUAAGAGAACCCUAGGUGUAAGGCACAAGCUAAAGUAACGACGUAAAAAAA'
p279
aF0.9482758620689655
aa(lp280
S'Looking Back Again'
p281
aS'CACGAGACCUACAAAAUAAUUGCAAAGUGAUUUGUAGAAGCCGGCAAGAAAAAUUCGCUAAAUACAAAGAUAGAAAUAUUAAAAGUAUUAAGUCAAAACAAGGUCUACAAAAAGCUACGAAAGUGGCAAAAAAAUGGACACGUUACAAAGUAGCGAUACAAAGUGUCGAUAUCCCGAGAAGAAGUUUAACGAGAUCGAAAGAUCAAGAAUUCCGACAGGGACGAAAGUCAAGAUAUCAAAGUUUCGACCGGCUAGAGGUCAAAAAAUAUGUGUAAAAAAAAGAUCAAAAAGAUCACACAAAACAGGGUCGAUUAAAAAACAGAUAUCAAAGGAUAUUAAGACCCAAGGGACAUACUAUGUAUGAAGUCAGCAAAGAUCAAAGCAAAGUG'
p282
aF0.8920308483290489
aa(lp283
S'Multilooping 6'
p284
aS'AGGUGAGAUAUAUACUAAUGUAUAGCUACGAAAGUACGGAGCUGAGUUCAAAGGGACUCUAUAUAAUUGUGGAGGCUCACAA'
p285
aF0.9024390243902439
aa(lp286
S'Cesspool'
p287
aS'GAAGAAUGAAAGAACACAAAGGGGGCAAAGACAGGAAUAAAAGAAGGAGAAAAUGACAGAAAAAAAUAACAAAAUGAAAACAACAAGAAGAAGAAAGAAAUAAAAGAAGAGUGAGAAACUCAACAACAACUUAAGAAGAAAACAACAGAAGAAAACAAUAAAAUGAAAACAACAACGAGUGAUAAGAAAACAACAGAAGAAUGCCAAAGCCUAUAACAACUGAACAAGAAAGGAAGAUAAUGAAAAAAAAAAAGUGAAAAAAAGAACAAUCAAGAACAAAAGAACGCAAUGGAGACAAGGUCGAUAACAAGUGAAGAAGAAAACAACAUAAGAAAACAACAAAAUGAAAACAACAAGG'
p288
aF0.7988826815642458
aa(lp289
S'Hoglafractal'
p290
aS'AAUAGGAAGAUGCAAAAGGUACUAAAAUGUACCGUAUCGGAGGAAAAUCAAAAGAAUCAGGCCAGAACACGAAAGUGCGGAGAUAAAGACCAAAGAUCGAAAAAGAUCGGUCAAUAAGACUAAAUGUCAUACCACCAAAGACGGCGCUCAAAGGACAAGACAAAAAAGUCGUCCGAUAAAAAAGACGCACGAAAGUGAGAUAAAAAAACCAGCGAAAAAGCGGCAGAAAAACUGAAGAAAUUAGAUAUCAAAAAACGGAAAAAGCUGCCAAAAAGUAACCAUAGACUAUGUCUAUGAAAAAAAGAUAUCAAAAAAUUAUCAAAAGGGGCAAAAAUCAAACCAAGGAAGAGCAGUUCAAAACUAAAGACGCGAAAGCCUCUGCAAAGCAGAGAGAGCGCGC'
p291
aF0.93
aa(lp292
S'Bullseye'
p293
aS'AAGUUUUAGUGAAAAUGAGGUCGGAACGGCAAGGUCAAAGGUCAGGAAAAAAAACACCUUAGAAUAGGAGGUGCAAGGCGCAAGGUCGAAUACCGAGAAAAAAAACCCGUGUAAAAUGCAAGGUCAAACAUCAAGGCUGAAAUCCCGGAAAAAAAAAAUCGGUGAAGCUGAAUAACAAAGUUGGACAUCAAACACGGUUAAA'
p294
aF0.8217821782178217
aa(lp295
S'Shooting Star'
p296
aS'GAUCUGGUGCGAUUAAAUAAGAAAAGAAGUCAGAGAGCGAAAGACUUACGACAGACAAUUAUUUUAAUCAGAUUCAACGGAAGCAGUCAGUUUCAGUCAGUGCAGCGAAAGACGCAACGACGAACAACGACCGACAAAAGAGGGAAACAUAAACGAUCCUCCCAAAAGGAGACAUAUUAUAUGUGGGGGAAACAAAGAUCAGAACAUAUGCAGUGAAGCGUAUACAAAGUAUACGACCUACAAAGUAGAUAUUGACAUACAAGGUAUGUCACACAGGAACUGUGCAUAGUGCAACAAAGCGGAGAAGUAUAGAGAAAGUUUAGGGAAAGACGGGACUUCGCUCAAUCACAAUGCAUACAGAUCA'
p297
aF0.8571428571428571
aa(lp298
S'Teslagon'
p299
aS'AAAAAAUCAAAAAAGGGAGCGAAAAAAAAUCCAAAAAAAAAAAAAAGACUAAAAACCCGCAAAAAAAAAAAAAAAAAUACAAAAAAAACAGCGAAAAAAGAAAAAAAAAAAAAAAGGCGAAAAAAGCAGCGCAAAAAGAACGAAAAAAAAAAAAAAGGCAGAAAAUGGCCAAAAAAAAAAAAAAAGUACUAAAAAAAGCAUCAAAAAAAGUAAAAAAACAAAAAAUACAAAAAAAGAAUCAAAAAAACGGCGAAAAAAAAAAAAAAACCGAAAAAUUAGAAAAAAAAAAAAAAAAGAAGGAAAAAAAGAGACAAAAAAAGAAAAAAAAAAAAUUCAAAAAAAAAAAAAAAGGUAGGAAAAAAAUACCAAAAAAAGGGGAAAA'
p300
aF0.887434554973822
aa.