(lp0
(lp1
S'Simple Hairpin'
p2
aS'GAUAGAAAAAACUAUC'
p3
aF1.0
aa(lp4
S'Arabidopsis Thaliana 6 RNA - Difficulty Level 0'
p5
aS'GAUAUAGAAAAGAGAAAAAAAAAAACUCCAUAUAUCAAGAUAUAUAUAUAUAUAUAGAAAGAUAGAAAAAACUAUCACUAUAUAAUAUAUAUAUAUCAAGAUAUAUGAACUAUAUC'
p6
aF1.0
aa(lp7
S'Prion Pseudoknot - Difficulty Level 0'
p8
aS'GAUAUCAGAUCAAAAGAUCGAUAAUCAAAAAAAAAA'
p9
aF1.0
aa(lp10
S'Human Integrated Adenovirus - Difficulty Level 0'
p11
aS'GGUAUAAUAACAUUAGAUAUCAAAAAAAAAAAGAUUCAUAUAGGAAAAAGGGAUAUCAAAACGUACAUAUACGGAAAAAAAGCCGUAUGUGUAAAAGUGGAUAUAAAACUCAUUAAAAAUAUAAAAGAAAAUUAAAAAUGAUGCCAAACGAAAAAAAAAAAGUUGUCGUAUGAACAUUGUUAAAAUAUCAAA'
p12
aF0.9479166666666666
aa(lp13
S'The Gammaretrovirus Signal - Difficulty Level 0'
p14
aS'AAGAGAAGAUAUCAAAAGAUAUCGACGCAAAAAAGAUCAAGAGAGAUCCAUAGAAAACUAUGAAAAGAUCCUCGAUCAAGAUAUAUCAAAAGAUAUAUCAA'
p15
aF1.0
aa(lp16
S'Saccharomyces Cerevisiae - Difficulty Level 0'
p17
aS'AUCAGAGGCUCAAAAAAAGGAGCGGGGAAAAAAAAAAAAAACCAAAAGAUUGAAAACAACGAUCCUCUGGUAAAAGAGAGACCAUCGCAAAAAAAAGUGAGCGAAAAAAAAAAAAGCGCAAAAGAUAGUAAAAAUUUAUCGUUUCUCAUAAUAGCUGGAACGGAAAAAAAAGUCCGGAGAGUAAAAAAGACUUUCAAAAUGACAUAAAAAUUGUCACCGGCUGAAAAGAUGUACAAGAUCAAAAAAAAGAUCGCUAUUAAAAAAGGAUAGCAAAAGAGUGAAAAAAGCAUUCGUACAUCGAAUGUGUUAGAAGGCGGAAAAAAAUGCCCAUGCGAAAAAAGCGCAUGAAAAGAUGGGAAAAAACUAUCCUAAUACUAAA'
p18
aF1.0
aa(lp19
S'Fractal 2'
p20
aS'AAAAAGAGAUCUCAAAGAUGCUUUGUAAGAACAAAAAAAAAAGUUCAAGAUCAAAAAAAAAGGAUCAUGAGGAAAAAAAAAACCUUUGACAAAGUAUCAAGGAUAAAUAUCAAGAUCAAAAAAAAAAGAUCAUGAGCAAAAAAAAAAGCUCUAGCUCAAAAAAAAAAGAGCAAGAUAUUUAUCAAAAGUUUAUAUUUUGUCCGAAAAAAAAAGGGCUAGACCAAAAAAAAAAGGUCAAGGUCAAAAAAAAAAGAUCAUGGUAUAGACUAAAGAGAUUUCAAAAA'
p21
aF1.0
aa(lp22
S'G-C Placement'
p23
aS'GAUCAAAGAUCA'
p24
aF1.0
aa(lp25
S'The Sun'
p26
aS'GAGAGGUAGUGGAACACUAAACACGCAAAGAGAGCGUUGAGAAGGAGAAGUACUAGAAGGGAGGAAGCGUAUCAUUAAUCCCUCGAGUGGAGAAAUAGGAAGGAUAAAUACCCAAAGAGAGACAACCAUAGGCUAAGUCUUCGAAGUCCGAAAAAGACGCUUUGAUUCGACAAGUAGAGUUAUAGUAACAAUAAAAUCUAAAAAACAGUCAUCGGAAAGAUCAAACAUUAAAGAGAGAAAUCCAAGGGAUAAUCCCUC'
p27
aF0.8178294573643411
aa(lp28
S'Frog Foot'
p29
aS'AAAAAAAAAAGCUGAAAGCAGCGACGAAAGCGUCGGCCAAGGGCC'
p30
aF1.0
aa(lp31
S'InfoRNA test 16'
p32
aS'GAUAUAACGGCUAUCAAAAGAUAGUCCAGAUAUAUC'
p33
aF1.0
aa(lp34
S'Mat - Martian 2'
p35
aS'GACCAAAAGGUCAAAGAUAUAGAAGAUAUAGAAAAAAACUAUAUCCUAUAUCAAAGAUAUAUCAAAAAAGAUAUAGAGAUAUAGAAAAAAACUAUAUCCUAUAUCAAAGAUAGAUAUAUAUCAAAAAAAGAUAUAUAAUCUAUCAAAAAGGAUAUAUCAAAGAUAUAAAUAUAUCAAAAAAAGAUAUAUAAUUAUAUCAAAGAUGAAAACAUC'
p36
aF1.0
aa(lp37
S'square'
p38
aS'GAUAUAGCAUAUCCAUAUAGCAUAUCAAAGAUAUGAAAACUAUAUGAAAAGAUAUGAAAACUAUAUC'
p39
aF1.0
aa(lp40
S'Six legd turtle 2'
p41
aS'AAAAGGAAAAGCAAAAUCAAAGUACAACCAAAGCUAAUGCAAUGUUACUAGUAACCUAAUGUAAAUUAAAAGGAAGGCAAAAAAAAAAAAAAAAAAAA'
p42
aF0.9591836734693877
aa(lp43
S'Small and Easy 6'
p44
aS'CUGUCAAAAGGGAAGGAAAAAAAAACAUGG'
p45
aF0.8666666666666667
aa(lp46
S'Fractile'
p47
aS'AAAAAAAAAAAAGGAAAACCAAAGCAAAGCGAAAGCAAGGAAAGCAAAAGCAAACCGAGCAAAAGCAAAGCAAGCAAAAGCGAAAAAAAAAAAAAAAAAAAAAAA'
p48
aF1.0
aa(lp49
S'Six legd Turtle'
p50
aS'AAAAGGAAAAGUGAAAAGCAAAAACGAAAUCAAAAGCAAAAGUGAAAACCAAACUAAACUGAAAAAAUAAAGGAAAAUUGAAACUAAAAAAAAAAAAAAAAAAAA'
p51
aF0.9428571428571428
aa(lp52
S'snoRNA SNORD64'
p53
aS'GAUAUCAAAAAGAGAAAAGAGAAAGAUAGAAAAAAAAAAAAACUAUCAAAACUCAACUCAAGAUAUC'
p54
aF1.0
aa(lp55
S'Chalk Outline'
p56
aS'AAAAAGAUCAGCUCGAAAACGAAGCGGAGAGAGAAAACUCCUCAGAUAUCUAAUGACUAUCAGGGCGAAAACGUACCGAUCGAAAAAAAAAAAAAAAAAAAAAA'
p57
aF1.0
aa(lp58
S'InfoRNA bulge test 9'
p59
aS'GAUAUAGAGAGAGAGAUAUAGAAAACUAUAUCCCCCUAUAUC'
p60
aF1.0
aa(lp61
S'Tilted Russian Cross'
p62
aS'AAAAAUGGCCAUCUAAUGUUGUUCCAGAUCAAAGGGUCCAGACUAAUGUUUCAUUUUAAAGAAGAGAAAGACCAAAGGAUGGUUAAAAAAAAAAAAAAAAAAAAA'
p63
aF0.9238095238095239
aa(lp64
S'This is ACTUALLY Small And Easy 6'
p65
aS'AAAAAAAAAAAAAAAAAAAAAAAAAAAAAAAAAAAAAAAAAAAAAAAAAAAAAAAAAAAAAAAAAAAAAAAAAAAAAAAAAAAAAAAAAAAAAAAAAAAAAAAAAAAAAAAAAAAAAAAAAAAAAAAAAAAAAAAAAAAAAAAAAAAAAAAAAAAAAAAAAAAAAAAAAAAAAAAAAAAAAAAAAAAAAAAAAAAAAAAAAAAAAAAAAAAAAAAAAAAAAAAAAAAAAAAAAAAAAAAAAAAAAAAAAAAAAAAAAAAAAAAAAAAAAAAAAAAAAAAAAAAAAAAAAAAAAAAAAAAAAAAAAAAAAAAAAAAAAAAAAAAAAAAAAAAAAAAAAAAAAAAAAAAAAAAAAAAAAAAAAAAAAAAAAAAAAAAAAAAAAAAAAAAAAAAAAAAAAAAA'
p66
aF1.0
aa(lp67
S'Shortie 4'
p68
aS'GCAAAAGCAGCGAAAGC'
p69
aF1.0
aa(lp70
S'Shape Test'
p71
aS'AAAAACUGAUCAAAAUAGAAAAAAAACUAUUAAGAGAGAAAGAGAGAAAAACUUUCAGAUAAAAAUAUCAUUCCUCAAGAUCUGGAAAAAAAAAAAAAAAAAAA'
p72
aF1.0
aa(lp73
S'The Minitsry'
p74
aS'GUGAAAAAGGGAAAAAGAUAAAAAGAGAAAAAGUGAAAAAAACCAUGCUCAGUCGCCUGCAC'
p75
aF1.0
aa(lp76
S'stickshift'
p77
aS'AAGAUAUCCCAAAAAGGAGAUAUCAA'
p78
aF1.0
aa(lp79
S'U'
p80
aS'AAAAAGAUAGAGAGAGCAGAGAUAUAUAGAAAACUAUAUAUCCGCCCCUAUCAAAAA'
p81
aF1.0
aa(lp82
S'Still Life (Sunflower In A Vase)'
p83
aS'AAAGAUCAAGCUAUGAAAAAUAGCAGGGGUGAAGCGCCUAAGAAAGAAAAACUUUCAGCAGCGAAGCGCUGAAGACGGAAAAACUGUCAAGCUAGAAAAACUAGCGGAGAUUUUUGUAUAUAGAUUUAGCGGAGAAAAAACUUCGAGACAGAAAAAAAAAAAAUGAUGUAAAAAAAAAAAAAAAAAAAAAAAAAAAAAAAAAAAAAAAUUAUCUAAAAAAAAAAAACUGUCCUGAGAAAACUCAGACUAGAUCUAUAUGUAGAGAUUUCAGGAUUGAAAAACAAUCAAGAGGGUAAAUCCCUCAGGAUAUAAAAAAUAUCAUUUGCAAAAAAUGCAAUAGGUAUAAAAAUACCAAGAUGGGAAAACCAUCGGAUCAAA'
p84
aF1.0
aa(lp85
S'Quasispecies 2-2 Loop Challenge'
p86
aS'AAAAACCUCCAUGAAAAUCAAAAGAUUAACAUGACCAUGACAAGGGAGUGGGGGUCAACAACAGAAAAGCUGAAGAAGACCGAGGAAAAAAAAAAAAAAAAAAAA'
p87
aF1.0
aa(lp88
S'Corner bulge training'
p89
aS'AGAUAUCCAUAGAAACUAUGAAAAGAUAUCA'
p90
aF1.0
aa(lp91
S'Spiral'
p92
aS'AAAAAGAUCAGAUAUCAGAGAGAUAGAGAUCAGAUCAGCAGCAGCAGCAGCAGCAAAAAGCGCGCGCGCGCGAUCGAUCCUAUCCUCGAUAUCGAUCAAAAA'
p93
aF1.0
aa(lp94
S'InfoRNA bulge test'
p95
aS'AAAAAAAAAAAAAAAAAAAAAAAAAAAAAGAACAAAAAGGAGUGAAAGAACGAACUGCAAGAGGACUCAUAAAUUGAAGACCAUCGGGCUGGGAAGUAUCAAAAAACAUCAAAAAAGUAUCA'
p96
aF1.0
aa(lp97
S'Worm 1'
p98
aS'AAAAAAAGAUGGAGUAAUAAUGACAAAAGAUGGUAAUUUGCAAAU'
p99
aF0.8222222222222222
aa(lp100
S'just down to 1 bulge'
p101
aS'AAAAAUGACAGAUAGAAAACUAUCACUGAAAACAGGGUACAAAAAGAUGGGCGAAAACGCAGAAAAAAUUCACAUUAAAAAAAAAAAAAAAAAAAA'
p102
aF1.0
aa(lp103
S'Iron Cross'
p104
aS'AGACAGUUAAAGACGGCGAAACGUAGGGAAAACUUACUGAAGGGGUGAGGAAACGGUGAGGAAGUCAUAACAGCUAGUAGAAAACUGAGAAAAACACAUGCGAACGCAUAGGAAUUGAGUCAA'
p105
aF0.9349593495934959
aa(lp106
S'loops and stems'
p107
aS'AAAAAGAUAUAGAAAGAUCAAAGAUCAAAGAUCAAAAAAAAAGAUAGAAAAAAAAAAAACUAUCAAAGAUCAAAAGAUGAAAAAAAAAACAUCAAAGAUCAAAGAGAAAAAAAACUCAAAGAUCAAGCAAAAAAGCAAACUAUAUCAAAAA'
p108
aF1.0
aa(lp109
S'Water Strider'
p110
aS'AAAAAGCGGCGCCUAGUAUAUGAAAAUGGGUAAAAGCCCCUAAAAACAACCGUAAUCUGUAUUAAUAUGAUUGGAAAGGAGUGAAAAAAAAAAAAAAAAAAAA'
p111
aF0.883495145631068
aa(lp112
S'The Turtle(s) Move(s)'
p113
aS'AAGGCGAAAGCAAAAGCUAUAUAGAAAAAAAAGCUAUGUAGCAAAAGAUCGAAAAGAUCAAAAAGGGAAAACCCAAGGACAGAAAAAAACUGUCAAAAACGAAACGAAAACCAAAAAGAGAAAACUCAAAAGAGACCAAAAAAGGGUCUCAAAAUAAAAAAUUAUAAAGGAUAGCAAAAGAGAAAAAAACUCGAGUGAAAAAAAACACAAUGAGACAAAAAAGUUUCUAAGAUCAAAAAGAUCGAGCUAUCAAAAAAAAAGCAAAAGCAAAAAGCAAAAGCAAAAAAGAUGGAAAAAAAAAACCAUCAAAAAACGC'
p114
aF0.9873417721518988
aa(lp115
S'Adenine'
p116
aS'UAUAAGGGAUGAGGAUAUCACACAUCAGAGCUCUGAUAUCAAAGGAUUUCGAAAAAGAGAUCAGAUAUUUGAGCGAAAGAUAUAUUAUGUAUAUCCGCUCAGAGCUCAACUUCAUAGAACGAAGUUCUAUAAAGAAGUGGAUGUGGAAAGAUGUCAAAUUCGUUCAAAAUUAUG'
p117
aF1.0
aa(lp118
S'Tripod5'
p119
aS'AAGGGCCGUCGAAAAGAUGGAUGUAAAUCAUCGCUCGA'
p120
aF1.0
aa(lp121
S'Shortie 6'
p122
aS'GUGAAAACAGAGAAAUCAGAGAAAUCAGCGAAAGC'
p123
aF1.0
aa(lp124
S'Runner'
p125
aS'AAAAAGCUCAGCUCUAAAACAUCGAAGAUGUGAGUGAAGUGAAGACGCGAAACGCCAAGUCCACCCCGAAUCGCCAGUGGCACAAAGUUUAAAAUUAAUCUCUGGCAGAGCGAAAA'
p126
aF0.9482758620689655
aa(lp127
S'Recoil'
p128
aS'AAAAAGAUAGAAGCAAGCAAGAGAAGAGAAGCAAGCAAAGCAGCACUCACUCAGCAGCACUAUCAAAAAAAAAAAAAAAAAAAAA'
p129
aF1.0
aa(lp130
S'[CloudBeta] An Arm and a Leg 1.0'
p131
aS'AAAAAGAGAGGUAGGAAACUAACCCAGAGUAAAAGCCUGACUCAAAAAAAAAAAAAAAAAAAA'
p132
aF1.0
aa(lp133
S'[CloudBeta] 5 Adjacent Stack Multi-Branch Loop'
p134
aS'GGGAGGGUAUAAUUGCCCCUAGGAAACUGGGCAGUGGAAACGCUGUAUCGAAAGAUACUCCUA'
p135
aF1.0
aa(lp136
S'Triple Y'
p137
aS'AAAAUUAUAGACUAGUUUAGAGACUUACUGAAAGGUAAGUGCCACUAUCGAAAGGUAGGGGUAAUGCCCGUAUAAUAUAAAAAAAAAAAAAAAAAAA'
p138
aF0.979381443298969
aa(lp139
S'Misfolded Aptamer'
p140
aS'GAGAUCAAAAGGCGCGAAGCGACAGAAAUGAAAAAAAAACCGAAAUUUUC'
p141
aF1.0
aa(lp142
S'Flower power'
p143
aS'AAAAUUAUGACCGGAACCAUGGGACGUAUAAGGAACAAGCGGAAGCCGCGAGCGGUCUUCGCCGGUAUCGAAAGAUCAGACAUAGAAAAAAAAAAAAAAAAA'
p144
aF0.9411764705882353
aa(lp145
S'Kudzu'
p146
aS'AAAAUGUGGCGUCAUGAUGAGUAUAACAAGGUAUAGUCGAUCAGCAAAGCAGAAUAAGAUAAUGUCAAAUCAGCUAGACACUAAAAAAAAAAAAAAAAAAA'
p147
aF0.9405940594059405
aa(lp148
S'"1,2,3and4bulges"'
p149
aS'AAAAGGACCGGAGGCUAAUGGAAAACUUGGUUAAAAGGCAGGAUCAAAUGUCCACAGUACUCAAAUGGUUUGAAAGGAAGAACGCUAAAAAAAAAAAAAAAAAAA'
p150
aF0.9619047619047619
aa(lp151
S'medallion'
p152
aS'CAGAGCAGCUAUUGAAAAAUAACGGAGAAAACACAGGUAAAAAUCAGAUAUCAAAGGAUAUCGCACAAAACUGUGUCCUUUAAUAAGGGUUGAGGAAACUCUGUUUAAUACCGGAUAGGAAAGUCUAUCAGCAAAAAUGUGGACAUCAAAAGAUGUCGCCGAAAACUCAGAGAAAAUUAGGACAUCAAAAGAUGUCAGUGAAAACACAGAUCGCAAAAGCGAUCGACGAAAACUUGGAGAAAACCCAGCUUUCAAAAGAGAUCGUUGAAAAUGAAUGUAUGAAAACAUGUAAGGGAAAAUCCACUGAAAACGUGGAUACUUAAUAGUAUCGGCUUUC'
p153
aF0.913946587537092
aa(lp154
S'[RNA] Repetitious Sequences 8/10'
p155
aS'AGCAAAAAAGCAAAAAAGCAAAAAAGCAAAAAAGCAAAAAAGCAAAAAAGCAAAAAAGCAAAAAAGCAAAAAAGCAAAAA'
p156
aF1.0
aa(lp157
S'Documenting repetitious behavior'
p158
aS'AAAAAAAGCAAAAAAAAAGCAAAAAAAAGGAAAAAAAAAACCUAAAAAAAAGCAAAAAAAAAUUGAAAAAAAACCUAAAAAAAAGCAAAAAAAAACCAAAAAAAAAUCAAAAAAAAAGCUAAAAAAAAGCAAAAAAAAAGGAAAAAAAAAGCAAAAAAAAAGCAAAAAAAAAGGAAAAAAAAAUCAAAAAAAAACCGAAAAAAAAGGAAAAAAAAAGGGAAAAAAAACCAAAAAAAAAACAAAAAAAAGGGAAAAAAAAACCAAAAAAAAAGCAAAAAAAAUGCAAAAAAAAAGGAAAAAAAAAGGAAAAAAAAAGCAAAAAAAAUGCGAAAAAAAAGGAAAAAAAAACCAAAAAAAAUGUAAAAAAAAAUCAAAAAAAAAGUAAAAAAAAAGCAAAAAA'
p159
aF0.96
aa(lp160
S'7 multiloop'
p161
aS'CUAUGAGUUGAAAAGCGUCAAUUUUAUGAGUGUACCGAAAAAGUGACUGUCGUAAAACACCGUUCUAAUGGACGAGAAUAAAUAUAGUAUCG'
p162
aF0.9130434782608695
aa(lp163
S'Kyurem 7'
p164
aS'AAAAGUGGUGAUGAGGAAACUCGAGAAAACGUCAGUGGAAAACACGCAGGUGGAAAAACGCAAACAAGAUGCCUGUCGAUCAAAAAAAAAAAAAAAAAAAAA'
p165
aF0.9411764705882353
aa(lp166
S'JF1'
p167
aS'GAUACAUAUAUAGAUAGAAGAUAUGAAAGAUAUCUCGAUAGAAAGAUAAAAGAUAUCAGAUAUAUAUAUCUCUAAUGAGAUAUAUAUAUCAAGAGAAAACUCAGAUAUAUAGAAAACUAUAUAUCAAGAUAGUAAUCUAUCAGAUAUCAUUAUCGCUAUUCGAUAUCAAAGAUAUAACAAAAAGUUAAUAUCAAGAUAUAUAUAAAUAAAUAUACAUCAAAAGAUGUAUAUUUAUUAUAUAUAUAUCAAAGAUUGAAAAAGCAAUCCAUAUAUAUUAAAAAAUAUAUAUGAAAGAUCAAAGGAUCAAGUAUCAACUAUCAUAUCAGAGAGAGAAAACUCCUCGAUAAGAGAAAUAGAAAACUAUUAUUUCAAUAUAAUGCUAUCAAA'
p168
aF1.0
aa(lp169
S'multilooping fun'
p170
aS'AUGUAUGACAUAGGAGGAAACGCUGAAGAAAACUGU'
p171
aF0.8888888888888888
aa(lp172
S'Multiloop...'
p173
aS'GACCAGGUCGGUGAAAACACGGAGAAAACUCAGGGAAAACUCAGAGGAAACUCGGCGGAAACGCAGUCAAAAGACAGACCAUAUAGAAAAAACUAUACGCAAAAGCGGGUC'
p174
aF1.0
aa(lp175
S'hard Y'
p176
aS'AAAAGCCGUACUCCUAUAUCGAAAGAUAUAGCUUUCGUGUAUAGCUAAUGUUAUAUAUCACGGAAAAA'
p177
aF0.9705882352941176
aa(lp178
S'Mat - Elements & Sections'
p179
aS'AAAAGACUCUCAAAAGCAGCUCUGCUAAGAAGGCCAAGAUGGUAAUCCAGGAAGGUUCACUAGCUAAGGUGCUGACGAGGUGAGUAAAAAAAAAAAAAAAAAAAA'
p180
aF0.9619047619047619
aa(lp181
S'Chicken feet'
p182
aS'AAAAAGAAUCAACGAAAACGAAAUAAAAAAGUAUGCAGCAGAAAUUCUCAAAGUGUAGGGGGUAAAA'
p183
aF0.8208955223880597
aa(lp184
S'Bug 18'
p185
aS'AUCUGUAUUUUAAAGUAAAUUGGAAACCUAGUAGAGCCGUACAGGUAAAUGGG'
p186
aF0.8867924528301887
aa(lp187
S'Fractal star x5'
p188
aS'AAAAAGUCAUAUCAAGACGAAAACGUCAAGUACAAAGGUGCAGUAUCAAAGGAUGAAGACCUAAUGGUCGAGAUAUGGCAAAAGGAUAUCUUAAGAUAAAAGUAUCAAGAUCAAAAGAUCAAGACCGAAAGGUCAAAGUGAAAGCACUAGGAGAUAUCAAAAAGAUAUAGCAGGAUGUAAUCAUCAAAACCAAAAGGUUAAUAUCAAAGGAUAAACAUUAAAAAGUGAGGUUAUAUCGAAAGGAUAUAUCAGGUCCUAAUGGGCAAUAUCAAAAGAUAGAUAUCGAAAGAUGAAAAUCGAAAGAUUACGAUGUAUCAAAAUUAGAGUUGUAGCUCUAAUGAGCAAGGUCGAAAGAUCAAGAGGAAAACCUCAAGGUCAAAAGAUCAUCAAUUCUAUAAAA'
p189
aF1.0
aa(lp190
S'Crop circle 2'
p191
aS'GAUAACCAAAAGCAAAAAGGAAAAAAAAUACGAAAAAAAAAAAAAAAAAAAAAAAAAAAAAGGAAAAAAAAAAAAAAAGUGAAAAAAAGGUAAAAAAACGAAAUUCAAAA'
p192
aF0.9636363636363636
aa(lp193
S'Branching Loop'
p194
aS'AACAGAUAAAAAACAUUUCGAAAAGGAAACUGUGAAAAAA'
p195
aF0.95
aa(lp196
S'Bug 38'
p197
aS'AUCAGCAUUAGUCAAAAAUGGAAAGAGGCAAAGGGG'
p198
aF0.9444444444444444
aa(lp199
S'Simple Single Bond'
p200
aS'AAAAAAGAAAAAAAAGCCCUUAAAUGGGGAAAAAAAAGCAAAAAAAAAAAAAAAAAAAAAA'
p201
aF0.9672131147540983
aa(lp202
S'Taraxacum officinale'
p203
aS'CCUCUAAUGAAAGAUAUCACAGGCGUAAGUACAAAAGAAAUGUAUGAAAACAAUUGUCUAUAAUAAAGCAACUAAAAAAGAGUAUAUCUAUGCUGAAAAUGUACCGUAUCGGUAAUGUUUUAGCCAGAAGAUGUAGAUCGGUAUAUAAAAAUUAUAUAAGAUCUAUAUCCAUCAUAGAUCUAUGAUUUAGAUGCUGGCAAACAGCAUAGAUGACAGCGAAAGACUGGCUUGAAAACGAAGAUGUCAAAAGAACAAGCGCAAAGGUCGCGGAGCAAAAGAAUC'
p204
aF0.875886524822695
aa(lp205
S'Headless Bug on Windshield'
p206
aS'AGAAGUAAAAAGUAGUAAAGCUAAGGAAAAAAAAAAAAAAAAAAAAAAAACUUUGCAAAAUUAGCAAAGCAUCAGAGUAGAAAAGAAAAAAAACCAAAAGCGAAAAAAGCCCCAAAAAUCUCAGAGAUAAAAAAAUAGAAGAAAUAGAAGGAGUGAAAAAAAAAAAAAAACUAGAGCAAUUAAAGCGCUGAAAUAACUUA'
p207
aF0.95
aa(lp208
S'Pokeball'
p209
aS'AAAGAUAUCGAAAAUCAUGCACAGGAAGAAGGGAAGCAAGCGAGCAGAUAAAAGAGCAAGCAGCGCCAAGUACCUGCCUGACGAUAUCAAAAAAAAGGUAUGAAAAAGGAAGCAAGCGGAGGAAACAGGGAAGAGAUCAGGUAAAACAGAAAUCAGCAGUAACCGCGCAGCACCUCGUACCAAA'
p210
aF0.9891304347826086
aa(lp211
S'Variation of a crop circle'
p212
aS'AAAGUUAAAAGUUAAAGGAAAGCCGGAAAUACAAAUCUAUUAAAAGUAAAAAUUUAAAAAAUGUAAAAAAAAAGGAAAAAAAAAAAAA'
p213
aF0.9545454545454546
aa(lp214
S'Loop next to a Multiloop'
p215
aS'AAGGUAUUUCGAAAAAAAAUCUUUGAAAGUAGAGAAUGUAUAUAAAAGUAUAUGGUAAAAAAAGGAAUAUCAA'
p216
aF0.9726027397260274
aa(lp217
S'Snowflake 4'
p218
aS'UUUAGAAUAAACAUAACGGAAAGGUGUAGAGAAAAACCAAAAAGCAUAGCAUGGAAUAUGAAGAUCGAAGGACCUUUGCCUAACGAUUUUUAAUAUAUCCAAAUGGCGGAGCGUUGAAGAUGAAGACCAAAGGUCCUCCGCCUAAGGGGUAUGAGUACAUCCAAAACCCAUAGCAUCAAGGAUGAAGGAGAAGUUCCCUAUGAAGAAAGUGUGUAAAGAGAGCCAAAGUGCACAGCGGCAAUGCCGAAGUCCUAUGGACCUAUGCCAAAGGGCUCUUAAGAGAGCCAAAAUGCAUAGUAGCAAAGUUAAAAAAUAUAGUUUCUAUGGCGAAAGGUUCUUGACUAUAGUAAAGGUUUAUGGGGCAAGGACU'
p219
aF0.8702702702702703
aa(lp220
S'Mat - Cuboid'
p221
aS'GGUCGAAAAGCAAGCAAAAGCAAGCAAAAGAAGCAAGCAAAAGCAGAGAAGCAAAAGUAGCAAGCAGUCAAAAAUAAGCAAGAAACCAAAACCAACCAAGUAAUCUAGGAAAAACAAGGAAGCAACCAAGUAAAAGAAAGCAAGGUAGCAACGAAGCAAAAGGGGGAAACCAAGCAAGCAAUCAAAAGUAAGCUAGAGGCUAAGUAGUGUAAAAUCGAAACAAGGAAUCGUACGAACGGAAGCAAGAGAGGAAUCAACUGCAACGAAGCGUUCAAGCGAUCACGAGGAAGUAACAAAGCGCAUGGAGACAAGCAAGGGGAAUCAAGCAUGAGGAAGGAAGCAUCGCAACCAAGCGCAAGCAACGCAAGCGCAAGCCGUAC'
p222
aF0.868421052631579
aa(lp223
S'Misfolded Aptamer 6'
p224
aS'AAAAAAGAGAAAAAAGAUCAAGAAAAGAGAAAAAAAGCUCAAAGCGAAAAGAUCAAAAAAACUCAAAAAAAAAAA'
p225
aF1.0
aa(lp226
S'Snowflake 3'
p227
aS'UGGGCAAAAGCACAGCAGAAAGCUGAAGAUUGGAUUAAGCGAAAACGCCAGAGAAAAAUCCAGGAACUGCCAAAAGGACUGCAGAAAAUUGAAGAUCAGAUCGAGAGAAAACUCCAGAACAAAAGUGAGAAACUUCCAAAAGGACUGCAGAAAACAUAAGAUCACAUCAAGAAAAAAUUCGAGACCAAAAGGCAGAAACUGCCAAAAGGCCUGCAAAAAACUGAGGAUGAGCUCAAGAGAAAACUUCCGAGCAAAAGCCAGUAUUUGCCAAAGGGACUGCAGAAAACUGAAGAUCAGAUCAAGAGAAAAGUCCAGAGCAAAAGUCAGUAUCUACCAAAAGGACUGCAGAAAACUGCGUAUGAGAUCAAGAGAAAACUGCUGAGCGAAAGCCUG'
p228
aF0.7938931297709924
aa(lp229
S'Hard Y and a bit more'
p230
aS'AAAAUGACCGGCCAAUCGGAAACGAUGCGUUUGCGUUGGGAUUCAAAUGAGUGGGUUAGUAAAAUCUGACAUCAUCGCAGCGGUCUAAAAAAAAAAAAAAAAAAAA'
p231
aF0.9716981132075472
aa(lp232
S'Mat - Lot 2-2 B'
p233
aS'GAUAUCAACUCGAAUCAAAAGAAAAAAGAAAACUAAAAUCAAUGGGAAGAAAAAGGGAGGACAGCUAAGCAAACCCAAGCAAAAGCAGGAGCAAGAAAAAGCUAAUGCUCAGGUAAAAGCAAGCGCAGGGGCUAGCAAAGAAAGGUCCAAAUACAAGCAAAAGGAAGGUCAAAAGAAAAACCAAGCGCGAGUAAAAAUAGGUGCGUGCAAGCAACCUCAAGCAAAAGCAAGAUGAAGGAAAAUGUAAUCUUCAGUAAAAAUCAGGUGCCAGAGGAAGUAAGUAC'
p234
aF0.8169014084507042
aa(lp235
S'Shapes and Energy'
p236
aS'AAAAAAGAUAGUAACGCAAAUGAAAGUUUAGGAAACGAGGCGAGCGCGUAAGGAAAAAAGCCUGAAAAGGUCCGACUGGCAAAAAAAAAAAAAAAAAAAAA'
p237
aF1.0
aa(lp238
S"Spiral of 5's"
p239
aS'UUAAAGCUAGGAAGAUAGAAAGAUAGAAAAGAUAGAAAGAUAGGAAGAUGGGAGAUAGAAAGGAUAUAAAGAUAGAAAGAUAGAAGAUUGAAAGAUAGAAAGAUAGAACAUAGAAAGAUAUAAGAUAGAGGAUAGAAGAUAGAAGUUGGAGGGAGGGAUUAAUGUCUAAAGGAUAUAAAAAUGAUCAAACACUUCUAAAAGCCAACAAAAACUAUUAAAAACUAUCAAAAGCUAUCAAAAAAUAUCAAAAGCUAUGAAAAACUAUCAAAAACUAUCGAAAACGAUCGAAAGCUAUCAAAAACUAUCAAAAAGUAUCAAAAACUAUCAAAAACUAUCAAAAACUAUCAAAAACUAUCGAAAACUAUCAAAAACUAUCAAAAACUAGCAAAAUAAAAAA'
p240
aF0.9949622166246851
aa(lp241
S'Campfire'
p242
aS'AAAAGAACAAGAUUCAAGACCAAGUGCGAAAAGUGCAAAGUCCAUGAUGUUUGGUCGACAGCAGUACCAGAUCUAACGAGAAUCGGGACACAGUGAAGAAGCGAAAGCUCGCCGUCAGAGAAAGCUACGAACGAUCUAGUGCGAAAAUGAUGCCCGACUGAGUCAGGUCUAAUGAUCGGCCGGUAUACCUCUAUGAGAGUCAUGAUGGGCUC'
p243
aF0.839622641509434
aa(lp244
S'Anemone'
p245
aS'AAAUAGCUGUAAUCGGUUACAUGGGAAACUGUGCUUGUAUAAUUUCAGGAAGCUUUAUGGCUCGUUACCUAAUGGUAACGACUGUAAUCGGUUCGUUAAAAACGAUGCGUUGAAAAGUCGACGAGUUUGUAAUGAAACUGGGCCGAAAGGUCUGUGCUGAAACCAGCAGGCAGCGAAAGUUGCCGAUUGUAAUCGAGCCGUUCCUAAUGGAGUG'
p246
aF0.9906542056074766
aa(lp247
S'Fractal 3'
p248
aS'AAAAAUCCUAUAGAUCUAAUUGCCAAAGGGACCAACGGCGAAAAAGCCCGAAAGGACUGGGAAAGCUAAUGCCCAAAGGGACUCACAGAAUGAAAACUUAAAAAAACUUAAGGGAAAAA'
p249
aF0.865546218487395
aa(lp250
S'Kyurem 5'
p251
aS'AAAAGGUUAUUUAUGGAAACGAGACAAAAUGUCACUGCAUAGCGAAAAGUUCAUUGAAAAAAAGUUCAGACGCCGGAAACUGACAAAAAAAAAAAAAAAAAAAA'
p252
aF0.9423076923076923
aa(lp253
S'Snowflake Necklace ( or v2.0 )'
p254
aS'UAUAUAUAUAUAAAAAGAUAUACCAAAAAGGAAGAAAAAAUAGCAAAAAGAAGCAAAAGGCAAAAAAAAUUACUAUCAGCGAAAAACGCAGAUAGACCAAAAACCGGCAAAAAGCAUCAAAAAAAAGGAAAAACCUGUAAAAAGCUCUAUCAGAGAAAAACACAGAGACACCAAAAAACAGCAAAAAGCAUCAAAAAGAAGAAAAAAGUAGCAAAAAGCAGUCUCAAGGAAAAACCUAGGGAUAGCAAAAGGAAGCAAAAAGCAACAAAAAGCAGCAAAAAGCAGAUAAAUGCACUUUCACAGAAAAACUGAGAGAGACCAAAAGGGAGCAAAAAGCACCAAAAAGCUGCAAAAAUCUCCAAAAAGGACUCUCAUUUUAUAUAUAUAUG'
p255
aF0.8920308483290489
aa(lp256
S'Methaqualone C16H14N2O Structural Representation'
p257
aS'AAAAAAUAUGUAGAUCGCCGACGGGAAACCCAGAAGCCGAAAAUGGAGCGGUAUAAAAGCAUGAUUGCUAAAGGGCUUGGGAAAAAACCAAAUCUCGCGUACACACAGGAACAGAUCAAAUCAAAUCAGAUAAUGCAACGCUAAAAAUAAUUAUCGAUAGAAAAUUGCAGAAAACUGCACAAAACUCCGAAUGUAAGAUUUGAAGCAGACGGAUAAACGUAGACAGAAAAGUGAAAGCACGCUGGGAGAAAACUCACUAGAAGAAAAAUCAGUCAGAGAAAACUCAGUCAGCGGGGAAAACCCCGGAAAACCGCUAGAAAACUAAUUGGUUUGAUCAAAGGUCAGUGCUAAAAAA'
p258
aF0.8338028169014085
aa(lp259
S"Cat's Toy 2"
p260
aS'AAAACGUGUAUUAAAAUUAAGAAAAAAAAAAAAAAAAAAGCACCCAAAUUGAAAAUGAGUCAAAAGAAAAAAAAAGGUAAAAAGGAGUACACGAAAA'
p261
aF0.9587628865979382
aa(lp262
S'Zigzag Semicircle'
p263
aS'AAAGAAGGAGUUGCAAAAAAAAAAACCUUUAAAA'
p264
aF0.9411764705882353
aa(lp265
S'Short String 4'
p266
aS'AAAAAUGCAACAAGCAACAAAAAGCAGCUAAUGCGCAAUAAAGGUCGUCCAAAAGGUAGUAACGAAGAGCGAGUGCUAAAAAAAAAAAAAAAAAAAA'
p267
aF0.9381443298969072
aa(lp268
S'Gladius'
p269
aS'AGAAAUAAGGACGGGAGCUUGUGAACAAAGAGAGGAUAAGAUGAAAGCAUCAGUAUGAACAGGGAUGAGAUCAAGAGAUUUAGGGAUAGAUCAGAUCUGAUAUAAAGAUCAGAUGAAGAUCUAUGAUCAUAUACGAUCUAUGUGUAAGAUCGAAUUUAUCAAUUGAUCAACAGAUCAACGCCCGAAACAUACUUCUAAAGGAGUGAACGAAAGCCUGAAGACCAGAAGUUCUGAAGAUAUGUAGAUAUCAUUUAGUAAUAUCAUAGAGACAUAAAAAUAUGUCGACUGGAAUAUACCUGGCGGAUAUACAUGUAUCACAUGAUCACAAGGUCACGUGGCAUAAGUUCAAGCCCGAAAGGGCAAUUUCACUAAAAGGACUCACAGAACAAAACGAGAAAAC'
p270
aF0.905
aa(lp271
S'Thunderbolt'
p272
aS'GGUAGAUAGAAAAAAAAUAGCUAGCAUAAAAAUAAAAGGGAUAUAUGAAAAAAAAAGCAAAAAUGGGGAAAAACCCCUAAAAAGCAAAGCAAUCAAAAAAAGAAUUAAAAUAGACAAGUAAACAAAAAAGAAAUAGGUCAAAAAGAGGAAAUGAAGCAAAAAUAGCAACUAAAACUCAUAUCAAAGAAAAAAUGAAGAGCAAAGCACAACUAAAAAACGAAGAUGAAAAAAAAGACCAAAAUGAUAUCAAGGAUAUCUGUAAACAAAAAAAAAAAGGAAGCAAAAAAAAAGUAGGGAAAGCACAUCAAAAAUAAAAAAAAAAAAAAGAUGUGAAUAGAAAACAUAUAUCAAAAAAAAGAGCGUGCAAAAAAAGAAAAAAACACUAUCAUCCA'
p273
aF0.9642857142857143
aa(lp274
S'Mutated chicken feet'
p275
aS'AAAAAAAGCAGGGGCAAAUCAGCAAAGUAAAACGCAGCAACACGAAGCGAUCUAUGAAAAUUACAGCAGGCGGUAACCAGAAAACCAAAGCACAAAAAAA'
p276
aF0.87
aa(lp277
S'Chicken Tracks'
p278
aS'AAAAAAAUGACUUUGCAUCAAAACACGAGGGUAAAAGUAUCAACUUUAAAAGAUGCGAGGUCUAAACGGGCGAGGCUGAAGAACUAUGUUCAAUACGAAAUGAAGUUGAAAAAAAA'
p279
aF0.9482758620689655
aa(lp280
S'Looking Back Again'
p281
aS'GAGUAGCGCUUGAAAAACAUAUCUAUGAUAUGGCAGGAAGAGCAGAAGAGAAACUUCUGAGCUAGAAGGAUCAAAGGAUCAAAACUAGCAACUAGACACAAGCUCCGCAAAAUGAUACAAAAGUAUCUAAAAACUGUUGCGCAUAGUAUCUAUGCGAAAAAACUUUGUAUAUCCGACCAAUAAGUAGAAGAAUAUAAAAAUAUAGACACGUAGAACCCCCGGGAAACUGAAGAUGUAAAACUAAGGAGCAGAUGGAAAUCGAAAAAGAGACGGAAAAAAAAGAUCAAAAAGAUCCUGGCAACUCACAUUCAAUAAAAAUUCCCUAUCAAAAGAUAGGAACUGGUGAAGGAUGUAGGAACUAUGAAGGGGGUAAAAUUGCUAUCAAUCUC'
p282
aF0.8791773778920309
aa(lp283
S'Multilooping 6'
p284
aS'AAUGUUGGUUUCUUUUAGUGAAGGUUAACGAAAUUCAAAGUGUCGAGCGAAAGUGUUGUGGGAGAAAUCCUGCAGCGGCGGA'
p285
aF0.926829268292683
aa(lp286
S'Cesspool'
p287
aS'GAAUAAGAAAACAAUUGGUGAGACAGAAACUGAACAACAUCCAAAUAGGAAAACAAGAGAAGAAAACAACAAAAAGAAAAUAAAAACAAGAAGAAGAAAACAAGUGAAGAUAGAGAAAUUCAACAGAAACCAAGGAAGAAAACAACAAGAUGAAAGAAAAAAAAGAAAGCAGCAACAAGGAAGGAAUAAUCAAGGUAACUGACAUAAAAUGAACAAUAAGCCAUGAAGAAAACAAUUGAAGAAAAUAACAAAAUGAAAAGUACAACCAACCAAGAAGAAAACAAGAUAAGAAAGGGAAACUAUGAAACGGCACAAGAGUGAAAGAACAAAACUAAUGAAUAAAAAGAAAACAACAAGC'
p288
aF0.7877094972067039
aa(lp289
S'Hoglafractal'
p290
aS'AUCAUGAAUAUAGAAAAGGAAGAAAAAACUUCCCUAUACAUCAAAGAUCAAAAAGAUUGAUGGAGAACAUAAAAAUGCUCAGAGAAAGAUCAAAGAUCGAAAAUGAUCGAUCCAGAAGAGAAAAACUCCUGCGAGCAAAAGCGGUCAUAGAAAGCGAAGAGAAAAAAAUCCGCCCAGAAAAAAUCGGCAGAAAACUGUGAUUGAAAAAGCAGCGAAAAAGCGCCAGAAAAACUCCCAAAGGGAGAUAUGGAAAAAGAGAAAAAACACCCUAAAUGGAAACAUAUACAAAGUAUAUGAAAAAAACAUAUCAAAAAACAAUCUAAAAUGUCUAAACUCAAAUCAGGUAAGUGCACAUCAAAAGCGAAAGCCUGAAAGGCAUGGCAAGGCCAUGAGAUAGCUC'
p291
aF0.8925
aa(lp292
S'Bullseye'
p293
aS'AAAGUAUUGCAAGGCGAAUGACCUAUGGUCUAGCUCAAGGAGCUGGGAAAAAAAGAUUAUGAAGCGACAUGCACUAUCUGCUAGAUGAAGCAUCGUUGCAAAAAAGCGUAUCAAAGAUGAAGAAUAAAAUUCACGGACAAAGAUCCACGAAAAAAUAAGCUUCGAAGAGGAAGAUCUAAGAUCAAGACUAAGGGUUAGCUAA'
p294
aF0.8366336633663366
aa(lp295
S'Shooting Star'
p296
aS'GAUAUCCAUCCAUAUAGAAUGAGAAGUAGAGAGAGACUAAAGGAGCUACCUCAGACAACCUACUAUAAGCGAGAGGAGAGAAGGGGUGAGUUAGAGACAGAUCAGCGAAAGACGAUACGUCCAUAAACCGCACACAACGAACCAAAAGACUUUCCAUCGAAAGUAGCUUUCAGAUCGCGACGAUCAAGGAAACAAACAUGAGAUGAGGUCAGUUGAAAGAAAUAAUAUCUAUUUUAGAUAGAAAUUAUCUAACUAUAAAGAAACUUUAUAAGAGAGAAAGUCUCGAACCAUCAAGGAAACGGGGAAUAAAUCAGAAUGUCGAGCAAAAGCCUAGACAUCAGACUAAGACAAUGAUGAGGUAUCA'
p297
aF0.8351648351648352
aa(lp298
S'Teslagon'
p299
aS'AAAAAAGGAAAAAAAGUAGCAAAAAAAGCAUCAAAAAAAAAAAAAAGGAAAAAAAAAAACAAAAAAAAAAAAAAAGUACAAAAAAACCAUGAAAAAAAAAAUAAAAAAAAAAAAAUGCAAAAAAAGCUCCAAAAAAAACAUCAAAAAAAAAAAAAAAGAAAAAAAAAAGCAAAAAAAAAAAAAAACAAUCAAAAAAAGUAGUAAAAAAAAGAAAAAAAAAAAAAAGCUAAAAAAAGCGGCAAAAAAGGCGUCAAAAAAAAAAAAAAAGAAAAAAAAAAGGAAAAAAAAAAAAAAACUAGCAAAAAAAUCAACAAAAAAAGAAAAAAAAAAAAAGUAAAAAAAAAAAAAAAGAAGCAAAAAAAGUAAUAAAAAAAUCAAAAAA'
p300
aF0.9136125654450262
aa.