(lp0
(lp1
S'Simple Hairpin'
p2
aS'GAUACAAAAAAGUAUC'
p3
aF1.0
aa(lp4
S'Arabidopsis Thaliana 6 RNA - Difficulty Level 0'
p5
aS'GCGAUGCAAAAGUCAAAAAAAAAAAGACGCGAUGUCUUGAUAUUAUAAUACGUGUAUAAAGAUACAAAAAAGUAUCAAUACACAGUAUUAUAAUAUCUUGACAUCGCAAGCAUCGC'
p6
aF1.0
aa(lp7
S'Prion Pseudoknot - Difficulty Level 0'
p8
aS'GAGGGCAGAUCGAAAGAUCGCCACUCAAAAAAAAAA'
p9
aF1.0
aa(lp10
S'Human Integrated Adenovirus - Difficulty Level 0'
p11
aS'GACAGUGUAAUAUCUGCCAUCGAAAAAAAAAGGAGGGCGAGGGCGUAGACCCGGGGCAAAAGCAUGGGUACAUUAAAAAAAGAAUGUACCCAAAAAUGCGCCCCAAAUGGGGCCAAAACUCGUAAAUCUAUCUAAAAAUGAUAGACCUCAAAAAAAAAAAAGAUGGCUGAUAAAAAUUAUACAAAUGUCAAA'
p12
aF1.0
aa(lp13
S'The Gammaretrovirus Signal - Difficulty Level 0'
p14
aS'AAGAGAAGCGAUCGAAAGAUCGCGGCGCAAAAAAGUUCAAGUCAGAUUUUAUGAAAGCAUAACAAAGAUCGACGAACAAGCGAUGUCGAAAGACAUCGCAA'
p15
aF1.0
aa(lp16
S'Saccharomyces Cerevisiae - Difficulty Level 0'
p17
aS'ACGUGUCCUAGAAAAAAAACUAGAACUAAAAAAAAAAAAAUGUAAAAGUUACAAAAAAGGUAACGACACGUAAAUGCGAUGCAAUUGGGAGAAAGAAGGGCUCUAAAAAAAAAAAUGAGAGAACGGAUAAAAAAAGUUGCGCAUCGCUAAAGCGAGUCAACUGGUAAAAAAUCCAGCCUCUUUAAAAAUGAGAGGAAAAGAUAAAAAAAAGUUAUCGCUUCGCGAAUCCCAUGCAACGGUUAAAAAAUACUGCGUAUCGAAAAAAGAUACGAAAAGAUACAAAAAAGGUAUCGCAUGGGUAAAGCGAAGCAACUGUGAAAAAAAACAGCCUAGCAAAAAAAGCUAGGAAAAGAUUCUAAAAAUGAAUCGUUUCGCAAAA'
p18
aF0.9894459102902374
aa(lp19
S'Fractal 2'
p20
aS'AAAAGGCGAUGUGAAACAGUUGGAAUACAGCCUAAAAAAAAUGGCUAUGCAUCAAAAAAAAAAUGCUGGCUCUAAAAAAAAUGAGCAAAUUUCAACUGAAAGAGGUGUUUUAUGAGCAAAAAAAAAAGCUUUAGGGUAAAAAAAAAAGCCCAAGAUCGAAAAAAAAAGAUCAAAAAACACCUCAAUGCGAAGAAUUGAGAGGAAAAAAAAAACCUCAUGAGCAAAAAAAAAGGCUCUAGGUCGAAAAAAAAAGACCAAAAUUCUUCGCUAACAUAUCGCAAAAA'
p21
aF1.0
aa(lp22
S'G-C Placement'
p23
aS'GGUCUAUGACCA'
p24
aF1.0
aa(lp25
S'The Sun'
p26
aS'GACAGCAGGUCGAAGACUAAUGCGUCAAUACCUUGAUGUCGAACACAAAUCGGAUUAACUAAACAUGACAAAGUCAAUUGAGAGGAUCUAAGCAUGUCGAAGACAAACGGGAGUAACUCAGGAUGUCAAGGACAAAUUCUAGAAAUUGAGAAUGUGUAUAACGACUGCCAAAAACUCAGCUUACCGAAGGUAAAAGCGAGAAGUUCAGCGUGUCAAAGACAAAUGCGAAAAAGUUACGAUGUUGAAGACAAAUGCGGU'
p27
aF0.9069767441860465
aa(lp28
S'Frog Foot'
p29
aS'AAAAAAAAAAGAUCGAAAGAUCGAUCGAAAGAUCCGGCAAAGCUG'
p30
aF1.0
aa(lp31
S'InfoRNA test 16'
p32
aS'ACGAGGUGCGAGGUUUAAUGACCUAUGACUCCUCGU'
p33
aF1.0
aa(lp34
S'Mat - Martian 2'
p35
aS'GAUCGAAAGAUCAAAGCGAUGCAAGCGAUGCAAAAAAAGCAUCGCGCGUCGCAAAGCAUGUUGAAAAAAGCGAUGCAGCGAUGCGAAAAAAGCAUCGCGCGUCGCAAAGAUAUUAAAAUAUCAAAAAAAGAUAUUUCUGAUAUCAAAAAACAGCGUGCAAAGAAUAAACUAUGUGCAAAAAAUACAUAGAAUUUAUUCAAAAGGGAAAACCCU'
p36
aF1.0
aa(lp37
S'square'
p38
aS'GCGAUGCGGGUUCCAGAUGCGGAUACAAAGUAUCCAAAAGCAUCUGAAAAGAGCCCAAAAGCAUCGC'
p39
aF1.0
aa(lp40
S'Six legd turtle 2'
p41
aS'AAAAAGCAAAGCAAAAGCAAUAGGAAACUUAACGGAAACGGAAGGGAGACCAAAGGGAAACCAAAGGGAAACUAAAGCGAAAAAAAAAAAAAAAAAAA'
p42
aF1.0
aa(lp43
S'Small and Easy 6'
p44
aS'UCUUGAAAAGCGCUGGAAAAAAAAGCCCGU'
p45
aF0.8666666666666667
aa(lp46
S'Fractile'
p47
aS'AAAAAAAAAAAGGGGAAACUAAAGGAAAGGAAAACCAAGGAAAGAUAAUUCAAACCAAGGGAAACCAAACCAACUGAAAGGAAAACAAAAAAAAAAAAAAAAAAA'
p48
aF1.0
aa(lp49
S'Six legd Turtle'
p50
aS'AAAAAACAAAAGGUAAUCCAAAUAGAAAGUGUAAUAUAAAAAUUAAAUUUAAUAGAAAGGUAAAAAUAAAUCGGAAACCUAAAGGGAAAAAAAAAAAAAAAAAAA'
p51
aF0.8857142857142857
aa(lp52
S'snoRNA SNORD64'
p53
aS'GCGAUCAAAAAGUCAAAAGUCAAAGAUACAAAAAAAAAAAAAGUAUCGAAAGACAAGACAAGAUCGC'
p54
aF1.0
aa(lp55
S'Chalk Outline'
p56
aS'AAAAAGAUCAGAGGGAAAACCACUCAAUCAGUCGAAAGACGAUAGCGACCGAAAGGAUCGCAGCGACGAAAGUUAGCGAUCACAAAAAAAAAAAAAAAAAAAAA'
p57
aF1.0
aa(lp58
S'InfoRNA bulge test 9'
p59
aS'GCGAUGCAGAGAGAGCUAUGCUAAUGCAUAGCCCCGCAUCGC'
p60
aF1.0
aa(lp61
S'Tilted Russian Cross'
p62
aS'AAAAAGACCCUGUGAAAGCAGCGAGAGAUCGAAAGAUCGAUAUGAAAGUGUCACAUCGAAAGAUGCUCGGAUCGAAAGAUCGGUCGAAAAAAAAAAAAAAAAAAA'
p63
aF1.0
aa(lp64
S'This is ACTUALLY Small And Easy 6'
p65
aS'AAAAAAAAAAAAAAAAAAAAAAAAAAAAAAAAAAAAAAAAAAAAAAAAAAAAAAAAAAAAAAAAAAAAAAAAAAAAAAAAAAAAAAAAAAAAAAAAAAAAAAAAAAAAAAAAAAAAAAAAAAAAAAAAAAAAAAAAAAAAAAAAAAAAAAAAAAAAAAAAAAAAAAAAAAAAAAAAAAAAAAAAAAAAAAAAAAAAAAAAAAAAAAAAAAAAAAAAAAAAAAAAAAAAAAAAAAAAAAAAAAAAAAAAAAAAAAAAAAAAAAAAAAAAAAAAAAAAAAAAAAAAAAAAAAAAAAAAAAAAAAAAAAAAAAAAAAAAAAAAAAAAAAAAAAAAAAAAAAAAAAAAAAAAAAAAAAAAAAAAAAAAAAAAAAAAAAAAAAAAAAAAAAAAAAAAAAAAAAAA'
p66
aF1.0
aa(lp67
S'Shortie 4'
p68
aS'GGAAAACCAGGGAAACC'
p69
aF1.0
aa(lp70
S'Shape Test'
p71
aS'AAAAAGAUAUGAUGAUGCAAAAAAAAGCAUCUACUCACUCGUAUGCAAAAGGCAUGAGGCGAAAGUGCCGGAGGAGGAUAUAACAAAAAAAAAAAAAAAAAAAA'
p72
aF1.0
aa(lp73
S'The Minitsry'
p74
aS'GUCAAAAACGCAAAAACUCAAAAAGACAAAAGUUCAAAAAAAAGAGAGUCGGAGGGCGGGGC'
p75
aF1.0
aa(lp76
S'stickshift'
p77
aS'AAGCGAUCCUAAAAAAGAGAUCGCAA'
p78
aF1.0
aa(lp79
S'U'
p80
aS'AAAAUGAUACAGAGAGGAGACGGAUGUUCGAAAGAGCGUCCGCCCCCGUAUCUAAAA'
p81
aF1.0
aa(lp82
S'Still Life (Sunflower In A Vase)'
p83
aS'AAGGAUCAACUCGAAAAAAUCGAGAACUGAUCAUGUCGAAAGUAGUAAAAAAUUACAGGUGUCGAAGCCCGAUAACCUCAAACAGCUGUACUGGUGAAAAACCAGACACAUUAUUAUUCUAUUAUUUUCCGGGUAAAAAAACCCGAGCUAUAAAAAAAAAAAAAGAUCACACACACACACACACACACACACACACACACACACAACACGAUCACAAAAAAAAAAAAUAGCGAAUCGAAAGAUUCAGAAGAUAAUAGGAUAGUAAUGUGGAGAUACAAAAAGUAUCAACGAGUAAAAAACUCGAACUGUUGAAAAAGCAGAUCCAAUGAAAAACCAUUUGUGGUGAAAGCCAUUACCGAAUAAAUAUUAAGGACCAAA'
p84
aF0.9523809523809523
aa(lp85
S'Quasispecies 2-2 Loop Challenge'
p86
aS'AAAAAGAUCCGUGUUUAUCGAAAGAUAUUCACGAAUGUAACAAAGGGACAUAGGUCUUCUUGUCGAAAAGACUUGUUGACCGAUCGAAAAAAAAAAAAAAAAAAA'
p87
aF1.0
aa(lp88
S'Corner bulge training'
p89
aS'AGCGAUCGAUACAAAGUAUCAAAAGAUCGCA'
p90
aF1.0
aa(lp91
S'Spiral'
p92
aS'AAAAAGAUCAGCGAUCAGUCAGAUACAGAUCAGAUCAGGAGGAGGAGGAGGAGGAAAAACCCCCCCCCCCCGAUCGAUCGUAUCGACGAUCGCGAUCAAAAA'
p93
aF1.0
aa(lp94
S'InfoRNA bulge test'
p95
aS'AAAAAAAAAAAAAAAAAAAAAAAAAAAAACACCGAAAAGGGGUAAAUGGCAAAGGAGCGGUCGCACGAGAAAAACUACGGGCAGGGAGUAUCAAAUGACCCAAAGGCACCAAAAAAGGAUGG'
p96
aF1.0
aa(lp97
S'Worm 1'
p98
aS'AAAAAACUGCAGGUUGACAUAGAGAAAACGGUUGCACACAUUAGG'
p99
aF0.9111111111111111
aa(lp100
S'just down to 1 bulge'
p101
aS'AAAAAGACCAGAUAUGAAAGUAUCAGUCGAAAGACAGGAUCAAAAGAUCAGUCGAAAGACAGUCGAAAGACAGAUCAAAAAAAAAAAAAAAAAAAA'
p102
aF1.0
aa(lp103
S'Iron Cross'
p104
aS'ACUCGGUCGAAGGCACGCAAAGCGAGUAGAAAUACAGCCGAAAGCACUCGAAAGAGAGUCAAAGACAGCUGAAGGGACUCGAAAGAGGGUCAAAGACACCCGAAGACACUCAAGGAGAGAGGA'
p105
aF1.0
aa(lp106
S'loops and stems'
p107
aS'AAAAAGCGAUGCAAAGAUUAAAGAUCAAAGACCAAAAAAAAAGAUACAAAAAAAAAAAAGUAUCAAAGGUCGAAAGAGCAAAAAAAAAAGCUCGUAGAUCACAGUCAAAAAAAAGACAAAAAUCAAGGUAAAAUUCGAAGCAUCGCAAAAA'
p108
aF1.0
aa(lp109
S'Water Strider'
p110
aS'AAAAAGCAUCUGGGGGAACUGGAAAUAGAGCGAAAGUCGCGCUGGGGUCCGCAAAGGAGAGGGAAAUUUAGAACUAUGGAGGAAAAAAAAAAAAAAAAAAAAA'
p111
aF0.9611650485436893
aa(lp112
S'The Turtle(s) Move(s)'
p113
aS'AAAGGAAAACCAAAAGCGAUGUUCAAAAAAAAAGAGCGUCGCAAAAGAUCAAAAAGAUCAAAAACUCGAAAGAGGAACUGGUCAAAAAAACCAGAAAACGCAAAGCAAAAGCAAAAUCUGGAAACAGUAAGCCUAUCAAAAAAAGAUAGGAAAACUCGAAAGAGAAAAACCUAUGAAAUCUCUAAAAAUGAGUACUGAAAAAAAACAGGAACUGGUAAAAAAACCAGGAACUGGGAAAACCAGAGCAUAGGAAAAAAAAAGGGAAACCGAAAACCAAAAGGAAAAAAAAGCUAAAAAAAAAAGGCUUAAAAAAGCG'
p114
aF1.0
aa(lp115
S'Adenine'
p116
aS'GAUACAGCGAUCAGCGAUCAGCGAUCAGCGAUAAGCGAUCAAAAGCGAUCAAAAAAGAUCGCAGAUCGCAGAUACAAAGCGAUGCAAAGCAUCGCGUAUCAUAUCGCAGAUAAUAAUAUCAAAGAUAUUAAAAUUAUCAGAUCGCAAAAGAUCGCAAAAGAUCGCAAAAGUAUC'
p117
aF1.0
aa(lp118
S'Tripod5'
p119
aS'AUGGGGGGCAUAAAUUGCCGAUUUAAAUAAUCCCCCUA'
p120
aF1.0
aa(lp121
S'Shortie 6'
p122
aS'GCAAAAGCAGGAAAACCAGGAAAACCAGGGAAACC'
p123
aF1.0
aa(lp124
S'Runner'
p125
aS'AAAAACAUCGGGUCGUAAAGAUCAAAGAUCAGACCAAAGUCAAGCGGGCAAAGCCAAACGCGGGCGGAAACCGAAACCCAGACAAAGUCAAAGUCGAAAGACAGACAGAUGAAAAA'
p126
aF1.0
aa(lp127
S'Recoil'
p128
aS'AAAAAGAUACAAGGAAGGAAGUCAAGUCAAGGAAGCAAAGCACCAGACAGACACCACCAGUAUCAAAAAAAAAAAAAAAAAAAAA'
p129
aF1.0
aa(lp130
S'[CloudBeta] An Arm and a Leg 1.0'
p131
aS'AAAAAGUCAGAGGGAAAACCACUCGUCAGGAAAACCGACAGACAAAAAAAAAAAAAAAAAAAA'
p132
aF1.0
aa(lp133
S'[CloudBeta] 5 Adjacent Stack Multi-Branch Loop'
p134
aS'AAGGCCCGGAAAGCCGGCGGAGGAAACUCCGUAGAUGAAAGUUUAGCGCAAAGGCGCGCCUUA'
p135
aF1.0
aa(lp136
S'Triple Y'
p137
aS'AAACAGGGUCGCUCGUGAAAGCGUGGUCUGAAAAGGCACAGAACGAAUUAAAUAAAUAGCCGAAAGGCUCGUUGUACGAAAAAAAAAAAAAAAAAAA'
p138
aF0.8969072164948454
aa(lp139
S'Misfolded Aptamer'
p140
aS'GAUCUAAAAAGCGCCAAAGGCAGAGAAAUCGAAAAAAAAGCGAAAUGAUC'
p141
aF1.0
aa(lp142
S'Flower power'
p143
aS'AAAAUCAUGGUGAGAAGCCCACCGCGAGUGAAGUUCAUGGUCAAACAUCUUACUAGAACAAAGCGGGCAUAAAAAGGGUGUGUAAAAAAAAAAAAAAAAAAA'
p144
aF0.9019607843137255
aa(lp145
S'Kudzu'
p146
aS'AAAAAGUCGCAAAUAUCGGAGAUCAGAUAUUCGAAUACUCUUAGGAAACAAUGGGAAGUCAAAGAUGAAGACUUAAGAGACUAAAAAAAAAAAAAAAAAAA'
p147
aF0.9603960396039604
aa(lp148
S'"1,2,3and4bulges"'
p149
aS'AAAAAGACCGGGCGCGAAAGCGAAAGCCAGUCGAAAGACGGGAUCAAAAGGCCAGCCGAAAGAUAGCAGUCAAAGGACAGGAACCAAAAAAAAAAAAAAAAAAAA'
p150
aF1.0
aa(lp151
S'medallion'
p152
aS'GCGACCACCUAUCGAAAGAUAGGAGUCGAAAGACACUCGAAAGAGACCUAUCGAAAGAUAGGACUCGAAAGAGACCUAUCGAAAGAUAGGACUCGAAAGAGCUUCGAAAGAAACCUAUCGAAAGAUAGGGCUCGAAAGAGACCUAUCGAAAGAUAGGACGCGAAAGCGACUCGAAAGAGACGUAUCGAAAGAUAUGGCUCGAAAGAGACCUAUCGAAAGAUAGGACUCGAAAGAGACUCGAAAGAGACCUAUCGAAAGAUAGGGCUCGAAAGAGACCUAUCGAAAGAUAGGACUCGAAAGAGACUCGAAAGAGACCUAUCGAAAGAUAGGGGGUCGC'
p153
aF1.0
aa(lp154
S'[RNA] Repetitious Sequences 8/10'
p155
aS'AGCAAAAAAGGAAAAAACCAAAAAAGAAAAAAAGCAAAAAAGCAAAAAAGCAAAAAAGCAAAAAAUCAAAAAAGCAAAAA'
p156
aF1.0
aa(lp157
S'Documenting repetitious behavior'
p158
aS'AAAAAAAGUAAACACAAAACUAACACAAAGCAAACACAAAGCUAACACAAGGUAAACACAAAUCAAACACAAAGCAAACACAAUACAAACACAAAGAUAAAAAAAAUUAAAAAACAUGCAAAAAACAACAAAAAAACACGUAAAAAACACGUAAAAAACAGGAAAAAAACAUGCAAAAAACACGCAAAAAACAUCGAAAAAAAAACCUAACACAAAGAAAACACAAAGCUAACACAAAGCAAACACAAAGUAAACACAAGACAAACACAAAGAAAACACAAAUCUAACACAAGGGAAAAAAAAUCCAAAAAACACGUUAAAAACACGCAAAAAACACGCAAAAAACACACAAAAAACAUGCAAAAAACACACAAAAAACAUGUAAAAAACACGCAAAAAA'
p159
aF0.955
aa(lp160
S'7 multiloop'
p161
aS'GACCCAUCCGAAAGGAUGACGCAAAAGUGCGUGUGGGGAAACCCACGUGGAAAAGUCCACCAUGUGAAAACGUGCCGUGUAAUCGCGGGGUC'
p162
aF1.0
aa(lp163
S'Kyurem 7'
p164
aS'AAAAACCCAAAUGUGUAAUCACAACAAAAUGAAAUAUUAAAUAUGGUGCCGCGAAAAAGCGAAACCCUUUACCCAUGAUGGGGAAAAAAAAAAAAAAAAAAA'
p165
aF0.9411764705882353
aa(lp166
S'JF1'
p167
aS'GAUACUCAAUCACUGGCAAGAUACGAAAGGGAUCAAGGCGCAAAGAGAGGAGGCGUCACAUAUUAUGACAUCGAAAGAUGUCAUAAUAUGAAGUCGAAAGACACCAGAUGUCGAAAGACAUCUGGGACUGGCGAAAGCCAGAGACGCCACUCUCAGCGCCAGAUCCUAAAGCUAGCGCAAAAAGCGACUGGCAGGAUAUUAGAAUAUUAUAAUAUUACGAAAGUGAUAUUAUAAUGUUUCUAAUAUCAAAGAUACAAAAAGGUAUCCAUGAUAAUCGAAAGAUUAUCAUGAGACUGAAAAAUCAGAAGUAUCAAGCCAGAGAUCAGUCAGUCGAAAGACGACGAUCGGCGACGUUCGAAAGAGCGAUCGCAGAUUAGAGUUAUCAAA'
p168
aF1.0
aa(lp169
S'multilooping fun'
p170
aS'GGGUUAUAAAAAAUGUGAAAGGGGUAAGAAAACACU'
p171
aF0.8611111111111112
aa(lp172
S'Multiloop...'
p173
aS'GCUGAGAUCAGUCGAAAGACAGUCGAAAGACAUUCGAAAGAGAGUCGAAAGACAGUCGAAAGACAGUCGAAAGACAGAUCAGAUACAAAAAAGUAUUGUCGAAAGACCAGC'
p174
aF1.0
aa(lp175
S'hard Y'
p176
aS'AAAAGGGUGGGACGCGUGUCGAAAGACGGUUUGCUGAGGUGUACCUAAUGGUACACCUCCAUCAAAAA'
p177
aF0.9705882352941176
aa(lp178
S'Mat - Elements & Sections'
p179
aS'AAAAAGAUGACGAUCUUAGGGCUUAUGAGCAGGUCAGCGACCGAAAGGUAGACGACCGACCAUGUAAAGACUUGUGUAAGACAUCAAAAAAAAAAAAAAAAAAAA'
p180
aF0.9619047619047619
aa(lp181
S'Chicken feet'
p182
aS'AAAAAGCACGAACAAAGUAGCAAAGCAAACCCCUGAAGGAGUAAACUAGUAAAGGGAGCAUCUAAAA'
p183
aF0.9402985074626866
aa(lp184
S'Bug 18'
p185
aS'GUGCCCGGUCAAAAGUGAUAACGGCACGAAUGUACAUUAUGUGAGCGAAAUAA'
p186
aF0.9245283018867925
aa(lp187
S'Fractal star x5'
p188
aS'AAAAUACAGGUGUGAGGUGAAAACACUAACUUUGAAAGGAGAACUUGAAAACGAGAACUAAAAAAUUAGAAACACCUGUUAAAACCAGGGGCAACUCGAAAACGAGAAAAGGAAAACCUUGGCGGGAAAACCCGAACUGAAAAUUCAGGGGCUUCUGGAAAAAUCACAUACAUGUGGGAAACUAUUGCUUCAAAAGAAGAACUGUAAAAGCAGAGCUGGAAAUUCAGAGGUAUGUGGAAAAACAAGAUGCAGGCGGAAAACCGCAAGUGGAAAACCACAACCGUGAAAAUGGAGUUGCAAAAGCGGAAGCAUCUUGAAAAUCGAGAUACUACUGAAAAAUCAGAGUUGGAAAGCCAAAACAGUAAAAGCUGAUCAGCAAAAGCUGUUGUAUCUUGUAAAA'
p189
aF1.0
aa(lp190
S'Crop circle 2'
p191
aS'GGGAGGAAAAGGGGAAAAGCGAAAAAAAUGAUAAAAAAAAAAAAAAAAAAAAAAAAAAAAUUCUAAAAAAAAAAAAAAGCGAAAAAAAAUCAAAAAAGUCAAAACAAAAA'
p192
aF0.9636363636363636
aa(lp193
S'Branching Loop'
p194
aS'AGAACGUAAAAAAUAGUGCUAAUGUUCAAGCUCCAAAAAA'
p195
aF0.95
aa(lp196
S'Bug 38'
p197
aS'AACAUUGACUUGGAAAAAUGCUCGAAAUGGACAGUG'
p198
aF0.9444444444444444
aa(lp199
S'Simple Single Bond'
p200
aS'AAAACAGAAAAAAAAUAGCCAAAAAGGCUUAAAAAAAGCGAAAAAAAAAAAAAAAAAAAAA'
p201
aF1.0
aa(lp202
S'Taraxacum officinale'
p203
aS'CUACGAAAGAUAGACUACGAAAGAUAGACUACGAAAGAUAGACUACGAAAGAUAGACUACGAAAGAUAGACUACGAAAGAUAGACAUGUUAUUAUCAUGUUAUAGCAAAGCUACUGGCAUGUGAUACAACAUGUUAUUAAAGGCGUAGAAACUACGCCAUGAUAACAUGGAUCAGCGAUCAAAGAUCGCGAUCGUAUCUGAAUGAUAACAUGAGAGCGAAAGACUCACUACGAAAGAUAGACUACGAAAGAUAGACUACGAAAGAUAGACUACGAAAGAUAG'
p204
aF1.0
aa(lp205
S'Headless Bug on Windshield'
p206
aS'GGUGGAAAAAAGGACGAAAGGUGUGAAAAAAAAAAAAAAAAAAAAAAAAACGCUGCAAACGUAUCGUAUUGGCAGCCGACCUAAGGGAAAAAGGUAAACGCAAAAAAACCGGGAAAAAAAGCAGACGCAAAAAAUGUUCUGUUAAGCCUGCUGUAAAAAAAAAAAAAAAAUACUGACUCGUUGUACUGGCUAUCACGGUA'
p207
aF0.99
aa(lp208
S'Pokeball'
p209
aS'AAAGCACUGUAAAAGAGUCAUAGUCAAAUUUUAAAUGAAGGUUGGUUCGAGACGUUCAUCCGUAAUAUUAUAGACGCGGCCACAGUGUAAAAAAAAGUCAGGCAAAAGGUACGAAGGCAAAGAUAGAGGUAUGAAGCGAAGCAAAGCCCGAGCGUACGCAUGCUCGCCACGUCCGCUUGAUAAA'
p210
aF0.9782608695652174
aa(lp211
S'Variation of a crop circle'
p212
aS'AAAGCGAAAACGAAAAAGGAAGUCUAAUGAGGAAAUAAAAUGAAUGGAAAAAAUGGAAAAAGCGGAAAAAAAGCAAAAAAAAAAAAAA'
p213
aF0.9204545454545454
aa(lp214
S'Loop next to a Multiloop'
p215
aS'AGGUGAUGGCGAAAAAACAGGGCUUGAAAAAGCCCGACGGUGCUAAUGCAUCGUGGAAAAAAAGCCGUCACAA'
p216
aF0.9726027397260274
aa(lp217
S'Snowflake 4'
p218
aS'GAGGAAGAAGGUGGUACGGAAACGCGCCAUGAAGACUUAAAGGAAUUACGAUCAAGGAUCAACCGCGAAGUGGGUGAUUGAAAGGGGUCUUAACGUACCCAAAGCGCCAGUGUACGAAGUACAACUAGAAACUAAGCUGGCUGAAAGGGUAUGAAGAUGCUAGAAAGGCGUGCAGAGAAACUUGAACGGGAAACCCGGCACGCUGAAUACGUAUCAGGGUGCCAGAAAUAUCGAAAUUUAAAUGAUCAUAGGAAGCUUAUUGGGGGGAAAGGGUACCAAUAUACUUAAAAAAAUCACGUAGUAUCUACAAGUGCAAAGCACGUGAUAUAAAGAAGUAUGGUUGGUGGUAAAGGCUAACGGAGUGAAACUC'
p219
aF0.8918918918918919
aa(lp220
S'Mat - Cuboid'
p221
aS'GAAGGGAAAGCAAGCAAAAGCAUGGAAAAAAAGCAAGGAAAAGCAAGUAAGGAAAAGAAACAUGCAAGGAAAAUCCAGCAAUCAUCGAAAAGCAAGAAACGAAGGAAUGAAAAAGAUGGUUGGUCGGUUCGAAAUGGUUGGUUGAUUGGUUGGUGGGAAAAGUUUGGUGGGUUAGUUUGUGGGACAAGGUUGGUUGAUUGGUUUGUUAUAAAAAAGUUUCGUUCCUUUCUUUCUCCGCUAUCAUUCCUUCCAUCCUUACCCAUCCUUCCUUUCUUCCCUCCCGCUCCGUCCUUCCCGCUCCAAACAAUGAAUCAAGCCGUAGAAAGCAUGGCCAAGCUAGUAAUCCAAACAAGCCCAAGCAAGCCUAGGGCAAGCUCAAU'
p222
aF0.881578947368421
aa(lp223
S'Misfolded Aptamer 6'
p224
aS'AAAAAAGUGAAAAAAGAACAUCGGAGGUCAAAAAAAAGACAAAAGUAAUAGUUCGAAAAAAUACGUAAAAAAAAA'
p225
aF1.0
aa(lp226
S'Snowflake 3'
p227
aS'GGUCCGAAAGGUGUCCUCAAAGGAGAAGAUAGGUACAAUUCGAAAGAACUUCCUGAAAGGAAGAAACUAGGGAAACCAUAGGUCGAAAGACAAGAACGGUUCAAGUCGAAAGACCUGACUGAAAGGGAGGAACUACGAAAACGUUAGAGCGAAAGCAAAGCGCGGAUCAAUUCAAAGGAGCUGACUGAAAUGUGGAAACCACGAAAGCGACAGCUUAAAGAAGAAGAUCCGAUCAAGGCGAAAACCCUGUCUUAAUGCUAUAAAGAGCCAAAAGGAUAGCUCGAAAGGGAAGAUUGGAAAAAGUGAAAGGACCACUCUAAAAGGUGAAAACUAGGAAAACCUUAGCGUAAAGGCGAAGAUCAUACCAAAUCGAAAGAUGACUCUGAAAGGAUC'
p228
aF0.8346055979643766
aa(lp229
S'Hard Y and a bit more'
p230
aS'AAAAAUAUUAAUGCGCACUAAUGUGCUGAUGAUGGAGGAAGAGCGAAAGUUCAGAAUACGAAAAAGUAUUAACCGCCAUCCGAUCUAAAAAAAAAAAAAAAAAAAA'
p231
aF0.9716981132075472
aa(lp232
S'Mat - Lot 2-2 B'
p233
aS'GAAGCUAUGGACUUGGAAAAGGUAGAUCGAAAGGAAAAUAGUCCACUUGUAAAACCUGGCGCAAGGAAGCAUGGUGUUUCAAAAGGAUGAUCUUGGAACAGCGAAAGCCCUAGAAAAAUCAGCUGACUCAGGUUGGAACGGAAAUGGGAGGAUAUUGCAAAAACUAGAGCGAAAGCAAAAUCGUGAGUUUUAAAAAUCAGCACCUUCCAACCUGGCCAGUGGAAAAGGUUGAGCUUGGAAAAAGAAAACUCCUUGUAAAAUCUUCUCAUACGUCGAGAAACGAU'
p234
aF0.7535211267605634
aa(lp235
S'Shapes and Energy'
p236
aS'AAAAAGUUCUUGUCGGUAAAAAGGAUGUUGAGAAAUAGACGGAAUGCCGGUGACAGAUUGGCCUAAUGGCCCCUGAAGUGAAAAAAAAAAAAAAAAAAAAA'
p237
aF0.9801980198019802
aa(lp238
S"Spiral of 5's"
p239
aS'CAAAAGAUACAAAGAUAGAAAGAUAGUAAAGGUACAAGGAUAGAAAGAUAGAAGAUACAAAAGAUAUAAAGAUAGAAAGAUCGAAUAUACUAAGAUAGAAAGACAGAAGAUACUAAGAUAGAAGAUAAAAGAUACAAGAUACAAGGUACAGAUACAGAGGCCGAUCAAAAAGAUUGGUGUAGCCUCGAAAAGUAUCAAAAAGUACCAAAAAGUAUCAAAAAGUAUCAAAAAUUAUCGAAAACUAUCAAAAUGUAUCAAAAACUGUCAAAAACUAUCAAAAUGUAUGGAAAACGAUCAAAAACUAUCAAAAAGUAUCAAAAAGUAUCGAAAACUAUCAAAAACUAUCAAAAAGUAUCAAAAUCUAUCAAAAACUAUCAAAAAGUAUCAAAAAGAAAAA'
p240
aF0.9949622166246851
aa(lp241
S'Campfire'
p242
aS'AAAAGAUUACGUGCGAAGAUCGACUGUAAAAGACAGAUGCGUCAAGGAAUAAGAUCGUAGGUACUAGGAGACUAAAAGUAAGUCCCAGGACCGUCUACCAUGAAAGCGGGUAGAGUAGCCGAAAGGACAACUCAUCGAGUCGCCAUGCCGCAUCCCAGUCAGAGAGUUAGAAAUAGCCUCGACUUGUAGGGUAUUUAAUGGGAGAGGGAAUC'
p243
aF0.8962264150943396
aa(lp244
S'Anemone'
p245
aS'AAAGAGAGGUAAUCUUCUCGGAUCGAAAGAUCCGCUAUAUAAUUAUAGCGAUCCGAAAGGAUCCUGAUCGAAAGAUCGGCACACAAAGGUGUGGAUACGAAAGUAUCGCGAUCAAAGGAUCGCACUGCCGAAAGGCAGGUGAGCGAAAGUUUACGGUACAAAGGUACCGGAAUCGAAAGAUUCCGGGCGGAAACGCCCGAAUACGAAAGUAUUC'
p246
aF1.0
aa(lp247
S'Fractal 3'
p248
aS'AAAAAUAUCAGCGAGGAAAACCGUUAAUACACACAGACCGAAAAGACCAGAAAUGAGAUUGCAGGCAAAAGCGAGAAAUCAGCUAUACUUUAAAGCCGGUAAUCCGGUAGGAUAGAAAA'
p249
aF0.9495798319327731
aa(lp250
S'Kyurem 5'
p251
aS'AAAAUUCGUAUAUUCGAAAGAUUGAAAAAUAUGGAUGAAAAAGGAAAACUUUGUCAAUAAAAGGUACAGCUAGAAUGAAAACGAUAAAAAAAAAAAAAAAAAAA'
p252
aF0.9423076923076923
aa(lp253
S'Snowflake Necklace ( or v2.0 )'
p254
aS'GGUAUUAUGUCAUUAAGAUACAUUAAAAAAAAGUAAAAAACAUCAAAAAAAACCAAAAAGGAUGAAAAGGGACUAGCAAUCAAAAAGAUGUGGUCACUAAAAAAGAAGAAAAACUUGGAAAAAUUUUCAAAAAGAGGCAAAAAGCACACUGAGGUAAAAAGAUGUUGACUCUAAAAAACAUCAAAAAGAAUAAAAAAGAAUCAAAAAGAAUCAAAAAGGUGUCGGAAUCAAAAACGUUUCGACACCAAAAAGGAGGAAAAGCCACCAAAAAGGAUCAAAAAGAAUCAAAAAGAGGUCGGUGACAAAAAGUCAUUGAAAGGAAAAAUUGUCAAAAAGAAUGAAAAAGAAGCAAAAAGCAUCGAAAAGAGGUCGGAUGAUGGCAUAAUACU'
p255
aF0.8200514138817481
aa(lp256
S'Methaqualone C16H14N2O Structural Representation'
p257
aS'AAAAAAAGAUAAGAUUAUGCGGUCGAAAGACACUCACUCGAAAGAGAGUCGGUCGAAAGACAGUCUCUCGAAAGAGACUCGAAAAAAGAGUGACAGACAGAGAGCGGUAAAGAGGUCAGUAGAAAGGAAGCAAAGUAAAAUAAAAAAAAGCAGUGUGUUCGAAAGAGGACGAAGGAAGUCGAAAGACACAUCAAAGGAUCACAAAGGCAAAGUGAUUUAGUGGCCCAAAGUUCGAAAGAGAGGGACUCGAAAGAGACACAGUCGAAAGACAUAAGAUUGAAAAACACACAGUCAUCGAAAGAUGUCGAAAGACACUGGAAACAGGACACUCAGAUCAAACUACAUAUCAAAAAAA'
p258
aF0.9436619718309859
aa(lp259
S"Cat's Toy 2"
p260
aS'AAAACAUUUGGCUAAACCGAGUAAAAAAAAAAAAAAAAAACAAUUUAAGGGAAACCGAAGGAAAAGCGAAAAAAUGAGAAAAACCGUCAGAUGAAAA'
p261
aF0.979381443298969
aa(lp262
S'Zigzag Semicircle'
p263
aS'AAAGUCGAUAAAUGGAAAUUAGGGCAGGGGAAAA'
p264
aF0.9411764705882353
aa(lp265
S'Short String 4'
p266
aS'AAAAAAGGAUUUAACCAGGAACGGGAGGUAAUUCCCAAGAAUCACUCCCCGAAACGUAAGCGGUAACGGUAUGACUAAAAAAAAAAAAAAAAAAAAA'
p267
aF0.9381443298969072
aa(lp268
S'Gladius'
p269
aS'GGAAACAAGUAAUGAAAUGAGAAAAGGAAAUCAGCCAAUGAUCGAAAGAUCUCAUACUAGAGGCACUAAAUCUUGAGAUCAAGACGUAUUAGAGAGACAAGAUAAAGAUCAACGCAAGGCCAAAGGCCAGCGAUGAUCAAUAUCAGGUUUCCAUGAUACGAGUGGAUCACCUGACUACUAGCCAACUGUGUGUAACGAAGUCCCUGGUAGAAGGCAGAAGUCGGGAAAGUAAGCAGAUAUGCAGCAUACAGUUUCGAUGAUGAGUCAGGAAUCGAAAGAUUCCAAGACCAGUCGAGGAGAACGUAUGACGUAUAUCAUAAUACUAUAACGAUACGAGCCGCAAACCAGAGAGGGAAAUCUUAAAGACAGACAAACCGUGCAAAAAACUGAUCAACGAAAG'
p270
aF0.8975
aa(lp271
S'Thunderbolt'
p272
aS'GCAACGCACAAAAAAAAUUGACACUGGCUGAGGAAAACAGCUAACUCAAAAAAAAAGAAAAAAGAUCCUAAAUGGGGAAAAAAUCGAGUCGGGGGCAAAAAUGGCAAAAAAGAAGAAGAGAGGAAAAAGGAAAUGGGAUAAAAAAUAAAAAAACGGAUGUAUCUUCGAUGAAAAUAAUUACGACACAGAAAAAUAGACGGACACUAGAGGAAAAAAAGGGGCGUAUGGGAAAAGUCCAAUAAGCCAUAGAAUAUGGCGCCGACCAAAAAAAAAAAACAACGCAAAAAAAACACCCUAAAGGCUAUUAAAAGCAAAAAAAGGAAAAGAGUAGUAAAUAGAAGGACUUAGUGAAAAAAAUAAGAUGCUGGAAAACAAAAAAAGAGUGCGAAGUA'
p273
aF0.8954081632653061
aa(lp274
S'Mutated chicken feet'
p275
aS'AAAAAAAGCAAGAGCAAAACUGUUAUUAUAACUGCGCGGGUAGGCACGCAGGAAACCAAAAUUAAGCAGGAGCUAUCCAAGAAGAUAAAACCUAAAAAAA'
p276
aF0.8
aa(lp277
S'Chicken Tracks'
p278
aS'AAAAAAAUCGUUUGCGGACGAAAGUCCAGGAUCAAAGGAUCAAGCUCAAAGGAGCGCAGGUGUGAGGGAAAAACCAUCACAGUAGAAUGUAGAUCGUAAGGCGGUACAAAUUAAAA'
p279
aF0.9310344827586207
aa(lp280
S'Looking Back Again'
p281
aS'CUCAUGGCGAUCAAAAAUCUUUCAAGGAAGGAAGAUCAAGUCCUCAAGUGGAAUACGAGAGAUACAAAGAUCUAAUGAUCAAAAGUGUCGAGACAAUACUAGGCCGGCAAAAAGAUACGAAAGUAUCAAAAAGGCCGAUAAUAUACAAAGUAUAAAUAUAAAAUAUUGAGAUCAAUAACGCAAGUUCUAGAUUCUGAAAAUAUAGGCUGAUCGAUCUAGGGAAACGAUGAAGAUCUCAAAUUAUCGGCCGGAUACACAGGAAAAAGCCAUAGCGAAAAAAAGAUCAAACAGAUCGAAGAAAUGGGCCUGGUAGAAAAAAGGCCGAGUUAAUAUUUGGAAGUGCAGAAUGAUGGACAAAGUCCGGACUCUCAAAACUGCGUAUCAAGGAG'
p282
aF0.884318766066838
aa(lp283
S'Multilooping 6'
p284
aS'GAUAUGCGAUCUUCUGAAAGGAAGGAUUGUAAUCAAUCACGUUGGGGACUAAUGUCCUUAAGCCAAGGUUUGUGAGUAUGGA'
p285
aF0.926829268292683
aa(lp286
S'Cesspool'
p287
aS'CACGAAAGAAAUAAUUCUCGAUAUCCAAAGGGAAAAAUUUGAGAACUGGAAAACUGGACGCCAAAGGUUGAAAAAGAAAACAAUAAUAAGUAGAAUGAAAGAACUCUUCGGGGUCUAUGACAAUAAGUUGCGAGGGGGGAAACAUCAGUACAAAAGAUCAAAAAGAAAACACUGUCAAAGGAAAAGGAAAUAAUUCGUGAGUUUCACAGAGUACAAGUGGUGAAGGAGAAAACGACAAUUCGAAAGUUUAAAAAGAAAACGCCAACGAAGCUUGAGACAAAUAAGGAGUCUGAAGGCAUCUCAACAUGUAUCCAAUUUAAACGUAUCGGGUCAAAAGUACAAAAAGAAAACGCCAUGC'
p288
aF0.6983240223463687
aa(lp289
S'Hoglafractal'
p290
aS'AACAGGAACCGGUAAAAGAUGUAAAAAAACAUCACCGGGGGCAAAGGCCUAAAUGGCCGCCCGACAAGUCGAAAGACGAUUCCCAAAGAACAAAGAUCAAAAAGGAUCGACCGGCAAAACAAAAAGUUCCGCAAUAAAAGGAAGACUGGGAAAUACAACUCAAAAAGGAGGAACCAUCAAAAAGAGGAUGGAGACAUGCGGGAAAAAAGGAUCAAAAAAGACCGGCAAAAAGCCUCGAAAGAGGCGAGCAAAAAACUCAAAAAAGAGGGGAAAACCGAAGCAGAUCAAAGAUCUGUGAAAAAAGCUCGCAAAAAAUCCUGAAAAACUAGAAAGUAGUAACCAAGGAAAUUGAGAGGAAAAGGAAAGCCGUAAAAGCCACGUGAAGCACGUGCCCUCCAUC'
p291
aF0.9225
aa(lp292
S'Bullseye'
p293
aS'AAACGCGUUCAAGCAGUAAGAGCGAAGCUCAAGAUAUAUUACUCGGAAAAAAAAAAUGAUCGAAGAUGAAUUCGAAACGGAGAGAUCAAAGGUCGUUAAAAAAAGCUCUAUCGAAAAUAACCAUGAAAUACGUACCUCAAAUAGAGAGAAAAAAAACUUCGCAAAACGCCAAGAGCAAGGCUCAAGCUGAAGGAUCGAGGAA'
p294
aF0.8415841584158416
aa(lp295
S'Shooting Star'
p296
aS'ACGCGCGGUCGCGAUGGAAACAGGGGAAGUCCGCUAGAUAAUGAUGGACUCCGCACAACGAACCAUCGCAAAUGCAUGAGAUGCAGUCAGGCCUAGUGAGCGCAGCGAAAGACGCGACCAUAAGGCACGACAGACAUCCUGAGUAAUCAGCAUUGUGUCAGGGAAACUCUGACGGAUAAAGUCCGAAUAAAAAGUAGCACAGACCAGAUCCGAAGAAUUAAAAUCAAAGAUUUUGUACAUAAAAUGUGUCUAGUGUAGUCGAAGACUACGACUCAUAAAGUAGGGAUUGAGGAAGGAAACCGUCAAGUGCUUAUCUGGAGCAGGGAAAGACCCGAAUGCGGGUGAUCGGUAGCUUUAGCGUGUA'
p297
aF0.8159340659340659
aa(lp298
S'Teslagon'
p299
aS'AAAAAAGCUAAAAAACGUGCAAAAAAAGGAACAAAAAAAAAAAAAAACGUAAAAAAUAAUAAAAAAAAAAAAAAGGCACCCAAAAAGGAUUUAAAAAAAGGGAAAAAAAAAAAAAAACGAAAAAAGAGACAAAAAAAGAAGUAAAAAAAAAAAAAAACGAAAAAAAUAGAAAAAAAAAAAAAAAACUAUCGAAAAAAGCAGCAAAAAAUACAAAAAAAAAAAAAAAGAUAAAAAAGCGCCAAAAAAAGCGGGAAAAAAAAAAAAAAAGCAAAAAAAUAGCAAAAAAAAAAAAAAAGUAACGAAAAAAGUAACGAAAAAAGGAAAAAAAAAAAAGGAAAAAAAAAAAAAAACGACCGAAAAAAGUUUAGAAAAAUGGAGAAAA'
p300
aF0.9293193717277487
aa.