(lp0
(lp1
S'Simple Hairpin'
p2
aS'AUAUCAAAAAAGAUAU'
p3
aF1.0
aa(lp4
S'Arabidopsis Thaliana 6 RNA - Difficulty Level 0'
p5
aS'AUAUAUCAAAAGAGAAAAAAAAAAACUCCUAUAUACGAGAUAUAUAUAUAUAUAUAGAAAAAUACGAAAAAGUAUUAUUAUAUAAUAUAUAUAUAUCAAGUAUAUAGAAGAUAUAU'
p6
aF1.0
aa(lp7
S'Prion Pseudoknot - Difficulty Level 0'
p8
aS'GAGAUCAGAUCAAAAGAUCGAUACUCAAAAAAAAAA'
p9
aF1.0
aa(lp10
S'Human Integrated Adenovirus - Difficulty Level 0'
p11
aS'AUACGAGUAUAUUCUGUUUAAGAAAAAAAAAAGCUCCAGUGACUUGCGAGUGGACAGUAAAGCACAUUUUUAUCGAAAAAAAGAUAGAAAUGGAAAAGCCAUGCAAUACGAAGGAAAACACUGAAAGUAUACUAAAAAUGUAUACGAGCGAAAAAAAAAAAUUAGAUUGAAUAAAAGUGCUUAAAGUAUAAA'
p12
aF0.9791666666666666
aa(lp13
S'The Gammaretrovirus Signal - Difficulty Level 0'
p14
aS'AAGAGAAGUAUACGAAAGUAUACGACGCAAAAAUGAUCAAGGCAGAUUGUAUCGAAAGAUAUCAAAGAUCGUCGAUCUAGUUUAUACAAAAGUAUAGACAA'
p15
aF1.0
aa(lp16
S'Saccharomyces Cerevisiae - Difficulty Level 0'
p17
aS'GUAUAUCCUACGAAAAAAAGUAGAGGGAAAAAAAAAAAAAACCAAAAUAUACAAAAAAAGUAUAGAUAUACAAAGUUAUAUGAAGAUCGAAAAAAAGAUCGCCGAAAAAAAAAAAAGGCAAAAGAUGCAAAAAAAGCAUCCAUAUAGAAAUGUAUACGAAGAUCAAAAAAAAGAUCGAAUACUAAAAAUGUAUUCAAAACGUACAAAAAAAGUAUGCGUAUACUAAGGUAUAUGAAGAUGAAAAAAAACAUCGCAUACAAAAAAAGUAUGCAAAAGAUACUAAAAAUGUAUCCAUAUACAAAAGUAUUGGAAGACCUAAAAAAUGGUUGUAUACAAAAAAAGUAUACAAAAGACAGAAAAAAGUUGUCCCAAUACGAAA'
p18
aF1.0
aa(lp19
S'Fractal 2'
p20
aS'AAAAACUUUGACCAAGGAAAGAUCGGUAGUGCUAAAAAAAAUGCACGCGAACUAAAAAAAAUGUUCAAGGUUAAAAAAAAAAAACCGUUCGAUUUUUCAAAGCUUUAUAUCAAGUGGCAAAAAAAAUCCACAGGGCAAAAAAAAAAGUGUCAAAACCUAAAAAAAAUGGUUAAGAUAUAGAGCAAAUAUACAGGGGAUGGAGAAAAAAAAAGCUUCUAGAUCUAAAAAAAACGGUCAACCAUGAAAAAAAAAAUGGAGCUUUUGUAUAAAAGGUCAGAGAAAAA'
p21
aF1.0
aa(lp22
S'G-C Placement'
p23
aS'GAUCAAAGAUCG'
p24
aF1.0
aa(lp25
S'The Sun'
p26
aS'GACAACAUAUCGAAGAUUAAUGAGUCAAAGUUAUUGUAACGAAGUUAAAUAGAGCGAAGAAAGUAAAUCGAAGAUUAAUAUUUCAAUGACAGAACUUCAAAGAGAAAUUUCUUUAAGCGAGUGAGGCGAAGCGCAAUAACUCAAAGGCAAUAUAUCAAAGAUAAAUAUGUCAAAGACAGGAUAACUAGGAUUAAUUCGUCAAAGAAAGUAUCUGGAACAGGAUUCCUGCAAAGACAGAAUACCGAAGGUAAAUACGUC'
p27
aF0.8217054263565892
aa(lp28
S'Frog Foot'
p29
aS'AAAAAAAAAAGGUCUAAUGACCGCUGUAAUCAGCGAGCAAAGCUC'
p30
aF1.0
aa(lp31
S'InfoRNA test 16'
p32
aS'AUAUACACAGAUAUCGAAAGAUAUACUAGAGUAUAU'
p33
aF1.0
aa(lp34
S'Mat - Martian 2'
p35
aS'GAUCGAAAGAUCAAAGUAUAUCUAAUAUAUCAAAAAAGGAUAUAUGAUAUACGAAGGAUAAACGAAAAAGUAUUUCAUUAUAUCGAAAAAAGAUAUAGGAGAUACAAUGUUAUAGGAUAUAUAAAAAAAAUAUAUUGCUAUAACUAAAAAGUUUAUCCGAAGAUAUAGCGCCUAUAAAAAACAUAGGCGAACUAUAUCAAAAUACAAAGGUAU'
p36
aF1.0
aa(lp37
S'square'
p38
aS'AUAUAUCCUAUACCUAUAUCCUAUACAAAGUAUAGAAAAGAUAUAGAAAAGUAUAGAAAAGAUAUAU'
p39
aF1.0
aa(lp40
S'Six legd turtle 2'
p41
aS'AAAAAGCAAUGUAAAAGUAAACUAAAAAGAAAGCAAAUCUAAAGGUAAUGUGAAUUAAAAGGCAGCCAAAGCCAAAGUGAAAAAAAAAAAAAAAAAAA'
p42
aF0.9591836734693877
aa(lp43
S'Small and Easy 6'
p44
aS'AUUAUAAAAGAUAAGGAAAAAAAAGUUAAU'
p45
aF0.8666666666666667
aa(lp46
S'Fractile'
p47
aS'AAAAAAAAAAAAGAGAAAUUAAAGUAAAGCAAAAGUAAUCAAAAUAAAAAUAAAGAAACGAAACUGAAAACAAGAAAAACAAAAAAAAAAAAAAAAAAAAAAAAA'
p48
aF0.9619047619047619
aa(lp49
S'Six legd Turtle'
p50
aS'AAAAAGUAAAAUAGAAAUGAAAAACUAAUGGAAAAUGAAAAUUAAAGCGUAAUCAAAAAUGAAAGCCGAAAUUGAAAAAAAAAACAAAAAAAAAAAAAAAAAAAA'
p51
aF0.9619047619047619
aa(lp52
S'snoRNA SNORD64'
p53
aS'AUAUACAAAAAGAGAAAAGAGAAAGAUACAAAAAAAAAAAAAGUAUCGAAACUCAACUCAAGUAUAU'
p54
aF1.0
aa(lp55
S'Chalk Outline'
p56
aS'AAAAAGAGUAGAAACUAACGUACUCGUUAAUGCUAAUGGAUAAAUGAGUCCAAAGACCUUGAUAAUCAAAGGAUGAUGUACGAAAAAAAAAAAAAAAAAAAAAA'
p57
aF0.9807692307692307
aa(lp58
S'InfoRNA bulge test 9'
p59
aS'AGAUAUUAGAGAGAGAAUCACAAAGGUGAUUCCCCAAUAUUU'
p60
aF1.0
aa(lp61
S'Tilted Russian Cross'
p62
aS'AAAAAGCUGGGCCUAAUGGCCGUCGAGAUCAAAGGAUCCAGACUAAUGUCUGAGGAAUAAUUUCCCGACCUUCGAAAGAGGCAGUGAAAAAAAAAAAAAAAAAAA'
p63
aF1.0
aa(lp64
S'This is ACTUALLY Small And Easy 6'
p65
aS'AAAAGAGGGGGGGGGGGGGGGGGGGGGGGGGGGGGGGGGGGGGGGGGGGGGGGGGGGGGGGGGGGGGGGGGGGGGGGGGGGGGGGGGGGGGGGGGGGGGGGGGGGGGGGGGGGGGGGGGGGGGGGGGGGGGGGGGGGGGGGGGGGGGGGGGGGGGGGGGGGGGGGGGGGGGGGGGGGGGGGGGGGGGGGGGGGGGGGGGGGGGGGGGGGGGGGGGGGGGGGGGGGGGGGGGGGGGGGGGGGGGGGGGGGGGGGGGGGGGGGGGGGGGGGGGGGGGGGGGGGGGGGGGGGGGGGGGGGGGGGGGGGGGGGGGGGGGGGGGGGGGGGGGGGGGGGGGGGGGGGGGGGGGGGGGGGGGGGGGGGGGGGGGGGGGGGGGGGGGGGGGGGGGGGGGGGGGGGAGG'
p66
aF1.0
aa(lp67
S'Shortie 4'
p68
aS'GCGAAAGCACCGAAAGG'
p69
aF1.0
aa(lp70
S'Shape Test'
p71
aS'AAAAAGAGAUCAAGAUACAAAAAAAAGUGUCAAGACAGACAGAUACUAAAUGUGUCAGAUGGAAAUAUCAGUCGUCGAGAUUACAAAAAAAAAAAAAAAAAAAA'
p72
aF1.0
aa(lp73
S'The Minitsry'
p74
aS'UCCAAAAAGAGAAAAACAAAAAAGGAGAAAAAGGCAAAAAAAGGCCACUCAUUGGCUCGGGA'
p75
aF1.0
aa(lp76
S'stickshift'
p77
aS'AAGUAUACCCAAAAAGGAGUAUACAA'
p78
aF1.0
aa(lp79
S'U'
p80
aS'AAAAAGAUACAGAGAGCAGAGUAUAUAUCAAAAGAUAUAUACCGCCCGUAUCAAAAA'
p81
aF1.0
aa(lp82
S'Still Life (Sunflower In A Vase)'
p83
aS'AAAGAUCAAGAUAGAAAAACUAUCAAGGUAUUAAAUAUCAAUGCGCAAAACGCGUCAAGCUACUAUGUAGCAAGGUGCAAAAAGUAUCAAGAUACAAAAAGUAUCAGAUAUAUGUAUGUAUAGGUAUAUGAUACAAAAAAGUAUCAGCGACGAAAAAAAAAAAAGGUCCCCCCCCCCCCCCCCCCCCCCCCCCCCCCCCCCCCCCAAAAGAUCAAAAAAAAAAAAAGUCGCGAAUCAAAAGAUUCAAUAUAUUUAUAUAUAUAUAUAUCAAGUAUGGAAAACAUGCAAGGUAGAAAAGCUAUCAUGGUACAAAAAGUACCUAGAUGCAAAAAGCAUCAAGAUACAAAAGCAUCAAGAGGCAAAAAGCUUCAGAUCAAA'
p84
aF0.9682539682539683
aa(lp85
S'Quasispecies 2-2 Loop Challenge'
p86
aS'AAAAAACGGGUGUGACAUCUAAUGAUGGAGCGCAGAUGUAUAAGGAUCAUCAAAUGGAGAAGAUAAAAAGUCGAUAACUUUUUGUAAAAAAAAAAAAAAAAAAAA'
p87
aF0.9809523809523809
aa(lp88
S'Corner bulge training'
p89
aS'AGUAUACCUAUCAAAGAUAGAAAAGUAUACA'
p90
aF1.0
aa(lp91
S'Spiral'
p92
aS'AAAAAGAUCAGUAUACAGACAGAUACAGAUCAGAUCAGCAGCAGCAGCAGCAGCAAAAAGCGCGCGCGCGCGAUCGAUCGUAUCGUCGUAUACGAUCAAAAA'
p93
aF1.0
aa(lp94
S'InfoRNA bulge test'
p95
aS'AAAAAAAAAAAAAAAAAAAAAAAAAAAAAGCCAAAAAAAGAGGGAAAGAACAAAGAGCGGGCGCGUGACAAAAAGUACAAGUAGCAAGCAUCGAAGUAUCAAAAACCAUCGAAAAAUGAGUG'
p96
aF1.0
aa(lp97
S'Worm 1'
p98
aS'AAAAAAAUUUUUGUUUUAAGCUACAAAUAGAGACUUACGAAGGCG'
p99
aF0.9555555555555556
aa(lp100
S'just down to 1 bulge'
p101
aS'AAAAAGAGCAGAUACAAAAGUAUCAGACAAAAGUCAGCAUCAAAAGAUCAGACAAAAGUCAGACAAAAGUCAGAUCAAAAAAAAAAAAAAAAAAAA'
p102
aF1.0
aa(lp103
S'Iron Cross'
p104
aS'AGUCAGAAUAAAGCACUAAACUUGAGCCAAAAGGCAGCCAAAGGAACUGAAAACAGAAUUUCCAGCGUUUAUAGUCACGGAAAACUGCGGGGAAGGCGGACAAUUUUACUGAAACAGGGACAA'
p105
aF0.983739837398374
aa(lp106
S'loops and stems'
p107
aS'AAAAAGUAUAUCUAAGAACAAAGAUCAAAGACAAAAAAAAAAGAUACAAAAAAAAAAAAGUAUCAAAUGUCAAAAGGGGAAAAAAAAAACUCCGAAGAUCAAAAGCAAAAAAAAGUUAAAGUUCAAGCAAAAAAGCAAUGAUAUACAAAAA'
p108
aF1.0
aa(lp109
S'Water Strider'
p110
aS'AAAAGGAGUAAGGUUGGAGUUAAAGGGUGAGGAAAUUUUUAGGGGGUUUAUCAAAGUAUGUGGAAACAGAACCACAGUGAUCAAAAAAAAAAAAAAAAAAAAA'
p111
aF0.9320388349514563
aa(lp112
S'The Turtle(s) Move(s)'
p113
aS'AAAGUGAAAGCAAAAGUGUACAUUAAAAAAAAAAAUGUACACGAACGAUCAAAAAGAUCAAAAAGACAAAAGUCAAGGAUCCGAAAAAAGGAUCAAAACCGAAAGCAAAAGCAAAAAGCAAAAAUGCAAAAGUAUACAAAAAAAGUAUACAAAAGGCAAAAGCCAAAAGUUAUAAAAAAGACGAAAAAAGUCAAGACCAAAAAAAGUCAAGGAUACAAAAAGGUAUCAAAGAUGAAAAACAUCAAUUAUAAAAAAAAAAACCUAAAGGAAAAAGGAAAACCAAAAAAAUUACAAAAAAAAAAGUGAUAAAAAACGG'
p114
aF1.0
aa(lp115
S'Adenine'
p116
aS'AUAUCAGUAUACGGUAUACAGUAUUCAGUUUACAGUAUACAAAAGUAUACAAAAAAGUAUACAGUAUACAGAUACAAAGUAUAUCAAAGAUAUACGUAUCAGUAAACAGAUAAAUAUAUCAAAGAUAUAUAAAUUAUCAGGAUACAAAAGUAUACAAAAGUAUACAAAAGAUAU'
p117
aF1.0
aa(lp118
S'Tripod5'
p119
aS'AGGCGGGUCGGAAAAUGGCGGCUGAAUAGGCCCCGCAA'
p120
aF1.0
aa(lp121
S'Shortie 6'
p122
aS'GCGAAAGCAGCAAAGGCAGCAAAAGCAGCGAAAGC'
p123
aF1.0
aa(lp124
S'Runner'
p125
aS'AAAAGGGACGAAUCAAAACGAUCAAAGGGCGUACUAAAUAAAAUACUUAAAAGAGAAAUUACGGGUCAAGCAACAACCGGCUAAAAGUCAAAGACAAAAGUCACUCAGUUUAAAAA'
p126
aF0.8620689655172413
aa(lp127
S'Recoil'
p128
aS'AAAAAGAUACAAGCAAGCAAGACAAGACAAGCAAGCAAAGCAGCAGUCAGUCAGCAGCAGUAUCAAAAAAAAAAAAAAAAAAAAA'
p129
aF1.0
aa(lp130
S'[CloudBeta] An Arm and a Leg 1.0'
p131
aS'AAAAAGACAGAGACAAAAGUACUCGUCAGCAAAAGCGACAGUCAAAAAAAAAAAAAAAAAAAA'
p132
aF1.0
aa(lp133
S'[CloudBeta] 5 Adjacent Stack Multi-Branch Loop'
p134
aS'CACACGAGGGAAACCUCGGUUCUAAUGGACCCAUACGAAAGUAUGCCACAAAGGUGGGUGUGA'
p135
aF1.0
aa(lp136
S'Triple Y'
p137
aS'AAAAGCGGUGGUGGGAUAUAGGGCCUGGCAAAGGCUGCGCAACGCUUUGUAAUCGCCACUGAAAGGCGGACGGACCGAUAAAAAAAAAAAAAAAAAA'
p138
aF0.8762886597938144
aa(lp139
S'Misfolded Aptamer'
p140
aS'CGUGGAAACUAGAAAUAUUAGUAUGAAAAUUAAAAAAAACGUAAAAGACG'
p141
aF0.92
aa(lp142
S'Flower power'
p143
aS'AAAAUGACCGCCCUAUGGGCAGCAGCAUCAAAGAUGAAGAGCUAUGUUCAAGACCGAAGGUCCUGCACUGGUAUCCAGGGUCUAAAAAAAAAAAAAAAAAAA'
p144
aF1.0
aa(lp145
S'Kudzu'
p146
aS'AAAAAUACUUAACUGAGGACCACGUGCAAGGCGACCGCCUUGGGAGAAUCACCAGAAGACAAGGUCAAACUAUCAACUGUGAAAAAAAAAAAAAAAAAAAA'
p147
aF0.9801980198019802
aa(lp148
S'"1,2,3and4bulges"'
p149
aS'AAAAACGCACGACGCGAAAGUCAAAAGCUGUCAAAAUGCUGGACUGAAAGAUAUGUCAAAAGAAACCUAUCGAAAGGUAUCGAUUAAAAAAAAAAAAAAAAAAAA'
p150
aF0.9428571428571428
aa(lp151
S'medallion'
p152
aS'AUAUACGUGAUUCAAAAGGAUCAAGUCGAAAGAUGACCAAAAUGGACUAGACAAAAGUUUAGAAUUAAACGGUUACUUAUAAAAACAAGUUCUCGAAACAGCUGUGAAAACAUCUAGAUAAAAAUCUAGUAUUAAAGGAGACUUUACAAAAGUAGAGAAGGAAAAUCCAUGCGAAAAAGUCGAUUCUAAUGGAUCGCCACAAAAGUGUCUAUCCAAAAGGAUAGAGUAUAAUGACAGGUAAAAACCGCUAUUCAAAAGGGUAGAAGCAAAGGCUGGUAUGAAAAGCUGUAUACCAAAAAGGGCCUCAAAAGAGACCAUAGAAAACUAUGGAGUGUAU'
p153
aF0.8694362017804155
aa(lp154
S'[RNA] Repetitious Sequences 8/10'
p155
aS'AGCAAAAAAGCAAAAAAGCAAAAAAGCAAAAAAGCAAAAAAGCAAAAAAGCAAAAAAGCAAAAAAGCAAAAAAGCAAAAA'
p156
aF1.0
aa(lp157
S'Documenting repetitious behavior'
p158
aS'AAAAAAAGAUAAAAAAAACCGAAAAAAAAAGAAAAAAAAACAAAAAAAAAAUGUAAAAAAAACGAAAAAAAAAGAAAAAAAAAAUCAAAAAAAAAGUAAAAAAAAAACGAAAAAAAAACAAAAAAAAAGGUAAAAAAAGUCGAAAAAAAGGAAAAAAAAAACGGAAAAAAAAAAAAAAAAAAGAAGAAAAAAAAAGAAAAAAAAACUCAAAAAAAAUGAAAAAAAAACUGAAAAAAAACGAAAAAAAAACCAAAAAAAAAGAAAAAAAAAUCUAAAAAAAACGCGAAAAAAAACCGAAAAAAAACCAAAAAAAAAGAAAAAAAAACUAAAAAAAAAGCUAAAAAAAAUUCAAAAAAAAACGUAAAAAAAGAUAAAAAAAAAGCAAAAAAAAUACAAAAAA'
p159
aF0.8975
aa(lp160
S'7 multiloop'
p161
aS'ACCACGUGUGAAAACGCGGGGACGAAAGUCCCCUGGCAAAAGCUAGUAAUCGAAAGAUUGUCUACGAAAGUAGGGAUAGGAAAUUAUUUGGU'
p162
aF0.9782608695652174
aa(lp163
S'Kyurem 7'
p164
aS'AAAAUGAAGGCGGAGCCUUGAAUUCAAAAAAUUCGGCUAAAUGCCUGUUCAGUAAAAUCUGAAAGACAGUUGGGACUCCUUCUAAAAAAAAAAAAAAAAAAA'
p165
aF0.9215686274509803
aa(lp166
S'JF1'
p167
aS'GCACGACAGAAGGAUAGAUGAUACAAAGGUCUACAGGCAACAAGGUUACAAGCUGUCUGAUGUAUUGAUAUCAAAAGAUAUCGAUACAUCUAGACGAAAGUCGGUAUAUAUCGAAAGAUAUAUACAAGAUAUAAAAAUAUCGGAUAGCGGUAACAGUUGCAGUAGACAAAGUAUGGACAAAAAGUUGCAUACAGUAUUUAUAUACAUAUAUAUAUAUCAAAAGAUAUAUAUAUAUGAUAUAUAGAUGAAAGACACAAAAAAGUGUCGUUAUAUAUCUAAUGAUAUAUAACAAGCUCUAAAAAGGGAAGUAUCUACUAUCUGAUCAGACAGACGAAAGUCGUCGAUCUGUAGAAUAUAAAAAUAUUACUACAUUCUCGUCUGUGCAAA'
p168
aF1.0
aa(lp169
S'multilooping fun'
p170
aS'UUAGCUAUUUAAUGUGAGAGGUUUGUUUAAAAGAGG'
p171
aF0.8333333333333334
aa(lp172
S'Multiloop...'
p173
aS'ACACAAACCAGCUGAAAGGCAGAUGAAAAUCAGAGAAAACUCAGACAAAAGUCACACAAAUGUGGAACGAAAGUUAGGUUAGAUACAAAAAAGUGUCGCCAAAUGGCGUGU'
p174
aF1.0
aa(lp175
S'hard Y'
p176
aS'AAAAAGGCUGGUACUUACACUAAUGUGUAAGCUCCGAUAAUUUACUAAUGUGAGUUAUCGGCCGAAAA'
p177
aF0.9705882352941176
aa(lp178
S'Mat - Elements & Sections'
p179
aS'AAAAAGGUCACAAGGUGGUCAGGUGUAAUUACAUCUGCGAUCUCAUGAUAGACGAUGUCGUGUAAAGACACACUUCAAGGGGAUCAAAAAAAAAAAAAAAAAAAA'
p180
aF0.9809523809523809
aa(lp181
S'Chicken feet'
p182
aS'AAAAUGCAGCUGCAAAAGAUUAAGGAAAUACGCUACGCAUGGAAAUCGGAAACGCAAUCCGUAAAAA'
p183
aF0.8805970149253731
aa(lp184
S'Bug 18'
p185
aS'ACAUCAAUGAUCUUUGUAGGAGUUAUCCUUCUUGGUGGAGUCGAGGAAAUUGA'
p186
aF0.9622641509433962
aa(lp187
S'Fractal star x5'
p188
aS'AAAAAGGGUGUAUAGUAUCGAAAGAUGAAGGUUAAAAAAUCGUGAUUGAAAAAUCUGGACCAAAAGGUUAAAUACGCCCGAAAGGUCUAUAUAACCUUAAAAAAGGGAUGUUGAAAAACAAAUUCUUGAUAGAAAUGAGUAAAGAUUCUAAUGUAGACAAAAAUUAACUGUUAGGCUAAAAAGCUAAGCUCAAAAGAGCAAGAGGAAAACUUCAAGUCUAAAAGGACAUACAGUUAGAAAAGGUAUAUGUAGGGUCAAAAGGCCAAUCUCGAAAGAGGAAGAUUGAAAGAUUGACGGGGAAACUUGAAACGUGUACAAAAAGUAUUUAUAAGAUGUAAUCAUCGGGAUCAAAAGAUCAUCCGUAAAGAUGGUAACCUUAAUAGGUGAAUAGAUACAAAAA'
p189
aF1.0
aa(lp190
S'Crop circle 2'
p191
aS'GCAAGGUAAAUGCUAAAAGUAAAAAAAAUUCUAAAAAAAAAAAAAAAAAAAAAAAAAAAAUGGUAAAAAAAAAAAAAAGCAAAAAAAAUGAUAAUAAAAUAAAAGCAAAA'
p192
aF0.9636363636363636
aa(lp193
S'Branching Loop'
p194
aS'UUGUUUGAAAAAAAACGAGUAAUUUUGUAGACAUAAAAAA'
p195
aF0.95
aa(lp196
S'Bug 38'
p197
aS'ACUCGGAUCAAGCAAAAAUGGCGGAAGCCAAAGAGA'
p198
aF0.9444444444444444
aa(lp199
S'Simple Single Bond'
p200
aS'AAAAAAGGAAAAAAAUGACCAAAAAGGUUUAAAAAAAACAAAAAAAAAAAAAAAAAAAAAA'
p201
aF1.0
aa(lp202
S'Taraxacum officinale'
p203
aS'AUACAAAAGAUAUUGCCGUAAUCUGUCUGGGGAAAACACUCGUAGCAAAAGACUGAGAGCAAAACACACACAGGAAAGGACCGGGGUAUAUACGUGUUAUAGAAUCAAAGAUUACUAUAACAGAUAAAAGAUAUAUAUGAAGCUCUAGAAGUUAGAGCGCAUAUAUAUCGAUCAGUUUACUAUGUAGACGAUCUUAUCAAAAUGUAUAUACCAGCGCUAAUGACCCUGGGUGAAAAACUUUGAGAAAAAGACUCAGAGCGAAAGACUUAGUGAAAAACACAC'
p204
aF0.8936170212765957
aa(lp205
S'Headless Bug on Windshield'
p206
aS'GGCAAAAAAAAUGUUCAAGGCAAAAUAAAAAAAAAAAAAAAAAAAAAAAUUUUAGCAAAGAGAUGAAAUUGGUCGUCAAGACAAGAAAAAAAAGAAAAAUCAAAAAAAUCGUCAAAAAAGGCAGAAGCCAAAAAACGCAACCGAUAAGAAGAGCGAAAAAAAAAAAAAAAUGCAACUAAGUGCAGGCGCAAUGUAAGACG'
p207
aF0.99
aa(lp208
S'Pokeball'
p209
aS'AAAGUAUAUCAAAAGUUACGUAGUCAGUCGAGCAAGCAAGCGACUGGUCUACUGAAGAAGCAGCGGCAAGAAGGCUCCAGCGAUAUGCAAAAAAAACGGGAUCAAAUGCAAGCUAGAAGUUUGGGCGAGAGAACAAGUAAGGAAAUCAGCAGGUAGCAGCAAGCUGUCUGCGGCGAUCUUGAAA'
p210
aF0.967391304347826
aa(lp211
S'Variation of a crop circle'
p212
aS'AAAUCGAAACUAAAAAAACAAAUGAAGGGAAUUAUGAAAUCGAAAGAAAAAAACUAAAAAAAUAUAAAAAAAACCUAAAAAAAAAAAA'
p213
aF0.9545454545454546
aa(lp214
S'Loop next to a Multiloop'
p215
aS'AACUAUAUCUUAAAAAACGGAUAUCGAAAGAUAUCGGUAGAUCGAAAGAUUUACAGGAAAAAUAGAUAUAGAA'
p216
aF1.0
aa(lp217
S'Snowflake 4'
p218
aS'CUACAAGAUCGCUAUUGCAAAAGUCUAUCAAGGUACGCAAAGGCGAUGCGAUGAAACAUCAAGAUCUAUGAUAGUAUCGCGAAAGCGUACCAAGAUGUCAAAAAUGCUACCCUACGAAGUGGAAGAUGAAACGUCGGUAGACAAACAAAUAUCAAGAUCUGCAAAAACUCCUCUUACAAAGUAAAAGAACAAGGUUCGAGGGCCAGAGGGAUAUCAACCUACUUGAAAGAGUAUCCUACAAGGUAGAAGCUCGAAGAGCGAUAUGCAAAGGAGUAGGAAGAUCUGGUAAUGCGAUACGAGCAAAGCUCAAGAUCAAAGAUCGUAUCGAGAAAUCGGAUCAAGAUAGGCGAAAGCAAUAGCCACAAAGUAG'
p219
aF0.9027027027027027
aa(lp220
S'Mat - Cuboid'
p221
aS'GAGCCAAAAGGAAACAAAAGUAAGCAAAAGAGUGAAGCAAAAGGAGGGAACCAAAAGAAGGAAGGUAGCAAAAGGAAGGAAGGAAGCAAAAGGGGGGAAGGGAGCAAUCAAAAGCAGUCGAGCGGGAGAUCAAAAGUGAGCGAGGGAGCGAGCGAGCAAAAGUAAGCAAGCGAGCAAGCGAGCAAAAGCGAGCGAGCGAGGGAGCGAGCAAAAAAGCAAGCAAUCAAGCAACCAAGCGCAAGCAGGUAAGCAGGCAGGCGCAAGGAAGUAAUCAAGCAAACGCAAGGAAGUAAGGAAGGACAAGCAACCAACCAACAGCAACCAACCAACCGCAUCCAACCAGCGCAACCAACCGCAACGAACGAAAGCGCAGCCGGAAU'
p222
aF0.9
aa(lp223
S'Misfolded Aptamer 6'
p224
aS'AAAAAAGUGUAAAAAGAAUAUCGAAAGGCGAAAAAAAGCCAAAAGUACAAAUUCAAAAAAUCACAAAAAAAAAAA'
p225
aF1.0
aa(lp226
S'Snowflake 3'
p227
aS'AUGCCAAAAGGAGAGCUUAAAAGAGAAGAUCACAUCAAGACGAAAGUCGAGAGCGAAAGCCUCAAAGAGUCAAAGGGACUCGACAAAAGUCAAGAUGGGAUGGCGUCAAAAGUCGAGAGCAAAGGCCUCAAAGUGCCAAAGGGACACGACAAAAGCCAAAAUCAGUUCAAGUCGAAAGGCGAGAGAAAAACACUCAAAGAGCCAAAAGGACUCGUCAAAAGGCAAGAACACUUCAAGCCAAAAGGCGAGAGCAAAAGCCUCAAAGAGCUAAAGGGACUCGAUAAAAGUCAAGAACAGAUAAACACAAAAGUCGGGAUUGAAAGACUCAAAGAGCCAAAAGGACUCGACAAAAGUAAAGAUCAGAUCAAGCCUAAUGUCCUCAUCUAAUGGCAU'
p228
aF0.8193384223918575
aa(lp229
S'Hard Y and a bit more'
p230
aS'AAAAAGCUACUCCCAGGCAAAGGUUUCGCGGCUAGUACAGGAUCUAAUGAUCAAGAUCCAAAAAGGGAUCGAGCUUGAGCGUAGCAAAAAAAAAAAAAAAAAAAAA'
p231
aF0.9716981132075472
aa(lp232
S'Mat - Lot 2-2 B'
p233
aS'UGAGUCGAAUUUGAAUAAAAGCUAAAAGGAAACUAAAAUUAUGAGCGAAAAAAAGUAAGAUAAACGAAGCAAGUGCGAGUAAAAGCUAGGCCGAGCAAAAGAAAAAUCGCAAGGAAAAUCAUGCACAAGCCGGAACAAGUAAAAGCUCGGGAUGGACCAAAAGAGAAUGGUAAUCUAAAAUCAAGUGCAAGAAAAAUCAAGCGCAAGCAAACAGGAUCGAGCAAAAGCGAGGUCAAGCAAAAAGAAAAUUGAAAGAAAAAUUAACCGCGAGGGAAACAAACAAA'
p234
aF0.778169014084507
aa(lp235
S'Shapes and Energy'
p236
aS'AAAAAAGAGGUCAGUCCAAAAGAAAGGUAAAGAAAUGUAUCAAGCGGACAAGGCAAAAAGACCAAAAGGUUCCAGAUCGCAAAAAAAAAAAAAAAAAAAAA'
p237
aF1.0
aa(lp238
S"Spiral of 5's"
p239
aS'GAAAAGAUACAAGGAUACUACGAGACAAAUGAUACAAAGACACAAAGCUACAAGAUACUAAAGAUACAAAGAUACAAAGAUACAAUUUACAAUGAUACAAAGAUACAAUAUAUAAUGAUACAAGAUACAAGAUACAAGAGACAAGAUACAAGCUCACUGAGAUAUCAAAAAGAUAUAGAGACUUGGAAAAAGAGUUAAAAGGUAUAAAAAAGUCUCAAAAAGUAUCAAAAGGUAUCAAAAAGUAUCUAAAAAUAUGAAAAAGUAUCAAAAAGUAUCUAAAAGUAGAGAAAAGUAUCAAAAAGUAUCAAAAAGUAUCAAAAUGUAUCAAAAGGUAGCAAAAAGUGUCAAAAGGUAUCCAAAAGUCUCAAAAUGUAUCAAAAAGUAUCAAAAAUAAAAA'
p240
aF0.9949622166246851
aa(lp241
S'Campfire'
p242
aS'AAAAGAGCAAGAUUCAAGAUCAACAUCUAAAAGAUCAUGGUCAAGGACACAUGAUCCGUGUUACUAGCAGAGACUAAUGGCUUCGCAGGUGACAGCACCAGCAAAAGCCGGCGGGAAGGCAAAGGUAAAACUCAGGUACAUGAAAGCCUAAACCUAGGACAGAUAGAUCUAAUGAUCGUCGUCGUAUGUACAAAGUAACGAUACAGAGGCUC'
p243
aF0.9433962264150944
aa(lp244
S'Anemone'
p245
aS'AAGAAGUGCGAAAGCACUUGGUGGGAAACCACCCUGGACUAAUGUCUAGGUUACGAAAGUAGCGGCUACGAAAGUAGCCCCACCUAAUGGUGGCAUGCGAAAGUAUGGCGUAGGAAACUAUGCAAGCCUAAAGGGGCUGUAUCGUAAUCGAUAUCUGCUAAAGAGCGGGGUCAAAAAGUUGAUCGUCCGAAAUCGGACCUUGGGAAAGCUCAAG'
p246
aF1.0
aa(lp247
S'Fractal 3'
p248
aS'AAAAAGAGUGGAUAGCAAAAGCUGAAAAUAAACCUUAUAGCAAAAUCGCAAAAGCAGUAUGCCAUUUAAUGGCGUAAUCGGUUUGGGCAGGGAAACCGCGAAAGCAGCCAGUUCGAAAA'
p249
aF0.8907563025210085
aa(lp250
S'Kyurem 5'
p251
aS'AAAAUUUAGUGAGUAACAGUGCGAUAAAAGAAGCCCCAAAACCGAAAAUGUGGAUCUCUAAAAUGAAACAUUAUCUCGGUCUAGUUAAAAAAAAAAAAAAAAAA'
p252
aF0.9423076923076923
aa(lp253
S'Snowflake Necklace ( or v2.0 )'
p254
aS'AUAUAGAUAUAUAUAUGCUACAACAAAAAGCAUCAAAAGGAACCAAAAAGGGUCAAAAGGAAUCAAAAAGGGGUAUCUGACAAAAACUCGUGGUUAGCAAAAAGCAUCAAAAAGAAUCAAAAAGCAGUUAAAUACAGCAAAAAGUAAACUAAGAUAAAAAGUCAAUAUCGGGGAAAAGCAGAAAAAAUUAUCAAAAAGCACCAAAAAGGAUCAAAAGGAAGACACUGAGAAAAAGUCAUGUAUGGUAAAAAGCUCCAAAAAGGAUCAAAAAGAAUCAAAAAGAAUGAAAAAUAAAUACAGGACAAAAAGACAAUUUCAGCAGAAAGUAUCAAAAAGAACAAAAAAUAAUCAAAAAGAAGCUAACUGCAGAUAUAAAUAUAUAUCUAUAU'
p255
aF0.8508997429305912
aa(lp256
S'Methaqualone C16H14N2O Structural Representation'
p257
aS'AAAAAAAGGCCAGAACGGAGAGACAAAGGUCAGCGACACAAAAGUGGGGGAGACAAAAGUCGUGGAGAGAAAACUCGGACCAAAAAAGUCAUUGACCCACGCACUCAGAAACAGAUCAGUAUAAAGCACUCAAAGCAAAGCAAAAAAAGGAGAGGUAGACAAAAGUCCGCAAAAGCGCCGAAAAUGGUGCAGCAAUUAUGAUAAACACACUGGGAAUCAUUGAGACGAAAGACAAAAGUCAGUCAGACAAAACUUACACAUAAAAAAGUCAGAUAGACAAAAGUAACUCUGGACUCAAAAGAGCUAAAAAUAGAGCCAAAAGGCUUCAUUGAUAUAUAAAUACAGGUUAAAAAAA'
p258
aF0.9267605633802817
aa(lp259
S"Cat's Toy 2"
p260
aS'AAAUGUGGAGGCAAAAAUUUGAAAAAAAAAAAAAAAAAAGCUAUGGAAGCGAAAGCGAACCAAAAGGAAAAAAAACAAAAAAUGAGUUUUUACUAAA'
p261
aF0.9381443298969072
aa(lp262
S'Zigzag Semicircle'
p263
aS'AAAAUUACCUGCAUAAAAGAACAGAGGUAAGAAA'
p264
aF0.9411764705882353
aa(lp265
S'Short String 4'
p266
aS'AAAAAAGGACAGGUCAACGAUUAAAAAUGAAAGUUCAAAUAAGGUUAAGCGAAAGCAGGGAACGAGGAGAAAUGUUAAAAAAAAAAAAAAAAAAAAA'
p267
aF0.9484536082474226
aa(lp268
S'Gladius'
p269
aS'GGAAACAAUAAAAGUAAGUAGGGAAGCAUUGCGGGCAAAGAUCAAAGGAUCGGAUGCAAGACGCAGGUUAGCAAUAGAUCUAGAGAUAUUGGAGAUGUGAUAUAUAGAUCAAAUGAAGAUUAAAGAUCAUAUUUGAUCGAUGUGUAACAUCCACAAUAUCGAUUGAUCGAGGGUUGGUAAGUGAACAGGAUAAGUCAAAGACACUAACGUAAAACAGAAGAGCGAAAGGUGAAAAGUACAACAGGAGACAAAAACGAUACUACUAGAGUAUACGAAAGUAUACAACUACAAGUAAAGUUUACGUCUUAUGUUGUACAUAAUAUCAGAAGUUCACAAGUUGGAAGUUAGAGAGUUAAUGCUCGAAGUCAGUAUAACAGCUUAAUAAUCGAAAGAAAAAAAU'
p270
aF0.8975
aa(lp271
S'Thunderbolt'
p272
aS'GGAAGAUACUAAAAAAAUUGUAAGGAAAAAAGGUACUCACUAUACACAAAAAAAAAGUUAAAAAGGUCAAAAAGACCAAAAAAGAGAAGCGAGGAAAAAAACAAGUAAAAUCGAGAAGCAGGCAAAAACAAAAGAGAUCAAAAUGAGAAAAAGAAGCAAAAAUAGCAACGAAAACUCUCAGCAAAGUAAAAAAAAGGAGUAAAGUUCAAUAAAAAAUUAAAGCUGUAAAAAAAGAUCGAAAACUUUGCAAAGCAAAGAGCAGGCAAAAAAAAAAACCAACCAAAAAAAAGGAAGAUAAUCCGGUGCGAAAAGGAAAAAAACAAAAAGCAUUGAACACGAAAGUAUAUAGAAAAAAAAUGCCAAGCUAAAAAAGAAAAAAACUGUAUUAGCCA'
p273
aF0.9591836734693877
aa(lp274
S'Mutated chicken feet'
p275
aS'AAAAAAAGCAGUGUGAAACCAGUAAAACGAAGCGCAGUACCGGAUAUUCAUCAACGAAAGCGGCAGCACGUUCAAAAGAGCAAAGCAAUUCGCGAAAAAA'
p276
aF0.88
aa(lp277
S'Chicken Tracks'
p278
aS'AAAAAAAAGUAUAUCAAUAAAAAUAUUAAUAUCAAAAGAUGGAGACGGAAACGUCGAUAUAUAAGAUGAUCGGCUUUUAGGGUCGAAGACUAACGACGAAGUUCGUCAAAGAAAAA'
p279
aF0.9482758620689655
aa(lp280
S'Looking Back Again'
p281
aS'UUGAAAUCCUACGAAAAUUAUACAAAGUAUAGAGUAGAAGACGCCAAGACAAAGUCGGUUGAUAAAAAGCUUAAAGGAGUAAAGUUAUCUAGUCAAGGAACGGAGGAGUAAAUAAUACUAAUGUUUUUAAAAGAUCGCAAGGAUAGGAACUAUCGCUAUGAAGCAGCUAAUCCGGAAGAACAAUAGUGAGGAGGUUAAAAGAACAACACAAAGAAAACCCUCAAAAGAGAAGCAUUAAGAACAUCCUCUUGAGACAAAUCGAAAAAGAUUGGUAAAAAAAAGAGCAAAAAGUUCGCCAACAAACACAGUUGAGUAAAAAUCCUAGAGGAAGUUUUAGAACGCCAAAAUUAGACUCAAGGAGUCGGGGAGGGAAUCUCCGUCUUAAACGA'
p282
aF0.9023136246786633
aa(lp283
S'Multilooping 6'
p284
aS'AUUAACUUCGUUUGUGAAAAGCAACCAGCAAAGGUUGGCGAAGUGUGGCAAAGGUUACUUCUGUAAUCAGUAGCUGGUUGUA'
p285
aF0.926829268292683
aa(lp286
S'Cesspool'
p287
aS'GAAGAGCAAAGAAAGGCGAGAGAGUGAAAUUCAACAGAAAGUAAAGAAGAAAACAACAGAAGAAAACAAUAAAAAGAAAACAACAACAAGAAGAAGAAAACAAAACGAGAGACGAAAAGCGAACAACGAGGUAAGAAGAAAACAACAGAAGAAAGCAACAAAAAGAAAACACCAACAAUCGAGAAGGAAAUAAGACGAGAGAUACAAAGCCAACAAUAAGUCAAGAACAAAGAAACUGAAGAAAACAACUAAAAUGAAAAACCAAGAAAGCGAGAGGAAAACAAGAGAGGAGAGAGAAAAUCAGCAACAGGUAAAGGAGAAAACAACAGAGCGAAAGAACAAAAAGAAAAUAUCAAGC'
p288
aF0.7681564245810056
aa(lp289
S'Hoglafractal'
p290
aS'AAAAAGAACAAUAAAAAGAUACAAAAAAGUAUCUAUAGCUACAAAGAUCAAAAAGAUCGUAGCACAAGACAAAAGUUGUGAGUGGAAGAUCAAAAAUCAAAAAAGAUUGAUCGACAAGACAAAAAGUCGUCGCAGCUAAUGCGCACUAGAAAAGCCAAGACAAAAAAGUCGUUGCAGCAAAAAGCGCAACAAAAGAUAGAUACAAAAAACAGCAAAAAAGCGUAACAAAAAGUACCUAAUGGGGUAUACAAAAAAGACUAAAAUGUCACAAAAAGUUAAGUAUAUCUAUGAUAUAUAAAAAAAGUAUACGAAAAAGUAUCAAAAACUAGAAAACGCAAGCUUAUGAAAACCAGAUCAAAAGUAAAGACGCAAAAGCGUGGACGAAGUCAACCGAUCGGAU'
p291
aF0.89
aa(lp292
S'Bullseye'
p293
aS'AAGUUACUGUUCUACAGCAUAGCAAGGCUAGAGAUUAAAGAUGCACAAAAAAAUCACCAUCAAAGAUGAGGAUGAAACAUCAAGAAAAAAUAUCGUGUAAAAAAAGAGCAUAGAAUGUGCAGAUCAAAGCCAAAGGCGAAAGAUACGCAAAAAAAGAGGCGUAAAGAACGAAGGUAAAGAAUCAAAAUGGAAUAUGUUUAAA'
p294
aF0.801980198019802
aa(lp295
S'Shooting Star'
p296
aS'GGACAUGGACGUUUAUGAAUGAGAAUUAAUCAGACAAGGAAACAUGUAUGGUAGAGAAUCUAUAUAAACAGAUACGGGAGAAGUUAUCUGGUACAGACAGGUCAACGAAAGAAGAAACCUCGAUAUACGGUUGAUAACCAACGGAAACAAUAGUGAUCCCAUCAAAGAUGGAGGUAGAAACUCCAUUAAAAAUUAAGACCAGUCCAGUUCAGAUAAAAGUAUAUUAAAUACAAACAGACAGAAAGUCCCUAUCGUAUCUCGAAGAAAUACAGAUACAAAGUGUCGAGCGCUCAAUUAAUAUAUGAAUAAAAGGAUGAGAUCCGCAAAAGUAGAUACCAUACGAUAACACUAGGAGCAAUGUCCA'
p297
aF0.7939560439560439
aa(lp298
S'Teslagon'
p299
aS'AAAAAAUCAAAAAAUCCAACAAAAAAAGGAUCAAAAAAAAAAAAAAAGAAAAAAAAAGAGGAAAAAAAAAAAAAACGAGCAAAAAAAGCAGCAAAAAAAUCAAAAAAAAAAAAAAAAAAAAAAAACCACCAAAAAAUGUAUCAAAAAAAAAAAAAAAGAAAAAAAAAUCGAAAAAAAAAAAAAAACGAUCUAAAAAAGUAGCAAAAAAAGCAAAAAAAAAAAAAAAACAAAAAAAGAAGCAAAAAAAACUUCAAAAAAAAAAAAAAAGAUAAAAAAAGCGAAAAAAAAAAAAAAAUGAGUGAAAAAAGCAGCAAAAAAAGGAAAAAAAAAAAAGAAAAAAAAAAAAAAAAUCACCAAAAAAAGUAGGUAAAAAAGGAAAAAA'
p300
aF0.900523560209424
aa.