(lp0
(lp1
S'Simple Hairpin'
p2
aS'GAUAGAAAAAACUAUC'
p3
aF1.0
aa(lp4
S'Arabidopsis Thaliana 6 RNA - Difficulty Level 0'
p5
aS'GAUAUAGAAAAGAGAAAAAAAAAAACUCGAUAUAUCAAGAUAUAUAUAUAUAUAUAGAAAGAUAGAAAAAACUAUCACUAUAUAGUAUAUAUAUAUCAAGAUAUAUCAACUAUAUC'
p6
aF1.0
aa(lp7
S'Prion Pseudoknot - Difficulty Level 0'
p8
aS'GAUAUCAGAUCAAAAGAUCGAUAGUCAAAAAAAAAA'
p9
aF1.0
aa(lp10
S'Human Integrated Adenovirus - Difficulty Level 0'
p11
aS'GAUAUAUAUAUCUCAGUUCUCAAAAAAAAAAGGCGCGCGGUCCUAAAAAAGCGUCGAAAAAGACAUAUGUAUAUAAAAAAAGGUGUGCAUAUUAAAGUCUCGAUUAAAGCUGGGAAAAGCCGCAAAACUAUCGAAAAAAGAUAGUGUGCAAAAAAAAAAAGGAGAGCGGGGAAAAAUAUAUAAAAUAUCAAA'
p12
aF1.0
aa(lp13
S'The Gammaretrovirus Signal - Difficulty Level 0'
p14
aS'AAGAGGAGGUAUCAAAGGAUACCAACGCAAAAAAGAUCAAGAGAGAUCGAUACAAAAGUAUUAAAAGAUCCUCGAUCAAGAUAUAUCUAAUGAUAUAUCAA'
p15
aF1.0
aa(lp16
S'Saccharomyces Cerevisiae - Difficulty Level 0'
p17
aS'GGUACUCCGUGGAAAAAAACGCGAGGGAAAAAAAAAAAAAACCAAAACCGCAAAAAAAAUGUGGGGGUACCAAAUGAUAUGCAAUAUCUAAAAAAUGAUAGCGGAAAAAAAAAAAACGCAAACGGUACUAAAAAUGUAUCGUAUGUCUAAGCAUCUUGAAUAUCUAAAAAAUGAUAGCUGUCGAAAAAAGACAGCAAAAGCAUGUAAAAAUCAUGCCAAGAUGAAAAGGUUCACAAGAUGAAAAAAAGCAUCGUGAUGGAAAAAAUAUCACAAAAGGUUUGAAAAAAGAACCGUGAAUCGAAGGUAAUAGAAGAUCUAAAAAAUGAUCGAUGUCAAAAAAGGGCAUCAAAACAUAGGAAAAAACUAUGCUAUUACAAAA'
p18
aF1.0
aa(lp19
S'Fractal 2'
p20
aS'AAAAAAUUUGAAGAAAAAUAUAUAUCAAUAUCGAAAAAAAAAGAUAAAGAUCAAAAAAAAAAGAUCAACAACGAAAAAAAAAGUUGAAGAUGUAUAUUAAGGAUAUAUAUCAAAGAUGAAAAAAAAAAUCUGAGAUCUAAAAAAAAUGAUCAAGGUGUAAAAAAAAUUACCAAGAUAUAUAUCAAAUUUAGAUCGCAAGCCCUAAAAAAAAUGGGCGAUGGCAAAAAAAAAAGCUAAAGUAUAAAAAAAAAAAUGCAAGUGAUCUAAAAAACUUCGAGUAAAAA'
p21
aF1.0
aa(lp22
S'G-C Placement'
p23
aS'GAUCAAAGAUCA'
p24
aF1.0
aa(lp25
S'The Sun'
p26
aS'GAGAGAUUGAGUAUCUCAAAAUCCUCAAAAGGAUCUAGCGAAGCGAUAAGGGCUUAAUGGGAGGUGCUGUAUCAGCAAACCCCCUAGGAAAGGUCUCGUAUCGAGAAGUCCUCAAAGAUAGAGUUAGAAACUAAAACUCAUCAAAGAGAUACAUGGUAUCCAUAAAUAUACGAAGUGAGGUCCAGAAACGGGCAGCCCGCGAUAAGAGGUACAGAAGCUGUAACUUCUUUAAGGGAGAUCUUUUAUAAAGAUGUCCCC'
p27
aF0.937984496124031
aa(lp28
S'Frog Foot'
p29
aS'AAAAAAAAAACGGUGAAAACUGGGGCAAAGGCCCGGCCUAUGGCC'
p30
aF1.0
aa(lp31
S'InfoRNA test 16'
p32
aS'UAUUUUUGGCUUUUCUAAUGAAAACGCGCUGAAGUA'
p33
aF1.0
aa(lp34
S'Mat - Martian 2'
p35
aS'GAUCAAAAGAUCAAAGAUAUAGAAGAUAUAGAAAAAAACUAUAUCCUAUAUCAAAGAUAUAUCAAAAAAGAUAUAGAGAUAUAGAAAAAAACUAUAUCCUAUAUCAAAGAUAUAUAUAUAUCAAAAAAAGAUAUAUAGUAUAUCAAAAAAGAUAUAUCAAAGAUAUAUAUAUAUCAAAAAAAGAUAUAUAAGUAUAUCAAACGUCAAAAGACG'
p36
aF1.0
aa(lp37
S'square'
p38
aS'GAUAUAGCUAUAGCUAUAUCGAUAUCAAAGAUAUCAAAAGAUAUAGAAAACUAUAGAAAACUAUAUC'
p39
aF1.0
aa(lp40
S'Six legd turtle 2'
p41
aS'AAAAAACAAAGCAAAGCCAAAACGAAAGUAAUUCAAAAGAUAAACAAAAGUAAAGAAAAGACAAAUGAAAGGGGAGGUAAAAAAAAAAAAAAAAAAAA'
p42
aF0.9591836734693877
aa(lp43
S'Small and Easy 6'
p44
aS'UUUAGGAAAAUUAAGCGAAAAAAAAGAGAC'
p45
aF0.8666666666666667
aa(lp46
S'Fractile'
p47
aS'AAAAAAAAAAAAGCGAAAGCAAAGCAAAGCAAAAGCAAGCGAUGCAAAAGCUAAGCAACCAAAAGGAAAGCGAACGAAAGUAAAAAAAAAAAAAAAAAAAAAAAA'
p48
aF1.0
aa(lp49
S'Six legd Turtle'
p50
aS'AAAAGCUAAAGGGAAAGUAAAAAGGGAAAUCAAAACUGAAAGCAAAAACGAAAGUAAAAAGAAAAGUAAAAUGUAGUUUAAAAGCAAAAAAAAAAAAAAAAAAAA'
p51
aF0.9619047619047619
aa(lp52
S'snoRNA SNORD64'
p53
aS'GAUAUCAAAAAGAGAAAAGAGAAAGAUAGAAAAAAAAAAAAACUAUCAAAACUCAACUCAAGAUAUC'
p54
aF1.0
aa(lp55
S'Chalk Outline'
p56
aS'AAAAACAUCAGCGCCAAAAGGAUGCAGAGAGGGGAAACCCCUCGAAGAACAAAAGUCUCUUAGGGCCAAAAGGCACCGAUGGAAAAAAAAAAAAAAAAAAAAAA'
p57
aF1.0
aa(lp58
S'InfoRNA bulge test 9'
p59
aS'GAUAUAGAGAGAGAGAUAUAGAAAACUAUAUCCCCCUAUAUC'
p60
aF1.0
aa(lp61
S'Tilted Russian Cross'
p62
aS'AAAAUGACAGAUGAAAAUUUCUCAGAGAUCAAAGGAUCGAUUGAUAGCCGUCAGAUCAAAAAGUCUAUAGUUCGAAAGGACAGUCUAAAAAAAAAAAAAAAAAAA'
p63
aF0.9238095238095239
aa(lp64
S'This is ACTUALLY Small And Easy 6'
p65
aS'AAAAAAAAAAAAAAAAAAAAAAAAAAAAAAAAAAAAAAAAAAAAAAAAAAAAAAAAAAAAAAAAAAAAAAAAAAAAAAAAAAAAAAAAAAAAAAAAAAAAAAAAAAAAAAAAAAAAAAAAAAAAAAAAAAAAAAAAAAAAAAAAAAAAAAAAAAAAAAAAAAAAAAAAAAAAAAAAAAAAAAAAAAAAAAAAAAAAAAAAAAAAAAAAAAAAAAAAAAAAAAAAAAAAAAAAAAAAAAAAAAAAAAAAAAAAAAAAAAAAAAAAAAAAAAAAAAAAAAAAAAAAAAAAAAAAAAAAAAAAAAAAAAAAAAAAAAAAAAAAAAAAAAAAAAAAAAAAAAAAAAAAAAAAAAAAAAAAAAAAAAAAAAAAAAAAAAAAAAAAAAAAAAAAAAAAAAAAAAAA'
p66
aF1.0
aa(lp67
S'Shortie 4'
p68
aS'GCGAAAGUAGCGAAAGC'
p69
aF1.0
aa(lp70
S'Shape Test'
p71
aS'AAAAAGAGAUCAUGUUAGAAAAAAAAUUAGCUAGAGAGAGUGAUAGAAAAACUAUCUGAUGAAAACAUCACUCCUCAAGAUCGCAAAAAAAAAAAAAAAAAAAA'
p72
aF1.0
aa(lp73
S'The Minitsry'
p74
aS'GAGAAAAAGGUAAAAAGACUAAAUUGGAAAAAAAGAAAAAAAACUUGCCAUGUCGACCGCUC'
p75
aF1.0
aa(lp76
S'stickshift'
p77
aS'AAGAUAUCGCAAAAAGCAGAUAUCAA'
p78
aF1.0
aa(lp79
S'U'
p80
aS'AAAAAGAUAGAGAGAGCAGAGAUAUAUAGAAAACUAUAUAUCCGCCCCUAUCAAAAA'
p81
aF1.0
aa(lp82
S'Still Life (Sunflower In A Vase)'
p83
aS'AAAAAACAGGAAUGAAAAACGAUUAAGUUAUAAAGUAGCAAGAUGGAAAAACCAUCAAGAUUCGCACAUUCAGCAGAGGAAAACUUUGAGGUGGCAAAAAGCCGCAGUUGGAUUCAUAUUUAGAUAGGUCGAUCAAAAAAGAUUGAAAUCGAAAAAAAAAAAAUGGGCGAAAAAAAAAAAAAAAAAAAAAAAAAAAAAAAAAAAAAAAAGCUCUAAAAAAAAAAAACGAUUCCGUCAAAAGACGGAACUUAUCUAAAUGUGGAUCCAACAAGGUAGUAAAUAUGCCAAACCAUAAAAGAUAGCAUGACUGAAAAGCGGUCUAGGUUGGAAAACGCUCGGCGUUAAAAAUAACGUGUAGUUGUAAAGACGAAGGAUAAA'
p84
aF0.9603174603174603
aa(lp85
S'Quasispecies 2-2 Loop Challenge'
p86
aS'AAAAAGUUCGCGCGGGAUCAAAAGAUCAAGCGCAGUGAAACUAUGGAUCACAGGUGAGGGUGAGAAAAACUCUACAGUACCGAACAAAAAAAAAAAAAAAAAAAA'
p87
aF1.0
aa(lp88
S'Corner bulge training'
p89
aS'AGAUAUCGAUAGAAACUAUCAAAAGAUAUCA'
p90
aF1.0
aa(lp91
S'Spiral'
p92
aS'AAAAAGAUCAGAUAUCAGAGAGAUAGAGAUCAGAUCAGCAGCAGCAGCAGCAGCAAAAAGCGCGCGCGCGCGAUCGAUCCUAUCCUCGAUAUCGAUCAAAAA'
p93
aF1.0
aa(lp94
S'InfoRNA bulge test'
p95
aS'AAAAAAAAAAAAAAAAAAAAAAAAAAAACGAACUAAAAUGGCGGAAUGUAGUAGCACGGAGUAUUCGGGAAAAGCCACGUGUAACGACGAUGAAUCUGGCUUAAACGACCUAAAAUGUAUCA'
p96
aF1.0
aa(lp97
S'Worm 1'
p98
aS'AAAAAAAAAUCUAUAGUAGUGUGUGAAGGUGCCAGUGAAGGUGGG'
p99
aF0.9111111111111111
aa(lp100
S'just down to 1 bulge'
p101
aS'AAAAAGACCAGAAAGAAAACUUUCAGAGAAAACUCAGGAUCAAAAGAGCAAAGAAAACUUACAGAAAACUGAGCUCAAAAAAAAAAAAAAAAAAAA'
p102
aF1.0
aa(lp103
S'Iron Cross'
p104
aS'AGAGAUAGAAAGAGGGACAAAGCCAGAGGAAACUCACGCAAAGAGGGGGAAAACUCAGGUUAUAUCGCCAGUAGAGAGGUGAAAAUCGGCGGAACUCGCUCAAGCUGUUAGGAACUAUCUCGA'
p105
aF0.9024390243902439
aa(lp106
S'loops and stems'
p107
aS'AAAAAUCUGGAGUAAGACCAAAGUUCGAGGGGGAAAAAAAAUGAGACGAAAAAAAAAAAGUCUCUAGCUCUAAAUGUAUAAAAAAAAAAAUGCUAAGAACGAAGGUAAAAAAAGACCAAAGGUUGAGCUAAAAUGCAAUCUUCAGAAAAAA'
p108
aF1.0
aa(lp109
S'Water Strider'
p110
aS'AAAAUUGGGGAACCGGAAGGGGAAACUCCGAUAAUCAGUUAAAAAAGUUCAAAAAGUUGAGUAAGGGGGGUCUGGGAUCACGUAAAAAAAAAAAAAAAAAAAA'
p111
aF0.9320388349514563
aa(lp112
S'The Turtle(s) Move(s)'
p113
aS'AAACCAAAAGGAAAAGUUAUAUAGGAAAAAAAACUAUAUAACAAAAGAUCAAAAAGAUCAAAAAGCGAAAACGCAAAGAUAGAAAAAAACUAUCAAAAGCCAAAGCGAAAGCAAAAAGAGAAAACUCAAAAGAUUUCAAAAAAAGAGAUCGAAACAGAAAACUGAAAAAGAUAUCAAAAGAGGAAAAAACUCAAGAGAAAAAAAACUCAAAGAUAGAAAAAACUAUCAAAGAUCAAAAAGAUCAAGAUAUCAAAAAAAAAGGAAAACCAAAAAGCAAAAGCAAAAAACUAUCAAAAAAAAAAGAUAGAAAAAAGGC'
p114
aF1.0
aa(lp115
S'Adenine'
p116
aS'GAUAGCGAUAUAAGAUAUCAUAUAGCAGAUAUGAGAUAACAAAUGAUAUUAAAAAAGGUGUCCGUUAUCAGAUAGAAAGAUAUUGAAACAAUAUCCUAUCACAUAUCAGAUAUAUAGAGCAAAGUUCUAUAAAGUAUCAGUUAUAAAAAGAUAUCAAAAUAUAUCUAAUCUAUC'
p117
aF1.0
aa(lp118
S'Tripod5'
p119
aS'AAUCCCCCGGAAAAGCCGGGGUGGCAAACACCGGGAGA'
p120
aF1.0
aa(lp121
S'Shortie 6'
p122
aS'GCAAAGGCGGCAAAGGCAGCGAAAGUGGCGAAAGC'
p123
aF1.0
aa(lp124
S'Runner'
p125
aS'AAAAAGACCACGUCCAAAAGGAUUAUAUCUCGAUGGAAGGGAAGAGUGAAAAUCGACGAUCAGAGAGGAAUAUAAAGCUACCCAAAACGUAAUUGCAAACAAUCGUGGGUCAAAAA'
p126
aF0.896551724137931
aa(lp127
S'Recoil'
p128
aS'AAAAAGAUAGAAGCAAGCAAGAGAAGAGAAGCAAGCAAAGCAGCACUCACUCAGCAGCACUAUCAAAAAAAAAAAAAAAAAAAAA'
p129
aF1.0
aa(lp130
S'[CloudBeta] An Arm and a Leg 1.0'
p131
aS'AAAAAGAGAGAUAGGAAACUCGUCGAGAGCAAAAGCCUCACUCAAAAAAAAAAAAAAAAAAAA'
p132
aF1.0
aa(lp133
S'[CloudBeta] 5 Adjacent Stack Multi-Branch Loop'
p134
aS'AAAUGAUCGGAAAGAAAGUCUCAAAGUUGGACAAGGGCUACUUUGCUAGUACUCUAGCGGCUA'
p135
aF0.873015873015873
aa(lp136
S'Triple Y'
p137
aS'AAAAACGUUAACCAGUCUAAUGUUCUCGGAAAACCGAGGCCAAUUCAACGAAUGAUCGAUAGAAAAAAAGAUUGAUCAAAAAAAAAAAAAAAAAAAA'
p138
aF0.9175257731958762
aa(lp139
S'Misfolded Aptamer'
p140
aS'CAUCGAAAAGGCGAGAAACUCAGUAAAAACAAAAAAAAAGCAAAAAGAUG'
p141
aF1.0
aa(lp142
S'Flower power'
p143
aS'AAAAGGAGCGUUUGAAGACCAGAACGAAAAACCUUCAGGCCUAAAGGGCAACUAGGAAGUGGGUUCAUAGCAAAGUUGGUUUAAAAAAAAAAAAAAAAAAAA'
p144
aF0.9215686274509803
aa(lp145
S'Kudzu'
p146
aS'AAAAUGAUUCAUGGACGAUAGCUCAUCAAAGGGAAUAAAACCUCUAAGAGAGGGUAGCGUAAGUACAAACUUACUCGUGUUCAAAAAAAAAAAAAAAAAAA'
p147
aF0.8712871287128713
aa(lp148
S'"1,2,3and4bulges"'
p149
aS'AAAAGAUACGGCGUUGAAAGUAAAACCCUUCUGAAAGGAAGUAAAAAAAGAGGAGGGGAAAUAAACCAGAUAAAGAUCGCGAAUCAAAAAAAAAAAAAAAAAAAA'
p150
aF0.9619047619047619
aa(lp151
S'medallion'
p152
aS'GGUAUCUGACAUCAAAAGAUGUCUUAGGAAACUGGUCGGCACUCGAGAUAUGAAAAUAUAUCACUCAAAGGAGGGAUUGCCAAAGCAAUCAGUAAAAAUGCGCUGUAAACAGAGAAACCAAAAGGUUUCAGAGAAAGUUCGGAUUACAAAAGAGGUGAGGUAAAAGCCAGGGAAAGGUCAGAGGUGGAAACACCUCAGUGUAAUCACAGAUUUCUAAAGAAGUCAGACAAAAGUCAGGAAAAAACCACAAAUCAAAGGAUUUGAGAAAAAACCCAUACAUCGAAAGAUGUAAUAGGAAACUAGGAAAAAACUCAUAAAGCAAAGGUUUUGAGAUACC'
p153
aF0.9258160237388724
aa(lp154
S'[RNA] Repetitious Sequences 8/10'
p155
aS'AGCAAAAAAGCAAAAAAGCAAAAAAGCAAAAAAGCAAAAAAGCAAAAAAGCAAAAAAGCAAAAAAGCAAAAAAGCAAAAA'
p156
aF1.0
aa(lp157
S'Documenting repetitious behavior'
p158
aS'AAAAAAAAGAAAAAAAAGGGAAAAAAAAAGGAAAAAAAAAGCAAAAAAAAGGAAAAAAAAAAACAAAAAAAAACAAAAAAAAAAGCAAAAAAAAAGCAAAAAAAAAGAAAAAAAAAAGCAAAAAAAAAGGAAAAAAAAAUUAAAAAAAAAUGAAAAAAAAAGCAAAAAAAAAGCAAAAAAAAAGCAAAAAAAAGCCAAAAAAAAAGGAAAAAAAAAGCAAAAAAAAAGCAAAAAAAAAGCAAAAAAAAACAAAAAAAAAGGAGAAAAAAAAUCAAAAAAAAGGCAAAAAAAAAGCAAAAAAAAGGCAAAAAAAAAGCAAAAAAAAAGGAAAAAAAAAGUGAAAAAAAAGAAAAAAAAAAACAAAAAAAAAUCAAAAAAAAAUCAAAAAAAAACUAAAAAA'
p159
aF0.955
aa(lp160
S'7 multiloop'
p161
aS'GCGCUUGUAAAAAUUUAGAGGGGUAAUGAUUUCCCGUAAAGAUGGGACAUGUAAUCGUGUACAACUAAUGUUGUCUGACAAAGGUCAGCAGC'
p162
aF0.9782608695652174
aa(lp163
S'Kyurem 7'
p164
aS'AAAAGGAUCGCCGUGAAAGCAUCGCAAAAAGUAAGGAAAAAACACGGGGUUCGAAAAAGAGAAACCAGGCUUCUAUAUGAUCAAAAAAAAAAAAAAAAAAAA'
p165
aF0.9607843137254902
aa(lp166
S'JF1'
p167
aS'GAUGUAGAUAGAGAUGGAAGAUAGAAAAGACAUCAAGAUAGUAUGAUAGAAGAUAUCUGAUAUGUAUAUAUCAAAAGAUAUAUACAUAUCAAGAGAAAACUCAGAUGUAUAGAAAACUAUAUAUCAAGAUAGUAAUCUAUCGGAUAUCACUAUCUCUAUCAGAUGUCAAGGAUAUAUCAAAAAGAUAGUAUCAAGAUAUAUAUAUAGAUAUAUAUAUCAAAAGAUAUAUAUAUUUACUAUAUAUAUCAAAGCUACGAAAAAGUAGCGAUAUAUAUCAAAAGAUAUAUAUCAAAGAUCAAAAGAUCAACUAUCAACUAUCAUAUGAGAGAGAGAAAACUCCUCCAUAAGAUGCAUAUAAAAAUAUGUCAUCGUUGUACUAGUAUCAAA'
p168
aF1.0
aa(lp169
S'multilooping fun'
p170
aS'UCUAUUGUUGAAAAUCGAAAGGCUUUAAAUAAGAGG'
p171
aF0.8333333333333334
aa(lp172
S'Multiloop...'
p173
aS'AGUCAGAUGAUAGGAAACUAAAGGAAAACCUAGAGGAAACUCAACCGAAAUGUGUUGAAAGCGAACUCUACCGGGACAUCAUAUAGAAAAAACUAUAGUAGAAAUGCGGCU'
p174
aF0.9819819819819819
aa(lp175
S'hard Y'
p176
aS'AAAAGGAUGUCUGAUAAUGCAAAGGUGUUAUAUGGGUUAUAUGUCGAAAGAUAUAUGGCCAUCAAAAA'
p177
aF0.9705882352941176
aa(lp178
S'Mat - Elements & Sections'
p179
aS'AAAAGCUACAGAAAGAGUGCUCGAGGUACACUGAAUCGAAAGAAAGCGUACCAUUCAUAGAUUUAAAAGUGCGUGCGACCAGCGGAAAAAAAAAAAAAAAAAAAA'
p180
aF0.9619047619047619
aa(lp181
S'Chicken feet'
p182
aS'AAAAUGGAACUGGAAGUCAGCUAUGGGAUGUUCAGCAGCUUUAAGAGUACAAGGUUAACCACAAAAA'
p183
aF0.8507462686567164
aa(lp184
S'Bug 18'
p185
aS'ACCAGGAGAAGCGAGCGAGCACCAAAGGAAGCAGCAGCAGUCAACCAAAGGGA'
p186
aF1.0
aa(lp187
S'Fractal star x5'
p188
aS'AAAAAGAGAUCUCAAUAUAGAAAUAUAAAUACCUAAUGGUAAGGAUAAAAAUAUCAAUCUCUAAUGAGAAAGAGAUCUCGAAAAGUUAAAUCAGGAUCAAAAGAUUAAGAUCGAAAGAUCAGGAGCAAAGGUUCAAGAUCGAAAGAUCAAGAUUUAACAAAAGGAUAUAUCAAGCGCAAAAGUGUGAGAACUAAUGUUCAAGAUCAAAAGAUCAAGUUCAAAAGAGCGAGAUAUAUUAAAAAGAUAUAUGAAGUUCGAAAGAGCAAGCUCAAAAGAGCAGCAUCAAAAGAUGAAAUUCAAAAGAAUAAUAUAUAUCAAAAGGCUUUGUCAAGAUCAAAAGAUCAAGAUCAAAGGAUCAAUAGUGAAAGCUGAAUAUUGAAAAGUAAGGACAAAGCAAAAA'
p189
aF1.0
aa(lp190
S'Crop circle 2'
p191
aS'GGGAGUGCAAAGCGAAAAGUAAAAAAAAAUCAAAAAAAAAAAAAAAAAAAAAAAAAAAAAGCAAAAAAAAAAAAAAAAACAAAAAAAAAUUGAAAAAUUAAAACCAAAAA'
p192
aF0.9636363636363636
aa(lp193
S'Branching Loop'
p194
aS'ACAGUCUAAAAAAUACUUGGAAACGGGCCAUUGGAAAAAA'
p195
aF0.95
aa(lp196
S'Bug 38'
p197
aS'ACAGGGAGUAUCGGAAAAAAGGGGCGAUCUAAAAGG'
p198
aF0.9444444444444444
aa(lp199
S'Simple Single Bond'
p200
aS'AAAAAAGGAAAAAAAUAAUCAAAAAGAUUUAAAAAAAACAAAAAAAAAAAAAAAAAAAAAA'
p201
aF1.0
aa(lp202
S'Taraxacum officinale'
p203
aS'CCGGAAAACACGGUAAUCAAAAGAGAUUGAUCGAAAUAGUCUAAACAAAGAUGGUUGAUAAAAAUAGUCAGAGAAAAAACCCCGGAUUUAUAUAGCUGUAUUGAUAAAAUAUUAAAUACAGGGAUAGAAGAUAUGGGUCAUGAUAUAGGAACUAUGUCUGAUUCAUAUCGUACAUAUAUCGAAGAUAUGGUACCUGUCAAACUAUAUAGAUCAGGUCAAAGCAGUUAGAGCAAAAGACUCUGUGCAAAAAACUCUGUUCUAAUCAAGCAAUUGAAAAUAGAA'
p204
aF0.8581560283687943
aa(lp205
S'Headless Bug on Windshield'
p206
aS'GUCAGUAAAAACCGAGAAAGCGGGCAAAAAAAAAAAAAAAAAAAAAAAAGGUCAGCAAACUCAGGAACGGGGAAAAAUAGCUAAACAAAAAAAGUAAAAGCAAAAAAUGUAGCAAAAAGUCUGGAUGAAAUAAAAGACGGGCAAAGGAUAUACUUAAAAAAAAAAAAAAAGGGAAGUAGUUUAAGCAGUCAGUAAGUUCA'
p207
aF0.95
aa(lp208
S'Pokeball'
p209
aS'AAAGGAAUUGAAAAGCAAGUAACAGGAGGAACCAGGCGAGCAAGCAAGGAAAACGGCUAGCAGAAGGAGCCGGUGAUCGGCCAAUUCCAAAAAAAUGGUAUUGAAAAGUAAGUGUGUGGGGCAAGCGGGCAGGUAACGGACGAAACGGCGGGGCAGCAGCAGGCACGCUGUGGCCAAUACCUAA'
p210
aF0.9891304347826086
aa(lp211
S'Variation of a crop circle'
p212
aS'AAAAGGAAAAUAAAAAUUAAAAAUAAGGAGGAAAAGUAGGUAAAAAUAAAAAAAGAAAAAAAUGAAAAAAAAAUCAAAAAAAAAAAAA'
p213
aF0.9545454545454546
aa(lp214
S'Loop next to a Multiloop'
p215
aS'AAGAUAGGUAUAAAAAGGGGAAGUCAAAAGGCUUCAGAUCUGGUAAUCCAGAUCAUAAAAAAUUACUUAUCAA'
p216
aF0.9726027397260274
aa(lp217
S'Snowflake 4'
p218
aS'GUUCAAAUAGCUAUGGAGGAAACGCCGUAUAGACAGCUAAAACGGUGUCUAUCAAGGAUGAAGACGAAAGAUAGAUACGAGAAAUCAUAUCAAGAUAACGAAAACGAUAUCGAUCAAAGAUCAAUAUCAAGGAUGGAUGGAUUAACAGCUAUCAUGCUCUCCGAAAGGCUAUCCAUCAAAGAUCAAGAGCGAAGAUAGAUAGUGAAAACGGUUUCUAGGGCCCGAAACCUGUAUGCAUGUAUCAUGAACGUUUAUAACCCAUAUAGCAAUCGGGCUCAAGAAGGCGAAAGCGCUUGUUGCAAAGUGCGAAGGUCAAAAAUCGUAGGCGUAAUCGCAUUCUUUAUGGCGAAAACGCCAUAGGUCAAAGAUC'
p219
aF0.8
aa(lp220
S'Mat - Cuboid'
p221
aS'GAAGUAAAAGGAAACAAAAGCAAGCAAAAGAACCAAGCAAAAGCAAGCAGGCAAAAGAAGGAAGCAAACAAAAUAAAGCAGUCAAGCAAAAGUAAGUAGGCAACCGAGCAAAAGAAAGCAAGCAAGCAGGCAAAAGCGAGCAAGCAACGAAUAGAGCAAAAGCAAGCAAACAUGCAAGCAAUCAAAAGCAAGUAAGCUAUCAACGAAACGAAAAAGUAACGAAGGAUGUAACCAAGCGAAAGCAAGCUAGCAAGCAAUCGCAAGGAAGGAAGCAAGCAAGCGCAAGCAAGCAAUCAAGGGCAAGGAGGCAAGCAAGUGCAGGCAAGCAAUAGCAAGCAAGCUACGCAACCGACAGUAAGGAACGUAAGCGUAGCCACAAC'
p222
aF0.868421052631579
aa(lp223
S'Misfolded Aptamer 6'
p224
aS'AAAAAAGAUAAAAAUGAUCGGCGAAAUCGAAAAAAAACGAAAAAGAAAAAGAUCUAAAAAAAUCAAAAAAAAAAA'
p225
aF1.0
aa(lp226
S'Snowflake 3'
p227
aS'GAUGGAAAACCGGAAGUCAAAAGAGAGGAUUACAUCAAGUAAAAAUACGAGAGCAAAAGCGACAAAGUCGCGAAAUCGCUAGCCGAAAGGUAAGACGAGAUCUAUAGAAAACAGGGGUGCAAAAGCGAGAAACUCGCAAAAGCUCCCGCGAAAACUCAUGAUCGGCGCAAGAGAAAACUCGUGAGCAAAAGUGUGAGACGCCUAAAAAGACUCGAUAAAACUCAAGUGCAACUCAAUUUAAAAAAAGAGAGGAAAAGCGAGAAAUUCGCAAAAGCGCUCGAGAAAAGUCAAGAUCAGACCAAGAGAAAACUCGAUAGCAAAAGCGUGGAACGCGCAAAAGCAAUCUACAAAAGUAAAGGUCAGGUCAAGUAAAAGCAAGUCAUAAAAAUGGUC'
p228
aF0.8193384223918575
aa(lp229
S'Hard Y and a bit more'
p230
aS'AAAAGUGUCUGUAGUUGCAAAAGCAGAGAUCUCGCGAUAAGAUCAAAGGAUCAAGCGUGAAAAAGCAUCCAAGUAGUGAUGUACGAAAAAAAAAAAAAAAAAAAAA'
p231
aF0.9716981132075472
aa(lp232
S'Mat - Lot 2-2 B'
p233
aS'GAAGGGAAGAUAAGGCAAAAGCAAGGUGAAAAGAAAAGUCAAGUGUAAGAAAAAUCAACUCGAAUCAAGCAAGCGCAAGCAAAAGCAAUACGAACCAAAAGUAAAAACGGAAUGAAAAUCAAGCGCAAGCGCAAGGAAGCAAAAGCGCAAGAGAAAGCAAAACCUAAAUCAAAGGAAAAAUCAUGUGUAAGAAAAACCAACCCCAGGUAAGCAAGCGCAAGCAAAAGCAGGAUGAAGCAAAAGCCAAAGCGCAACAAAAACCAAGCGGAAGCGCAGCGAACAGC'
p234
aF0.8098591549295775
aa(lp235
S'Shapes and Energy'
p236
aS'AAAAAAGAGUAGUCCUCUAAACGGAGAUCCGAGCCGCGCUCAAAUGAGGUCGAAAAAAACAUGUAAUCAUGACUCUGCUCAAAAAAAAAAAAAAAAAAAAA'
p237
aF0.9603960396039604
aa(lp238
S"Spiral of 5's"
p239
aS'CUAAAGUUAGAACAAUAGUAAGAUAGAAAAAAUUGAAAGAUAAAAAGAUCGAUGAUAGAAAAGAUUGAAAGAUAGAAAGAUAGAAGAUACAAAGUUAGAAAAAUAGAAGAUAGAAAGAUAGAAGAUAGGAGGUAGGAGAUCUAGGAUAGGGGGAGAGAUUGACAUCAAAAAGAUGUAAAAACGAUCAAAAACUUCCAAAAACUAUCAAAAAGGAUCAAAAACUAUCAAAAACUAUCAAAAGCUAUCGAAAACUAUCAAAAACUAUUAAAAACUAACAAAAAGUAUCAAAAGCUAUCAAAAACUAUCAAAAAUAAUCAAAAGCUAUCUAAAACGAUCAAAAAUUAUCGAAAAUAGUUAAAAACUAUUAAAAUCUAUUAAAAAUUAGCAAAAUGAAAAA'
p240
aF0.9949622166246851
aa(lp241
S'Campfire'
p242
aS'AAAAGAGCAAUACAGAAGUUCAAGAUCGAAAAGAGGCAUAUCGAAGAUAGUGUCUCGGGAGCAUCACCAUUGGGGAAACUACCGGGGGGUCACAGCAUCAGCAAAAGCGAGCGAUGAGUGGAAACAACUAGCCAAGUAGGACCUAGCCCUAUAGGGUCAGAGUGAGCCUGAAAAGGCCUCCUGGAGUCAUUAAGAAUAGGACCCUCCUGCUC'
p243
aF0.8490566037735849
aa(lp244
S'Anemone'
p245
aS'AAACGAGUCUAAUGAUUCGGUUGAUAAUUCAACCGCAGCAAAGGCUGUGGACGCAAAGGCGUCGAUAGCGAAAGCUAUCCACAGGAAACUGUGGCAAGAAAGCUUGCCUUAUCGAAAGAUAAGAGGCGCGAAAGCGCCGUCCGCUAAUGUGGACCAGCGGAAACGCUGCAUAGUAAAGACUAUGGGGACUAAUGUCCCGUGUUCGGAAGAACGC'
p246
aF1.0
aa(lp247
S'Fractal 3'
p248
aS'AAAAAGAGCUGUGUGCGAAAGUGCAAAAGCUCGCAGAGGAAAAAAUUUAAAAAUGACUCGCCGAAUAAAUGUCCAAAGGGACGGAGUAAGAAAAAUCAAAAAGUUACUCUGUGUAAAAA'
p249
aF0.8991596638655462
aa(lp250
S'Kyurem 5'
p251
aS'AAAAAUUAGUUGACCUAAUAACAUCAAACGGUUUGCCUAAGUUAAAAGGUCGAUCACGAAAAAGCGUAGCUCGAGUAAAAUAGAGAAAAAAAAAAAAAAAAAAA'
p252
aF0.9326923076923077
aa(lp253
S'Snowflake Necklace ( or v2.0 )'
p254
aS'GUGUUAUAUAUAUUGGUAUCGAGGAAAAGCCAUCAAAAAGGAGAGAAAAUCAGCAAAAAGCAUCAAAAAGGACGAUAAGUGGAAAACGCGGAUGGAGCAAAAAGCAGCAAAAAGCAGCGAAAAGCGGCAAAAAGCAGGAAAAUCCGCUAUCAGGAAAAAAUCCGGAUAGGGUAAAAAGCAUCAAAAAGGAUUAAAAAGAAGCAAAAAGCGGCAAAAACCACUAUCAUACGAAAAGUGAGAUUGUUCAAAAAGAAGGAAAAAGCACCAAAAAGCAGCAAAAAGCAGUAAAAAGCUCAAUCAGAGAAAAACUCAGCAAGAUCAAAAAGCAGCAAAAAGCAUCAAAAAGCAUUAAAAAGAAUCAAAAAGGACUUCCACAAUAUAUAUAACAC'
p255
aF0.8920308483290489
aa(lp256
S'Methaqualone C16H14N2O Structural Representation'
p257
aS'AAAAAAAUAGCAAGUCACAAGGAUUAAUAUAAUAGCGAGAAAGCUCAGGGCCAGAAAACUAAGAGAUGGAAAACUAAGAGAAAAAAUCUCACUUAUGCACACUUCCAGAAACAGCUUAGAACUAAGCGGAGAAAGCAAAGCAAAAAAAACACAGGGAACGAAAAUUCGGGUAAUCGUGACAAAACACCCUAGCAAAGACAGGAAACAGAGAGAGAGAGAUAGGGGGUAAGGACAAAACACAUUCAGUGUAAUCACGCUAAAAGAAAACUGGCUCACACUAAUCGGACUUAGAGUGCAAAAGUGCGGUAAUUUGAGAUAAAACUCCUCACUCAUGUCAAUGAGCGGAUGAAAAAAA'
p258
aF0.8450704225352113
aa(lp259
S"Cat's Toy 2"
p260
aS'AAAGCGUAUAGCAAAAUAGGCUAAGAAAAAAAAAAAAAAUCAAUGGAAGCAAAAGUAAAUGUAAGCAGAAAAAAAUAAAAAAAUGGUUAUGUGAAAA'
p261
aF0.9587628865979382
aa(lp262
S'Zigzag Semicircle'
p263
aS'AAAGUAGGGCUGAUAAAAGUAAAACUCAUAAAAA'
p264
aF0.9411764705882353
aa(lp265
S'Short String 4'
p266
aS'AAAAAAUCAGCGUGCAAUUAUUAGGAGCAAAGGCUUAAGUAAAAUUAAGUAAAGGCCGGGAAAAAUGGGCUACCGGAAAAAAAAAAAAAAAAAAAAA'
p267
aF0.9175257731958762
aa(lp268
S'Gladius'
p269
aS'UAAAAAAAGAAAGGAAAGAAGAGAAGGAGGACAGUGAAAUAUCAAAGGAUGAGAUAGAAACGAUUUGGGAUCAAGAGUUCAGAAGGUAUAUCAGACAUGAUAUAGAGAUCAGAUCUAGAGUAAAACUCUGAUACGAUCCAUAUACAGUGUCGAGUAUACCGAUAGAGUAACGGAUUAACUCUCAGAGCUAUCACACAAAGAGUGAGGCAGAAGAGACGAGAUGAUUUGAUCAGAAGAUACAGAGAUAUGCUAUCGAGAAAACACAGGGAUAUCAAAAGAUAUCAAUUGGGCUUUACCGAUACCAUAUGACUGUAUCAGAAGAUCUCAAGAUCGGAGCUCACAAGCCUCUGAUUAAAAGAUUAAACUCAGUCAAACGACGCGGCGAAUAAAACAAAAAAAU'
p270
aF0.905
aa(lp271
S'Thunderbolt'
p272
aS'GGGAAUGAAAAAAAAAACAGCAAGAAGAAAAGGAAAACAGUUAUGGCUAAAAAAAACAAAAAAAGAUCGAAAAGAUCAAAAAAUGAAAGCAAGCAAAAAAAUAAGAAAAAGCAAAAAGCGAGUAAAAAGAAAACAGUUAAAAAACAGAAAAUGAGGCAUAAAGAGCAACUAAAAUUGAGAUCAAAUAAAAAAAUAGGAGCAAAGCACAGAAAAAAAAGAAAGAUCAAAAAAAAUAACAAAAAGGUUUCAAAGAGAUCAACAAGCAAAAAAAAAAAGCAAGCAAAAAAAAAUAAACAAAAGCUAUCGAAAAAGGAAAAAAACAAAAACAAUAGAACGGGAAUGUCAUGGCAAAAAAAACAUCAAGCAGAAAAAUAAAAAAAGACUCACAAGCA'
p273
aF0.9438775510204082
aa(lp274
S'Mutated chicken feet'
p275
aS'AAAAAAGAGAUCAGCAAAGCGGCAAAGCAAAGAGCAUUAGGGGCGAACCGGCAAAGCAAACCAGAGGACUAACAAGGUGCUGAAACAAAAGCCAAAAAAA'
p276
aF0.84
aa(lp277
S'Chicken Tracks'
p278
aS'AAAAAAAAGGUUGAGCUAGAAAACUAGAAGAUCGAAAGGUCGAGGUCAAAAGAUCCUCAAUCAAGGGCGAGAAACUCGAAGAUCAAAGAUCAAGUCGGAACGACCCCAAAAAAAAA'
p279
aF1.0
aa(lp280
S'Looking Back Again'
p281
aS'GAAGAGGGCCAGAAAAAUAUAUCAAAGAUAUGACUGGAAUAGUUCAACCGAAACGCGGGUGAUAGAAAGGUCUAAUGACCAAAACUAUUUACGGAACUCAAGAUCGGCAAAAAGAUAGUAAUCUAUCAAAAAAGCCGUUAGCUAUCAAAGAUAGCUCUCAAAGAGAGCUAUAGCGAAGAAGAAGAAGAAUAAUAUAAAAAUAUGAGGACAACCGGCGCGCUCAAAAGAGAACUAUAGAAACUAACGAUCAGAUAGAGAUCAAAAAUAAUAUGGAAAAAAAAGAUCAAAAAGAUCCCAUAAAGUUUGAUCGAUCAAAAAAGGGUUGUCGAAAGAUAACAAGAGAGAAACGAAGUAGUAUCUACUAACUCUCGAAAGAGCCUAUUGAAUUC'
p282
aF0.910025706940874
aa(lp283
S'Multilooping 6'
p284
aS'AAGAGGGGGGUAUGAUAAUUCAUGGAGGGGAAAUUAUCCGCUUCGAUUGUAUUUAACUCGACGAAAGUGUCGCAGCCCUCGA'
p285
aF0.9146341463414634
aa(lp286
S'Cesspool'
p287
aS'UAUGAAUUAAUGAAGUGAAGAAAAGGAAACUUAACAACAACUCAACGGUAAAAAAAGAUGAGGAAAUAAAAAAAAGAAAACAACAACAAGGAGAAGAAAAUAACAGAAGAGUGUGAAACAAAUCAAUAACAGAAGGAGAAAACAACAAAAGAAAAUAAUAAAAAGAAAACAACAAAAAGAAAGAAGAAAACAAGAGGAGAUAGGGAAAGCUAGAAACAACUCGAGAAGAAAACAACAGAAGAAAACAACAAAAAAGAAAUAACAAUGAAACAAGAACAAAAGAAGAGAAAAUACAUUAUAACAACAAUAAAUCUAGAUGAAAACUACAGAAGAAAACAACGAAAAGAAAACAACAAGU'
p288
aF0.7653631284916201
aa(lp289
S'Hoglafractal'
p290
aS'AAAAGCAAGAUAGAAAAGUUAGAAAAAACUAACCUGUCGAGCAAACAACAAAAACUUCGUUUGAGAAGAGAAAACUCCUCAGAGAAAGGGCAAACACCAAAAAAGGUGGCCAGUGAACAGAAAAACUCCACGGAACAAAAGUCCAGAUCAAAAGAGAAGAGAAAAAACUCCUCGUAGCAAAAAGCGUCAGAAAACUCGCAAAGGAAAAGCAGCAAAAAAGACUGUGAAAAACACGAAAAAUCAGAUAUCAAAAAAGAGGAAAAACUCGUAAAAGGCAAAGAUAUAGAAACUAUAUCAAAAAAAGAUAUCAAAAAACUUUGAAAAAGAUCAAAACUUAAAGCAAGGAACUGCAGAUCAAAUGCGAAAGCCCGAAAGGGAUAUCAAAGAUAUCAGAUCGCUC'
p291
aF0.91
aa(lp292
S'Bullseye'
p293
aS'AAUGGACUGGAAACUGGAAGGUCGACGAGCAAUACCAAGCGUGUCAUAAAAAUGUAUCAAAUAUGUGGAAUUGGUAUUCAAGACAACAAAUAAGAUAAAAAAAAAGCGCAAGAAACUUGAUUAUCGAACCUCUAGCUGGAAUGACCGUAAAAAAAAUAUCUAUGAAAUAGAAGAACAAAGAGCGACCUCAUGCGCGAGGAGA'
p294
aF0.7574257425742574
aa(lp295
S'Shooting Star'
p296
aS'GAUGUCGGUCUAUAUAGUAUAAGGGGCAGAGAAAAAGAAAAGUACUUAUCUCAGACAACUAUCUAUAUGAGCUAGAAGAUAAGCUGAGAGUUAGAAUGAGAUCAGUUAAUGACGAUACCAUCACAGAGCUCUGACAAACGACGAAAACAAUAUCGUGACCUAGGUACUAUCACAUACGAAGUAUGGUUGAAAAUCAGCACAGGCCAGAUCAAUUCAAACUUAUAGAAGCUAUAGGGGAUCACAUCUAAAGAAUGGUCGAGGAACUUUAUCAGCUAGAAAGUGGUGAUCAAUCAAUAAAGAAAAGAAGGAGAGAGAGAGCUUAGUAAAAGUCAAGCCCUCACAACAUCACAAUGAACAGAUAUCA'
p297
aF0.8131868131868132
aa(lp298
S'Teslagon'
p299
aS'AAAAAGGAGAAAAAAUCUGCAAAAAAAGCCACAAAAAAAAAAAAAAAGUAAAAAAAAAGAAAAAAAAAAAAAAAUCGACUGAAAAAGCUUGGAAAAAAAGCAAAAAAAAAAAAAAAACAAAAAAAUCAACUAAAAAAGCUUCAAAAAAAAAAAAAAAGAUAAAAAAAAACUAAAAAAAAAAAAAUGAAGAAAAAAAAGCAAGAAAAAAAGCAAAAAAAAAAAAAAAGCAAAAAAACCAGCAAAAAAAGGAGCGAAAAAAAAAAAAAAGAAAAAAAAAAUCAAAAAAAAAAAAAAAGAAGCAAAAAAAGCCGGGAAAAAAGAUAAAAAAAAAAACUAAAAAAAAAAAAAAGGGGUCAAAAAAACCGGAAAAAAAAUAAAAAAA'
p300
aF0.9057591623036649
aa.