(lp0
(lp1
S'Simple Hairpin'
p2
aS'GAUACAAAAAAGUAUC'
p3
aF1.0
aa(lp4
S'Arabidopsis Thaliana 6 RNA - Difficulty Level 0'
p5
aS'GAUAUAGAGAUCAGAAAAAAAAAAACUGCUAGUAUCGGCGAGUAUAGAUAGAUAUAGAAAGAUACAAAAAAGUAUCACUAUAUACUAUCUAUACUCGAAGAUACUAGAACUAUAUC'
p6
aF1.0
aa(lp7
S'Prion Pseudoknot - Difficulty Level 0'
p8
aS'GAGAUCAGAUCGAAAGAUCGAUACUCAAAAAAAAAA'
p9
aF1.0
aa(lp10
S'Human Integrated Adenovirus - Difficulty Level 0'
p11
aS'GAUCUAGUAUUGUGAGAUAUCGAAAAAAAAAUGAUCCGGGCGACCCAUGAGCACGUCUAAAGCGAUAGACAUUGGAAAAAAACGAUGUUUAUAAACCGCGAUGUAAAAGCUGUCAAAGGCCCGAAAACAUACGAAAAAAGUAUGUGAUCUAAAAAAAAAAAGAUAUCGCACAAAAAAUGCUGAACGAUCAAA'
p12
aF1.0
aa(lp13
S'The Gammaretrovirus Signal - Difficulty Level 0'
p14
aS'AACGCACCGAGUCAAAGGACUCGAGGAGAAAAAAGUUUAAGAGAGGUCUGGUGAAAACGCCGGAACGACCCUCAAACAGGAUAGAGCGAAAGCUCUAUCAA'
p15
aF1.0
aa(lp16
S'Saccharomyces Cerevisiae - Difficulty Level 0'
p17
aS'GACAGUUUUCGAAAAAAAGCGAAUAUGAAAAAAAAAAAACAGUUGAUUAGGCUAAAAAUGCUUGGACUGUCAAAAGACUUAGAAGAGGUAAAAAAUCCUCAGGAAAAAAAAAAAAAUCUAGAUCUACGGAAAAAAUGUAGCUAGGUCAAAAGUUCUUGUAGGGGUAAAAAAUUCUCGAUAUCGAAAAAAGAUAUCAACCGUUACAAAAAAGGUAACCAAGAACGAAUAGUUUAGAAUCCUGAAAAAAAAGGGGAUAUCAAAAAAGGAUAUCUAAACCACUAGAAAAGAGUGGCUAAAUUUAAUGGUAUACAAGAUGAAAAAAAGCAUCCAGAUCGAAAAAAGAUUUGAAUUGUGGAUAAAAAUUCCAUGUAUACCUAAA'
p18
aF0.9736147757255936
aa(lp19
S'Fractal 2'
p20
aS'AAAAAGAUAUAGCAAAGAUAUAGUUCAAGAGCAAAAAAAAAAGCUCGAGAUCAAAAAAAAAAGGUCAAGAUGAAAAAAAAAACAUCAAGAGCUAUAUCAAAGAUAUAGAUCAAGAGCAAAAAAAAAAGCUCAAGAGCAAAAAAAAAAGCUCAAGAUGAAAAAAAAAACAUCAAGAUCUAUAUCAAAGAUAGAGAUCAAGAGCAAAAAAAAAAGCUCAAGAGCAAAAAAAAAAGCUCAAGAUGAAAAAAAAAACAUCAAGAUCUUUAUCAAAGCUAUAUCAAAAA'
p21
aF1.0
aa(lp22
S'G-C Placement'
p23
aS'CUAGAAGCUAGA'
p24
aF1.0
aa(lp25
S'The Sun'
p26
aS'GGCAAAGAUUCAAAGUGUAACUUGUCAAGGACAUGGACAUAAGGUGUAACUAGUCAAAGGCAUAGAUAGAAAGUAUAACUACUCAAAGUCAGAGACAUAAAAUGUAACUCGGCAAUGAAAGAGGUUCGAAGUAUAACUCUUCUAAGAUAGCUGGAUAAAAUCUAAAUGGUUGAAGACAGCAAUCCAAGAUGAAACGCGUCAAUGACAGAGCUACAAGGUAUAACUCUUCUAAGUCAGAGACAGAAACUGUAACCCGAC'
p27
aF0.8178294573643411
aa(lp28
S'Frog Foot'
p29
aS'GAAAAAAAAAGAUCGAAAGGUCCUCGUAAUCGAGCUGGGAACCAG'
p30
aF1.0
aa(lp31
S'InfoRNA test 16'
p32
aS'GAUAUCGGAGAUAUCGAAAGAUAUACUACGGAUAUC'
p33
aF1.0
aa(lp34
S'Mat - Martian 2'
p35
aS'GAUCGAAAGAUCAAAGCUAUAGAAGAUAUAGUAAAAAUCUAUAUCCUAUAGCAAAGAAGUAUCAAAAAAGAUAUAGAGAUAGAGAAAAAAACUUUAUCCUAUAUCAAAGAUAUAGAUAUAGCAAAAAAAGCUAUAUACUAUAUCAAAAAAGAUACUUCAAAGAAGUAUAGAUAUCAAAAAAAGAUAUCUAAGUACUUCAAAGAUCGAAAGAUC'
p36
aF1.0
aa(lp37
S'square'
p38
aS'GAGAUAGGGGUACAAGUACCUAGGUCGAAGAUCUGAAAUGGUACUUAAACGUACCCAAAACUAUCUC'
p39
aF1.0
aa(lp40
S'Six legd turtle 2'
p41
aS'AAAAAGCAAAGCGAAAGCAAAGCGAAAGCAAAGCGAAAGCAAAGCGAAAGCAAAGCGAAAGCAAAGCGAAAGCAAAGCAAAAAAAAAAAAAAAAAAAA'
p42
aF1.0
aa(lp43
S'Small and Easy 6'
p44
aS'UACGUUAAAUGCAAGGGAAAAAAAAUGGUG'
p45
aF0.9333333333333333
aa(lp46
S'Fractile'
p47
aS'AAAAAAAAAAAAGCGAAAGCAAAGCAAAGCGAAAGCAAGCAAAGGAAAACCGAAGCAAGCGAAAGCAAAGCAAGCGAAAGCAAAAAAAAAAAAAAAAAAAAAAAA'
p48
aF1.0
aa(lp49
S'Six legd Turtle'
p50
aS'AAAAUUAAAAAAUGAAAAUAAAAGAAAAGUCAAAAUCAAAAGGAAAAGUUAAUAUAAAAUGAAAAUGGAAAGGGAAAUUAAAAGCUCAAAAAAAAAAAAAAAAAA'
p51
aF0.9619047619047619
aa(lp52
S'snoRNA SNORD64'
p53
aS'GAUAUCAAAAAGACAAAAGACAAAGAUACAAAAAAAAAAAAAGUAUCGAAAGUCAAGUCAAGAUAUC'
p54
aF1.0
aa(lp55
S'Chalk Outline'
p56
aS'AAAAAGAUGAGAGACGAAAGUACUCAAUCAGAUGAAAAUCGAUGGAUCCCGAAAGGAGAUCAGCCAGGAAACUGAGCCAUCAAAGAAAAAAAAAAAAAAAAAAA'
p57
aF1.0
aa(lp58
S'InfoRNA bulge test 9'
p59
aS'GCUAUAUAGAGCGUGAUUUAGAAAGCUAGAUCCCCGUAUAGU'
p60
aF1.0
aa(lp61
S'Tilted Russian Cross'
p62
aS'AAAAACGUAGUACGAAAGUACGGGUAGAUCGAAAGAUCGUUAAGAAAUUAGCACGUUAAAGGACGACCCCGUCGAAAGAUGUACGAAAAAAAAAAAAAAAAAAAA'
p63
aF1.0
aa(lp64
S'This is ACTUALLY Small And Easy 6'
p65
aS'GAAAAAAAAAAAAAAAAAAAAAAAAAAAAAAAAAAAAAAAAAAAAAAAAAAAAAAAAAAAAAAAAAAAAAAAAAAAAAAAAAAAAAAAAAAAAAAAAAAAAAAAAAAAAAAAAAAAAAAAAAAAAAAAAAAAAAAAAAAAAAAAAAAAAAAAAAAAAAAAAAAAAAAAAAAAAAAAAAAAAAAAAAAAAAAAAAAAAAAAAAAAAAAAAAAAAAAAAAAAAAAAAAAAAAAAAAAAAAAAAAAAAAAAAAAAAAAAAAAAAAAAAAAAAAAAAAAAAAAAAAAAAAAAAAAAAAAAAAAAAAAAAAAAAAAAAAAAAAAAAAAAAAAAAAAAAAAAAAAAAAAAAAAAAAAAAAAAAAAAAAAAAAAAAAAAAAAAAAAAAAAAAAAAAAAAAAAAAAAA'
p66
aF1.0
aa(lp67
S'Shortie 4'
p68
aS'GCGAAAGCAGCGAAAGC'
p69
aF1.0
aa(lp70
S'Shape Test'
p71
aS'AAAAAGGGAUGAAGAUACAAAAAAAAGUAUCAAGACAGACAGAUACAAAAAGUAUCGGAUCGAAAGAUCAGUCGUCAACAUCGCAAAAAAAAAAAAAAAAAAAA'
p72
aF1.0
aa(lp73
S'The Minitsry'
p74
aS'GCCAAAAAGACAAAAAGAGAAAAGGACAAAAGGAAAAAAAAAAUUCAGUCACUCAGUCAGGC'
p75
aF1.0
aa(lp76
S'stickshift'
p77
aS'AUGAUGUCAUGAAAAAUCGAUAUCUA'
p78
aF1.0
aa(lp79
S'U'
p80
aS'AAAAAGAUAGAGAGAGCAGAGAUAUAGAGAAAACUCUAUAUCCGCCCCUAUCAAAAA'
p81
aF1.0
aa(lp82
S'Still Life (Sunflower In A Vase)'
p83
aS'AAAGAUCACGAUUUGAAAAAAGCUAACGUAUAAAAUACGAAAAUGAAAAAAUCAUUGUGUCAGUAUCAUACUAGGUAAAAAAAUUACUAUGAGCCAAAAAGGCUCCGAGUUAGAUAUAGAUAUAGAUUCGAUAAAAAAAAUUAUCAGAUACGAAAAAAAAAAAGGAUGAAAAAAAAAAAAAAAAAAAAAAAAAAAAAAAAAAAAAAAAACAUCAAAAAAAAAAAAAGUAUCGAAUCAAAGGAUUCAGAAUCUAUAUUUAUAUCUAAUUCCAGGUUCAAAAGGGAUCAACAAUCGAAAAGAUUGAAAACGUAAAACGCGUUAGGAUAGUAAAUCUGUCGAGACCCGAAAGGGUCGUGAUUCGAAAAGAGUCUGAUAGAA'
p84
aF0.9788359788359788
aa(lp85
S'Quasispecies 2-2 Loop Challenge'
p86
aS'AAAAAGGUCCUAGGGCUAGAAAACUAGAACUAGAGAUGGGCAAAGAAUAUCAAUAGGGCGGCAAAAAAAUUGAAGAACUAUGACCAAAAAAAAAAAAAAAAAAAA'
p87
aF1.0
aa(lp88
S'Corner bulge training'
p89
aS'AGAUAUCGAUACAAAGUAUCAAAAGAUAUCA'
p90
aF1.0
aa(lp91
S'Spiral'
p92
aS'AAAAAGAUCAGAUAUCAGACAGAUACAGAUCAGAUCAGCAGCAGCAGCAGCAGCAAAAAGCGCGCGCGCGCGAUCGAUCGUAUCGUCGAUAUCGAUCAAAAA'
p93
aF1.0
aa(lp94
S'InfoRNA bulge test'
p95
aS'GAAAAAAAAAAAAAAAAAAAAAAAAAAAAGGACAAAAAAGGACAAAAGGACGAAGGACGGCGAGAAGAGAAAAACUACUACUACGAAGUACCGAAGUACCAAAAAGUACCAAAAAAGUACCA'
p96
aF1.0
aa(lp97
S'Worm 1'
p98
aS'AAAAAAAGGGGGGGAGAACAAGUCAAAAGUCUAGUACAUGCGCGC'
p99
aF1.0
aa(lp100
S'just down to 1 bulge'
p101
aS'AAAAAGGACAGAUACGAAAGUAUCAGACGAAAGUCAGUACCAAAAGAUGAGACGAAAGUCAGACGAAAGUCACAUCAAAAAAAAAAAAAAAAAAAA'
p102
aF1.0
aa(lp103
S'Iron Cross'
p104
aS'AGACAGACAAAGGGACACAAAGUGAGACGAAAGUCACCCAAAGGCACACGAAAGUGAGGCAAAGCCAGCCAAAAGCACACGAAAGUGAGACGAAGUCAGCUAAAGUCACACAAAGUGAGUCGA'
p105
aF1.0
aa(lp106
S'loops and stems'
p107
aS'AAAAUGAUAUAGAAAAAUGAAAUAGUAAAGGCCGAAAAAAAAAGUGCAAAAAAAAAAAAGCGCUAAAGGUCCAAAGAGCAAAAAAAAAAGUUUAAAGCUAGAACACUAAAAAAUGUGAAACAUUAAACAAAAAAGUGAACUAUAUCUAAAA'
p108
aF1.0
aa(lp109
S'Water Strider'
p110
aS'AAAAGUCAGCAAGGGUUAAGCAAAGGCUAACGAAAUUUAGCCAGAGGCAGACUAAUGUUGAAUAAUGUUAUGCACAAGCGGGAAAAAAAAAAAAAAAAAAAAA'
p111
aF0.9611650485436893
aa(lp112
S'The Turtle(s) Move(s)'
p113
aS'AAAGCGAAAGCAAAAGAGAUAUAGAAAAAAAAACUAUAUCUCAGAACUAGAAAAACUAGCCAAUCACGAAAGUGCAAGCAACAAAAAAAGUUGCAAAAAGCAAAGCGAAAGCAGAAACACGAAAGUGAAAAGAUAUCAAAAAAAGAUAUCAAAAGACGAAAGUCAAAAAGAUAUGAAAAGACUAAAAAUGUCAAGGCGAAAAAAAGCCGAAGAUGCAAAAAAGCAUCGAAGCUGAAAAACAGCAACAUAUCAAAAAAAAAGUGAAAACAGAACCCAAAAGGAAAAAAGAUACAAAAAAAAAAGUAUCAAAAAAGCU'
p114
aF1.0
aa(lp115
S'Adenine'
p116
aS'GAUACAGAUAUCAGAUAUCAGAAAUCAGAUAUAAGAUAUCAAAAGAUAUCAAAAAAGAUAUCAGAUAUCGGAUACAAAGAUAUAGAAACUAUAUCGUAUCAUAUAUCAGAUAGAUAUAGCAAAGCUAUAUAAACUAUCAGAUUUCAAAAGAUAUCAAAAGAUAUCAAAAGUAUC'
p117
aF1.0
aa(lp118
S'Tripod5'
p119
aS'AACACCCACAGAAAAUGUGGAUGGAAAACGUCGGUGAA'
p120
aF1.0
aa(lp121
S'Shortie 6'
p122
aS'GCGAAAGCAGCGAAAGCAGCGAAAGCAGCGAAAGC'
p123
aF1.0
aa(lp124
S'Runner'
p125
aS'AAAAAAUUGAAGAGAAAACGAAGAACUUUCACUCUGAAGAUGAAGGUUGUCCUAAAAACCUGGGGGCAAAGCUAAACCCAAUCAAACAGAAGGAGUAAUCUCACUGGCGGUAAAAA'
p126
aF0.9827586206896551
aa(lp127
S'Recoil'
p128
aS'AAAAAGAUACAAGCAAGCAAGACAAGACAAGCAAGCAAAGCAGCAGUCAGUCAGCAGCAGUAUCAAAAAAAAAAAAAAAAAAAAA'
p129
aF1.0
aa(lp130
S'[CloudBeta] An Arm and a Leg 1.0'
p131
aS'AAAAAGACAGAGACGAAAGUACUCCUCAGCGAAAGCGAGAGUCAAAAAAGAAAAAAAAAAAAA'
p132
aF1.0
aa(lp133
S'[CloudBeta] 5 Adjacent Stack Multi-Branch Loop'
p134
aS'ACAACGACCGAAAGGUCGGAUGGAAACAUCCGAUACGAAAGUAUCGUGCGAAAGUACGUUGUA'
p135
aF1.0
aa(lp136
S'Triple Y'
p137
aS'AAAAAAAUCGGACGACGUAAAGAUAAGUCUAAUGACUCUUCGAUGCUUCGAAAGACGUCUGGAAAUAAGCGACGGUUAAAAAAAAAAAAAAAAAAAA'
p138
aF0.9175257731958762
aa(lp139
S'Misfolded Aptamer'
p140
aS'GAUGAAAAAAGGGCCUAUGGCGGCAAAAGCAAAAAAAAACCAAAAGCAUC'
p141
aF1.0
aa(lp142
S'Flower power'
p143
aS'AAAAAAUUGGUACAAGAUCUAGGUGCCUGUCUUAAGAGCAGCAACGGUGAAUUCCAAGGCUACAACGAGAUAAAGUCUUAAGAAAAAAAAAAAAAAAAAAAA'
p144
aF0.9215686274509803
aa(lp145
S'Kudzu'
p146
aS'AAAAUCGCUUUUUUGGUCCAAAAAAAGAAAUAUUAAUGGGAUGCAUAUGGACAUCAAGACAAAUUCAAAGUCUCUUAUGCGUAAAAAAAAAAAAAAAAAAA'
p147
aF0.9405940594059405
aa(lp148
S'"1,2,3and4bulges"'
p149
aS'AAAAAGGACAGACUCGAAAGAAAAAGUCAGACGAAAGUCGGUACCAAAAGGGCAGGCGAAAGAAACCAGACGAAAGUCAGCAACCGAAAAAAAAAAAAAAAAAAA'
p150
aF1.0
aa(lp151
S'medallion'
p152
aS'GAUAUCAACAUACUAAUGUAUGUAGUGGAAACCUAAUAAAAAUAUAAAAUACGAAAGUAUUUAAUGAAAACAUGAGAUACAAAGGUAUCUAAUGAAAACAUAAUGAAAACAAAACGGACAAAGCUCUGUACUGAAAACAGUACAUGUGAAAGUAUGUUAUGAAAACAUGAUGAAAACAUAACAUGCGAAAGCAUGUAAUCAAAACAGAACGGAUGAAAGUCCGUGCAGAAAACUGAAUUAAAAGAUAACAUUCGAAAGGAUGUAAUGAAAAACUAACAUACGAAAGUAUGUGAGCAAAACCUAAAGGAAACAUAACAUACGAAAGUAUGUAGAUAUC'
p153
aF0.857566765578635
aa(lp154
S'[RNA] Repetitious Sequences 8/10'
p155
aS'AGCGAAAAAGCAAAAAAGCAAAAAAGCAAAAAAGCAAAAAAGCAAAAAAGCAAAAAAGCAAAAAAGCAAAAAAGCAAAAA'
p156
aF1.0
aa(lp157
S'Documenting repetitious behavior'
p158
aS'AAAAAAAGCAAAAAAAAAGAAAAAAAAAAGGAAAAAAAAAGCAAAAAAAAACUAAAAAAAAACCAAAAAAAAAACGAAAAAAAACUAAAAAAAAAACAAAAAAAAAGCAAAAAAAAAUCAAAAAAAAAGCGAAAAAAAACCGAAAAAAAAGUAAAAAAAAACCGAAAAAAAAUCGAAAAAAAAGAGAAAAAAAGGGAAAAAAAAACCAAAAAAAAAUCGAAAAAAAAGGGAAAAAAAAGGAAAAAAAAAACGAAAAAAAAGGGAAAAAAAAGCGAAAAAAAAGCGAAAAAAAAGCGAAAAAAAAGUAAAAAAAAAAGAAAAAAAAUACAAAAAAAAGGCAAAAAAAAAGGAAAAAAAAAGAAAAAAAAAACCAAAAAAAAAUCAAAAAAAAAGCAAAAAA'
p159
aF0.97
aa(lp160
S'7 multiloop'
p161
aS'AGUAACUUGGAAAAGUGUGGUAUGAAAGUACCGGCGGAAAGCGGUUGGCAUAAAAAUGCUGACGUAAAGAGCCUGUGUGUGAUCGCGUGAAU'
p162
aF0.8913043478260869
aa(lp163
S'Kyurem 7'
p164
aS'AAAAUCUUGGUCGAGAAAACUCGAGAAAAUAUGUGAGGAAAAUUUUGCUAGGGAAAAAUUUAAAGCGCAACCCUAUCACAUGUAAAAAAAAAAAAAAAAAAA'
p165
aF0.9411764705882353
aa(lp166
S'JF1'
p167
aS'GAUGUAGAAUGAGAUACAAGAUACUAAAGAUAUCAAGAUACAAAGAAUCAAGAUAUCAGAUAUAGAUAUAGCGAAAGCUAUAUCUAUAUCAAGACGAAAGUCAGAUAUAGAGAAAACUCUAUAUCAAGAUACGAAAGUAUCAGAUAUCAGAUUCAGUAUCAGAUAUCAAAGAUAGAUCAAAAAGAUACUAUCAAGAUAUAGAUGUAUAGAUAUAGAUCGAAAGAUCUAUAUCUAUACCAUCUAUAUCAAAGACACAAAAAAGUGUCGAUAAUAUAGUAAUCUAUAUUAUCAGAGAUAAAAAUAUCAUGUAUCAAGUAUCAGAUCAGACAGACUAAUGUCGUCGAUCAGAUGCAUAGAAAACUAUGCCAUCACAUUACUACCAUCAAA'
p168
aF1.0
aa(lp169
S'multilooping fun'
p170
aS'UAAUGGGGUGAGGGAAAAAACUUAAAGGAAAACAGG'
p171
aF0.8055555555555556
aa(lp172
S'Multiloop...'
p173
aS'GAACAGAUGAGACGAAAGUCGGACGAAAGUCAGACGAAAGUCAGACGAAAGUCAGAUGAAAGUCAGACGAAAGUCACAUUAGCGACAAAAAAGUCGCCCGAAAGCGGGUUC'
p174
aF1.0
aa(lp175
S'hard Y'
p176
aS'AAAAUGAUGUAGGGGAGUGUAAAGGCGCUCUACGUUUUUUUAGUCUAAUGAUUAAAAGACGACUAAAA'
p177
aF0.9705882352941176
aa(lp178
S'Mat - Elements & Sections'
p179
aS'AAAAAGAUCGGAAUGGAGGGAGAAGUCAACAGAUCAUCGAUGAAAACGUAGUAGAUCGAGGAACAAAACGCCCUGCUAACAGAUCGAAAAAAAAAAAAAAAAAAA'
p180
aF0.9619047619047619
aa(lp181
S'Chicken feet'
p182
aS'AAAAACAAGAAGCGAAGUCAUAAAAAAAGUUCGAUAAUCACAUAUUGGGGGCACUAAAGGUAGAAAA'
p183
aF0.9402985074626866
aa(lp184
S'Bug 18'
p185
aS'ACCGCCAGAAGCAAGCAGACACCAAAGGAAGUAGCAGCAAUCAAGGAAAAGGA'
p186
aF1.0
aa(lp187
S'Fractal star x5'
p188
aS'AAAAAGAUAUAGUAAGAUUGAAAGAUCAAAAUCGAAAGAUUAAGAUCGAAAGAUCAAGAUAAAAAUAUCAAACUAUAUCAAAAAGAUAUCGUAAGAUCGAAAGAUCAAGAUCGAAAGAUCAAGAUCGAAAGAUCAAGAUAAAAAUAUCAAACGAUAUCAAAAAGAUAUAGGAAGAUCGAAAGAUCGAGAUCGAAAGAUCAAGAUCGAAAGAUCAAGUUAAAAAUAACAACCUAUAUCAAAAAGUUAUAGUAAGAUCGAAAGAUCAAGAUCGAAAGAUCAAGAUCGAAAGAUCAAGAUAAAAAUAUCAAACUAUAGCAAAAAGAUAUAGUAAGAUCGAAAGAUCAAGAUCGAAAGAUCAAGAUCGAAAGAUCAAGAUCGAAAGAUCAAACUAUAUCAAAAA'
p189
aF1.0
aa(lp190
S'Crop circle 2'
p191
aS'UACAUGGAAAGUAUAAAAGUGUCAAAAAUAUAGAAAAAAAAAAAAAAAAAAAAAAAAAAAGGCUAAAAAAAAAAAAAAGCGAAAUAAAUUAAAAAAAGUCAAAAUAAAAA'
p192
aF0.9636363636363636
aa(lp193
S'Branching Loop'
p194
aS'AUUUAGGAAAAAAACCUAGGAAAUCAGAACAAAGAAAAAA'
p195
aF0.95
aa(lp196
S'Bug 38'
p197
aS'UGCGGGUAGAAGAAUAAAAAUCGCUUUCCGAAAGUU'
p198
aF0.9444444444444444
aa(lp199
S'Simple Single Bond'
p200
aS'AAAAAAGAAAAAAAAUGAUCAAAAAGAUUUAAAAAAAGCAAAAAAAAAAAAAAAAAAAAAA'
p201
aF1.0
aa(lp202
S'Taraxacum officinale'
p203
aS'GAGCGAAAGACUCAGAGCGAAAGACUCAGAGCGAAAGACUCAGAGCGAAAGACUCAGAGCGAAAGACUCAGAGCGAAAGACUCAGAUAUAGAUACGAUAUAGAUACAAAGUAUACUAUAUCAGAUACAAGAUAUAGAUCAAGAUAUAGAAACUAUAUCAGAUCUAUAUCGAUCAGAUAUCAAAGAUAUCGAUCGUAUCAAAGUAUCUAUAUCAGAGCGAAAGACUCAGAGCGAAAGACUCAGAGCGAAAGACUCAGAGCGAAAGACUCAGAGCGAAAGACUC'
p204
aF1.0
aa(lp205
S'Headless Bug on Windshield'
p206
aS'AGCAAGAAAAAGCAUCAAAGCAAUGAAAAAAAAAAAAAAAAAAAAAAAAACAUAGCGAAGAUAGCAAACUAGCAGGCAAGACAAGCAAAAAAAGCGAAAGCAAAAAAAGCGUCAAAAAAGCCAGGGCCAAAAAAAGACAACACGCAGGGGCAGAGAAAAAAAAAAAAAAACUCAAGCAACUGAAUGAGUCAAGGAACCCG'
p207
aF1.0
aa(lp208
S'Pokeball'
p209
aS'AAGUAUAUUGAAAAGCGAGAAAGAUAAGAACUGAAUAAUGUGAGUAACAAAACAAGCAAACUUGAAACCUCGAUCAUCAGCCGAUAUAAAAAAAAAUAGAUAAAAAAGGUAGAAGGACAAGGAACCUGGAGCGAAAGCAAGGAAACUAGCGCUCAUCUGGGAUCAGUCAUCUUCUUAUCUAAAA'
p210
aF0.9782608695652174
aa(lp211
S'Variation of a crop circle'
p212
aS'AAAAGUAAAAAGAAAAGCUCAAACAGGCGGCAAAAUGAAACAAAAUCGAAAAUGUGAAAAAACUAAAAAAAAAACAAAAAAAAAAAAA'
p213
aF0.9545454545454546
aa(lp214
S'Loop next to a Multiloop'
p215
aS'AAGUUAUAGCAAAAAAAUUGCUAGCGAAAGUUAGCGAAUUUAGGAAACUAGGUUGGGAAAAAGGCUAUAACAA'
p216
aF0.9726027397260274
aa(lp217
S'Snowflake 4'
p218
aS'GGUCGAAGACCUGAUCUGGAAACUCUCGCAAGAUAUGCGAAAGCGAGAGCUUCAAGGGGCAAGAGCUAUGUUCCCCCCACAAAGGUGUAUCGAAAUACGCGAAAGGCGCGGUAGCGAAGCUAAAGAUGAAACAUCCCGCGGCGAAAGUGUAUUAAGAGACACGAAAGGCGAGAUAGCAAAGCUAAAGAUCUAUGAUCUCUUGUGUAAAAAGUCUCAAGUUACCCGAAAGGCGACGUGGAGAAUUCAAAGACCAAAGCUCCGUCGCUGAAAGGGUAGCAAGGUUGGCGAAAGCGAGGCGUUGAAACAAGAAUUUCAAGGAAAACCUCGGGAAAGCUGACCAAGCUAGGAGAAAUCCAAUAUUAGAAGCUAG'
p219
aF0.9081081081081082
aa(lp220
S'Mat - Cuboid'
p221
aS'GAUGAAAAAGGGUCCAAACUUGAGCGAAAGAACUGACCAAAAAAAAGUAAUGAAAAAAUUAAGUCAACCAAAAUGUAGCAGAGAAUGAAAAGCAAGCAGGGGAUCAAGCAAAAGACGCCGAGUGAACGGCAGAAACCGAGGUGCCAAGUAACGGUCCAAAAGCGGUGGAUUGGGGAACCAGCGAAAAGCGGCCAGCCGGCUGGCCAGGGUAAAAUCUAGGGAAGGAAGGAGGGAGGUCGAGGGGGCCAAGAGACGAAGCGGUACGGAAUGGGGAUCAGAGGCGAAGUGAUCGAGGAAUCGUAAGGAACUAAGCGAGCAAAGAUAAGCGGUGAUACGAAGACUACCAAGACAAGUGGCAAGAGGGGAAUAGGUGUUUCUAU'
p222
aF0.9131578947368421
aa(lp223
S'Misfolded Aptamer 6'
p224
aS'AAAAAAGAGAAAAAAGAUGAUGAAAAGACAAAAAAAAGUCAAAGCUAAAACAUCAAAAAAGCUCAAAAAAAAAAA'
p225
aF1.0
aa(lp226
S'Snowflake 3'
p227
aS'GAGCAGAAAUGAGAACCUGAAAAGGAAGCGGAGAUGAUGACGAAAGUCGGGGGCGAAAGCGGCGAAGUGUGAAAACUAAUAGUCGAAAGACAAGGUAAGAUGGACUCAAAGGGGGAGAUGGAAAUGUACAAGGUAGGAAAUCCACUCGUCGAAAGACAACAACAGAGUGAAACGAAAGUUCGGGGCGAAAGCAACAAAGUAUGGAAACAACCAGACGAAAGUCAAGCGCGGCUGAAGUCGAAAAAUCAGGGCAAAGGCUACGAAGUAUGAAAUCAACUGGCAAAAGGUCAACACCGUCCGAAUACGAAAGUGCGUUGCAAAGGCAGUAAGACAUGGAAACAAACGAACGAAAGUUAACAGAACUUCAAAACGAAAGUUUUCAGCGAAAGCCUC'
p228
aF0.8346055979643766
aa(lp229
S'Hard Y and a bit more'
p230
aS'AAAAAAAUAUCUACAUAGGAAACUAUCGGGGCUCAGGGGAUGUCAACGGAUAGACAUACAAAAAAGUAUGAACCAUGAGCGUAUUAAAAAAAAAAAAAAAAAAAAA'
p231
aF0.9716981132075472
aa(lp232
S'Mat - Lot 2-2 B'
p233
aS'GAGGGUUAUGUGAUCUAAAAACGAGGACUAAUGUAAAAGGAAGAGGUGCGAAAACGAGGCCAAGGCAAACGGGGCCGACCAAAAGAGAGGAGGGUCAAAAGCGAAAGCGGAACUAAAAACGACCUGAGGCACGUACAAUCGAAAGAGUAGCGCGGGGAAAAAGCGGCGAGGAAACUAAAAUGAAGCACAAACAAAAAGAAACGCAAGCAACUAAUUGGGGGCAAAAGUAGAGAGGGUCAAAAAGGAAACUGAAACUAAAAGCAGAUGAAACCGCAAGAAACAGU'
p234
aF0.8485915492957746
aa(lp235
S'Shapes and Energy'
p236
aS'AAAAAACGUUGAUGAUGCAAAUUAAGAGCUCGAAAGUGUUCGAUAUUUUAAACAAAAACAUAGGAAACUAUGUGGAAUAUAAAAAAAAAAAAAAAAAAAAA'
p237
aF0.9603960396039604
aa(lp238
S"Spiral of 5's"
p239
aS'UGAAGGAUACAAAGAUAGAAAGAUAGAAAGGAUACAAAAAGAGAAAGUUACAAGUGACAAAUGAAUUGAAGAGAGAAAGAUGGAAGAUACAAGGAUAAAAAGAUAGAAGAUACAAGGAUAGAGUAUACGGGAUACAAGAUAAUAGAUAUAGGUGUAUAAAGCGAGGAAAAAUCUCGGAGAACUUUGAAAUAACACCAAAAAAUGUCAAAAUUUAUCGAAAAGUAUCAAAAAGUAUGAAAAACUAUUAAAAGGUAUCAAAAACUAUCAAAAAUUAUCAAAAAGUAUCGAAAGCCAUCAAAAACUCUCAAAAAAAUUCUAAAAGUCGAAAAAAGUGACAAAAACUCUUAAAAAGUAUCAAAAACUAUCAAAAGCUAUCAAAAAGUAUCAAAAAAAAAAA'
p240
aF0.9949622166246851
aa(lp241
S'Campfire'
p242
aS'AAAAGUGCAAGAUGCAAAAUUAUCAUCUCAAUGAUGCGGAUAAAAUGUCCCGAAUCCAGAGCACGAGGAGUGGCGUAAGUAACCUCCCGAGACAUCAGCAUGAAAGCAGUGAGAGAAGACGAAAGUACUACUCAAGAACUCGCUACUGGCAUCCCGGGAUAGUCACAUCAAAGGAUGGGCAUCGGCACUAGAAGUUCUUUUGGCACGGGCGC'
p243
aF0.9150943396226415
aa(lp244
S'Anemone'
p245
aS'AACGAAAUCAAAGGAUUUCCAACUGAAAAGUUGGUCGUCGAAAGAUGGCGAUCUGAAAAGAUCGUCAUGGAAACAUGACGACACGAAAGUGUCGAUACGAAAGUAUCGUUAACUAAUGUUAACAAUAUCGAAAGAUAUGAUAUCGAAAGAUAUCGUAACGAAAGUUGCCAUGUCAAAGGAUAUGCAUACAAAGGUAUGGAUAGCUAAUGCUAUC'
p246
aF1.0
aa(lp247
S'Fractal 3'
p248
aS'AAAAAGAUGAGCGAGCGAAAGCGCGAAAGCACGCGGCCAGCGAAAGCGCGAAAGCAGGCAGACAGCGAAAGCGCGAAAGCAGUCAGACAGCGAAAGCCUAAAGGGAGUCACAUCAAAAA'
p249
aF1.0
aa(lp250
S'Kyurem 5'
p251
aS'AAAAGUACCGACAAAGAAAUUUAAAAAAAAGCGCAUAAAAGGCAAAAGGUCGCUCGACAAAAAACGUGGGCGUUGGUCAAGGUGAAAAAAAAAAAAAAAAAAAA'
p252
aF0.9134615384615384
aa(lp253
S'Snowflake Necklace ( or v2.0 )'
p254
aS'GAUAUUGAUAUUGAGAGAUGCUGCAAAAAGCCUUAAAAAGAUAGAAAAACUUGCUAAAUCCAUAUAAAUCACGCAGUGGAUAAAAAAUCACGUACAGCAAAAAGAUUGAAAAACAAUGAAAACCAAAUAAAAAGUAUGAAAAGCAAGCAUCGGGCAAAAAGUCAGAUACAGCGAAAAGUAUGAAAAACAAAGAAAAACUACGAAAAACGAAGUAAAUCUAGUGUCAGAGAAAAACUCAGAAACACCAAAAAGCCUGAAAAACAAUGUAAAUUAGGCAAAAAGUAUGAAAAACGAGUAUGAGUGAAAAACACAGACACAGCAAAAAGCAGGAAAACCUGAGGAAAACUAUUAAAAAAAAUGAAAAACAAGUGUUAUUUAAUAUCAAUAUC'
p255
aF0.8200514138817481
aa(lp256
S'Methaqualone C16H14N2O Structural Representation'
p257
aS'AAAAAAAGAUGAGAUUAGAGAGACGAAAGUCACAGAUCCGAAAGGAAGAGAGACUAAUGUCGGAGGUUCGAAAGGAUGGCAAAAAAGGCCACUCAUUCACUGGUUUUGGAACUGAACAGAUAAAAGAACAUAAAGCAAAUCAAAAAAAGAAGAGGUGAACGAAAGUUGCCGAAAGGGUACGAAAGUAGCGGGCAAAGAUGAGAAACCGACAGAGACAGAGUGAUAAAAAAGCCGAAAGGCAUAGGGAGGCAAUUCACACUGACGAAAGUCUCUGAUACGAAAGUGACUCAGAGUAGGAAAUUAUACGAAAGUAAGACGAAAGUCCUCAGUGACAUCAAAUAUCACAUCAAAAAAA'
p258
aF0.9126760563380282
aa(lp259
S"Cat's Toy 2"
p260
aS'AAAAGCUCUUUCCAAAGCAAGAAAAAAAAAAAAAAAAAAGCAGAGUAAGAAAAAUCGAGAGGAAACUAAAAAAAACUAAAAAGGCGGAAGAGCGAAA'
p261
aF0.9381443298969072
aa(lp262
S'Zigzag Semicircle'
p263
aS'AAAGGUUUGGUCGGGAAAAGGGUUACGAGCAAAA'
p264
aF0.9411764705882353
aa(lp265
S'Short String 4'
p266
aS'AAAAAAAUAGUGAACAGGAUAUGGUAGGUAAUUCGCAAAAAAAUUCGUCUGAAAGGUAGGCAUGAGCGGUAAGCAUAAAAAAAAAAAAAAAAAAAAA'
p267
aF0.9587628865979382
aa(lp268
S'Gladius'
p269
aS'GGAAACAUAUAAAGAAAAAAAAUAAUGAAGUCUGUCAAAGAUCGAAAGAUCAGAUACAACGGACAAGAGCUGAAGUUAUCAAGAGAUGUAGCAAAUAGCAGAAGACUAGCAAAGCAAGAUCUAUGAUCAGCUAAGCUAUACUUCGACUAUUGACUAUAUCAACAGGUAUUCACGGCAAUGGUCAAGAGUAUCAGACAAAGACAGAAUCAUGAGACAGAAGCGUAAAUGGUCGGAAGAUGUAGAGAGAUGAAAGACAGAUGGCAAGAAGGAAACAAAGGUUUCCAAUCUGACCAUACGUUUGAUAUUUACCUAUAUCACAAUACUUCUAGCGCGCAAGUCAGGACAUUCAAAAGGAAAUUGUAAAGUCUGACAAAAGAAGUGAUGAACAAAUAUAAAAAAU'
p270
aF0.885
aa(lp271
S'Thunderbolt'
p272
aS'UGAAGAUAGAAAAAAAGGGGCAAGUCGAAAAACAAAAGGGAUAUUUCAAAAGAAAACGGAAAAAGAUGGAAAACAUUGAAAAACGGAAGCACGGAAAAAAAUGGCAAAAAGGAAAAAUCGGCGAAAAACAAAGGAGAGUAAAAAGAGAAAAAAGUCCAAUAUUAGGUAUAAAAACACGGAUGAAAUCGAAAAAGGGCGAGAAACUAGAACAAAAAAAAGGGCGUCAAAAAAAAACACAAAAGGAUAUCAAAGAUAUCACGAAGAAGAAAAAAAAACCUAGCAAAAAAAAAUUACCUAAUGCGGGACAAAAUCGAAAAAAAGUAAAAGUCUCGAAGGUCAAAGAGAUGACAAAAAAAAUCGGAAGCGCAAAAAGAAAAAAACAUUAUCCACAA'
p273
aF0.9693877551020408
aa(lp274
S'Mutated chicken feet'
p275
aS'AAAAAAAGGACGAGGAAACUAGGAAGACGAAUGUCGCCAAUAGGGAACGAAAAAAUCAAAGUGCAGAAAGUACAAAGUUGUAAAUCAAAUAUCGAAAAAA'
p276
aF0.9
aa(lp277
S'Chicken Tracks'
p278
aS'AAAAAAAAGGUAUGGGGGCAAAAGCUCAAAAUCAAAGGAUUAAGAUAGAAAUAUCCUAUACCGAGCCCAGGAAGCCUGAAGAACGAAGUUCGACCGCAAAGCGGGGCAAAAAAAAA'
p279
aF1.0
aa(lp280
S'Looking Back Again'
p281
aS'GAGAAAACGUUGAAAAUGGUAUCGAAGAUACCACAGGAAUACCACAACGGAAAUUGGUGAGAUAUAAAGAUCGAAAGAUCAAAUAUAUCGAGUGAAGUCGUUGUGGUAAAAAAGAUUCGAAAGGAUCAAAGAACACGAUAAUGUAAAAAAUAUGUAGACAAAGUUUGGAGUUCUUAAGAAAAAGGGCAAGGGGUAGGAAACUAUAACGGAACUAGUAAGGACGAAAGUCCAGAAUUCAAAUAACUCACAUCUAGCAGACGGAAAAAUAGAUACUAAAAAAAGAUCAAAAAGAUUGUAUAAACUGACGUCGAUCAAAAAACCCGAGUCGAAAGACUCGAACGCCGAAACAAUCUAGAAACUAGAAGGAGGGAAAAGAUCGCUAGAAACUC'
p282
aF0.9331619537275064
aa(lp283
S'Multilooping 6'
p284
aS'AUUAGCUCACGAUACGAAAGUAUCGAUACAAAGGUAUCAUGGACUGUACAAAUGUGUACACAUGAAAAUGUGGUCAUUUAUA'
p285
aF0.926829268292683
aa(lp286
S'Cesspool'
p287
aS'GAAGAAGAAAGCAACGCGGCAGAGAGAAACUCAGCAAGAAAUGAGUAGGAAAAAAGGAGGGUGAAAAAAUAGAAUGGAAACUACAAUAAGGGUAAAAAAAUAAUAGGGCAAAGUCAAAGACAAUAAGAACUGAAGGGGAAAACAAUAAAUGAAAACACUAGAAUUAAAAGUAAAACAACCGGUAAAGAAAUAAGAGGGGAGAGUGAAAUACAACAACAAAUGAAGGGGAAAGCAACAGGGUGAAAAAACAGAAUUAAAAAAAGAAGCAAUCGGGAAAAAAAUAAGGGGACAGGGGCAAAGUCAACAAGGACCCAAGGUAAAAAGUAUAUGGUGAAAAAAAAGAAUUGAAAGAGAAAGG'
p288
aF0.776536312849162
aa(lp289
S'Hoglafractal'
p290
aS'AAGGGUAAGAGACAAAAGAGUCAAAAAAGGUUCGUCUAGAUAAAAGAUCUAAACCCUCUAUCGACAAGACGAAAGUCGUCAGAGAAACAUGAAUUAUCAAAAAAGAUGUAUCACAAAGACAAAAAGUCUGUGUAGCGAAAGCACAAUAGAAAAGACGAGACAAAAAGGGUUUCGCAGCAAAAAGCGCGAUAAAAGUCAGAUAGAAAAAGCAGCAAAAAAGCGUGACGAAAAGUCUGAAAGCAAGAUACCAAAAACGACAAAAAAGUCAGAGAAACAGAAGAUAUAGAAACUAUAUCAAAAAAAGGUAUCAAAAAACUAUCAAAAACUAUAAAACUCAGGGCAACAAAGAUGACAUCAAAAGCGAAAACGGGAAACAUGUAUCAAAAAUACAGGAUCCAAC'
p291
aF0.915
aa(lp292
S'Bullseye'
p293
aS'AAGAAGAAGUAAGGUUCAAGCACAAGGGGUAAUACCAAGGGUGCAUAAAAAAAAGAACAUAAAAAAUGAGGAUCAAAGGUCAAGAUAGAACAUGUUCAAAAAAAAUUAGAGGAAAUAUCAAGAAGAAGCUUCGAGCUCAAGGUGCUACAAAAAAAUGUCCAAAAAAGCCCAAGUUCAAGGAAGAAGAUGGAAUGUCGACUAA'
p294
aF0.8613861386138614
aa(lp295
S'Shooting Star'
p296
aS'ACAUACUGCCGAUAUAGAAAGAGGGUCAAUAAGACAGCGAAAGACGUACUAUUGCAAACCAACUAUAUCAGAUUUUUCAGGCUCAAUCAGAUGCAGACAGAUCAGCGAAAGACGAUACGUCGAUAUUCGAUAGAAAACGUUAAAAAAUAGGAGCUAUACAUGCGAAGCAUGAGUUACAAGGUAGCGAGAAAAUGCCUAUAAGGCAAGAUGAGAUCAAGGCUAUGGGAACUAGAGCAGGAACAAAGUUUCGCUCGCGGUAGCAGCGAUGUCAGAUCAAAAUUAUCCAGCUUGCAAGAAAAGCCGUAGGGGAAGGGACAGAUAAUAGAAAGGCGAUACGACACGAGAACAGAACGCAAAGUAUGUA'
p297
aF0.7774725274725275
aa(lp298
S'Teslagon'
p299
aS'AAAAAAGCAAAAAAAGCAGCAAAAAAUUCGAGAAAAAAAAAAAAAACCUAAAGAAUAUCAAAAAAAAAAAAAAAAAGAGCUAAAAAAGCUAGAAAAAAUGCAAAAAAAAAAAAAAGGUUAAAAAAUCUUCAAAAAAAGCAUGAAAAAAAAAAAAAAACGAAAGAAUAACUAAAAAAAAAAAAAAAGGAGCAAAAAAACCGCCAAAAAAAGCGAAAAAAAAAAAAAAACAAAAAAAGGAGUAAAAAAUGGAAGAAAAAAAAAAAAAAACUAAAGAAUAAGGAAAAAAAAAAAAAAACCAGCAAAAAAAGCUUCAAAAAAAGGAAAAAAAAAAAACGAAAAAAAAAAAAAAAUGACCGAAAAAAGGUGCAAAAAAAGCGGAAAA'
p300
aF0.8952879581151832
aa.