(lp0
(lp1
S'Simple Hairpin'
p2
aS'GAUACAAAAAAGUAUC'
p3
aF1.0
aa(lp4
S'Arabidopsis Thaliana 6 RNA - Difficulty Level 0'
p5
aS'GCGAUGCAAAAGAGGAAAAAAAAAACUCGACGUGUCAGGAUAUUAUAAUAUCAUAUCAAAGAUACAAAAAAGUAUCGGAUAUGAAUAUUAUAAUAUCGGGACACGUCAAGCAUCGC'
p6
aF1.0
aa(lp7
S'Prion Pseudoknot - Difficulty Level 0'
p8
aS'GAGGUCAGAUCAAAAGAUCGACACUCAAAAAAAAAA'
p9
aF1.0
aa(lp10
S'Human Integrated Adenovirus - Difficulty Level 0'
p11
aS'CAGGGAAUAAUAUCUGCUAUGGAAAAAAAAAGUAGGCGCGGCGUGGCUGACGCUUAUAGUACUUAGUGAUUUUUUAAAAAAUAGAAAUCAUUAACCAGCGUGAGAAAUCGUGUGAAACUCGCGAAAGUUAGUUAAAAAUGCUAACUCUAAAAAAAAAAAAAUGUAGCUGAUAAAAAUUAUUCAAAUCUGAAA'
p12
aF0.9583333333333334
aa(lp13
S'The Gammaretrovirus Signal - Difficulty Level 0'
p14
aS'AAGAGAAACUAUCUAAUGAUAGUGGCGCAAAAAAGGUUAAGACAGAUUCUGUUAAAAAACAGCAAAGAUCGUCAACCAAUGGAUAUCAAAAGAUAUCCAGA'
p15
aF1.0
aa(lp16
S'Saccharomyces Cerevisiae - Difficulty Level 0'
p17
aS'ACGUGGGCUAGGGAAAAAACUAGGAGCUAAAAAAAAAAAAUCUAAAAGCUGGCAAAAAUCCAGCCCCACGUAAAAAUGAUGCCAGAUCAAAAAAAGGAUCGCCGAAAAAAAAAAAAGGCAAACGUUGGAAAAAAGCUAGCGCAUCAUGAAUGGGUUGCAAGACGGAAAAAAACGUCCGGGCCGAAAAAAGGCCUGAAAAGCCAAAAAAAAGUUGGCGCAACCCUAAAGAGAUAGAAGAUCUAAAAAAUGAUCCGAGUCUAAAAAUGACUUGAAAUGGUAGGAAAAAACUAUCCUAUCUCGAAAGCGAUUAAACACCAAAAAAAGGGUGCUAGUUUAAAAAUGACUAGAAACGGCAAGAAAAAAUUGCCUAAUCGCGAAA'
p18
aF0.9947229551451188
aa(lp19
S'Fractal 2'
p20
aS'AAAAAGCGGUGUGAAAAUACUAUGGUAAGAGUGAAAAAAAAAACUCAAGAGCUAAAAAAAAUGCUCAAGCUCAAAAAAAAAAGAGCAAGCCAUAGUGUGAAGGCGGGUCUAAAGAACAAAAAAAAAGGUUCAAGAGCAAAAAAAAAAGUUCAAUACCAAAAAAAAAAGGUGAAUAGACCCGCUGAUUUCGUGUAUAUAGAGCAAAAAAAAAAGCUCAAUAGCAAAAAAAAAAGCUGGAGCGCAAAAAAAAAAGCGCAUUAUACACGGGUAAUACACCGCAAAAA'
p21
aF1.0
aa(lp22
S'G-C Placement'
p23
aS'GUCGUAUCGAUA'
p24
aF1.0
aa(lp25
S'The Sun'
p26
aS'GACAGCGGCGCAAAGCGCAAUGCGUCAAAUGGAGGGGAGCAAAGCUCAACUCCAGAAGCCAAGCGGUGGAAGCCGCAACGCGAGAAUCUCAGCGGAGGGAAUCUCAACGCAAGUAGUUUAGCGGCGUUAUGCUCAACGUAAGAAUCUUAGUGGAGCAAAGCUCAAAGCAAGUAGCUCAGCUGAGCGAAGCUUAAGGCGAGAAUCUAAGCACGGGUAUCCCCAACGCGGGUACCUAAGCGGGAUGAAGUUCAACGCUAG'
p27
aF0.7674418604651163
aa(lp28
S'Frog Foot'
p29
aS'AAAAAAAAAAGGGCUAAGGCCUGAACUAAUGUUCGCGGUAUCCGC'
p30
aF1.0
aa(lp31
S'InfoRNA test 16'
p32
aS'GCUAUCUCGGGACACAAAAGUGUCACCUGUGAUAGC'
p33
aF1.0
aa(lp34
S'Mat - Martian 2'
p35
aS'GAUCAAAAGAUCAAAGAGAUGCAAGCGAUGCAAAAAAAGCAUCGCGCAUCUUAAUGCAUAGAGAAAAAAGCGAUUCAGCGAUGCAAAAAAAGCAUCGCGAAUCGUAAAGAGAUUACGAGAUCAAAAAAAGAUUUCGCUAAUUUCAAAAAGCUCUAUGCUAUGAAUAUGAUUUGAUAAAAAAGAUCAGAUAACAUAUUCUAAAGAGAAAACUCU'
p36
aF1.0
aa(lp37
S'square'
p38
aS'GCGAUGCCGGUGCCGGUGACCGAGUCAAAGACUUGAAAAGUCACCGAAAAGCACCGAAAAGCAUCGC'
p39
aF1.0
aa(lp40
S'Six legd turtle 2'
p41
aS'AAAAAGAGAAGGAAAACCAAAGCAAAAGUAAAGCGAAAGUAAACCAAAAGCAAAGAAAAAGCAAAUGAAAGUGAAAACGAAAAAAAAAAAAAAAAAAA'
p42
aF0.9387755102040817
aa(lp43
S'Small and Easy 6'
p44
aS'GCCGCGAAAAGCAACCGAAAAAAAAGGGGC'
p45
aF1.0
aa(lp46
S'Fractile'
p47
aS'AAAAAAAAAAAAGCGAAAGCAAAGCAAAGCAAAAGCAAGCAAAGGAAAACCAAAGCAAGGAAAACCAAAGCAAGCGAAAGCAAAAAAAAAAAAAAAAAAAAAAAA'
p48
aF1.0
aa(lp49
S'Six legd Turtle'
p50
aS'AAAAAGCAAAACGUAAUCGAAAGGGAAAGUCAAAACCGAAUGGAAAACCGAAAGGUAAUCCUAAAGGUAAAGCAAAGGCAAAAGUAAAAAAAAAAAAAAAAAAAA'
p51
aF0.9619047619047619
aa(lp52
S'snoRNA SNORD64'
p53
aS'GCUAUCAAAAAGAGAAAAGAGAAAGAUAGAAAAAAAAAAAAACUAUCGAAACUCAACUCAAGAUAGC'
p54
aF1.0
aa(lp55
S'Chalk Outline'
p56
aS'AAAAAGAUCAGAGGCUAAUGCACUCAAUCAGAGAAAACUCGAUAGCUGCCAAAAGGACAGCAGGGACAAAAGUCACCGAUCAGAGAAAAAAAAAAAAAAAAAAA'
p57
aF1.0
aa(lp58
S'InfoRNA bulge test 9'
p59
aS'GCGAUGCAGAGAGUACGAUGCUAAUGCAUCGUCCCGCAUCGU'
p60
aF1.0
aa(lp61
S'Tilted Russian Cross'
p62
aS'AAAAGGGUGGGGGGAAACUCCGGGCAUACUGAAAAGUAGCUACAAAAGUAGCAGAUCAAAGGAUCGCCCGCUCUAAUGAGCCACCAAAAAAAAAAAAAAAAAAAA'
p63
aF1.0
aa(lp64
S'This is ACTUALLY Small And Easy 6'
p65
aS'AAAAAAAAAAAAAAAAAAAAAAAAAAAAAAAAAAAAAAAAAAAAAAAAAAAAAAAAAAAAAAAAAAAAAAAAAAAAAAAAAAAAAAAAAAAAAAAAAAAAAAAAAAAAAAAAAAAAAAAAAAAAAAAAAAAAAAAAAAAAAAAAAAAAAAAAAAAAAAAAAAAAAAAAAAAAAAAAAAAAAAAAAAAAAAAAAAAAAAAAAAAAAAAAAAAAAAAAAAAAAAAAAAAAAAAAAAAAAAAAAAAAAAAAAAAAAAAAAAAAAAAAAAAAAAAAAAAAAAAAAAAAAAAAAAAAAAAAAAAAAAAAAAAAAAAAAAAAAAAAAAAAAAAAAAAAAAAAAAAAAAAAAAAAAAAAAAAAAAAAAAAAAAAAAAAAAAAAAAAAAAAAAAAAAAAAAAAAAAAA'
p66
aF1.0
aa(lp67
S'Shortie 4'
p68
aS'ACGAAAGUAGCGAAAGC'
p69
aF1.0
aa(lp70
S'Shape Test'
p71
aS'AAAAAGAUGUCAAGUUAGAAAAAAAACUAAUAAGACAUUCAGAUACAAAAAGUAUCAGGAGAAAACUCCAGAAGUCAAGACGGCGAAAAAAAAAAAAAAAAAAA'
p72
aF1.0
aa(lp73
S'The Minitsry'
p74
aS'GAGUAAAUGCUUAAAUGAUAAAAAGAGGAAAAGAGAAAAAAAACUCACUCGAUCUAGCUCUC'
p75
aF1.0
aa(lp76
S'stickshift'
p77
aS'AAGCGAUCCCAAAAAGGAGAUUGCAA'
p78
aF1.0
aa(lp79
S'U'
p80
aS'AAAAAGAUACAGAGAGCAGAGCGAUGUAUAAAAGUACAUCGCCGCCCGUAUCAAAAA'
p81
aF1.0
aa(lp82
S'Still Life (Sunflower In A Vase)'
p83
aS'AAAGCGCAAGGUCCGAAAAGGGGUUAAUUGCGGAGAGAUAGCAACCGAAAACCUUGAAUGGGGAAUCCCCAAAUCUUCAAAAAGAGGGAACGGGGAAAAGCCCACAAAUAGUAUCACAUGAUAAGAUACUAUACAAAAAAGUAUAAGAUAGAAAAAAAAAAAAGCAUUACCCCCCCCCCCCCCCCCCCCCCCCCCCCCCCCCCCCAAAGAGUGAGAAAAAAAAAAAUUGUCGGAUCGAAAGAUCCAGUGUCUUAUCGUGUGAUAUUAUUAAUAUACAAAAAGUAUGAAACAGCAAAAAGCUGUAGGUAGGAAAAAACUAUAGCUAGCAAAAAGCUAGAACAAUUAAAGCUAAGCACCUGCGAAAAGUGGGGUACAAAA'
p84
aF0.9391534391534392
aa(lp85
S'Quasispecies 2-2 Loop Challenge'
p86
aS'AAAAAAUUAGCUGUUGAUAAAAGUAUCUUUAGCGGUUAUUGAAAUUUCAAAAACUCUCGUACUGAAAAGCGGAACUUGGGUUGCUAAAAAAAAAAAAAAAAAAAA'
p87
aF0.9619047619047619
aa(lp88
S'Corner bulge training'
p89
aS'AGCUAUCGAUACAAAGUAUCAAAAGAUAGCA'
p90
aF1.0
aa(lp91
S'Spiral'
p92
aS'AAAAAGAUCAGCUAUCAGACAGAUACAGAUCAGAUCAGCAGCAGCAGCAGCAGCAAAAAGCGCGCGCGCGCGAUCGAUCGUAUCGUCGAUAGCGAUCAAAAA'
p93
aF1.0
aa(lp94
S'InfoRNA bulge test'
p95
aS'AAAAAAAAAAAAAAAAAAAAAAAAAAAAAGGGCAAAAAAGGGCAAAAGGGCAAAGGGCUUGGGCAGGGCAAAAAGCACCAGCACCUUGCACCGAAGCACCAAAAAGCACCAAAAAAGCACCA'
p96
aF1.0
aa(lp97
S'Worm 1'
p98
aS'AAAAAAAGUCGGGCGGGGAAUUAAAGAAGAAAUAAGUAGAAAGUC'
p99
aF0.8666666666666667
aa(lp100
S'just down to 1 bulge'
p101
aS'AAAAAGGGCAGAUACAAAAGUAUCAGAGAAAACUCAGCACCAAAAGAUCAGAGAAAACUCAGAGAAAACUCAGAUCAAAAAAAAAAAAAAAAAAAA'
p102
aF1.0
aa(lp103
S'Iron Cross'
p104
aS'AGACAGAAAAAGGCACUCAAAGAGAGCGAAAACGCAGCCAAAGGCACUCAAAAGAGAGACAAAGUCAGCCAAACCCACUCAAAAGAGAGACAAAGUCAGGGAAAUUCACUCAAAGAGGGUCAA'
p105
aF1.0
aa(lp106
S'loops and stems'
p107
aS'AAAAACGCUGAGAAAGAUCAAAGAUCAAAUGGCAAAAAAAAAGAUAGAAAAAAAAAAAACUAUCAAAGCCGGAAAGAUGAAAAAAAAAACAUCAAAGAUCGAGGAGAAAAAAAACUCAAGGAUCAAGCAAAAAAGCGAACUCGGCGGAAAA'
p108
aF1.0
aa(lp109
S'Water Strider'
p110
aS'AAAAAGCUUCAAAGUAGAGGUUAAUACCCUUUAAUAGCAUAGGGGGGUGAGCUAAUCUGCAUGAAAGUCAUGUCUAAGGUAUGAAAAAAAAAAAAAAAAAAAA'
p111
aF0.941747572815534
aa(lp112
S'The Turtle(s) Move(s)'
p113
aS'AAAAUAAAGGUAGAAGCAAUGUAUGAAAAAAAAAUACAUUGCAAAAGUGCAAAAAGCGCAGAGACCGUAAUCAGAAUCUAGCAAAAAAAGCUAGUAAAGUCGAGCCAAAAGGAUACACUCGAAAGAGAAAGUGCGCUCAAAAAAAGCGUGAAAAUACAAAAGUAAAAAACGAGUCGAAAGAGAAAAAAACCCGUCUCUAAAAAAUGCGUAUCUAGCAAAAAGGUUAGUAUCCAGUAAAUCUGGUAGACUUGAAAAAAAAACCGAAAGGGCAGACCAAAAGGGAAAAAGUAGCGAAAAAAAAAGCUGUAAAAAAGGC'
p114
aF0.9683544303797469
aa(lp115
S'Adenine'
p116
aS'GAUACAGCUAUCAGCUAUCAGCUAUCAGCUAUAAGCUAUCAAAAGCUAUCAAAAAAGAUAGCAGAUAGCAGAUACAAAGCGAUGCAAAGCAUCGCGUAUCAUAUAGCAGAUAGGAUAAUCAAAGAUUAUCAAACUAUCAGAUAGCAAAAGAUAGCAAAAGAUAGCAAAAGUAUC'
p117
aF1.0
aa(lp118
S'Tripod5'
p119
aS'AGGCGCCAUCUAAAUGAUGGGGUUAAAUACCCGCGCAA'
p120
aF1.0
aa(lp121
S'Shortie 6'
p122
aS'GCAAAAGCAGCAAAGGCAGCGAAAGCAGCGAAAGC'
p123
aF1.0
aa(lp124
S'Runner'
p125
aS'AAAAAGGGCAUUUAGAAAAGUGCUAUGCACAUAAAAAACAUAACAGCGCAAACUGAAAGUGGAGGUUAAAGACGAACUCAAUGACAGAGUAGAAGAAAACUUAUUAAGCCCAAAAA'
p126
aF0.9482758620689655
aa(lp127
S'Recoil'
p128
aS'AAAAAGAUACAAGCAAGCAAGAGAAGAGAAGCAAGCAAAGCAGCACUCACUCAGCAGCAGUAUCAAAAAAAAAAAAAAAAAAAAA'
p129
aF1.0
aa(lp130
S'[CloudBeta] An Arm and a Leg 1.0'
p131
aS'AAAAAGAGAGAGGCAAAAGCACUCGGCAGCAAAAGCGCCACUCAAAAAAGAAAAAAAAAAAAA'
p132
aF1.0
aa(lp133
S'[CloudBeta] 5 Adjacent Stack Multi-Branch Loop'
p134
aS'GUGGGCCUGAAAGUAGGCAUCCGAAAGGGUGACUCCGAAAGGAGUUAUCGAAAGAUACCCACA'
p135
aF1.0
aa(lp136
S'Triple Y'
p137
aS'AAAAUGUUAGACCAAUCAAAAGAUUGUCCAAAGGGGCCAUGGUACUUUGGAAACAAGUCUGAAUAUUUCGCGCUAACUAAAAAAAAAAAAAAAAAAA'
p138
aF0.9175257731958762
aa(lp139
S'Misfolded Aptamer'
p140
aS'GAUCGAAAAUGAGCUAAGAGAAAAAAAGAUGAGAACUAGACUAAAAGGUG'
p141
aF0.92
aa(lp142
S'Flower power'
p143
aS'AAAAGACUCGGAUAAAAUCUAGUGGUUUCAAAGAGAAAUUAGUAUCUAGAUCUGGGAACUGCACACGCACCUAUGAUGGAGUAAAAAAAAAAAAAAAAAAAA'
p144
aF0.9019607843137255
aa(lp145
S'Kudzu'
p146
aS'AAAAAUUGUGGAUAUCACCACGCGAGAAAAUCGGACUGGGGAGACUAUGGUCUCCAGGGGAAACCCAAAUGAGGAUUACAAGAAAAAAAAAAAAAAAAAAA'
p147
aF0.9603960396039604
aa(lp148
S'"1,2,3and4bulges"'
p149
aS'AAAAACUUAAGAUACUAAUGAAAACAUCGUGAAAAACCGAUAAGCAAAACCGGAGGAGAAAUAAAACUGGUAAAAGCCGCUAACGGAAAAAAAAAAAAAAAAAAA'
p150
aF0.9428571428571428
aa(lp151
S'medallion'
p152
aS'GAUAUGCAGUGGCAAAAGACCUAAUAGAAAACUCACUCAAAAGAGGCAAGCCAAAAGGCUUGAGUCAAAAGACAUGAUUAAAAAGAGUUAACUCGAAAGAGACUCAAAAAAGAAGAGUCAAAAGACUUUACUUAAAAGCGACGAGUUGAAAAACUUGAAACAAAAGGUACGAAAAAUCGACUAGGCAAAAGCCUGGACACAAAGUAGACGAGUCAAAAGACUUGACGAAAAAUUCAGUCUAAUGAGACGAGUCUAAUGACGUGACUGAAAAUCGACCAGUCAAAAGACUGGACGGCAAACAAACCAAAAAUAGACGAGCAAAAAUGCUUGACAUAUC'
p153
aF0.8456973293768546
aa(lp154
S'[RNA] Repetitious Sequences 8/10'
p155
aS'AGGAAAAAAGCAAAAAAGCAAAAAAGCAAAAAAGCAAAAAAGCAAAAAAGCAAAAAAGCAAAAAAGCAAAAAACCAAAAA'
p156
aF1.0
aa(lp157
S'Documenting repetitious behavior'
p158
aS'AAAAAAUGCAAAAAAAAACGAAAAAAAAAGCAAAAAAAAUGGAAAAAAAAAGUAAAAAAAAAGGAAAAAAAAAGUAAAAAAAAUCGAAAAAAAAACAAAAUAAAAAGUAAAAAAAAAUGAAACAAAAAGGAAAAAAAAAUGAAAAAAAAAUGAAAAAAAAGAGAAAAAAAAAGGAAAAAAAAAUGUCAAAAAAAAGAAAAAAAAACAAAAAAAAAUUAGAAAAAAAAUUAAAAAAAAAGGAAAAAAAAAUAAAAAAAAAAUAGAAAAAAAACCAAAAAAAAAUUAAAAAAAAAACAAAAAAAAAUAAAAAAAAAAUGUAAAAAAAAGCGAAAAAAAGCAAAAAAAAAAACACAAAAAAGCAUAAAAAAAAGCGAAAAAAAACCAAAAAAAAAUCUAAAAA'
p159
aF0.9025
aa(lp160
S'7 multiloop'
p161
aS'GCCCGAUACUAAUGUGUCGCAUCGAAAGGUGCCAAUCGAAAGAUUGCUACCAAAGGGUAGGUUGCGAAAGCAACCUAGCGAAAGCUAGGGGC'
p162
aF1.0
aa(lp163
S'Kyurem 7'
p164
aS'AAAAGAGGGAGCAUGAAAGGGCCCUAAAAGAUGUGACGAAAAGCCUGGCGGGUAAAAUCUUAAAGCCUAUCAGGGCUACCCUAAAAAAAAAAAAAAAAAAAA'
p165
aF0.9411764705882353
aa(lp166
S'JF1'
p167
aS'GAUAGAGGCUGACUAGGAAGAUAGAAAGGCUAUCAAGAUACAAUGAAUCAAGAUAUCGCGAGGUAUAUAUUCAAAAGAAUAUAUAUCUCGAAGAGAAAACUCACGCGUAGAUAAAAAUCUACGCGAACUAGCAAAAGCUAGAGAUAUCAGAUUCCGUAUCAGAUAGCAAAGCGAGGUCAAAAAGACACUCGCAAGAUAUUAUAAUAUGAUAUUAUAUCAAAAGAUAUGAUAUCAUACUUAUAAUAUCAAAGAUACAAAAAAGUAUCCGCGAUGUUCAAAAGAACAUCGUGAAUCUAGAAACCUAGUACUAUCAACCUAGAGAUCAGACAGUGUAAUCACGUCGAUCAGCGGGGAUCAAAAGAUCCACCGCAUAGUACUCAUAUCAAA'
p168
aF1.0
aa(lp169
S'multilooping fun'
p170
aS'UCUGGGGGAAAGGGAGGAAACACAAUGAACAACUGA'
p171
aF0.8611111111111112
aa(lp172
S'Multiloop...'
p173
aS'GGUUAGAUGAGACAAAAGUCAGUGAAAGCACAGAGUAAUCUCAGAGGAAACUCAGGUGAAAACCAGGCGAAAGCUGCAUCAGGUUCAAAAAGGAACUGGGUAAUCCCGACC'
p174
aF1.0
aa(lp175
S'hard Y'
p176
aS'AAAAAUUACGUAGCGUUGUAUAAUUACGACGACAAGACGUGUCUCGAAAGAGAUACGUCAAGAGAGAA'
p177
aF0.9705882352941176
aa(lp178
S'Mat - Elements & Sections'
p179
aS'AAAAAUAGCAGGAGUUGAGGGCAUAUCGGUCGUCCCACACAGAAAACAGGGAAGAGCUGCAAUAGAAAGGCCUCAAAAACGGUUGAAAAAAAAAAAAAAAAAAAA'
p180
aF0.9619047619047619
aa(lp181
S'Chicken feet'
p182
aS'AAAAGGGAGUAGCUAUGCAAGAAGCUAAGACCGACCAGUAUCGAAGAAGCGAACCGAAGCGAGAAAA'
p183
aF0.8805970149253731
aa(lp184
S'Bug 18'
p185
aS'ACCGCAUGCACAAUACGCGCUAUGAAAAAUGCGGCACGGAACCUAGAAAAGGA'
p186
aF0.9245283018867925
aa(lp187
S'Fractal star x5'
p188
aS'AAAAAGCAGACGGAAAAUCGAAAGAUUGGGGAGGAAACUCUAUUCUGAAAGUAGAUACGAAAAAAUUCGGAUCGUUUGUAAAAACUCGCAGCGAGAUCAAAAGAUCAACUGUUAAUAUAGAACAAGAAACCUUGAACUUAUAAUUGAGAAGCUGCGGGAAAAACCCGUCGCUAGAGCUAAUGCUCAAGUUAUAAUUGACAACUUGGAAACGAGAUGUAGGAAACUAUUUGCGACGGGAAAAACGUGCAGCAAGAGCAAAGGUUCGAGUUGAAAACAGCGGUUGGAAAUCCAGAACGAGAAAAUUCGGAGCUGCACGAAAAACGCGAAGCAGGAUUAAAGAAUCAAGUCUAAAAAGAUAACUAAGAAAUUAGAGCUCUAAAAAGAGAAGCUUCGCGAAAAA'
p189
aF1.0
aa(lp190
S'Crop circle 2'
p191
aS'AGGAAGUGAAUAAAAAAGGAAAAAAAAAGAGAAAAAAAAAAAAAAAAAAAAAAAAAAAAAAUUAAAAAAAAAAAAAAAUCAAAAAAAAGUCUAAAAAAAAGAAACUAAAA'
p192
aF0.9272727272727272
aa(lp193
S'Branching Loop'
p194
aS'GUACGUAAUAAAAGAUAGCUAAUGCUGAAGAUGAAAAAAA'
p195
aF0.95
aa(lp196
S'Bug 38'
p197
aS'CGUGGCAUCAAUCAUAAAAAGGAGGAAGUAAAAAUA'
p198
aF0.9444444444444444
aa(lp199
S'Simple Single Bond'
p200
aS'AAAAAAGGAAAAAAAUGGUCAAAAAGACUUAAAAAAAACAAAAAAAAAAAAAAAAAAAAAA'
p201
aF1.0
aa(lp202
S'Taraxacum officinale'
p203
aS'GAGCUAAUGACUCGCUACAAAAGACACACGGCAAAAGACUCGGUAAUAAUCGGAGACAGCAAAGGAAAGGCGGCUAAUGGCAGAGCUAUAUAUGCGGUCGAGUAUCUAUGAUGUUUCGAACAGAUAGAAGUCGUGUAUUAAGUCUAUUAAAGAUAGGCGAAUACACGACGCUCAGAUAUCAAGGAUAUCGAUCCUAUCGAAGCAUAUGUAGCAGCCGCAAAUAAGCACUGCGAAAGACAGACUCAAAAAGACAGGGUGCGAAAGACACACGUCAAAAGAGAG'
p204
aF0.9219858156028369
aa(lp205
S'Headless Bug on Windshield'
p206
aS'UGAAGUAAAAAGGAUCAAGGCGGUGAAAAGAAAAAAAAAAAAAAAAAAAAUAUAGCAAAGAUACCGAAGCGUCCCCGGUGACAAGGAAAAAAAAGAAAACUGAAAAAAUCGUGUAAAAACGCGGAGGGAAAAAAGGAGAAGGUUGUGUUGGACAUGAAAAAAAAAAAAAAGUGAGCCCUCGCCUUCACUCAACCAACUCA'
p207
aF0.98
aa(lp208
S'Pokeball'
p209
aS'AAAGGGAUGAAAAAGUAUGAAGCAGAUCAGGCCUAGGAAGAUUCCGAGGAAAUCAGGUUUAACCUGUAAUCUCUGAUCAACUCAUCUUAAAAAAAAGCGUUUCAAAAGCAAGAAAGAGAUUAAUGCAAGGUAGAUACCGACGAAAUCAGGUUUCUCCAGCUGCCUGUCAUCAACGAAACGUAAA'
p210
aF0.9782608695652174
aa(lp211
S'Variation of a crop circle'
p212
aS'AAAACGGAAUGGUAAAACUAAGAGUGACGACGGAAUUGAGUAAAUCUAAAAACGUGAAAAAUGUAAAAAAAAAUGAAAAAAAAAAAAA'
p213
aF0.9318181818181818
aa(lp214
S'Loop next to a Multiloop'
p215
aS'AUGCUAUGUGUAAAAAAUUGAUUCCAAAAGGGAUCUGCGAAGGAAAGUCUUCGCGGGAAAAAUCACAUGGCUA'
p216
aF0.9726027397260274
aa(lp217
S'Snowflake 4'
p218
aS'CAUUAAAAAUACGCCCCGAAAAAACGAGCAGGACAAGGGAAAUCCUAGUGAGAAAAUUUCAACUAAAAACCAGGGUAGCGAAAAGGUUGACAAGAGCCACAAAAAGCUGGCGUGCGAAGCACAAAUAGUAUCUAUUCCGGCAUAAUUGGUCUCAGGAGACCCAAAAGGCGGAGCGGGAAAUCUGAAUUCAAAUCUCAUUCUGCCAAAAUGGUCUCAUAAUACGCAAAACCCAAGUCUGCAAAGCAGAAGUCGAAACGAUGCUUGCAAAAAGGGUAUUUAGAUAGGCGAAAGCCAAGCGAUCAAAGAUCAACUAGAACGUAGGCCAGCCAAAAGGUCAUCAGGCUUGAGUAAUCGGGGUGGGUAGAAUAUU'
p219
aF0.8216216216216217
aa(lp220
S'Mat - Cuboid'
p221
aS'AAACGAAAAUCAAGCAAAAUAAAGUAAAAGAACUAUGCGAAAUCAAGUUAGGAAAAAAAGCACGCAGGAAAAAGCAAUCGAGCAAGCAAAACCUGGUAUUCAGCCACCCAAAGGGCUGUUGGCUUGCAUUACAAACUAAUAGUGUGUGCUGGCCGCUAAAAGCUUAAAAUUUUAGUUUUUCCCAAAAACUUUCCGUUAGAGUUUCUUUCAAAAAAGAUUGAUUUUAGAGCUGGUCACGGUUGCUUGAGUGGGGGUUCCCGGAUCCAUGCUAGUAACGAGCCGCGGAUAUCCAUAAUUCUCGAGCGACGAUACCAUGGGGUGCCGGCAAAGUACAGGCAUGGGAGCCGUACAAGCGCAGAGAACGCGAUGGUAGGGUGGAU'
p222
aF0.6605263157894737
aa(lp223
S'Misfolded Aptamer 6'
p224
aS'AAAAAGGUGAAAAAAGAUUGAGAUAGUGUAAAAAAAGGCGAGUGCGAAAAAAUCAAAAAAACGCAAAAAAAAAAA'
p225
aF1.0
aa(lp226
S'Snowflake 3'
p227
aS'GAGCCAAAGAGAGCGCUCAAAAGAGAAGAUUUGAGGCAGAUAAAAAACAUAAGCAAAAGCGACAAAGUACGAAAACGAUGUCACAAAAGAGAACUUCUGAUCGAGGGUAAACUCCUUAGCAAAAGCAACAAAGUACCGAAAGGAAGCGUCAAAAGUCAAGAUCAGCUCAAGAAGAAAUUCCUAAGCAAAAGCAACAAAGUUACAAAGAGAUGGCUCAAAAGAGAAGAGCAGAUCAAGAGAAAGCUACUACGGGAAACCCUCAAAGACGCUAAAGUAUGGCUCAAAAGAGAAGAUCGAAUCACGACAAAAGUUGCAAGCAAAAGCUAAAAAGUACCAAAACGCUAGCCCAAAGGAGAAGAUCUGGUCAAGAGAAAACUCCGCAGCAAAAGCCUC'
p228
aF0.7455470737913485
aa(lp229
S'Hard Y and a bit more'
p230
aS'AAAAAGUGAACUAGCUACAAUGGUGGACGGGAUGCUCCUGUAUGAAAAUAUGAAGGUACUAAAAUGUACCAAGAUGCAUCAUCGCGUAAAAAAAAAAAAAAAAAAA'
p231
aF0.9716981132075472
aa(lp232
S'Mat - Lot 2-2 B'
p233
aS'UAGGGAUUGGACUAGCAACAUAAUCUGAAAAGUUAAAAAGUGUGGAGUGUGAAACCUUUCUGGGGGAAUCUUGCGCGCGCAUAAUUAACGCCUUCCAAAAUGUAAGGAGCUAGUAAAGCUUAGAGCCACCGCAUGGAAGUCAAUGCGCUGAGGUAUCGAAAAGCAUGGGCAAACGCAAAACCAGGCCCCGGCAAAACCGUGCCGUGACCAGUGUGGGGUAGCUAAAACGAGCGUAUACAAAAUCAAAAGGGUUUGGAAAACCGAGCCCUUGCGCAAGAAACAAA'
p234
aF0.7394366197183099
aa(lp235
S'Shapes and Energy'
p236
aS'AAAAACGUAUAGUCCGGAAACGAAACGGCUAGAAAUGGCUGGAGCUUUGGAUCAAAAAGGUUAUAAUUAAUGUUCCAUUCAAAAAAAAAAAAAAAAAAAAA'
p237
aF0.9603960396039604
aa(lp238
S"Spiral of 5's"
p239
aS'GAAAAGAUAGGAAGAUAGGAAGAUAGAAAGGAUAGGAUAAUAGAAAGAUAGAUGAUAGAAAUGAUAGAAAGAUAGAAAGAUAGAAGAUAGAAAGAUAUAAAGAGAGAUGAUCGAAAGAUAGUAGAUACAAGAUACAAGACACAAGAUACGGAUACAGACGAUGUUCAAAAAGAACAAAAAAUCGUCAAAAAGUAUCAAAAAGUAUCAAAAAGUGUCAAAAAGUAUCAAAAAGUAUCAAAAUCUAUCAAAAACGAUCUAAAACUUUCAAAAAGUAUCAAAAACUAUCGAAAACUAUCAAAAACUAUCAAAAACUAUCUAAAACUAUCUAAAACUAUCAAAAACUAUUUAAAACUAUCAAAAACUAUCAAAAACUAUCGAAAAUUAUCAAAAACAAAAA'
p240
aF0.9949622166246851
aa(lp241
S'Campfire'
p242
aS'AAAAGGGAGGGUCAGAAGAUCAAAGCCUAAAUGGCUACGGUAUAGUACACGUGAUCAUAGUCACCAUGAAGGGCUAAUGUCCGAUGGGCGGGCAUAAUGAGCUAAUGACGGAGCAUAGCCAAAAGCAGAAUGCAAGCAGCGAGCACACCUAUCCGUGGGGAUUCAUGUCGAAAGGUGGAAUCCGGAUCUAAUCUCUAAGUAUUCAGAGGCCU'
p243
aF0.8537735849056604
aa(lp244
S'Anemone'
p245
aS'AAAGCUAUGGAAACAUAGCGAUUCAAAGGAAUCGCGAUCGAAAGAUUGCGGAACAAAGGUUCCGUUAUCGAAAGAUAACGGUACGAAAGUACCCUGCCGAAAGGCAGUCUGUCGAAAGAUAGAAGUUACAAAAGUAAUCAUGUCAAAUGACAUGCGCGCGAAAGCGCGGCUUGGGAAACUAAGCGCGAAAAAGUUCGCGUCUAAAAAAUUAGAC'
p246
aF1.0
aa(lp247
S'Fractal 3'
p248
aS'AAAAAGUAAGGAAAGGUAAUCCAUUAAAGUCUUCAGAGAAGGAAACUUGGAAACAAGUCUAAGAGCGAAAGCGGGAAACCACAUGACUUGCGAAAGCGCAAAAGCUAUUAUUACAAAAA'
p249
aF0.907563025210084
aa(lp250
S'Kyurem 5'
p251
aS'AAAAGUGGAUGCGAGGCAAAUUGUCAAAAAACUGAUCAAACAUUAAAUGUGGAUCUUUUAAAAUGUAAGAUGCUCGCAGAAUGAAAAAAAAAAAAAAAAAAAAA'
p252
aF0.9230769230769231
aa(lp253
S'Snowflake Necklace ( or v2.0 )'
p254
aS'GAAAUUUUAGUAUGAACGUUUGGCAAAAAACAUCAAAAAGAACCAAAAAGGGCUAAAAAAGAGGAAAAAGCAGAAUCACUGUAAAUCAGACAUAGAGGAAAAAUCUCAAAAAACGUACAAAAAGUAGUAAAAAGUACCAAAAGGGAUUAUGGGAGAAAAGCCCAUUUAGAAAAAAAAUUAUCAAAAAGAAUCAAAAAGAGGGAAAAACCAGCAAAAAGUAUUAAAAGCGAAAAACGCAUAUAUAGCAAAAACCACCAAAAAGGGACAAAAAUGACGAAAAAUGACAAAAAAGCAGUAUAAGAGAAAAACUCAUUAAGGGUAAAAAGCAUUGCAAAGAAACAAAAAGAAACGAAAAGUAACAAAAAGUAUUAAAAUCAUACUAAAGUUUC'
p255
aF0.8354755784061697
aa(lp256
S'Methaqualone C16H14N2O Structural Representation'
p257
aS'AAAAAAGGAUCAGAUCAAAGGGAGAAAACUCAGAGACUCAAAAGGGAGACAGAUAAAAGUCAGCGACUCAAAAGAGACUCAAAAAAAGAGACGCACUAAUUCACUCAGAAACAGAUCAGUAGAAAGAACUCAAGGCAAAGCAAAAAAAAGAGAGAGAGAGAAAACUCCAGAAAAUUACUCAAAAGAGCUCGUCAAAGAUCAGAAACAAAGGGAGGCUCAGACAGAGAAAAGACAAAAGUCACUCACCCAAAAGGGAGUCAGGGAAAACUCGGAGAGAGAAUACUCACCCAGAGCUCAAAAGAGCGCAAAAGCGACUCAAAAGAGCUCACUCAGAUCAAACUACAGAUCAAAAAAA'
p258
aF0.8760563380281691
aa(lp259
S"Cat's Toy 2"
p260
aS'AAAGGCAGAUUGGAAUCUGGAAAAAAAAAAAAAAAAAACGCACCCAAAGGGAAACCAAAGGAAAACCAAAAAAAAGGAAAAAAGGCUGUAUGUAAAA'
p261
aF0.9587628865979382
aa(lp262
S'Zigzag Semicircle'
p263
aS'AAAAACUUGGUGGGAAAAAUAGAGCCGAAUGAAA'
p264
aF0.9411764705882353
aa(lp265
S'Short String 4'
p266
aS'AAAAAUGAUGGGGAUGAGAAACGUGCGGGAAAUCGAUAGGAGAGGAAGGAAAAGUUAGGCGAUAAACAAUAACUUCUAAAAAAAAAAAAAAAAAAAA'
p267
aF0.9175257731958762
aa(lp268
S'Gladius'
p269
aS'UAAAACAACACCCGUAACAAGUAAGCAAGGAAGGUCAAAGAUCUAAUGAUCAGCUUCAAUAGAGAAGAGACGAAGGCCCCAGGAGAUAUUAGCGAGUCUAGAUUCAGAUCACUAGAAGAUCAAGGAUCGCUAAGGAUCGAAAUUGCGACUCUAUAAUAUCAGGCGGGGAACACGUCAAGACUCACAAGGAGCAGACAAAGAGACUGGCGCAUGAUAAAAUACCAUAGGGUCAGCAGAUUUAUACGGUGCAAUGUAAGGUACGAGAGGGCAAUUAAAAAAUUGUAACUCCAGUAUAGUACAAUGUACUAAGUAGAUCGUAAGAUCAAAAGGCGACGAAUUUCUAGUCAGAGAACAAAGGUUCAAACUCCUUCAAAGAAUACAACAAUUAGAAGGUCAAAAG'
p270
aF0.89
aa(lp271
S'Thunderbolt'
p272
aS'UGAAGAUAGAAAAAAAACAGAGGGCGGAAAAGUGAAAGACCGAUGUCAAAAAAAAAGUAAAAAUGAUCAAAAAGAUCUAAAAAACAAUUCGUGCAGAAAACCCUGGAAAAACAAGAAGCUGGCAAAAACGAAAGAGAAUAAAAAGAGAAAAAGAAGCGCAAAGAGCGGGAAAAACUCGGAUCAAAGGAAAAAAGUUUAUGAUAGGGACUCAAAAAAACAAAGAGAAAAAAAAAAUUCAAAAGGCUAUAUAUUAUAGCGGCAUGCAAAAAAAAAAAGCUUCGUAAAAAAAACUUCAAAAAUCUAGGGAAAAAGGAAAAAAACAAAAACUUUAGAAGUUGAAAGACAUCGCAAAAAAAACAGCAAUCGGAAAAAGAAAAAAACACUGUCAACAA'
p273
aF0.923469387755102
aa(lp274
S'Mutated chicken feet'
p275
aS'GAAAAAAGCACGUCUAAAGGGGGAAACCUAACCGCGACAGUAGUAAAGGAGAAAACCAAGGCGCAGCAGCUUUAAGGGGGAAAAGUAAUACGGAAAAAAA'
p276
aF0.83
aa(lp277
S'Chicken Tracks'
p278
aS'AAAAAAAACCGAUGCGCUCAAAAGGGCAUGAUCUAAUGAUCUAUGGCAAAAGCCAGUAUUGGGUGAGGCUGAAGCAGCAAGAACAAAGUUCAACGUCAAAGACGCUCUAAUAAAAA'
p279
aF1.0
aa(lp280
S'Looking Back Again'
p281
aS'CAGAACACGUAAAAAAUGCUUUCGAAGAGAGCUUUACAAGAGCUCAAUACAAAGUAGAGGGAUAGAAAGAUCAAAAGAUCAAAACUAUCAAGUCAAGUCAAGGAGCUAAAAAGGAUACAAAAGUAUCAAAAAAUAGCCGCGUAUACAAAGUAUGCGAGCAAAGCUAGGCGAUCCGAAGUGUAACAUCGAAUUGUUUAAAAAAACAUUGCCGGGAGCACGGAGAAAACUCACGAUUGCAAAUGUAGUUCCUCAAAGUGAUCAAAAAAGCGGAGAAAAAAAAAGUUCAAAAGGAACUCUCAAACGCGGAUCGUAUAAAAAUGCCGAGUAAAAAUACUUGAAGGCCCAAAUGAUAUACAAGGUAUAAAGCCGCUAAAAUACCUAUGUAGCUG'
p282
aF0.9048843187660668
aa(lp283
S'Multilooping 6'
p284
aS'AAUAUUCGAGUUGCCGAAAGGCGAUAGACGAAAGUCUACUUAACUGAAUAAAGAUUCAUGACUAAAGGUUCAACACAAUACA'
p285
aF0.9146341463414634
aa(lp286
S'Cesspool'
p287
aS'GAACAUGUAAUCACGUCGUGGCAGCGAAAUGCGGCAAAUCGAUAAUUGUGAGAAGGGCCUAGAAAAUGUAUGAGACAAAAGAAGAAUAAGGAUGACAAAAGAACUCGUGACACAUAAAAUGAGGAACUAGAGAAGUAGGAAUUCUCAGUUUAAAAGUUCAGAGACUAAUGAAAUACAAGCGUGAAGAAAAUACCUCUGGAAAUAAAGAAUGGGCGAAUUGAGAAAAUUAAAACUUUACGAGAAAAUGUGAGAGAGAAAAUACGCUGUAAUCUUGAAGAAAGCAACUAGUCUGACAGAAAUUGGUAUACUAGAGAAGAUCAAAGCUGCCCUAGAAAAUUCGCGAGACAAUAGACAUUGA'
p288
aF0.6424581005586593
aa(lp289
S'Hoglafractal'
p290
aS'AAUGUUUACUGUCAAAAGAUAUAAAAAAGUAUCGGCAGGGAAAAAAUACUAAAUGUAUCAUUGUAAAGAUGAAAAUCGAGAGAAAAAGAUCAAAGCUCAAAAAAGAGCGAUCAUCAAGAGAAGAACUCGUACGGUCAAAAGGCCAGCGUGAAAGGCAAUCGAAAAAACGGGCCACAGCAAAAAGCGUCUCAAAGGAGGGGUAGAAAAAGCAGCAAAAAAGCGCGUCAAAAAGACCCGAAAGGAGUUGAGAAAAAAGAGUAAAGUCUCACGGAAAGAAAAUACUGAGAAACUCAGUGAAAAAAACUCAGCAAAAAGCUACCAAAAAAUGUGAAAAUAAGUCAAAACAACAGCACAGCAAAACCAAAAGGGAAAAAUUCGAGACAAGGUCUUGCGCUGGCGG'
p291
aF0.895
aa(lp292
S'Bullseye'
p293
aS'AAUGUCGAUGGAAUAUCAAUGCGAAGCUCGAUCAUGAAGCAUCGACUAAAAAAGUUCGGUGAAGUAUCUAGCGCGAAGUGCAACAUCAAAGAUCGAGAAAAAAAUCUCGGUGAAAUACCAAGCUCAAGGAGAGACAUAGAAGAUUGAGUAAAAAAGGUUUGUCAAAAAUGAAUAUAUAUGUUACAUCACAAAGAGAGAGAAA'
p294
aF0.8217821782178217
aa(lp295
S'Shooting Star'
p296
aS'UCUAUGGCUCGCGAUGCAAAGAGAGGAUCACAGGGCACGAAAGAUGCACGUGAGAUAACUAAGCAGCGCAGAGGCUUGAUUUUCGGUCAGCUGCAGACAGGAGAUUGAAAAAGCUCACGCCGACAGACGACAGAGGGCGUUGGGAAACAGUAUCGAGCCGUGCGAAGCAUGACUAGCAAAGCUAGAAUAAAGGAUAGCUCAGGGCAGUUCAGAUGAAUGCGAUGCAAAGCAUCGCUGUACCAAAGGUACCAUCGUGAUGCUAUGCAUUACACUAUCGAAGAUAGGAACGAUCAAGGAAACCUUGAGGGAGGGGGACAGGAGAGUAAAAGACCUCACGUCACAACGACACUUGGAUCACAUAGAA'
p297
aF0.8736263736263736
aa(lp298
S'Teslagon'
p299
aS'AAAAAGGCUAAAAAAGAUAUAAAAGAGUCACCUAAAAAAAAAAAAAUGAUAAGAGAUAGUAAAAAAAAAAAAAAAGCGGAAAAAAAAAUAUUAAAAAAACUAAAAAAAAAAAAAAAGGGAAAAAACCAACAAAAGAGGCUGCAAAAAAAAAAAAAAAACUAAAAGAUAUCAAAAAAAAAAAAAAAGGUGGAAAAAAAGUUGAGAAAAAACUAAAAAAAAAAAAAAAAGAAAAAAAUCAGGAAAAAAAUCAGAAAAAAAAAAAAAAAACCUAAGAGAUUGGAAAAAAAAAAAAAAAUCUGGAAAAAAAUCAGUAAAAAAAGGAAAAAAAAAAAAAUAAAAAAAAAAAAAAAGUACCAAAAAAAGCUUGGAAAGAUGCAGAAAA'
p300
aF0.8979057591623036
aa.