(lp0
(lp1
S'Simple Hairpin'
p2
aS'GAUACAAAAAAGUAUC'
p3
aF1.0
aa(lp4
S'Arabidopsis Thaliana 6 RNA - Difficulty Level 0'
p5
aS'GAUAUACAAAAGGCAAAAAAAAAAAGCCGAUAUAUCGGUAUAUAUAUAUAUAUAUACAAAGAUACAAAAAAGUAUCAGUAUAUAAUAUAUAUAUAUAAAGAUAUAUCAAGUAUAUC'
p6
aF1.0
aa(lp7
S'Prion Pseudoknot - Difficulty Level 0'
p8
aS'GAUGUCAGAUCGAAAGAUCGACAAUCAAAAAAAAAA'
p9
aF1.0
aa(lp10
S'Human Integrated Adenovirus - Difficulty Level 0'
p11
aS'GGUAUAGAUUUAUGAGAUAUGAAAAAAAAAAAGAUCGUUAUGCGAAAAAGCUGUAUGAAAAGGUAUAUAUAAAUUAAAAAAUAUUUAUAUAUUAAAACCCGUACUAAAAGCCGCCAAAAUGACAAGAAUCGCUAAAAAUGUGAUUGAUCAAAAAAAAAAAGCAUAUCGCAUAAAAAAAUCUAAAAUACCAAA'
p12
aF1.0
aa(lp13
S'The Gammaretrovirus Signal - Difficulty Level 0'
p14
aS'AAGUGGGUGUAUUGAAAAAUACAAACUCAAAAAAGAUCAAGGCAGAUUCGAUCGAAAGAUCGCAAAAGUCGCCGAUCAAGAUAUAUCAAAGGAUAUAUCAA'
p15
aF1.0
aa(lp16
S'Saccharomyces Cerevisiae - Difficulty Level 0'
p17
aS'GGUAUACCAUCUAAAAAAUGAUGAGGGAAAAAAAAAAAAAACCAAAAGAUUCAAAAAAGGAAUCGUGUACCAAAAGAUAUAGAAGGUCAAAAAAAAGGCCGGCUAAAAAAAAAAAUGCCAAAAGAUUCAAAAAAAGAAUCCUAUAUCAAAGUCUAUACAAUAUCUAAAAAAUGAUACAUCUCAAAAAAAGAGAUGAAAAGGUCCAAAAAAGGGACCGUAUAGGAAAGGGUUGAGAAGAUCAAAAAAAAGAUCACUAUCAAAAAAGGGUAGUAAAAGGUACGAAAAAAGUACCCUCGACCAAAGGAUGUAGAAGAUCAAAAAAAGGAUCCAUAUUGAAAAAAGAUAUGAAAAGAUACAAAAAAAGUAUCCUACGUCAAAA'
p18
aF1.0
aa(lp19
S'Fractal 2'
p20
aS'AAAAAGAUAUAUGAAACAUAUAUAUAAAGAGCAAAAAAAAAAGCUCAAGAGCAAAAAAAAAAGCUCAAGAUCAAAAAAAAAAGAUCAAUAUAUAUAUGAAAGAUAGAUAUAAAGAGCAAAAAAAAAAGCUCAAGAGCAAAAAAAAAAGCUCAAGAUCAAAAAAAAAAGAUCAAUAUAUCUAUCAAAGAUAUAUAUAAAGAGCAAAAAAAAAAGCUCAAGAGCAAAAAAAAAAGCUCAAGAUCAAAAAAAAAAGAUCAAUAUAUAUAUCAAAUAUAUAUCAAAAA'
p21
aF1.0
aa(lp22
S'G-C Placement'
p23
aS'GAUCAAAGAUCU'
p24
aF1.0
aa(lp25
S'The Sun'
p26
aS'GUCAGAAGUACUAAGUACAAUUCGGUAAAUGUAGAUGUCUGAAAUACUAAUCGCAGAGUGCAGAUCUAGAAUUUAGAAAUAUUGAAAUCGAGCUACGCAAGGCAUAAGGCGGGGAACGGAGGGUUACUAUGUAAAAUUCCCGAAGCAGAACUGACAGAAUGUCAAAGUUCAAAAUGCAGGUAGACGAAGUUUAAACCGCGGAAAGCAAAAGUGUAAGGUACAAAUCGCAGAACGCAGAAGCCCGAAGGGCAAUUGGCG'
p27
aF0.9069767441860465
aa(lp28
S'Frog Foot'
p29
aS'AAAAAAAAAAGGUCGAAAGAUCGAUCGAAAGAUCGACCAAGGGUC'
p30
aF1.0
aa(lp31
S'InfoRNA test 16'
p32
aS'GAUAUGUGGAGUUGCAAAGGCGACGUCACUCAUAUC'
p33
aF1.0
aa(lp34
S'Mat - Martian 2'
p35
aS'GAUCGAAAGAUCAAAGAUAUACAAGAUAUACAAAAAAAGUAUAUCGUAUAUCAAAGAAUAUACAAAAAAGAUAUACAGAUAUACAAAAAAAGUAUAUCGUAUAUCAAAGAUAUAUGUAUAUAAAAAAAAUAUAUACAAUAUAUCAAAAAAGUAUAUUCAAAGAAUAUAUAUAUACAAAAAAAGUAUAUAAAUAUAUUCAAAGAUCGAAAGAUC'
p36
aF1.0
aa(lp37
S'square'
p38
aS'GAUAUACCGGUACCGAUAUCCGAUACAAAGUAUCGAAAAGAUAUCGAAAAGUACCGAAAAGUAUAUC'
p39
aF1.0
aa(lp40
S'Six legd turtle 2'
p41
aS'AAAAAGCAAAGCGAAAGCAAACCGAAAGGAAACCGAAAGGAAACCGAAAGGAAACCGAAAGGAAACCGAAAGGAAAGCAAAAAAAAAAAAAAAAAAAA'
p42
aF1.0
aa(lp43
S'Small and Easy 6'
p44
aS'GGCGCGAAAAGCAACCGAAAAAAAAGGGCC'
p45
aF1.0
aa(lp46
S'Fractile'
p47
aS'AAAAAAAAAAAAGCGAAAGCAAAGCAAAGCGAAAGCAAGCAAAGCGAAAGCAAAGCAAGCGAAAGCAAAGCAAGCGAAAGCAAAAAAAAAAAAAAAAAAAAAAAA'
p48
aF1.0
aa(lp49
S'Six legd Turtle'
p50
aS'AAAAAGUAAAAGGAAAAUCAAAUGAGAAACAUAAAUGAAAAGAAAAAGGCAAGGUGAAUAUGAAAGGUAAUCGGAAAUGUAAAACAAAAAAAAAAAAAAAAAAAA'
p51
aF0.9428571428571428
aa(lp52
S'snoRNA SNORD64'
p53
aS'GAUAUCAAAAAGGCAAAAGGCAAAGAUACAAAAAAAAAAAAAGUAUCGAAAGCCAAGCCAAGAUAUC'
p54
aF1.0
aa(lp55
S'Chalk Outline'
p56
aS'AAAAUGAUCAGAUGCGAAAGCAAUCGGACAGGCGAAAGCCGUCAGAUAGCGAAAGUAUAUCACGGAGAAAACUCACGGAUCUAAAAAAAAAAAAAAAAAAAAAA'
p57
aF1.0
aa(lp58
S'InfoRNA bulge test 9'
p59
aS'GGUUCACAGAGAGUGUUAUUGUAAUCGAUAACCCCGUGAACC'
p60
aF1.0
aa(lp61
S'Tilted Russian Cross'
p62
aS'AAAAAGAUAGGACAAAGGUCCGCUGACAUUGAAAAAUGGAUACGAAAGUAUCAUAUGGAAACAUGCAGCCAUCGAAAGAUGUAUCGAAAAAAAAAAAAAAAAAAA'
p63
aF1.0
aa(lp64
S'This is ACTUALLY Small And Easy 6'
p65
aS'AAAAAAAAAAAAAAAAAAAAAAAAAAAAAAAAAAAAAAAAAAAAAAAAAAAAAAAAAAAAAAAAAAAAAAAAAAAAAAAAAAAAAAAAAAAAAAAAAAAAAAAAAAAAAAAAAAAAAAAAAAAAAAAAAAAAAAAAAAAAAAAAAAAAAAAAAAAAAAAAAAAAAAAAAAAAAAAAAAAAAAAAAAAAAAAAAAAAAAAAAAAAAAAAAAAAAAAAAAAAAAAAAAAAAAAAAAAAAAAAAAAAAAAAAAAAAAAAAAAAAAAAAAAAAAAAAAAAAAAAAAAAAAAAAAAAAAAAAAAAAAAAAAAAAAAAAAAAAAAAAAAAAAAAAAAAAAAAAAAAAAAAAAAAAAAAAAAAAAAAAAAAAAAAAAAAAAAAAAAAAAAAAAAAAAAAAAAAAAAA'
p66
aF1.0
aa(lp67
S'Shortie 4'
p68
aS'GCGAAAGCAGCGAAAGC'
p69
aF1.0
aa(lp70
S'Shape Test'
p71
aS'AAAAAGGGAUCAAGAUACAAAAAAAAGUAUCAAGGCAGGCAGAUACAAAAAGUAUCAGAUCGAAAGAUCAGCCGCCAAGAUCGCAAAAAAAAAAAAAAAAAAAA'
p72
aF1.0
aa(lp73
S'The Minitsry'
p74
aS'GGCAAAAAGGCAAAAAGGCAAAAAGGCAAAAAGGCAAAAAAAAGCCAGCCAGCCGGCCGGCC'
p75
aF1.0
aa(lp76
S'stickshift'
p77
aS'AAGAUAUCCCAAAAAGGAGAUAUCAA'
p78
aF1.0
aa(lp79
S'U'
p80
aS'AAAAAGAUACAGAGAGCAGAGAUAUAUAUGAAAAUAUAUAUCCGCCCGUAUCAAAAA'
p81
aF1.0
aa(lp82
S'Still Life (Sunflower In A Vase)'
p83
aS'AAAGACCAAUAGACAAAAAGUCUAAACACAGGAACUGUGAACGUAAAAAAAUUAUGAACGUUGAAGCGACGAACGUACAAAAAGUACGAACAGGCUAAAUGCUUGAGAUCAAUGUAUACAUAUAAAUGCGUUACAAAAAAGUGGCAGAUUCUAAAAAAAAAAAAGAUGAAAAAAAAAAAAAAAAAAAAAAAAAAAAAAAAAAAAAAAAACAUCAAAAAAAAAAAAUGAAUCGAAUCGAAAGAUUCAGUAUUUAUAUGUAUAUAUUGAUCAAGAUACAAAAAGUAUCAGCGCAAGAAAAUUGCGAACAUACAAAAAGUAUGAACAAUCAAAAGGGUUGAACAUACGAAAGUAUGAGCAUAGAAAAACUAUGAGGUCAAA'
p84
aF1.0
aa(lp85
S'Quasispecies 2-2 Loop Challenge'
p86
aS'AAAAAGGCGCAGUGGUGUCGAAAGACAAAGCUGAGACGGGCUAUGAACGUCAGAGCGGUGGUGCAAAAAGCGAAGAAGCUUCGCCGAAAAAAAAAAAAAAAAAAA'
p87
aF1.0
aa(lp88
S'Corner bulge training'
p89
aS'AGAUAUCGAUACAAAGUAUCAAAAGAUAUCA'
p90
aF1.0
aa(lp91
S'Spiral'
p92
aS'AAAAGGAUCUGAAAUCAUGCAUAUACAGAUCAGAUGAGCAGCAGCAGCAGAAGCAAAAAGCUCGCGCGCGCCAUCGAUCGUAUAGCGGAUUUCGAUCAAAAA'
p93
aF1.0
aa(lp94
S'InfoRNA bulge test'
p95
aS'AAAAAAAAAAAAAAAAAAAAAAAAAAAAACAGCAAAAAAGAGCAAAAGAGCGAAGAGCGGUGACAGAGCAAAAAGCAUCAGUACAAAGCAUCGAAGCAUCAAAAAGCAUCAAAAAAGCAUGA'
p96
aF1.0
aa(lp97
S'Worm 1'
p98
aS'AAAAAAAGGGGGGUAGAGCAGAACAAAAGAUCAGCACAAGCGCGC'
p99
aF1.0
aa(lp100
S'just down to 1 bulge'
p101
aS'AAAAAGAGCAGAUACGAAAGUAUCAGGCGAAAGCCAGCAUCAAAAGAUCAGGCGAAAGCCAGGCGAAAGCCAGAUCAAAAAAAAAAAAAAAAAAAA'
p102
aF1.0
aa(lp103
S'Iron Cross'
p104
aS'UGGCAGGCAAGGGCAGGCAAAGCCACUCGAAAGAGAGCCAAACCCAGGCGAAAGCCAGUCAAAGACAGGGAAAGGGAGGCGAAAGCCAGGCAAAGCCACCCAAAGCCAGGCAAAGCCAGCUUA'
p105
aF1.0
aa(lp106
S'loops and stems'
p107
aS'AAAAAGUUAUACAAAUAUGAAAGAUCAAACACCAAAAAAAAAGAUACAAAAAAAAAAAAGUAUCAAAGGUGGAAAGCGCAAAAAAAAAAGCGCAAAGAUCAAAGGCAAAAAAAAGCCAAACGUAAAGCAAAAAAGCGAAGUAUAGCAAAAA'
p108
aF1.0
aa(lp109
S'Water Strider'
p110
aS'AAAAGUCUGUGAAAGGCAUUUGAAAAACGGCUAAUGCCGGCAAAAAGUGCUCGAAAGAGUGCGAAAGCGACGUAUAAACCGCAAAAAAAAAAAAAAAAAAAAA'
p111
aF0.9611650485436893
aa(lp112
S'The Turtle(s) Move(s)'
p113
aS'AAGGAGAAAUCAAAAGAGAUAUAUAAAAAAAAAAUAUAUCUCAAAAGAUCAAAAAGAUCAAAAACGCGAAAGCGAAACAUACAAAAAAAGUAUGAAAAGGCAAAGCGAAAGCAAAAACGCGAAAGCGAAAACAUAUCAAAAAAAGAUAUGAAAACGCGAAAGCGAAAAACAUAUGAAAAGGCGAAAAAAGCCAACGCAAAAAAAAGCGAAACAUGCGAAAAAGCAUGAAACAUGGAAAACAUGAACAUAUGAAAAAAAAAGUGAAAGCAAAAACCAAAAGGAAAAAAAUAUCAAAAAAAAAAGAUAUAAAAAAGCC'
p114
aF1.0
aa(lp115
S'Adenine'
p116
aS'GAUACAGAUAUCGAAUAUCAGAUCUCAGAUAUCAGGUAUCAAAAGAUAUCAAAAAAGAUAUCAGAUACCGGAUACAAAGAUAUACAAAGUAUAUCGUAUCAGAUAUCAGAUAGGUAUAUGAAACAUAUACAAACUAUCAGAGAUCAAAAGAUAUUAAAAGAUAUUAAAAGUAUC'
p117
aF1.0
aa(lp118
S'Tripod5'
p119
aS'AAGCUAUAUCGAAAAGAUACACGUAAAUUGUGUAGCAA'
p120
aF1.0
aa(lp121
S'Shortie 6'
p122
aS'GCGAAAGCAGCGAAAGCAGCGAAAGCAGCGAAAGC'
p123
aF1.0
aa(lp124
S'Runner'
p125
aS'AAAAUGAUCAGGUCGAAAAGAUGAAAUAUCAGAUCAAAGGUAUGCGGCGAAACAUAAACUCUGAGGCUAUCCCAAAAUGAGUUGAAGCCUAAUCGGAAAUGGUGGCGGAAAUAAAA'
p126
aF0.9482758620689655
aa(lp127
S'Recoil'
p128
aS'AAAAAGAUACAAGCAAGCAAGGCAAGGCAAGCAAGCAAAGCAGCAGCCAGCCAGCAGCAGUAUCAAAAAAAAAAAAAAAAAAAAA'
p129
aF1.0
aa(lp130
S'[CloudBeta] An Arm and a Leg 1.0'
p131
aS'AAAAGGGCAGAGCUAAAGGGACUCGGCAGCGAAAGCGCCAGCCAAAAAAAAAAAAAAAAAAAA'
p132
aF1.0
aa(lp133
S'[CloudBeta] 5 Adjacent Stack Multi-Branch Loop'
p134
aS'GAUAGGAUCGAAAGAUCGCUACGAAAGUAGCGAUACGAAAGUAUCGCUCGAAAGAGCCUAUCA'
p135
aF1.0
aa(lp136
S'Triple Y'
p137
aS'AAAAAGAGCGCUCGGCCGAAAGAUCUAUGAAAGUAUGCAGUGUCCUAUCGAAAGAUGGACUGCAAAGGCGGGCGCUCAAAAAAAAAAAAAAAAAAAA'
p138
aF0.9175257731958762
aa(lp139
S'Misfolded Aptamer'
p140
aS'GAUCUAAAAAGGGGCAAAGCCAGCGAAAGCAAAAAAAAACCAAAAUGAUC'
p141
aF1.0
aa(lp142
S'Flower power'
p143
aS'AAAAACGGCAGACUACGUCCGUCCCGGUCGACCGUCAAUCAGUAUUUGGAGAGACGAAGUCUGGUAGGGUCAAGGCCGUCUUCAAAAAAAAAAAAAAAAAAA'
p144
aF0.8627450980392157
aa(lp145
S'Kudzu'
p146
aS'AAAAUGUUACAAGUUGCCUAGAACAGGAAACCGCAUCAGGCGCUUAAAAAAGUGAAGGGCAAAGCCAAAGCAUACGGGGGCUAAAAAAAAAAAAAAAAAAA'
p147
aF0.9603960396039604
aa(lp148
S'"1,2,3and4bulges"'
p149
aS'AAAAAGAUUGGAGCCGAAACGGAAACUGAGGGGAAAUCCUGAAUCAAAGGCGCACGCUAAUUAAUCCAGGUGAAAGUUAGUAAGCAAAAAAAAAAAAAAAAAAAA'
p150
aF0.9809523809523809
aa(lp151
S'medallion'
p152
aS'GAGAAGACAUUUCGAAAGAGAUGAGGCAAAGGCCGGGCGAAAGCCAGAUAUCGAAAGAUAUCAGGCGAAAGCCGGAUAUCGAAAGAUAUCAGGCGAAAGCCGGGCGAAAGCCAGAUAACUAAUGUUAUCAGGCGAAAGCCAGAUAUCGAAAGAUAUCAGGCGAAAUCCAGGCGAAAGCCAGAUUUCGAAAGAAAUCAGGCGAAAGCCAGAUAUCGAAAGAUAUCAGGCAAAGUACAGGCGAAAGCCGUAUAUCGAAAGAUAUGAGGAGAAAUCCGGAUAUCAAAGGAUAUCUGACUAAUGUCUGGCGAAAGCUAGAUAUCGAAAGAUAUCGCUUCUU'
p153
aF0.9821958456973294
aa(lp154
S'[RNA] Repetitious Sequences 8/10'
p155
aS'AGCAAAAAAGCAAAAAAGCAAAAAAGCAAAAAAGCAAAAAAGCAAAAAAGCAAAAAAGCAAAAAAGCAAAAAAGCAAAAA'
p156
aF1.0
aa(lp157
S'Documenting repetitious behavior'
p158
aS'AAAAAAAACUAAAAAAAAUGAAAAAAAAAGCAAAAAAAAAACAAAAAAAAGGCAAAAAAAAAGCAAAAAAAAAACAAAAAAAAAGCAAAAAAAAACCAAAAAAAAAGUAAAAAAAAAACAAAAAAAAAAGAAAAAAAAUACGAAAAAAAACGAAAAAAAAAGCGAAAAAAAUUCAAAAAAAAAACGAAAAAAAAGCAAAAAAAAAGUAAAAAAAAAGUAAAAAAAAAGGUAAAAAAAAGCAAAAAAAAAGGAAAAAAAAAGUUAAAAAAAAGCAAAAAAAAAGCAAAAAAAAAACAAAAAAAAAGCAAAAAAAAAGCAAAAAAAAGGUAAAAAAAAAGCAAAAAAAAAGCAAAAAAAAAGCAAAAAAAAGGAAAAAAAAAGUGAAAAAAAAUGUAAAAAA'
p159
aF0.96
aa(lp160
S'7 multiloop'
p161
aS'GCCCGAGCUGAAAAGCUCGUCGCUAAUGCGACGUGCCUAAUGGCACGUAUCUAAUGAUACCAUACGAAAGUAUGCGGACGAAAGUCCGGGGU'
p162
aF1.0
aa(lp163
S'Kyurem 7'
p164
aS'AAAACGAGGGGAAUAUGAUUGCGCGAAAAGGAUAGGGUAAAUCACGGGAACUAAAAAGGGUAAAUUAAUCCCGCUUCACUUCAAAAAAAAAAAAAAAAAAAA'
p165
aF0.9019607843137255
aa(lp166
S'JF1'
p167
aS'GAUAGUAGAUAACAUAGAGCAUACUAAAGACAACAAUAUACAAAGAGACAAGAUAUGACAUAUAUAUAUAUGAAAGCAUAUAUAUAUAUGAAGUCGAAAGACACAUAUAUAUGAAAAUAUAUAUGAACAUACGAAAGUAUGACAUAUCAGUCUCAGUAUAGGUUGUCAAAGGUAUGUCAAAAAGACAAUACCAACAUAUAUAUAUAUAUAUGUAUAUGAAAACAUAUAUAUAUAUAUUAUAUAUAUGAAAGAUACAAAAAAGUAUCCAUAAUAUUCGAAAGAAUAUUAUGAGACAUAAAAAUAUGAUGUAUGAGCUAUGAUGUCAGGCAGGCUAAUGCCGCCGACAAGAUAGAUAUGAAAAUAUCGUAUCAUAUCAUAUAUAUCAGA'
p168
aF1.0
aa(lp169
S'multilooping fun'
p170
aS'AAGGGGGACGAAAAACGACAGAUUCGCGAAAACAUC'
p171
aF0.8333333333333334
aa(lp172
S'Multiloop...'
p173
aS'GCUCAGAUGGGGCGAAAGCCAGGCGAAAGCCAGGCGAAAGCCAGGCGAAAGCCGGGCGAAAGCCACGCGAAAGCGUUAUCAUAUGUAAAAAAACAUAGGCGAAAGCCGAGC'
p174
aF1.0
aa(lp175
S'hard Y'
p176
aS'AAAAAGAUGCGUAUAUACGCAAAGGCGUGUAAUCUUGUAAUUGUGUAAUCAUAGUUAUUUAUCGAAAA'
p177
aF0.9705882352941176
aa(lp178
S'Mat - Elements & Sections'
p179
aS'AAAAGGUUUAGGAGGUGCCAUGGUACUAUGUCAGCCGAGGGCGAAAGUCAUACGCUGCAAAGUAAAAACUUGGUUCAAACGGAGCAAAAAAAAAAAAAAAAAAAA'
p180
aF0.9619047619047619
aa(lp181
S'Chicken feet'
p182
aS'AAAAAGCAUUUCCGAAGGACUGAAGGGAUGGCCUGCAACGGUAAGACUCGAAGGGUAAGAACUAAAA'
p183
aF0.835820895522388
aa(lp184
S'Bug 18'
p185
aS'AGAAUGAUAGCUAAGGUAGUACGAAACGAAGCUCCGAGAAGAAUACAAAACCA'
p186
aF0.9622641509433962
aa(lp187
S'Fractal star x5'
p188
aS'AAAAACAUAUAUGAAGAUCGAAAGAUCAACAUCGAAAGAUGAACAUCGAAAGAUGAACAUCGAAAGAUGAACAUAUAUGAAAAACAUAUAUGAAGAUCGAAAGAUCAACAUCGAAAGAUGAACAUCGAAAGAUGAACAUCGAAAGAUGAACAUAUAUGAAAAACAUAUAUGAAGAUCGAAAGAUCAACAUCGAAAGAUGAACAUCGAAAGAUGAACAUCGAAAGAUGAACAUAUAUGAAAAACAUAUAUGAAGAUCGAAAGAUCAACAUCGAAAGAUGAACAUCGAAAGAUGAACAUCGAAAGAUGAACAUAUAUGAAAAACAUAUAUGAAGAUCGAAAGAUCAACAUCGAAAGAUGAACAUCGAAAGAUGAACAUCGAAAGAUGAACAUAUAUGAAAAA'
p189
aF1.0
aa(lp190
S'Crop circle 2'
p191
aS'GGUAGGUAAAACAAAAAUAGUAAAAAAAUGGAAAAAAAAAAAAAAAAAAAAAAAAAAAAAACAUAAAAAAAAAAAAAUCUUAAAAAAAAUGAAAAAAGAUAAAUCCAAAA'
p192
aF0.9636363636363636
aa(lp193
S'Branching Loop'
p194
aS'AGUCUAAAAAAACGAAAAUUAAUAAUUACGGGCGAAAAAA'
p195
aF0.95
aa(lp196
S'Bug 38'
p197
aS'GCGAGCAACUACGAGAAACGCGUGGAGGCCAAACAA'
p198
aF0.8888888888888888
aa(lp199
S'Simple Single Bond'
p200
aS'AAAAAAGGAAAAAAAUGAUCAAAAAGAUUUAAAAAAAACAAAAAAAAAAAAAAAAAAAAAA'
p201
aF1.0
aa(lp202
S'Taraxacum officinale'
p203
aS'CGUGGAAACAACCUCUUGAAAGCAGAGUCAUUAAAGAAAUGACAGGGAAACAUUGGCAUGAAAACAAGGACGUUGAAAGUGCGAGAUAUAUAUACGUUAUUUGUACAAAGUACAAGAUAGCAGAGACAAGAUAUAUGUUAAAAUACACAAAGUGUAUUGAAUAUAUAUCGAACAGAUAUCGAAGAUAUCGUUCGUCUCAAAGUAUAUAUAUCAGGUGGAAACAACCACCCAAAAAGACCGACAGGGAAACACUGAAAGGGAAACACUUAGAUGAAAACAAGG'
p204
aF0.950354609929078
aa(lp205
S'Headless Bug on Windshield'
p206
aS'AGAAGCUAAAAGAGCGAAAGCGUGGGAAAAAAAAAAAAAAAAAAAAAAAACCAAGCAAACGCAUCGAUGCAGCGUGAAUGCAAAUCAAAAAAGGCUAAUGCAAAAAAAGAUGCUAAAAAGCGAGACCUAAAAAAGGGGAAGGAAUGCUAUCAGGCGAAAAAAAAAAAAAAGCCAAGGGAGCCGGCCACGCAACCAUGUCG'
p207
aF0.99
aa(lp208
S'Pokeball'
p209
aS'AAAGGCAUACAAAAGCGAGGAAGAGAAGGGGUGAAGGAAGGGGUCAAGCAAAGCAGAAACCACCACAAACCGCUCACCAGCGUAUGCCAAAAAAAGGAUAUACUAAAACGAGGCAGAGAAGGGGUCAAGGAAGGGGUCAAGCAAAGCAGAAACCACCAGAAACCACUCACCAGUGUAUGUCAAA'
p210
aF1.0
aa(lp211
S'Variation of a crop circle'
p212
aS'AAAAGCAAAAAGUAAAACAAAAGUUGGCAUACAAAGUUGGUAAAUGAAAAAAAGUAAAAAAUCUGCAAAAAAGACAAAAAAAAAAAAA'
p213
aF0.9545454545454546
aa(lp214
S'Loop next to a Multiloop'
p215
aS'AAGGUAUAUCAAAAAAAGGGAUCGCUAAUGCGAUUGGGUGUGCGAAAGUACAUCACAAAAAAAGAUAUGUCGA'
p216
aF0.9726027397260274
aa(lp217
S'Snowflake 4'
p218
aS'GUUCAAACCAUCUAGUGUAAAGGCCCUGGAGGAUCUGCGAAAACCAGCGUAUCUAAGCUAAAGUUAUACGAACCGCUGGUAAAGGCAGAUCAAGAUACUCAAAGAACUGCGACGCAAAGAGUAACAUAAAAUAUGCGCAGACAAAGGAGUAUCAAGAUACCCGAAAGGUACAGCAGUGAAAUUGAAAACCAAAGGUUCUGUGCGGAAAGGGUGUCGAGAUACCGGAAACGCAGAACUUGAGGCGAGAACGGCUAUGCCGCUCUGGUGAAUAGGUAUCGAUAGACUCGAAAGCCAGAUUAUCAAAGUUCAACAUCAAAGAUGGUCUGCCUAAUGGGGCUGGAUCAGGACAAAGGGAUUGGGUUAAAGGAGC'
p219
aF0.8594594594594595
aa(lp220
S'Mat - Cuboid'
p221
aS'GAGCCAAAAGCAUUCAAAAGCGACCAAAAGAAUCAAGCAAAACCAUGGAAGCCAAAGGAGAUAGCAAGCAAAAGCUAGCAAGCAAGGAAAAGCGAGCGAGUAAGCUGGUAACAGCGUUCAGUCUGUUUGUCAAAAUCGGUGAGUCCGUGGGCCGGUUAAAAGCGGUCGAUCGACUAGACGGACAAAACCGGACGGUCGGUCAGUGGGUUAAAAAAGAAAUAAGGAAAGGAAGUAAGGGGGAGUAGGGAAGAGAGAAAGCGGAAGAAACAAAGAAAUAAUGAGGAUAAAUGAAGGAUAACACUAGUAAACGAGCGAGCCUAAGCAAGCAUGCGCAAGCUUGCGAUGCAACCUAGGGCAGGGGGCGGAAUCGAAAGCUCGGC'
p222
aF0.8315789473684211
aa(lp223
S'Misfolded Aptamer 6'
p224
aS'AAAAAAGGUUAAAAGGCUCAGCUAAAUGCAAAAAAAGGCAAAAUGAAAAGGAGCAAAAAAUACCAAAAAAAAAAA'
p225
aF1.0
aa(lp226
S'Snowflake 3'
p227
aS'GGCCCGAAAGGGGGCCGCGAAAGCGAAGUUCAGACCAAUGCGAAAACGCGUAGCGAAAGCCGGAAACCCGCGAAAGCAGCCCGCGAAAGCGAGCGUCGGACGAAGGCGAAAGCCCACAGCUAAUGCGGGAAAGCCGCGAAAGCAGUCCACAAAGGCGAACAUCUCAUGAAGUCGAAAGACCGGAGCAAAGGCGGGAAACCAGGGAAACCAACGCGAGAAAUCGGAUGUGAGAGGAAGGCGAAAGCCCGCAGCGAAAGCGACGAAGCCGCGAAAGCAGCGUUUGAAAGGGAACAUCAGACCAAGGCGAAAGCCCCGAUCGAAAGAGGCAAAGGUGCGAAAGCACGCCCCGAAAGGGAAGCUCAGAUCAAGGCGAAAGCCGCCAACGAAAGUGCC'
p228
aF0.8829516539440203
aa(lp229
S'Hard Y and a bit more'
p230
aS'AAAAGGUUAGGCGGUAUCAAAGGAUAAAGCGAUCUAGUUAGUGUGAAAACACAAGAAACUAAAAUGUUUCAUACGGGAUCCUAACAAAAAAAAAAAAAAAAAAAAA'
p231
aF0.9716981132075472
aa(lp232
S'Mat - Lot 2-2 B'
p233
aS'GAAUAGGGGGUCAAUCAAAAGGAAUGUCGAAAGAAAAACAUGUUGGGGGAAAAACCUACUCCAAGCUAGUGCUCCCGGUCAAAAGCGGUACCGGUCAAAACCGAAAGGGGAAGGAAAACAAAGCGGAAUCGUGGGCAAGUAAAGAGACGGUUUCGGUCAAAAGUUGUCUCGAAAGAAAAAGAAUGCGAAAGAAAAAGAAAGUGCAAAAAAGAAAGCGCAGGUAAAACCGCCGUCAGUCAAAAGAGAAAUCGGAGGAAAAACGAAGGCCAGGCACAAGGAAAGGU'
p234
aF0.8767605633802817
aa(lp235
S'Shapes and Energy'
p236
aS'AAAAAGUACAUCUCGUGAAAAGGAGGGUGUCGAAAGUUGUCAAAUUACUAAUUUAAAAGUCUCUAAUGAGGGGAGAUGGAAAAAAAAAAAAAAAAAAAAAA'
p237
aF0.9603960396039604
aa(lp238
S"Spiral of 5's"
p239
aS'GAAAAGAUACAAAGAGACUAAAAUACAAAAGAUACAAGGAUACAAAGAUACUAGAUACAAAUGAUACAAAGAUACGAAGUUACGAGAUACUAAGAUAAAAAGAUACAGGAUCAAAUGAUACUAGAUCCGGGUUCCAAGAUAGAAGAUACAGAUACAGAUAAGUAUGAAAAACAUACAAAAAUUAUCAAAAAGUAUCAAAAGGUAUCAAAAAGUAGCAAAAAAUGGCAAAAUGCGUCAAAAGGUAUCUAAAAUGAUCAAAAAGUAUCGAAAAUUAUCAAAAUGUAUCGAAAAGUAGCAAAAAGUAUCGAAAAGUAUCUAAAGGUAUCAAAAUGUAUCAAAAAGUAUCAAAAAGUAUCAAAAAGUAUUAAAAUGUUUCAAAAAGUAUCAAAAACAAAAA'
p240
aF0.9949622166246851
aa(lp241
S'Campfire'
p242
aS'AAAAUCGCAAUUUAUAAGAUGAAGAGCAAAAGGUUCGGUGUCUAUGACAAACCAUCGAGGUCAGCAGGAGUCGAGAAAUCAGGCCCGCAUUGGGCCACAAACUAAUGCUGGCUAUUAGGCUAAUGCACAAAUCAAGCAAAUGACACUCAUAAACGCAGGUAGUCAGAUCUAAAGUUCGGCACCGACACGUGGAACACAGUCAUCGGCGGCGG'
p243
aF0.9528301886792453
aa(lp244
S'Anemone'
p245
aS'AAAUUAAGCGAAAGUUUGACGUUCGAAAGGAAGAAUAGUGAAAAUUAUUCCUUAAAAUUAAACCUGCUGUAAUGAUGAGAAUAUGAAAGUAUUUGAGUGAAAGGUUAGAUGUGGAAAUACGUCAUAUACUAAUGUAUAGAUUCUUAAUGGAAUUACAAUAAAAAUCGUGCGCUCUAAUGAGCGCCUAUCGAAAGAUGGGCCUUCGAAAGAGGGC'
p246
aF0.9813084112149533
aa(lp247
S'Fractal 3'
p248
aS'AAAAAGAUCAAGGAGUGAAAGCGCGAAAGCACCUAGGCAGCGAAAGCGCGAAAGCAGCCAGGCAGCGAAAGCGCGAAAGCAGCCAGGAAGGGAAACCGCGAAAGCAUCCAGAUCAAAAA'
p249
aF1.0
aa(lp250
S'Kyurem 5'
p251
aS'AAAAUGAGUGUCGGUGAAAGCCGGGACAAAAGGACUCAAAGAGUAAAUCUCGAGCGGGGAACAAGCCAUUUUCUAGACAAGCUCUAAAAAAAAAAAAAAAAAAA'
p252
aF0.9423076923076923
aa(lp253
S'Snowflake Necklace ( or v2.0 )'
p254
aS'GAGAUGAUUAUAUACAGAUAGAGGAAAAACCAGCAAAAAGCAGCAAAAAGCUGGGAAAACCUGCAAAAAGCACUAUCAAAUAAAAGGGUAUUUAGAAGAAAAAGGAGGUAAAUCCAGCAAAAAGCAACAAAAAGUAGUAAAAAAGACUAGAAGGCAAAAAGCCAUACAGCGCAAAAAGCAGCAAAAAGCAGCAAAAAACGGCUAAAUGCGACAAAAAGUUCUGUAAGACAAAAAGCCAUGAAGAGAAAAAAUCAGCAAAAAGCACCAAAAAGGAUCAAAAAGCAGCAAAAAGCACUUCAAGACGAAAAGUUAUGUAGAUCAAAAAGCAUCAAAAAGAAAGUAAAUUUAGCAAAAAGCAUCAAAAGGCCCUACAAGUAUAUGAUUAUUUC'
p255
aF0.8946015424164524
aa(lp256
S'Methaqualone C16H14N2O Structural Representation'
p257
aS'AAAAAAGGAUCAGGUCAGUCAGGCGAAAGCCAGGCAUGCAAAGGCGAGGGAUGCGAAAGCAAGGCACUCAAAGGAGGAGAGAAAAAAUCUAGCCGGCCGGCUAGCCGUAAAGAGAUCAGACCAAAGCUGGCGAAUCAAAGGAAAAAAAAGCCUGGCAGGCGAAAGCCGGCGAAAGCCGGCGAAAGCCGCCUGUAAACAUGACACAAAGCUAGGAUAGUAUGGAGGCAAAAGGGGAAACCCGGCCACGCGAAAGCGACCAAGGCGAAAGCCCACUUGGCGAAACACAUCCAGACGGAGAAAUCCGAGGAAACUCACGCGAAAGCGGUCAGCCGUAUGAAAGGUCAGAUCAAAAAAA'
p258
aF0.9774647887323944
aa(lp259
S"Cat's Toy 2"
p260
aS'AAAAUGGUAUUGAAAUGUGACGAAAAAAAAAAAAAAAAAAGAGACGAAGUUAGUACAAAAAGAAAUUAAAAAAAAGUAAAAAAAGCGAAAGUGGAAA'
p261
aF0.9587628865979382
aa(lp262
S'Zigzag Semicircle'
p263
aS'AAAAGGGUGGCAGGAAAAAGGGACACACCCGAAA'
p264
aF0.9411764705882353
aa(lp265
S'Short String 4'
p266
aS'AAAAAAUGAGCAUGCGACAGGGGAGCGAGAAAUCCUAAGAAAGGGUGAUCGAAAGAGAGCAAUAAGGAGCUGGCGGAAAAAAAAAAAAAAAAAAAAA'
p267
aF0.9381443298969072
aa(lp268
S'Gladius'
p269
aS'GGAAACAGGAACUAAAAGAUCAGAAGUAAGGCAGGAAAAGGUCGAAAGAUCAGAUGCAAUAGGCAAGAGAUAAACUGGCCAAGAGAUAGAGGAGAGAUGAGACAGAUAUUAAUAGAACAUGUAUCAUGGUUAGAAAUGCAUGUCCAAUCUCCACUCUAUCAACGGAUCUAGAGAUCAACGGCCAAAAGUAUCGUCCAAAGGCGGACUCAGAAGAGAGAAGAUCAGAAGAUCCGAAGAUAUACAAUAUACAUUGAGAGUAUACAGGUAGAUGUCGAAAGACAUCGAACCGAUAUAACCUCAAAGUAUAAUGUAUAUCACUAGCUCACAACAUCGUAACUUAUGAGAGUCUGAUCAAAGGAUUUAAGCCGGCCAAUCCCCGGUGCAAAUUAAACAAUAAAAA'
p270
aF0.9
aa(lp271
S'Thunderbolt'
p272
aS'GGAAGAUACAAAAAAAAUGGCAUGCGGAAAAAGAAAACAGUUAUGUCAAAAAAAAAGAAAAAAUGAGCAAACAGCUCUAAAAAUUAAAGUUGUGGAAAAAAGUGAGAAAAAUAUCAAGCGGCCAAAUAAAAAGCAGAUGAAAAAGGCAAAAAGGUUGAUGAAGAUAUACAAAAAGCCAAAGUAAAAAGAAAAAUACGGCUAAAGGAUGAAAAAAAAAGGGAACUAAAAAAAAACAUCAAAAAGAUCUUAAAGAGAUUAGGAAGCAGAAAAAAAAACAAAGCAAAAAAAAAGGGGGAAAGGUAUGAGGAAAAGUAAAAAAUCGAAAACUCGUGAACUUAAAGGAUAUAGCAAAAAAAACGGCUAGCGGAAAAAGAAAAAAACAGUAUCAACCA'
p273
aF0.9642857142857143
aa(lp274
S'Mutated chicken feet'
p275
aS'AAAAAAAGGAGCAACAAAGUAACAAAGCGAAGUUCGGAAGCCUUUAUUGAACAAAGUAAACAGCAGCAGCGGCGAAGCAGAGAAGAGAAGAGUAAAAAAA'
p276
aF0.84
aa(lp277
S'Chicken Tracks'
p278
aS'AAAAAAAAGAUAUACGAUCAAAGGGUCAUGCUCAAAGGAGCUAGAGCGAAAGCUCGUAUAUCAGUGGGCGGAAACCGCAAGAGCAAAGUUCAACGCCAAAGGUGCCAAAAGAAAAA'
p279
aF1.0
aa(lp280
S'Looking Back Again'
p281
aS'CUCAAGUGAGUCAAAAAUCUAUCAAAGAUAGGAGAUGAAGGCAGCAAGACAAAGCCGCAAGGUACUAAGAUGUAAUUAUCAAAUGUACCGAGGCAAUGGUAGGUCGGCAAAAAGAUAUGAAAGUAUCAAAAAAGCCGAUAAGAUAUGAAAAAUGGAGGCGAAGUCUCAGGCGACUAAUGUUAAGGAUAAGGGGGACAAAGGUCUAACAAAACAUAGAAGCGCGAAAGCGAAGCCUUUAAAGUAUCCGACGGAGAGAGACCAAAAAAGACCUGGAAAAAAAAGAUCUAAAUGAUCCCAGAAAGUCAGGUCGAUCAAAAAUGACAUAUCGAAAGAUAUGAAGAGCCAAGGGAGAUACAAAGUAUCAACGCUCUAAGGAUCCUCUCAAGGAG'
p282
aF0.897172236503856
aa(lp283
S'Multilooping 6'
p284
aS'AGGUUAUUGAGUCCUAAAGAUCACGAAUCGAAAGGUUCUCAUGUGCAUCGAAAGGUGCGUCGCGAAAGCGACAUGUAAGCAA'
p285
aF0.975609756097561
aa(lp286
S'Cesspool'
p287
aS'AAAGAAUGAAAAGACGGGGUAGAGGCAAUUCCAAAAAAAAACGAAGGGGUAAUCAAGUGGGCGAAAAAACUAAAACGAAAGAACGGUAAGUGUAAGAAAAGAAAAGGGUAGAGGUUAUACUAACAAAAAUUGUAGGGUAAAAAAAAAUAGUGAAAAAAAAAAAAGGAAACAAAAUCAAAUGUUAAGAAAAGAACAGUGGUGCGGAAAAGCCAACAUAAACUGAAGGGGAAAACAACAUGGUGAAAGAAGAAAAAGGAAAUAGAUAGUAAGCGCUAAGAAAACAACGGGAGGGAGGUAAAAACAACAAAGACGGAAGAGGAAAAAAGCACGGCAAAGGAAGAAAAAUGAAAAAAAAAGC'
p288
aF0.776536312849162
aa(lp289
S'Hoglafractal'
p290
aS'AAGACGGAGGUACAAAAGAUACAAAAAAGUACCGUACAUCUAAAAAAUCAAAAAGAUUCAGCCGCAAGGCGAAAGCCGCGAGGAUAACAUGAAAGAGCAAAAAAGAUCGAUACGCAAAGCGAAAAGUCGCACCAGCGAAAGUGGAGAUGAAAAGGUGAGUCAAAAAAGCCGCCCCAUCAAAAAGAGGCGCGAAAGCGAGAUACAAAAAUGAGCAAAAAAGCCAGGCAAAAAGCCGCGAAAGCAGAUUUGAAAAAAGGCAAAAAAGCCGCUUAAUGCAAGCAUAUGCAAAGUAUAUGAAAAAAACAGAUCGAAAAAGUAUCAAAAACGUCAAAUGCAAAACCAACGAAGAUGAGCUGAAAACCGAAAGGGCGAAAGCUAUAACAAGCUUAUAACAUUCGAA'
p291
aF0.93
aa(lp292
S'Bullseye'
p293
aS'AAAAUCUGUCAAGGAGGAAGCUCAAAGAUCAAUCUCAAAGAGAGGCAAAAAAAAUUCACUCAAGGAAUAUGAGGAAGCCUCUAAAUGAAAGGGUGAAGAAAAAAACGGGAUCAAGCAUUAGGACUAAAGGUUAAUAUCAAAGAUCUCGGAAAAAAACCCGGUCGAAAACCAUGACUUAUGGUCUAGAUCGAAGAUCUGGAAA'
p294
aF0.8712871287128713
aa(lp295
S'Shooting Star'
p296
aS'GACUUGGGUCGAUAUAAAAAGAGGAUGUUUCAUCCAGGAAAAUACGGACGGAUCAGGAGCGGUUAUAUCAGAUAUCGUAGGCUUAGGCAGUGUCAUUCAAGGCACGAAAAUAGGCCAAGGAGAAUAACGCCAAAGAACAAACAGAAAGUAUAACGGGGGAAACGAAGUUUCACUAUGAAAUAAGCCAGAAAACAGAUCUCAGACCAGAUGAGCGGAAGCAUCUGCAAGGUAGAUGACAUGAAAAUUAUGCCGCUAUGCACUAUGUGCAUAACCUACAAAGUCGGCAUCGAUGAAUUAAUAGAGAGAGGGGAGUGGCAUCACACGAAAACCGGUGAAGCCUCGAAAACAAAACCCACAUAGGUCA'
p297
aF0.8434065934065934
aa(lp298
S'Teslagon'
p299
aS'AAAAAAACAAAAAAGGAAGCAAAAAAAGCACGAAAAAAAAAAAAAAAUGAAAAAAAAAGUAAAAAAAAAAAAAAAGUAGCAAAAAAAGCAGCAAAAAAAGCAAAAAAAAAAAAAAAGCAAAAAAAGCAAGAAAAAAAGCACACAAAAAAAAAAAAAUGAAAAAAAAAACCAAAAAAAAAAAAAAACCAGCAAAAAAAUUAGCGAAAAAAGCAAAAAAAAAAAAAAAAUAAAAAAAGAACCAAAAAAAGAGGGAAAAAAAAAAAAAAACCAAAAAAAAAGUAAAAAAAAAAAAAAAGCAGCAAAAAAAGCAAGAAAAAAAUGAAAAAAAAAAAACGAAAAAAAAAAAAAAACGACGGAAAAAACUAGCAAAAAAAGUAGAAAA'
p300
aF0.9057591623036649
aa.