(lp0
(lp1
S'Simple Hairpin'
p2
aS'GAUACAAAAAAGUAUC'
p3
aF1.0
aa(lp4
S'Arabidopsis Thaliana 6 RNA - Difficulty Level 0'
p5
aS'GAUAUACGCUCGACAAAAAAAAAAAGUCGAUAUAUCAAGAUAUAUAUAUAUAUAUACAAAGAUACAAAAAAGUAUCAGUAUAUAAUAUAUAUAUAUCAAGAUAUAUCAAGUAUAUC'
p6
aF1.0
aa(lp7
S'Prion Pseudoknot - Difficulty Level 0'
p8
aS'GAUAUCAGAUCAAAAGAUCGAUAAUCAAAAAAAAAA'
p9
aF1.0
aa(lp10
S'Human Integrated Adenovirus - Difficulty Level 0'
p11
aS'GAUGUAUAUAGAUGUGAUUUCGAAAAAAAAAGGAUCAUUAAGCGGGGAGAGAGUAACAAAAGACAUUUAUAUACGAAAAAAAGUAUAUAAAUCAAAGUCGUUACAAAAUGGUGCAAAAUUAAUAAAAUAAACAAAAAAGGUUUAUGAUCAAAAAAAAAAAAGAGGUCUUAUUAAAAUAUAUAAAACAUCAAA'
p12
aF0.9791666666666666
aa(lp13
S'The Gammaretrovirus Signal - Difficulty Level 0'
p14
aS'AACGCGGAACAUCAAAGGAUGUUAAGAGGAAAAAGUUCAAGCCAGAUAAUGUCUAAUGACAUGAAGUAUCGGCGAGCAAGAGAUAUCAAAAGAUAUCUCAA'
p15
aF1.0
aa(lp16
S'Saccharomyces Cerevisiae - Difficulty Level 0'
p17
aS'GAGUUACCGUCUAAAAAAUGACGAGGGAGAAAAAAAAAAAACCGGAUGUAUCGAAAAAAGAUAUGUAACUCAAAAGUUUCGCAACAUCGAAAAAAAGAUGCCGAAAAAAAAAAAAGCGGAGAUACAUUUAAAAAUAAUGUGUGGAACAAAUGACCCGCAAUACGAAAAAAAGCGUGCUAGACAAAAAAAGUUUAGAGAAGUAUCGAAAAAAGAUAUGCGGGUCUAAGGAUCCACAAGAGCAAAAAAAGGUUCCUAUAUAAAAAAAGUAUAGAAAUCACCUGAAAAAAAGGUGGUGGAUCAAAGGAUAUAUAAGAUCUAAAAAAUGGUCCCAAAGAAAAAAGCUUUGGACAGCUUUCAAAAAAAGAGAGAUAUAUCAAAA'
p18
aF1.0
aa(lp19
S'Fractal 2'
p20
aS'AAAAAUGGGUGUCAAGUAUAUGCUUAAACACCAAAAAAAAAAGGUGAAGAUCAAAAAAAAAGGAUCAAGAUAUAAAAAAAAUUAUCAGUAAGUAUAUAAAGGAUAUGUCUAGAGAGGGAAAAAAAAACUUCAAUCUGAAAAAAAAAACAGAGGGCACUAAAAAAAAUGUGCAAUAGAUAUAUCAAAGAUGUAUCUAAAGAUCGAAAAAAAAAGAUCGAGAUCUAAAAAAAAUGAUCAGGACCGAAAAAAAAAGGUCAAUAGAUAUAUCGAAGACACUCAAAAAA'
p21
aF1.0
aa(lp22
S'G-C Placement'
p23
aS'AUGCUAUGCAUA'
p24
aF1.0
aa(lp25
S'The Sun'
p26
aS'GUCAAGUAGAUAAAAUCUAAACUGGCAAGAUCAUACAUAUGAAAUCUAAAUGGGGAAAAUCAGAGAGCCUAUAGUUAAUUCUAGAAGCUCAACUAUAGAAACUAUCAAGUGAGAAACUCAUAUUUGCUAUGCAUAAGUUGAGAAACUCAGCUGUAAAAAUUACAAAGUGAGGAACGUACUAGAACAAAGUUUAAAAUGCGAAUCACAAAUAUCCGAAGGAUUAAUCGUGUAACUGAGCUACAUAAAAUAUAAAUUUAG'
p27
aF0.8449612403100775
aa(lp28
S'Frog Foot'
p29
aS'GAAAAAAAAACAGAAAAAUCUGGCGUGAAAGCGCGGCGAAGCGCC'
p30
aF1.0
aa(lp31
S'InfoRNA test 16'
p32
aS'AAUAUCUCAUAUGUCAAAGGAUAUCGUAGUGAUAUU'
p33
aF1.0
aa(lp34
S'Mat - Martian 2'
p35
aS'GAUCAAAAGAUCAAUGAUAUACAAGAUAUACAAAAAAAGUAUAUCGUAUAUCUAGGAAUAUACAAAAAAGAUAUACAGAUAUACAAAAAAAGUAUAUCGUAUAUCAAAGAUAUAUAUAUAUCAAAAAAAGAUAUAUAAUAUAUCAAAAAAGUAUAUUCAAAGAAUAUAGAUAUACAAAAAAAGUAUAUCAAUAUAUUCGAAGAGUAAAAACUC'
p36
aF1.0
aa(lp37
S'square'
p38
aS'GAUAUACCUAUACCUAUAUCCUAUACAAAGUAUAGAAAAGAUAUAGAAAAGUAUAGAAAAGUAUAUC'
p39
aF1.0
aa(lp40
S'Six legd turtle 2'
p41
aS'AAAAUGAAAUGGUAAUUCAAAACUAAUACAAAGAAAAAAGAAUUGAAAACGAAACGAAAGCGAAUCCUAAUACCAAUCUAAAAAAAAAAAAAAAAAAA'
p42
aF0.9183673469387755
aa(lp43
S'Small and Easy 6'
p44
aS'UGAUCAAAAGGAAAGUGAAAAAAAAAUUUG'
p45
aF0.8666666666666667
aa(lp46
S'Fractile'
p47
aS'AAAAAAAAAAAAGCAAAAGCAAAGCAAAGGAAAACCAAGCAAAGAAAAAUCGAGGCAAGCGAAAGCAAAGCAAGCAAAAGCAAAAAAAAAAAAAAAAAAAAAAAA'
p48
aF1.0
aa(lp49
S'Six legd Turtle'
p50
aS'AAAAAGUAAAAUCUAAUAUAAAACGAAAUAGAAAGUGAAAUGGAAAACCGAAAGGAAAAAGAAAACUAAAAUCGAAAGAAAAAAUACAAAAAAAAAAAAAAAAAA'
p51
aF0.9619047619047619
aa(lp52
S'snoRNA SNORD64'
p53
aS'GAUAUCAAAAAGACAAAAGACAAAGAUACAAAAAAAAAAAAAGUAUCAAAAGUCAAGUCAAGAUAUC'
p54
aF1.0
aa(lp55
S'Chalk Outline'
p56
aS'AAAAAGAGCAGAUACAAAAGUAAUCAGACAGACAAAAGUCGUCAGAUAGCAAAAGCAUAUCACGGCCAAAGGGCACGGCUCAAAAAAAAAAAAAAAAAAAAAAA'
p57
aF1.0
aa(lp58
S'InfoRNA bulge test 9'
p59
aS'GAUUGACAGUGUGUGGUAUCCGAAAGGAUACCCCCGUCAAUC'
p60
aF1.0
aa(lp61
S'Tilted Russian Cross'
p62
aS'AAAAAGCUCCCUAAAAAUAGGCCGUAGGACGAAAGUCCGUUACGAAAGUAACACAUUGAAAAAUGAUGGGAUCGAAAGAUCGAGCAAAAAAAAAAAAAAAAAAAA'
p63
aF1.0
aa(lp64
S'This is ACTUALLY Small And Easy 6'
p65
aS'AAAAAAAAAAAAAAAAAAAAAAAAAAAAAAAAAAAAAAAAAAAAAAAAAAAAAAAAAAAAAAAAAAAAAAAAAAAAAAAAAAAAAAAAAAAAAAAAAAAAAAAAAAAAAAAAAAAAAAAAAAAAAAAAAAAAAAAAAAAAAAAAAAAAAAAAAAAAAAAAAAAAAAAAAAAAAAAAAAAAAAAAAAAAAAAAAAAAAAAAAAAAAAAAAAAAAAAAAAAAAAAAAAAAAAAAAAAAAAAAAAAAAAAAAAAAAAAAAAAAAAAAAAAAAAAAAAAAAAAAAAAAAAAAAAAAAAAAAAAAAAAAAAAAAAAAAAAAAAAAAAAAAAAAAAAAAAAAAAAAAAAAAAAAAAAAAAAAAAAAAAAAAAAAAAAAAAAAAAAAAAAAAAAAAAAAAAAAAAAA'
p66
aF1.0
aa(lp67
S'Shortie 4'
p68
aS'ACGAAAGUAGCGAAAGC'
p69
aF1.0
aa(lp70
S'Shape Test'
p71
aS'AAAAAGAGAUCAAGAUACAAAAAAAAGUAUCAUGACCAUCAGGUACAAAAAGUAUCAGGACAAAAGUCUGGAUGUCUAGAUCGCAAAAAAAAAAAAAAAAAAAA'
p72
aF1.0
aa(lp73
S'The Minitsry'
p74
aS'GUGUAAAUGACAAAAAUCGGAAAAGACAAAAAAACGAAAAAAAGUUGGUCGCGAGGUCUCAC'
p75
aF1.0
aa(lp76
S'stickshift'
p77
aS'AAGAUAUCCCAAAAAGGAGAUAUCAA'
p78
aF1.0
aa(lp79
S'U'
p80
aS'AAAAAGAUACAGAGAGCAGACAUAUAUAUAAAAGUAUAUAUGCGCCCGUAUCAAAAA'
p81
aF1.0
aa(lp82
S'Still Life (Sunflower In A Vase)'
p83
aS'AAGGCAGAACUAGGAAAGCGUUCAGACUUGCGUAGCAAGGAGGAUCAAAAAGAUCCAGCAUUAAAAUAGUGAGGUCGCAAAAGGUGAUAAUUGCGAAAAAUCUAGAGAUAUACAUUUAUAUAUAUAUUCGAUUCAAAAAAGGAUCAGAUACAAAAAAAAAAAAAGCUGUAAAAAAAAAAAAAAAAAAAAAAAAAAAAAAAAAAAAACCUCAGUAAAAAAAAAAAAGGUAUCGAAUCAAAGGAUUCAGAAUAUAUAUAUAAAUGUAUAUCAAGAUGCAAAAAGCAUCAAUCCUUAAAAAGAGGGGUAGGUCGAAAAGACCUUACUCACAAAAGGUGAGAUCGAUCAAAAGAAUGAACUGUCAAAAAGACAGGCCUCAAA'
p84
aF0.9603174603174603
aa(lp85
S'Quasispecies 2-2 Loop Challenge'
p86
aS'AAAAACACCGAUUGUGCUUAAAAAAGCUAGGUCAGGGGAACAAGGGACCCCAGUGCGAGACUAGAAAAACUAUACGAGUACGGUGGAAAAAAAAAAAAAAAAAAA'
p87
aF1.0
aa(lp88
S'Corner bulge training'
p89
aS'AGAUAUCGAUACAAAGUAUCAAAAGAUAUCA'
p90
aF1.0
aa(lp91
S'Spiral'
p92
aS'AAAAACAUCAUCUAUUAGACGCAUACAGAUCAGAUCAGCAGCAGCAGCAGCAGCAAAAGGCGCGCGCGCGCGAUCGAUCGUAUGGUCGGUAGAGAUGGAAAA'
p93
aF1.0
aa(lp94
S'InfoRNA bulge test'
p95
aS'AAAAAAAAAAAAAAAAAAAAAAAAAAAAAGAGCAAAAAAGGGCAAAAGAGCAAAGAGCAAGAGCGCUACAAAAAGUAAGGGCAUCAAGCAUCAAAGCAUCAAAAAGCACCAAAAAAGCAUCA'
p96
aF1.0
aa(lp97
S'Worm 1'
p98
aS'AAAAAAAUGAGGUAAGUACGUAGAAAGAGGUGAAGUAGUUAAUAG'
p99
aF0.9555555555555556
aa(lp100
S'just down to 1 bulge'
p101
aS'AAAAAGAGCAUAUACAAAAGUAUAAGACAAAAGUCAGCAUCAAAAGAUCAGACAAAAGUCAGACAAAAGUCAGAUCAAAAAAAAAAAAAAAAAAAA'
p102
aF1.0
aa(lp103
S'Iron Cross'
p104
aS'ACUCAGACAAAGACACUCAAAGAGAGACAAAAGUCAGUCAAAGACACUCAAAAGAGAGACAAAGUCAGUCAAAGGCACUCAAAAGAGAGACAAAGUCAGCCAAAGUCACUCAAAGAGAGAGAA'
p105
aF1.0
aa(lp106
S'loops and stems'
p107
aS'AAAAAGAUAUACAAAGAUAAAAGAUCAAAGAUCAAAAAAAAAGAUACAAAAAAAAAAAAGUAUCAAAGAUCAAAAGCUCAAAAAAAAAAGAGCAAAGAUCAAAGACAAAAAAAAGUCAAAUAUCAAGCAAAAAAGCGAAGUAUAUCAAAAA'
p108
aF1.0
aa(lp109
S'Water Strider'
p110
aS'AAAAAGGGGCAAACGCCAGUCGAAAGAUGUGAAAACACGGCUGGGGGCCUUUUAAUGCAAACAAAGGCUAGGCUUAGGCACUAAAAAAAAAAAAAAAAAAAAA'
p111
aF0.9611650485436893
aa(lp112
S'The Turtle(s) Move(s)'
p113
aS'AAAGGAAAGCCCGGAGAGAUAUAUGAAAAAAAAGUAUAUUUCACAUGGUGAAAAAUACCACAACGUCAAAAGACAAACUAUCAAAAAAAGAUAGAAAAACGAAACUAAAAGGACAAAGACAAAAGUCGAAUACAUCAAAAAAAAGAAUACUAAACUCAAAAGAGAAAAACUGUAGAAAAGACAAAAAAGGUCAACUCGAAAAAAAGAGGAACUAUCAAAAAAGAUAGGAGCAAGAAAAAUUUGAACUACAGAAAAAAAAAGCAAAAGAGCAAGACAAAAAUAUGAUUGAUACAAAAAAAAAAGUAUCAAAAAACGU'
p114
aF0.9683544303797469
aa(lp115
S'Adenine'
p116
aS'CAUAUCCAUAUUCAAUAGCAGAUAGCAGAUAGAUGAUCCUAAAGUUUGUCGAAAAAGAUAAGAGGGAUCUGCAACAAAGAAAAACAAAGUUUUUCGUUGCUUCUAUCACCUGAGUAUGCCAAAGGCAUAUAAAUUAGGGGCUAUCGAAAGCUAUUACAUAAUAUGCAAAAUAUG'
p117
aF1.0
aa(lp118
S'Tripod5'
p119
aS'AGGAGCGGGCAAAAGGUCCGACGGAAAACGUCGUUCAA'
p120
aF1.0
aa(lp121
S'Shortie 6'
p122
aS'AGGAAACUAGUGAAAGCAGCGAAAGUAGCGAAAGC'
p123
aF1.0
aa(lp124
S'Runner'
p125
aS'AAAAACAUCUGAUCAAAAGGAUCAAAGAUUAGCUAAAAGAGUAGCGGUCAAAGGGAAACCCGAAACCAAGGGUAAAGAAUCUUAAAGAAAAACUCAAAAGGCAUACUGAUCAAAAA'
p126
aF0.9482758620689655
aa(lp127
S'Recoil'
p128
aS'AAAAAGAUACAAGCAAGCAAGACAAGACAAGCAAGCAAAGCAGCAGUCAGUCAGCAGCAGUAUCAAAAAAAAAAAAAAAAAAAAA'
p129
aF1.0
aa(lp130
S'[CloudBeta] An Arm and a Leg 1.0'
p131
aS'AAAAAGACAGGUACAAAAGUAACCGACAGCAAAAGCGUCAGUCAAAAAAAAAAAAAAAAAAAA'
p132
aF1.0
aa(lp133
S'[CloudBeta] 5 Adjacent Stack Multi-Branch Loop'
p134
aS'GCAUGGUGGUAAUCCACGGAUCGAAAGAUCCGCUUUGAAAGAGGCGCUCGAAAGAGCCAUGCA'
p135
aF1.0
aa(lp136
S'Triple Y'
p137
aS'AAAAAAACUGAUGUGUGAAAGUACAGGGGUAAUGCUCGAUUGAUCGGCCGAAAGGUCAAUGAAAGUAUCGUUAGGUCAAAAAAAAAAAAAAAAAAAA'
p138
aF0.9175257731958762
aa(lp139
S'Misfolded Aptamer'
p140
aS'AGCAAAAAAGCGCGUGAAACAAAAGAAAUAGAAAAAAAAGCAAAAAUAUU'
p141
aF0.96
aa(lp142
S'Flower power'
p143
aS'AAAAAGAUGCUACAAAGUAGAGUGCCCUCAAAGAGGAAGAGCAAAGCUCAAAUCCAAAGGAUGCACAGCUCAAAGAGCCAUCAAAAAAAAAAAAAAAAAAAA'
p144
aF1.0
aa(lp145
S'Kudzu'
p146
aS'AAAAGGGGGGGAGAAACACAGGUCAGCUAUGCGGAUGGGGACAGCAAUGCAUAUCAAGUCGAAGAAAAAGUUGCAACAGUCAAAAAAAAAAAAAAAAAAAA'
p147
aF0.9801980198019802
aa(lp148
S'"1,2,3and4bulges"'
p149
aS'AAAAACGAGGAAAAGAAAAGUAAAAUGGAGUGAAAAUACACGAUGAAAAGCGCAUAGAAAGCAAAUCACGGAAAAUUGAACAAGCAAAAAAAAAAAAAAAAAAAA'
p150
aF0.9047619047619048
aa(lp151
S'medallion'
p152
aS'GAUAGGACUAUACAAAAGUAUAGAGACAAAAGUCUGAGAAAAUUUUCCUAACAAAAGUUAGGAGUCUAAUGGCAGAUAUCAAAAGAUAUCAGAUAAAAGUCAGACAAAAGUCAGAUACCAAAAGGUAUCAGACAAAAGUAGGAUAUCAAAAGAUAUCAUGAAAAAGUAUGACAAAAUUAUUAUAUCAAAAGAUAUGGGACGAAAGUCAGACAUCAAAAGAUGUCAUACGAAAGCCAGACAAAGGUCAGAUAUCAAAAGAUAUUAGACAAAAGUCGGUAUUCUAAUGAAUACAAAUAAAAAUGGGUGAAAACUCAGAUAUCAAAAGAUAUCGCCUAUC'
p153
aF0.884272997032641
aa(lp154
S'[RNA] Repetitious Sequences 8/10'
p155
aS'AGCAAAAAAGCAAAAAAGCAAAAAAGCAAAAAAGCAAAAAAGCAAAGAAGCAAAAAAGCAAAAAAGCAAAAAAGCAAAAA'
p156
aF1.0
aa(lp157
S'Documenting repetitious behavior'
p158
aS'AAAAAAAGCAAAAAAAAACAAAAAAAAAAGCAAAAAAAAAGCAAAAAAAAAUCAAAAAAAAAGCAAAAAAAAAGAAAAAAAAAAUGAAAAAAAAAGCAAAAAAAAAAGGAAAAAAAAGAAAAAAAAAAGAAAAAAAAAAGGAAAAAAAAAGCAAAAAAAAUGCAAAAAAAAACCAAAAAAAAAGGAAAAAAAAACCAAAAAAAAAGGGAAAAAAAAUCAAAAAAAAAGUAAAAAAAAACCUAAAAAAAAGUAAAAAAAAACCAAAAAAAAAGUAAAAAAAAAUUAAAAAAAAAUCAAAAAAAAAGCAAAAAAAAACAAAAAAAAAAUCAAAAAAAAAGCAAAAAAAAAGGAAAAAAAAAGCAAAAAAAAAGCUAAAAAAAAUGCAAAAAAAAGUAAAAAA'
p159
aF0.96
aa(lp160
S'7 multiloop'
p161
aS'GAGUCGACCAAAGGGUUGCGCUGAAAUCGCCGUUGUAAAAGUACAGGCUGUAAAGGCGAGUUGGCUAAUGUCAACGUCGAAAGCGAUGGCGC'
p162
aF0.9782608695652174
aa(lp163
S'Kyurem 7'
p164
aS'AAAAGGUGGCGGCUUGAAAACUUAGAAAGGCAGUUCUUAAAUACAUCGGAGCGAAAAAGUUAAACCGGAGAAAGCUAGUUCCAAAAAAAAAAAAAAAAAAAA'
p165
aF0.9411764705882353
aa(lp166
S'JF1'
p167
aS'GAUAGAUAUAUACUAUGAAGAUACAAAAGAUAUCAAGUAUCAAAGAUACAAGUAUACAAUAUAUAUAUAUACAAAAGUAUAUAUAUAUAUAAGACAAAAGUCACUAUAUAUCAAAAGAUAUAUAGAACUAUCAAAAGAUAGAGUAUACAGUAUCAGAUACAGAUAUCAAAGAUAUAUCAAAAAGAUAAUAUCAAGAUAUAUAUAAAUAUAUAUAUAUCAAAAGAUAUAUAUAUAUUAUAUAUAUAUCAAAGAUACAAAAAAGUAUCCUAUAUAUACAAAAGUAUAUAUAGAAACUACAAAAGUAGAAGUAUCAACAUAGAGAUCAGACAGACAAAAGUCGUCGAUCAGAUAGAUAUAAAAGUAUCAUAUCAAUAUAAUCAUAUCAAA'
p168
aF1.0
aa(lp169
S'multilooping fun'
p170
aS'UAGUAAUUAGAAAGGUGAAGAAAAUGAGAUUCCAUG'
p171
aF0.8888888888888888
aa(lp172
S'Multiloop...'
p173
aS'GCCCAAUUUAGUCAAAAGGCAAGGAAAAUCUAUACUAAUGGAGGUCGAAAGACAUGCAAAAGCAGAGAAAAAGAUGAGAUACGCACAAAAAAGUGCGCGGAAAACUGGCGC'
p174
aF0.9279279279279279
aa(lp175
S'hard Y'
p176
aS'AAAAAGAUCUCAUGUUUAUCGAAAGAUAGAUAACCUAUAUCUUUCUAAUGAUAGAUAUGAAUAGCAAA'
p177
aF0.9705882352941176
aa(lp178
S'Mat - Elements & Sections'
p179
aS'AAAAAUACCGGAAGGGAGUUAGAGAUUAGGAGUUCCUUGCUCGAAAGAGAAUUGAACCACGAUCAAAGCGGACUACAAGCGGGUAGAAAAAAAAAAAAAAAAAAA'
p180
aF0.9619047619047619
aa(lp181
S'Chicken feet'
p182
aS'AAAAGAAAGCUCGAAGCGAACGAAGUAAUGAUCAACACUGGCUAUCCAAGGAAACAAAAAUAAAAAA'
p183
aF0.8805970149253731
aa(lp184
S'Bug 18'
p185
aS'UCUUACAGCGGGAAGAUAACAGUAAGAUAGGUGUCGCUAAGUAAGCUAAAGGU'
p186
aF0.8867924528301887
aa(lp187
S'Fractal star x5'
p188
aS'AAAAAUUGUAUGCAACCAGUAAUUUGGAACACGAAAACGUGAUCGACUAAUGUCGGACUAGAAAACUAGAAGUAUACAGGAAAACUAUAUUCAAGAUCAAAAGAUCAACUACGAAAGUAGAACUGCAAAAGUAGAACUAGAAAACUAGAAGAAUAUAGAAAAAUUAAAAACAACCUCCAAAGAGGGACACCAAAAGGUGAACUAUAAAAAUAGAACUAGAAAACUAGAAGUUUUUAGAAAAAGAAAGUACAAGAACAAAGGUUCACCUUCGAAAGGGGUACUACAAAAGUAGGACUAGAAAACUAGAAGUAUUUUUAAAAACUUGAGGGAAGCGCAAAAGCGCAAGUACGAAAGUACAACUAUAAAAAUAGAACUGCAAAAGCAGAACCUUCAAGAAAAA'
p189
aF1.0
aa(lp190
S'Crop circle 2'
p191
aS'UAAAAUCGAAACUAUAAAUUGAAAAAAAACUGAAAAAAAAAAAAAAAAAAAAAAAAAAAAAAGAAAAAAAAAAAAAAAGAAAAAAAAAGGGGAAAAAAGAAAAAUGAAAA'
p192
aF0.9636363636363636
aa(lp193
S'Branching Loop'
p194
aS'AGCUCGGAAAAAAAAAACUUAAUGAUUAAGAGCGAAAAAA'
p195
aF0.95
aa(lp196
S'Bug 38'
p197
aS'AGCACCAGGAAGCGCAAAGGGCACCAAGGAAAAGCA'
p198
aF1.0
aa(lp199
S'Simple Single Bond'
p200
aS'AAAAAAGGAAAAAAAUACGCGAAAAGUGUUAAAAAAAACAAAAAAAAAAAAAAAAAAAAAA'
p201
aF1.0
aa(lp202
S'Taraxacum officinale'
p203
aS'CGUCGAAAGAAUCGAUAUGAAAAUAAGACUCCGAAAGAGAGACUCGGAAACAUAGGCUAGGAAACAUAAGGUACGAAACAUAUGGAGAUAUAUACGCUAUAUAUACAAAGUAUAAUAUAGCAGAUAGAAAUAUAUAUACGAGUAUAUCAAGGAUAUACAGUAUAUAUAUGAUCAGUUAUCAAAGAUAGCGAUCCUAUCAAAGUAUAUAUUUCAGCCGAAAGCAGGCGCUAGAAAAGAUGGACAAGGAAACAUAGACCAAGAAAUAUCGACAAGAAAACACGG'
p204
aF0.9361702127659575
aa(lp205
S'Headless Bug on Windshield'
p206
aS'AGUACGAAAACGCUACAAUGACCUGAAAAAAAAAAAAAAAAAAAAAAAAGCGGGUCUAAGUACUUUAGUAGACGGUCUAGCCACGGAAAAAAAGUGAAAGCAAAAAAAUCAGCAAAAAUGCCGCAUUUUAAAAAAAACAAGUAUGACAAGCAGUCAAAAAAAAAAAAAAAGACAAGCAGGUCUAACAGUUAUAAAAAUGA'
p207
aF0.96
aa(lp208
S'Pokeball'
p209
aS'AAAGUCAUUCAAAACAGGAUAAAUGAUGCCGUUACACUAGCAAGCGAGCAAGGCACCGGUCAGUAGUACGAUUAUAGUAUCGAAUGGUAAAAAAAAGCGAAACAAAAUGGAGUAAAUCAGGGAAGCUAGGAAGGAUUCAAUCAAAGAAGGUACCGCCUGCGACCAGAUAGCGUAGUUUUGCAAA'
p210
aF0.8913043478260869
aa(lp211
S'Variation of a crop circle'
p212
aS'AAAACAGAAGAUGAAAUUGAAACCCAGCAUCCAAAGCUCGCGAAUGGAAAAAAUAAAAAAAAGUAAAAAAAAAUCAAAAAAAAAAAAA'
p213
aF0.9545454545454546
aa(lp214
S'Loop next to a Multiloop'
p215
aS'AAGAUAAAUUAAAAAAAGUGAUAUUAAAAGAUAUUUGAAAUACAAAAGUGUUUCUUAAAAAAGAAUUUAUCAA'
p216
aF0.9726027397260274
aa(lp217
S'Snowflake 4'
p218
aS'GACCAAAGGUCCUAGAACGAAAGUCGGUCAUGCUUUUCUAAUGGCUAUAGAUUUAUAAUCAACUGUAAAGUAGUAUAGCCUAAUGGGAAGCUAGAGAGCCAAAGGGCUCUACUCCAAAGGCGAACUACAAAGUAGUAUAGCCAAAAAGGGUACAGAAGACCCAAAAGUCAGCCCUAUAAAGAAGAAUGCCAAAGUCAGGCUGUCUAAUGGGUCUUAAGAUACCCAAAAGGUUAUGCUAGAAAGUAGAACUACAAAGUAGCAUAAUCAAAGGGGUAUCAAGCUGCGCAAAAGCUUAGGUAUCAAGGAUGAACUACAAAGUAGCUAAGCGAAAAUGGUAGCAAGAUUGGGGAAACUUCUAGGAUGAAGCAUC'
p219
aF0.827027027027027
aa(lp220
S'Mat - Cuboid'
p221
aS'GAAUAAAAAGCAAGCAAAAGCAAGCAAAAGAAGCAAGCAAAAGCAAGCAAGCAAAAGAAGCAAGCAAGUAAAACCAAGCAAGCAAGCAAAAGCAAGCAAGCAAACAAGCAAAAGAUAGCAAGCAAGCGAGCAAAAGCAAGCAAGGAAGCAAGCAAGCAAAAGGAAGUAAGCAACCAAGAAAGCAAAAGGAAACAAGCAAGCAAGUAACCAAAAAAGGAAACAAGCAAGCAAGUAAUCGCAAUCAAGGAAGCAAGCAACCGCAAGCAAGCAACCAAGUAAGCGCAAGCAAGCAAGCAUUCGCAAGCAAGCAAGCAAGCGCAAGCAAGCAAGGGCAAACAAGCAACGCAAGCAAGCGCAAGCAACGCAAGCGCAAGCGCAAC'
p222
aF0.8552631578947368
aa(lp223
S'Misfolded Aptamer 6'
p224
aS'AAAAAAGGCAAAAAAGAUGUGGGAAAGACAAAAAAAAGUCAAAACAAAAUCAUCAAAAAAAGCCAAAAAAAAAAA'
p225
aF1.0
aa(lp226
S'Snowflake 3'
p227
aS'GACGCUAAUGCAGACCUCAAAAGAGAAGAUCAGAUCAAGACAAAAGUCCUUAACGAAAGUCACAAAGUGGUAAAAACGCAGCUCAAAAGAGAGGAUCAGAUGGAGACGAAAGUCCCGAUCAAAAGCGGCAAAGCCGUAAAACCAGAGCAGAAAAUAGAAUAUCAGAUCAAGACAAAAGUCCUGAGCAAAAGUGAGUAUUUCGGAAAAUCUCAGCUCAAAAGAGAAGAUCAGAUCAAGACUAAUGUCCUGAAGAAAACAGAGAAACUCACAAAAGCACGGCUCAAAAGAGAAGAUCGGAUGAAGGCGAAAGCCCAGAACAAAAGUGAUAAAGGCGCGAAAGCGCAGCUCAAAAGAGAACAUCAGAUCAAGACGAAAGUCGUCAACAAAAGUGUC'
p228
aF0.7888040712468194
aa(lp229
S'Hard Y and a bit more'
p230
aS'AAAAAGCUCGGGCGACUAGAAAUAGUACCCGAUGGUCGAUGGUCGAAAGAUCUAAAUUCUAAAAUGGAUUAGCGUCCAUCCGGGCAAAAAAAAAAAAAAAAAAAAA'
p231
aF0.9716981132075472
aa(lp232
S'Mat - Lot 2-2 B'
p233
aS'GAUGGGAUGAGCGAGCAAAAGUAAGAGGGAAAUCAAAAUCAAGCGCAAGCAAAAUCUAUUCCAAUCAAUCUAGUGCAAUCAAAACCAAAUGCAGGUAAAAGUGAAAGCGCAAGCAAAAAUAGGCGCAAGUGCAACCAAGCAAAAGUCUAAGAGCAAGCAAAAGGUAGAUUGAAAAAAAAAUCAUCCGCAGGCAAAAUCAAAGGCAAGCAAGAAUGCUCAAACAAAAUAGAGACAAACCAAAAUCAAAAGAGCAAGGAAAAUCAAGGGUAAGGGUAAGGAACUAC'
p234
aF0.8345070422535211
aa(lp235
S'Shapes and Energy'
p236
aS'AAAAAACGGUUGAGAUCAAAAGCAUGGGAGCGAAAGAUCCCUAUCGGUCAUAGAAAAACGAUGUAAUCAUCUUGCAGCGGAAAAAAAAAAAAAAAAAAAAA'
p237
aF0.9603960396039604
aa(lp238
S"Spiral of 5's"
p239
aS'GGAAUGAUACAAAGCUACAAAGUUAUAAAAGAUGCUAAGAUUCUAAGGUACGAGAUACUAAAGAUACAAAGCUACUAAGAUACGUGCUACGAAGACACUAAGAGACAAGAUACAAAGAUACAUGUUACAAGAUACGAGAUACAUGAUACACCUCACUUGCGGUCUAAAAAAUAGACGGGGACGCAAAAAACUGAGGAAAAAGUAUCUAAAAGUAUCGAAAAGUAUCGAAAAGUAACUAAAAGUAUCAAAAAGUAUCAAAAAGUCUCAAAAUGUGUCGAAAAGUAGCUAAAAGUAUCGAAAUGUAGCAAAAGGUAUCAAAAUGUAUCAAAAAGUACCAAAAUGAAUCGAAAUGUAUCAAAAAAUAGCGAAAAGUAGCAAAAAGUAUUUAAAACAAAAA'
p240
aF1.0
aa(lp241
S'Campfire'
p242
aS'AAAAUGUGAUCAAUGAAGUUUAAGAUGGAAAACAUCGACGGGGAAUUUAGUCGAGCGAUGGGAAUAUCAGCUCCGAAUAGAAGCGCGCAUAGUAGAAGGAACAAAAAUAUGCUAUCAUACCAAAGUAGCAAUCAGUCAGCCCAUAGUUCAUCGCUGUGUAAUACACAUCGAAAGAUGGUAUACGAUACAGCAAAGUUAGUAACCUGAGCCUC'
p243
aF0.8254716981132075
aa(lp244
S'Anemone'
p245
aS'AAAGAUGUGGAAACGCAUUGCAAUUAAUGUAGCAAGAUCGAAAGAUCUGUAUAAAAAAUUAUGGAAAGUUAAUGCUUUCUAGAGGAAUUUGUCGACUGAAAGCGGUCGUUUCGUAAUUGAGGCUAACACAAAGGUGUAGGUCUUAAAGGAGACCGACACUUAUGUGUCCUUGUGCAAAUCUGGCUAGAGAAAGCGAUGUCUACUAAAGAAUAAU'
p246
aF0.822429906542056
aa(lp247
S'Fractal 3'
p248
aS'AAAAUAAUGUACCAGGUAAUCCUCAGAAGAAGGUUUGUAGGAAAGCACAAAAAUGAGCCAUAACACAAAGGCACAAAAUUACUAUGUAAGCAAAAGCCCAAAAGGAGGUUUAUUUAAAA'
p249
aF0.865546218487395
aa(lp250
S'Kyurem 5'
p251
aS'AAAAUGAUAGAGCUUUAAUGAGCUCAAAAGUUGGGCGAAAUGGAAAAGCCACCUCUAUUAAAAUGUGAAAGCGAGAUCAAUAUCUAAAAAAAAAAAAAAAAAAA'
p252
aF0.9326923076923077
aa(lp253
S'Snowflake Necklace ( or v2.0 )'
p254
aS'GAAAUGUGUCGACACAGGUAGAGCGAAAAGUAGCGAGAUACAGCAAAAAGCAGGUAAAUGCAGCAAAAAGCGCUACCAGACAAAAAGUUACCUAUGGCUAAAUGCAGGAAAAACCAGCUAAAUGCAGCAAAAAGCGGUCAAAAAAGAUAGGAGGCAAAAAGCCGCUUCCAACAAAAAGUAGCAAAAAGCAGCAAAAAGCACAAAAAAGGAGGAAAAACCGGUGGGACGAGAAAAUCGAAACGCGGCAAAAAGCAUGGAAAACGAGCAAAAAGUAGCAAAAAGCGGCAAAAAGUAGCAUAUCGCAAAAAGUCUGACACAGCAAAAAGGAGCAAAAAGCAUCAAAAAGAAGCAAAAAGCAGCAAAAAGCAGUGUCAGUGUUGAUACAUUUC'
p255
aF0.87146529562982
aa(lp256
S'Methaqualone C16H14N2O Structural Representation'
p257
aS'AAAAAAAUAACUUGAGAAACAGACAAAAGUCAGGCACUCAAAGGAGAGACAGAUAAAAGUCAGACAAUGAAAAUAUACGGGAAAAAAUUGGGUCAGUCGGUAAGUCAGAAACAUUUGAGUGCAAAUAACUCAAAGAAAAUCAAAAAAAAGUGAGACAGUCAAAAGGCGAGAAAAUUCGACAAAAGUCGUCAUGAAAUAUCAGCAACUGACAGAAACUCAGACACCCAAAAAACAAAAGUUAGGGACAGAAAAUUGAGUCAAAAAAAAUUUGGAGAGACAAAAGUCAUUCAGACGACAAAAGUCGUCAAAGGACACUCAAAAGAGGUCAGACUGCUAAAAGCACUGAUAAAAAAAA'
p258
aF0.8929577464788733
aa(lp259
S"Cat's Toy 2"
p260
aS'AAAGGAUUCACGUAAAGCAAGUAAAAAAAAAAAAAAAAAACAACUAAAUUAAAGACGACGGAAAAUCUAAAAAAAGGAAAAAAGUGGUGAAUUAAAA'
p261
aF0.9587628865979382
aa(lp262
S'Zigzag Semicircle'
p263
aS'AAAGGGUUGAUAACAAAAUUAACGAUGGCCAAAA'
p264
aF0.9411764705882353
aa(lp265
S'Short String 4'
p266
aS'AAAAAACAAACAAAUAUGAAGGAUAAACAAAAGUGCAAUAAUCAACAAACAAAACUCAGGAACUAAUGAUAGGUGGAAAAAAAAAAAAAAAAAAAAA'
p267
aF0.9381443298969072
aa(lp268
S'Gladius'
p269
aS'GGAAACAAAAAAAUAAACAAGCGGGGAAAGACAGUCUAAGGUCAAAAGAUCGGAUACAAGGGAUAUGAUAUCAUGAGAUCAAGGUAUAUAUUCGAUAUUAGAUAACGAUCAGAUCAAGGACAAAGUUUAGAUACGAUCAAUAUUAAAUAUCAAAUGUAUAAAGGGAUCAAUCGAUAAACGGGCAACAGUAUCAGACAAAGUCUGAAUCAGAAGUCACAAUAACGGAGGGAAAGAAUUAUAUCAAAUAUCAGAUACAGAUAUACGAAUGAUUGCAAAGGUAAUCAUUUCAGAUAUAUGUAUACGAUAUGAGAUAUAAGCAAUUCCACAAGUUGAGAAGACACAAGAUUCAUAUCUAAUGAUAAACGGCAGUCAAGCAACACAAGAAGAAAAAUAACAAAAG'
p270
aF0.905
aa(lp271
S'Thunderbolt'
p272
aS'CGAAGAUACAAAAAAAAAGGCAGGCUGAGUCCAAAAAUAGGUAGGUCAAAAAAAAUCGAAAAAAGUACAAAAAGUGCAAAAAAUGAAAGCAAGCAAAAAAAUAAGAAAAAACAAGAAAUAAGCAAAAAAAAAAUAGAUUAAAAAGUCAAAAAGAUUUAGAAACGAAUAUAAAAAGACAGAGCACGCAAAAAAUGAAGGGCAAAGUGCAACUAAAAAGGAAGGCUCAAAAAAAAAAUCAGGGGGAUGUCAAAGGCAUCAGCAAACAAAAAAAAAAAGCAAGCAAAAAAAAAGAGGCAAAAGCUAUACAAAAAGAAAAAAAACAAAAAGUAUAGAAAAAUAAAGAUCUAUCAAAAAAAACUACAAGCGUAAAAAGAAAAAAACAGUAUCAACGA'
p273
aF0.9438775510204082
aa(lp274
S'Mutated chicken feet'
p275
aS'AAAAAAUUUAGCAGUUAAACGAAGAACCAAAGCAGUCUAGCAUUAAAUGAGCAAGGGGAAGCGCUGCAGCAAAGAAUUAGCAAAGCAAGGCGCUAAAAAA'
p276
aF0.86
aa(lp277
S'Chicken Tracks'
p278
aS'AAAAAAAAGAGGUACGCUGAAAGUAGCAAGAUCUAAUGAUCGACACCUAAUGGUGGUAUACCGAGAGAUACAAAAUUUAUGAGCAAAGCUCUUUAGCGAAGUUACUCGAAAGAAAA'
p279
aF0.9310344827586207
aa(lp280
S'Looking Back Again'
p281
aS'GUCAGGACCAACAAAAAGAAUUCUAUGAAUUCAGUUGAGGACUUCAAAGCAAGUCGGAAAGAUACAAAUAUCAAAAGAUAAAAAGUAUCGAUUCAAGUGAAGGCCGACAAAAACAUGCAAAAGUAUGAAAAAAAAUGGUGCGUUAAAAGUUAUCCUAUCAAAGAUAGGACAUCCUUAUAAUAAGUACAAGAAGAGCAAAAGUUCAGCCUCACGAAAGGGCUCAAAAGAGAAGAUAUCAAAGCAGCGGCUGGUGAGAAUACGAAAAUGUUAUGCGAAAAAAAGAUAAAAAAUAUCGUACAAAGGCAGCAUGUUCGAAAAAGCCUAUACAAAAGUAUAGAAGGCUCUAUGGAGAUACGAAGUAUCAACCCGCAAAAGAACCUGGCAAAGAC'
p282
aF0.8508997429305912
aa(lp283
S'Multilooping 6'
p284
aS'AGCCAGUGGCCAUGAAAAGUCAUGAAAGGUAAUUCCUCGCCUCCUACAAGACAGUGGAGCCGGAAAGCCGGUGAAGCUGCAA'
p285
aF0.926829268292683
aa(lp286
S'Cesspool'
p287
aS'GAAGAAGAAAGCAAGUCAAGAGAUACAAAGUAAACAACAAGAGAAAAAGAAAACAAUAAAAGAAAACAACGGAACGAAAACAAUAACAAGGAGAAGAAAACAACGCAAUAGAGACAAAGUCAACAACAAGAGAAGAUGAAAACUACAGAAGAAAGGAGCGCAACGUAAUCAGGAAGAAACAAGAACGAAAGAACUCAAGAGAGACAAAGUCAACAACAAGAAAAAAAGGAAACAAUAAAAGAAAACAACGCAACGAAAACACCAAGCUAACAAGAAGAAAACAGCUCAAGAGAGUGAAAUGCAACAACAAGAGAAAAAGAAAACAAUUAUAGAAAAUAUUUCAACGAAAACACCAAGC'
p288
aF0.7374301675977654
aa(lp289
S'Hoglafractal'
p290
aS'AAGAAAAACCAUCAAAACAUACAAAAAGGUAUGGAAGCCAACAAAGAUCAAAAAGAUCGUAGAUCAAGACAAAAGAUGAUAUUCUACCAGCAAAGAUCAAAAAAGAUCGCUGCUCAAGACAAAAAGUCGAUCAAACAAAAGUGGAGAUGCAACGGCAAGACAAAAAAGUCGCCCCAGGGAAAAUCGGUUCGAAAGAGAGUGACAAAACGCAGCGAAAAAGCGCACGAAAAAUAAGAAAAAUCGGAUAUGUAAAAAGAUAAAAAAAUGGCGAAAAGCGAUGAUAUACAAAGUAUAUCUAAAAAUCAUGUCAAAAAAGUCACAAAAAUAUCAAAUCAGAAAAUCGCUCGCGGCUGAUGUAAAGCAAAAGUCCAAAAGGGUUAUCAAAGAUAGCUCAUCGUGG'
p291
aF0.885
aa(lp292
S'Bullseye'
p293
aS'AAAGUAGGACAAAAUUUAAAAGGAAACUUUAAUUAAAAGGUAAUGCAAAAAAAACAUGAACGAAGCGCAAGUGCAAGGCUAAAGGACGAAGUCCAAGAAAAAAAGCUGGAUCAAAAGUCAAUAGGAAACCUGGACAUUUAUGGUGCGGAAAAAAAACGCGAACAAAGAACAAUCUAAAAUAGGAAGGAAGAAGUUCGAGAAA'
p294
aF0.8118811881188119
aa(lp295
S'Shooting Star'
p296
aS'AUAUGCGAUCGAUAGAGAAAGAGAGCCGUUCAGAGACCGAAAGAGUUACGAAGGACAAUCAAUUCUAUCAGAGCGUAAAGUAACGCUGAGUCAGACAGAAAGCAGCAAAAGACGUUAUUCGUAUGAACCAGAGACACGUAUGAUAAUUAGGUACGAACCAUACCAAGUACGACUACCAAACCUAAAAUUAAUGGCAUAUUAGAUUACCUUAGAUAAAAGUUAUAGUAUUUAUAAUAGGGUCCAAGACUGCGUCGAUAUGCAAAGCAUAUCAUGAGCACAGAUCAAAGCCUGGAACGAAAGGAAGAAGGAGACCGGCAUAUCACCAAAAGAGGAUAGGUCGGUUCAACACAGGGUACAGCAUAUA'
p297
aF0.8186813186813187
aa(lp298
S'Teslagon'
p299
aS'AAAAAAUCAAAAAAUUCUGUAAAAAAAGUAGCAAAAAAAAAAAAAAGGUGGAAAAUGCACGAAAAAAAAAAAAAACGAGCAAAAAAAGCAACGAAAAAAACAAAAAAAAAAAAAAAGUAAAAAAAGCGGUACAAAAGUCGGCAAAAAAAAAAAAAAAGGGAAAAAUUACCUAAAAAAAAAAAAAUACGGAAAAAAAAACAGUAAAAAAAGCAAAAAAAAAAAAAAAGGAAAAAAAGCACCAAAAAAACCAGUAAAAAAAAAAAAAAACCGAAAAACUACCAAAAAAAAAAAAAAAGGAGGGAAAAAAGGAGCAAAAAAAGUAAAAAAAAAAAAGCAAAAAAAAAAAAAAAGAGACGAAAAAAGCAGGUAAAAAGGAAAAAAA'
p300
aF0.9057591623036649
aa.