(lp0
(lp1
S'Simple Hairpin'
p2
aS'AGGGCAAAAAAGCCCU'
p3
aF1.0
aa(lp4
S'Arabidopsis Thaliana 6 RNA - Difficulty Level 0'
p5
aS'AUAGGGCUAAAGGCGAAAAAAAAAAGCCCGGGGUGCAGUGUAGGGGUGUGGUAUGGCAAAGUGGCAAAAAAGCCGCAGCCAUGCCCACACCCCUACAAGGCACCCCGAUGCCCUAU'
p6
aF1.0
aa(lp7
S'Prion Pseudoknot - Difficulty Level 0'
p8
aS'GGGGGCAGGGCAAAAGCCCGCCACCCAAAAAAAAAA'
p9
aF1.0
aa(lp10
S'Human Integrated Adenovirus - Difficulty Level 0'
p11
aS'CGGGUCCGGUAUGCUGGGGUCAAAAAAAAAAAGGGCCGGGAGGUUCAAUGCCGUCCCAAAAGGGGUGAUAGCGCGAAAAAAAGCGUUGUCACAAAACCCGGGACAAAAGGUGCCAAAAUCCCGUAAUUGGUCCAAAAAAGACCGAGCCCGAAAAAAAAAAAGACCCCUGCAUAAAAACCGGAAAUCCCGAAA'
p12
aF1.0
aa(lp13
S'The Gammaretrovirus Signal - Difficulty Level 0'
p14
aS'AAGAGGGUAGGGCAAAAGCCCUAAACGCAAAAAAGGGCAAGGCAGGGCCGGGCAAAAGCCCGGAAAGCCCGCCGCCCAACGGGUGUCGAAAGAUACCCGGA'
p15
aF1.0
aa(lp16
S'Saccharomyces Cerevisiae - Difficulty Level 0'
p17
aS'GUAGUAGCGGGUAAAAAAUCCCGACAGAAAAAAAAAAAAAAUGAAACGGGGCUAAAAAUGUCCCCUGCUGCAAAAAGGUUCGAAAGGAUAAAAAAUUCCUUCGAAAAAAAAAAAAGUGGAAACGUGGUUAAAAAUGCCACUGGGCCUGAAAAUGGUACAAUGGUAAAAAAAGGUCACGUGGCUAAAAAUGCCAUGAAAAAGGCUAAAAAAGGGCCUGUAUCGUGAAAUGGUUCGAAGGGACAAAAAACUUCCGGGAGAUAAAAAUUCUCCCAAACCGAUUGAAAAAAAAUCGCGAACUAGAACCCGUUUCAAAGUCAAAAAAAGGACUCCCGUGAAAAAAGCACGGGAAACGGGCUUAAAAAUGGUUCGGAACGGAAAA'
p18
aF0.9947229551451188
aa(lp19
S'Fractal 2'
p20
aS'AAAAAGGGGUGCCAAAUAGAGGUGUCUAUUGCGAAAAAAAAAGCGGAAGGGCAAAAAAAAAAGCUCAAGCACUAAAAAAAAUGUGCAUGACGCCUCUAGAAUGGGUAUAGUGGGUGCGAAAAAAAAAGCGCAGGCGCAAAAAAAAAGGCGCAACAGUAAAAAAAAAAACUGAAACUAUACCCGAAAGGGGUGUGGCUUGGGAAAAAAAAAAAUCCCUAUGGCAAAAAAAAAAGCCGAAUGACGAAAAAAAAAGUCGAUGCCACACCCCAAAGGCACCCCAAAAA'
p21
aF1.0
aa(lp22
S'G-C Placement'
p23
aS'GGGCAAAGCCCG'
p24
aF1.0
aa(lp25
S'The Sun'
p26
aS'UGGAGGGCUGUAAAACAGAACCCUCGAAAUGCAGACGUACGAAAUACAAGUCGCGAAAGGUAAGGGUGCAAAGCAUAACCCACCAAAAGUUGGGCUGCUAUGCGGAACCCACAAAUGCCAGGGGAGCAAAGCACAACCCGGUAAACGAACGGGUAGAAGCUACAACGGUCGAAACGAAGGCGGCUGAAACCCAAGCCUCGAAACGCAGGGCUGAAAGUCAGAAUCCGCGGAAAGAAGGGUUGUUAUGCACAAUCCUCG'
p27
aF0.8527131782945736
aa(lp28
S'Frog Foot'
p29
aS'AAAAAAAAAAUAGCAAAAGCUAGGGCAAAAGCCCGGGCAAAGCCC'
p30
aF1.0
aa(lp31
S'InfoRNA test 16'
p32
aS'AUAGGCACGGGGUGCAAAAGCACCACCAGAGCCUAU'
p33
aF1.0
aa(lp34
S'Mat - Martian 2'
p35
aS'GUAGAAAGUUACAAAGGGGUGCAAGGGGGGCAAAAAAAGCUCCCCGCACCCCAAAGGGCGUACGAAAAAGGGGUGCAGGGGUGCGAAAAAAGCACCCCGCACCCCAAAGGGGUGUGAGUUCCAAAAAAGGGAAUUCAACACCCCAAAAAAGUACGUCCGAAGGUUGUAGGAUGGCUAAAAAUGCCAUCCAAUAUAACCAAAGGGCUAAUGCCC'
p36
aF1.0
aa(lp37
S'square'
p38
aS'AUAUAGCCGGGGCCGGGGUCCGGGGCAAAGCCCCGAAAAGACCCCGAAAAGCCCCGAAAAGCUAUAU'
p39
aF1.0
aa(lp40
S'Six legd turtle 2'
p41
aS'AAAAAGAGAAGCAAAGUCAAGAGAAAAAUAAAGCAAAAGUAAACCAAAAGGAACGCAAAAUGAAAGUCAACCUAAAACCAAAAAAAAAAAAAAAAAAA'
p42
aF0.9591836734693877
aa(lp43
S'Small and Easy 6'
p44
aS'GCAUGUAAAUUGAAUGGAAAAAAAACAUCU'
p45
aF0.8666666666666667
aa(lp46
S'Fractile'
p47
aS'AAAAAAAAAAAAGCAAAAGCAAAGCAAAGCGAAAGCAAGGAAAGCAAAAGCAAACCAAGCGAAAGCAAAGCAAGCAAAAGCAAAAAAAAAAAAAAAAAAAAAAAA'
p48
aF1.0
aa(lp49
S'Six legd Turtle'
p50
aS'AAAAAUUAAAACGGAAAGAGACACGAAAAGGAAAAUAAAAAUAAAAUUCAAAAGAUAAGUCUAAUAGAAAAUUAAAAGAGAAAGAAAAAAAAAAAAAAAAAAAAA'
p51
aF0.9619047619047619
aa(lp52
S'snoRNA SNORD64'
p53
aS'AUAGGCAAAAAGGCAAAAGGCAAAGGGGCAAAAAAAAAAAAAGCCCCAAAAGCCAAGCCAAGCCUAU'
p54
aF1.0
aa(lp55
S'Chalk Outline'
p56
aS'AAAAAGGGCGCGUACGAAAGUAACGGAGCACGCGAAAGCGGCUAGGGGGCAAAAGCACCCCAGGGGCAAAAGUCACCGCCCAAAAAAAAAAAAAAAAAAAAAAA'
p57
aF1.0
aa(lp58
S'InfoRNA bulge test 9'
p59
aS'AUAGGGCAGAGAGAGGGGUGCAAAAGCACCCCCCCGCCCUAU'
p60
aF1.0
aa(lp61
S'Tilted Russian Cross'
p62
aS'AAAAAGGGGCGUCGAAAGGCGGGUCAGGGCGAAAGCCCGGAGUAAAAACUCCAGGGAAAACUCCCGACCGAGCGAAAGCUCCCCCAAAAAAAAAAAAAAAAAAAA'
p63
aF1.0
aa(lp64
S'This is ACTUALLY Small And Easy 6'
p65
aS'AAAAGAGAGAGAGAGAGAGAGAGAGAGAGAGAGAGAGAGAGAGAGAGAGAGAGAGAGAGAGAGAGAGAGAGAGAGAGAGAGAGAGAGAGAGAGAGAGAGAGAGAGAGAGAGAGAGAGAGAGAGAGAGAGAGAGAGAGAGAGAGAGAGAGAGAGAGAGAGAGAGAGAGAGAGAGAGAGAGAGAGAGAGAGAGAGAGAGAGAGAGAGAGAGAGAGAGAGAGAGAGAGAGAGAGAGAGAGAGAGAGAGAGAGAGAGAGAGAGAGAGAGAGAGAGAGAGAGAGAGAGAGAGAGAGAGAGAGAGAGAGAGAGAGAGAGAGAGAGAGAGAGAGAGAGAGAGAGAGAGAGAGAGAGAGAGAGAGAGAGAGAGAGAGAGAGAGAGAGAGAGAGAGAGAGAGAGAGAGA'
p66
aF1.0
aa(lp67
S'Shortie 4'
p68
aS'CCGAAAGGAUCGAAAGA'
p69
aF1.0
aa(lp70
S'Shape Test'
p71
aS'AAAAAGUGGGCAAGGGGCAAAAAAAAGCCCCAAGGCAGGCAGGGGCAAAAAGCCCCAGGGCAAAAGCCCAGCCGCCAAGCCCUCAAAAAAAAAAAAAAAAAAAA'
p72
aF1.0
aa(lp73
S'The Minitsry'
p74
aS'GGAAAAAAGUUAAAAACCGAAAAAGUAAAAAAUACUAAAAAAUGUAGUACGCGGGAAUGUCC'
p75
aF1.0
aa(lp76
S'stickshift'
p77
aS'AAGGGGUCCCAAAAAGGAGACCCCAA'
p78
aF1.0
aa(lp79
S'U'
p80
aS'AAAAAGGGGCAGAGAGCAGAGGGGUGUGCAAAAGCACACCCCCGCCCGCCCCAAAAA'
p81
aF1.0
aa(lp82
S'Still Life (Sunflower In A Vase)'
p83
aS'AAAGGGCAACAGUUGAAAAGACUGAACUGGCGAAGCCAGAACGCGCUAAAUGCGUGGACGUCGAAGCGACGAACGAGAAAAAAUCUUGGAGGGGGUAAAUCUCCCGGGGGUGUGGUGUGGGGUGUGGGCGAGGUGAAAAAACCUCAGGGUCAAAAAAAAAAAAGGGGCAAAAAAAAAAAAAAAAAAAAAAAAAAAAAAAAAAAAAAAAAGCCCAAAAAAAAAAAAAGGCCCCGGGCAAAAGCCCGAGUCCAUACCCCACACCACACCCCAUGGGGCAAAAAGCCCCUAGUGGCAAAAAGCCACAGCUGCGGAAAAUGCGGAAUGGGCGAAAAGCCCAGAGCGGCUAAUGCCGCAACUAUAAAAAAUAUAGGGCCCGAA'
p84
aF1.0
aa(lp85
S'Quasispecies 2-2 Loop Challenge'
p86
aS'AAAAAGGGCCAUCGAUAGCAAAAGCUAGAGAUGAAGGUCGCAAAGAAGCCUAGACGAAGGUUACAAAAAGUAUACGGUGUCGCCCAAAAAAAAAAAAAAAAAAAA'
p87
aF1.0
aa(lp88
S'Corner bulge training'
p89
aS'AGGGGUCCGGGCAAAGCCCGAAAAGACCCCA'
p90
aF1.0
aa(lp91
S'Spiral'
p92
aS'AAAAAGGGCAGGGGUCAGGCAGGGGCAGGGCAGGGCAGCAGCAGCAGCAGCAGCAAAAAGCGCGCGCGCGCGCCCGCCCGCCCCGCCGACCCCGCCCAAAAA'
p93
aF1.0
aa(lp94
S'InfoRNA bulge test'
p95
aS'AAAAAAAAAAAAAAAAAAAAAAAAAAAAAGGGCAAAAAAGGGCAAAAGGGCAAAGGGCAUUAGCAAGGCAAAAAGCACUAGCAUAUCGCACCAAAGCACCAAAAAGCACCAAAAAAGCACCA'
p96
aF1.0
aa(lp97
S'Worm 1'
p98
aS'AAAAAAAAUGUCAGAGAUUACUAAAAAAUAUCGUAGCCCAGUUUG'
p99
aF0.8666666666666667
aa(lp100
S'just down to 1 bulge'
p101
aS'AAAAAGGGCAUAGGCAAAAGCCUAAGGCAAAAGCCAGCACCAAAAGGGCACGCAAAAGCGAGGCAAAAGCCAGCCCAAAAAAAAAAAAAAAAAAAA'
p102
aF1.0
aa(lp103
S'Iron Cross'
p104
aS'AUGCAGGCAAAGGCGCGAGAAACGAUUGAAAGUAGACCAAAUCGCACGCAAAAGCGAGGCAAAGAUAGUCUAACUCUAACAAAACCUAGAGAAACCCUGGCAAAGCCAUGCGAAGCAAGCGAA'
p105
aF0.9349593495934959
aa(lp106
S'loops and stems'
p107
aS'AAAAAGGGGGGCAAAGGGCAAAGGGCAAAGGGGUAAAAAAAAGGGGCAAAAAAAAAAAAGCCCCAAUUCCCAAAAGCGCAAAAAAAAAGGCGUAAAGCCCAAAGGCAAAAAAAAGCCAAAGCCCAAGCAAAAAAGCAAAGCCCCCCAAAAA'
p108
aF1.0
aa(lp109
S'Water Strider'
p110
aS'AAAAGAAAAUGGUACUGAGGAGAAAGUCUCGACAGCGAUGUCGGGAAUGUAGUAAUUUAUAAGAAAGUAACACGAAAAGGUUACAAAAAAAAAAAAAAAAAAA'
p111
aF0.9320388349514563
aa(lp112
S'The Turtle(s) Move(s)'
p113
aS'AAAGCGAAAGUGAAGGGGCUGUGCAAAAAAAAAGCACAGCCCAAAGGGGGAAAAAUCCAAAAAGCUUAAAAAAGAAACGGGUCAAAAAAACUCGAAAACGUAAAGUAAAAACAAAACGUCGAAAGAUAAAAGGGGGGCAAAAAAUCCCCGAAAGCCCAAAACUGAAAAACGGGUCAAAAAACAAAAAAGGUUAACGCAAAAAAAAGCGAAAGUGGCAAAAAAGCCACAAACCGCAAAAAGCGGAAGACCUGAAAAAAAAACCAAAUCCAAAAUCCAAAAGAGAAAUGAGGGCAAAAAAAAAAGCCCUAAAAAAAUC'
p114
aF0.9810126582278481
aa(lp115
S'Adenine'
p116
aS'AGGGCAGGGGUCAGGGGUCAGGGGUCAGGGGUCAGGGGUCAAAAGGGGUCAAAAAAGACCCCAGACCCCAGGGGCAAAGGGGUGCAAAGCACCCCGCCCCAGACCCCAGGGGUGUGGUACAAAGUACCACAAAACCCCAGACCCCAAAAGACCCCAAAAGACCCCAAAAGCCCU'
p117
aF1.0
aa(lp118
S'Tripod5'
p119
aS'AUGGUGCGGCGAAAAGCCGGGGCUAAAGGCCCCGCCUA'
p120
aF1.0
aa(lp121
S'Shortie 6'
p122
aS'GCUAAAGCGGCAAAAGCAGGUAAUCCACCGAAAGG'
p123
aF1.0
aa(lp124
S'Runner'
p125
aS'AAAAGGGGCAGGGCAAAAAGGGCAAAGCCCAGCCCAAAGGCAAGGGGGCAAAGCUAAACCCGGGCGCAAAGCGAAACCCAGCCAAAGGCAAAGGCAAAAGCCAGCCAGCCCAAAAA'
p126
aF1.0
aa(lp127
S'Recoil'
p128
aS'AAAAAGGGGCAAGCAAGCAAGGCAAGGCAAGCAAGCAAAGCAGCAGCCAGCCAGCAGCAGCCCCAAAAAAAAAAAAAAAAAAAAA'
p129
aF1.0
aa(lp130
S'[CloudBeta] An Arm and a Leg 1.0'
p131
aS'AAAAAGGCUGGGGCAAAAGCACCUCUCAGCAAAAGCGGGUGCCAAAAAAAAAAAAAAAAAAAA'
p132
aF1.0
aa(lp133
S'[CloudBeta] 5 Adjacent Stack Multi-Branch Loop'
p134
aS'GGGGGCGGCGAAAGCCGGUAGCAAAAGCUACGGGGCAAAAGCCCCGCGCCAAAGCGCCCCCCA'
p135
aF1.0
aa(lp136
S'Triple Y'
p137
aS'AAAAGGUAUCUUAGGCGUAAUCGGAGGUAGAAAUGCCUACAAGCAUUGAAAAGUAAAUGUGGAAACACGCCGGGUGCAAAAAAAAAAAAAAAAAAAA'
p138
aF0.979381443298969
aa(lp139
S'Misfolded Aptamer'
p140
aS'GGGCGAAAAAGCGGCAAAGCCACUGAAAAGGAAAAAAAAGCGAAAAGCCU'
p141
aF1.0
aa(lp142
S'Flower power'
p143
aS'AAAAACGGUCGGCAAGGACGUCGGCCGGCAAGACCAAGUGUUUACACCGAAAGCCAAAGGCUGCGCUAGUCAAACCCUGCCGAAAAAAAAAAAAAAAAAAAA'
p144
aF0.9215686274509803
aa(lp145
S'Kudzu'
p146
aS'AAAAAGAAAGUGGAGUACCAUAGAACGGAAGGUUAUGGGUAGAACAAAGUAACUAAUCACGAAGCCUAAGACGCAUCGUGCAAAAAAAAAAAAAAAAAAAA'
p147
aF0.9801980198019802
aa(lp148
S'"1,2,3and4bulges"'
p149
aS'AAAAGCUGGAACUGCGGAAGUGAACAGUGCUGAAAAUGAAACACGAAAACAGUACCCAAAAGAAAGGGGGUAAAGACCGACAAAGAAAAAAAAAAAAAAAAAAAA'
p150
aF0.9047619047619048
aa(lp151
S'medallion'
p152
aS'AUGGGGAUUGAGAAAAAUCUUAGAAGUAAAAACUGCGCAAAAGCGAAGGGAGUAAUUUCACUGCCCAAAAGGGAAGAUGCAAAAGCAUCUAACAAAAAUCAACUCUAAUGGGACGGGGCAAAAGCCCCGAACGAAAACCUGUGUGGGAAAGCCCGCAGAGCAAAAGCUACGCAAAAGAGGCGGCUAAAAAUAACCAGAGUGAAGACUAAGGCUUAAAGGGGCCUAUUAAAAAUAAAAACAAAGGCGACGCGUUAAAAAACGCGAAGGGAAAGGUACGUAUCAAAAGAUACGACGGAAAACGGACCCAAAAGAGGCGGGACUAAUGUCCCGAUCUUAU'
p153
aF0.8902077151335311
aa(lp154
S'[RNA] Repetitious Sequences 8/10'
p155
aS'AGCAAAAAAGCAAAAAAGCAAAAAAGCAAAAAAGCAAAAAAGCAAAAAAGCAAAAAAGCAAAAAAGCAAAAAAGCAAAAA'
p156
aF1.0
aa(lp157
S'Documenting repetitious behavior'
p158
aS'AAAAAAAAGAAAAAAAAAUCAAAAAAAAAGUAAAAAAAAACCAAAAAAAAAGCGAAAAAAAACCAAAAAAAAAAGUAAAAAAAAGCAAAAAAAAAUCAAAAAAAAAUUGAAAAAAAUACGAAAAAAAAGGAAAAAAAAGGCAAAAAAAAAGCAAAAAAAAAGCAAAAAAAAUGUAAAAAAAAAGCAAAAAAAAAGCUAAAAAAAUGCGAAAAAAAAGCAAAAAAAAAACUAAAAAAAGGCAAAAAAAAAGCAAAAAAAAAGCAAAAAAAAAUCAAAAAAAAAGCUAAAAAAAAGGAAAAAAAAACCAAAAAAAAAUCAAAAAAAAUCUAAAAAAAAAGGAAAAAAAAAGGAAAAAAAAAGGAAAAAAAAAGCAAAAAAAAAGAAAAAAAAAACUAAAAAA'
p159
aF0.95
aa(lp160
S'7 multiloop'
p161
aS'AGGCGAUGAGAAAUCAUCCCGGCGAAAGCCGGGCGACAAAGGUUGCGGGGGGAAACCCCCCUCUUGAAAAGGAGUAUGCAAAAGCAUAGCCU'
p162
aF1.0
aa(lp163
S'Kyurem 7'
p164
aS'AAAAUUGGGGGCGGCGAAAGCCGGGAAAAGGGCGGGCUAAAUGCCAGCCUCCUAAAAUGGAAAAGGCGCCCCCCGCCACCCAUAAAAAAAAAAAAAAAAAAA'
p165
aF1.0
aa(lp166
S'JF1'
p167
aS'GCGGUAGGGUAACGGGUCAGGUGCAAAAGGGGGCAAGGGGCGAAGGGGCUUGGGGUGAAUAAAGGGGUGUGCAAAAGCACACCCCUUUAUAGGGCAAAAGCCACGGGGCGGCAAAAGCCGCCCCGAACGGGCAAAAGCCCGACACCCCUGCCCCAGCCCCGGCCCCCAAAGGGGUGUCAAAAAGACAACCCCAAGGGGUGUGGUAUGGGGUGUGGUACAAAAGUACCACACCCCAUAACCACACCCCAAAGGGACAAAAAAGUCCCCGGGUUUGGCGAAAGCCAGACCCGAAACGGCAAAGGCCGAAGCGCCCAACCCGGGAGCAGCCAGGCAAAAGCCGGCGCUCUGUCCUGUGCGAAAGCACACGGACUUACCACUGCCCGCAAA'
p168
aF1.0
aa(lp169
S'multilooping fun'
p170
aS'GUGUGUGCAGAAAUUUAAAUGUCUCCUAAAAAUAGC'
p171
aF0.8055555555555556
aa(lp172
S'Multiloop...'
p173
aS'GGGCAGGAUUAGGCAAAACCGCCCGAAAGGGUGGCGAAAACCUUUCGAAAAAGUGAGCAAGACUUGGCUAAUGUUUCUCCAGAGAGAAAAAGUUCUUGGAUAAUAUCGCCU'
p174
aF0.9459459459459459
aa(lp175
S'hard Y'
p176
aS'AAAAGCGCCGCUUGGAUGUCGAAAGACAUCUUAGCGGGAUUUGGAGAAAUCCAGAUUCCGGCGAAAAA'
p177
aF0.9705882352941176
aa(lp178
S'Mat - Elements & Sections'
p179
aS'AAAAAGGGUAUAAAGAAUAAAGACACUAGCACAUCAGCAAGCAAAAGCUAGAAGACGGACUCUAAAAACGAGGUGCAGAAAACCCGAAAAAAAAAAAAAAAAAAA'
p180
aF0.9619047619047619
aa(lp181
S'Chicken feet'
p182
aS'AAAAAGUACAUGCAAACCGGCUAUGCAAUUGACGGCAGCUUGAAAUGUACCAAGUGAUCCGUAAAAA'
p183
aF0.8805970149253731
aa(lp184
S'Bug 18'
p185
aS'AUGGGGACGAGGAUGCUAGAAGCAAAAUAAUCCAUUUCAACGUCCCUAAGCAG'
p186
aF0.9245283018867925
aa(lp187
S'Fractal star x5'
p188
aS'AAAAACUGGGAGCAGUCGGAAAACUCUAACGGCAAAAGCUGAACAGCGAAAGCUGGAUUGCGAAAGCGGAAGCUCCCAGAAAAAGCGCGUGUAGAUGCAAAGGCAUAUUAGGGAAAGCCGUACCGUAAAAGUGGAAGGUCAAAAGGCCGGGCACGCGUAAAAACGGGAUUGAAGACUAAAGGGUGAACAUCGACACAUGAAUGAUAAAGAUCGGUCUAUGAAAAUAGUGUAACCAUCAAAAACGGGGUGUAAUGAUAAAAAUCGAAGGGCGAAAGCCUGACAGCGAAAGCUGGAACCCAAAAGGGUAAGCACCCCGGAAAACGUGAUUAAAUGUGGAAAUGCGAUCAAGAAAACUCGUAAGCCAAAAGGCUAAGGGCAAAAUUUUAGGAAGCGCGAAAAA'
p189
aF0.945
aa(lp190
S'Crop circle 2'
p191
aS'ACAAAUUAAAACUUAAAUUCUAAAAAAAAUCAAAAAAAAAAAAAAAAAAAAAAAAAAAAAGGUAAAAAAAAAAAAAAUACUAAAAAAAGACAAAAAAGAUGAAAGUAAAA'
p192
aF0.9454545454545454
aa(lp193
S'Branching Loop'
p194
aS'GGGGCGGAAAAAAACGGGCAAAAGCCUAAGCUCAAAAAAA'
p195
aF0.95
aa(lp196
S'Bug 38'
p197
aS'ACCUGGACUGUGUAGAAAUCUCAAGGGCAUAAUAGA'
p198
aF0.9444444444444444
aa(lp199
S'Simple Single Bond'
p200
aS'AAAAAAGGAAAAAAAUGGAUUAAAUGUCUUAAAAAAAACAAAAAAAAAAAAAAAAAAAAAA'
p201
aF1.0
aa(lp202
S'Taraxacum officinale'
p203
aS'GGGUAAAAGACCCACUCCGAAAGAGGGGCUGCGAAAGACAGUCGGCGAAAGACCGUUUACAAAUGACUGACUCAGAAAGAGGGGAGGGUGUGAUCGGCCUGUGGUCUAUGACCAACAGGCCGGGGUAAACGGCGUGCCCAAAGAAUGCGAAGCAUUCUGGGGCGUGCCGCGCCAGGCGACAAGGUCGCCGGCGUACCCAAAGAUCACACCCUAUCACUAAUGAUCAGGGUGGAAACAGCUAGCUCUAAUGAUGCAGGAGUAAUUACUUACCUCAAAAGAAGG'
p204
aF0.9219858156028369
aa(lp205
S'Headless Bug on Windshield'
p206
aS'AGCAACAAAACUGAGCAAGGGGGCCAAAAAAAAAAAAAAAAAAAAAAAAAGCUACCAAGGCCAGGAAAGUAGCAGGCAAGGCAAGCAAAAAAAAUAAAAGUAAAAAAAGACCCGAAAAAGCCAGCAGUGAAAAAUGACAUGCAUCACAGCCGACGAAAAAAAAAAAAAAAAGUAAGGAGGCGUGGCGGUUUAGUAAAGAA'
p207
aF0.98
aa(lp208
S'Pokeball'
p209
aS'AAAGGGGUGCAAAAGAGAGCAAGUCAGGAGAACGAGGAAGCGGUCGAGCAAAGCAGAAAGCACCAGUGAUCAGGCAGCAUCGCAUCCCAAAAAAAAAGGCGGAAAAAGGGAGCAAGACAAGUCCCCGAGCAAGCAGUCGAGCAAAGCAGAAGGCAGCAGGUCACGGUCAGCACCUCCGCCUAAA'
p210
aF1.0
aa(lp211
S'Variation of a crop circle'
p212
aS'AAAACCAAAUCAAGUAGUAAAACCGAACAGCAAAGAAAUGUAAAACCAAAAAACAAAAAAAGACUAAAAAAAGGGAAAAAAAAAAAAA'
p213
aF0.9545454545454546
aa(lp214
S'Loop next to a Multiloop'
p215
aS'AGGGGGUUUCAAAAAAUUGGGGCUUAAAAAAGCCCUGCGGUGGAAAAUUACCGCUGUAAAAAGGAAGUCUCAA'
p216
aF0.9726027397260274
aa(lp217
S'Snowflake 4'
p218
aS'AUGAAAAUCGUCGGGUCCGAAAGGCUGGCAAGCGGCACAAAAGUCGAGCGGGCAAGGCCCAAGGCGAAACGCUGCUCGCGAAAGGGGCUGCGAGGGUCGCAAAAACCAGACCUACAAGGCAGAAUUACAAAGGUAGUUUGUCGAAAGGGGCCCAAGGUGCGAGAAAACGGGGCGCGCAAGGUGCAACGCAGAAUGCGGCCCUUGUAAUAAGCACCGGGGUUCGCAAAGGAGGUUCUAGUGAAGACAAACGAUAAGGCUGGGCCUCUGAAAGGGAACCAAGCGUCUCAAAGGGUGGGCGAGUAAGGCUCAACCACAAACUGGGCCCGCCUAAUGGGACGCGAGCCGGUGGAAACAACCCGGCGCAAGGCCC'
p219
aF0.8513513513513513
aa(lp220
S'Mat - Cuboid'
p221
aS'UAUACAAAACUAAUCAAAAGUUAGCAAAAGAUUCAAGUAAAACCAAGUAUUGAAAAGGAGUAAGUAGGGAAAAGGAAGUAGGUACGCAAAAGUAAGUAAGUACGCAAGCAAAAGAUUACUUUAUUUCAAUUAAAAGCUAGCUUUCGAUCAGUCUACGAAAAGCGAGCAACUUACCUAUCAUCCAAAAGUUGUAUUUCAAUCUGUUUAUAGAAAAAAGAAAGAUGAGCGAUUUAAAACGGUCCAGUGACAAGGGGCGAGCCGAUGAAGGAGGGAUUGUCAGCAAGGGAUAUAUCGUUAUCGCAAUCAAACUAACUAACGCUAAUUAACGACCCCAAGCUAACGCCUGUGACAAGGGUUAGAUAUGCUUACGAUAAGGUUAG'
p222
aF0.8894736842105263
aa(lp223
S'Misfolded Aptamer 6'
p224
aS'AAAAAAGGCAAAAAAGGGCAGCGAAAGGCAAAAAAAAGCCAAAAGAAAAAGCCCAAAAAAAGCCAAAAAAAAAAA'
p225
aF1.0
aa(lp226
S'Snowflake 3'
p227
aS'GGACCAAAAGGAGGCCUCAAAAGGGAAGGGCAGUUCAAGGCAAAAGUCCAAACCAAAAAGCUGAAACAGCAAAAAGGAUUGUCUAAAAGCACAGGACGGGUCAACGCGAAAGCGCGGACUAAAGGCCACAACGCCCCAAAAGGAUCGCGCGAAAGCGAGGGCCAGGGCAAGGCAAAAGCCCGUACCAAAAGGGCCAAAGCCCAAAAAUGAACGCUCAAAAGCAAAGCCCACGGCAAUUCUAAUGAGCGAACCAAAAGGCGCAAAGCGGCAAAGGGAUCGCGGAAAAUCGAGGCCGAACUCUAGGUAAAAACCAGUUCCAAAGGGCGCAAAGCGCCAAAGGGUGCUCGCGAAAGCGAUCGGUAGCCCAAGUCAAAAGUCGCCACCAAAAGGUCC'
p228
aF0.8269720101781171
aa(lp229
S'Hard Y and a bit more'
p230
aS'AAAAUGCCCCGACCGGGGAAAGUCCCCAUCGGGUGCAUACUGCCAAAGGGGAUUGGCGCUAAAAUGCGCCUGGUGCCCCCGGGGCUAAAAAAAAAAAAAAAAAAAA'
p231
aF0.9716981132075472
aa(lp232
S'Mat - Lot 2-2 B'
p233
aS'AAAUCGUUUCGUUGUCAAAAUCUUGCGCAAAAUCAAAAUCAAGAGAGAGUAAAAGAAAUGUUAGGCAAGCUCUCAGUAGCAAAAUCUUUGGAGUCCAAAAAGUAAUCUGGAAUCAAAACGUAUAGCGAUCUCCUUCAAGCAAAAGCGCGGUAGUAGUCAAAAGUUUUACCGAAAGGAAAAUGAUGCGAAAACAAAAUAAAGCGAAAGAUAGCGAGCGCAGGCAAAAGCAGUACCUGCGAAAAGGUCUUUGUAAAGCAAAAUGAGGAGAAGGCGCAAAUCAAGAC'
p234
aF0.7605633802816901
aa(lp235
S'Shapes and Energy'
p236
aS'AAAAAAGAGGACAGGGAAAAAGACGUAGGACUAACGGCUUAAAGCUCCCGAGGAAAAAUUGACAAAGGUCACCGGUUCGCAAAAAAAAAAAAAAAAAAAAA'
p237
aF1.0
aa(lp238
S"Spiral of 5's"
p239
aS'CAAAAGGGGCAAAGGGGAAAAGGGGAAAAACGGGCGAAGGGGAAAAGGAGAAAGGGGGAAAAGGGGCAAGGGGGAAAAGGGGAAAGGGGCAAAGGGGAAAUGGGGAGAGGGGCAAAGGGGAAAGGGGCAUGGGGCAAGCGGAAAGGGGCGGGGGCAGGGGGGUGGCAAAAAGCCACGGGGGCCCCCAAAAGGCCCCAAAACGCCCCAAAAAUCCCCAAAAAGCCCCUAAAAGCCCCAAAAAUCCCCAAAAAGCCCCAAAAAUCCCCUAAAAUCCCCGAAAAGCCCCAAAAAUCCCCAAAAAUCCCCAAAAAGCCCCAAAAACCCCCGAAAGUCUCCAAAAAUCCCCAAAAAGCCCGAAAAAUCCCUAAAAAUCCCCAAAAAGCCCCAAAAAGAAAAA'
p240
aF0.9949622166246851
aa(lp241
S'Campfire'
p242
aS'AAAAAGGCAGCGGGUAAGGACAAAGUCGAAAAGACUGGGGAGGAACUCACCCGUCCCAUUGGACGAGGACGAGCAAAGGCGCUGCCCGGGGGCAGGAGCAACAAAACCGGACGUGAAGCCUAAUGGACUUCGCAACCACCCUCAAGUCACCCGGGUAGGCAUUCACGGCAAAGGCUGGGGGCCGGAGCGUCAAGGACAGCACCUAGCCGCCU'
p243
aF0.9622641509433962
aa(lp244
S'Anemone'
p245
aS'AAAGGGAACUAAUUAGCCCGGUGUGAAAGCACCAAUGAAUAAUUUCGUUGGGUCUAAUGAUCCGGGCGGAAAGGUACCCGGUGCGAAAGCGCUGCGGUAAAGGCCGCCGGUGAAAAGUGCGCCAGGUGUAAAGACGCUGAGGUCGAAAGACCUCUGAGCUAAUGCUCCGAAAAAAAAAGGACAGUCGAUGAAAAUCGAGUGGUCGAAGGAUCAC'
p246
aF0.8878504672897196
aa(lp247
S'Fractal 3'
p248
aS'AAAAGGGGCGAGGACAAAAAUGUCUAAUGAAACGUACCACCUAAUGGUCAAAAGCAGGGUGGCACUAAAAAGGGUAAUCUAUCCAGGCACCGAAAGGUCGAAAGAGCCGAGACCAAAAA'
p249
aF0.9495798319327731
aa(lp250
S'Kyurem 5'
p251
aS'AAAAAGGGUGAACCCGAAAGGGGUUAAAGGAGCCUGCAAAGAGAAAAGCUCGCAGGGUAAAAAGACCAGCUCAGAUUUAUACCGAAAAAAAAAAAAAAAAAAAA'
p252
aF0.9423076923076923
aa(lp253
S'Snowflake Necklace ( or v2.0 )'
p254
aS'AUCUAGGGGAGUGGAAGGUGCACCGAAAAGGACCAAAAAGGACCAAAAAGAACGAAAAAUGACCGAAAAGGAGCGCCUGGCAAAAAGCCGGGGGCUCCGAAAAGGUCCAAAAAGCACCGAAAAGGAACAAAAAGGACCAAAAAGGAGCCCUAAGCAAAAAGCUAGGGUCAGCAAAAAGCAGCAAAAAGAUCCUAAAUAGUCGAAAAAUGACCAAAAAGGGGACCCAAGAAAAAAGCAAGCGGAAGCAAAAAGCACCAAAAAGGACCAAAAAGGACGAAAAAUGACCAAAAAGGAUCCGCAGGCAAAAAGUCAAUGGCAUCGAAAAGGACCAAAAAGGACCAAAAAGGACCAAAAGGGACCAAAAAGGACCCGCAUCUACUCCCCUAGAU'
p255
aF0.8611825192802056
aa(lp256
S'Methaqualone C16H14N2O Structural Representation'
p257
aS'AAAAAAAGGGCAGGCCACGCAAGCAAAAGCUAGGUACGCAAAAGCGAGCCAGGCAAAAGCCAGGCAGGCAAAAGCCAUGCGAAAAAAGCAAGUCAGGCGACCAGCGAGAAACAGGCCAGGGCAAAGCACACAAACGAAACGAAAAAAAAGUGAGGUAUCUGAAAAGCCGCAAAAGCGCUCAAAAGAUGCCAGCAACGGGUAGAAACGGGCAGUAACGUAGGCUAGCAAAAGUGGAAAUACAGCUACCCAAAAGGGUGCCAGGCAAAAGCCAGCGAGAUAAAAAUCAUCCAUGCGGCAAAAGCCCUGUAAUCAGAGGAAAAAUCCGCAGGCCAGCGCAAAGCCCUGCCCAAAAAAA'
p258
aF0.9295774647887324
aa(lp259
S"Cat's Toy 2"
p260
aS'AAAUGAGGUGUGUAAAACAAUAAAAAAAAAAAAAAAAAAGGUAGGAAAGAAAAGAUGAAUUUAAUGCAAAAAAAACAGAAAAGGUCACAUCUCUAAA'
p261
aF0.9587628865979382
aa(lp262
S'Zigzag Semicircle'
p263
aS'AAAUGGCCCAGGGUAAAAACAGAGGGGGCUUAAA'
p264
aF0.9411764705882353
aa(lp265
S'Short String 4'
p266
aS'AAAAAGGCAGUAAAGAAUAAUGUGGAGCAAAAGUUCAUCUAUUAUCUUUCAAAAGAACGAAUGUAAAAUAGAACCCAAAAAAAAAAAAAAAAAAAAA'
p267
aF0.9381443298969072
aa(lp268
S'Gladius'
p269
aS'GAAAACAAGAAAAGUAAGGAGAGGAUAAAUGCAGGCGAAGGGCAAAAGCCCAUGGGUAACAGUUAAUAGGGCAACAGGGCAAGAGGGGUGUCAGGGCCGAGGCGCAGGGCACGGCAAGUGCUAUGCGCAGCCGGGCCCGACGCCCACACCCGAACACCCCAACAGCCCAAGAGCCCACGGAGCAUGAGCCCAAGCCAAAUGCAGGGGCGGAAGGCAGAAGGUCGGAAAGGCAGAAGGGGUGUCAGGGUCAGGGGCUGGGGUGAGGCAAGGUUCAAAGGAACCUAAGCCCAACCCACGCCCACGACCCCAACACCCCCCAAGCCUAGAAGACCACGAGCCGCAAGCCCCAGGGCAAAAGCCCAAAGCAAGCGAAAAGACACGACAAUCAAAACAACAAAAG'
p270
aF0.905
aa(lp271
S'Thunderbolt'
p272
aS'GUGAGGUGCAAAAAAAACAGCGAGGAUAAAAAGAAAACAGUCGCCUCAAAAAAAACUGUAAAAACGGUUAAAUGCCGAAAAAUACAAACCAAUCAAAAAAAGGUCAAAAAAGUCCAAGUUUUAAAAAAUAAAAGAGGAUUAAAAGCUGAAAAGAGCCUUAAGGUGAAGCAAAAAAGCAAGACAAAGAAAAAAACUUGAACUAUGUAUAACAAAAAAAUAAAGACUAAAAAAAUGCCCAAAAAGGGGUUAAAAACCCCAUAACGCAAAAAAAAAAAGACGGGAAAAAAAAAAAAUAUAAUAUGGGUUAAAAGGAAAAAAAGCAAAAGAGCCCAAUGGGUAAAGAGUUCACAAAAAAAAGAGCGAACAGGAAAAGAAAAAAACAGCACUGAACA'
p273
aF0.9362244897959183
aa(lp274
S'Mutated chicken feet'
p275
aS'AAAAAAUGCAGCAUCUAUGGGAAGAAUCAAGGCGCUCGAUAACGAAAUGAGCAAAACAAGGACGGGCAGCAAUAAAAGUCCAAGGAAAAGCGUAAAAAAA'
p276
aF0.82
aa(lp277
S'Chicken Tracks'
p278
aS'AAAAAAAGUAUAGGCGGGCGAAAGCCCAUGGGCAAAAGCCCUAUGGCGAAAGCCAGCCUAUAAAGGCGGAGAAACUCCAGGGGCAAAGCCCAAGCGCUACGCGUGCCGAAAAAAAA'
p279
aF1.0
aa(lp280
S'Looking Back Again'
p281
aS'AGCAAGCCUGGCAAAAAGGGGUAAAAUACCCCAGCCAAUGGACGCAAGGAAAAUACGCGAGGGCCGAAGGGCAAAAGCCCAAAAGGCCCAAUCCUAGACAACGGCGGUAAAAAGUCCCAAAAGCCAGGAAAAAGCCUGGGCGUGGCAAAGCUCCCGGAUGAAGUCCGACGGACCGCUUUUUAAGUCUGCCAGUUGCAGAAGCGAAGGCACUCAAAGUCGGGGGAAACCCAAGUCCGUAAAGCCCCGCCCAGGGGCAGUGCAAAAAACGGGUGCAAAAAAAAAUGCGAAAAGCGAGCACAAACCGAGAGUCGGCGAAAAACCGUGGUUAAAAGGCCACAAGGUCCAAAGGACGGGCUAGGCCCGAAGUCAGAAAAGCACGCCCUAAAGCU'
p282
aF0.8894601542416453
aa(lp283
S'Multilooping 6'
p284
aS'AUUUCGCACGCGGACUAAUGUCCGGGCGAGAAAGCUUCUGACGUUGCGCAAAGGCGCAGGAGAUAAUUCUCUAUGGCGAAUA'
p285
aF0.926829268292683
aa(lp286
S'Cesspool'
p287
aS'GAAUAAUAAAAAAAAGUUUUAGAGCCAAAGACAACAAUCCACGAAGUAUAAAAAAACAGUUUAAAUGAAUAAAAGGAGAACAAAGACAACUCAAAGGACACAGUGCUGUAGAGUAAAAUACGACAAAAAGCAAAGCGUAAAAAAACGCUUUAAAAAAAAAAAAGGAAAACAAAAAGCGAUUUAAAGAAACCAAUCGGUUGCAAUCAAACAUAAGAAGAAUGAAGGCUUAAAAAACCUCUGCAAAAGGAGAAAAGGAAAACAAGAUAUAAACCAAAAAAAAAUAACGCAAUAGAGGGAAACCCAACGAGGAGCGAAUCGUAAAGAAAGUUUGGGAAACAAAUAAACGAAAACAAAGAGC'
p288
aF0.7346368715083799
aa(lp289
S'Hoglafractal'
p290
aS'AUUAGGAACGGACAAAAGCGAUGAAAAAAUCGCGCCCGGGCCAAGCGGGUAAAUUCCCGCCCUUGAAGGCAAAAGCCCAGAAGAAAAGGGAAAAACCAAAAAAAUGGUGCCCGGCAAGGCAAAAGGCCACUCCAGCAAAAGCGGACGUCAAAAUUUAAGGUAAAAAAACCUCAUUAGUAAAAAGCAACGCAAAAGCGAGGGACAAAAAUGACCAAAAAAGGCGGGUAAAAGGCACCAAAAGGAGGGAUCUAAAAGGGGAAAAAACCCACAAAAAGGAAACGGGGGCGAAGUCCCCGAAAAAAUGAUCCCGAAAAAGUCCCGAAAACGACAAAGACAAAGCCAAAUAAUAAUACGGAAAAAAGGAAAUUCCAAAAGGUGAGGCAAAGUCUCGAUCCGAUAA'
p291
aF0.89
aa(lp292
S'Bullseye'
p293
aS'AAUCGCGUGCAAAGCGCAUAUGCAAAGACAUAGGCAAAGUGCCGCGUAAAAAAGGACAGGCGAAUUCGAACGGCAAGGCUCAAGGCGAAAUGCCGUCAAAAAAAACUCGUGGGAAUCUCAAGGGCGAAGCCCGAUUUCAAGGGAAGCGAAAAAAAUGCGCGAAAAGGUUGAGUGGUAAAACCGAAGGCAGAAUCGGUGCUAA'
p294
aF0.8118811881188119
aa(lp295
S'Shooting Star'
p296
aS'GGCGUCCCUCUGAGUGUAAAGAGAUUCAAGGAGGCAGCAAAGGACGCACUCUAGAGAGCCAGACACUCGAAGGGCUGGAGUAUCAGGCAGGGGCAGGCAGGGCACCAAAAGAGGCCACGCCGACCCACGCCGGAAGACUAUGGAAAACCGCCCUGGGCCAGUGAAACGCUGAAGUACGAACUACUGAAAAAAUGCAGACCAGAUAUGGAUAGGGCAAAGGGGUGCAAAGCACCCCACGGGCUAUGCCCGUCCCAUGGGUCAAAGACUCAUAAAGGCAAAGCCCGGUCCUCUCAAGACAAUGAUUUAUGGUUGGAGCAUGGGACAAAAAUAGCCCAAGCUACUGGAAGUAUGCGCGGUGACGCCA'
p297
aF0.8241758241758241
aa(lp298
S'Teslagon'
p299
aS'AAAAAACAAAAAAAAGAAGCAAAAAAGGCGAGAAAAAAAAAAAAAAACCAAGAAACUAACAAAAAAAAAAAAAAAGUACCAAAAAAAGGAUCAAAAAAAGUGAAAAAAAAAAAAAAACAAAAAAAGAGUGUAAAAAAACAGAAAAAAAAAAAAAAAAUCAAGAAAUUUACAAAAAAAAAAAAAAAUUAGCAAAAAAUUCAGGGAAAAAACCAAAAAAAAAAAAAAAGGAAAAAAAUCGGCAAAAAAAUCAUCUAAAAAAAAAAAAAUGAAAGAAACUAACAAAAAAAAAAAAAAAGUCGGAAAAAAAGCAUCAAAAAAAGUAAAAAAAAAAAACCGAAAAAAAAAAAAAACGAACAAAAAAAGGAGCAAAAAAAUAAAAAAA'
p300
aF0.9109947643979057
aa.