(lp0
(lp1
S'Simple Hairpin'
p2
aS'GAUAUAAAAAAAUAUC'
p3
aF1.0
aa(lp4
S'Arabidopsis Thaliana 6 RNA - Difficulty Level 0'
p5
aS'GAUAUACAAAGGACAAAAAAAAAAAGUCGAUAUACUUUGAUAUACGAUGAGAUAUACAAAGAUAUAAAAAAAUAUCAGUAUAUACUCAUCGUAUAUCUUGGUAUAUCAAGUAUAUC'
p6
aF1.0
aa(lp7
S'Prion Pseudoknot - Difficulty Level 0'
p8
aS'GAGAUCAGAUCAAAAGAUCGAUACUCAAAAAAAAAA'
p9
aF1.0
aa(lp10
S'Human Integrated Adenovirus - Difficulty Level 0'
p11
aS'UAACUCCUAACCAUGGAUAUGGAAAAAAAAAAGCGCCUGAGGGCAAUGAUGGACAGCCAAGACCAGAUGGCAUGGAAAAAAACGUGCCGUUUCAAAGGUGCUGUGAAACCAGCCAAAACUCAGAGGAGUAACUAAAAAUGUUACUGCGCGAAAAAAAAAAACAUAUCAAUGGAAAUUUAGGAAAUGUUAAAA'
p12
aF1.0
aa(lp13
S'The Gammaretrovirus Signal - Difficulty Level 0'
p14
aS'AAGUCGUGAUGUCUAAUGAUAUCUAGUCAAAAAAGAUCAAGGCAGACGCGGAGGAAACUUCGGAGAUGUCGCCGAUCAGGAUGUACGAAAACGUACAUCAA'
p15
aF1.0
aa(lp16
S'Saccharomyces Cerevisiae - Difficulty Level 0'
p17
aS'UAUAUGCGUCCGAUAAAAAAGGCUGGGAAAAAAAAAAAAAAGCUUCGCCGUGAAAAAAGAAUGGGCAUAUAAAAAGAUAAACAGAGUGGAAAAAAACACUAACAAAAAAAAAAACGAUUAAAGGACUCUAAAAAUAAGUCGUUUGUUGAAGUAGAUGCAAGAGCGAAAAAAAGCUUGCUAUGAAAAAAACAUAGCAAAGGAUAUUAAAAAUAUAUCGCGUCUAAAAUGAGAUUCAACGUUGAAAAAAAGACGGAUAUCUAAAAAUGAUGUUAAAGGAUUGGAAAAAACAAUCGAAUUUUUAAGUAUUGACAAGAUCUAAAAAAUGAUCGGUAUCUAAAAAUGAUGCCAAAGCUUCUACAAAAGAGAAGGUCAAUGAAAA'
p18
aF0.9736147757255936
aa(lp19
S'Fractal 2'
p20
aS'AAAAAGAUAUACGAAAGGUACGAGGGAUGCGCGAAAAAAAAAGUGUUAGAUCAAAAAAAAAGGAUCGGGAUGAAAAAAAAAACAUCAACCCUCGUAUUAAUGAUAUGGGAGAGGAGCAAAAAAAAAAGUUCAAGAUCGAAAAAAAAAGAUCAGGAUCAAAAAAAAAAGAUCAAUUCUCGUAUCUAAGAUACACGAUAAGAUUAAAAAAAAAGGAUCAAGAUCAAAAAAAAAAGAUCAAGGACAAAAAAAAAGGUCCAGAUUGUGUAUCGAAUGUAUAUCAAAAA'
p21
aF1.0
aa(lp22
S'G-C Placement'
p23
aS'AGACAAGGUCUG'
p24
aF1.0
aa(lp25
S'The Sun'
p26
aS'GACAGACAUUGAAAUAAUAAGUCGUCAAAGACAGAAAUACAAAGUUUAAUUCGCCUAACAUAGAGAUAUAAAGUAUAACCCGUGAAAGAUAGAGUUCGGAACGAAAACUCGUCAAAUACAUCGAUACGAAGUAUAACGAGUAAAUGGUAAGGGUAUUAUGUAUAACUUACCUAUGGCAGAGUUAAAAAGUAAAACUCGCCUAACACCGAUCUGCAAAGCAGAACUCGUGAAAGGCAGACAGACAAAGUCUAACUCGUC'
p27
aF0.8372093023255814
aa(lp28
S'Frog Foot'
p29
aS'AAAAAAAAAAUAUCAAAAGAUGGAGCAAAAGCUCGACCAAAGGUC'
p30
aF1.0
aa(lp31
S'InfoRNA test 16'
p32
aS'GAUAUCGGAGAUAUCAAAAGAUAUACUACGGAUAUC'
p33
aF1.0
aa(lp34
S'Mat - Martian 2'
p35
aS'GAUCAAAAGAUCAAAGAUAUACAAGAUAUACAAAAAAGGUAUAUCGUAUAUCAAAGAUAUACGAAAAAAGAUAUUCAGAUAUACAAAAAAAGUAUAUCGAAUAUCAAAGAGAUAGACUAUACAAAAAAAGUAUAGUACUAUCUCAAAAAACGUAUAUCAAAGUUAUAGACUAUACAAAAAAAGUAUAGUAACUAUAACAAAUAUUGAAAGGUA'
p36
aF1.0
aa(lp37
S'square'
p38
aS'GAUAUACCUAUAACUAUACCCUACGCGAAGCGUAGAAAAGGUAUAGAAAAUUAUAGAAAAGUAUAUC'
p39
aF1.0
aa(lp40
S'Six legd turtle 2'
p41
aS'AAAAAAAAAAAUGAAAGUAAAUCGAAGGGAAACAAAAAAGAAAUGAAAAGCAAAGUAAAAGUGAUUUAAAAGGUAAUUAAAAAAAAAAAAAAAAAAAA'
p42
aF0.9591836734693877
aa(lp43
S'Small and Easy 6'
p44
aS'GCUUGUAAAUCAAAAGUAAAAAAAUCUAGC'
p45
aF0.9333333333333333
aa(lp46
S'Fractile'
p47
aS'AAAAAAAAAAAUAGGAAACCUAAGAGAAAGAAAAAUAAACGAAAGGAAAUUAAAUAAAGUUAACGCAAAGCUAGAUAAUCAAAAACAAAAAAAAAAAAAAAAAAA'
p48
aF0.9619047619047619
aa(lp49
S'Six legd Turtle'
p50
aS'AAAAAGGUAAAUUGAAAAAGAAAGUGAAAGUAAAGGGAAAACAUAAGAUUAAUGAAAACUUGAAAAAUAAGAGAAAUUGAAAUUAGAAAAAAAAAAAAAAAAAAA'
p51
aF0.9238095238095239
aa(lp52
S'snoRNA SNORD64'
p53
aS'GAUAUCAAAAAGACAAAAGACAAAGAUAUAAAAAAAAAAAAAAUAUCAAAAGUCAAGUCAAGAUAUC'
p54
aF1.0
aa(lp55
S'Chalk Outline'
p56
aS'AAAAAGAUGGGAGACAAAGGUACUCAGGCAUGCUAAUGCAGUCAGAACCCUAAUGGCGUUCACGACGGAAACGUACGCAUCAGAAAAAAAAAAAAAAAAAAAAA'
p57
aF1.0
aa(lp58
S'InfoRNA bulge test 9'
p59
aS'GAUGUAAAGCGAGAGAUAUAGUAAUCUAUAUCCCCUUAUAUC'
p60
aF1.0
aa(lp61
S'Tilted Russian Cross'
p62
aS'AAAAAGAUGGCGUGAAAAUGCGACGAAUGCGAAAGUAUGAUAAAAAAUUAUCAGAUCAAAAGAUCCGUCCAGCUAAAGCUGCAUCGAAAAAAAAAAAAAAAAAAA'
p63
aF1.0
aa(lp64
S'This is ACTUALLY Small And Easy 6'
p65
aS'AAGAGAGAGAGAGAGAGAGAGAGAGAGAGAGAGAGAGAGAGAGAGAGAGAGAGAGAGAGAGAGAGAGAGAGAGAGAGAGAGAGAGAGAGAGAGAGAGAGAGAGAGAGAGAGAGAGAGAGAGAGAGAGAGAGAGAGAGAGAGAGAGAGAGAGAGAGAGAGAGAGAGAGAGAGAGAGAGAGAGAGAGAGAGAGAGAGAGAGAGAGAGAGAGAGAGAGAGAGAGAGAGAGAGAGAGAGAGAGAGAGAGAGAGAGAGAGAGAGAGAGAGAGAGAGAGAGAGAGAGAGAGAGAGAGAGAGAGAGAGAGAGAGAGAGAGAGAGAGAGAGAGAGAGAGAGAGAGAGAGAGAGAGAGAGAGAGAGAGAGAGAGAGAGAGAGAGAGAGAGAGAGAGAGAGAGAGAGAGA'
p66
aF1.0
aa(lp67
S'Shortie 4'
p68
aS'ACGAAAGUAGGGAAACU'
p69
aF1.0
aa(lp70
S'Shape Test'
p71
aS'AAAAAGGGAUCAAGAUAUAAAAAAAAAUAUCAAGACAGACAGAUAUAAAAAAUAUCGGAUCAAAAGAUCAGUCGUCAAGAUCGCAAAAAAAAAAAAAAAAAAAA'
p72
aF1.0
aa(lp73
S'The Minitsry'
p74
aS'GUCAAAAAUGCGAAAACACUAAAAGACGAAAAGGUAAAAAAAAACCAGUCCGUGGGCAGGGC'
p75
aF1.0
aa(lp76
S'stickshift'
p77
aS'AAGAUAUCCCAAAAAGGAGAUAUCAA'
p78
aF1.0
aa(lp79
S'U'
p80
aS'AAAAAGAUACAGAGAGCAGAGAUAUACGCAAAAGCGUAUAUCCGCCCGUAUCAAAAA'
p81
aF1.0
aa(lp82
S'Still Life (Sunflower In A Vase)'
p83
aS'AAAGAUGAAUAAUGAAAAAAGAUAAAGAUACGAGGUCCAAACAUCGGAAAACGAUGAAGGUCCAAAGGACUAAUACUUGAAAAAUAUAAAGCUAUGAAAAAUAGCUGAUAGACGAGGUUAUACGGUGAUGAUAGAAAAAACUAUCAGUUAGAAAAAAAAAAAAAGAUGUAAAAAAAAAAAAAAAAAAAAAAAAAAAAAAAAAAAAACCUCAUCAGAAAAAAAAAAGUUAGCGAAUCAAAGGAUUCAAUCACCGUAUAACCUCGUCUAUCUGGUUACAACAAAUAGCAAGAAUCAAAAGGAUUCAAGGUAUUAAAUAUACCAACCCAAAAAAAGUGCUGAGUUAGAAAGUUAACAUGCCAUAAAAAAUAUCUCAUCGAA'
p84
aF0.9735449735449735
aa(lp85
S'Quasispecies 2-2 Loop Challenge'
p86
aS'AACAGGAUCGAUUUUGAUCAAAAGAUCUUAAUCAGGUAGACUAUGGAUGCCAUCAGUUUUUGACAAAAAGUCUUGUUCUGAGAUCAAAAAAAAAAAAAAAAAAAA'
p87
aF1.0
aa(lp88
S'Corner bulge training'
p89
aS'AGAUAUGGAUACAAAGUAUCAAAACAUAUCA'
p90
aF1.0
aa(lp91
S'Spiral'
p92
aS'AAAAAGAUCAGAUAUCAGACAGAUACAGAUCAGAUCAGCAGCAGCAGCAGCAGGAAAAACCGCGCGCGCGCGAUCGAUCGUAUCGUCGAUAUCGAUCAAAAA'
p93
aF1.0
aa(lp94
S'InfoRNA bulge test'
p95
aS'AAAAAAAAAAAAAAAAAAAAAAAAAAAAAGGCGAAAAACGAACGAAGUUGCAAAGCCUGUCUUAGAGUCUAAAUGUGCUAUAACGGAACAGUGAGGGAACAAAAAGCAUCAAAAAGCGACUA'
p96
aF0.9836065573770492
aa(lp97
S'Worm 1'
p98
aS'AAAAAAAGUUGGUGAGUUGAACAGAAAAUAGUAAAUUGUUCGGGC'
p99
aF0.9555555555555556
aa(lp100
S'just down to 1 bulge'
p101
aS'AAAAAGAGCAGAUAUAAAAAUAUCAGACAAAAGUCAGUAUCAAAAGAUCAGACAAAAGUCAGACAAAAGUCAGAUCAAAAAAAAAAAAAAAAAAAA'
p102
aF1.0
aa(lp103
S'Iron Cross'
p104
aS'AGUCUUGGUAAGUCGUGCGAAGCAUUGCAAAAGCAAGACAAAGACACGCAAAAGCGAUAAAAAUUAAGUCAAAAACUGUAGAAAUGGAUACAAAGUGUGUUAAUUCGUUACAAAGUAUGUAAA'
p105
aF0.9186991869918699
aa(lp106
S'loops and stems'
p107
aS'AAAAAGAUAUACAAAGAUCAAAGAUCAAAGAUCAAAAAAAAAGAUAUAAAAAAAAAAAAAUAUCAAAGAUCAAAAGAACAAAAAAAAAAGUUCAAAGAUCAAAGACAAAAAAAAGUCAAAGAUCAAGGAAAAAACCGAAGUAUAUCAAAAA'
p108
aF1.0
aa(lp109
S'Water Strider'
p110
aS'AAAAACGUUAAAAAGAAAGUAAAAGUACGUCGAAAGGUAUCGGGGGGGUCAUUAAUAUGGUCAAAGAGCAGGUCUGUUGGCGGAAAAAAAAAAAAAAAAAAAA'
p111
aF0.941747572815534
aa(lp112
S'The Turtle(s) Move(s)'
p113
aS'AAAAGCAAACUAAAGGAUAUACGCAAAAAAAAAGCGUAUAUCAAAGCAUCAAAAGGAUGAAAAAUACAAAAGGGGAAGAUAUGAAAAAAAUAUCAAAAGCGGAAAGAAAACAAGAAGGCCAAAAGGCAAAAGGUAUCAAAAAAAGAUACCAAAAGUCUAAUGGCAAAAAGUGAUGAAAAGACAAAAAAAGUCAAGACCAAAAAAAGUCGAAGAUAUGAAAAAAUAUCGAAAAUCAAAAAGAUUAACGUUACAAAAAAAAAUAAAAAUGAAAAGUCAAAAGCAAAAAAGAUUUAAAAAAAAAAAAACCAAAAAACGC'
p114
aF0.9873417721518988
aa(lp115
S'Adenine'
p116
aS'GGUGAAGAUAUCAGAUAUCAGACAUCAGAAAGAAGGGAUCGAAAGGAAAUCAAAAAAUUUUCAGAUCCCGGAUAUAAAGAUAUACAAAGUAUGUCAUAUCAUUUUUCAGAUAGACUAUACAAAGUAUAGUAAACUAUCAGAUGUCAAAGGAUAUCGAAGGAUAUCAAAAUCACC'
p117
aF1.0
aa(lp118
S'Tripod5'
p119
aS'AGUUCGGCAUAAAAGGUGUCCAGUAAAUCUGGCGAAAA'
p120
aF1.0
aa(lp121
S'Shortie 6'
p122
aS'GGAAAACCAGGAAAACCAGCAAAAGCAGGGAAACC'
p123
aF1.0
aa(lp124
S'Runner'
p125
aS'AAAAAGAUUAGAGCUCAAUGAUCAAAGAUCUGCUCAAAGUCAAGCGACCAAAGGUAAACGCGACUCCAAAGGAAAAGUCAGGCAAAUCCAAAGACAAAAGUCGGGAAAAUCAAAAA'
p126
aF1.0
aa(lp127
S'Recoil'
p128
aS'AAAAAGAUAUAAGGAAGGAAGACAAGACAAGGAAGCAAAGCACCAGUCAGUCACCACCAAUAUCAAAAAAAAAAAAAAAAAAAAA'
p129
aF1.0
aa(lp130
S'[CloudBeta] An Arm and a Leg 1.0'
p131
aS'AAAAAGACAGAGACAAAAGUACUCGACAGGAAAACCGUCAGUCAAAAAAAAAAAAAAAAAAAA'
p132
aF1.0
aa(lp133
S'[CloudBeta] 5 Adjacent Stack Multi-Branch Loop'
p134
aS'ACAUGACCCGAAAGGGUGCGUUGAAAAGCGCGCUUAUAAUUGAGCGGCAUAAUUGCCCGUGUA'
p135
aF1.0
aa(lp136
S'Triple Y'
p137
aS'AAAAUGCUCGACUGAAUAAAGCUGCAGUCGAAAGACUGGCCUGUUGGUCUAAAGAUCGCACUAAUGAGGCAUAGAGCUAAAAAAAAAAAAAAAAAAA'
p138
aF0.8969072164948454
aa(lp139
S'Misfolded Aptamer'
p140
aS'GGUCGAAAAGCGGACAAAGUCAGGAAAACCAAAAAAAAACGAAAAAGAUC'
p141
aF1.0
aa(lp142
S'Flower power'
p143
aS'AAAAAAGUUUCGCGAAGAGAUAACUGCACAAAGUUUAUGAUGCAACAUUUGUAAUUACAUUGAGUUUCACGAAGGGUGGACUGAAAAAAAAAAAAAAAAAAA'
p144
aF0.9019607843137255
aa(lp145
S'Kudzu'
p146
aS'AAAAUGCCGGAGUGGACGUACAGCAGCAAAGAGGCUGGCGAGGGAUAUGAACCCCAGGAACCGUUCAAAGUCAAACCAGGUUAAAAAAAAAAAAAAAAAAA'
p147
aF0.9603960396039604
aa(lp148
S'"1,2,3and4bulges"'
p149
aS'AAAAAGCUGGGACGUAAAAAUGAAAGUCAGUGAAAAUAUGCAUCCGAAUGAGUGUUUUAAUAAAAGUAGACAAAAGUUAGCUAUCUAAAAAAAAAAAAAAAAAAA'
p150
aF0.9238095238095239
aa(lp151
S'medallion'
p152
aS'GCCGUGUGUCUAGUAAUGGGGCCAGAUAAAAAACACACUAAAGUGACAUUAGAAAACUAGUGAAGUAAAAACCUGUAUCCAAAAGUGUAUUCUGAAAAGAGGCAGAAAGUUAAGUAAACAAAAGGAUAUACACAAAACAGGCUACUCAAAAGAGUAGACUCAAAAGAGUCUCAAAAGAGUCUAUACAAAAGUAUAGACACGAAAGUGACUUUACAAAAGUAAAGAGUCGAAAGACACAGAAAAUUGAGCGUAGAAAACUAUGUAGACAAAAGUCAAUAUAUAAAAAUAUAUGCACUAAUGUUACACAAAAGUGACUCGGCAAAAGCAUAGUCAUAGC'
p153
aF0.8486646884272997
aa(lp154
S'[RNA] Repetitious Sequences 8/10'
p155
aS'AGGAAAAAAGGAAAAAACCAAAAAAGGAAAAAAGGAAAAAACCAAAAAAGGAAAAAACCAAAAAACCAAAAAACCAAAAA'
p156
aF1.0
aa(lp157
S'Documenting repetitious behavior'
p158
aS'AAAAAAAGAUAACUCAAGGGAAGCUCAAAUAGAACUCAAUGGAAACUCAAUGGAAACUCAAUGAAAACACAAAGGGAACUCAAUGGAAACGCAAAUUAAAAAAAAGGCAAAAAACUCGUAAAAAACUCGGAAAAAACUCGCAAAAAACUAUGCAAAAACACGAAAAAAAAUAGUUAAAAACUCGAAAAAAACUCGGAAAAAAAAACCAAACUCAAGCCAAACUCAAUGCGAACUCAAAGCAAACUCAAGCAGAACUCAAGGCAAACUCAAAUCAAACUCAAAGCAAACUCAAAGCAAAAAAAAGAGAAAAAACUGCUUAAAAACUAUCAAAAAACUGCCAAAAAACUGCCUAAAAACGCCCUAAAAACUAUAAAAAAACUCUCAAAAAACUUUCAAAAAA'
p159
aF0.8825
aa(lp160
S'7 multiloop'
p161
aS'GGUUGGCAUUAAUAUGGUUGGUUUAAUAUCUAGCGUUUAAUACCCUCCCGCGAAAGUGGGCAGACUAAUGUUUCUGUUGGAAACAGCACACC'
p162
aF0.9782608695652174
aa(lp163
S'Kyurem 7'
p164
aS'AAAAAAAUGCUUCGGGAAACUGCCCAAAAAUCCCGCCUAAAUUACUCGCUAGGAAAAACUGAACGCGGGAUGUCGAUAAGUUGAAAAAAAAAAAAAAAAAAA'
p165
aF0.9803921568627451
aa(lp166
S'JF1'
p167
aS'UAUAUAGACUGAGAUAUAAGUUAUAAAGGAUAUCAAGAUAUAAAGAAUCAAGAUAUGAGACAUACGAUGAUCAAAAGAUCAUCGUAUGUCAAGACAAAAGUCAGAUAUACGCAAAAGCGUAUAUCAAGAUAUAAAAAUAUCGCAUAUCAGAUUCAGUAUCAGAUAUCAAAGAUAGACCUAAAUGGUACUAUCAAGAUAUACGAGGGUAUACGAUGAUCAAAAGAUCAUCGUAUAUCACUCGUAUAUCAAAGAUAUAAAAAAAUAUCGAUGCGAUGCAAAAGCAUCGUAUCAAAGAUCAAAAGAUUAAAUAGCAAAUAUCAGAUCAGACAGACAAAAGUCGUCGAUCAGAUGGGCUCUAAUGAGCUGCAUCACAGUACUACUAUAAAA'
p168
aF1.0
aa(lp169
S'multilooping fun'
p170
aS'UUUGUGAGGUCCUCAUAAAGACAACCAGAAAACGAU'
p171
aF0.75
aa(lp172
S'Multiloop...'
p173
aS'GACCACCUCAUACGAAAGUACGGUGAAAGCCAGGGAAAGCUCGGACGAAAGUCACACGAAAGUGAGUCAAACGACGGAGGACAGAUGAAAAAAUCUGCGUGAAAGCGGGUC'
p174
aF1.0
aa(lp175
S'hard Y'
p176
aS'AAAAGGGCCGGAUAUAAAUUAAAGAGUUUAUCCCCGAUAGACGACAAAGGUUGUCUAUCGGUUAAAAA'
p177
aF0.9705882352941176
aa(lp178
S'Mat - Elements & Sections'
p179
aS'AAAAUGAUCGGAAAGUGAGGGGUGAUCAUGAGAUCAAGAGUAGAAAUAUACCGGAUCCCGGAUCUAAUCGCCUCUCAAACGGAUCUAAAAAAAAAAAAAAAAAAA'
p180
aF0.9619047619047619
aa(lp181
S'Chicken feet'
p182
aS'AAAAGGUAUCGCGAAGUGAGAGAAUAUAACGCAUAAAGGAGCAAACCAUCGAAUCAAGACUUAAAAA'
p183
aF0.8805970149253731
aa(lp184
S'Bug 18'
p185
aS'AGGGGAAAGAAGAUGAAGAGCGGGAAUCGAAUUCACUAGGCAGAUUAAAACCG'
p186
aF0.9622641509433962
aa(lp187
S'Fractal star x5'
p188
aS'AAAAAGGUUUGCAAAGAUUAAAAGAUCAUGACUAAAAGGUCUUGAGAGAAAUUUCCACGUAAAAAUGCGAAUGCAAAUCAAAAAGCCAUGCGAAGAACAAAGGUUCGAGAUCAAAAGAUCAAGCUCAAAAGAGCGAGAUAAAAAUAUCAACGCAUGGCAAAAGGGCAUACUAAUAGCAAAAGCUGAUUAUCGAAAGAUGUAUGUCGAAAGACAGAGAUAUAAUUAUCAAAGUAUGUCAAAAUGUUAUACGAAGACCAAAAGGUCGAGACCAAAAGGUCGAGAUCAAAAGAUCAAGAGAGAAAUCUCAACGUAUGACUAAACGUCAUAGGAAGUUCAAAAGAACAAGAUCAAAAGAUCAUAGGCAAAAGCUUUACAACGAGAGUUGACCUUAUGAUAGAAA'
p189
aF1.0
aa(lp190
S'Crop circle 2'
p191
aS'GGAAUCUAAAAGUAAAAGGAAAAAAAAAUGCAGAAAAAAAAAAAAAAAAAAAAAAAAAAAAGCUAAAAAAAAAAAAAACUAAAAAAAAGGCGAAAAAAACUAAGCCAAAA'
p192
aF0.9272727272727272
aa(lp193
S'Branching Loop'
p194
aS'AGGCUGGAAAAAAACGAUGGAAACAUCAGAGCCAAAAAAA'
p195
aF1.0
aa(lp196
S'Bug 38'
p197
aS'AAGAUAUUUAAUGAAAAAUAUACGGUUAACAAGUCG'
p198
aF0.9444444444444444
aa(lp199
S'Simple Single Bond'
p200
aS'AAAAAAGAAAAAAAAUACCUUAAAUGGGUUAAAAAAAGCGAAAAAAAAAAAAAAAAAAAAA'
p201
aF1.0
aa(lp202
S'Taraxacum officinale'
p203
aS'GAUUUAAUGACACAGAGCUAAUGACACAGGGCAAAAGACCCAGACCAAAAGAGAUACCUCAAAGGGGGGGGAGCGAAAGCCUCAGAGGUACGCCGGAUAUACAGUCUAUGACUAGUAUAUCAGAUAUAAGAGAUACGAAAAGAAAUUCAAAGAAUUUCGUUCGUGUCUCCAUCAGAUGUCAAAGAUAUCGAUGAUAUCGAACGGCGUAUCUCAGCACUAAUUACGCGGAGCAAAACACUCAGUGUAAAAGACACAAGGAAAAAGAUCCGCAGGAAAAGACUG'
p204
aF0.9148936170212766
aa(lp205
S'Headless Bug on Windshield'
p206
aS'GGGUGGGGUAUGAAUUAAAGGAACCUAAAAAAAAAAAAAAAAAAAAAAAUGAUAACAAGAAUAUCUAAUCACCACUCAAGACAACGUAAAAAAGGAAAAUCAAAAAAUCGGUCAAAAAAGCGUAAGUAGAAAAAUGCCGUGCUUUAGAUCGAGAGGAAAAAAAAAAAAAAUUCCGUGUGCGCUUUCUAGCUAUAAACCGU'
p207
aF0.93
aa(lp208
S'Pokeball'
p209
aS'AAAGAUUUCCAAAAGUGUUUAACACACGUCUAGAAGAUGGCAGGGUAGGAAAUCUCUAGGCAUCGCGUAGUUCUGGGGCACGGAAAUCGGAAAAAUAAUAUCCAAAAUGGAGGAAGCCAAUAAUGGGGGUAAGAUUGUAAGGAAACCGGCUUUUGACACCUGGGAGGCACCACCGGAUAUUUAA'
p210
aF0.9239130434782609
aa(lp211
S'Variation of a crop circle'
p212
aS'AAAAGGUAAGUGUAAAAAGAAGGUAAGCAAGAUAUUGGAGGAAAACCAAAAAAUGAAAAAAUCCAAAAAAAAGUCAAAAAAAAAAAAA'
p213
aF0.9545454545454546
aa(lp214
S'Loop next to a Multiloop'
p215
aS'AAGACAUACUUAAAAAACGGAUAUCUAAUGAUAUCAGAUCUCCAAAGGGAGAUCAGGAAAAAUAGUAUGUCGA'
p216
aF1.0
aa(lp217
S'Snowflake 4'
p218
aS'AUGCAAAUCAUUAUCCAUAAAACUAAUAUACGACAUACAAAAGUGAGAACUCCAAGGGGGAAGAUCAAAGAUCUUCUCUGAAACCCAUGUCUAGUUCUGGUAAUUUAAUGCCGAUAAAAUCGAAUAUCUAUGAUAGCAUUUUUAAUACGGAACAAGAUAGAGUAAUCUUAUUCCGAUGAAGUCGAAGAUCUAUGAUCGAAUAGGAAAACCUUAUCAAGAUACUGAAAACGCCCACCGAUAAAAUCGAAUAUCAAAGAUAGUAGGAGAAAGCGGUAUCAUGUAAUAGAAAAAUGAGCUGAUAAAAUAUCAAGCUGGAACAGCAGCUCGGAAAGCCAUUGCUAAUAUUGGAAAAUUGGAUAGGGCAAGGUUC'
p219
aF0.9027027027027027
aa(lp220
S'Mat - Cuboid'
p221
aS'GAAGGAAAAAGAAGAAAAACGAGAUAAAAUAUUGAAGGAAAAGUUAGGAAGGAAAAUAAUGUAGAAAUGAAAAGAAAGGAAAGAAGGAAAAGGAUGGAAGUACGGAAGGAAAAGGUUGAUUGGUUGGGGGGCAAAAGUUCGUUAGAUGGUGGGUUGGAAAAGGUUGUUAUGUAGUUUUCUUCGCAAAGGUUCGAUCGUGGUUUAUUUGUAAAAAAACUUGUUUACAUCGUGCGUUGCCCUUCGAUGCGUCAGUACUUCCACUUCAAACGUUUCAUGGAUCCCCAAUCUUCCUCCCUUCCACAGCCUAACGACCUACCCCAACCCACAAACACCAAUCAUCAAAACCAAUCAUCCACAACAUAGUCAACGUGAACUUUAAC'
p222
aF0.781578947368421
aa(lp223
S'Misfolded Aptamer 6'
p224
aS'AAAAAAGAUUAAAAUGCUGGGCUAAUGCCAAAAAAAAGGCUUAUGAAAAAUAGCUAAAAAUGUCAAAAAAAAAAA'
p225
aF1.0
aa(lp226
S'Snowflake 3'
p227
aS'CGUCGAAAACCAAUCGACAAAAGUCAAGCUAGGAUGAAGAUAAAAGUCGACGCGUAAUGGUACAAAGUAUCAAAAGAAGACGGCAAAAGUGAACAUCACAAGGAGACGAAAGUCGUUUGGAAAACCAACAAAGUUUAAAAAGUUGGCGCCAAAAGGCAACUCCAGAUGAAGACAAAAGUCGACAGGAAAACCUACAAAAUAGCAAAAGCAGUCGACAAAAGUCAACGCCAUAUGAAGUCAAAGGUCGACAGGGAAACCGACAAGGUCACAAACGAAGUCGACAAAAGUCAACAUGAGAUGGAGCGAAAAUGCGAGGGUAAAAACAGUAAAAUAUCAAAAGAGCUCGUCGAAAGUCAACAUCAUAGCAAGUCAAAAGGCGGUACGUAAUCGACG'
p228
aF0.8040712468193384
aa(lp229
S'Hard Y and a bit more'
p230
aS'AAAAAGGUGUGGCCUUAUGAAAAUAGAUCCGUUUCUAGGAGUUCUAAUGAGCGAGAUUUGAAAAAAAAUCGACUUGAAACAUACCAAAAAAAAAAAAAAAAAAAAA'
p231
aF0.9716981132075472
aa(lp232
S'Mat - Lot 2-2 B'
p233
aS'AUAUGUUGCAUCGGGAAAUAUCAACGUCAAAAGAAAAACGGGGAACAAGGAAAAUCAUAUGGAAGUAAGGUGACAGGGACAAAAGGUGGAUAGUUGCAAAUUGAAAGUCAUAUAAAAAUUAGCCCUAGAUCUUUGGAACGAAAGCGUGAGCCUCAAUAAAAGGGCGUGUUAAAGGAAAAAUAAUCCCAGGGGGAAAGGUUUGCCUUAUAAGCAUCCGGAUGAAAAAGCUGCAGCUUUGAAAAGGAAAACCCAUUGCAAAAUCAUGCUCUGAUACCACCAAAAUU'
p234
aF0.6971830985915493
aa(lp235
S'Shapes and Energy'
p236
aS'AAAAAAGGGAUCAGAUCAAAAGGAAGACCACUAAUGAGGUUAAACGAUCAAGGCAAAAAACAUAAAAGUGUCCAGAUCGCAAAAAAAAAAAAAAAAAAAAA'
p237
aF1.0
aa(lp238
S"Spiral of 5's"
p239
aS'GAAAUGAUAUAAAGAUAGAAAUAUAGAAAGGAUAUAAAGAUAGAAAGAUAGAAGAUAUAAAAGAUAUAAUGAUAGGAAGAUAAAAGAUAGAAAGAUUGAAGCAUGGAUGAUUUAAAGAUAGAGGGUAUAAGUUAUAAAAAAUAGGAUAUAGAUAUGGAUCUACUAUAAAAAAUAGUCGGGGAGAUCAAAAAAUAUCAAAAUAUAUCAAAAAACUCUAAAAAGAAGCAAAAAAAAUUAAAAACUAUCAAAAAAGAUCUAAAACCAUGAAAAACGAUCAAAAAUUAUCAAAAAUUAUCAAAAACUAUCUAAAAAUAUCAAAAAAUAUCAAAAACUAUCGAAAACUAUCAAAAAAUGUCAAAAGCUAUAAAAAGCUAUUAAAAAAUAUCUAAAAUAAAAA'
p240
aF0.9949622166246851
aa(lp241
S'Campfire'
p242
aS'AAAAGGUGCAGUUUCAAGAUGAAGAUCGAAAAGGUCCCGAGCUAUGCUACGGCAUCGUUAUAAGCAGCAGACCUAAAGGGACUCGCGUAAGCCGCCAGGAAGAAAACUUUGGGGUAAGAGUAAUUUACGGACCGAGGACUCUAUAAGCGCAACGGCUAACAAACAGAGCUAAUGUUCGUUGUUGAGAGUCUUAUAAUACUACUCUGCACACC'
p243
aF0.9150943396226415
aa(lp244
S'Anemone'
p245
aS'AAAUAUAGCGAAAGCUAUGGGAAGGAGACUUUCGUUGCGGAAAAACAACACUACUCUUGAAGCAGGUUCGAAAGAGCCUACUCGUAUAAGCAGUUGGAUAAUUCGAGCGGGUGUAAUCACCCGACAGUUAGAGCCCUGGGUGGCUAAUGCCAUUGAUUAGAAAUAAUUGAUCCCAAAGGGGAUCCGGGAUAAUUCUUGCUUAUCGAAAGAUAGG'
p246
aF0.9252336448598131
aa(lp247
S'Fractal 3'
p248
aS'AAAAAGCGAACGCAGUAAAACAGUAAAAUCAGCGAGCCUGUGAAACAUGAAAAUGUGCCUGUCACGAAAACGAUUAAUAUAGACUGCCUAAAAAGGAGGAAAGCCUGGCGUCGUGAAAA'
p249
aF0.8991596638655462
aa(lp250
S'Kyurem 5'
p251
aS'AAAAUUUAAGGCAAGAAAGUGAGAGAAAAGAGUGACCAACACCGAAAAUGCUAUCCUCGAAAAAGAGAGGUCAUCGCUAAUUAAUAAAAAAAAAAAAAAAAAAA'
p252
aF0.9230769230769231
aa(lp253
S'Snowflake Necklace ( or v2.0 )'
p254
aS'GAUAUAUGAUGAUAUAGGUAUAGGUAAAUCCACGAAAAACGACGAAAAACGAGCAAAAGGCACGAAAAGCUAAUAUCACACAAAAAGUGAUUUACAGGAAAAGCUACGAAAAAUGACUAAAAAGGGAGAAAAGCGUAGAAAAAUGUCUAGGAGCGAAAAAUGCUGAUAAGCGAAAAACGACGAAAAACGGCAAAAAACAACGAAAAACGGCGAAAAACGAGAAUAUGAAAAAAAUUCAGACAGAGGAAAAACUACGAAAAGCGGCGAAAAACGAAGAAAAACGACUAAAAAAGAUUGUCAGAUUAAAUCUCAUAUGUAGGAAAAACCACGAAAAACGGUGGAAAAUGACCAAAAAGGAUGAAAAACGAAUAUGAAUAUCAUCGUAUAUC'
p255
aF0.8611825192802056
aa(lp256
S'Methaqualone C16H14N2O Structural Representation'
p257
aS'AAAAAAAGAUCGGAUCAGAGAUACAAAAGUGAGACGGGAGAAAUACAGACAGACAAAAGGCAUCCAGUCAAAAGACAGGCAAAAAAAGUAAGGGAGUCAGUCACUCAGAAAUAGAUCUGAUCAAAAUAGACAAAGCAAAGCAAAAAAAAGUUAUAGAAACAAAAGUUGACAAAAGUCAACAAACGUACUAGACAAAGAUCAGAAAUAGAGAGACGGACACACAAACAAAAGACAAAAGUCAGUCUGGCAAAAGGCGGUGAUGAAAAAGUACGUCAGCUGAAAAGCACUCAGAGAACAAAAGUUCUCAAAAGAGAUACAAAAGUACUCACUCAGAUCAAAGAUCUGAUCAAAAAAA'
p258
aF0.9126760563380282
aa(lp259
S"Cat's Toy 2"
p260
aS'AAAGAUAAUACUUAACAUGAAUAAAAAAAAAAAAAAAAAUUAUCCAAGAGAAAACUCAAGUAAAAACGAAAAAAGGCUAAAAAGUAGUAUUAUAAAA'
p261
aF0.9587628865979382
aa(lp262
S'Zigzag Semicircle'
p263
aS'AAAGCUGGUCACUCAAAAUCAUAGAACUGGAAAA'
p264
aF0.9411764705882353
aa(lp265
S'Short String 4'
p266
aS'AAAAAGUCAAAUAGUAAAAACGAGCCCGGAAAUGCCAACGAAUAUUUAGGGAAAUCAGAGGUCGAAUAACAUUUAAAAAAAAAAAAAAAAAAAAAAA'
p267
aF0.9381443298969072
aa(lp268
S'Gladius'
p269
aS'UGAAACUUAGAAGAUAGGGAGGGAAGGAAGUGGGUCAAAGACCAAAGGGUCAGAUGUAAGAGACACGAGCUAUUGAGAUCAAGAGCUAUGUGAGAUAGGAAAUGCAGAUCAGAUCAAGAUCAAAGAUCAGAUACGAUCGACAUUCACUGUCCAACAUAGCAGCAGAUCAGUUUAGCAGAAGUCGGCAGUAUCACCCAAGGGCAGAAUGGGAAGACAGAUGGUCAGAAGAUCUAAAGAUUUACUAAUACCAGAUAUAGAUAUCAGACAGAAAUUUAAUGAUUUCAGGUCGAAUAUACGUAUACGGUAUAAGUAAAUCAUAUGAUCACGGGAUCUCAAGUCACAAGAUUCAGUGCAAAAGUACAAAGUCACCAAAAUAAUGCGACAAUUAAAUGUACAAAAA'
p270
aF0.905
aa(lp271
S'Thunderbolt'
p272
aS'CGGAUAUAUAAAAAAAAGGGGAAGGAGAGGGGGGAAACAGAACUACUGAAGGGAACUCUAAAACGAUCAAAAAGAUGGAAAAUGGAAAGUUUGCAAAAAAAGUACAAAACAAAUUAAGAGUCGAAAAAGGAAACACAGCAAAAAGGGAAAAAUUUGGUGAAACAGUUUAAAAAACCCAGAUCUAGUAAAAAAAGGGGUACAAGGUCCAUUAAAAAAAGACAAAUCGAAAAAAAGCUAAUAGUUAUAUAAAAUAUAUAUACGAAUAAAAAAAAAAAGGAUACAAAAAAAAAACUGGGAAACGAUACGAAAAGUAAAAAAAAGAAAAACGUAUCAAGGGUGAAAGUAGUUCAAAAAAAACGCCAACCGCAAAAAGAAAAAAACAAUAUGAACGA'
p273
aF0.9132653061224489
aa(lp274
S'Mutated chicken feet'
p275
aS'AAAAAAAGGAGCAUCAAAGGAAGUAUAAAAAGGUCGGCAGGAGCAAGUCAGAUAUUCCACUCGCAGUAUGGGCAAAGGGUCAAAACAAACAGCAAAAAAA'
p276
aF0.87
aa(lp277
S'Chicken Tracks'
p278
aS'AAAAAAAAUAUAUCCUCACAAAGGUGAUUGAUCGAAAGAUCUAGAUCAAAAGAUCGGAUAUAAAGAGGGUGAAACACCAAGAACAAGGUUCAACACCAAAGGUGCUCGAAGAAAAA'
p279
aF1.0
aa(lp280
S'Looking Back Again'
p281
aS'GCCAAGAAGUUCAAAAUAAUAUCAAAGAUAUUAGAAUAAGGAGACAAGAGAAACUCGUUAGAUAUAAUGAGCAAAAGUUCUAAAAUAUCGAGUCAACUCAAGAUGGACAAAAAGUUGUAAAAAUAACAAAAAAGUCGCUGUUAUACAAAGUAUAGUUAUAAAAUAACGAUAUCCGGAGUACAAGUAAUAGUUGAUGAAAGCAUCUUCUUGUCGUUUAAGGACUAAUGUCAAGAUAUUAAAACAGCCAUCGGAUAUAGAUCAAAAAAGAGAUAGAAAAAAAAGAUCAAAAGGAUCCUAUAAACUCAGGUCGUACAAAAAGGCGAAAUGAAAACAUAUUAACAUCGAAACGAAUAUGAAACAUAUAAGUGGCAAAAGAACAUGUCAAAGGC'
p282
aF0.8766066838046273
aa(lp283
S'Multilooping 6'
p284
aS'AGUGAUUGUAGGAAUUAAUCGUUGCACGUAAAAACGUGGGCUUUUAAUUUAAUGAUUAUAUCCGCAAUGAUGGAGAGUCGAA'
p285
aF0.926829268292683
aa(lp286
S'Cesspool'
p287
aS'UAAGAAUAAACGAAGGCAUAAUGAGCACAGUUAGGAAAUUGCAAUGUUCAAAAUUGCAGCUAGCAAUUGCGACAAAAAAGUGGAAAAAGGAUUAAUAAAAGUAUCAUGUAUGGCCAAAGACAAAAAAAUUAGACGAAAAAAAUGUUGGCUGGAAACUGGAAAAAGAAAACAAGUGCAACUGGACAGAACGUAAAACGAUAGGAACAGGGUCAACGAAUUGUUAAGUUUUAACGUUUUAAUAAUAAUCGUUAAAGCUAAAGAUAAACGGAGAUUGGGGAUAACAAUACUGCACAGAUAAAAUCAGCAGGAGGUAACUAACUAAUCCUACGCGUAAAAAAUUAAAAGGAAAACAAUUAUU'
p288
aF0.6564245810055865
aa(lp289
S'Hoglafractal'
p290
aS'AAAAAUCACUGAGAAAACGUAUAAAAAAAUAUGCUCGGCUUCAAGUAAUUAAAUCAUAAAUGGACAAGACAAAGGUCGUCAGGGAAAGAUCAAAGACCAAAAAGGGUCGAUCGAAAAGGCAAUCGGCCUAGACACGUAAUCCGUACGUGAAAAGGUCAGCCGAAAAAGGCAUCGCAGGGAAAACUGCUAGGAGAAUAAGAUAAAAAAAGCAGGAAAAAACCGCAACGAAAAGUUGUAAAAGCGGAUGUUUAAAAAUACAAAAAAGUGACAAAAAGGGAUUAGACAGAAAUUGUUUGUAAAAAUAACAUCAAAAAAUUAUCAAACGCACGAAAACUCAAGGCAGUGAAUAAAAGCUGAAAAUGUAAUCGGGUAAUCAUAUAAGAAAUUUAUAGCAUUUUGG'
p291
aF0.9
aa(lp292
S'Bullseye'
p293
aS'AAAUAUGAUUAAAGGUCAAGAAUAAAGAUCAAGUUGAAACAGCAUAAAAAAAAAGACGAUCAAAGUUCAAGGACAAGAAUCAAGACAAAGGAUCGUCAAAAAAAAUUUGCUCGAAGGGGAAUACUGAAGGUAAAAGUCGAAGAUCAAGAAAAAAAAAACGGUCUAUGUCCAGCAUCAAAGAUGAAGAUCUAUGAUCGUUAAA'
p294
aF0.8514851485148515
aa(lp295
S'Shooting Star'
p296
aS'AUAUACGUUCGAUAUAUAAAGAGGAGUAAGCAGCCAGGAAAACACGGUCGCUACACGACGAGAUAUAUCACAUUUUUGAGGUAGGUGGAGAUGCAGAGAGAUCAUUGAAAAAAGAUACCUCAACAUACUCCAUACUACCCUGCUGAAUAAAAUCAAUCGAUCGAAAUUAUCAAAUAUCAAGUAUUCGCGAAAGAGAGAUUAGAAGAGACGAGAUGAAAGAUAUACAAAGUAUAUCAGAUUCAAAGAAUCCAUCGGUGAACGAAGUUUACCAGCUACAAAGCAUCCGUCGAUGAAUAAAAAGCGGAAAUUAAGAAGUAAAUUAGGAAAACAAGAUAUGCUGCCAAUUUGCUUCCAGCAGUAUAUA'
p297
aF0.8214285714285714
aa(lp298
S'Teslagon'
p299
aS'AAAAAAAGAAAAAAAGAGGGGAAAAAAGGAGGGAAAAAAAAAAAAAAUCUAAAAAGUAGGAAAAAAAAAAAAAAAUCAGCAAAAAAUCGGGAAAAAAAUGGAAAAAAAAAAAAAACCCUAAAAAAUCAGGCAAAAAAGCGGGAAAAAAAAAAAAAAACCAAAAAAGUAACAAAAAAAAAAAAAAAGUAGCAAAAAAUACAGGAAAAAAAUAAAAAAAAAAAAAAAAUAGAAAAAACCAGCAAAAAAAGAAUGUAAAAAAAAAAAAAUCGUAAAAAGUAAGAAAAAAAAAAAAAAACUACCGAAAAAGCCAAGAAAAAAAUAGAAAAAAAAAAAGGAAAAAAAAAAAAAAGCCGCAAAAAAAACUAACAAAAAAACUAAAAAA'
p300
aF0.9109947643979057
aa.