(lp0
(lp1
S'Simple Hairpin'
p2
aS'GAUACAAAAAAGUAUC'
p3
aF1.0
aa(lp4
S'Arabidopsis Thaliana 6 RNA - Difficulty Level 0'
p5
aS'GAUAUAGAAAUGAGAAAAAAAAAAACUCGAUAUAUCUCGAUAUAUAUAUAUAUAUACAAAGAUACAAAAAAGUAUCAGUAUAUAAUAUAUAUAUAUCAUGAUAUAUCAGCUAUAUC'
p6
aF1.0
aa(lp7
S'Prion Pseudoknot - Difficulty Level 0'
p8
aS'GAGGCCAGAUCGAAAGAUCGGUAUUCAAAAAAAAAA'
p9
aF1.0
aa(lp10
S'Human Integrated Adenovirus - Difficulty Level 0'
p11
aS'GCCAUGGAUAUAUGAGACGUCUAAAAAAAAAGGAUCCCGCUGGCCAGAGGUCUGCGCAAAAGGCAUGAUAAAACUAAAAAAUGUUUUAUUAUAAAAGCCGCGCACAAUGACGCCAAAAAGCGGUGUACAUACUAAAAAUGUAUGUGAUCAAAAAAAAAAAUGACGUCGUAUAAAAAUAUCCAAAAUGGCAAA'
p12
aF1.0
aa(lp13
S'The Gammaretrovirus Signal - Difficulty Level 0'
p14
aS'AACUCAGGAUCUAGAAAUAGAUCAGGUGGAAAAUGAACAAGACAGAGCUGUAGGAAACUACGGAACGCUCGUCGUUCUUGAUUUAUCGAAAGAUAAAUCUA'
p15
aF1.0
aa(lp16
S'Saccharomyces Cerevisiae - Difficulty Level 0'
p17
aS'GUGGUUCAUACAAAAAAAAGUCGAGCAAAAAAAAAAAAAAAGCGAAUCCUACAAAAAAGGUAGGGAACCACAAAAUAUGUAGAAAAUCGAAAAAAAGAAUCUCUAAAAAAAAAAAUGGGACAUCCUAUAAAAAAGAUGGGCUUUGUAAAAAGAAAUAAACGAUAUAAAAAAUUAUCACGUAUAAAAAAGGUACGGAAAUCCUCCAAAAAAAGGAGGUUAUUUCAAAAGAUAUUGAAGGUCGAAAAAAAGACCGCGUUCUAAAAAUGAACGCAAAUGAUUGGAAAAAACAAUCCAAUAUCAAAACUUACCGAAUCUGAAAAAAAACAGAACGGCCAAAAAAGGGCCGUAAAUGCUAUUAAAAAUAUGGGCGAGUAUGAAA'
p18
aF0.9340369393139841
aa(lp19
S'Fractal 2'
p20
aS'AAAAAGAUAUAUCAAAGAUAUAUAUGAGGAGCAAAAAAAAAAGCUUAAGACCAAAAAAAAAAGGUCAAGGUCUAAAAAAAAUGACCAACAUAUAUAUCAAAGCUAGAUAUGAAGAGCAAAAAAAAAAGCUCAAUAGCAAAAAAAAAAGCUAAAGAUCAAAAAAAAAAGAUCAACAUAUCUAGCAAAUAUAUAUAUGAAGAGCAAAAAAAAAAGCUCAAGAGCAAAAAAAAAAGCUCAAGAUCAAAAAAAAAAGAUCAACAUAUAUAUGAAAGAUAUAUCAAAAA'
p21
aF1.0
aa(lp22
S'G-C Placement'
p23
aS'UUGCAAGGCAGA'
p24
aF1.0
aa(lp25
S'The Sun'
p26
aS'AACAGCUUGUCUGAGUUAAAAGCGUUAACCACAGUAUAUCAGGGAUAAAUUCGAGUAACGCAGAGUAACAAAGUGAAGCUCGUGGAGCACAGAAUGUCGAAGACAAAUUCGUGAAAUAGACAACAGAUAUUCUGAAUUGCUGAAACCCAGUGCAUCGAAGAUGAAGACGAGGAAGACCGAUGAUCUAUUAUCAAGUCGUUAAUCACAGACGCACUAUGAGUUAGUCGUGUAACAUCUGUUUUAAAAGAAAAAAUGAUG'
p27
aF0.8682170542635659
aa(lp28
S'Frog Foot'
p29
aS'GAAAAAAAAAGAUCGAAAGGUUGACCGAAAGGUCGCGCAAAGCGC'
p30
aF1.0
aa(lp31
S'InfoRNA test 16'
p32
aS'UAUAUCGCUCUUUACUAAUGUAAAUGACGAGAUAUG'
p33
aF1.0
aa(lp34
S'Mat - Martian 2'
p35
aS'GAUCGAAAGAUCAAAGAUAUACAAGAUAUACAAAAAAAGUAUAUCGUAUAUCAAAGAAUAUACAAAAAUGAUAUACAGAUAUACAAAAAAAGUAUAUCGUAUAUCUAAGAUAUAGAUAUAUCAAAAAAAGAUAUAUACUAUAUCAAAAAAGUAUAUUCAAAGAAUAUGGGUAUACAAAAAAAGUAUACCAGCAUAUUCAAAGAUCGAAAGAUC'
p36
aF1.0
aa(lp37
S'square'
p38
aS'GAUAUACCGGUACCGUAUACCGUAUCAAAGAUACGAAAAGUAUACGAAAAGUACCGAAAAGUAUAUC'
p39
aF1.0
aa(lp40
S'Six legd turtle 2'
p41
aS'AAAAAGCAAAGCGAAAGCAAACCGAAAGGAAACCGAAAGGAAACCGAAAGGAAACCGAAAGGAAACCGAAAGGAAAGCAAAAAAAAAAAAAAAAAAAA'
p42
aF1.0
aa(lp43
S'Small and Easy 6'
p44
aS'GCCGCGAAAAGCAACCGAAAAAAAAGGGGC'
p45
aF1.0
aa(lp46
S'Fractile'
p47
aS'AAAAAAAAAAAAUCGAAAGGAAAGGAAAGAGAAAUCAAGCAAAGAGAAAUCAAAGCAAGCGAAAGCAAACCAAGAGAAAUCAAAAAAAAAAAAAAAAAAAAAAAA'
p48
aF1.0
aa(lp49
S'Six legd Turtle'
p50
aS'AAAAACGAAAAAAGAAAUUAAAACAAAAAAGGAAAGUAAAAUGGAAAGAAAACCUGAAACGUAAUAGAAAAUAGAAAUGGAAACCAAAAAAAAAAAAAAAAAAAA'
p51
aF0.9619047619047619
aa(lp52
S'snoRNA SNORD64'
p53
aS'GAUAUCAAAAAGAGAAAAGAGAAAGAUACAAAAAAAAAAAAAGUAUCGAAACUCAACUCAAGAUAUC'
p54
aF1.0
aa(lp55
S'Chalk Outline'
p56
aS'AAAAAGGUCAGAGGCUAAUGCACUCAAGCAGGGAAAGCCCGCUAGACGUCGAAAGGCCGUCAGGGACGAAAGUUACCGAUCAAAAAAAAAAAAAAAAAAAAAAA'
p57
aF1.0
aa(lp58
S'InfoRNA bulge test 9'
p59
aS'GAUAUACAGAGAGAGAUAUACUAAUGUAUAUCCCCGUAUAUC'
p60
aF1.0
aa(lp61
S'Tilted Russian Cross'
p62
aS'AAAAAGCUGGUACGAAAGUACGGUCAGAUCGAAAGAUCGAUACGAAAGUAUCAGUUCAAAGGAGCGGCCGCUCGAAAGAGCCAGCAAAAAAAAAAAAAAAAAAAA'
p63
aF1.0
aa(lp64
S'This is ACTUALLY Small And Easy 6'
p65
aS'AAAAAAAAAAAAAAAAAAAAAAAAAAAAAAAAAAAAAAAAAAAAAAAAAAAAAAAAAAAAAAAAAAAAAAAAAAAAAAAAAAAAAAAAAAAAAAAAAAAAAAAAAAAAAAAAAAAAAAAAAAAAAAAAAAAAAAAAAAAAAAAAAAAAAAAAAAAAAAAAAAAAAAAAAAAAAAAAAAAAAAAAAAAAAAAAAAAAAAAAAAAAAAAAAAAAAAAAAAAAAAAAAAAAAAAAAAAAAAAAAAAAAAAAAAAAAAAAAAAAAAAAAAAAAAAAAAAAAAAAAAAAAAAAAAAAAAAAAAAAAAAAAAAAAAAAAAAAAAAAAAAAAAAAAAAAAAAAAAAAAAAAAAAAAAAAAAAAAAAAAAAAAAAAAAAAAAAAAAAAAAAAAAAAAAAAAAAAAAAA'
p66
aF1.0
aa(lp67
S'Shortie 4'
p68
aS'GCGAAAGCAGCGAAAGC'
p69
aF1.0
aa(lp70
S'Shape Test'
p71
aS'AAAAAGUGAUCAUGAUACAAAAAAAAGUAUCUGGACACAGAGAUACAAAAAGUAUCGAUUCGAAAGAAUACUGGUCAAGAUCUCAAAAAAAAAAAAAAAAAAAA'
p72
aF1.0
aa(lp73
S'The Minitsry'
p74
aS'GGGUAAAUCAGAAAAGGAGAAAAACAUAAAAAGUAUAAAAAAUUACGAUGACUCGCUGUCCC'
p75
aF1.0
aa(lp76
S'stickshift'
p77
aS'AAGAUAUCCCAAAAAGGAGAUAUCAA'
p78
aF1.0
aa(lp79
S'U'
p80
aS'AAAAAGAUACAGAGAGCAGAGAUAUAUAUGAAAGUAUAUAUCCGCCCGUAUCAAAAA'
p81
aF1.0
aa(lp82
S'Still Life (Sunflower In A Vase)'
p83
aS'AAAGAUCAAACAUCGAAAAGAUGUAACCUGAUAUUUAGGAACCAACAAAAAGUUGGAACGAACAAAGUUUGAACCCACAAAAAGUGGGAACCUGCAAAAAGCAGGAACAUAUAUAUAUAUAUAUAUAUCGACAAAAAAAGUUGUCAGAUAGAAAAAAAAAAAAUGAUCAAAAAAAAAAAAAAAAAAAAAAAAAAAAAAAAAAAAAACCCGAUCUAAAAAAAAAAAACUAUCGAUUCGAAAGAGUCAGAUAUAUAUAUAUAUAUAUAUGUGAGAUACAAAAAGUAUCAACCAUGAAAAACAUGGAACCAUCAAAAAGAUGGAACCUCCAAAAAGGAGGAACCUACGAAAGUAGGAACCAGCAAAAAGCUGGAGAUCAAA'
p84
aF1.0
aa(lp85
S'Quasispecies 2-2 Loop Challenge'
p86
aS'AAAAUGAGCGGGGCGGGCGGAAACGUCGAUCUCAUACCGACUAAGGAGGUAGCUUGGAUUUGUCGAAAAGGCUUAGACGAGGCUCUAAAAAAAAAAAAAAAAAAA'
p87
aF1.0
aa(lp88
S'Corner bulge training'
p89
aS'AGAUAUCGAUACAAAGUAUCAAAAGAUAUCA'
p90
aF1.0
aa(lp91
S'Spiral'
p92
aS'AAAAAGAUCAGAUAUCAGACAGAUACAGAUCAGAUCAGCAGCAGCAGCAGCAGCAAAAAGCGCGCGCGCGCGAUCGAUCGUAUCGUCGAUAUCGAUCAAAAA'
p93
aF1.0
aa(lp94
S'InfoRNA bulge test'
p95
aS'AAAAAAAAAAAAAAAAAAAAAAAAAAAAAGGACGAAAAACGCGAUAGUGCCGAAUCUGGAGGGGACGAGAAAAGCUACGGCCACCGACACGAGAAGGACAGAAAGCGACGGAAAAAGUACCA'
p96
aF1.0
aa(lp97
S'Worm 1'
p98
aS'AAAAAAAUUGUAAGAAUAAAGUAAAAAAUAAUGUUAGAGGUUCUG'
p99
aF0.8666666666666667
aa(lp100
S'just down to 1 bulge'
p101
aS'AAAAAGGCUAGACACUAAUGUGUCAGAGAAAACUCAGGACCAAAAGAUCGGAGAAAACUCAGAGAAAACUCAGAUCAAAAAAAAAAAAAAAAAAAA'
p102
aF1.0
aa(lp103
S'Iron Cross'
p104
aS'ACACGGAGAAAGGCACACAAAGUGAGAGAAAACUCAGCCAAAGGCACAGAAAACUGAGACAAAGUCAGCCAAAGGGACAGAAAACUGAGACAAAGUCACCCAAACUCACCCAAAGGGAGUGGA'
p105
aF1.0
aa(lp106
S'loops and stems'
p107
aS'AAAAAGAUAUACAAAGAUCAAAGAUCAAAGACUAAAAAAAAAGAUACAAAAAAAAAAAAGUAUCAAAAGUCGAAAGAAGGAAAAAAAAACUUCAAAGAUCAAAGGGAAAAAAAACCCAAAGAUCAAGCAAAAAAGCGAAGUAUAUCAAAAA'
p108
aF1.0
aa(lp109
S'Water Strider'
p110
aS'AAAAUACAUCUGACGCGAUUCAAAAGAAUGGGAAACUAUGUCCCUGUAGCAUGAAAAUGGUCAAAAGGCACUAGGACGGUACUAAAAAAAAAAAAAAAAAAAA'
p111
aF0.9320388349514563
aa(lp112
S'The Turtle(s) Move(s)'
p113
aS'AAAGCGAAAGCAAAUGAGAUAUAGUAAAAAAAUCUAUAUCUCUAAGGGACAAAAAAUUCAGAAGGGCAAAAGUUAAGCCAACAAAAAAAGUUGGAAAAUGUACGGCGAAAGCACAAAAUGGAAAAAUCAAAGCAUACAAAAAAGGUAUGCGAAACACGAAAGUGAAAAACCUUAUGAAAGUGAAAAAAACGCAGAGCAAAAAAAAGCGAAACUGGGAAAAAGCCCGGAAACUUGAAAAACAAGAAAUAAGGAAAAAAAAACCGAAAGGGCAAACGAAAAGACAAAAAGAUUCAAAAAAAAAGCGAUAGAAAAAACA'
p114
aF0.9873417721518988
aa(lp115
S'Adenine'
p116
aS'GAUACAGAUAUCAGAUAUCAGAUAUCAGAUAUAAGAUAUGAAAAGAUAUCAAAAAAGAUAUCACAUAUCGGAUACAAAGAUAUACAAAGUAUAUCGUAUCAUAUAUCAGAUAGAUAUAUCAAAGAUAUAUAAACUAUCAGAUAUCAAAAGAUAUCAAAAGAUAUCAAAAGUAUC'
p117
aF1.0
aa(lp118
S'Tripod5'
p119
aS'ACGCCCGGCCAAAAGGGCCGGAUUAAAUGUCCGGGCUA'
p120
aF1.0
aa(lp121
S'Shortie 6'
p122
aS'GCGAAAGCAGCGAAAGCAGCGAAAGCAGCGAAAGC'
p123
aF1.0
aa(lp124
S'Runner'
p125
aS'AAAAAGAUGAUCCCAAAAACAGGAAGUUUGGGUAAGAAGAGAAAAGUCCGAUGGGUAACUCGCUUACGAAGUAAAAGGCACCCAAGGUAAAAGAGAAAAUUCCUUCUGAUCCCAAA'
p126
aF0.9482758620689655
aa(lp127
S'Recoil'
p128
aS'AAAAAGAUACAAGCAAGCAAGAGAAGAGAAGCAAGCAAAGCAGCACUCACUCAGCAGCAGUAUCAAAAAAAAAAAAAAAAAAAAA'
p129
aF1.0
aa(lp130
S'[CloudBeta] An Arm and a Leg 1.0'
p131
aS'AAAAAGAGAGAGGCGAAAGCACUCGACAGCGAAAGCGUCACUCAAAAAAAAAAAAAAAAAAAA'
p132
aF1.0
aa(lp133
S'[CloudBeta] 5 Adjacent Stack Multi-Branch Loop'
p134
aS'ACAUGGAUCGAAAGAUCGCUACGAAAGUAGCGAUACGAAAGUAUCGCUCGAAAGAGCCAUGUA'
p135
aF1.0
aa(lp136
S'Triple Y'
p137
aS'AAAAGGAUCCAUCUAUCUAAUGACGCAAAGAAAUUUGUCUGGAUGGAUCGAAAGAUCGAUCGAAAGAUGCAUCGGUCAAAAAAAAAAAAAAAAAAAA'
p138
aF0.9175257731958762
aa(lp139
S'Misfolded Aptamer'
p140
aS'GAUUGAAAAAGUGACAAAGUCAGCGAAAGCGCGGGGAGGGCGAAAAGAUC'
p141
aF1.0
aa(lp142
S'Flower power'
p143
aS'AAAAUUAGGCUUCUAUGCAGGGUUCAGUUAAAAACUAAAAUGGAUGAUUGAGGGGAAAUCGCGGAAAUAAAAAGUUAUACCCUAAAAAAAAAAAAAAAAAAA'
p144
aF0.9215686274509803
aa(lp145
S'Kudzu'
p146
aS'AAAAAGUAUUAAAAGCUGCACCUAACUUAUUGUGUGGGCAGUGCCAAACGACAUUAACCAGAAUGGAAAAGCAUAAAUAACGAAAAAAAAAAAAAAAAAAA'
p147
aF0.9801980198019802
aa(lp148
S'"1,2,3and4bulges"'
p149
aS'AAAAACACCUGGCGGAAAAUCCAAAGCUAGGCUAAUCUACGUAUGAUAAGAUUCUGCAAAAAAAUGCAUGUGAAAAUAUAAAAACAAAAAAAAAAAAAAAAAAAA'
p150
aF0.9428571428571428
aa(lp151
S'medallion'
p152
aS'GAUAUCACCAUACGAAAGUAUGGAAGCGAAAGCUACGAUAAAUCUGACCUACGAAAGUAGGUACGGAAAGUUGCACGAAUGAAAAUUCGUUUAGAAAGGGGGUCUAAAAGGAAUGGUACGAAAGUACUGGUAGGAAACUGACCGUACGAAAGUACGGGUUGGCAAUGAACACUAAUUCGGCAUUACUAAUGUAAUGACUAAAAACGAACAGUACGAAAGUACUGACUUAAAAAAGAGAUAAAAAGGGCCGUUCGAAAGAACGGACAUAAAACUGAUCAGCCAAAAGCUCGUGGGGGAAACUUAAAGGAAACUUGCUGGACGAAAGUCCGGGGAUAUC'
p153
aF0.913946587537092
aa(lp154
S'[RNA] Repetitious Sequences 8/10'
p155
aS'AGGAAAAAAGCAAAAAAGCAAAAAAGCAAAAAAGCAAAAAAGCAAAAAAGCAAAAAAGCAAAAAAGCAAAAAACCAAAAA'
p156
aF1.0
aa(lp157
S'Documenting repetitious behavior'
p158
aS'AAAAAAAGGAAAAAAAAAGGAAAAAAAAAGGAAAAAAAAAGGAAAAAAAAAGGAAAAAAAAAGGAAAAAAAAAGGAAAAAAAAAGGAAAAAAAAAGGAAAAAAAAAGGAAAAAAAAAGGAAAAAAAAAGGAAAAAAAAAGGAAAAAAAAAGGAAAAAAAAAGGAAAAAAAAAGGAAAAAAAAAGGAAAAAAAAAGCAAAAAAAAAGCAAAAAAAAACCAAAAAAAAACCAAAAAAAAACCAAAAAAAAACCAAAAAAAAACCAAAAAAAAACCAAAAAAAAACCAAAAAAAAACCAAAAAAAAACCAAAAAAAAACCAAAAAAAAACCAAAAAAAAACCAAAAAAAAACCAAAAAAAAACCAAAAAAAAACCAAAAAAAAACCAAAAAAAAACCAAAAAA'
p159
aF1.0
aa(lp160
S'7 multiloop'
p161
aS'UUGGCAAACAAAGACACGUAGAUUAAUGUCUAGGUAUGAAAAUACCGAUUCAAAGGGGUUGCGGCAAAGGCUGUUACACGAAAGAAUACUGG'
p162
aF0.9782608695652174
aa(lp163
S'Kyurem 7'
p164
aS'AAAAGGAGGAUUAAUUAAUGUUGAGAAAAUGUGGCGGGAAAACUGAGAGCGCUAAAAAGCGAGCCUCUCCACUCAAGUCCUCAAAAAAAAAAAAAAAAAAAA'
p165
aF0.9803921568627451
aa(lp166
S'JF1'
p167
aS'AGAGAUGGGAGGCCUAGAAGUUACAAAAGAUAUCAAGAUACAAAGUUUCAAGAGAUCAAUAUAUUUAUAUACGAAAGUAUAUAAAUGUAUGAGAGAAAACUCGCCGUAUAUCGAAAGAUAUACGGAACCUACUAAUGUAGGAGAUUUCGGAAGCAGUAUCAGAUAUCGAUGAUAGAUCAAAAAGAUACUAUCUGGAUAUAUAUAAUUAUAUAUAUAUCGAAAGAUAUAUAUAUAAUAUAUAUAUAUCAAAGGUACAAAAAAGUACCCAGAACAUACGAAAGUGUGUUCUGAGACUCGAAAACGAGAAGUAACGACUAGGAGAUCAUACAGAGAAAGCUCGUAGAUCAGGUGCAUAUGAAAGUAUGACACCAUUUCACAUACUUUAGA'
p168
aF1.0
aa(lp169
S'multilooping fun'
p170
aS'GAUCAUGAGGAAACGAGCUAGGUUACGAAAAAAAUU'
p171
aF0.8333333333333334
aa(lp172
S'Multiloop...'
p173
aS'GAACAGAUCAGCGGAAACGAUUGGAAAGCCGUGAUAAAGCUAUAAAAAAACUCAUCGAAACAGGACGGGAAACCCAGAUCAAAUUCAAAAAAGAAUUGAGGAAACUCGUUC'
p174
aF0.9459459459459459
aa(lp175
S'hard Y'
p176
aS'AAAAGGAAGUCAUAUAUGUUUAAUGAUAUAUUAGUAAUAUAUAUAAAAGUAUUUAGGUUUUUCAAAAA'
p177
aF0.9705882352941176
aa(lp178
S'Mat - Elements & Sections'
p179
aS'AAAAGGAUCAGAAGGAUAGAAGGGUUCAGCCAAUCAGCAGACAAAAGUCGGAUGAUUGACGAACUAAAUGCCUACCAAACGGAUCAAAAAAAAAAAAAAAAAAAA'
p180
aF0.9619047619047619
aa(lp181
S'Chicken feet'
p182
aS'AAAACGGAUGGGCAAAGAAUCGAAACGAACGUCUGGACAAGCAAAAGAGUGAAGUGAGGGUCUAAAA'
p183
aF0.8805970149253731
aa(lp184
S'Bug 18'
p185
aS'AGGAGUACAAGUGAGUAGCAAGAUAAUCUCUGAGCUACAAGGAAGCAAAGCUA'
p186
aF0.9245283018867925
aa(lp187
S'Fractal star x5'
p188
aS'AAAAAACGUAUAGAAAUACGAAAGUAUAACUACGAAAGUAGAACUGCGAAAGUAGAACUAGAAAGCUAGAACUAUACGUAAAAACCGUAUGGAGAUACGAAAGUAUAACUACGAAAGUAGGACUACGAAAGUAGAACUAGAAAACUAGAACCAUACGGAAAAACCGGAUAGUAAUACGAAAGUAUAACUACGAAAGUAGAUCUACGAAAGUAGUACUAGAAAACUAGAUCUAUCCGGGAAAACCUGGUAGAAAUACGAAAGUAUAAAUACGAAAGUAUAACUACUAAUGUAGAAGUAGAAAACUACAACUAUUAGGAAAAAGCGUAGAGAAAUACAAAGGUAUAACUACGAAAGUAGAACUAUGAAAAUAGAACUGGGAAAUCAGAACUUUACGCAAAAA'
p189
aF1.0
aa(lp190
S'Crop circle 2'
p191
aS'UGAAGGUCAAGUGAAAAUGAAAAAAAAAUAUAAAAAAAAAAAAAAAAAAAAAAAAAAAAAGGUUAAAAAAAAAAAAAGUCUAAAAAAAGGAAAAAAACCCAAAGUGAAAA'
p192
aF0.9363636363636364
aa(lp193
S'Branching Loop'
p194
aS'GAAUCGUAAAAGAACGUCCUAAUGGGCUCGAUUAAAAAAA'
p195
aF0.95
aa(lp196
S'Bug 38'
p197
aS'UUAAGUACUGACGACAAAGAGGAAGGAGGAAAAUGU'
p198
aF0.9444444444444444
aa(lp199
S'Simple Single Bond'
p200
aS'AAAAAAGAAAAAAAAUAAUGGAAAACAUUUAAAAAAAGCGAAAAAAAAAAAAAAAAAAAAA'
p201
aF1.0
aa(lp202
S'Taraxacum officinale'
p203
aS'CUGCGAAAGACAGACUGCGAAAGACAGACUGCGAAAGACAGACUGCGAAAGACAGACUGCGAAAGACAGACUGCGAAAGACAGAAUAUAUAUAUCGAUAUAGAUACAAAGUAUACUAUAUCAGAUACAAAUAUAUAUACAAGAUAUACAAAGUAUAUCAGUAUAUAUAUGAUCAGAUAUCAAAGAUAUCGAUCGUAUCUAAGAUAUAUAUAUAGAGCGAAAGACUCACUGCGAAAGACAGACUGCGAAAGACAGACUGCGAAAGACAGACUGCGAAAGACAG'
p204
aF1.0
aa(lp205
S'Headless Bug on Windshield'
p206
aS'AUCUACAAAAAGGCUGAAAGCAAAGAAAAAAAAAAAAAAAAAAAAAAAAACCUAGCAAACGUACCGAAGCUUACGAGAUAAUAAUGAAAAAAAUUGAAAAGAAAAAAACCCUUUAAAAUCUCGUAGAUAAAAAAUGAGAAGGGCGAGUAGCAUUGUAAAAAAAAAAAAAGCAAAAGCAUCUCCACCAAUCUAAAACAUGA'
p207
aF0.98
aa(lp208
S'Pokeball'
p209
aS'AAAUAUCUACAAAAGCGAGGAAGAUAAGGAGGGUAGAAAGGAUGCAAGAAAAUCAGCUGCCAUCUCUAGCCACUCACCAGCGUAGGUGAAAAAAAACUUAUGCAAAAUCGAGAAAAAGCUGGGAGCAAGGAAGGGUGAAACAAAAUGGUCCACCACCACCGACCUCUUAUCAGGGCAUGGGAAA'
p210
aF0.9891304347826086
aa(lp211
S'Variation of a crop circle'
p212
aS'AAAACCAAAGGUGAAAACCAAAACUCAAUGGCAAGCAAUUUUAAUGUCAAAAAGGAAAAAAAACAAAAAAAAAGCAAAAAAAAAAAAA'
p213
aF0.9545454545454546
aa(lp214
S'Loop next to a Multiloop'
p215
aS'AAGAGUUUCAGAAAAAUCGUUUAUCAAAGGAUAGAAGAUUUACAAAGGUAAAUCAGUAAAAAAUGGAGCUCAA'
p216
aF0.9726027397260274
aa(lp217
S'Snowflake 4'
p218
aS'AAUCGAAGGGUGUAUGACGAAAGUAAUCCGAUCUACUUAAAGAACCUGGGAGCUAUGCUCAAUUACAAAGUGACCAGGCUAAAGGGGAAGGGAGAUAUCUUAAUCGACUACCUAUUAUGUAGAACUGCAAGGUAGGCGGCUCGAAAGAAAGUCAGGUCACUCGAAAGACUUACGAAGUAUUUAGAACUCCAAAGGAGGUAAGCCAAAGGGGUGGUAAGAAAGCCGAAAGGGCUCCUUACAAAGGAGAAGUACGAAAUAGGUAGUGGGAAACCUCAUCAAGAGCCGCAAAGGACGUUCUAUCAAAGAUAAACUAUUAUAUAGGAAUGACGAAAGUGGCUUAAGGAUUAGGAAACCUAUAUGUUCGAAGAGC'
p219
aF0.8243243243243243
aa(lp220
S'Mat - Cuboid'
p221
aS'GAAUCAAAAGCUAGGAAUAAGGAUCAAAACACUCAAGCAAAACCAACCAGGCAAAACGACCAUGCAAGCAAAGGCGCGCAAGAAAGCAACUGUAAUUAUGUAGGUGGGCAAAAACUGGCUUGGGUGGCAGAAAAAGUUUACGGACAGGCAAUCUCGCAAAAUCUGGCUACAUUGGUGGAGGGGAAAAGCUCGGAGGGUUUAGGUUUUAGAAAAAAUUAAGAAAUGUUCUAGCCUUGCCCUAUUAUUCUUGGGUGUAGUCGAAUGGGGCGAAGCGAGUUUGCGCGUAAUAGCUUGCAUAUGCAAAAAAGCUAAAAAACGCGAUCAGGCCAACGCGUGCGGGCGAGGCAAAGAAGGGUGGGAGAGCAGAUUCAAGUCCAAGC'
p222
aF0.7236842105263158
aa(lp223
S'Misfolded Aptamer 6'
p224
aS'AAAAAACUGAAAAAAGAGAUGGGAAAGACGAAAAAAAGUCGGAACAAAAUUCUCGAAAAAACAGGAAAAAAAAAA'
p225
aF1.0
aa(lp226
S'Snowflake 3'
p227
aS'GAGCCGAAAGGAGAGCAUAAAAGUGAAGGUCAGCUCAAGUGAGAGCACCAUAACGAAAGUACCUAUGGCACGAAAGUCCUAUAGAAAACUAAAGAGUAGAUCAAGAGGAAACUCCAAAACGAAAGUAGAAAGGCCACAAAGGUAUUACAGUAAUUUGAAGAUCAGUUCAAGAUAAAAGUCCAAAACGAAAGUAGCAAAGCUACGAAAGUAUUGCGGGAAAAUGAAGAAUAGAUCAAGAGAAAACUCCAAAGCGAAAGUAGCAAAGUGGCGAAAGUGAUCCAGAAAACUGAAGAUCAUAUAAAGACAAAAGUCUAAAACGAAAGUACAUAAGCUACGAAAGUAUCACAGAAAACUGAAGAUCGGAUCAAGAGAAAACUCCUCAGCGAAAGACUC'
p228
aF0.7964376590330788
aa(lp229
S'Hard Y and a bit more'
p230
aS'AAAAAGAUGCAGGCAUGCUAAUGCAACGCUUUUCUGGCGAAUUCGAAAAAGUGAGGUCCGAAAAAGGAUCAAGCAGCAAGCGAGCGGAAAAAAAAAAAAAAAAAAA'
p231
aF0.9905660377358491
aa(lp232
S'Mat - Lot 2-2 B'
p233
aS'GAGGGUUCUAUGAUGAAAAAGCAUCGUGAAAGCAAAAACUUGGUUCUGCAAAAAUGUUGCCGAAGCAAUGUUGGCCGGACAAAAUCUUGACGGAGAAAAAAAGAAAUUGCUAUUAACAUCUUGAGUAAGCGCUAGGGACGAAAGUGGAAUUGUGUUAGACAACCUUAGUUAACGAAAAAAUUUCGGUUCUUAAAAUUAUGGCUCUGCCAAACUUCGCAUUGCGAAACAGGCUGCUGCCGAAAUGGAAACGGAAAGAAAAAUGAAAGGCUGGGCUGACGACCAGC'
p234
aF0.7676056338028169
aa(lp235
S'Shapes and Energy'
p236
aS'AAAAAGGUGAACAUAGCAAAAGGAAGGUCAAGAAAUGGAUCGAACGCUAAAGGUAAAAAAUAAGAAAUUAUCCGGUUCUCAAAAAAAAAAAAAAAAAAAAA'
p237
aF1.0
aa(lp238
S"Spiral of 5's"
p239
aS'AAAAAGAUACAAAGAUAAAAUGAUAAAAAAGAUACUAGGAUAAUAAGAUAAAAGAUACUAAAGAUACUAAGAUAAAAGGAUAAAAGAUACAAAGAUAAAAAGAUGAAAGAUACAAAGAUAAGAGAUACAAGAUACGGGAUACAAGAUACAGAUACAGAUAGACAUCAAAAAGAUGUGGGGGUUAUCAAAAAGUAUCGAAAAGUAUCAAAAAGUAUCAAAAAGUAUCAAAAGGUAUCAAAAAUUAUCAAAAAGUAUCAAAAGUUAUCAAAAAUUAUCAAAAAGUAUCGAAAAUUAUCAAAAAUUAUCAAAAUGUAUCAAAAUGUAUCAAAAAUUAUCAAAAUUUAUCAAAAUGUAUCAAAAAUUAUCUAAAAUUAUCAAAAAGUAUCGAAAAUAAAAA'
p240
aF0.9949622166246851
aa(lp241
S'Campfire'
p242
aS'AAAAGGUGGAACAUCAAGAUCAACGAUGAAAAAUUGGCGUUCAAAGGAACGUGAUCGAGGAGUAAAAGAGAGGGGAAAUCACUCUUUUCAUUCUACCCCAACGAUAUUGGUCGAAUAGCCAAAGUGACAAUCCUUGAAGAGCCCACGCGAUGUCAGAGACAGACAGAUAGAAAUAUCGUCGUCGUGUGUACAAGGUAACAACGCGCUGCGUC'
p243
aF0.8443396226415094
aa(lp244
S'Anemone'
p245
aS'AAAGAUAUGAAAGCAUAUCGAAUCGAAAGAUUCGUGAUGGAAACGUUACGAAACGAAAGUUUCGAGAUCGAAAGAUUUCCACAUUAAUGUGUGCAUCCUAAUGGAUGGAGAUCAAAGGAUUUCAACGUCGAAAGACGUCUUCUCGAAAGAGAGGCAAACGAAAGUUUGGAUAUCGAAAGAUGUCGAUACGAAAGUAUCGUCAUCGAAAGAUGAC'
p246
aF1.0
aa(lp247
S'Fractal 3'
p248
aS'AAAAACAUAACAGAGCGAAAGCGCGAAAGCACUGAGAGAGCGAAAGCGGGAAACCACUCAGAGAGCGAAAGCGGGAAACCUCUCAGAGAGCGAAAGCCCGAAAGGACUCAUAUGGAAAA'
p249
aF1.0
aa(lp250
S'Kyurem 5'
p251
aS'AAAAGCAGGCUGGUUUACUGACGGGAAAAUGUGGCGGAAAUGAGAAAAUCGCCGCGGGUAAAAUUCCAUAUCCCCUAGAACUAGACGAAAAAAAAAAAAAAAAA'
p252
aF0.9423076923076923
aa(lp253
S'Snowflake Necklace ( or v2.0 )'
p254
aS'AUGCUAGGGAUUUAUAGAUUGACGAAAAAGGACCAAAAAGGACAAAAAAGGAUCAAAAAGAACCAAAAAAGACAAUCGGUGAAAAGCACAGAUACACCAAAAACGAACAAAAAGUACCAAAAAGGACCAAAAAGGAGCAAAAAGGAGUAUCAGCGAAAAGCGCAGGAAGAACGAAAAUGAUCAAAAAGGCCGAAAAAGGACCUAAAUGGAGAAAAAGAUAGUAUCGGGUAAAAAGCCAUGCAGAGCAAAAAGGACGAAAAAUCACCAAAAAGCAGCGAAAAGCACCGAAAAGGACUGCAAGAGAAAAACUCACAGAUAUAUAAAUGAACCAAAAAGGACCAAAAAGGACCAAAAAGGACGAAAAACGAGUCUAAAUAGAUCUCUAGUAU'
p255
aF0.897172236503856
aa(lp256
S'Methaqualone C16H14N2O Structural Representation'
p257
aS'AAAAAAAGCAGUGAUCGGACGAGCGAAAGCUAGAGACAGAAAAUUGGAAUAGAUAAAAAUCAGGGAAGCAAAGGCUACAUUAAAAAUAUGACCCGAUUACUCAGUCAUAAAGGGAUCUGUGCAAAGAACAGCAAGCAAGGCAAAAAAAACCGAGUCAUAAAAAACAGUAGUAAACUGAAGGAAACGAGUCAUCCAAGAUCAGAAACGGGCAGAAUGCUAAGGAAGCAAAAGAUAAAACACAGCUACAUAAAAAUGGCUUGGAGAAAGUUCAGGUCGGAAAAAUCCAUUCGGCUGAGAAAAACUUGUGAAAGCGACCGAAAACGGGUUACUCAGAUCAAAGUACUCUGCAAAAAAA'
p258
aF0.8647887323943662
aa(lp259
S"Cat's Toy 2"
p260
aS'AAAAGGCAUAGCGAGAAUUAUAAAAAAAAAAAAAAAAAAGAGAUUAAGGGGAAACCAAAGCUAAUGCAAAAAAAAAAAAAAAGAGGCUAUGCCGAAA'
p261
aF0.9587628865979382
aa(lp262
S'Zigzag Semicircle'
p263
aS'AAAAACAUACCCAGAAAAGGAAAGAUAUGUGAAA'
p264
aF0.9411764705882353
aa(lp265
S'Short String 4'
p266
aS'AAAAAGGUACCAACUGUCAAAAAACGUCGAAAGGGUAAUGAUCACGUUGCGAAAGCUUCGAAGUCAGUAGAGGCGCAAAAAAAAAAAAAAAAAAAAA'
p267
aF0.9381443298969072
aa(lp268
S'Gladius'
p269
aS'GUAAUCAAAAACUGAAAUGAUAGAUUAAGGAGAGUCGAAUAUGGAAAUAUAAGAUACAAGGGAGGGGGGAUCGAUAGCUCUAAGGCUGUUGAAGAAGUGCGAUCCAGGUUAGAUCGAGAUCUAUGAUCAGAUACAAUCCAGAUCCAACUUCUAUAAUAGCAAUUGAGCAAAAGAUCGACACUCAACAGUAUCAGACAAAGAGAGAAUCGCUCAAGAGAACAUCAGAAGGUCAGUCGAUAUAAAGUAUAGACUUCGAAAUGUCAGAGGGAUAUCGAAAGAUGUCGACUCGAAUAUAGUACGAGCUAUAAAUUAUAUUCUAAGAUCACAAGAUGACAACUUAGAAGAUUCAGAUAGAAAUAUCAAACUCGCUCAAAGUACGAAAAAAGCUAAAUAAUGAAAA'
p270
aF0.895
aa(lp271
S'Thunderbolt'
p272
aS'GGAAGCUACUAAAAAAUAAGUAUAGAUGGGGUGAAAGCUGAUUUUUCAAAGGGAAUGUCAAAAAUAUCAAAAAGAUAAAAAAAGCAAGGCGGUCAAAAAAAGAUGAAAAAACCGCGAGCUUGCGAAAAUAAAAUAGAUCAAAAAGAGAAAAAAACUCAUAAAAGGACUUAAAAACUCAGAUCUUGGAAAAAAAUAUUAGAAAAUCAGAUGAAAAAAACAAAGAUCAAAAAAAAGAUCAGGGGGAUAUCAAAGAUAUCAGCUUGCAAAAAAAAAAAGCAAGCAAAAAAAAAAAAUAGAAAGCCUUAGUAAAAAAAAAAAAAUAAAAAUUAAGGAAAAUUAAAGAAAAAUCAAAAAAAAGAUAUAGCAUACAAAGAAAAAAACUGUAGCAACCA'
p273
aF0.9285714285714286
aa(lp274
S'Mutated chicken feet'
p275
aS'GAAAAAAGCAACAGAAAAGUGCUCAAGGAAAUAGCAGAACAACCAAGGUACCAAAGAGGAGCGCGACAAAAUCGAAGAGUCAAAGGAAAUCGUAAAAAAA'
p276
aF0.82
aa(lp277
S'Chicken Tracks'
p278
aS'AAAAAAAAACUAUAGGUGGGAAACCAUAUGUUCGAAAGAACUAGUUCGAAAGAACCUAUAGUAAGGCCAGGAAACCUGACGUUCCAUGAGCAAGCGCAAUGCGUGCCAAAAAAAAA'
p279
aF1.0
aa(lp280
S'Looking Back Again'
p281
aS'GAGAAGACACACGAAAAGAAAUCAAGGAUUUCAGUGUAAGAUCAGAAGACAAAGUCCUGAGGUUCAAAAAUCUAAUGAUUAAAAGAACCGAGUCAAGUCAAGAUCAUGCAAAAAAACCGAAAGGUUUGAAAAACAUAAGCCGAUACAAAGUAUCCCCUUAAAUUAGGGUGGUUCAAAGGUUAAGGAUGAGGGGAUCGAAAGAUCGACAGAACAAACGCGUUAUAAUUGCAAGAUCACAAAGCCGCUACCAGAUAUAAACCAAAAAAGGGUACGAAAAAAAAGUUCGAAAAGAACCGUAAAACCUGGGUUGUACAAAAAACCCCGGACGAAAGUCCGGAAGCCAGAAACAAGCUACGAAGUAGGAAGGCGGAAAAGUACGUAUCAAACUC'
p282
aF0.9125964010282777
aa(lp283
S'Multilooping 6'
p284
aS'AGGCUGACAUGUCCCAAAGGGGGCGGUACGAAAGUAUCAUUGGGCUUAUUAAUAUAUUGGUUCGAAAGGACCUUCUCAGCAA'
p285
aF0.926829268292683
aa(lp286
S'Cesspool'
p287
aS'GAAGAAGAAAAUAACAGAUUACCGCCAAAGUCAAGAAAAUCUGAAAAAGAAAAUAAUGGAGUGAAAGAUUAGAAUGGAAAUAAUAACAGCAUGAAGAAAACAACGUAAUGGAUGCAAAGUAAACAAAGUGCGAAAAUCAAAAGAUUAAAUUAAAAGUUUACAACCGAAAGUUUAACGAGCUAGAAUAAAAAAAGGGAAUAGAUACAAAGUAAAUAAAAUCUUAACAAGAAAAUAUGGAAAUGAAAGGUUAGAAUAGAAAUACCGUGCAAGCUGACAGAAAACAGCAGAUAAGAUAUAACGUGAACAAAAGCUGAAAAUAAAAAUAUUGGAAUGAAAGGUCAGAAGGGAAAUACUGGGC'
p288
aF0.723463687150838
aa(lp289
S'Hoglafractal'
p290
aS'AAGAGCAACCUACAAAAGAUACAAAAAAGUAUCGUAGGGACCAAAAAUCGAAAAGGUCGGUCCAUAAGACAAACGUCGUGAGAUGAAGAUCAAAGAUCAAAAAACAUCGAUCCAGAAGAGAAAAACUCCUGCAACGGAAAUGUGGUUACAAAAGAGAAGAGAAAAAAUUCUACUCAGCAAAAAGCGACAGAAAACUGUGAUACAAAAAUCAGCUAAAAUGCGACAGAAAAACUGUCGAAAGAAGAUGUCAAAAAAUGGAAAAAACUAGCAAAAAGAAAACCGUUUCAAAGAAAUGGAAAAAAAGACAUCAAAAAAGUAUCUAAAAGUAGAAAAGUCGAAGCAACGAAGAACAGUACAAACCCGAAAGGUCGAAAGAUAGGUGAAACACCUGCGAUGGUAC'
p291
aF0.86
aa(lp292
S'Bullseye'
p293
aS'AAACAGGGUUAAAGACCAACCCCAAAGGUCGAGAGCAAAGUUCCGAAAAAAAAACAUCUUGAAACUGUAGCAUUAAAAAUGAAGGUCAAGGAUCAUCAAAAAAAGCAGAAUGAAAGGUCAAGGUAAAAUACCAAAUUGAAGCGUCCUGAAAAAAAAGAUGUUCGAAGAACAUGAUCAAAGAUCUAGAUCGAAGAUCGUCAAA'
p294
aF0.8316831683168316
aa(lp295
S'Shooting Star'
p296
aS'ACAUUCGGUCGAUAUGUAAGGAUAGGCAAUCAGAAAGCGAAAGACUUACGAUAUAUGAAUAAACAUAUCAGAUCCUAGACAAGCGGACAGAUGUAGAGAGAGCAUAGAAAUAGGCUACCUCGACAUAUGUCAGACAGGAGACCGAAAGAGAAUCGUUCCUUGCAAAGCGGGACCUAUGAAAUAGGAAAAAAGUAUAGAACAGACCAAAUGAAUGCAAAGAUAUAGAAGCUAUAUCACCUACGAAGUAGGGCAUAAUUUCCUCUGGAUGUCAUCUAAAAAUUAGGGGUUGAUCGACGAAAGAGAAAAGAUUGCGAAUAGAUCACAGAAAGGGGACACAUGACAUAAUCAUGAGGAUCAGGAUGUA'
p297
aF0.8434065934065934
aa(lp298
S'Teslagon'
p299
aS'AAAAAAGAAAAAAAAUUAGGAAAAAAAGGAGCAAAAAAAAAAAAAAACCAAAGAAUAUAUAAAAAAAAAAAAAAAGUACCAAAAAAACUAUGAAAAAAAACAAAAAAAAAAAAAAAGUAAAAAAACGACGAAAAAAAGUAUCAAAAAAAAAAAAAAAACUAAGAAUACGCAAAAAAAAAAAAAAAGCAGCAAAAAAACCAGGAAAAAAGUAAAAAAAAAAAAAAAAUAAAAAAAAUCGGGAAAAAAGGCAACAAAAAAAAAAAAAAAGACAAGAAUAAGUAAAAAAAAAAAAAAAGCAGUAAAAAAGCCAAGAAAAAAAGUAAAAAAAAAAAUCAAAAAAAAAAAAAAAAGGUGCGAAAAAACUAGAAAAAAAAUCAAAAAA'
p300
aF0.9057591623036649
aa.