(lp0
(lp1
S'Simple Hairpin'
p2
aS'GAUACAAAAAAGUAUC'
p3
aF1.0
aa(lp4
S'Arabidopsis Thaliana 6 RNA - Difficulty Level 0'
p5
aS'GGGAUGCAGGUGAGAAAAAAAAAAACUCGGGGUGUCUUCGGGUGUGUGUGGGUGUGCAAAGAUACAAAAAAGUAUCAGCACACACCACACACACCCGUUGACACCCCAAGCAUCCC'
p6
aF1.0
aa(lp7
S'Prion Pseudoknot - Difficulty Level 0'
p8
aS'GAGAUCAGAUCAAAAGAUCGAUACUCAAAAAAAAAA'
p9
aF1.0
aa(lp10
S'Human Integrated Adenovirus - Difficulty Level 0'
p11
aS'GGGGGUGUGGGUUCAGGAUGUUAAAAAAAAAAGCUCCGAUGGGGACCCCCGCGUGUCAAAAGGGGUGGUAUGGCUAAAAAAUGUCAUACCACAAAACCCGACACAAAAGCGCCCAAAACAUCGAAAGCAUGCAAAAAAAGCGUGCGAGCAAAAAAAAAAAUACAUCCGGAACAAAACCACACAAACCCCAAA'
p12
aF1.0
aa(lp13
S'The Gammaretrovirus Signal - Difficulty Level 0'
p14
aS'AAGAGUUCGAUGCGAAAGCAUCGUUCGCAAAAAAGAUCAAGACAGAUUUGUGGUAAUCCACACAAAGAUCGUCGAUCAAGGGGUGUCAAAAGACGCCCCAA'
p15
aF1.0
aa(lp16
S'Saccharomyces Cerevisiae - Difficulty Level 0'
p17
aS'GUGUUUGGGCCAAAAAAAGGGUCGGGGAAAAAAAAAAAAAACCAAAUAUUCAAAAAAAAUGAGUCGAACACAAAGUGGAUCCCACGCCGAAAAAAAGGCGCAGGAAAAAAAAAAAACUGGGGUUAUACGAAAAAAGUAUAGGAUUCGAAAUGGGAAUCAAUGCGGAAAAAAAUGCAGGAUGGAAAAAAGCCAUCCAGGUCAGACAAAAAAAGUCUGGGUUCCCUAAUGGUAUGCAAGCUCAAAAAAAAGGGCGGUUGGGAAAAAAUCAGCCAGGUUAUACUAAAAAUGUAUAGCAUGCCUAAUUUAAUGGAAGAUCUAAAAAAUGAUCGGAUGUGAAAAAAGCAUCCAGGUGAUACUAAAAAUGUAUCCUAUUAAUAAA'
p18
aF1.0
aa(lp19
S'Fractal 2'
p20
aS'AAAAAGAGGUUUCAAAGUCGUGUGGAGGGACGAAAAAAAAAACGUUAAGAUGAAAAAAAAAACAUCACUAGCAAAAAAAAAAGCUAAAUCCACAUGACAAAUGGGUGUGGCGAGAUAAAAAAAAAAAUGUCGAGAUGAAAAAAAAAACAUCAAGUUCAAAAAAAAAAGAACAAGCCACAUCCAAAGGGGGUGUCGUGGGACGGAAAAAAAAAUGUCAAGAAGAAAAAAAAAACUUCAAGAUGAAAAAAAAAGCAUCAAACGACACCCCAAAGAAACCUCAAAAA'
p21
aF1.0
aa(lp22
S'G-C Placement'
p23
aS'GAUCAAAGAUCG'
p24
aF1.0
aa(lp25
S'The Sun'
p26
aS'GGCAGGGUUGCAAGUCAGCCUCCGUUAAAGACAGAGAUGCGAAGCAUAACUCGUCGAGUACAGUAACAUAAAGGACAAUGAGUCAAAUAGAUGGGUGCAAAGCACAACCAUUAGAGGACAAUGAUACUAAGCAUAAUACGCCAAGGACAGUCAAGCAAGGCCUCAGUUGUCAAAGACAGAGAUGGGAACCAUAAGUCGUCGAUCGCAUGUAUGCAAAGCAUAAACAGCGUAAUUAAGGGAGCCAAGGCUUAAACCUUG'
p27
aF0.8527131782945736
aa(lp28
S'Frog Foot'
p29
aS'AAAAAAAAACCAACAAAAGUUGCGUCAAAGGACGGUGCAAGGCGC'
p30
aF1.0
aa(lp31
S'InfoRNA test 16'
p32
aS'AGAUGCACAGGAUGCAAAAGCAUCACUAGAGCAUCU'
p33
aF1.0
aa(lp34
S'Mat - Martian 2'
p35
aS'GCUCAAAAGAGCAAAGGGAUGCAAGGGAUCCAAAAAAAGGAUCCCGCAUCCCAAAGGUGUGUCAAAAAAGGGAUGCAGGGAUGCGAAAAAAGCAUCCCGCAUCCCAAAGGGGUGGGUGUGUCAAAAAAAGACACACACCACCCCAAAAAAGACACACCAAAGGUGUGGGUGUGUCAAAAAAAGACACACAACCACACCAAAGGUGGAAAUACC'
p36
aF1.0
aa(lp37
S'square'
p38
aS'GGGAUGCAGGUACAGGUCACUGAUACAAGGUAUCAAAAUGUGACCUAAACGUACCUAAACGCAUCCC'
p39
aF1.0
aa(lp40
S'Six legd turtle 2'
p41
aS'AAAAGGCAACUCAAAAGAAAAUCAAAAGAAAAAGAAAAAUGAAUCAAAAGAAAUUCAAAACAUAACUAAAAGGAAAGUAAAAAAAAAAAAAAAAAAAA'
p42
aF0.9591836734693877
aa(lp43
S'Small and Easy 6'
p44
aS'GGGCAAAAAGUCAAUAUAAAAAAAUUAAUU'
p45
aF0.8666666666666667
aa(lp46
S'Fractile'
p47
aS'AAAAAAAAAAAAAUUAAUAUGAAACGAAGCAAAACCGAGGAAAAUAAAAGUGAACCACGCAAAAUCUAAGUAAACCAAAGGAAAAAAAAAAAAAAAAAAAAAAAA'
p48
aF0.9619047619047619
aa(lp49
S'Six legd Turtle'
p50
aS'AAAAAACAAAACCAAAAGGGAAUGCAAAGGGUAAAGCUAAUGCAAAUGGAAAGUCUAAUCCGAAAGGUAAAUCAAAAGGUAAGUGUAAAAAAAAAAAAAAAAAAA'
p51
aF0.9428571428571428
aa(lp52
S'snoRNA SNORD64'
p53
aS'GGAUGCAAAAAGACAAAAGACAAAGAUACAAAAAAAAAAAAAGUAUCAAAAGUCAAGUCAAGCAUCC'
p54
aF1.0
aa(lp55
S'Chalk Outline'
p56
aS'AAAAAGAUGAGAGACAAAAGUACUCAGACAGACAAAAGUCGUCAGGAGGCAAAAGCACUCCAGGAUCAAAAGAUACCCAUCAAAAAAAAAAAAAAAAAAAAAAA'
p57
aF1.0
aa(lp58
S'InfoRNA bulge test 9'
p59
aS'GAUAAGUAGAGAGCGGUGUGUUAAUACACGCCCCCACUUAUC'
p60
aF1.0
aa(lp61
S'Tilted Russian Cross'
p62
aS'AAAUUACGAGUGUGAAAGUGUCUCAAGUGCAAAGUCACUCAACAAAAGUUGAACUCGCAAUGUAGUUAGUAUGAAAGUGUAUUCUUAAAAAAAAAAAAAAAAAAA'
p63
aF0.9238095238095239
aa(lp64
S'This is ACTUALLY Small And Easy 6'
p65
aS'AAAAAAAAAAAAAAAAAAAAAAAAAAAAAAAAAAAAAAAAAAAAAAAAAAAAAAAAAAAAAAAAAAAAAAAAAAAAAAAAAAAAAAAAAAAAAAAAAAAAAAAAAAAAAAAAAAAAAAAAAAAAAAAAAAAAAAAAAAAAAAAAAAAAAAAAAAAAAAAAAAAAAAAAAAAAAAAAAAAAAAAAAAAAAAAAAAAAAAAAAAAAAAAAAAAAAAAAAAAAAAAAAAAAAAAAAAAAAAAAAAAAAAAAAAAAAAAAAAAAAAAAAAAAAAAAAAAAAAAAAAAAAAAAAAAAAAAAAAAAAAAAAAAAAAAAAAAAAAAAAAAAAAAAAAAAAAAAAAAAAAAAAAAAAAAAAAAAAAAAAAAAAAAAAAAAAAAAAAAAAAAAAAAAAAAAAAAAAAAA'
p66
aF1.0
aa(lp67
S'Shortie 4'
p68
aS'GCAAAAGCAGGGAAACC'
p69
aF1.0
aa(lp70
S'Shape Test'
p71
aS'AAAAAGUGAUGAUGCUUCGAAAAAAAGGAGCUAGACAGACAGAUACAAAAAGUGUCAGAUCAAAAGAUCAGUCGUCAACAUCUCAAAAAAAAAAAAAAAAAAAA'
p72
aF1.0
aa(lp73
S'The Minitsry'
p74
aS'GACAAAAAGAGAAAAAAACAAAAAGACAAAAACACAAAAAAAAGUGAGUCGGUUACUCGGUC'
p75
aF1.0
aa(lp76
S'stickshift'
p77
aS'AAGGUAUAGCAAAAAGUGUAUACCAA'
p78
aF1.0
aa(lp79
S'U'
p80
aS'AAAAAGAUACAGAGAGCAGAGGGGUGUGCAAAAGCACACCCCCGCCCGUAUCAAAAA'
p81
aF1.0
aa(lp82
S'Still Life (Sunflower In A Vase)'
p83
aS'AAAAAUUACGCUACUAAAUGUAGCAAGAAAUAAGGAAUCAAGAUACAAAAAGUAUCGAUUUGCAAAACAUCAAGAUGGAAAAACUAUCUAUAUGCAAAAAGCAUCAGGGAUGUUUGUGUGUCUGUGUGUAAUACAAAAAAGUAUUAGGUGGAAAAAAAAAAAAAGAUGAAAAAAAAAAAAAAAAAAAAAAAAAAAAAAAAAAAAAAAAACAUCGAAAAAAAAAAAAUCACUCACACAAAAGUGUUAGCACACAGACACACAGACAUCCCAGUAUACGAAAAGUAUGAGGAUCGAAAAACGAUUAGGUUCCAAAAAGGAGCAAUACCAAAAAAUGGUGAAGAUACGAAAGUAUCAAGAAGCAAAAAGCUUCGGAUCAAA'
p84
aF0.9470899470899471
aa(lp85
S'Quasispecies 2-2 Loop Challenge'
p86
aS'AAAAAGAAGGGAUUUCCGGUAAUCCGGUUGUCCGGAGGAACUAUGGGCUUCAUAGCGACGUCCUUAAAUGGGUAGGAGCUACUUCGAAAAAAAAAAAAAAAAAAA'
p87
aF1.0
aa(lp88
S'Corner bulge training'
p89
aS'AGGAUGCGAUACAAAGUAUCAAAAGCAUCCA'
p90
aF1.0
aa(lp91
S'Spiral'
p92
aS'AAAAAGAUCAGGAUGCAGACAGAUACAGAUCAGAUCAGCAGCAGCAGCAGCAGCAAAAAGCGCGCGCGCGCGAUCGAUCGUAUCGUCGCAUCCGAUCAAAAA'
p93
aF1.0
aa(lp94
S'InfoRNA bulge test'
p95
aS'AAAAAAAAAAAAAAAAAAAAAAAAAAAAAGGGUAAAAAGGGGCAAAGAGAGAAAGGCCGGCGCCUGGCGAAAAACGAUCUGGACGAAGGACUGAACUACUAAAAGGCACCAAAAAAACACCG'
p96
aF1.0
aa(lp97
S'Worm 1'
p98
aS'AAAAAAAUAUAGAGUAAGCUCGAAAAAAUAUGUACGUUUGGGGAG'
p99
aF0.8666666666666667
aa(lp100
S'just down to 1 bulge'
p101
aS'AAAAAGGACAUAUACAAAAGUAUAAGACAAAAGUCAGUACCAAAAGAUGAGACAAAAGUCAGACAAAAGUCACAUCAAAAAAAAAAAAAAAAAAAA'
p102
aF1.0
aa(lp103
S'Iron Cross'
p104
aS'AGACAGGGGAAGCGAUACAAAGUAAGACAAAAGUCACGCAAAGAGAGACAAAAGUCAGACAAAGUCACUCAAGCCGAUACUAAUGUAAGACAAAGUCACGGAAACCCAUAUAAAGUAAGUCAA'
p105
aF1.0
aa(lp106
S'loops and stems'
p107
aS'AAAAAGGGAUGCAAACAUGAAAGUUGUAAGAUGGAAAAAAAAGAUACAAAAAAAAAAAAGUAUCAAACAUCAAAAUGUGUAAAAAAAAUCACAAAUCAGCAAAGACAAAAAAAGGUCAAACAUGAAGCAAAAAAGCGAAGCAUCCUAAAAA'
p108
aF1.0
aa(lp109
S'Water Strider'
p110
aS'AAAAGGUACGGGAUUUGAGUUAAAACGCGGUAAAAACUGGCGGGGGGUUGAGGAAACUCGACAAAGGUUAAUUGUAACGGGCUAAAAAAAAAAAAAAAAAAAA'
p111
aF0.941747572815534
aa(lp112
S'The Turtle(s) Move(s)'
p113
aS'AAAACAAAAAUGGGUGAGGUGCGGAAAAAAAAACCGCACCUCUGGAGAAGAAAAGUUUCACAGUGACAAAAGUCUAGUAUACGAAAAAAGUAUAAAAAGAGAAACGAAAGCCACAAUGAUUAAUGUCUAAAGAAUCCAAAAAAAGGAUUCAAAAAAUCAAUGUUAAAAAGGAUGGUAAAGCCGAAAAAAGGCAUCGCGAAAAAAAGUGUAUGGUUGAAAAAAUAACCUAAGAUCAAAAAGAUCAUCCAUCCAAAAAAAAAGUGAAAACACAAUUGUUAGCUUAGGACGAUACUAAAAAAAAUGUAUCUAAAAACUC'
p114
aF0.9556962025316456
aa(lp115
S'Adenine'
p116
aS'GAUACAGGAUGCAGGAUGCAGGAUGCAGGAUGCAGGAUGCAAAAGGAUGCAAAAAAGCAUCCAGCAUCCAGAUACAAAGGGAUGCAAAGCAUCCCGUAUCAGCAUCCAGGGGGGUGUGUCAAAGACACACAAACCCCCAGCAUCCAAAAGCAUCCAAAAGCAUCCAAAAGUAUC'
p117
aF1.0
aa(lp118
S'Tripod5'
p119
aS'AGUGUCCCUGUAAAUCGGGCGGAUAAAUUCUGGACAAA'
p120
aF1.0
aa(lp121
S'Shortie 6'
p122
aS'GCAAAAGCAGCAAAAGCAGCGAAAGCAGCGAAAGC'
p123
aF1.0
aa(lp124
S'Runner'
p125
aS'AAAAUGGUCGGCUGAAAAAACCAAAUUGACGAAGCACAGCCAAUUCCUCAAAGAGUACGCGCAGGCCUAUGGCAAAUAGGGGCAAAGAUAAACUCAAAGGGGGGUUAGACCUCAAA'
p126
aF0.9655172413793104
aa(lp127
S'Recoil'
p128
aS'AAAAAGAUACAAGCAAGCAAGACAAGACAAGCAAGCAAAGCAGCAGUCAGUCAGCAGCAGUAUCAAAAAAAAAAAAAAAAAAAAA'
p129
aF1.0
aa(lp130
S'[CloudBeta] An Arm and a Leg 1.0'
p131
aS'AAAAAGACAGAGACAAAAGUACUCGUCAGCAAAAGCGACAGUCAAAAAAAAAAAAAAAAAAAA'
p132
aF1.0
aa(lp133
S'[CloudBeta] 5 Adjacent Stack Multi-Branch Loop'
p134
aS'CCAGGCGUGUAAUUACGGUGGCUAAUGCCGCGAUGCAAAGGCGUCGGAGGAAACUUCCUUGGA'
p135
aF1.0
aa(lp136
S'Triple Y'
p137
aS'AAAAUGACGAAUCGGUUAAAGGAUACAUUAAAGAAUGAAACGAUACACCUAAUUAUCAUUAGAAAUAACCAUGUGUCUAAAAAAAAAAAAAAAAAAA'
p138
aF0.9175257731958762
aa(lp139
S'Misfolded Aptamer'
p140
aS'UGGUGAAAAUUCGGAGAAGUCUGGUAAUCACGGACGAGAAAUAAAAGCCG'
p141
aF0.96
aa(lp142
S'Flower power'
p143
aS'AAAAAGAUGGUCUAAAAGAUAGACGUGAUAUAGUUGAGGAUGUGUCAUGAAGCUUGAAAAAGUAUCAACUCAAAUAUCCGUUAAAAAAAAAAAAAAAAAAAA'
p144
aF0.9019607843137255
aa(lp145
S'Kudzu'
p146
aS'AAAAUGAAAGGAGAGAUGAAGGCCAACACGGUCGAACUCAGAGGCAAUGCACUCAAACCCGAAGGGGAAAACGCAAUGUUCUAAAAAAAAAAAAAAAAAAA'
p147
aF0.9603960396039604
aa(lp148
S'"1,2,3and4bulges"'
p149
aS'AAAAAAGUCAAACUCAAAAGGACAAGUUUGUGAAAGCACUGGCUUGAAAUCAUCGGCGAAACAACCCAGUUGAAAAACGAUAAGAAAAAAAAAAAAAAAAAAAAA'
p150
aF0.9047619047619048
aa(lp151
S'medallion'
p152
aS'GGAUGCAAUCCACUAAUGUGUAUAGACAAAAGUCACGUAAAAACGGAUAUAUUAAUACAUAGGCAGAAAAUCGAAUAUACGAAAGUAUAUAAUCUAAAGAUAGUUGAAAAACAGGGCAAAAAGUAAUUCAAUCGAAAGAUAAGAUACGAAAGUAUCUAAUGAAAAGAUAAUCAAAAUAUCAUGUACAAAAGUAUAUAUUCAAAACAAGCAAUGUAAAAAUAGCUAGUCAAAAGAGAUCCUAAUGGAGGUGUCAUAAUUGACACAGGCAAAAACCAAUGUACAAAAGUGCAUUAUCGAAAGAUUACCAAAAGAUAAGCUAAAAAAAUGGCUAGCAUCC'
p153
aF0.8308605341246291
aa(lp154
S'[RNA] Repetitious Sequences 8/10'
p155
aS'AGGAAAAAAGCAAAAAAGCAAAAAAGCAAAAAAGCAAAAAAGCAAAAAAGCAAAAAAGCAAAAAAGCAAAAAACCAAAAA'
p156
aF1.0
aa(lp157
S'Documenting repetitious behavior'
p158
aS'AAAAAAGUGAAAAAAAAAGCAAAAAAAAUGUAAAAAAAAAGAAAAAAAAAAUGAAAAAAAAAGGGAAAAAAAAGGAAAAAAAAUAGUAAAAAAAAUUUAAAAAAAGGGAAAAAAAAAGAAAAAAAAAGAGAAAAAAAAAACGAAAAAAGAGCGAAAAAAAAUGGAAAAAAAAGUAAAAAAAAAGAAAAAAAAAACAAAAAAAAAAUGGAAAAAAAAUCAAAAAAAAAGCGAAAAAAAACCAAAAAAAAAACGAAAUAAAACGCAAAAAAAAUGAAAAAAAAAUUAAAAAAAAACCAAAAAAAAGAAAAAAAAAAUCUUAAAAAAAGACCAAAAAAAGUAGAAAAAAGACAAAAAAAAAAACGAAAAAAAAACUAAAAAAAUGGAAAAAAAAACAAAAAAA'
p159
aF0.9125
aa(lp160
S'7 multiloop'
p161
aS'GGUGUCCCGGAAAUGGGAGGUUCGAAAGGACCGUGCCGAAAGGCGCGAUAUGAAAAUAUCGUUACGAAAGUAGCGGGAGUAAUCUCCCCACC'
p162
aF1.0
aa(lp163
S'Kyurem 7'
p164
aS'AAAAAAGGGCUGCUAGAAAUGGUUCCAAAUCUGGCGCUAAUUGCUAAUAGUAGAAAAAUACAAGUAGCGCUGGAAGCACCCCGAAAAAAAAAAAAAAAAAAA'
p165
aF0.9607843137254902
aa(lp166
S'JF1'
p167
aS'GGGGGUGGUAGAGAUAGAAGAUACAAAAGGAUGCAAGAUACAAAGAUACAAGGAUGCAGGGGUGUGUGUGUCAAAAGACACACACACCCCAAGACAAAAGUCGGGGGUGUGCAAAAGCACACCCCAAGAUACAAAAGUAUCAGCAUCCAGUAUCAGUAUCAGCAUCCAAAGGGGGGUCAAAAAGACACCCCCAAGGGGUGUGUGAUAUAUAUAUAUACAAAAGUAUAUAUAUAUAUACACACACCCCAAAGAUACAAAAAAGUAUCGGGGUGUGUCAAAAGACACACCCCAAAGAUCAAAAGAUCAAGUAUCAACUAUCAGAUCAGACAGACAAAAGUCGUCGAUCAGGGGGUGUCAAAAGACACACCCCAUUACACACACCCCAAA'
p168
aF1.0
aa(lp169
S'multilooping fun'
p170
aS'GGUAAGCCUUAAUAAGGAAAAGGAGUAGAAACCUUU'
p171
aF0.8333333333333334
aa(lp172
S'Multiloop...'
p173
aS'GGACAGUCGAGUCAAACGCCUGACGAAAGUCAGGCAAAGUGCGUCCAAAAGUAAUAUUAAUGUAAGGCAAAAGUCGCCACAUUCACAAAAAGGUGAAGGUCAAUGGGGUUC'
p174
aF0.9459459459459459
aa(lp175
S'hard Y'
p176
aS'AAAAGCGUCUGACUGGUGUCGAAAGACACCAAGAAGGGAUGUGGCAAAGGUCGCAUUCCGAUGAAAAA'
p177
aF0.9705882352941176
aa(lp178
S'Mat - Elements & Sections'
p179
aS'AAAAUUAGGUCGAAGGGGCCAUAGUUCAAAAGAUCAGGGGACGAAAGUCACGUGAUCUACGAGCAAACAUCGCCACAAACUAAUGUAAAAAAAAAAAAAAAAAAA'
p180
aF0.9619047619047619
aa(lp181
S'Chicken feet'
p182
aS'AAAAAUGGUGUUGGAAGAUGUUUUGCACCGCUGGUAAAUUAUGCAACAACGAAAAAAAAUGGAAAAA'
p183
aF0.8208955223880597
aa(lp184
S'Bug 18'
p185
aS'UCGUGCGUGAUAGAGCCGUAAGAGAAACGAUUUCAAUAAAUGAAUCAAAACAU'
p186
aF0.9245283018867925
aa(lp187
S'Fractal star x5'
p188
aS'AAAAAUUGGUGUGAAUUUCAAAAGAAGGAGAUCAAAAGAUCAAGACCAAAGGGUCGAGAUGGAAAUAUCAAUACACCGGAAAAGGGAGUGUGAAGAUGAAAACAUCAAGUUCUAAUGGACAAUAUCAAAGGAUAAAGGUGAAAACACCAACACACUCCAAAAUGGAGGGAAAAUACUGAAAGGUAAAGGCGAAAUUGUCAAUAGCAAAUGUUAAUAAUCGAAAGAUUCGUUCCCUUUUAAAUGGAUGGCGAACACAAAAAUGUGAAGUUCAAAGGAGCGAUAUCUAAUGAUGGAGGCAAAAAUGCCGACGCCGUCCUAAAAGAAAUAUGGAGUACAAAGGUGCAAGCUUAAAAAAGCAAGAAUAAAAGUUCAAUUUCGAAAGAGAGAUAUAUUUCGAAAA'
p189
aF1.0
aa(lp190
S'Crop circle 2'
p191
aS'AAUAAGUAAAUUUGAAAAGAUAAAAAAAAAUUAAAAAAAAAAAAAAAAAAAAAAAAAAAAUACAAAAAAAAAAAAAAUCCGAAAAAAAAAGUAAAAAAGGCAAUUUAAAA'
p192
aF0.9454545454545454
aa(lp193
S'Branching Loop'
p194
aS'AGUUGAGAAAAAAAAGAUUAAAAAAUCACUAACGAAAAAA'
p195
aF0.95
aa(lp196
S'Bug 38'
p197
aS'AACUGUUCUUACCCUAAAGUGGGGGUAACGAAUGUA'
p198
aF0.9444444444444444
aa(lp199
S'Simple Single Bond'
p200
aS'AAAAAAGAAAAAAAAUGAGAGAAAAUCUUUAAAAAAAGCGAAAAAAAAAAAAAAAAAAAAA'
p201
aF1.0
aa(lp202
S'Taraxacum officinale'
p203
aS'UAUAUAAUGAGCGAGAGGGAAACACUCGAACCUAAUGAGUUAACAGAAAUCCCGAUAAAGAAAAUAUUUUGUUCGAAAGACGCAGGGGGGUUUGCGGGGUGGGUGCAAAGCACACCACCCUAGAGACAAAUGGGAUGGCAAGGGAUGCAAAGCAUCCCAGCCAUUUCAUGAUCAGGGUGCUAUGCAUCCGAUCGUUUCGAAGCAGGCCCCCCGGGGGGAAACACCCAUGGGGAAACACCAAUAGGAAAACCCGGAGAGGGAAACACUCAGUUGAAAACAGAC'
p204
aF0.9078014184397163
aa(lp205
S'Headless Bug on Windshield'
p206
aS'AUUAGCAAAAAUCUUCAAUCGUGAGAAAAAAAAAAAAAAAAAAAAAAAAACUCUUGUAAGAAGUGAAAGCAGCCCAAUAUAGAAGAAAAAAAACCAAAAGGAAAAAAAUCCUCAAAAAUUUAUGAGUCGAAAAAAGAGGAUUGGAGCGGCCAGAGAAAAAAAAAAAAAAACUCGAGUAAGUUAAGAACUCAAGGAAUUUA'
p207
aF0.96
aa(lp208
S'Pokeball'
p209
aS'AAAGAGUGUCAAAAAGAAGCGUGGCGAGAGUCCGAGGAGCGUUCCUAGUUAUACACUUUGAAUCGGGUAUCAGCCUGUGUCGGCACUCAAAAAAAACAUGUGCAAAAGAGAGGACUUCAUGCGACAAACGCGUAUUCAAAUCUAAGAAGGUCGGAUAAUUUGGCUCGGAUCAGCGCGUAUGGAA'
p210
aF0.8369565217391305
aa(lp211
S'Variation of a crop circle'
p212
aS'AAAAACGAAAUAAAAAGAAAAAGUAAACAUUUAAAGAAAGUAAAGGCAAAAAGUCAUAAAAGCAGAAAAAAACGUAAAAAAAAAAAAA'
p213
aF0.9318181818181818
aa(lp214
S'Loop next to a Multiloop'
p215
aS'AACGUGUGUGAAAAAAAUUGGAUGGAAAGCCAUCCGUGGAUACAAAAGUAUCUAUGAAAAAAACAUACACGAA'
p216
aF0.9726027397260274
aa(lp217
S'Snowflake 4'
p218
aS'GAUCAAAGAUCGUUGCGUAAAAGGGAGAAUAGAUGCGCAAAAGCGUUGGGAUCGAAGAUUAAGAUUUAUGAUUUUAACCCAAAAGAGCAUUGAGUUUGGCAAAGGCUGACCUUGCGAAGUAAAAGAUCGAAGAUCGGUCAUCAAAAGCUAAACAACAGACUUAAAAGAGUAUUUGUCGAAGAUAAAGAUUAAAAAUCAAUACGCGAAAGAGUUUGAGUAGGGACGAAACCGGUGCUAUCAAGGAUAAAGGGCUAUACCCGUGCCGCAAAAGUCCCUGAAUAUGUUCAAAGUGGAAACGAUAAAAGAUCAAGGAUUAUAUCCGUUUGGAGUAAUCAUAUAGUUUUUCGCAAAAGCGCAGUGCUCAAGGAGC'
p219
aF0.8864864864864865
aa(lp220
S'Mat - Cuboid'
p221
aS'GAACCAAAACACCUUAAAAUCAAGGAAAAUAGGGUACUAAAAGGAAAGGAUCAAAAGAGGAAACAAAGCAAAAUGAAAAAACUUAGCAAAAGUAAUGACAGGAGCGAGCAAAAUGGGGUCACCUUCCGCUAAAAACGUUGCAUUCUGCCAGAUUUCAAAAAAUAAUCAUCGAACGAUUGUUCUAAAAGGGAACUGCAUUCCUUUCUGUAAAAAAGUGUUGAAUGGUUUGAUGUGGUCAGUGCGUGGCGUAGUCGAGGAGGGUUAUAAGGAUGAUUGCUUCGUGUUGUUUGGGUAUUUGAGCAAGCAAUCAGCGAAGUGCUACGGAUUAUCGGCAGCGGGUAAGUGAGAUUGGCCAGAUCCAACGCAGGAACAAAGGGAAC'
p222
aF0.6894736842105263
aa(lp223
S'Misfolded Aptamer 6'
p224
aS'AAAAAACAGAAAAAAGCUGAAGGAGAUAUAAAAAAAGGUGAGAACGAAAAUAGCAAAAAAACUGAAAAAAAAAAA'
p225
aF1.0
aa(lp226
S'Snowflake 3'
p227
aS'UAGACAAAAGUAGACCGCGAAAGUAAAGAUGGGAUGAAGACAAAAGUGGAAAAUAAAAAUAUCAAAGAUAUAAAAGUAUUCGAGAAAAGUCAAUAUCAGAUGAAGGCAAAAGUCGAAGAAAAAAGUAUCAAAGAUACAAAAGUAUAGAUCAAAAGGUCAUAUAUGCUGAAGACAAAAAUCGCAGAGAAAACUACCAAAGGUAGAAAACUAUGCAAAAAAGGUCAAUAGCAAAUGAAGGCGAAAGCCAAUAACAAAAGUCUCAAAGAGACAAAAAUGGUCGAGAAAACUCAAUAUCAGAUGGAGCUAAAAGUCAAGUACAAAGGUAUCAAAGAUUCAAAAGGUCUUGAGAAAGGGCAAUAUCAUAUCGAAGCGAAAGCAGUCAACAAAAGUCUA'
p228
aF0.8040712468193384
aa(lp229
S'Hard Y and a bit more'
p230
aS'AAAAUAAGACGGACUUACUAACAUCGAUCUGACUCGGCUGAUUCUAAUGAAUAAGGUGCAAAAAGGCAUCAUGCAGGGUUUUCUUAGAAAAAAAAAAAAAAAAAAA'
p231
aF0.9716981132075472
aa(lp232
S'Mat - Lot 2-2 B'
p233
aS'UAAGGCAUGGACGACCAAAAGGUUUCGUAAAAGUAAAAGAUUCUGGGAGUAAAACUUAGCUCUAGCAAACGAGGCACCUCAAAAGUUACGACGGUCAAAAUAGAAAUAAGAAGUAAAACUGUGCGGUACCUGCCCGAAGCAAAAGAGCAACCUGUACCAAGAAUAACUAGAAAACGAAAAAGUAGUGGGCCGAACACUGAGCCGUUCAAACUUAGGCACUUCAAAAGCUUCUACUUCAAAAAAUUAAUGUGGUAGUAAAAUGGUGUGCUGUAGCAAGAAAUAGG'
p234
aF0.6901408450704225
aa(lp235
S'Shapes and Energy'
p236
aS'AAAAAGGUGUGCGGAUCAAUACCAUUUCAAGGAAACGUGGAUAGCGGCCAAGACAGCACGUAGAGAGCUAAUGAGUGCGCAAAAAAAAAAAAAAAAAAAAA'
p237
aF0.9603960396039604
aa(lp238
S"Spiral of 5's"
p239
aS'GAAAAGAUAUAAAGAUAGAAAGAUAGAAAGGAUACAAAGUUAGAAUGAUAGAAGAUACAAAAGAUACAAAGAUAGAAAGAUAGAAGAUACAAAGAUAGAAAGAUAGAAGAUACAAAGAUAGAAGAUACAAGAUACAAGAUAUGAGAUACAGCUACAGGGGGGUGUCAAAAAGACACGGGGGCCCCCAAAAAGUGGCAAAAAGUAUCAAAAAGUAUCAAAAAGUAUCAAAAAGUAUCAAAAACUGUCAAAAAGUAUCAAAAACUAUCAAAAACUAUCAAAAAGUAUCGAAAACUAUCAAAAACUAUCAAAAAGUAUCAAAAAGUAUCAAAAGCUAUCUAAAACUAACAAAAAGUAUCAAAAACUAUCAAAAACUAUCAAAAAGUAUCAAAAAUAAAAA'
p240
aF0.9949622166246851
aa(lp241
S'Campfire'
p242
aS'AAAAAUUUGGCUAUCAAGAGGAAAAUCAAAAGUAUCAGGGUCUAUCAAAGACCCUCAAGGUGAAGAGGAGAAACUAAUGUAUUUCCUCGAGACGCCAGCACAGAAAUGGCGGGAGGAGACAAAGGUACCAUUCAAGCACUUCAUAUCCCAGAUCCUAUCGACACAUUGUAAAGGCGAGUGCGGAAGGAGUAAAGGAUAUCACUUGGCGCAGU'
p243
aF0.8254716981132075
aa(lp244
S'Anemone'
p245
aS'AAAGUAUGCGAAAGUAUACCUGAUAAAGGUCAGCUGUGCAAAAGCACAGGUUGCUAAUGCAGCGGGUGCGAAAGCAUCCGGUACUAAUGUACCCCGAAGAAAUUCGGGAAUGCGAAAGCAUUCAGCUCGAAAGCGAGCCCUUGCAAAUGUAAGGUCUUCAAAAGGAGACAAUCCAAAGGGAUUGGGUACGAAAGUAUCGGAGGCGAAAGCUUCC'
p246
aF1.0
aa(lp247
S'Fractal 3'
p248
aS'AAAAUCGUGACAGAGAAAAACAGGGAAAUCAUUAAGACGGCAAAAGGCUGAAAGGAGGCGGCCAGUAAAAACUCGAAAGGAGGGGAUCUCAGAAAAGGAAAAACUUCGAAUAUGUAAAA'
p249
aF0.9243697478991597
aa(lp250
S'Kyurem 5'
p251
aS'AAAAAUGCGCUCCGCAAAAGUGCACAAAAAGAGGAUAAAAGUCUAAAUGACUAUCGUAAAAAAGUUCGCUCCGUGAAAACCCCGGAAAAAAAAAAAAAAAAAAA'
p252
aF0.9230769230769231
aa(lp253
S'Snowflake Necklace ( or v2.0 )'
p254
aS'GGUGUGUGGGUGUGCAGUUGCAGCAAAAAGCGCAAAAAAUGAGCAAAAAGCGACAAAAAGUAAGAAAAAUUAGCAGCAGGCGAAAAGCCAGAUACAGCAAAAAGCAACGAAAAGAGACAAAAAGUAACAAAAAGUAAUAAAAAAUAGUAUCAUACAAAAAGUCGUAAACAUUAAAAAGAAACAAAAAGUAACAAAAAGUAGGAAAAACCAGCAAAAGGCAGCUUAAGAUAAAAAAUCAUAUAAUGCAAAAAGAUACAAAAAAUUACAAAAAGUAACAAAAAGUAACAAAAAGUAUUAUAAGAGAAAAAGUUACAUACAGCAAAAAGUAACAAAAAGUAUCAAAAAGUAACAAAAAGUAUCUAAAUGGAGUAUGAGCACACCCACACACC'
p255
aF0.8663239074550129
aa(lp256
S'Methaqualone C16H14N2O Structural Representation'
p257
aS'AAAAAAAGCUGAGAUGAUAGAGGCAAAAGUCAGAGAGACAAAAGUCAGCAAGACAAAAGUCAGAGGGAGAAAAUUCAGACGAAAAAAGUCACACAUGCAUCCCCUAAGUAUCAGAUCAGAUGGAGGCAGACAAAUCAAAGCAAAAAAAAGUCAGAGCGACGAAAGUUUAGGAAAUUAAUCAAAAGUACUCAGCAAAGAUAACAAACAUUUAGAGAGACAAUGAGACAAAAAACAAAAGUUAGUCAGAGAAAACUCACAUGGAGUAAUUUCGGUCGGGGCAAAUCCACUAAGAGGACAAAAGUAUGGAAAGCCAAAUCAAAAGGUCUCGAAGGGAUCAAACAUCGCAGCAAAAAAA'
p258
aF0.9211267605633803
aa(lp259
S"Cat's Toy 2"
p260
aS'AAAAUGGAUAUGUAAAGUCGUAAAAAAAAAAAAAAAAAAUAAUAGAAAGAAAAGUCGAUGUGAAAACUAAAAAAAUCUUAAAUACCAUAUUCAAAAA'
p261
aF0.9587628865979382
aa(lp262
S'Zigzag Semicircle'
p263
aS'AAAUGGGCGCAACUAAAAAUAUAAAUGUUCUAAA'
p264
aF0.9411764705882353
aa(lp265
S'Short String 4'
p266
aS'AAAAAUGUAGUACUCACUAAGGAGCACAGAAAUGUCGUUAAUCAUCGGCUGAAAGGAAAAAGGUAACUACUGGUACUAAAAAAAAAAAAAAAAAAAA'
p267
aF0.9381443298969072
aa(lp268
S'Gladius'
p269
aS'GGAAACAAAGGAAAGAAGAAAAGAGGGAAGACGCACGAAGAUCAAAAGAUCAGAGACAAGAUACAACUGAUAUAAAUAUCAAGGUCGGCGGGAGGAAGGAGUUGGUGUUGAGCAGUAGAUCAAAGGUCCCAGGUUAGCCACAGCGACUUCCUACCGCCGAAACAGAUGAACUUAUUUGGGGUAAGCAGUCUCAGUGAAAGGCAGAGAUGGAAGACAGCAAUCGGGGAGUUAGGUUGGGAUUCAAGAUGCAGAUUCAAGAUGGAGACAGGAUUCGAAAGGAUCCGAGUCCAUAUCAUGGAUACGCAUCAUGGAUCUCUCAAUAAAAUCAGGAUAUAGGUCAUAGCGUUCAAACUAAAAAAUGAAAGUCAGUCGAACAACAUAACAAAUGGGAAGAUAAAAG'
p270
aF0.8975
aa(lp271
S'Thunderbolt'
p272
aS'GGAAGGAACUAAAAAAUAAGGUAGCAUAGGGGGGAAACAGUUGUCUGGAAAAAAACGAAAAAAAGAUCAAAAAGAUCAAAAAAACAAGGGGUCAAAAAAAAAUUCAUGAAAGAAUAGGUCGCGAAAAAGAAAACAGUAUAAAAACGCGAAAGGUUCCAGAAACAGGUUCAAAAAGUGAGAUGUAAGAAAAAAGGGUGACGAUACCGUUAAACAAAAACUAUCCUCAAGAAAAAAAGCAGGGGGGACGCGAAGCGUCCACGAAGCGAAAAAAAAAAUGUAGCAAAAAAAAAGUUAUUAAGGUGAUUCAAAAAGUAAAAAAUCAAAAAGGAACCAAUUUCAAAGACAUGACAAAAAAAAGAGCGUCCGUUAAAAAAAAAAAACUGCUUCAACCA'
p273
aF0.9030612244897959
aa(lp274
S'Mutated chicken feet'
p275
aS'GAAAAAACCAUCUCUUAUGGUUGAAGCCUAAGGGGAACCGCGGCAAAUCGCAGAAUCAAAUUGAAGUAGUCGUCAUGCAGCAAAGCAAUAAACGAAAAAA'
p276
aF0.87
aa(lp277
S'Chicken Tracks'
p278
aS'AAAAAAAUCGGAUACCAGCUAAUGCUGAAUCUCAAAAGAGGAAGACCAAAAGGUCGUAUCCGUACUGGGUGAAACACCACGAUCUAUGAUCAUCCGCAAAGCGGCAGGAAAAAAAA'
p279
aF1.0
aa(lp280
S'Looking Back Again'
p281
aS'GAGAAGACACACUAAAAGGAUGCAAAGCAUCCUGUGUAAUACUACAAAUCAAGGAAUAAAGAGACAAAGAUCGAAAGAUCAAAAGUCUCGAGUAGAGUCGAGAUGGAUAAAAGGAUAUGAAAGUAUCAAAAAAGGCAAUACGAUACAAAGUAUCGUCGAAAAGUGGCGGAGUCUCGUAAUUAAGGUUAGAUUCAUUAAAAGGUGUUUAACUAUUGUAGAGACAAAAGGCAAGACUCCAAAGUCUUCAUCAAAUACAGAUGAACAAAGGCGUGUAAAAAAAAGUUCAAAAAGAGCCCAUAAAGCCACAUCGAAGAAAAAAGGGGAUGCAAAAGCAUCCAAGAGGUAAAAAAAUUGCAAAGAGGUAACUCGCAAAACUUCGUAUUGAACUC'
p282
aF0.897172236503856
aa(lp283
S'Multilooping 6'
p284
aS'AAUGGACACAGUCGCAAAGGUGGCAAGUAAAAGUACUUAUUCAAUUUAUAAAAAAAGACAGACUAAUAUCUACCCGUCCAGA'
p285
aF0.926829268292683
aa(lp286
S'Cesspool'
p287
aS'GGAGAAGAAAACAAGAAUUGGGAGGCAAAGUCAACAAUUUGUCAAAUUUACAAGUUUAUUCUAAAAGUUGACAGCGAAAUCAAUAAUAAGACUAAGAAUGCAACACUUUAGGGACGAAGUCAACAAGUUGUCAAUUCUAAAAGUUCACUUUAAAGGUAGACAGUCUAAUCAAAUGUAACCUGUAAGAAAACAAUACUUUCCACCAAAACGGAAGAAGAUGAGGAGUUGAAAACUUUAGGUUUAAUGUAAAUAGUAAAAACAAAAAGGGAGCUAUACGAAAAAAAGACGUUGGGGAGAAAUUUACCAAAUAGUUAUAUUUAAAAGUUUUGUUGACAAUUUCGCAGAGAAAACAACGUGC'
p288
aF0.6089385474860335
aa(lp289
S'Hoglafractal'
p290
aS'AAGAGGAAGAUUCAAAAGAUACAAAAAAGUAUCGAAUCUAACAAAGCUGUAAAUGAGCGAUGGACAAUACAAAAGUAGUCAGAGAAAGAUCAAAGGUCUAAAAUGACCGAUCGGGAAGACAAAAAGACAUUGCAUCGAAAGCCCGUAUGAAAAGACAAGACAAAAAAGUCGUAGCAUCAAAAAGAGCAGCUAAUGCCAGAUACAAAAAGGUUCAAAAAAGACCGACUAAAUGUCUCAAAAGAAGGAGUCAAAAAAGACAAAAGAGUCAAGAAAAUUAACGGGAUGCAAAGCAUCCCAAAAAAAGGCUCCAAAAAAGUAUCAAAAACAUAAAAACUUAAACUAACGAAAAGUAGAAGGAAUCCAAAAUCUCAAAAGAAUAUACAAAGUGAAUACUUCGCAU'
p291
aF0.9125
aa(lp292
S'Bullseye'
p293
aS'AAAGGGUCUGAAAGAGAAAGGUCUAUCGCCAACCUCAAAAAGGCCCAAAAAAAAAACGAUCAAGAAUCAAUCUGAAAUAGGGACAUCAAAGAUGGUUAAAAAAAAAAGGAUCAAAGAUCAAGAUCAAAGAUCAAGAUGGAAUAUCCUUAAAAAAAAGAUGCUCAAAGAUCAAGAUCAAAGAUCAAGAUCGAAGAUCAUCAAA'
p294
aF0.8415841584158416
aa(lp295
S'Shooting Star'
p296
aS'GUCGGCGGUGGGGAUGGUAGAACUACGAGAGAGACAGGAAAACACGGGUUUCACAGCUGCAUCCAUCCCAGAUUAGUGAGAAAGUGACAGAUGCAGAUACUUCAGGUAAUCAUGAGAGAUCGACAUAUGUCUCAGCGUCUUAGAAGGCCGGCGAUUUAGAUACAAAGUAUCACAUACAAAGUAUGUAAGAAAUAGAUGACACACCAGAUGAGAAGAAAGUGGUACUAUGCAUCAUAGAUGCUAUGCAUCCCUCGGGUUUUAAAGAAACUCAGAUACAAAGUAUCCAUUGAAAAAUAAAAAAUUUUUACUUAGUGGAAAAUAAGGUAAAAACAAUACGCCUCGAAGUUUGUUUCUACAGCUGACA'
p297
aF0.8296703296703297
aa(lp298
S'Teslagon'
p299
aS'AAAAAGAGGAAAAAAGAAGGAAAAAAACCAGGUAAAAAAAAAAAAAUCCAGACAGUACGGUAAAAAAAAAAAAAUCCAGCGAAAAAAACGGUAAAAAAAGGAAAAAAAAAAAAAAAUCAAAAAAAACAGGAAAAAAAUCCAGAAAAAAAAAAAAAAACUAUACAGUAUUCAAAAAAAAAAAAAAAGCCGGGAAAAAACCAGGAAAAAAAGUAAAAAAAAAAAAAAAGCGAAAAAAUCAGGAAAAAAACGUCGGAAAAAAAAAAAAAACUAUAUAGCACGUGAAAAAAAAAAAAAAGUUUAGAAAAAACCAAGAAAAAAAGAUAAAAAAAAAAAUCAAAAAAAAAAAAAAAGCUCCAAAAAAACUUUCAAAAAAACCAAAAAA'
p300
aF0.8900523560209425
aa.