(lp0
(lp1
S'Simple Hairpin'
p2
aS'GAUAGAAAAAACUAUC'
p3
aF1.0
aa(lp4
S'Arabidopsis Thaliana 6 RNA - Difficulty Level 0'
p5
aS'GCGAUGCAAAAGACAAAAAAAAAAAGUCGCGCGGUCAGGCGCUGUGAUAUAAAUAUCGAAGAUAUAAAAAAAUAUCGGAUAUUCUAUAUCACAGCGCAAGACUGCGCAAGCAUCGC'
p6
aF1.0
aa(lp7
S'Prion Pseudoknot - Difficulty Level 0'
p8
aS'GAUAUCAGAUCAAAAGAUCGAUAAUCAAAAAAAAAA'
p9
aF1.0
aa(lp10
S'Human Integrated Adenovirus - Difficulty Level 0'
p11
aS'GUGCAUUGAUGGUCGUCAUAUUAAAAAAAAAUGGCCUUUCUGGAAAAAACUGAUGAUAUAACGAUAUGUGCUACAAAAAAAGGUAGUACAUAAAAAUUCAUUAUACCAUUGUCCACAAGGAAAAAAGCAUAGGAAAAAAUUAUGCGGCUUAAAAAAAAAAUGUAUGAAGACUAAAAAUCAAUAACGCACAAA'
p12
aF0.96875
aa(lp13
S'The Gammaretrovirus Signal - Difficulty Level 0'
p14
aS'CAGAGAAGAAUAGAAAACUAUUCGACGCAAAAAAGAUCAAGACAGAUCCAUGGAAAACCAUGAAAAGAUCGUCGAUCAAGCGCUGUCAAAAGACAGCGCAA'
p15
aF1.0
aa(lp16
S'Saccharomyces Cerevisiae - Difficulty Level 0'
p17
aS'GCGGUGCCAUCUAAAAAAUGAUGCUGACCCCCCACCCCCCCUGGAAAAAAUGGAAAAAACAAUCGCACCGCAAAUGUGUCACAAGAUCGAAAAAAAGAUCCGCUAAAAAAAAAAAUGCGAAAAGACAGAAAAAAACUGUCGUGACAUUAAUGGGCUGCAAGCUCUAAAAAAUGAGCCGAUGCAAAAAAAGCAUCGAAAAGGUAGAAAAAAACUAUCGCAGCCCUAAUAUAACGCAAGAUCAAAAAAAGGAUCCUCUGCUAAAAAUGCAGGGAAAAGAUACAAAAAAAGUAUCGCGUUGUUAAAGCGAUGCACGACCUAAAAAAUGGUCCAAUGCGAAAAAAGCAUUGAAAAUAGUCGAAAAAAGAUUGGCGUCGCAAAA'
p18
aF0.9894459102902374
aa(lp19
S'Fractal 2'
p20
aS'AAAAAGCGCUGUCGAAGCGCUGUUAGGACAUCAAAAAAAAAAGAUGAAGGUCUAAAAAAAAUGACCGAUCUGAAAAAAAAAACAGGAACUGACAGCGCGAAGGGCUGUGAGAAGCUCAAAAAAAAAAGGGCAAGCUCGAAAAAAAAAGAGCAAGGUAAAAAAAAAAAUACCAACUCACAGCUUGAUGCGCUGUGAAAAGAAUAAAAAAAAAAGUUCGAGAUCAAAAAAAAAAGAUCAUGACCAAAAAAAAAAGGUCUAUUCACAGCGCUAAGACAGCGCAAAAA'
p21
aF1.0
aa(lp22
S'G-C Placement'
p23
aS'GAUCAAAGAUCA'
p24
aF1.0
aa(lp25
S'The Sun'
p26
aS'GAAAGCAAGACAAAGCUUAAUGCUUCAAACACACCGAUCCAAGGCGAAAGGAGUAAAACGCAGCGGUGCAAGACACAACGCGCGGAAGACAUCGUUGCAAGGUAUAACGAGUGAAUCUCAUCGGAGCAAGUCUUAACGGCGGUAAAAGAGCGAUACGAAGCAUAACGAGUUGAACCCAGCUAGUCAAAGACUAAAGCGGGGAAUUCAUCGUUGCAAAGCAAAACGAGGAAAACACAGCGGUGAUAUGCACAACACGUG'
p27
aF0.8372093023255814
aa(lp28
S'Frog Foot'
p29
aS'AAAAAAAAAAGCUGGAAAUAGCCAAAGAAAUUUGUCGGGAACCGA'
p30
aF1.0
aa(lp31
S'InfoRNA test 16'
p32
aS'GCAUAGAGAUGAUACAAAAGUAUCUAUACACUAUGC'
p33
aF1.0
aa(lp34
S'Mat - Martian 2'
p35
aS'GAUGAAAACAUCAAAGCGAUGCAAGCGAUGCAAAAAAAGCAUCGCGCAUCGCAAAGCAUAUACAAAAAAGCGAUGCAGCGAUGCAAAAAAGGCAUCGCGCAUCGCAAACCGCUGUGAUAUACAAAAAAAGUAUAUCAACAGCGGAAAAAAGUGUAUGCGAAGCAUAUAUAUAUUCAAAAAAAGGAUAUAAAUAUAUGCAAAGAGGUAAUCCUC'
p36
aF1.0
aa(lp37
S'square'
p38
aS'GCGCUGCCGCAUCCGCAUAGCGAUGCAAAGCAUCGAAAACUAUGCGAAAAGAUGCGAAAAGCAGCGC'
p39
aF1.0
aa(lp40
S'Six legd turtle 2'
p41
aS'AAAAAGGUAAAGAAAACUAAGCAAAAAUGAAAAGGAAAUCAAAGUAAAUAGAAAUUAAAGGAAAAGGAAAAGUAAUUCAAAAAAAAAAAAAAAAAAAA'
p42
aF0.9387755102040817
aa(lp43
S'Small and Easy 6'
p44
aS'GCCCCUAAAUGGAAGCUAAAAAAAUGCGGC'
p45
aF1.0
aa(lp46
S'Fractile'
p47
aS'AAAAAAAAAAAACCAAAAGGAAAGCAAAGCAAAAGCAAGGAAUGCGAAAGCUAACCAAGCGAAAGCAAAGCAAGCAAAAGCAAAAAAAAAAAAAAAAAAAAAAAA'
p48
aF1.0
aa(lp49
S'Six legd Turtle'
p50
aS'AAAAAGGUAAAGUUAAUGCAAAGCGAAAAUGAAAAGCAAAGUCGAACCUAAAAGAUAAUUAGAAAUAUAAGAGAAAAUGAAAUCGAAAAAAAAAAAAAAAAAAAA'
p51
aF0.9619047619047619
aa(lp52
S'snoRNA SNORD64'
p53
aS'GCAUAGAAAAAGACAAAAGACAAAGAUAGAAAAAAAAAAAAACUAUCAAAAGUCAAGUCAACUAUGC'
p54
aF1.0
aa(lp55
S'Chalk Outline'
p56
aS'AAAAGCAUCGGACACAAAAGUAGUCAGACAGACAAAAGUCGUCAGCAUAGAAAACUAAUGCAGCUCCGAAAGGAUGCGAUGAAAGAAAAAAAAAAAAAAAAAAA'
p57
aF1.0
aa(lp58
S'InfoRNA bulge test 9'
p59
aS'GCGAUGCAGAGUGAGCGAUGCGAAAGCAUCGCCCCGCAUCGC'
p60
aF1.0
aa(lp61
S'Tilted Russian Cross'
p62
aS'AAAAAGAGUGUUCGAAAGAAUUAGCAGGUCAAAAGACCGACACUAAUGUGUCAGACCAAAGGGUCGCUGUAUCGAAAGAUAGCUCGAAAAAAAAAAAAAAAAAAA'
p63
aF1.0
aa(lp64
S'This is ACTUALLY Small And Easy 6'
p65
aS'AAAAAAAAAAAAAAAAAAAAAAAAAAAAAAAAAAAAAAAAAAAAAAAAAAAAAAAAAAAAAAAAAAAAAAAAAAAAAAAAAAAAAAAAAAAAAAAAAAAAAAAAAAAAAAAAAAAAAAAAAAAAAAAAAAAAAAAAAAAAAAAAAAAAAAAAAAAAAAAAAAAAAAAAAAAAAAAAAAAAAAAAAAAAAAAAAAAAAAAAAAAAAAAAAAAAAAAAAAAAAAAAAAAAAAAAAAAAAAAAAAAAAAAAAAAAAAAAAAAAAAAAAAAAAAAAAAAAAAAAAAAAAAAAAAAAAAAAAAAAAAAAAAAAAAAAAAAAAAAAAAAAAAAAAAAAAAAAAAAAAAAAAAAAAAAAAAAAAAAAAAAAAAAAAAAAAAAAAAAAAAAAAAAAAAAAAAAAAAAA'
p66
aF1.0
aa(lp67
S'Shortie 4'
p68
aS'GCUAAUGCAGCGAAAGC'
p69
aF1.0
aa(lp70
S'Shape Test'
p71
aS'AAAAACUGAUCUAGAUAGAAAAAAAACUAUCAAGACAGACGGAUACAAAAAGUAUCAGAUAAAAAUAUCAGUCGUCAUGAUUUGAAAAAAAAAAAAAAAAAAAA'
p72
aF1.0
aa(lp73
S'The Minitsry'
p74
aS'CCAGAUGGCGGGAAAACAAAGAAUUGGUAAAUCGAAAAAAAAGUCGUCCGUUUGAUGGAUGG'
p75
aF0.9354838709677419
aa(lp76
S'stickshift'
p77
aS'AAGCGAUCCCAAAAAGGAGAUCGCAA'
p78
aF1.0
aa(lp79
S'U'
p80
aS'AAAAAGAUACAGAGAGCAGAGCGCUGUGCAAAAGCACAGCGCCGCCCGUAUCAAAAA'
p81
aF1.0
aa(lp82
S'Still Life (Sunflower In A Vase)'
p83
aS'AAGGAUCAAGAUAGAAAAACUGUCAACAUGAGUAGUAUAAACGCAGAAAAAUUUUGGUCAUCCAAGGGGGGUAAUUUGUAAAACUAGAAAUCACGAAAAACAUUGGGAGAUGUGGUUUAUGUUUACAUCGUCAGUAAAAUCUGACAGAGAGAAAAAAAAAAAAAGUUCAAAAAAAAAAAAAAAAAAAAAAAAAAAAAAAAAAAAAAAAAGAACGAAAAAAAAAAAACUCUCGAUAGAAAGUUAUCAGAUGUAGAUAUAGAUCACAUCUCAUGAUACUAAAUGUAUCUACAUAGAAAAGCAACGAGAAUACUAAAUCUAUCAUUAUGGAAAAGCCAUAAAUAUCGUAAUUGAUAAACAGAUAAAAAAGAUGGGAUCAAA'
p84
aF0.9391534391534392
aa(lp85
S'Quasispecies 2-2 Loop Challenge'
p86
aS'AAAAGGACGGAUCAUGAUCAAAGGAUCAGGAUCACUACAAGAAAUAACGUGAGCUCAGGGAAUUAAAAAGGUCACAAGAGUGAUCAAAAAAAAAAAAAAAAAAAA'
p87
aF0.9809523809523809
aa(lp88
S'Corner bulge training'
p89
aS'AGCAUAGGAUACAAAGUAUCAAAACUAUGCA'
p90
aF1.0
aa(lp91
S'Spiral'
p92
aS'AAAAAGAUCAGCAUAGAGACAGAUACAGAUCAGAUCAGCAGCAGCAGCAGCAGCAAAAAGCGCGCGCGCGCGAUCGAUCGUAUCGUCCUAUGCGAUCAAAAA'
p93
aF1.0
aa(lp94
S'InfoRNA bulge test'
p95
aS'AAAAAAAAAAAAAAAAAAAAAAAAAAAAAGGGCAAAAAAGCACAAAACUUCAAAGAUCAAGACCAGAGCAAAAAGCAUCAGGAUCAAGACUCAAGGACAGAAAAAGUAGCGAAAAGGUACCA'
p96
aF1.0
aa(lp97
S'Worm 1'
p98
aS'AAAAAAAUUGAUUCAGAGUAAGCCUAAAGACAGACAGCUUAGCUA'
p99
aF0.9555555555555556
aa(lp100
S'just down to 1 bulge'
p101
aS'AAAAAGACCAGAUACAAAAGUAUCAGACAAAAGUCAGGAUCAAAAAAUCAGACAAAAGUCAGACAAAAGUCAGAUUAAAAAAAAAAAAAAAAAAAA'
p102
aF1.0
aa(lp103
S'Iron Cross'
p104
aS'GGAGAUACAAAGCCCCACAAACAGUGUUAAAGGUGUAGCAAAGGUACAUGAAAAUGAGCCUAUGGAAACCAAAGCCACAUAAAAAUGAUGCGAUGCAAGGCAAAGAGGCUAAAGGAGAUUAAA'
p105
aF0.9512195121951219
aa(lp106
S'loops and stems'
p107
aS'AAAAUGCGAUGCAAAGAUCAAAGGUCAAAGGUCAAAAAAAAAGAUAGGAAAAAAAAAAACUAUCAAAGACCAAAAGAUCAAAAAAAAAAGAUCAAAGACCAAAGACAAAAAAAAGUCAAAGAUCAAGCAAAAAAGCAAGGCAUCGCUAAAA'
p108
aF1.0
aa(lp109
S'Water Strider'
p110
aS'AAAAAACUGAGCGAAGAAGAUAAAAGUCCACUAAUGUGUCCAAAAUGAUAUGGAAAUAGAAUAAAAAUCAAACAUAAACUGUGAAAAAAAAAAAAAAAAAAAA'
p111
aF0.941747572815534
aa(lp112
S'The Turtle(s) Move(s)'
p113
aS'AAAGUAAAAACAGAUUCGCUGUGCAAAAAAAAAGCACAGCGAUAAAGAUCAAAAAGAUCAAAAACACAAAAGUGAAACAUAGAAAAAAACUAUGAAAAGACUACCCAAAAGCAAAAAUAGAAAACGAAAAAGCAUAGAAAAAAACUGUGCAAAACGCAAAGGCGAAAAACGAUGCUAAAGACAAAAAAGGUCGAUACGAAAAAAAGUAAAACAUAGAAAAAACUAUGAAACAUCUAAAUGAUGAUGCAUCGAAAAAAAAAGUAAAAGCAAAAACCAAAAAGAAAAAACAGAGAAAAAAAAAACUCUGAAAAAAGUU'
p114
aF0.9873417721518988
aa(lp115
S'Adenine'
p116
aS'GAUACAGCAUAGAGCAUAGAGCAUAGAGCAUAGAGCAUAGAAAAGCAUAGAAAAAACUAUGCACUAUGCAGAUACAAAGCGAUGCAAAGCAUCGCGUAUCACUAUGCAGCGCUGUGAUACAAAGUAUCACAAAAGCGCACUAUGCAAAACUAUGCAAAACUAUGCAAAAGUAUC'
p117
aF1.0
aa(lp118
S'Tripod5'
p119
aS'AACUACCUCAAAAAGUGAGUCUGAAAAGCGGAGUGGGA'
p120
aF1.0
aa(lp121
S'Shortie 6'
p122
aS'GCAAAAGCAGCAAAAGCAACGAAAGUAACGAAAGU'
p123
aF1.0
aa(lp124
S'Runner'
p125
aS'AAAAAGAUCAGUUCAAAAAGAGCAAAGCUCAGAGCGAAGACAAGACAGCAAAGCUAAAGUCGAGACCAAAGGUAAACUCAGUCAAAGGCAAAGACAAAAGUCAGCCAGAUCAAAAA'
p126
aF1.0
aa(lp127
S'Recoil'
p128
aS'AAAAAGAUAGAAGCAAGCAAGACAAGACAAGCAAGCAAAGCAGCAGUCAGUCAGCAGCACUAUCAAAAAAAAAAAAAAAAAAAAA'
p129
aF1.0
aa(lp130
S'[CloudBeta] An Arm and a Leg 1.0'
p131
aS'AAAAAGACAGCUACUAAUGUAAGCGUCAGCAAAAGCGACAGUCGAAAAAGAAAAAAAAAAAAA'
p132
aF1.0
aa(lp133
S'[CloudBeta] 5 Adjacent Stack Multi-Branch Loop'
p134
aS'GCUAGUACCUAAUGGUAUAAUGGAAACAUUAGAUACGAAAGUGUUGUACAAAUGUGCCUGGCA'
p135
aF1.0
aa(lp136
S'Triple Y'
p137
aS'AAAAAGAUAGUUAGAUCUAAUCAUCGAUGAAAGAAUCUAAUGUUAGUUCGAAAGGACCAUCAAAGGAUGGAUGUAUGGAAAAAAAAAAAAAAAAAAA'
p138
aF0.9175257731958762
aa(lp139
S'Misfolded Aptamer'
p140
aS'CAUCUAAAAUGCGACAAAGUCAGCGAAAGCAAAAAAAAAGCUAAAUGAUG'
p141
aF1.0
aa(lp142
S'Flower power'
p143
aS'AAAAAAUGACAAGCCACUUGUGAUAGAUGAAAUGUUAAGAUUAAAAAUCAAGGUCUAAGACCGUGCUGUUGAACCAGCAAACGAAAAAAAAAAAAAAAAAAA'
p144
aF0.9117647058823529
aa(lp145
S'Kudzu'
p146
aS'AAAAGGGCGGUCAUAGAGUAAACGAGCAAAGCCGAUUAUUAACUGAAGCCAAUUAAAGAGAAAUUCAAAUCAUUUUGAGCCAAAAAAAAAAAAAAAAAAAA'
p147
aF0.9801980198019802
aa(lp148
S'"1,2,3and4bulges"'
p149
aS'AAAAAAGCAAGACCGAAAAGGAAAGGUAGGAAAAAAUUGACCACGAAAAUUAAAGUAAAAGUAAACAAGGAGAAAUCUAUAAAAGAAAAAAAAAAAAAAAAAAAA'
p150
aF0.9428571428571428
aa(lp151
S'medallion'
p152
aS'GCAUAGAGGGUGCAAAAGCACCCGGAUGAAAAUCACACAAAAGUGACACUCCAAAAGGAGUGGCUCAAAACGGACGAUGUAAAAGGAACGGGACAAAAGUCAUCGGAAACGAAGGAGUCAAAAGAUUCCACUCAAAAGAGACGAUGCAAAGGCAUCGGCACUAAUGUGACACAAAAGAGGGGAUCCAAAAGGAUCCAAGCAAAAGCUACGCUAUGAAAACAUCGACAUGAAAAUGACGCGAAAGCGAGGAUGCAAAGGCAUCCACAGGAAACUGAAGAGGUAAAAGCCUCUGCACGAAAGUGGCACAAAAGAGACGAGGCAAAAGCUUCGGCUAUGC'
p153
aF0.9287833827893175
aa(lp154
S'[RNA] Repetitious Sequences 8/10'
p155
aS'AGCAAAAAAGCAAAAAAGCAAAAAAGCAAAAAAGCAAAAAAGCAAAAAAGCAAAAAAGCAAAAAAGCAAAAAAGCAAAAA'
p156
aF1.0
aa(lp157
S'Documenting repetitious behavior'
p158
aS'AAAAAAAGAAAAAAAAAAGCAAAAAAAAUGCAAAAAAAAAGUAAAAAAAAAGCAAAAAAAAAGCAAAAAAAAAGCAAAAAAAAAGUAAAAAAAAGGCAAAAAAAAAUCAAAAAAAAAGCAAAAAAAAAGCAAAAAAAAAUGAAAAAAAAAGUAAAAAAAAAGCAAAAAAAAACUAAAAAAAAAGAAAAAAAAAAGUAAAAAAAAAGCAAAAAAAAAGCAAAAAAAAAGGAAAAAAAAAGCAAAAAAAAAGCAAAAAAAAAUAAAAAAAAAAACAAAAAAAAAGCAAAAAAAAAGAAAAAAAAACGUAAAAAAAAAACAAAAAAAAAGCAAAAAAAAAGCGAAAAAAAAGCAAAAAAAAAACGAAAAAAAAGCUAAAAAAAAGUAAAAAAAAAUCAAAAAA'
p159
aF0.945
aa(lp160
S'7 multiloop'
p161
aS'CGCCGAUACGAAAGUAUCCCGCCGAAAGGCGGCUCGGGAAACUGGGGAGUCUAAUGGCUCCUUGUGAAAACAAGGCGACAAAGGUUGCGGCG'
p162
aF1.0
aa(lp163
S'Kyurem 7'
p164
aS'AAAAUGCUAUGGGGUUAAUGCUAUGAAAAGACCGGCUAAAAUUACAUCGGAGGAAAAACUCAAAUAACAUCCCCCCACUGGCUAAAAAAAAAAAAAAAAAAA'
p165
aF0.9803921568627451
aa(lp166
S'JF1'
p167
aS'GCGCGAGCUAUGCAUAGGAGAUAUAAAAGCAUUGAAGAUAGCAUGAUAGCUGCAUAGUUCGUUGUAAUAUACAAAAGUAUAUUACAGCGGCAGACAAAAGUCACCCGAUGGCAAAGGCCAUCGGGAACAUAGAAAACUGUGCCUAUGCUCUAUCCCUAUCGCAAUGCGAUGCGCUGUCUAAAUGACAAGCGCUAGCACUGUGAUAUACAUAAACAUAAUAAUUUAUGUUUAUGUAUAAUCACAGUGCAAAGAUAGAAAAAACUAUCCGCGAUGUACAAAAGUACAUCGCGAAACAUCGAAAGAUGAAAUAUCAACUAUGAGAUCAGACAGACAAAAGUCGUCGAUCAGCGCUGUGAAAAAUCACGUGCGCAAUAGACUUAGCGCAAA'
p168
aF1.0
aa(lp169
S'multilooping fun'
p170
aS'UAAAACCUAGAAAGAGCUAUCGGAGUGAUUGCUGGA'
p171
aF0.7777777777777778
aa(lp172
S'Multiloop...'
p173
aS'GGUCAGUCCAGGUAAAAGCCAGACAAAAGUCACACAAAGGUGGUAGGAAACUAAGACGAAAGUCGGACGAAAGUCGGGGCAGAGAGAAAAAACUCUCGCUGAAAAGCGACC'
p174
aF1.0
aa(lp175
S'hard Y'
p176
aS'AAAAAGAUAGCAGCGCUGUCUAAUGACAGCGAGGCGUGCUGUGGCUAAUGUCACAGUGGCAUCGAAAA'
p177
aF0.9705882352941176
aa(lp178
S'Mat - Elements & Sections'
p179
aS'AAAAGAUUCAUGAUCGAAGGUGAGGUCAAGCGAUCACUGGUCAAAAGGCAGAGGAUCCAUGAUUGAAGCGCCACAGUAAAGGAAUAAAAAAAAAAAAAAAAAAAA'
p180
aF0.9619047619047619
aa(lp181
S'Chicken feet'
p182
aS'AAAAAACAGCUGCUAUGGUUCGAAGAAAAGACUGGCAUAGAGCAACUACUGAAGCAAAUAGCAAAAA'
p183
aF0.8805970149253731
aa(lp184
S'Bug 18'
p185
aS'AGAGGUUACAACAGGGCAGCUUCAAAGCAUUCAUUAAUGGGUUAAUAAAAGUG'
p186
aF0.9245283018867925
aa(lp187
S'Fractal star x5'
p188
aS'AAAAUCGCGCUGCAUGGUCAAAAGACCUGUGCCAAAAGGUAAUCAACAAAAGUUGUGCAUUGAAAAAUGAAGCAGUGCGUAAAACGGAAUGGAAGAACAAAAGUUCAGCCACAAAAGUGGAACAUCAAAGGAUGAGACACGAAAGUGUAACCAUUUCGGAAAACGCGAUGGAAGGUCAAAAGACCAGCAACAAAAGUUGAACCUCAAAGGAGGAACGUUUAAUGACGGACUAUCGCGAAAAAUGGGGUGUAGCACCUAAGGGUGAAUGGUAAAAAUCAAACGUCAAAAGACGAACAUCUAACGAUGAAGCAUCCCAGAAAACGUUAUGCAUGAUGAAAACAUCUGCAUCAAAGGAUGAACAGCGAAAGCUGAAUAGCAAAAGUUGAAGCAUAGCGGAAAA'
p189
aF1.0
aa(lp190
S'Crop circle 2'
p191
aS'GAAAAUGAAAAAUAAAAACGAAAAAAAAGGGAAAAAAAAAAAAAAAAAAAAAAAAAAAAAACUAAAAAAAAAAAAAAACGAAAAAAAACACGAAAAAAUAAAAAUCAAAA'
p192
aF0.9636363636363636
aa(lp193
S'Branching Loop'
p194
aS'AACAGGGAAAAAAAGGACCAAAGGGUCAACUGUGAAAAAA'
p195
aF0.95
aa(lp196
S'Bug 38'
p197
aS'ACAAAUGCCAUAUCGAACUAAUUAAAAGUGAAAUGG'
p198
aF0.9444444444444444
aa(lp199
S'Simple Single Bond'
p200
aS'AAAAAAGAAAAAAAAUGCUGGAAAACAGUUAAAAAAAGCGAAAAAAAAAAAAAAAAAAAAA'
p201
aF1.0
aa(lp202
S'Taraxacum officinale'
p203
aS'CGACAAAAGUGCCGGUACAAAAGAAUUACAUUAAAUAACUGCGCCGUAAAGAAGGAGUGGAAAAGACCAACAUCGAAAGCACGAGCGCGGUGAUCGCGCCGUGAUGUAUUAUUAACGGCGCAGUUAGAAGCGUUGUUGUAAGGGAUGCGAAGCAUCUCAAUAACAACGCGAUCAUUAUAGAAACUGUGAGAUCCUAGCAAAGAUCACUGCGCACGGGGAAAUACCGAGACUAAAGAAGUCAUCUAAAAAUAGAGCUGCGCAAACGUCGUGCGCAAAAGGGUC'
p204
aF0.875886524822695
aa(lp205
S'Headless Bug on Windshield'
p206
aS'GCCAUUAAAAAGCUAGAAAGCAGACAAAAGAAAAAAAAAAAAAAAAAAAAGUCGGCAAACUACUUAAAAAGGCAGGCAAAUCAAACUAAAAAAGUGAAAGCAAAACAUGUGACGAAAAAGCAAGAUAUAAAAAAAGACAAGCGAAUCAAUGAGUCUCCCCCCCCCCCCAUGAUAAGCAGGGUCAGCAGUCAAAUAAGUCA'
p207
aF0.935
aa(lp208
S'Pokeball'
p209
aS'AAAGAGUUGAAAAAGCGGGCGAGCUAUGCGUUUAAUCAAGAAGGGGAGCUAUGCACCAAUCGGGAAGUAUCUGGCAGCAGCUCAACUCAAAAAAAAUGGAUUCAAAAGCGGAGGAGAGAAACAAGGUAGUAGUGAAACAGCCAAAGGAGUAAUGAGCGACAGGUGAUCACUAGCGGAUCCGAAA'
p210
aF0.9456521739130435
aa(lp211
S'Variation of a crop circle'
p212
aS'AAAAGGAAAAAUUAAUGUAAAUAGAGUAGAUAAACAAAAAAUAAGACUAAAAAGCUAAAAAUAUAAAAAAAAAUCAAAAAAAAAAAAA'
p213
aF0.9545454545454546
aa(lp214
S'Loop next to a Multiloop'
p215
aS'AAGUACUGUCAAAACAACUCCUUAGAAAACUAGGGGGCGAUGCUAAUGCAUCGCAGAAAAAAGGGCAGUGCGA'
p216
aF0.9726027397260274
aa(lp217
S'Snowflake 4'
p218
aS'UAUUAAAAAUACACAAGCUAAUGUCUUAGUAGCAAAGUGAAAGCGAUAGGGUUGAAGAACAACAAGUAUCUUGCUAUGAUUAAACUCUACCAUUCUAUCCAAAGGGCGGACCAGCGAACCCGAACUUAGAAGAUGGUCCGCGAAAAGGGUAGGUUGAUUUGCUAAUGCCGCUCUAUGGAACAUAAACCGCGAAGCGGGAGCGCCAAAAGGAAAUCUAGGUCACUAAAGAGCUAUCUUUCAAAGAAAAACACGAAACGUGGAUCGCCAAAAGGUGACUAUGAUAGCCAAAAGGCACGGCAUCAAGGAUUAACAGCAAGGCUGCUGUGAGUAAUUGCUAUCUUCUAGGGCUAAAGCUUGUGUCUCUAUGAGA'
p219
aF0.8810810810810811
aa(lp220
S'Mat - Cuboid'
p221
aS'GAAGGAAAAGCAAGCAAAAGCAAGGAAAAGAAGCAAGCAAAAGCAAGCAAGCAAAAAAAGCAAUCAAACAAAAGCAAGCUACCAAGGAAAACCAAGUAAGGAAGUAAGCAAAAGCGGGCAAGCAAGCAAGCAAAAGCAAGCAAUCAAGCAAGCAUGCAAAAGGAAGAAAGCAAGCAGGUAAUCAAAAGUAAGCAAGGAAUAAAUCAACUAAAAAAAGAAGGAAUGAAUCAAGCAAGUGCAAACAAUCAAUCAAUCAACCGCUAGCAAGCAAGCAAGCAAGCUCAGGCAAGGAGGCAAGAGCAAGUAGUCAGGCGCAGUCAGGGAUGCAGGCGCAAGCAAGCAAUGCAAGCAGACGCAAGGAACCCACGCGCACGUCCAAU'
p222
aF0.8526315789473684
aa(lp223
S'Misfolded Aptamer 6'
p224
aS'AAAAAAGUCAAAAAAGAUGAAGGAAAGACAAAAAAAAGUCAAAACGAAAACAUCAAAAAAAGGCAAAAAAAAAAA'
p225
aF1.0
aa(lp226
S'Snowflake 3'
p227
aS'GACGUAAAAGCGGACCACAAAAGUGAUGGUCAGAUCAAGACAAAAGUCCGGAGCAAAAGCCACAAAGUGCAAAAAGGACUGCAGAAAACAGAGGAUCAGAUUAAGAGGAAACUCAACAGCAAAAGACCCAAAGGGCCAAAAGGAGUUCACAAAAGUGAAGGACAGAUCAAGACAAAAGUCCACGGCAAAAGCCACAAAGUGCCAAAGGGAGUGCACAAAAGUGAAGACCAGAGCAACACGAAAGUGCACAUCAAAAGGCAUAAAGUGCAAAAGUGAGUGCAUGAAAGUGAAGCUCAGCGCAAGACUAAUGUCUUCAUCAAAAGACACAAAGUGCCAAAACGAGGGUACGAAAGUGAAGUGCAGACCUAGACAAAAGUCGUCAGCUAAUCCGUC'
p228
aF0.7989821882951654
aa(lp229
S'Hard Y and a bit more'
p230
aS'AAAAGUGCGUCGGGCUGUGAAAAUAGACGAUACUGGCUGUAGGGGAAACUCUUAAUUAGCAAAAUCUGGGGAGCACAUUCGCGCGAAAAAAAAAAAAAAAAAAAAA'
p231
aF0.9716981132075472
aa(lp232
S'Mat - Lot 2-2 B'
p233
aS'GGGGUAGUUGUUAAGGAAGAUCAAGAGCAAAAGAAAAAUCGAGAGCAAGAAAAAUCUAGGCCAAGCAACGAACCGCAAGUAAAAACAACAUCAAGCAAAAGCAAAAGCGCGGCAAAAAUAAAGCGCAAGCACAAGCAAGCAAAGGCUCAAUGCCAGGAAAAAGCAGGAGGGAAAUCAAAAUCAGGCUAAAGAAAAAUAAAGGGCGAGUAAGCAACGUCAGGGCAAAGCAAGCUAAAGCAAAACAAAAAUGCCGAGAAAAAUAAAGCUCAAGUACAAGGAACAAC'
p234
aF0.7570422535211268
aa(lp235
S'Shapes and Energy'
p236
aS'AAAAAAGUACGCAGCUGAAAAGAAGGACGUGUAAUAUCGUCAAGCUAGCAGUCAUAAAAUAGCAAAAGCUGGAAGCGUUCAAAAAGAAAAAAAAAAAAAAA'
p237
aF0.9603960396039604
aa(lp238
S"Spiral of 5's"
p239
aS'CAAAAGAUAGAAAGAUCCAAGGAUAGAAAAGAUAGAAAGAUUGAAAGAUAGAAGAUAGAAAAGAUAGAAAGAUAGUAGGAUAGAAGAAAGAAAGAUAUAAAGAUAGAAGAUAGAAUGAUAGAAGAGAGUAGAUAGAAGGUAGAAGAUAUAGUAACAGCGCUGUGACAAAAAGUCACAAAAAAGCGCAAAAAGUUGCAAAAAGUAUCAAAAACUAUCAAAAACUAUCAAAAUCUUUCAAAAACUAUCUAAAACUAUCAAAAACUAUCAAAAAAUAUCGAAAACUUUCAAAAACUAUCAAAAUCUAUCGAAAACUAUCAAAAACUAUCAAAAACUAUCAAAAACGAUCAAAAACUAUCAAAAACUAUCAAAAAGGAUCAAAAACUAUCAAAAAGAAAAA'
p240
aF0.9949622166246851
aa(lp241
S'Campfire'
p242
aS'AAAAGAGUAACAUAGAAUGUGAAGUUUAAAAGAAACACACGGAAGUCGAUGACACAGCAUAAAGGAGCAGCUAGGAAACUAAGCGCCCGAUCUUAGCCCAACGAAACUGGUCGAUAAGAGGAAACUGGAAAUCAAUUAAAAUUAAUGGCUAUGGAAUGACAGACCGAUGAAAGUAGUGUCUUCCAGCAUUUAAGGAGCUUGCCGUUUUGCUC'
p243
aF0.8773584905660378
aa(lp244
S'Anemone'
p245
aS'AAAUUGUAGAAAACUAUAAGAUGUGAAAGCGUCGCCUAGAAAGUUAGGCCCAACGAAAGUUGGCGAACGAAAGCGUUCGGAGAUGAAAGUUUCGAUACGAAAGUAUCGCGGAGGAAGCUCUGCAUAUGGAAAUCCAUAGCACACAAAGGUGUGCGGUAGGAAAUUACCGCAUAGAAAACUAUGCGGCACAAAGGUGCCGGCGAGGAAACUCGCC'
p246
aF1.0
aa(lp247
S'Fractal 3'
p248
aS'AAAAAAGUCGGACAACAAAAGUUUUAAUAGGGUCAGACAUAAAAAUGGAAAAAUCUGCCAGAGAGCUAAUGCGGAAAACCACGUGUAAUGUAAAGGCGGAAAGUAUUUCUGAUUAAAAA'
p249
aF0.907563025210084
aa(lp250
S'Kyurem 5'
p251
aS'AAAAUGCGAUCUUACUAACGUACAAAAAAGCGGGAGGAUAGGCGAAAAGCCUCACGACAAAAAGGUCCCUUUGUCAGAAAUCGCUAAAAAAAAAAAAAAAAAAA'
p252
aF0.9423076923076923
aa(lp253
S'Snowflake Necklace ( or v2.0 )'
p254
aS'GGACUGUGAUAUAGCGGGUUGACCAAAAAGCAUAAAAAAUGACCAAAAAGGACCGAAAAGCAUCAAAAAGGACGACCAGAAAAAAAGUUGGGGAGAGCAAAAAGCACCAAAAAGAACCAAAAAGGACCAAAAAGGACUAAAAAGGACUCCCAGGUAAAAAGCCGGAUUGAGCAAAAAGCACCGAAAAGAACCUAAAUGGACCAAAAAGGACCAAAAAGGACUAUAAGAUAAAAAAUCACUUAGGGCAAAAAGCAGCAAAAAGCACCAAAAAGGAACAAAAAGGGUCAAAAACGACAAUCGCACAAAAACUCAGAUCUAGCAAAAAGCGGCAAAAAGCACCAAAAAGGACCGAAAAGGUUCAAAAGGGAACAUCAGCUAUAUUACAGUCC'
p255
aF0.8663239074550129
aa(lp256
S'Methaqualone C16H14N2O Structural Representation'
p257
aS'ACCCCAAGAUGCGGUCGGAAAGAGGAAACUCAGACACACAAAAGUGGGACGUACUAAUGUGGGACUUAUGAAAAUAACACGAAAAAAGUGUGUCAGUCAGUCGGUCAGAAACAGGCCAGAUCAAACCACCGAAAGCAAAGCAAAAAAAAUGGGGAGACACAAAGGAGCAUAAAAGUGCCAAAAGGUGAUCAGCAAGACUCAGAAACAGACAGAUACGCAUACAGACAAAAGUCAAAAGGCAGUUACCUAAAAGGGAGUAGGACAAAAGUCAUCGAGGCAAAAGUCACACAGACGACAAAGGUCCGUAAAAGCGAAACAAAGGUUGUCAGUCAGAGCAAAGAUCAUAUUCCUCACA'
p258
aF0.9211267605633803
aa(lp259
S"Cat's Toy 2"
p260
aS'AAAGGGGCGGCCAAACGCUUAUAAAAAAAAAAAAAAAAAUUUAUUGAGGGUAAUCCAAAGCGAAAGCGAAAAAAAGGGAAAAUGUGCGCGGUAAAAA'
p261
aF0.979381443298969
aa(lp262
S'Zigzag Semicircle'
p263
aS'AAAGUUAGCCGGGCAAAAAUACAGAGCUAAAAAA'
p264
aF0.9411764705882353
aa(lp265
S'Short String 4'
p266
aS'AAAAAAACAGUAUGUAAGGAGGAUCAUAGAAAUACAAAAAAUGACCUAGAAAAAACGUGAAACUAACUACUAGAGGAAAAAAAAAAAAAAAAAAAAA'
p267
aF0.9587628865979382
aa(lp268
S'Gladius'
p269
aS'GGAAACAACAAAAUUAAGGAGGGAAUGAGGACAGACAAAGAUCAAAAGAUCAGAUAGACGAGACAAAAGUUCAAUUGAUAUUAAGCACUGUCAUCAUGGCGCUCGCGCUCAGAUUAAGAUCAAAGAUCGGAUACGAGCCAUACCUAUAUGAGAAUAGUGCGAUUUAUCUAAAGAACAAUAGUCAACACUAUCAGUCAAAGACGGAUACACAAGACUUAACCUCAGAAGAAGGUGAACGAUGCACCAUAGAGAGCCAGCAUAGAGACAGCAUAGAAAACUAUGCAAGUCCAUAUGACGGUUACCUAUGAGGCAUCGUAAAACUUCACAGGAGGAAAUGUCAGAAGUAUCAGAUCAAAAGGUCAAAGUCAGUCAAAGGGCACAACAAUAAAAAGAAUAAAAA'
p270
aF0.91
aa(lp271
S'Thunderbolt'
p272
aS'GCAAGAUGGAAAAAAAACAGCUCGUAUAAAAAGGAAACGGCGCUGACAAAAAAAAACCAAAAAAGAGCAAAAAGUUCAAAAAAGGAAAGCAAAGAAAAAAAGAAGAAAAAACGACAAGCAAGCAAAAAGAAAAUAAAUUAAAAAUACAAAAAGAAUCAGUAUCAGGAACAAAAAGUGGGAUCAAAUAAAAAAUGAAGAGCAAAGCACAACUAAACAAGAAAGAUCAAGAAAAGCAUCAAAAAUCAGAGAAACUUUGGAGCAAUCAAAAAAAAAAACUAAUCAAAAAAAAAGAAGUAAAAGUGAUGGAAAAAGAAAAAAAGCAAAAGAUAUCGAACAAUAAAGUCAGCGCAAAAAAAAGAGCUUGCAGAAAAAGAAAAAAACACCAUCAAGCA'
p273
aF0.9642857142857143
aa(lp274
S'Mutated chicken feet'
p275
aS'AAAAAAGGAAGCAGCAAAGCAGCGAAGCAAAGAUAAGUAUCAGCAAAGUAGCAAGCCGAGGAACUACAGCGGUAAGCCAUCAAAGCAAAGAGUUAAAAAA'
p276
aF0.88
aa(lp277
S'Chicken Tracks'
p278
aS'AAAAAAAAGCGAUGCGUUCAAAAGAACAAGAUCAAAAGAUCAAGAUCAAAAGAUCGCAUCGCAAGACGGUCAAAGACCAGGAUCAAAGAUCAAUACCAAAGGUAGUCAAAAAAAAA'
p279
aF1.0
aa(lp280
S'Looking Back Again'
p281
aS'CACAAGACCACCAAAAAGAAUAGAAACUAUUCAGGUGAAGACCGCAAGACAAAGUCGCGAUAUAGAAAAGUUAAAAAACUGAAACUAUAAAGUCAAGACAAGCUACACAAAAAGUUACAAAAGUAACGAAAAAGUGUACACGACACAAACUAUCCAUAGGAACUAUGGCGCUCCCAUGUGGAAGGAGAAGAAGAUAAAAGUAUCAACCCAACCAUCUGGCAAAAAAUUGAAGAGCGCAAAAUCUCUAGCAGAUAAAUAGCUAAAAAACGAUGCAAAAAAAAGAUCAAAAGGAUCGCAUAAACGUUGCUAGAGCAAAAAAGCCGAUGCAAAAGCAUCGAACCCGCAAGGUACAGAGGAACUCUGAAGGGGCAAAAGAUCUUAUCAAAGUG'
p282
aF0.9383033419023136
aa(lp283
S'Multilooping 6'
p284
aS'AGGAGGGACUCAGCGUAAUUGCUGACUUCGAAAGAAGUAAUGUCGACCGUUAUGUGUAAGUUCGAAAGGGCUGUAGUCUCAA'
p285
aF0.926829268292683
aa(lp286
S'Cesspool'
p287
aS'GAAGGAGGAAACAAGCCUAGAGAGUCAAGGGCAACAACAUCGGAAGAGAAAAAUAACAUAAGAAAACAAAAAAAUGAAAACUACAACAAGAAGAAGAAAAGAAUAUAGGAGGAACAAAGUUAACAACAGAUGAUAAAGAAAACAACUGAAGAAAACAACAAAAAGGAAACAACAAUUAUCAAGAACGAAAGAACACAAGAGAGACAAAGUCAACAAUAAGUAAAGAAGAAAACGCCAGAAUAAAAGAACAAAAAGGAAACAACAAGAAAGCAAGAAGAAAACGACACAAGAUAGUCAAAGACAAGAACAAGUGAACGAGAAAACAACAGAACGAAAGGACAAAAAGAAAACAACAAGC'
p288
aF0.7877094972067039
aa(lp289
S'Hoglafractal'
p290
aS'AAGAGAAAGAAAAAACAGUUAUAAAAAAGUAACUCAUCGAUCAAAAAUCCAAAAAAUAGAUCCACAAGACAAAAGUCGUGGGAGAAGGAUAAAAAUUCAAAAAAGAUUGAUCAACAAGACUAGAUGUCCUUUCAGCAAAAGCGAUCAUCAAAACACAAGACGAAAAAGUCGUACCAGCAAAAAGCGGAAAAAAACUUAGGAAGAAAAAGCAGCAAAAAAGCGCCACAAAAAUUGCCUAAUGGAGUUGUCAAAAAACACAAAAAAGUGCCAAAAGGGAGACGCAUAGAAACUAUGCGAAAAAAAGACGGCAAAAAACUUUCAAAAAGAUGAAAACUCAGAUCAACGAAGAGCAGGUCUAAACCUAAUGGGCCAAAACCGAUGCAAAGCAUCGUGACCGCAC'
p291
aF0.905
aa(lp292
S'Bullseye'
p293
aS'AAAUACGUUCGAAUAUUAUGCUUAAGGAAUCAAAUCAAGGUUUCAAGAAAAAAAAACGCUCGAGGAUCAGGAAAAAGUUUCAACAGCUAUGAUCCUUAAAAAAAACACUAUGAAAUAUGAGUAUCAAAGAAGUAGUUCGAAGGGUGUGAAAAAAAAGAUCCUCUAUGAUAAAGAUGUAUUAUUCAGUUCAAGGAGUAUUAAA'
p294
aF0.7970297029702971
aa(lp295
S'Shooting Star'
p296
aS'GCAUAGGAUUGCGAUUCUAAGAGAAGCAGACAGACAGGGAAACACGUACGUCGAAUAACAAUGAAUCGCAGUUAGAUGACAAGCAAACAGAUACAGACACAUCAGGAAAAGACCAUACGUCGAUAUACGUUGGAUAAGCAACGGAAACAAUAUCGCUGCAUAUAAAGUAUGACAAAGAACCCAUGGAGAAAACACAUAACAAAUCAACUCAGCACAAAUCGAGGCAAAGCUUCGAACAUCGAACCUUUGGAUCGCGUAUUGAAGAUACGCACAUAGAAAUUAUGGACUGCAGAAGGAAACGAAAAAGGAGAGAGACAGAUCAGGAAAACUCGAUACGUCGCAACAACAUAGCCUGCACUAUGCA'
p297
aF0.760989010989011
aa(lp298
S'Teslagon'
p299
aS'AAAAAGUUAAAACAAGCAUCAAAAGAACCAUCCCCCCACCCCCCCAAGAGAAAAAAAAGUCCCCCCCCCCCCCAAGCAGCAAAACAAGGAGCAAAAAAUGUACCCCCCCCCCCCAGACUAAACAAGCAGCAAAAGAAGAAUCCCCCCCCCCCCCCAAGAGAAAAAAAAGCCCCCCCCCCCCCCAAGCAGCAAAACAAGCAGCAAAAAAACGCCCCCCCCCCCCCAAUGAAAACAAGCAGCAAAAAAAGCUCCUCCCCCCCCCCCCAUGAUUAAAAAAAGCCCCCCCCCCCCCCAAGCAGCGAAACAAGCGUCAAAAAAAGAAAAAAAAAAAAGGGCCCCCCCCCCCCCAACCGUCGAAACAAGCAUCAAAAGUAGCAAAAAA'
p300
aF0.8900523560209425
aa.