(lp0
(lp1
S'Simple Hairpin'
p2
aS'UAGACAAAAAAGUCUA'
p3
aF1.0
aa(lp4
S'Arabidopsis Thaliana 6 RNA - Difficulty Level 0'
p5
aS'UAUAGACAAAGUACAAAAAAAAAAAGUAGAGAGAGCGGGAGAGAGAGAGAUAGAGACAAAGAGACAAAAAAGUCUCAGUCUCUAAUCUCUCUCUCUCGAGCUCUCUCAAGUCUAUA'
p6
aF1.0
aa(lp7
S'Prion Pseudoknot - Difficulty Level 0'
p8
aS'GAUAGCAGAGCAAAAGCUCGCUAAUCAAAAAAAAAA'
p9
aF1.0
aa(lp10
S'Human Integrated Adenovirus - Difficulty Level 0'
p11
aS'AUGGCGUAUUGGGCUGAAAGCUAAAAAAAAAUCGGGACGGUAUCGUGUAGCACUUAUAAAAGGGAGCGAGAUAGAAAAAAAGUUAUUUCGCUAAAACCCAUGGCGAAAAAAGAUAAAAACCGUAAAGAGACCAAAAAAAGGUCUUCCCGUAAAAAAAAAAUGCUUUCUGCCCCAAAAAUACGAAACCAUAAA'
p12
aF0.96875
aa(lp13
S'The Gammaretrovirus Signal - Difficulty Level 0'
p14
aS'AUGUGAAGAGAGAAAAAUCUCUCGGCUCUAAAAUGCGGAAGGCAUAGCGGGUCAAAAGAUCCUAAAGCUAGCCCCGCUAGAGAAAGUAAAAGCUUUCUCGA'
p15
aF1.0
aa(lp16
S'Saccharomyces Cerevisiae - Difficulty Level 0'
p17
aS'GGGAGACCCAGAAAAAAAGCUGGUUUUAAAAAAAAAAAAAUGGUAAGUGUACUAAAAAUGUGCAGUCUUCCAAAGGCGAGGGAAUCCUAAAAAAAGAGGAGCGAAAAAAAAAAAAGCGCUACACAGAUAAAAAAGAUCUGCUCUCGCAAAGGAGUCAUAACUCCAAAAAAAGGGAGCAGAGCUAAAAAUGCUCUGGAAGUAGCGGCAAAAGCGCUAAUGACUCAAAGGCGGGUUAUGCCCGAAAAAAAGGGCCAGAGCUAAAAAUGUUCUGUUAGUAGGAUAAAAAUUCCUAAACUCGUAAAUGUGGUACAAGCAUAAAAAAAGAUGCUCCAGCUAAAAAUGCUGGAAAAGUUUACUAAAAAUGUAAAGUAUCGCUAAA'
p18
aF0.9894459102902374
aa(lp19
S'Fractal 2'
p20
aS'AAAAGCACAGAGCAAAGGGAGAGAGUGAGUGGAAAAAAAAAACCACAAGGGGAAAAAAAAAACCCCAAGUAUAAAAAAAAAAGUGCAAACUCUCUCCCGAAGAGAAAGAGCAAGAGCGAAAAAAAAAGCUCAAGAGCAAAAAAAAAAGCUUAAGAUCAAAAAAAAAAGGUCAAGCUCUUUCUCGAAGAGGGAGAGCAAGAGCAAAAAAAAAAGUUCAAUGGCUAAAAAAAAUGCUAAUGACCAAAAAAAAAAGGUCUAGCUCUCCCUCAAAGCUCUGUGAAAAA'
p21
aF1.0
aa(lp22
S'G-C Placement'
p23
aS'GAGCAAAGCUCG'
p24
aF1.0
aa(lp25
S'The Sun'
p26
aS'GACAGGUAGAUGAAGUUGAAAUCGUCAAACGCAUAUGGACUAUAUCUAAAUCGUGAAAAACAGAUAGACAAAGUUUAAGUCGUGGAGCUCAGAUAGAGAAGCGCUAAGUCGGGAAGCACAGAUGGACGAAGUCUAAAUCGUGAAUAACAGUAUGGCAAAGUCGAAUCCGUUUAGUACAGUUAUAGAAAUCAUAAAGCGUAAAGCACAGUACGGGUAUGUCAUAAUCGUGAAGCACAAAGAGACAACUUCUAACUUGUG'
p27
aF0.7829457364341085
aa(lp28
S'Frog Foot'
p29
aS'AAAAAAAAAAUAGCGAAAGCUGGAGCAAAAGCUCGCGCAAAGCGC'
p30
aF1.0
aa(lp31
S'InfoRNA test 16'
p32
aS'UAUAGAUCAGAUACUAAAGGGUGUACUAGUUCUAUG'
p33
aF1.0
aa(lp34
S'Mat - Martian 2'
p35
aS'GAGCAAAAGCUCAAAGAGAGACAAGAGACACCAAAAAAGUGUCUCGUCUCUCAAAGAAAAAACUAAAAAGAGAGACAGAGAGACAAAAAAGGUCUCUCGUCUCUCAAUGAGAGAUAGAUAGCAAAAAAAGCUGUCUAAUCUCUCUAAAAUGUUUUUUCAAAGAAAAAUAGAGAGCGAAAAAAGCUCUCUGAAUUUUUCGAAAUACAAAAGUGU'
p36
aF1.0
aa(lp37
S'square'
p38
aS'UAUAGACAGAGACAGAGAGCAGAGACAAAGUCUCUAAAAGCUCUCUAAAAGUCUCUAAAAGUCUAUA'
p39
aF1.0
aa(lp40
S'Six legd turtle 2'
p41
aS'AAAAAGCAAAGCAAAGGCAAAUGAAAAUAAAGAUGAAAGUGAACAAAAGUGAGACGAAAAUGAAACCUAAUGGAACGUGAAAAAAAAAAAAAAAAAAA'
p42
aF0.9591836734693877
aa(lp43
S'Small and Easy 6'
p44
aS'UAAAUGAAAAGUAGGAUAAAAAAAUUUUUA'
p45
aF0.8666666666666667
aa(lp46
S'Fractile'
p47
aS'AAAAAAAAAAAAGCUAAUACAACGCAAUCUGAAAGUUACUAAAAUAAAGACAAAUCAAGUAAAAGCAAAGUAAGUCAAAACAAAAAAAAAAAAAAAAAAAAAAAA'
p48
aF0.9619047619047619
aa(lp49
S'Six legd Turtle'
p50
aS'AAAAAUCAAAACUUAAUUGCAAAAGCAAUUAAAAAGUUAAUGCAAAACGAAAAUGAAAAGGGAAAUUAAAAGAGCAAUUAAAGGAAAAAAAAAAAAAAAAAAAAA'
p51
aF0.9619047619047619
aa(lp52
S'snoRNA SNORD64'
p53
aS'UAUAGCAAAAAGACAAAAGACAAAGAGAUAAAAAAAAAAAAAAUCUCAAAAGUCAAGUCAAGCUAUA'
p54
aF1.0
aa(lp55
S'Chalk Outline'
p56
aS'AAAAUGAGCAGAUACAAAAGUAAUCAGACAGACAAAAGUCGUUGGGGCGAUAAUUCAGCUCAGGGCCAAAAGGCGCCGCUCUAAAAAAAAAAAAAAAAAAAAAA'
p57
aF1.0
aa(lp58
S'InfoRNA bulge test 9'
p59
aS'UAUAUGCAGAGAGAGGAAGACAAAGGUUUUUCCCCGCAUAUA'
p60
aF1.0
aa(lp61
S'Tilted Russian Cross'
p62
aS'AAAAAGAGUGGUCAAAAGACCGAGCAGAACAAAAGUUCGAGACAAAAGUCUCAGAGCGAAAGCUCGCUCCAGCUAAUGCUGACUCAAAAAAAAAAAAAAAAAAAA'
p63
aF1.0
aa(lp64
S'This is ACTUALLY Small And Easy 6'
p65
aS'GGGGGGGGGGGGGGGGGGGGGGGGGGGGGGGGGGGGGGGGGGGGGGGGGGGGGGGGGGGGGGGGGGGGGGGGGGGGGGGGGGGGGGGGGGGGGGGGGGGGGGGGGGGGGGGGGGGGGGGGGGGGGGGGGGGGGGGGGGGGGGGGGGGGGGGGGGGGGGGGGGGGGGGGGGGGGGGGGGGGGGGGGGGGGGGGGGGGGGGGGGGGGGGGGGGGGGGGGGGGGGGGGGGGGGGGGGGGGGGGGGGGGGGGGGGGGGGGGGGGGGGGGGGGGGGGGGGGGGGGGGGGGGGGGGGGGGGGGGGGGGGGGGGGGGGGGGGGGGGGGGGGGGGGGGGGGGGGGGGGGGGGGGGGGGGGGGGGGGGGGGGGGGGGGGGGGGGGGGGGGGGGGGGGGGGGGGGGGGGG'
p66
aF1.0
aa(lp67
S'Shortie 4'
p68
aS'GCAAAGGCAACGAAAGU'
p69
aF1.0
aa(lp70
S'Shape Test'
p71
aS'AAAAAGAGAGCAAGAGACAAAAAAAAGUCUCAGGACAGACAGAGACAAAAAGUCUCGGAGCAAAAGCUCAGUCGUCAAGCUCGCAAAAAAAAAAAAAAAAAAAA'
p72
aF1.0
aa(lp73
S'The Minitsry'
p74
aS'GGGAAAAACCCGAAAAGGAAAAAACACAAAAAGACAAAAAAAAGUCGGUGAUCCAGGGGCCC'
p75
aF1.0
aa(lp76
S'stickshift'
p77
aS'AAGAGAGCGCAAAAAGCAGCUCUCAA'
p78
aF1.0
aa(lp79
S'U'
p80
aS'AAAAAGAGACAGAGAGCAGAGAGAGAGACAAAAGUCUCUCUCCGCCCGUCUCAAAAA'
p81
aF1.0
aa(lp82
S'Still Life (Sunflower In A Vase)'
p83
aS'AAAGAGCAAUAUAUAAAAAACUUAGGAUGUCAAAGGAGUAGGAAGCAAAAAGCUUUAACGGACAAAGUCCGAAUAGAAAAAAAUUCUAACAAGUCAAAAACCUUUGGAGAGAGAUAGAGAGAGAGAGAUUUGAGAAAAAACUCGAGGAGAUAAAAAAAAAAAAAGAGCGCCCCCCCCCCCCCCCCCCCCCCCCCCCCCCCCCCCCAAAAGCUCGAAAAAAAAAAAGAUCUCGAUACAAAAGUAUCAAUCUCUCUCUCUCUAUCUCUCUCAGGAGAUGAAAGGUCUUAAUAAGUAAAAAGUUUAAACUCACUAAAUGUGAGAGUAGUGAAAAACAUUAAACAGACUAAUGUCUGAUUAAAGAAAAAGUUUAUGCUCAAA'
p84
aF0.9417989417989417
aa(lp85
S'Quasispecies 2-2 Loop Challenge'
p86
aS'AAAAAGAGCGAGCGAGAGCAAAAGCUCGAGCUCAGUGAGGCCAAGAAUCACAAAACGGUGGGACAAAAAGUCAAAAAGUUUGCUCAAAAAAAAAAAAAAAAAAAA'
p87
aF1.0
aa(lp88
S'Corner bulge training'
p89
aS'AGAGAGCGAGACAAAGUCUCAAAAGCUCUCA'
p90
aF1.0
aa(lp91
S'Spiral'
p92
aS'AAAAUGAGCAGAGAGCAGACAGAUACAGAGCAGACUAGCAGCAGCAGCAUCAGCAAAAGGCGAGCGCGCGCGGUCGCUCGUAUCGUCGCUCUCGCUUUAAAA'
p93
aF1.0
aa(lp94
S'InfoRNA bulge test'
p95
aS'AAAAAAAAAAAAAAAAAAAAAAAAAAAAAGCGCAAAAAAGGGCAAAAGCGCAAAGCGCGAGCGCAACCUAAAAAAGAGUAGCAGCGAGCAGCAAAGCAGCAAAAAGCACCAAAAAAGCAGCA'
p96
aF1.0
aa(lp97
S'Worm 1'
p98
aS'AAAAAAAAAGAGGGUCAUAUCCUUAAAGGUAGCGAGGUCGAGCAU'
p99
aF0.9111111111111111
aa(lp100
S'just down to 1 bulge'
p101
aS'AAAAAGCGCAGAGACAAAAGUCUCAGACAAAAGUCAGCAGCAAAAGAGCAGACAAAAGUCAGACAAAAGUCAGCUCAAAAAAAAAAAAAAAAAAAA'
p102
aF1.0
aa(lp103
S'Iron Cross'
p104
aS'ACGUCGAGAAAACCAACCAAAGGUAGUCAAAAGACACCUGAAGACAGUCAAAAGAUAGACAAAGUCGCAUAAGGAGAAGCGAAAGUUAAGCAAAGCUGCUCAAACUCACAUAAAAUUAGCGGA'
p105
aF0.9512195121951219
aa(lp106
S'loops and stems'
p107
aS'AAAAAGAGAGACAAAGAGCAAAGAGCAAAGAGCAAAAAAAAAGAGAUAAAAAAAAAAAAAUCUCAAAGCUCAAAAGAACAAAAAAAAAAGUUCAAAGCUCAAAGACAAAAAAAAGUCAAAGCUCAAGCAAAAAAGCGAAGUCUCUCAAAAA'
p108
aF1.0
aa(lp109
S'Water Strider'
p110
aS'AAAAUCCAACAUCAGCCAUAGGAAAUUAGACGAAAGCCGGCCGGAGUUACACAAAAGUGGAUGAAAGUCAAAAUAUGGUGGGUAAAAAAAAAAAAAAAAAAAA'
p111
aF0.9611650485436893
aa(lp112
S'The Turtle(s) Move(s)'
p113
aS'AAAGCAAAAACAGUAGAGAGAUAGAAAAAAAAAUUAUCUCUCAAAGGAUUAAAAAGAUCAAAAUAGCAAAAGCGUAGUUGACUAAAAAUGUCAAAAAAGACAAAGAAAAAUCAAAGGGCUAAAGAGAAAAAGAGCGUGAAAAAAGCGCUCAAAAAACAAAAGUUGAAAACAGAUCAAAAGACAAAAAAGGUCAAUACGAAAAAAAGUAGAACAAACAAAAAGGUUUGGAAUCACAAAAGGUGAAAGGUCUGGAAAAAAAUGGAAAAUCUAAAAUCAAAAGGGAAAGAGAAACAAAAAAAAAAGUUUCGAAAAAAUC'
p114
aF0.9430379746835443
aa(lp115
S'Adenine'
p116
aS'UAGACAGAGAGCAGAGAGCAGAGAGCAGAGAGAAGAGAGCAAAAGAGAGCAAAAAAGCUCUCGGCUCUCAGAGACAAAGAGAGACAAAGUCUCUCGUCUCAUCUCUCAGAGAUAGAGAGCAAAGCUCUCUCAAGUCUCAGCUCUCAAAAGCUCUCAAAAGCUCUCAAAAGUCUA'
p117
aF1.0
aa(lp118
S'Tripod5'
p119
aS'AAGAGUGAGGAAAAGCCUCCCGGUGAAGCCGGGCUCGA'
p120
aF1.0
aa(lp121
S'Shortie 6'
p122
aS'GGUAAUCCGGUGAAAACAGCAAAGGCAGCGAAAGU'
p123
aF1.0
aa(lp124
S'Runner'
p125
aS'AAAAACGGGUGAUCUAAAUGGUGUAUCACCUGAUCAACGACAAGAACUUAAAGAGUAAUACAAGGGGGAAGCUAAAUUAACUCUAAAGACAAUGCAAAAGUAUGCUGCCCAAAAAA'
p126
aF0.9310344827586207
aa(lp127
S'Recoil'
p128
aS'AAAAAGAGACAAGCAAGCAAGACAAGACAAGCAAGCAAAGCAGCAGUCAGUCAGCAGCAGUCUCAAAAAAAAAAAAAAAAAAAAA'
p129
aF1.0
aa(lp130
S'[CloudBeta] An Arm and a Leg 1.0'
p131
aS'AAAAAGACAGCUACAAAAGUAAGCGACAGCAAAAGCGUCAGUCAAAAAAAAAAAAAAAAAAAA'
p132
aF1.0
aa(lp133
S'[CloudBeta] 5 Adjacent Stack Multi-Branch Loop'
p134
aS'GAGACGACCGAAAGGUCGACGCGAAAGCGUCGGUGGUAAUCCGCCGGUCGAAAGACCGUCUCA'
p135
aF1.0
aa(lp136
S'Triple Y'
p137
aS'AAAAUGUUUCAUCCUGAGAAAUCCAAACCGAAAGGAAGUAGUAACGAGUUAAUACUCAUGUAAAGCCAUGUUAGCGUGAAAAAAAAAAAAAAAAAAA'
p138
aF0.9587628865979382
aa(lp139
S'Misfolded Aptamer'
p140
aS'UAGUAAAAAAGGGACAAAGUCAGGAAAACCAAAAAAAAACCGAAAAACUA'
p141
aF1.0
aa(lp142
S'Flower power'
p143
aS'AAAAAUAUGCUCCAAAAGAGGUGGCAAGCAAGGCUUAUGAGCUAGGCUCUGUAGCAAAUCUAGCUGAACUCUAUGGGAUAUGGAAAAAAAAAAAAAAAAAAA'
p144
aF0.9019607843137255
aa(lp145
S'Kudzu'
p146
aS'AAAAAGACUUAAGGUAAGCCACGCGGGGAAGCGCGCUGGUAGUGCAAAGCAACUGCCCAAGAAUUGAAAUUAACGGGAGUCAAAAAAAAAAAAAAAAAAAA'
p147
aF0.9405940594059405
aa(lp148
S'"1,2,3and4bulges"'
p149
aS'AAAAAGAGAUGAGCUUAAUAGGAAACACUGUAAAACUACUUUAUCGAAACCUCAGCAGAAAGAAAGCAGUGAAAGUACAACAAGGAAAAAAAAAAAAAAAAAAAA'
p150
aF0.9809523809523809
aa(lp151
S'medallion'
p152
aS'UCAAGAGGGAACCAAAAGGUUUCAAAUAAAAGUUAGAGUAAUCUAAGCACAUAAAAAUGUGUAACCAAAAGGUAAAAAACAAAAGUAUUUAAACAAAAGUUAAACAAAGCUGAACAAACAAAAGUUUGUAAAGAAAACUCUACAGCCAAAAGGCUGUUUACAAAAGUGAGACAAAAGUCAACUCAUAAAGAUGGGUAUAAAAAAUUGGAUAGCCGAAAGGCUAUAAACAUAGGUUAAACGAAAUUUAACAUAAGAAAUUAUGUGAACAAAAAUUACUAGACAAAAGUUUAGCGAGAAAAGUCGAACAAAAGUUAUCAGGAAAAAUUCUGGAUCUUGA'
p153
aF0.857566765578635
aa(lp154
S'[RNA] Repetitious Sequences 8/10'
p155
aS'AGCAAAAAAGCAAAAAAGCAAAAAAGCAAAAAAGCAAAAAAGCAAAAAAGCAAAAAAGCAAAAAAGCAAAAAAGCAAAAA'
p156
aF1.0
aa(lp157
S'Documenting repetitious behavior'
p158
aS'AAAAAAAGAGAAAAAAAAGUAAAAAAAAACCAAAAAAAAAUCGAAAAAAAAGCAAAAAAAAAGCAAAAAAAAAGGAAAAAAAAAUAAAAAAAAAACUAAAAAAAAGGGAAAAAAAAUCAAAAAAAAAUAAAAAAAAAAAAUAAAAAAAAACUAAAAAAAAAAUAAAAAAAAAAUAAAAAAAAAAGAAAAAAAAAUAUAAAAAAAUUGGAAAAAAAACUAAAAAAAAAAUAAAAAAAAGCAAAAAAAAAGAGAAAAAAAAAAUAAAAAAAAAUUUAAAAAAAAAGUAAAAAAAAUCGAAAAAAAAGCAAAAAAAAAUCAAAAAAAAGUCAAAAAAAAAACAAAAAAAAAAUAAAAAAAAAAAAAAAAAAAAAUAAAAAAAAAACAAAAAAAAAUCUAAAAA'
p159
aF0.8775
aa(lp160
S'7 multiloop'
p161
aS'CCGGCGUACGAAAGUGCGGACCCGAAAGGGUCCCGAGGAAACUCGGCGCACAAAGGUGCGGCCGCGAAAGUGGUGCUGCUAAUGCGGCCCGG'
p162
aF1.0
aa(lp163
S'Kyurem 7'
p164
aS'AAAAAGAGGGGCGUCGAAAGACGGGAAAAGAGCAGUCAAAAAGGCGGACACCGAAAAAGGUAAAGUCGCUCCCCGCCAUCUCGAAAAAAAAAAAAAAAAAAA'
p165
aF1.0
aa(lp166
S'JF1'
p167
aS'ACAGGGCGGGCACAGAUAAGAGAUAAAAGAGAGCGAGAGACAAAGAAACAAGAGAGCAACAGAGAGAGAGACAAAAGUCUCUCUCUCUGUAGGGCAAAAGCCACAGAGAGACAAAAGUCUCUCUGAAUAGACAAAAGUCUAAGCUCUCAGUUUCAGUCUCAGCUCUCAAAGAGAUAGCAAAAAGCUAAUCUCGAGAGAGAGAGCGGGUAUAGAGAGACAAAAGUCUCUCUAUACCCAGCUCUCUCUCAAAGAGACUAAAAUGUCUCCAGAGAGAGCAAAAGCUCUCUCUGAAAUAGCAAAAGCUAAAAUCUCGAGUCUGGUAGCAGACAGACAAAAGUCGUCGCUAAGAGCGGGUCAAAAGACCCAGCUCAGCCCAGCCACUGUAAA'
p168
aF1.0
aa(lp169
S'multilooping fun'
p170
aS'GCAUUAUUGUAAUCUAAAAGUAGGUGGGAAAAUUGC'
p171
aF0.8888888888888888
aa(lp172
S'Multiloop...'
p173
aS'AAGCAGAUCGGUGAAAGGCCAAGUGAAAGUUGGGUGAAAACCAUUCAAAGGAAAGUAAAAAUGCGGACAAAAGUCAGGUUAGUUGUAAAAAACCAACGUAAAAGUACGCUU'
p174
aF0.9459459459459459
aa(lp175
S'hard Y'
p176
aS'AAAAAUGAGCUGCCGUGAGCUAAUACUCGUGAUGGAUGCGGGAAGUAAUCUUUUUGCGUAUCUGGAAA'
p177
aF0.9705882352941176
aa(lp178
S'Mat - Elements & Sections'
p179
aS'AAAAGGGGGUGAAAUCCAGUUGUUUGGACAGUUUCAGCGCAGUAAUUUGAGAUGAGAACGCCAAUAAGGUGCUACGAAGCUCCCCAAAAAAAAAAAAAAAAAAAA'
p180
aF0.9619047619047619
aa(lp181
S'Chicken feet'
p182
aS'AAAACGAACCGCGAAAAGAUCCAAAGAAAGCUUAGGAGAGCAAAAGGAACGAAGCAAAGACCAAAAA'
p183
aF0.9104477611940298
aa(lp184
S'Bug 18'
p185
aS'AUCGCUUGUAUGAACGGAGCAGGAAAUGGACUUCGGAGGAAUUAGAAAAAGGA'
p186
aF0.9245283018867925
aa(lp187
S'Fractal star x5'
p188
aS'AAAAACGGAUAGCAAAAACGAAAGUUUAAUAUCAAAGGAUAAACAGCAAAAGCUGAACAGAAAAAUCUGAAGCUAUCCGAAAAACAGAGCGCAAAUACAAAAGUGUAAUGCCAAAAGGUAAACAGCAAAAGCUGAAUAGAAAAAUCUAAAGCGCUCUGAAAAACACAGAGCAAAAACAAAAGUUUAAUAGCAAAGGCUAAACAGCAAAAGCUGAAUAGGAAAACCUAAGGCUCUGUGAAAAACAAAAAGCAAAAACAAAAGUUUGAGAGCAAAGGCUCAGCAGCAAAAGCUGAAUAGAAAAAUCUAAAGCUUUUUGAAAAAGUGAGCACAUAACCAAAAGGUUUAUAGCAAAAGCUAAACAGCAAAAGCUGGAUAACAAAAGUUAAAGUGCUCGCAAAAA'
p189
aF1.0
aa(lp190
S'Crop circle 2'
p191
aS'GUUAAGGAAAAGAGAAAAGGAAAAAAAAUGGAAAAAAAAAAAAAAAAAAAAAAAAAAAAAGCCUAAAAAAAAAAAAAACUGAAAAAAAAUCUAAAAAACUGAAUACAAAA'
p192
aF0.9636363636363636
aa(lp193
S'Branching Loop'
p194
aS'GGAAGGAAAAAAAGUAACCAAAGCGUUCAAUUUAAAAAAA'
p195
aF0.95
aa(lp196
S'Bug 38'
p197
aS'ACGUGGAGGAUCUUUAAAGAGUUUCUGUAAAAUUGA'
p198
aF0.9444444444444444
aa(lp199
S'Simple Single Bond'
p200
aS'AAAAAAGAAAAAAAAUGAGGAAAAACCUUUAAAAAAAGCAAAAAAAAAAAAAAAAAAAAAA'
p201
aF1.0
aa(lp202
S'Taraxacum officinale'
p203
aS'CAUGGAAAUAAUAUGUUCAAAAGAAGAUCUGCUAAUGACACAAUACGAAAGAGCAUUGGAUAAUUAGUAAAAUAAAAAUAGUAGGAGGGGGAGGUUAUAGAGAGACAAGGUCUAUUCUAUAUGAGACAACCGGAGUGACAGCAGCUACGAAGUGUCAGAGUUGUUCCGGGAUCAGAGACCUAUGGUCUCGAUCGUCUCUAAACCUCUCCCUCGGCGCAAACGACCAGUAGAAAAAGAUUAGGAACCAACACUACACAUCAAAAGAAUGGAAUAAAAAGGACG'
p204
aF0.8333333333333334
aa(lp205
S'Headless Bug on Windshield'
p206
aS'AGCGUCAAAAAGUAGCAAAGCAAACAAAAAAAAAAAAAAAAAAAAAAAAGGUUGACAAAGAUAACGAAGAAGCACACAUGUUAAACGAAAAAAGUUAAAGCAAAAAAAGUGGCCAAAAAGUCAGGGUUUAAAAAAGACAAGUGGGUCGUCUUAUCAAAAAAAAAAAAAAAGGUAUAGUCGGCAAACAGUCAUUGAACCCA'
p207
aF0.97
aa(lp208
S'Pokeball'
p209
aS'AAAUGGGUAGAAAAGUUAGCGAGACGACCGGGCAAGUUCGCAGCGAAUCAAAGGACGAGGUAACGGCAAGGAGUCGGCUACUUAUCCGACAAAAAAGAAGUACAAAAGGGUGCAGGACAGCCGGGAAAUGCACGGAGCGAGUAAGCCAGAGAAUUCAAACAAGGGGUCAGCUUCGUGCUUCGAA'
p210
aF0.967391304347826
aa(lp211
S'Variation of a crop circle'
p212
aS'AAAGAUAAAUGGAAAAAGAAAAUCAAGCAGACAAAGAAACUAAAGGGAAAAAACUAAAAAAACAUAAAAAAAAGCAAAAAAAAAAAAA'
p213
aF0.9545454545454546
aa(lp214
S'Loop next to a Multiloop'
p215
aS'AAGUGAGGGCAAAAAAACGGAGCGCAAAAGUGCUCAGAGAGACGAAAGUCUCUCAGAAAAAAAGCCCUUACGA'
p216
aF0.9726027397260274
aa(lp217
S'Snowflake 4'
p218
aS'CUGCUAUGCAGCUGUCCAAAAGGGCAGAUAACAGCAGCAAAGACGAAGAGCCCGAAGGGCAAUAGCAAAGCUAUCUUUUGUAAUGAUGCUCAAGAGACGUGAAAAGCAAUCGGAUAAAGUCCAAGAGAAAGGCUUGGUUGAUAAAAGAGUCUCGAGAGAGGCAAAAGGCAAGCGUGCAAAGCGCAAUGGCAAAGCCAGCUUGCCAAAAGACUCUCAAUCGGCGCAAAAGGAAAGGCAGCAAAGCCAAAUAGGAAGCCCCCCUUUCGAAAAGAGCCGGGGGAGAACGUAAUGGCCGGCUACGAAGAGUAAACCAUGAAAUGGGCCGGCCUAAUGAUUCUUAAAUCUGUAAAAGUGGGCGGGGGGAAGCUCU'
p219
aF0.9135135135135135
aa(lp220
S'Mat - Cuboid'
p221
aS'AAAGCAAAAGUAGGCAAAAGAAACCAAAACAAGUAAUGAAAAGUAUGUGAGGAAAACAAGGAUUAAAACAAAAGUAAGUAGUCUAGCGAAAGUAAGGGAGUAACCAAGUAAAAUGGGGAGGGGGGCCGGGCAAAAGCCGGCGGGCGGGCAGGCGGGCAAAAGUUGAGGGGAGGUGUGGAGAGCAAAAGUGGGGGAGCGAGGAACCUAGAAAAAAAUCGCGGGGUCGAGCGAUCAAACGCGAUCAUUAAAUCAAUUAUACGCAAGCAAGCAAGCAAGCAUGCGCAAGCAACUAAUCAACGGGAAGGGAGCGAUCAACCGUGUGGGAGCGAGCGCGAGGAAUCAAGCAGAGCUAGCCGGAGCGAGGGGAACGCAAACGCAGU'
p222
aF0.9105263157894737
aa(lp223
S'Misfolded Aptamer 6'
p224
aS'AAAAAAGUCUAAAAUGUCGAUGAAAAUGCAAAAAAAAGCAAAAGCUAAAGUGAUUAAAAAUGGCAAAAAAAAAAA'
p225
aF1.0
aa(lp226
S'Snowflake 3'
p227
aS'UACACGAAAGUACGCCAUAAAAGUGAAGAGCAGAGCAAUGAAAAAUCAUACAACAAAAGUAACAAGGUUACAAAAGUAGUGUUCAAAAGGAAAGCUCGAAGAAAGACAAAAGUCCACGACAAAAGUAACAAAGUUACAAAAGUAGUUCACAAAAGUGAAGCUCAGAGCAAGACAAAAGUCCACAACAAAGGUAUCAAAGAUUGAAAAUAAGAGCACAAAAGUGAAGCUCAGAUCAAGACAAAAGUUAACAAUAAAAAUAGCAAAGUUAGAAAAGUAGUGCAUAAAAAUGAAGAUUAGAGCAACACAAAAGUGUACAACAAAAGUAACAAAGUUAGAAAAUUGGUACACAAAAGUGAACCUCAGCUCAAAGCUAAUCCUGCGAACAAAAGUGUA'
p228
aF0.811704834605598
aa(lp229
S'Hard Y and a bit more'
p230
aS'AAAAAGAGAGGCCGAGUAAAAAUACUACGUGAACGAGGAGGGGCAAAAGCCUAGUAGACAAAAAGGUCUAAGCCGUGUUCCUUUCAAAAAAAAAAAAAAAAAAAAA'
p231
aF0.9716981132075472
aa(lp232
S'Mat - Lot 2-2 B'
p233
aS'AGAAGAGGGGCCGGUCAAAAGGUGGCGUAAAAGGAAAAGCAUUCGCAAGCAAAACCAAGCAUGAGUAAACGGGCGUGAGAAAAAGCGGACGCGGGCAAAAGCAAAAGCGCAAGGAAAAGUAAGCGCGAACGAGGGCAAAGGAAAUGGCGGGGGCGGGCAAAACCAUUGUCAAAAGUAAAACGAGGUGGAAGCAAAAUCAAGCGCAAGCAAGCAAGUGCGGACAAAAGCGUGCGCGGGCAAAAGAAAAAGCGCAAGCAAAAGCUAGCCCAAGAGCGAGUAAUCAU'
p234
aF0.8732394366197183
aa(lp235
S'Shapes and Energy'
p236
aS'AAAAAAUGUGGCCCCGGAAGUCAAAGCGUUAAAAUUUAAUCAAAGCCGGUAGCGAAAAUGCAGAAAUUUGCAUUGCGGCGAAAAAAAAAAAAAAAAAAAAA'
p237
aF0.9405940594059405
aa(lp238
S"Spiral of 5's"
p239
aS'UAAAAGAGACAAGGAGAUAAAGAGAUAAAAAAGACAAAGAGAGAAAGUGAUAAGAGACAAAAGAGACAAAGAGAUAAGGAGAUAAGAGACAAAGGGAUAAAGAGUUGAGAGCCAAAGAGAUAAGGGACAGGAGACAAAAGAGAAGAGACAGAGUUAGUGAUAGAGCAAAAAGCUCUUGGGGAUCGCAAAAAAGUUCAAAAAAUCUCAAAAACUCUUAAAAAGUCUCAAAAAGUCCCAAAAAAUCUCAAAAGGGCUCAAAAAAACUCAAAAAAUCCCAAAAAGUCUCAAAAAAUCUCAAAAAAUCUCAAAAAGUCUCAAAAAGUCUCAAAAAAUCACAAAAAUUCUCAAAAAGUCUUAAAAGAUCUCAAAAAAUCUCAAAAGGUCUCAAAAGGAAAAA'
p240
aF0.9949622166246851
aa(lp241
S'Campfire'
p242
aS'AAAAGAGCAUACAACAAGAGCGACUGCUAAAUGCAGGCCUGCUAUGCAAGGCUCUCCCCAGGAGCAGCAAAUACAAAAGUAAUUGCGCUUGACUUCAUCAGCAAAAGCGAGCGGUCACUCGAAAGGCGUCACCAUGUAAAAGCUCCAGGCUGUCUCGGCGAGGCACAGCAAAUCCCGGCGCGCGAUAUAGCGAAGCUACUGAUCAGAAGCUC'
p243
aF0.9433962264150944
aa(lp244
S'Anemone'
p245
aS'AAAUAUUGUAAAAGCAAUCGCAAUUAAUAUUGCGGGACCAAAAGGUCCUGAUAUAAAAGUGUCGGGUGGAAAACCGCCCUUUCAAAAAGUUAGGAGAUAAAGAUCUCGAGAGCGAAAGCUCUCAUUUGCGAAAGCGGAUAUUACGAAAGUGAUACGCUCGAAAAUCUGGAGAGAGAAAUCUCUCGGUAGGAAACUACCUAGCGCUAAUGCGCUA'
p246
aF0.9439252336448598
aa(lp247
S'Fractal 3'
p248
aS'AAAAGAAUCAUCUCGCAAAAGCGAAAAGCCUAUGGGGGUCCAAAAGCAGAAAACUUUUCAGAAAGCUAAUGUGUGAAAACCUUCAGAUAGCAAUAGCUCAAAAGGGCGCAGAUUAAAAA'
p249
aF0.8487394957983193
aa(lp250
S'Kyurem 5'
p251
aS'AAAAAGACCGGACUGAAAGUGGGACAAAAGAGGGGGCAAAGGCGAAAAGCCGCUCGACGAAAAAGCUACCUCGUCGCCGAGGAAGAAAAAAAAAAAAAAAAAAA'
p252
aF0.9423076923076923
aa(lp253
S'Snowflake Necklace ( or v2.0 )'
p254
aS'UACAGAGGGCCUGAUGGACAUGCCAAAAAGGAGCAAAAAGCAGCGAAAAGCACUAAAAAACAGGAAAAAUGAAUGACUGUCAAAAAGGCUGAGGCGAAUAAAUUUAGCGAAAAGCGGCAAAAAGCAGCAAAAAGCAGCAAAAAGCAGCCUCAGAGAAAAACUCAUGGAGAACAAAAAGUAGCAAAAAGCAUCAAAAAUCGGUAAAAAGCAGCAAAAAGUGCUUCCAGAUAAAAACUCAUUCAUAACAAAAAAUAGCAAAAAGCGGUAAAAAGCGGCAAAAAGCAGCAAAAAGCAAUGGGAGACAAAAAGUCGCAGAUAAAAAAAAGUAGCGAAAAGUAGUAAAAAGGGUAUAAAUGGAGCGAAAAGUAAUCUGGAUUGGGCUCUCUGUA'
p255
aF0.8560411311053985
aa(lp256
S'Methaqualone C16H14N2O Structural Representation'
p257
aS'AAAAAAAAUGCUGAAUAGAUAUUCAAAAGAAAGACACACAAAAGUGAGACACAGUAAUUUGGGGCAAAUAAAAAGUAUACAAAAAAGGUAGGUCAGUCGGACAAUCAGAAACAGCUCUGCGCAAAGAUGUCAAAGCAAAGCAAAAAAAAGACAGAUCAUCAAAACAUAACAAAAGUUAGUGAAAGUUAUCGUCGAAGAGCAGAAACAGCCGGAUACCCGUACAACCAAAAGACAAAAGUCAGGUAUACAAAAGUAAGAGAGACAAAAGACAGUGAGACAAAAGUGAAUCAGCUUAGAAAAGUGGGCAAAGGCCAGACAAAAAUUAUCGGGCAGCUCAAAGCGCAGCGUAAAAAAA'
p258
aF0.9380281690140845
aa(lp259
S"Cat's Toy 2"
p260
aS'AAAAAACGGGGAAAAAUUGAGGAAAAAAAAAAAAAAAAAAGGAAUAAGGCGAAAGUAAAAUGAAAGUGAAAAAAGGUGAAAAAGAUCCCUGUUAAAA'
p261
aF0.9587628865979382
aa(lp262
S'Zigzag Semicircle'
p263
aS'AAAUUGAGCGGAUUAAAAUUAUGCAGUUUGUAAA'
p264
aF0.9411764705882353
aa(lp265
S'Short String 4'
p266
aS'AAAAAUAACGUACCCAACAAAGAGCACCAAAGGGGCGACAAAGAGCGGGCAAAAGCAAGCGACAAGGAGGAGGUAUUAAAAAAAAAAAAAAAAAAAA'
p267
aF0.9381443298969072
aa(lp268
S'Gladius'
p269
aS'CAAAAGAAGGAAAGAAAGAACGUAAGGAAGGCAGACAAAGACCAAAAGGUCAGAGACGAGAGACAUGAGAGGAACAGAGCAAAAGAGAGACCAGAGACUAGAGCCAGAGCAGAGCAAGAGCAAAGCUCAGCUACGCUCAUGCUCGAGUCUCGAGUCUCUCAGCAGCUCACGGCCUCACCUGUCAGCAGUCUCGGUCAAAGACAGAAACAAUAGACAUAAGAGCUAAAGAGCAGAAGAGAGACAUAUAGCACAUUCAGAGAUGAGACAGAGAGCAAAAGCUCUCACGUCUAAUCUACGGGUAGGCUAUAAGUCUCUCGCAAGCUCGCCAGCUCAAAAGUCUUAAGUUUCUGGACAAAAGUCCUAAGUCAGCCGAACGAGAGAAUAAAGGAAACAACAAAAG'
p270
aF0.89
aa(lp271
S'Thunderbolt'
p272
aS'GUAACAGAGGAAAAAAAGUUAAAGCGGAGGCGGAAAAAACAGAGAGCAAAAAAAAGACGAAAAUGAUCUAAAUGGUCUAAAAAGCAAAGUGGCUAAAAAAAUUUCAAAAAAGAUGAAGCGGCCAAAAAGUAAUCAUACGAAAAAAACAAAAAGGGGGUCGAAGUCCAACAAAAAGAUAGACCGAAGUAAAAAAGGGUAGCAAAGUAGAACAAAAAAUCAAAGGUCAAAAAAAACCUGAAGGGGAUACUAAAAGUAUCAGGAAGCAAAAAAAAAAAGAAAGCAAAAAAAAAGAGGUAAAAACAUAACAAAAAGCAAAAAAACAAAAACUUGGGAACUACAAAGCUCUCUGAAAAAAAACGGUCGUAACAAAAAGAAAAAAACAUUCUGGAGCA'
p273
aF0.9642857142857143
aa(lp274
S'Mutated chicken feet'
p275
aS'AAAAAAACCAGGUGCAAAGUAUGAAAUCAAUCGGGGCUACGUUCAAAGAUCGAAGCGAAUGCGGAUCACGGGGAAACCGGGGAACAAAACGGGAAAAAAA'
p276
aF0.88
aa(lp277
S'Chicken Tracks'
p278
aS'AAAAAAAAGAGAGAGCAGAAAAGUCUGGAGAGAGAAAUCUCAAGAUUGAAAGAUCCUCUCUCAAGAGCAGGAAACCUGAAGAGCAAAGCUCAAGUGCAAAGCGCCUCAAAAAAAAA'
p279
aF1.0
aa(lp280
S'Looking Back Again'
p281
aS'CACAACCUGCCCGAAAAGCGACCUAUGGUCGCAGGAUAAGAAGUAAAGCCUAUGGCGGUUGACACAAUGAGCGAAAGCUCUACGGUCCCAAUCUGAGGGAGGACCGUAAAAAGUUGGCAAAAGCUGAAAAAAAUACGAGCUAGGACAAAUUCCUAUGACAAAGUCAUAAGUCUCCAAGAGUAAGGAUUAGUGGGCAAAAAUGCCGACUGGACAAGCGGCGACAAAAGUCAAAGUCUGAAAAGCUCGGUCAGAGACAAAAUAAAAAUGGUAGAUAAAAAAAAUUGAUAAAUUCAGAUCUAAAAUCUAUUAGCACAAAAAGGCCAGAGCAAAGGCUCUGAAGAGUGUAUCGAUAGACAAAGUCUGAACUCGCAAAAGUGCGUCUCAAAGUU'
p282
aF0.8637532133676092
aa(lp283
S'Multilooping 6'
p284
aS'AAGGAGUUUAGAUUCAAACGAGUUGUCACGAAAGUGACUAUGGACAACCUAAUGGGUGCGUCCAAAGGGAAAGCCGCUCCGA'
p285
aF0.926829268292683
aa(lp286
S'Cesspool'
p287
aS'GAAGAAUAAAAAAAUAUCGGAGUGACAAACUCUUCAACAAAGAAAGUGUGAAAAAUUAGGGUAAAAAAACAAAAAUAAAAAGACAAUAAGGAAAAGAAAACAGGACGCCAUACACAAAUUCAAGAAAAAGUCAAGGAUAAAAGGAUAGGGCAAAAGAACAAAAGUAAAAACCCGAUAAACGGGAAGCAAAAAAAACAAUAUGGGAAAAUUCAAGAAAGAGUUACGCGUAAAGGAACAGGGUAAAAAAACAAAAGUAAAAAACAAAGAAACCGGUAUGAAAACUAUAAGGUACUUACAAAGUAACGGAAAACUAAAGGGUAAAAGAACGUAGUAAAAAAAAAAAAGUAAAAAACAAAGC'
p288
aF0.7513966480446927
aa(lp289
S'Hoglafractal'
p290
aS'AGUGGCGACUGACAAAAGAGACAAAAAAGUCUCGUAUGGAGGAAUGAACUAAAUGUUCCCUCCAGAGGACGAAAGUCAUAAGAUAAAAAGCAAAGAUGAAAAAAGAUCGCUACCAAAUAAAAAAAUUAUUGCGUACAAAAGUCGAAAGUAAAAUACAAGCGAAAAAAUGCGUUCGAGUAAAAAACGGAACAAAGGUCAGAGAUAAAAAGAAGGGAAAAAGCGCCUCUAAAUGGGGCGAAAGCAGACAGCAAAAAAGUGAAAAAACAAGCGAAAAGCACCUAUCGACUAUGUUGAUAAAAAAAAGCUGUCGAAAAAAUCUCAAAAGCUUAAAAAGUCAAAGCUAAAAAGGUCAGGGCAAAAGCGAAAGUACAAAAGUGAACGCAAAGUGUUCCGCUCGACC'
p291
aF0.905
aa(lp292
S'Bullseye'
p293
aS'AAGUACUAGCGAAACAAAAGUCUAAGGGACAACGGGUAUGCUGAUGAAAAAAAAGACGGGCGAAACUCAUGGGGGAACUUCUAGAGUAAGACUCGUUGAAAAAAAUAGGAAUGAAACGCAACUACAAAGUUUGAGAAUGCAGUGAAUAGAAAAAAACGCGGAAGAAUUCCAUGGGCAAGGCUCUACCGCUAUACUCGCGAAA'
p294
aF0.8118811881188119
aa(lp295
S'Shooting Star'
p296
aS'GAGACCGCAUUGGAGUCAAGUAGGGCCAAACAUACAGUGAAAAACGUAAGUUAGAGAACGAAGGCUCUAAGAACAGUAAGAAGCGAACAGGGGUAGACAUAGCUGCAAAGGACGCUAAGUUGCUCCAAGUUAGAUAGUUUAUUUAAUCAGGUUCGACUCAGGAAAGGCCGGAUAAAUUAUGACUGGUAGAAAUUCAAGUCAGCGCAGAGGAGAAUAAAACAGAAUAAAGUUCUGUAAGGACGAAGUCCUGGUUUAUAUACAAAGUGUAUAACAUACAAGCUUUGCCUCGCCCAAGAAAAUGGAUAAGAGUGUAAACAUAGCAGAAAAAUUCGCUAAGUUAAAUAAGCGGGACGCUCAGGUCUCA'
p297
aF0.7884615384615384
aa(lp298
S'Teslagon'
p299
aS'AAAAAAGUAAAAAAAUGAGUAAAAAAAGCAAAAAAAAAAAAAAAAAAUUAAACAAUGAUCAAAAAAAAAAAAAAAGAGAUAAAAAAAACACCGAAAAAAGCAAAAAAAAAAAAAAAGCAAAAAAAGGUGUUAAAAAGGCAGCAAAAAAAAAAAAAAAGCAAACAACGAUCGAAAAAAAAAAAAAACCAGGAAAAAAUACAGAAAAAAAGCCGAAAAAAAAAAAAAAGCAAAAAAAGCCUCAAAAAAUUCAACAAAAAAAAAAAAAAAAUAAUCAAUGAGAGAAAAAAAAAAAAAAGUGGGUAAAAAAGAAUUAAAAAAAUCGAAAAAAAAAAAGUGAAAAAAAAAAAAAAGCAGCAAAAAAAAAACAAAAAAAGGCAAAAAA'
p300
aF0.8795811518324608
aa.