(lp0
(lp1
S'Simple Hairpin'
p2
aS'AUAUCAAAAAAGAUAU'
p3
aF1.0
aa(lp4
S'Arabidopsis Thaliana 6 RNA - Difficulty Level 0'
p5
aS'AUAUAUCAAAACACAAAAAAAAAAAGUGGUAUGUACAACUAUGUAUGUAUGAUGUACAAACAUACAAAAAAGUAUGAGUACAUACAUACAUACAUAGAAGUACAUACAAGAUAUAU'
p6
aF1.0
aa(lp7
S'Prion Pseudoknot - Difficulty Level 0'
p8
aS'GAUGACAGAUCAAAAGAUCGUCAAUCAAAAAAAAAA'
p9
aF1.0
aa(lp10
S'Human Integrated Adenovirus - Difficulty Level 0'
p11
aS'GUAAGUGUGUGUUCUCUCUUUGAAAAAAAAAAGACCCUACGGCCAAAAAGCGAGUUAAAACCUAUGUGUGUGUUUAAAAAAUAACACACACAAAAAUAGCAACAAAACCGCGCCAAAAUGAAGAAAUACAUCGAAAAAAGAUGUAGGUUGAAAAAAAAAAAAAAGAGUGAACAAAAACACACAAAUUACAAA'
p12
aF0.9791666666666666
aa(lp13
S'The Gammaretrovirus Signal - Difficulty Level 0'
p14
aS'AGGUGUUCUAUGGGAAUCCAUGGUUCUCAAAAAAGAUCAAGACAGGUCUACGGAAAACCGUGAAAUGACCGUCGAUCAAGUAUGUACGAAAGUACGUACGA'
p15
aF1.0
aa(lp16
S'Saccharomyces Cerevisiae - Difficulty Level 0'
p17
aS'ACCAGUGCAGUUAAAAAAUGCUGGGGGAAAAAAAAAAAAAACCAAAAGAGACUAAAAAUGUCUCCACUGGUAUAUCGGAGUUAACAGCGAAAAAAAGCUGGGGAAAAAAAAAAAAGCCCAAAAGCUACUAAAAAUGUAGCGAUUCCGUAAUGGAGGUUAACAUCGAAAAAAAGAUGCUAUGCAAAAAAAGCAUAGAAAAGAUACUAAAAAUGUAUCGACCUCUUAAAUCAUUUUAACAUCAAAAAAAGGAUGCUAUACGAAAAAAGUAUAGAAAAGAUGCGAAAAAAGCAUCGAGAUGAGAAACUAGGUGAACAUCAAAAAAAGGGUGGAAUGCGAAAAAAGCAUUUAAAAGAAACUAAAAAUGUUUCCACCUAGGAAA'
p18
aF1.0
aa(lp19
S'Fractal 2'
p20
aS'AAAAAGUAUGUACAAAUAUAUAUAUCAAGAGCAAAAAAAAAAGCUCAAGAGCAAAAAAAAAAGCUCAAGAUCAAAAAAAAAAGAUCAAGAUAUAUAUAAAAGUAUGUAUGCAAGAGCAAAAAAAAAAGCUCAAGAGCAAAAAAAAAAGCUCAAGAUCAAAAAAAAAAGAUCAAGCAUACAUACAAAGUAUGUAUGGAAGAGCAAAAAAAAAAGCUCAAGAGCAAAAAAAAAAGCUCAAGAUCAAAAAAAAAAGAUCAACCAUACAUACAAAGUACAUACAAAAA'
p21
aF1.0
aa(lp22
S'G-C Placement'
p23
aS'GAUCAAAGAUCG'
p24
aF1.0
aa(lp25
S'The Sun'
p26
aS'CACAGGAAAGUAAAGCUUAAUCCGUGAAACUCAGUACUGCAAGGCAGAAAACCAGAAAGGGAAAAAUGGGAACCAUAAUAUGUUAAACAUAAGAAUGCGAAGCAUAAUUUGUGGAACACAGUAGUACGAAGUACAAUACGUGAAAGCCAGUACCGCUAUGCGGAAUACGUUAAUCUCAGUAAGGCUAUGCAUAAUACCAGUAAGGCAGUAAUAGAAGGUAUAAUACAUCAAAUCUUGUGGUGCUAUGCACAACACAGG'
p27
aF0.8953488372093024
aa(lp28
S'Frog Foot'
p29
aS'AAAAAAAAAUUAGAGAAAUCUGCGCCUAAUGGCGGGCGUAACGCC'
p30
aF1.0
aa(lp31
S'InfoRNA test 16'
p32
aS'AUAUACACGAAAUACAAAAGUAUUAUCAGAGUAUAU'
p33
aF1.0
aa(lp34
S'Mat - Martian 2'
p35
aS'GAUCAAAAGAUCAAAGUAUGUCAAGUAUGUCCAAAAAAGACAUACGACAUACAAAGUAUGUACAAAAAAGUAUGUCAGUAUGUCCAAAAAAGACAUACGACAUACAAAGUAUGUAGGUAUGCAAAAAAAGCAUACUAUACAUACAAAAAAGUACAUACGAAGUAUGUAUGUAUGCAAAAAAAGCAUACAAAUACAUACAAAUAUCAAAGGAUA'
p36
aF1.0
aa(lp37
S'square'
p38
aS'AUAUAUCCUGGGCCUAUGUCCUAUGCAAAGCAUAGAAAAGACAUAGAAAAGCCCAGAAAAGAUAUAU'
p39
aF1.0
aa(lp40
S'Six legd turtle 2'
p41
aS'AAAAACAAAACGUAAACGAAAUUGAAAGGAAGUGAAAGGGAAUAUAAAAAGUAACUUAAAGGAACGCAAAAACAAAUGAAAAAAAAAAAAAAAAAAAA'
p42
aF0.9591836734693877
aa(lp43
S'Small and Easy 6'
p44
aS'GUGCUGAAAAUAAAUCAAAAAAAAGUGUAU'
p45
aF0.8666666666666667
aa(lp46
S'Fractile'
p47
aS'AAAAAAAAAAAACCAAAAGGAAACCAAAUCGAAAGGAAGCAAACCAAAAGGGAAGCAAGCAAAAGCAAAGGAAGCAAAAGCAAAAAAAAAAAAAAAAAAAAAAAA'
p48
aF1.0
aa(lp49
S'Six legd Turtle'
p50
aS'AAAAAGUAAAACGUAAUGGAAAACGAAAAUGGAAAGUAAAAGUAAAACCAAAAGCGAAAUCGAAAGAAAAAGCUAAUCAGAAAACAAAAAAAAAAAAAAAAAAAA'
p51
aF0.9619047619047619
aa(lp52
S'snoRNA SNORD64'
p53
aS'AUAUACAAAAACACAAAACACAAAGAUACAAAAAAAAAAAAAGUAUCGAAAGUGAAGUGAAGUAUAU'
p54
aF1.0
aa(lp55
S'Chalk Outline'
p56
aS'AAAAAGAUCAGAUACUAAUGUAAUCAGACAGACAAAAGUCGUCAGUGUGCUAAUGCAAUACACGGUCAAAAGACACGGAUCAAAAAAAAAAAAAAAAAAAAAAA'
p57
aF1.0
aa(lp58
S'InfoRNA bulge test 9'
p59
aS'AUAUAUCAGAGAGUGUAUGUCGAAAGACAUACCCCGAUAUAU'
p60
aF1.0
aa(lp61
S'Tilted Russian Cross'
p62
aS'AAAAAGCUCGUGCGAAAGUACCAUGAGUUGGAAACAACGAUACUAAUGUAUCACAGAAAAGUCUGCAUGCAUCAAAGGAUGGAGCAAAAAAAAAAAAAAAAAAAA'
p63
aF1.0
aa(lp64
S'This is ACTUALLY Small And Easy 6'
p65
aS'AAAAAAAAAAAAAAAAAAAAAAAAAAAAAAAAAAAAAAAAAAAAAAAAAAAAAAAAAAAAAAAAAAAAAAAAAAAAAAAAAAAAAAAAAAAAAAAAAAAAAAAAAAAAAAAAAAAAAAAAAAAAAAAAAAAAAAAAAAAAAAAAAAAAAAAAAAAAAAAAAAAAAAAAAAAAAAAAAAAAAAAAAAAAAAAAAAAAAAAAAAAAAAAAAAAAAAAAAAAAAAAAAAAAAAAAAAAAAAAAAAAAAAAAAAAAAAAAAAAAAAAAAAAAAAAAAAAAAAAAAAAAAAAAAAAAAAAAAAAAAAAAAAAAAAAAAAAAAAAAAAAAAAAAAAAAAAAAAAAAAAAAAAAAAAAAAAAAAAAAAAAAAAAAAAAAAAAAAAAAAAAAAAAAAAAAAAAAAAAA'
p66
aF1.0
aa(lp67
S'Shortie 4'
p68
aS'GCAAAAGCACCGAAAGG'
p69
aF1.0
aa(lp70
S'Shape Test'
p71
aS'AAAAACUCAUUUAGGUACUAAAAAAUGUAUCAGCACAGAGACAUUCAAAAAGAAUGAGAUCGAAAGAUCGCUCGUGAUGAUGUGGAAAAAAAAAAAAAAAAAAA'
p72
aF1.0
aa(lp73
S'The Minitsry'
p74
aS'GGCAAAAACACAAAAAGCCAAAAACACAAAAGCGCUAAAAAAUGCGAGUGAGGCGGUGGGCC'
p75
aF1.0
aa(lp76
S'stickshift'
p77
aS'AACUAUGCCCAAAAAGGAGCAUAGAA'
p78
aF1.0
aa(lp79
S'U'
p80
aS'AAAAGGAUACAGAGAGCAGAGUAUGUAUCAAAAGAUACAUACCGCCCGUAUCAAAAA'
p81
aF1.0
aa(lp82
S'Still Life (Sunflower In A Vase)'
p83
aS'AAAGAUCGGAGCCUAAAACAGACUAACGUAGGUACUGAGAACGAGGAAAAACCUCGACCGGUGAAAUACUGACAAUAGUAAAUCCGUUUACAGGGGAAAACCCUGACUGUGUACGUAUGUAUGCAGGUCGAUUUAAAAAGAAAUCAGAUGGAAAAAAAAAAAAGGAAGUCCCCCCCCCCCCCCCCCCCCCCCCCCCCCCCCCCCCCCCUCUUCAAAAAAAAAAAAACCAUCGACUCGAAAGAGUCAGACUUGCAUAUAUACGUACACAGAAGUUUCGAAAAGGAACAAGAUGCAAAAGGCAUCAUCAAGCAAAACCGAUGAACAUUAAAAGGCGAGGAUUUUGCGAAAGCAAAUGCAUACAAAAAGUAUGAGAUCAAA'
p84
aF0.9682539682539683
aa(lp85
S'Quasispecies 2-2 Loop Challenge'
p86
aS'AAAAAGAGCCAUCGACAUCAAAAGAUGAAGAUGACACCGACAAAGGAGGUGAGAUCAACAACACAAAAGGUGCAGAAGAUCGCUCAAAAAAAAAAAAAAAAAAAA'
p87
aF1.0
aa(lp88
S'Corner bulge training'
p89
aS'AGUAUGCGAUACAAAGUAUCAAAAGCAUACA'
p90
aF1.0
aa(lp91
S'Spiral'
p92
aS'AAAAAGAUCAGUAUGCAGACAGAUACAGAUCAGAUCACCAGCAGCAGCAGCAGCAAAAAGCGCGCGCGCGGGAUCGAUCGUAUCGUCGCAUACGAUCAAAAA'
p93
aF1.0
aa(lp94
S'InfoRNA bulge test'
p95
aS'AAAAAAAAAAAAAAAAAAAAAAAAAAAAAGAGAAAAAAUCAGGAAAACACGGAACACUAGCGGCGCGGCGAAAAGCAUGAGUACGAGAGUUGGAACGAUGGAAAGCUAUGUAAAAGUCAUCG'
p96
aF1.0
aa(lp97
S'Worm 1'
p98
aS'AAAAAAACGCGAGAAAAAUUUGGCAAAACAUGACUGGGUUGAGAG'
p99
aF0.9555555555555556
aa(lp100
S'just down to 1 bulge'
p101
aS'AAAAAGAUCGCUUACAAAAGUAAGGGACAAAAGUCAGACUCAAAAGAUCAGACAAAAGUCAGGCAAAAGUCAGAUCAAAAAAAAAAAAAAAAAAAA'
p102
aF1.0
aa(lp103
S'Iron Cross'
p104
aS'ACGAGGUUGAAUGUACACUAUGUGAGGCAAAAGUCAGCGAAACCAACGUAAAAACGGGACAAAGUCAUGGAAAAGCAACGAAAAUAUCCGCAAAGACUGCCGAAAGAUUAAGAAAUAUUAGAA'
p105
aF0.9512195121951219
aa(lp106
S'loops and stems'
p107
aS'AAAAAGUAUGUCAAAGAUCAAACAUCAAAGAUCAAAAAAAAAGAUACAAAAAAAAAAAAGUAUCAAAGAUCGAAACAUCAAAAAAAAAAGAUGAAAGAUGAAAGACAAAAAAAAGUCAAAGAUCAACCAAAAAAGGAAAGACAUACAAAAA'
p108
aF1.0
aa(lp109
S'Water Strider'
p110
aS'AAAAAAGACUAAUGUUGAGAGGAAAUUCGCCAAAAGGUCAAAAAAAGAUGAUAAAAAUCCGCAAAGUUGAGACUGAAAGACCGAAAAAAAAAAAAAAAAAAAA'
p111
aF0.941747572815534
aa(lp112
S'The Turtle(s) Move(s)'
p113
aS'AAGCCGAAAGGAGAAGUGUGUGUCGAAAAAAAAGACACACACAAAAGGGCAAAAAGCUCAAAAACACAAAAGUGAAACAUCCAAAAAAAGGAUGAAAAGGCAAAGCUAAUGCAAAAACACAAAAGUGAAAAUAUAUCAAAAAAAGAUAUAAAAACCCAAAAGGGAAAAACUAUGUAAAAGACCAAAAAAGUCAACACAAAAAAAAGUGAAACACGCAAAAAAGCGUGAAACAUGAAAAACAUGAAACAUAGAAAAAAAAACCGAAAGGAAAAACCGAAAGGAAAAAAGAUACAAAAAAAAAAGUAUCAAAAAAGCC'
p114
aF1.0
aa(lp115
S'Adenine'
p116
aS'AUAUCACUAUGCACUAUGCACUAUGCACUAUGCACUAUGCAAAAGUAUGCAAAAAAGCAUACAGCAUAGACAUACAAAGUAUGUCAAAGACAUACGUAUGAGCAUAGAGUAUGAUGUAUCAAAGAUACAUAAACAUACAGCAUAGAAAAGCAUAGAAAAGCAUAGAAAAGAUAU'
p117
aF1.0
aa(lp118
S'Tripod5'
p119
aS'AUGGGCCCUGAAAAGCAGGCUUGGAGAACGAGGCCCUA'
p120
aF1.0
aa(lp121
S'Shortie 6'
p122
aS'GUGAAAACAUCGAAAGAACCAAAGGGGGCGAAAGC'
p123
aF1.0
aa(lp124
S'Runner'
p125
aS'AAAAUCCGCAAGCCAAAAAGGAGAAACUCCGGGCUAAAAGGGACGGGCAAAAUGAGAACCGGGAGUAUAUGAAAAAAUCACUGAAGGGGAAAGUCAAAAGGUAGUGAGUGGUAAAA'
p126
aF0.9482758620689655
aa(lp127
S'Recoil'
p128
aS'AAAAAGAUAAAACCAACCAACACAACACAAGCAAGCAAGGCAGCAGUGAGUGAGGAGGAUUAUCAAAAAAAAAAAAAAAAAAAAA'
p129
aF1.0
aa(lp130
S'[CloudBeta] An Arm and a Leg 1.0'
p131
aS'AAAAAGACAGAUGCAAAAGCUAUCCUCAGCAAAAGCGAGAGUCAAAAAAGAAAAAAAAAAAAA'
p132
aF1.0
aa(lp133
S'[CloudBeta] 5 Adjacent Stack Multi-Branch Loop'
p134
aS'GAUGCCGUCGAAAGAUGGAAGCGAAAGUUUCGAUACUAAUGUAUCGUUCGAAAGAACGCAUCA'
p135
aF1.0
aa(lp136
S'Triple Y'
p137
aS'AAAAGCCGGGGCAGUGAGAAUUAUAGUGCUAAUGCGCUUGAGUUGCUUGUCAUUCGGGGCAGAAAUCUUCGGGCUUGAAUAAAAAAAAAAAAAAAAA'
p138
aF0.9072164948453608
aa(lp139
S'Misfolded Aptamer'
p140
aS'GUGGAAAAAGUUGUAAAAUACAACUAAUGCGAAAAAAAAGUAAAAGUUAU'
p141
aF0.92
aa(lp142
S'Flower power'
p143
aS'AAAAGGAUCGCGAACGUCUCGGGUCUCUCAAAGAUUAUCAAGUCUCUUGUAAAGAAAGGUGUGACUAAGUCUAUGAUGGAUCAAAAAAAAAAAAAAAAAAAA'
p144
aF0.9215686274509803
aa(lp145
S'Kudzu'
p146
aS'AAAAGCAUACAAAGGACUCAGACCAGCAAGGUGGAUCGUUUAGCCUAUGGACUAAAUAGUGAAAGUUAAGUGGCAAGAAUGAAAAAAAAAAAAAAAAAAAA'
p147
aF0.9207920792079208
aa(lp148
S'"1,2,3and4bulges"'
p149
aS'AAAAUGGAAUCAGAUUAAUCUAAAAGAAGUGGGAAAUUAUCCAUCUAAACGACAGGGAAAACAAAUUAGCGAAAAAGCGCCAACGAUAAAAAAAAAAAAAAAAAA'
p150
aF0.8666666666666667
aa(lp151
S'medallion'
p152
aS'AGAUACAAUAUGUAAAAACAUAUGGACAAAAGUCACCCAAAACGCGGGCUGAUAAUUUAUUCAUCCAAAACCGACUUUGCAAAGGUAGAGGGACAAAAUAGAUGAAAAAUCAGGUCUGCAAAAGCGGACAUUAGAAACUGGCUAACCAAAAGGUUAGAGAUAAAGGAUACAAGAAAUUGAGCAAGCUAAUGCAUGUGGUCAAAAGACACUAUGAAAAAUCAUAGGCGCAAAAGUGACACAAAAGUGGUUAUGUGAAAGCAUAGAGGCAAAAAUCGCUUUGUAAAAGCAGAGACACUAAUGUGAGCCAAAAGUUACUACGCAAAGGCGUAGGGUAUCU'
p153
aF0.913946587537092
aa(lp154
S'[RNA] Repetitious Sequences 8/10'
p155
aS'AGGAAAAAAGCAAAAAAGCAAAAAAGCAAAAAAGCAAAAAAGCAAAAAAGCAAAAAAGCAAAAAAGCAAAAAACCAAAAA'
p156
aF1.0
aa(lp157
S'Documenting repetitious behavior'
p158
aS'AAAAAAAGGAAAAAAAAAGGAAAAAAAAAGGAAAAAAAAAGGAAAAAAAAAGGAAAAAAAAAGGAAAAAAAAAGGAAAAAAAAAGGAAAAAAAAAGGAAAAAAAAAGGAAAAAAAAAGGAAAAAAAAAGGAAAAAAAAAGGAAAAAAAAAGGAAAAAAAAAGGAAAAAAAAAGGAAAAAAAAAGGAAAAAAAAAGCAAAAAAAAAGCAAAAAAAAACCAAAAAAAAACCAAAAAAAAACCAAAAAAAAACCAAAAAAAAACCAAAAAAAAACCAAAAAAAAACCAAAAAAAAACCAAAAAAAAACCAAAAAAAAACCAAAAAAAAACCAAAAAAAAACCAAAAAAAAACCAAAAAAAAACCAAAAAAAAACCAAAAAAAAACCAAAAAAAAACCAAAAAA'
p159
aF1.0
aa(lp160
S'7 multiloop'
p161
aS'AUCAUUUACUACUGUGCCGAGGUGACAGUCUCUGUCUGAAAAGACACCCAAUAAUAAUACAGCACUAAUGUGCUAAUGGAAAGGUAUUCGAU'
p162
aF0.8695652173913043
aa(lp163
S'Kyurem 7'
p164
aS'AAAAUGGAGCGCCUUGAAAAGGCUGAAAACUCGAGAAGAAAAUCCGCCGGGAUUAAAUUUCAAACGAUAAACUGGUCACUUCUUAAAAAAAAAAAAAAAAAA'
p165
aF0.9411764705882353
aa(lp166
S'JF1'
p167
aS'UUGAGUACGUAACAUACAACAUACAAAAGUAUGCGACAUACAAACAUACACCUAUGCACUAUGUAUGUAGGAAAAAUCUUACAUACAUAGAUGACAAAAGUCUCUAUGUAUCAAAAGAUACAUAGAACAUACAAAAGUAUGAGCAUAGAGUAUGAGUAUGAGCAUACAAAGUAUGAUCAAAAAGAUACAUACAAGUAUGUAUGUGUGUGUGUGUGUGCAAAAGCACACACACACACAACAUACAUACAAACAUACAAAAAAGUAUGCUAUAUUUACAAAAGUAGAUAUAGAAACAUGAAAACAUGAGGUAUGAAGUAUGAAUACAGACAGACAAAAGUCGUCGUAUAGUAUGUAUUAAAAGAUACAAUGCAUACGAUACAUCAAAAA'
p168
aF1.0
aa(lp169
S'multilooping fun'
p170
aS'CGUAAACAGGAAAUGAGAAAUCGGGUUUCUAAAUUU'
p171
aF0.8333333333333334
aa(lp172
S'Multiloop...'
p173
aS'GUAUUUAUUACAUAAAGAUGAACGGAAAUGUUGUCGAAACUCUUCGAAAACGAUGACUAAUAUCUAGCAAAAUUGGAUAAAGUUCCAAAAAAGGAGCGCCAAAUGGUGUCC'
p174
aF0.8468468468468469
aa(lp175
S'hard Y'
p176
aS'AAAAAGAUUGAAUGCGUGUCUAAUGACACGCCCGUGGAUGUAGUCUAAUGGCCACAUUCGAUCAAAAA'
p177
aF0.9705882352941176
aa(lp178
S'Mat - Elements & Sections'
p179
aS'AAAAGGUACACAAAAGAAGUUAGUGUAAGGAGAGCAGAGCACAAAGGUGAUACGCUCCGUUACGAAAAUUGCUUAUAAGGGGUACAAAAAAAAAAAAAAAAAAAA'
p180
aF0.9619047619047619
aa(lp181
S'Chicken feet'
p182
aS'AAAAAGAAGGGCCAAGGGGGAUAGUUAAAUCGCUCCACCACGAAAGGCGUCAAGUAAGGGGGAAAAA'
p183
aF0.9104477611940298
aa(lp184
S'Bug 18'
p185
aS'AGCAGGACGGGGAAGCUUAGUCAAAGUGUGUUUGCGUCAGCGAGGCAAAGGCA'
p186
aF0.9622641509433962
aa(lp187
S'Fractal star x5'
p188
aS'AAAAACUACGGCGGACAUCAAAGGAUGAAAGACAAAAGUUUAAGAUCAAAAGAUUAGCUUCUAAUGGGGAACGCCGUAGAAAAUUUGUGUAUGAGCCGGAAUCGGCGACGUCAAAGGACGGACAUCAAAAGAUGAGCCCUAAAAGGGGAAGUACGCAGUAAAACGUUGUUGUGCAGCGAAAGCUGAGCGUCAAAAGAUGAAAACGAAAGCGUUAUAUCCAAAGGGAUUUCGACGACGAAAAACGGUGUAUAACCAGAAAACUGGAACAUGAAAACAUGAGCGUGAAAGUACGAAGGACAAAGGUCUGAAUACAUCGGAAAACUUGGUACAGCCAUAAAAAUGGAGCAGGAAAACCUGAACGUAGAAAUACGGACUUGAAAACAGGGAGUACCGGGAAAAA'
p189
aF1.0
aa(lp190
S'Crop circle 2'
p191
aS'CGAAAUGAAAGGUGAAAAGAUAAAAAAAACUGAAAAAAAAAAAAAAAAAAAAAAAAAAAAAAGAAAAAAAAAAAAAAUGCAAAAAAAAAGGAAAAAAACUGAAGUGAAAA'
p192
aF0.9636363636363636
aa(lp193
S'Branching Loop'
p194
aS'GGGCUUUAAAAAAUACGUUUAAUGACGGAAGCCAAAAAAA'
p195
aF0.95
aa(lp196
S'Bug 38'
p197
aS'AGGAAAUUAUCCGACAAAGACGUAAAUGUAAAGGCA'
p198
aF0.9444444444444444
aa(lp199
S'Simple Single Bond'
p200
aS'AAAAAAGAAAAAAAAUGGGCAAAAAGUCUUAAAAAAAGCAAAAAAAAAAAAAAAAAAAAAA'
p201
aF1.0
aa(lp202
S'Taraxacum officinale'
p203
aS'GCAUAAAGGAGUAACGCUGAAAAGGUGGGAAGGAAAUAUUAACAUGAAAGUAAUGGCGUCGAAAGUAUGAAAUAAAAAGAAUGAUAGUGUAUGUCGUAUGUAGUUCAAAGAGCAUACAUACAUAUUCAAGGAAGUGUAUAACAAUGUCGAAGAUAUUGGGUAUGCUUCUGAUCAGGACGCAAGGCGUCCGAUCGGAUGAAAGACAUGCGCGGGGCCCAAAGGACAUAAACGAAAAGAGUAAUAUCAAAUCCAAGAACAGAAAGUAUGUGCGGUAAAAGACGG'
p204
aF0.8262411347517731
aa(lp205
S'Headless Bug on Windshield'
p206
aS'AGCGCCGAAAUGAGUCAAUCCAUUCUAAAAAAAAAAAAAAAAAAAAAAAUGGUACAUAGGAUAUUUAAGGAGCGGCCAACACUAGUAAAAAAAGCAAAUGUGAAAAAAGCGUGAAAAAAGGCAAAGGUAAAGCAUUGCAACGAACACCUCGUCGUUAAAAAAAAAAAAAUAUGUUCUUAGUGGAUGAGCAUAGCAACCUG'
p207
aF0.98
aa(lp208
S'Pokeball'
p209
aS'AAAGUAAGUCAAAAGCCACCAGAACAACCAACCGACCAACCAAGCGAGCAAAGCAGUAAGGAGGAGGAAGGAGUUAGGAGCGAUUUACAAAAAAAAGUAUUUCAAAACCAACCAACACAACCAACCGACCGAACAUUGGACGAAACGGCAUAGUAGGAGGAAGGAGUGAGGCGGGAGGUACAAA'
p210
aF1.0
aa(lp211
S'Variation of a crop circle'
p212
aS'AAAAUCUAAAGGAAAGAAAAAAGGAACCAUUGAAAUAUAGUUAAGCCAAAAAAUUAAAAAAAGCAAAAAAAAUGGAAAAAAAAAAAAA'
p213
aF0.9545454545454546
aa(lp214
S'Loop next to a Multiloop'
p215
aS'AAUUUUGUACGAAAAAGGACUGGGCAAAAGCUCAGACUCUGUUAAAAAACAGAGGCAAAAAAAGUACGGAAAA'
p216
aF0.9726027397260274
aa(lp217
S'Snowflake 4'
p218
aS'ACUAGAAUAGUUAUGCCAGAAAUCGAUACAAUAUAGCCAAAAGUCUUACCGUUAAAGAUGAACGUCUAUCAUGGUAAGUCAAAAGACUAUAAGUAUAUCUAAAGAGCGUGCCACCAAAGGUGAACUCCAAAGAGGGUAUGCCAAAAGGAUAUAAAGAUAUCCAAAGGGCUUUCCAUAAAAGACGAACUAAAAGUUUGGAGAGCCUAAUGGAUGUCAUGUUUCGCAAAGACCUAUCGAAAAAGGUCUAAGAUUAAGCUUUGAUAGGGAAAAGUGAAACUAGAGACUCAAAGGGCAUACCGUCGAAGACGAAUACCAAGGUUUGUAUGCCUAAUGGGUUUCAAGUGUUAAAAAAUUGCGUGCAUCAAGGAUG'
p219
aF0.8378378378378378
aa(lp220
S'Mat - Cuboid'
p221
aS'GAAAGAAAACCAACUAAAAGCUACGAAAAGAACCAACCAAAACCUAGCAACCAAAAGAAGCAACCAACCAAAACAAAACAACAAACCAAAACUUACCAACCAACGAACCAAAAUCAAUCAACCAACAUGCCAAAACCAAGCAACCAAUCAACCUACCAAAACCGACCAACCAACCAGCCAGCCAAAACUAACCGAUCAGCUAACCAACUAAAAAAAGAAGGAAGGAGGGAAGGGAAGGGAAGGAAGGAAGGGAGGAAGGGGAUGGAAGAGAGGAGGCAAGGGGAUGGAAGGAAGGAAGAGGAAUGAGGGAAGGAUGGGGAAUGAGGUAGGGGGAAGGGGGCAAAGGAAACAUGCGGAAGGGACCGAUGCAGAAGGUUAAC'
p222
aF0.9894736842105263
aa(lp223
S'Misfolded Aptamer 6'
p224
aS'AAAAAUCACUAAAAAGAUCAACGAAACACAAAAAAAAGUGAAAAGGAAAAGAUCAAAAAAUGUGUAAAAAAAAAA'
p225
aF1.0
aa(lp226
S'Snowflake 3'
p227
aS'UUGGAAAAGGGAGACUGCAAAUGUGAUCAUCAGAUCAAGGCAAAAGCCGUCACCAAAAGGAACUAUGUUCCGAAAGUCCUUGAGAAAAGCCAAGAUCGAUUCAAAACGAAAGUAGGCACAAAAAGGUACAAAGUGCCAAAAGGAGCCCACAAAAGUAAAGAGUAGAUAAAGAAAAAAAACGACACCAAAAGGCACAAAGUGACGAAAGGAGUCGACAAAACUAAGCAUCGGAGCAAGCCAAAAGGCGAGACCAAAAGGCAAAAAGUGCCAAAAUGACUCGACAAAAGUCAGCUUUAGAUCAAGGCAAAAAUCGAAUUCAAAAGGCACGAAAUGCCAAAAGGAGUCGACGAAAGUCAAGAUCGGAUGAAGACUAAUGGCGUCAACAAAAGCUAG'
p228
aF0.816793893129771
aa(lp229
S'Hard Y and a bit more'
p230
aS'AAAAAGAUACUCAGGAGAGAAAUCUCACAGGGUACGCCGAGAUCAAAGGAUCAGGCUUCAAAAAAGAAGCAAGGAGUAUCGUAUCAAAAAAAAAAAAAAAAAAAAA'
p231
aF0.9716981132075472
aa(lp232
S'Mat - Lot 2-2 B'
p233
aS'GUAUGCAACAUCAACCAAAAGCAAGACUAAAAGGAAAACUAAGUUGAGGAAAAAUGAAGCCUAUUCAAGCAACAAAAGUGAAAACAAACCUAAAUGAAAACCAAAAGGUGAAUAAAAAUGAAUUGAAAUUGAGUGCAAUCGAAAACGAAACGGGUGCUAAAAACAACUCCGAAAGGAAAAAGACGUGCGUGAAAAAUGAAUCGGUAUAAAUGAAGCGCAACCAAAACGAACAACAACCAAAAUCAAAAGAGGAAGCAAAAUGAGUGGGAAGCGGUAGGAAAAUC'
p234
aF0.8063380281690141
aa(lp235
S'Shapes and Energy'
p236
aS'AAAAAAGUUUGCUUGUGAAAAGUAUGAUCGCAAAGGAGAUUUAUCUAUACACGAAAAAAGGGCGAAAGCUCUGUUAAACCGAAAAAAAAAAAAAAAAAAAA'
p237
aF0.9603960396039604
aa(lp238
S"Spiral of 5's"
p239
aS'CAAAACAUACAAAGAUAGAAAGAUAGAAAGCAUACAAAGAUAGAAAGAUAGGACAUGCAAAACAUACAAAGAUAGUAAGAUAGAAAAUACAAACAUAGAAACAUAGAACAUACAAACAUAGUGCUUACAACAUACAGCAUACUACAUACCGAUACAGUAUGAUGUCAAAAAGACAUAAAAACAUACAAAAGGUAUCUAAAUGUAUGAAAAUGUAUCAAAAAGUAUGAAAAAGUAAGAAAAUCUAUGAAAAAGUAUGAAAAACUAUGAAAAACUAUGAAAAAGUAUUGAAAACUAUCAAAAUCUAUCAAAAAGUAUGAAAAAGUAUGAAAAACUAUCAAAAACUAUCAAAAGGUAUGAAAAACUAUCAAAAACUAUCAAAAAGUAUGAAAAAGAAAAA'
p240
aF0.9949622166246851
aa(lp241
S'Campfire'
p242
aS'AAAACGUUAAUAUUUAAGCUGAAGGGCAAAAAGCCCGCAAUCGAAGAUAUGUCGUGGUAAUCAUCAGCAGACUCAAAAGAAGUCGCGGCAUGCAGCAUGAGCAAAGUCUGGCGAAGAGGUAAAAGUACUAUUCAAGCAAGGGAUACACAAAUACACGGACAGGUAGUGGGAAAUUGCACCGUCGUAUGAUCGAAGAUACAAUACAGUGAACG'
p243
aF0.8584905660377359
aa(lp244
S'Anemone'
p245
aS'AAAUAUAUCAAAAGAUAUAGUGCCAAAGGAUGCGCAUGCAAAAGCAUGCGAGUAAAAGGUAUAGUAUGCUAAUGCAUACGAAACGAAAGUUUCGAGGCGAAAGCCUCUUUUGGAAAACCAGAGAUAUACAAAGGUAUAGUAUGGAAAACCAUAGUCUAGAAAGUUAUAAAGUGGAAAGCCACUAGAUGCUAAUGCAUCCUACGCAAAGCCGUGC'
p246
aF0.9252336448598131
aa(lp247
S'Fractal 3'
p248
aS'AAAAACUUCAGAUAGCGAAAGCGCAAAACUAAUCGAACAGGGAAACCUCAAAUGCAGUCAGACUAUAAAGGUGGGAAAGCUAUAAGCCUGCAAAGGCCGAAAACGUGCCAGAAGAAAAA'
p249
aF0.9327731092436975
aa(lp250
S'Kyurem 5'
p251
aS'AAAAAGCAGACAGACUAAUGCUAUUAAAACAUCGAUCAAACAUUAAAUAUGGUUCCACUAAAAUGUGAGAUGAAAUGUAAUUGCGAAAAAAAAAAAAAAAAAAA'
p252
aF0.9230769230769231
aa(lp253
S'Snowflake Necklace ( or v2.0 )'
p254
aS'CUACUCAUUUUUGGAAGAUUCAGCAAAAAGCACCAAAAAGGACCAAAAAGGACUAAAAAGGACGAAAAAUGAGAAUCAGGGCAAAAUCCAGAAAGAGUAAAAAGCGAUAAAAAAUACGAAAAAUGAACUAAAUGUGCCAAAAACGACGUUCGGACAAAAAAUCAGAAAGACCAAAAAGGACCAAAAAGAACGAAAAACGAACAAAAAGGACCAAAAAGGACGUUCCGAGAAAAAAUCGGUAACAGCAAAAAGCUACAAAAGGUUACAAAAAGUACGAAAAAAGACCAAAAAGGGGUUACGGACAAAAAGUCAGUAGCAGAAAAAAGCACUGAAAAGGAGCAAAAAGCGCGAAAAAUGACCAAAAAGGGGCAAUAUCCAGAGGUGAGUGG'
p255
aF0.8663239074550129
aa(lp256
S'Methaqualone C16H14N2O Structural Representation'
p257
aS'AAAAAAACAUCAUAUCGGAGAGACUAAUGUCAGACACGCAAAAGUGAGACAGUAAAAAGAUAAACACACAAAAGUGACACGAAAAAGGUGAGUCAGUCAGUCACUUAGAAAUAGAUUAGUUCAAAGGACACAAACCAAAGGAAAAAAAAGUGGGAUACCCAAAAAGGCAAAAAAUUGCAUAAAAAUCAUCAUCAAAGAUUGGAAACACGCACAGGCACAAAGACACAAAAGACAAAGGUUAGUGAGACAAAAGUUACAUAUAUAAAAAUCAGUCAGGCAAAACCGGCUGACUUCACAAAAUCGUUCAAAAGAGACAUAAAAGUGGAGAGCGAGAUCGAAGGACAGAUGAAAAAAA'
p258
aF0.8760563380281691
aa(lp259
S"Cat's Toy 2"
p260
aS'AAAACGUCGUUGAAAACAUGUAAAAAAAAAAAAAAAAAAAAAAGUAAAGCAAAAGCAAGUCCAAGUGUAAAAAAAAAAAAAAUUACGAUGACGAAAA'
p261
aF0.979381443298969
aa(lp262
S'Zigzag Semicircle'
p263
aS'AAAGAUAUAUUUUCAAAAUGAGAGUUCAGUAAAA'
p264
aF0.9411764705882353
aa(lp265
S'Short String 4'
p266
aS'AAAAAAGGAGGAGGCGAUAAGAGCCAGCAAAAGCGGAAUAAAGACGAACAAAAAUGGGUGGAUGAAAAGUAACCGCAAAAAAAAAAAAAAAAAAAAA'
p267
aF0.9381443298969072
aa(lp268
S'Gladius'
p269
aS'GGAAACACCAAAACAAAGUAAGGAUCAAAGACAGUCGAAGAGCAAAAGCUCAGAUACAACACAGAAGAAAUCGACACAGCGAGACUAUGCACCGCAUGACUAUAGAGGUCCAAUGAACAGCAAAGUUAAGAUAUGACCAAUAUGAACGUGCCCUGCAUAGGGCGGUUGAAGAGAUUGACAUUGAAGGGUAUCAGGCAAACCCAUAUACAUGAAUCACAACAUCAAAACAUGACUUCUAUUUCAGGAUGCAAAUGCAGGGUUAUGACGCUCUGCAAAAGCAGAGAAGUCUAAAUCACGUGUACGCGUCACGAAAUAGUGAAUAUGAUAAGAUGACCAGGUAGGCGUAUGACAUCAAAAGAUGAAAGGGAGUCGAGAUACAGGUCGAGGGAAGGAACAAAAG'
p270
aF0.92
aa(lp271
S'Thunderbolt'
p272
aS'GCUACAUACUAAAAAAAGUCCAUUCAAAAAAGCAAAAGACUAUGUACAAAAAAAAACCAAAAAUGAUGUAAAUGAUUUAAAAAGCAAAGGAAUCAAAAAAACGACAAAAAAGAAGAACCAAGCAAAAAAAAAAUAUAUUAAAAAGACAAAAACAACCGGAAACAGGGGGAAAAAGUCAAAUCGAAGGCAAAAACAACACCAAGGGAGAAGGAAAAAACGAAGAUUAAAAAAAAGAUCAAAAGGAGUGUAAAGCACAUAGCAAGGAGAAAAAAAAAGGAACCAAAAAAAAAAAAACGAAAGAGAUACAAAAAGGAAAAAAACAAAAGGUAUAGAAUAAUAAAGUAUAUAGAAAAAAAAAAUACCGGUCAAAAACAGCAAAAGUGUAUGAUGCA'
p273
aF0.9693877551020408
aa(lp274
S'Mutated chicken feet'
p275
aS'AAAAAAAGGAUUACCAAAGGGUUUAUCGAAUGAGCAACAACGGCGAAGCAGAGAAUCAAAGUGUGCCAUGGUCAAAGAAGCAAAUCAAAGGGUAAAAAAA'
p276
aF0.86
aa(lp277
S'Chicken Tracks'
p278
aS'AAAAAAAGUCGCUGCCUGCAACGGCGGAGGGGUAAAGAUCCAACGCCGAAAGACGGCCGUGAAACUUGACUAAGGGUCAAAGUCGAAGUUUGAGAUCUAUGAUUCCGGAAAAAAAA'
p279
aF0.9827586206896551
aa(lp280
S'Looking Back Again'
p281
aS'UACAGGACGAUCAAAAACUUUGCAAAGCAAAGAGAUCAAGUCCACAAAGAAAAUUCGUCAAUUACAAAGAUCAAAAGAUCAAAAGUAAUAAGGCAAGUCAAUUACGACAAAAAGAUACAAAGGUAUCAAAAAAUUCUAGGUGAUACAAAGUCUCGAUACGAAGUACCGUAUGCCCUACAACAACAACAACGAGAUUAAAAGUUUAAGAGAAGGAAUUCGAACAAAAGUUAAGAAUACAAAGUCUACUCGAUACACACAUCAAAAAGAGAUUCUGAAAAAAAGUAUAAAAAAUACACAGAAAUUGAGAUGGGGCAAAAAAUGGAACGCAAAAGCGUUUAAGACCAAAAGGAACUACAAGGUAUUAAGGCUAAAAAUUUCGUAUAAAGGUA'
p282
aF0.8277634961439588
aa(lp283
S'Multilooping 6'
p284
aS'AACACGGGUGCCGUCUAAUGACGGCCCACAAAGGUAUGGUUUCUACUACGAAAGUAGUUAAUCGAAGGGGUGAGACUGUGGA'
p285
aF0.926829268292683
aa(lp286
S'Cesspool'
p287
aS'GAAAAAGAAAACAAGUUAACAAGCUCGAAGUAAAGACGACGAUAAUAAGGAAACAAAAUAGCAAAAGAAAAAAAUUUAAUAUAUAACAAGAAGAAUAAAAGAAGACUACAGUACCGAAGGUAUUAAGAUGUCAAUAACAAAAGAAAAUAACAAAAGAAAAAAAAUAAAAAACCAACAAGCAACAAAUAAUCAAGAUUAGACACCCAAGGGGAAGAAUAUAUCAAUAAGUAAUCAAAGUAACUAACGAAAAAAAAUAAAAAACCGAGCAAGCAGAAACAAAAGAAGUCAGGACUCUGUAUAGGAUAAACAAGGCAUUAAGAAAACAAAUUAACGAAAGAAAAAAAAUAAAAGACAAACC'
p288
aF0.7905027932960894
aa(lp289
S'Hoglafractal'
p290
aS'AAGGCUAACAUACAAAACAUACGAAAAAGUAUGGUAUGGACCAAAGAUCAAAAAGAACGGGCGACAAGACAAAAGUCGUCAAACGAAUAUCAAAGAUCAAAAAAGAUCGGUGGGUAAAAGAAAAACUGGUAGCACCGAAAGGGCAGAUCAAAACACGAGAUAAAAAAGUCCUGCCAGCAAAAAGCGGCAUGAAAGAUUGAUAAAAAAAAGAGGAAAAAACCUUCAUAAAAAGUGCGAAAAGGAUUAGUCAAAAAACCCAAAAAAGGGACGAAAAGUAAUGUAUGUAAAAUACAUAUUAAAAAAGACUAGAAAAAGUUAUCUAAAAGAUUAAAAGUCAGAAGAACCAAGUGCAGGCCAAAAGUUAAUACUAAAAAUGCUUUGCGAAGCAAAGGGGUCGUUC'
p291
aF0.8975
aa(lp292
S'Bullseye'
p293
aS'AAACGUCAGAAAAUAUGAAGAUCAAGGAACGAGGGCUAUGCCCUUCGCAAAAAUCAAGAUCGAAGGUCAUCAUCAAGGAUGUAGACCAAAGGUCUUGUAAAAAAGCACGAGCGAAGCUCAGGGUCAAGGGUUAAUACCAAAGUUAGUGAAAAAUAGCUGGAGCAAAGCGCAAGAUAAAAUAUCAAGAUCAAAGAUCUGGAAA'
p294
aF0.8267326732673267
aa(lp295
S'Shooting Star'
p296
aS'GUUAGCAAUCGAAUGGCAAAGAGAACGAGAAAGACAGGGAAACUCGUACUUGACAGGGCCAAGUCAUUUAAGUGCUACACUGCCGCAGAGAUACAGACAACUAAGCGAAAUACGAGAUGUCGAUAUACCUGAGAGGGGGGUUGAAAGCAACAUUCCUCCCUACAAAGUAGGAUUUACAAAGAAGAAAUGCAAGAUAGAGGAGAUUAGAGGAGAUGAAACUAUGUCGAAGACAUAGACGUACAAGAUAUGCAUCGGAUGUCAAGGACAUCCACACAAAAGGUAUGCAUCUUAGAACAAAAGAAACAGCAACACACACACGCCAGUAAAAAACGGCAGGUGGGGAGAAGAGAAUUUGCAGCUAACA'
p297
aF0.7967032967032966
aa(lp298
S'Teslagon'
p299
aS'AAAAAAGGUAAAAAACCGGGAAAAGAAGGAACAAAAAAAAAAAAAAGGUAAAAAAAAAGCUAAAAAAAAAAAAAUGAAACAAAAAAACCAGAAAAAAAAGAAAAAAAAAAAAAAAACCAAAAAAAUCACUAAAAAAAUCAUCAAAAAAAAAAAAAAAGGAAAAAAAAAGGAAAAAAAAAAAAAAAUCAAUAAAAAAAUGAGGAAAAAAAGCAAAAAAAAAAAAAAGGUAAAAAAGCCAGGAAAAAAAGCAACAAAAAAAAAAAAAAAGUAAAAAAAAAUCAAAAAAAAAAAAAAGGAAGCAAAAAAACCCGGAAAACAAGAGAAAAAAAAAAACAUAAAAAAAAAAAAAUUCAACAAAAAAACCAAGAAAAAAUCCAGAAAA'
p300
aF0.9214659685863874
aa.