(lp0
(lp1
S'Simple Hairpin'
p2
aS'GAUACAAAAAAGUAUC'
p3
aF1.0
aa(lp4
S'Arabidopsis Thaliana 6 RNA - Difficulty Level 0'
p5
aS'GCGAUGCAAAAGAGGAAAAAAAAAACUCGCGCUGUCGAGAUAUCAUAGUAAGAUGUCAAAGAUACAAAAAAGUAUCAGACAUCAUUACUAUGAUAUCAAGACAGCGCAAGCAUCGC'
p6
aF1.0
aa(lp7
S'Prion Pseudoknot - Difficulty Level 0'
p8
aS'UAGGAGCGGUCUAAUGACCCUCACUGAAAAAAAAAA'
p9
aF1.0
aa(lp10
S'Human Integrated Adenovirus - Difficulty Level 0'
p11
aS'GAUAGUACAAUGUCAUCAUGGGAAAAAAAAUAGACCUCGCAAGCCAUCUGCGUCGGCAAAAGCAAUGCGAUGAAGAAAAAAAUUCAUCGCAUAAAAUGCGCCGAAAAUCGCGCUUAAAUGCGAAAAGGAUAGUAAAAAUCUAUUCGGUCGAAAAAAAAAAACUAUGAGGACAAAAAUUGUACAAAUAUCAAA'
p12
aF1.0
aa(lp13
S'The Gammaretrovirus Signal - Difficulty Level 0'
p14
aS'AACGCAGCCAUAGUAAUCUAUGGAGGAGAAAAAAGAUCAAGGGAGAUCGACGCUAAUGCGUCUAAAGGUCCCCGAUCAAGUGCUGUGGAAAUACAGCGCAA'
p15
aF1.0
aa(lp16
S'Saccharomyces Cerevisiae - Difficulty Level 0'
p17
aS'AUAUACCGAUCUAAAAAAAGAUCCCUUAAAAAAAAAAAAAUAUAAAAGAGACUAAAAAUGUUUCGGUAUAUAAAGUUCCUUUAAGAUCGAAAAAAAGAUCGACAAAAAAAAAAAAAGUGAAAAGAUACGAAAAAAGUAUCAAAGGAAAAAUGCGAUGCAUCAUCGAAAAAAAGAUGCCAUUCAAAAAAAGGAUGGAAAAGAUAGGAAAAAACUAUCGCAUCGCUAAAGUUAUACAAGGUCGAAAAAAAGAUCCGAUGCUAAAAAUGCAUCGAAAAGAUACAAAAAAGGUAUCGUAUGGCGAAAGCGAUUCAAUGUCGAAAAAAAGACACGAUGCUAAAAAUGCAUCGCAAAGAGCCAAAAAAAGGCUCGAAUCGCAAAA'
p18
aF0.9947229551451188
aa(lp19
S'Fractal 2'
p20
aS'AAAAAGCGCUGUCAAAUAUACUACCCAAGAGGAAAAAAAAAACCUCAAGAGGAAAAAAAAAACCUCAAGAUCAAAAAAAAAAGAUCAAGGGUAGUAUAAAAGAUAGACUAUAAGAGGAAAAAAAAAACCUCAAGAGGAAAAAAAAAACCUCAAGAUCAAAAAAAAAAGAUCAAAUAGUCUAUCAAAGAUAUACUAUAAGAGGAAAAAAAAAACCUCGAGAGGAAAAAAAAAACCUCAAGAUCAAAAAAAAAAGAUCAAAUAGUAUAUCAAAGACAGCGCAAAAA'
p21
aF1.0
aa(lp22
S'G-C Placement'
p23
aS'GAUCAAAGAUCA'
p24
aF1.0
aa(lp25
S'The Sun'
p26
aS'CUGAUCGUUCGUAUCUGUAACGACAGAAACCGAUAGGAUCGAAGUUUAACCUUGAAAGCAGAUGGGAGGAAGCUUCAACCACUGAAACGCACAGUACCUAUGGUGAACUAGUGAAACAAAUAGCACCGAAGCGGAACUGUUGGAGGUCAUGGGACGAAGCGUCAACCAGGCAAACAACUCGGGCCUAUGGCCAACGAUUGAAAAAGUUAAGACCAAAGGUGAAUCACUGGAAGAAAUAGGACUGAAAGUAAACUACUU'
p27
aF0.8488372093023255
aa(lp28
S'Frog Foot'
p29
aS'AAAAAAAAAUGACCUAAUGGUCCAUCUAAUGAUGCCUGAAGCAGG'
p30
aF1.0
aa(lp31
S'InfoRNA test 16'
p32
aS'GCAGACACGAGAUACGAAAGUAUCAUCAGAGUUUGC'
p33
aF1.0
aa(lp34
S'Mat - Martian 2'
p35
aS'AUAGAAAACUAUAAAGCGAUGCAAGCGAUGCAAAAAAAGCAUCGCGCAUCGUAAAGCAUAGACAAAAAAGCGAUGCAUAUACUCCAAAAAAGAGUAUAGCAUCGCAAAGAUAUCCGUGCGCCAAAAAAAGGCGCACAGGAUAUCAAAAAAGUCUAUGCAAAGAAUAUACUAUGAUCAAAAAAAUCAUAGAAUAUAUUCAAAGAUCGAAAGAUC'
p36
aF1.0
aa(lp37
S'square'
p38
aS'GCGCUGCGCGUAGGCGUAGCGCAGUCAAAGACUGCAAAAGCUACGCAAAACUACGCAAAAGCAGCGC'
p39
aF1.0
aa(lp40
S'Six legd turtle 2'
p41
aS'AAAAAGGAAAGGAAAACCAAACCGAAAGGAAACCGAAAGGAAACCGAAAGGAAACCGAAAGGAAACCGAAAGGAAACCAAAAAAAAAAAAAAAAAAAA'
p42
aF1.0
aa(lp43
S'Small and Easy 6'
p44
aS'GAACUAAAAGAGAAUGUAAAAAAAUUGUCC'
p45
aF0.8666666666666667
aa(lp46
S'Fractile'
p47
aS'AAAAAAAAAAAAGGAAAACCAAAGGAAAGGAAAACCAAGGGAAGGUAAACCAAACCAAGGGAAACCAAACCAACCGAAAGGAAAAAAAAAAAAAAAAAAAAAAAA'
p48
aF1.0
aa(lp49
S'Six legd Turtle'
p50
aS'AAAAUUGAAAAGUUAAUACAAAACGGUAACGAAAGAGGAAAUCAAAGGCAAAAGUAAAUCCAAAACGUAAAUUGAAAAAAAAAAAUAAAAAAAAAAAAAAAAAAA'
p51
aF0.9619047619047619
aa(lp52
S'snoRNA SNORD64'
p53
aS'GCAUGGAAAAAGAUUAAGUAGUAAUAUUCAAAAAAAAAAAAAGAAUGGAAUCUAAUGUCAGUCAUGC'
p54
aF1.0
aa(lp55
S'Chalk Outline'
p56
aS'AAAAAGAUCAGAGGCGAAAGCACUCAAUCAUAGAAAGCUAGAUAGCAUGCGAAAGCAAUGCAGCGACGAAAGUCUGCGAUCAAAAAAAAAAAAAAAAAAAAAAA'
p57
aF1.0
aa(lp58
S'InfoRNA bulge test 9'
p59
aS'GCGAUUCAGAGAGAUAUACUCAAAGGAGUGUACCCGAGUCGU'
p60
aF1.0
aa(lp61
S'Tilted Russian Cross'
p62
aS'AAAAACACCCAGUGAAAGCUGCCUCAUAGCAAAGGCUAGAUUGUAAUCAAUCACAUUGAAAGAUGGAGGGUCCUAAUGGGCGGUGAAAAAAAAAAAAAAAAAAAA'
p63
aF1.0
aa(lp64
S'This is ACTUALLY Small And Easy 6'
p65
aS'AAAAAAAAAAAAAAAAAAAAAAAAAAAAAAAAAAAAAAAAAAAAAAAAAAAAAAAAAAAAAAAAAAAAAAAAAAAAAAAAAAAAAAAAAAAAAAAAAAAAAAAAAAAAAAAAAAAAAAAAAAAAAAAAAAAAAAAAAAAAAAAAAAAAAAAAAAAAAAAAAAAAAAAAAAAAAAAAAAAAAAAAAAAAAAAAAAAAAAAAAAAAAAAAAAAAAAAAAAAAAAAAAAAAAAAAAAAAAAAAAAAAAAAAAAAAAAAAAAAAAAAAAAAAAAAAAAAAAAAAAAAAAAAAAAAAAAAAAAAAAAAAAAAAAAAAAAAAAAAAAAAAAAAAAAAAAAAAAAAAAAAAAAAAAAAAAAAAAAAAAAAAAAAAAAAAAAAAAAAAAAAAAAAAAAAAAAAAAAAA'
p66
aF1.0
aa(lp67
S'Shortie 4'
p68
aS'GGAAAGCCAGGGAAACC'
p69
aF1.0
aa(lp70
S'Shape Test'
p71
aS'AAAAAGAGAUCAAGAUACAAAAAAAAGUAUCAAGAGAGAGAGAUACAAAAAGUAUCAGAUCGAAAGAUCACUCCUCAAGAUCGCAAAAAAAAAAAAAAAAAAAA'
p72
aF1.0
aa(lp73
S'The Minitsry'
p74
aS'GGAGAAAGGAGAAAAACUAGAAAGUGAAAAAGGCUGAAAAAAAAGCAUCGAUAGGCUCAUCC'
p75
aF1.0
aa(lp76
S'stickshift'
p77
aS'AAGCGAUCGGAAAAACCAGAUCGCAA'
p78
aF1.0
aa(lp79
S'U'
p80
aS'AAAAAGAUACAGAGAGGAGAUAUACUACCGAAAGGUAGUAUACCCCCGUAUCAAAAA'
p81
aF1.0
aa(lp82
S'Still Life (Sunflower In A Vase)'
p83
aS'AAAGAUCAGCAUAUAAAAACUAUGAACGUAUAAAAUAUGGAAGCGUAAAAGGUGCUAACACAGGAACUGUGAAAUUAGAAAAAAUAGUAGCUUAGUAAAUUUGAAACUUAUCAUACUCUAAUGUAGUAUCAUAUUAAAAUGUAUGAGAUAUAAAAAAAAAAAAGCAUCAAAAAAAAAAAAAAAAAAAAAAAAAAAAAAAAAAAAAAAAAGAUGAAAAAAAAAAAAAAUAUCGAAUCUAAUGGUUCAAUACUGCAUUAGAGUAUGAUAAGAAGUUGCAAAAGGCAACAUGCGAUAAAAAAUUCCUGCAUAGAAAAGCCAUGAGGAGAAAAAAAUUUCCACCGAGCAAAGGCUUGAACUUCGAAAAGCGAGGGGAUCGAA'
p84
aF0.9682539682539683
aa(lp85
S'Quasispecies 2-2 Loop Challenge'
p86
aS'AAAAAGUUCGUGGAAGAUCGAAAGAUCAACUACAGAUGGACAAAGGAUAUCAGAUCGAGAAGAGAAAAACUCAACGAGAUCGAACAAAAAAAAAAAAAAAAAAAA'
p87
aF1.0
aa(lp88
S'Corner bulge training'
p89
aS'AGCAUAGGAUACAAAGUAUCAAAACUAUGCA'
p90
aF1.0
aa(lp91
S'Spiral'
p92
aS'AAAAAGAUCAGCAUAGAGAGAGAUACAGAUCAGGUCAUCAUCAUCAUCAUCAUCAAAAAGAGAGAGAGAGAGAUCGAUCGUAUCCUCCUAUGCGAUCAAAAA'
p93
aF1.0
aa(lp94
S'InfoRNA bulge test'
p95
aS'AAAAAAAAAAAAAAAAAAAAAAAAAAAAAGAGCAAAAAAGAGGAAAAGAGGAAAGAGGAAGAGGAGAGGAAAAACCAUCACCAUCAACCAUCGAACCAUCAAAAACCAUCAAAAAAGCAUCA'
p96
aF1.0
aa(lp97
S'Worm 1'
p98
aS'AAAAAAAGAGCGGUUAAUGGUCUGAAAAUUGGACGGAUGAUAUGU'
p99
aF0.9111111111111111
aa(lp100
S'just down to 1 bulge'
p101
aS'AAAAAGAGGACAUAGAAAACUAUGAGAGAAAACUCACCAUCAAAAGAUCAGAGAAAACUCAGAGAAAACUCAGAUCAAAAAAAAAAAAAAAAAAAA'
p102
aF1.0
aa(lp103
S'Iron Cross'
p104
aS'AGAGAGGUAAAGGAAGCGAAACGCAGAGAAAGCUCAUCCAAAGGGGGAUUAAUAUCGGAGGAACUCACCCAAAGGGAGUGAAAACACAGCCAAAGGCACCCAAAGCCAGAGAAACUCACUCGA'
p105
aF1.0
aa(lp106
S'loops and stems'
p107
aS'AAAAGGCGAGAGAAAGAACAAUGAUCUAAGUGGAAAAAAAAUGUUUCGAAAAAAAAAAAGAAGCUAAUCGCGAAUGAUCUAAAAAAAAUGAUCUAUGAUCUAAGAGAAAAAAAACUCCAAGUUUGAGGAAAAAACCGAAUUCUCGCAAAAA'
p108
aF1.0
aa(lp109
S'Water Strider'
p110
aS'AAAAAGCUCUUACGGCUCCUUGAAAAGUGGAAAAAUCCAUCUGUGCUGGAAGUAAUCCUGCUUAAUCGAACCAAUGUGCUGCGAAAAAAAAAAAAAAAAAAAA'
p111
aF0.9223300970873787
aa(lp112
S'The Turtle(s) Move(s)'
p113
aS'AAAGGAAAAGCAAAAGCCCUGUGGAAAAAAAAGUCACAGGGUAAAUCGUCAAAAAGAUGUAAAACCGUAAUCGGAGACAUGGAAAAAAGCCAUGGAAAGUUAAAGGAAACUCGAAAACCUGAAAUGUGAAUGCAGAGAAAAAAACUUUGCUAAAGAUAAAAGUCAAAAACGAAGAAAAUUCGAAAAAAACGGUACAGCAAAAAAACUGAAGCAUGUAAAAAAACAUGAAACAUGAAAAACAUGAAUCAUCGAAAAAAAAAUCAAAAGAAAAAAUGUAAAAGAAAAAAAAGUAGAAAAAAAAGUAUUUAAAAAAAAU'
p114
aF0.9651898734177216
aa(lp115
S'Adenine'
p116
aS'GAUACAGCAUAGAGCAUAGAGCAUAGAGCAUAGAGCAUAGAAAAGCAUAGAAAAAAUUAUGCACUAUGCAGAUACAAAGCGAUGCAAAGCAUCGCGUAUCACUAUGCAGAUAGGACAGUGAAACACUGUCAAACUAUCACUAUGCAAAACUAUGCAAAACUAUGCAAAAGUAUC'
p117
aF1.0
aa(lp118
S'Tripod5'
p119
aS'AGCGCCCAGUGAAAAACUGCAUCUAAAUGAUGGGCGAA'
p120
aF1.0
aa(lp121
S'Shortie 6'
p122
aS'GAGAAAUCGUCGAAAGAGCGGAAACGAGGGAAACU'
p123
aF1.0
aa(lp124
S'Runner'
p125
aS'AAAAAUAUCAGAUGGAAAAGAUCAAAGAUCACAUCAAAGCUAAGGACAUGAAGUGAAAUCCGCGGGCAAAGCCAAACGCAAGCAAAGGGAAAGAGGAAACUCACCCAGAUAAAAAA'
p126
aF1.0
aa(lp127
S'Recoil'
p128
aS'AAAAAGAUACAAGGAAGGAACAGAGGAGAAGGAACGAAGCGGCCACUCACUGACCACCAGUAUCAAAAAAAAAAAAAAAAAAAAA'
p129
aF1.0
aa(lp130
S'[CloudBeta] An Arm and a Leg 1.0'
p131
aS'AAAAAGAGAGAGGCGAAAGCACUCGGGAUCGAAAGACCCAUUCAAAAAAAAAAAAAAAAAAAA'
p132
aF1.0
aa(lp133
S'[CloudBeta] 5 Adjacent Stack Multi-Branch Loop'
p134
aS'GAUACCACCGAAAGGUGACGUCGAAAGAUGUGAUACGAAAGUAUCGCAUGAAAGUGCGUGUCA'
p135
aF1.0
aa(lp136
S'Triple Y'
p137
aS'AAAAUGGAGAAGGGUCUUUAUAUGAGCAGGAAAUUGCCUUUGUUCGCGGAAAUUUGCAAGUGAAAAUUUUGGGUUUCUAAAAAAAAAAAAAAAAAAA'
p138
aF0.9175257731958762
aa(lp139
S'Misfolded Aptamer'
p140
aS'GAUCAAAAAAGGGGCAAAGCCAGGAAAACCAAAAAAAAACCAAAAGGAUC'
p141
aF1.0
aa(lp142
S'Flower power'
p143
aS'AAAAGUCUACCAAUAUUAGGAGGGUGAUCGAAGAUUAAAGUGAAGCACUAAAUAGAAACUAUGAUGGCAUCUAUGGGCUAGAAAAAAAAAAAAAAAAAAAAA'
p144
aF0.8431372549019608
aa(lp145
S'Kudzu'
p146
aS'AAAAAAGUAGGAAGCAAAUACAUGAUGCAGCAUAAUGGCGCUGGCAAAGUACGUCAAAGGAAGCCUAAAUCGAUAACGAUUAAAAAAAAAAAAAAAAAAAA'
p147
aF0.9603960396039604
aa(lp148
S'"1,2,3and4bulges"'
p149
aS'AAAAUGCUCGUGAGGGAAACAAAAAGAAAGCAAAAGGUUGACAGCUAAAAAUGAGGCUAUUAAAAUCCGCCAUAAGACACAAAUUAAAAAAAAAAAAAAAAAAAA'
p150
aF0.8857142857142857
aa(lp151
S'medallion'
p152
aS'GCAUAUGGCGUGCGAAAGCACGCACAGAAAACUGGGGGAAACCAUACGCUGGGAAACCAGCGAGUGAAAACUUACGAUGCGAAAGCAUCGACAUAAAAGUUGUUGAAAACAAACGAUGCGAAAGCAUCGAGAAAAAAUUUACGAUGCAAAGGCAUCGAAAAGAAACAUGUACAAAGGUCACGAAGUGAAAACUUCGACGUAAAACUGACGGUUCGAAAGGAUCGACAGAAAUCUGAGAUGAAAAUUACGAUUCGAAAGAAUCGAGGCAAAACUGACGCUGCGAAAGUAGCGGCUUGAAAAAAUCAGAAAAUCGAUGAUGCGAAAGCAUCGAAUAUGC'
p153
aF0.9109792284866469
aa(lp154
S'[RNA] Repetitious Sequences 8/10'
p155
aS'AGCAAAAAAGUAAAAAAACAAAAAAGGAAAAAAGCAAAAAAGCAAAAAAGCAAAAAAGCAAAAAACCAAAAAAGCAAAAA'
p156
aF1.0
aa(lp157
S'Documenting repetitious behavior'
p158
aS'AAAAAAAGUAAAAAAAAGUCAAAAAAAAAGCAAAAAAAAAGCAAAAAAAAAACUAAAAAAAAAGAAAAAAAAAGUAAAAAAAAACCAAAAAAAAGGCAAAAAAAAAGCAAAAAAAAAAUAAAAAAAAAAUAAAAAAAAAAUAAAAAAAAAAUGAAAAAAAAGGAAAAAAAAAAUAAAAAAAAAGUAAAAAAAAAGGUAAAAAAAUCUAAAAAAAAAAUAAAAAAAAAAUAAAAAAAAACUAAAAAAAAAAUAAAAAAAAAAUAAAAAAAAAAUAAAAAAAAAAUAAAAAAAAAGUAAAAAAAAGCCAAAAAAAAAGAAAAAAAAAAACAAAAAAAAACUAAAAAAAAUGUGAAAAAAAAUCAAAAAAAAGUCAAAAAAAAAGGAAAAAAAAAGUAAAAAA'
p159
aF0.905
aa(lp160
S'7 multiloop'
p161
aS'GCCCGACUCGAAAGAGUCGCAGUUAAUGCUGCGGUACUAAUGUGCCCAGACUAAUGUCUGUCUGGUAAUCCGGAGUUGCUAAUGCAACGGGC'
p162
aF1.0
aa(lp163
S'Kyurem 7'
p164
aS'AAAAUGAGUGGCGGAAAAAAUCACGAAAAGUGGACCAGAAAACGGAAAGUGGUAAAAUCCAAAGCUAUCACUGUGCCUGCUCUAAAAAAAAAAAAAAAAAAA'
p165
aF0.9411764705882353
aa(lp166
S'JF1'
p167
aS'GAUAGACGUGCACAUACAAGAUACAAAAGCAUAGAAGAUACAAAGAUACAAGCAUAGAGAUAUCUAGUAUACGAAAGUAUACUAGAUAUCAAGAGAAAACUCACGCGUAGUCGAAAGACUACGCGAACAUAGAAAACUAUGACUAUGCAGUAUCAGUAUCACUAUGCAAAGCGCAGUCAAAAAGACAUGCGCAAGAUAUCAUAAGAUCAUAGUAUAAUUUAAGUUAUACUAUGAUCAUUAUGAUAUCAAAGAUACAAAAAAGUAUCCAUAACUACGAAAACGUAGUUAUGAGACAUAAAAAUAUGAAGUAUCAAGUAUGAGAUCAUAGAUAGAAAACUACUAGAUCAGCGAGUACUUUAAGGUACAUCGCAGCACAGUCAUAUCAAA'
p168
aF1.0
aa(lp169
S'multilooping fun'
p170
aS'AGGGCAUUUCAAAAAUGAAAGGAGAUAAAAUCUUGU'
p171
aF0.8333333333333334
aa(lp172
S'Multiloop...'
p173
aS'GGCCUGCGCAGAGGAAACUCGGCGGAAACGCAGAUGAAAGUCAGAUGAAAAUCACAGAAAACUGAGCCAAAAGGUAGCGCGAAUACGAAAAAGUAUUGCCAAAAGGCGGCC'
p174
aF1.0
aa(lp175
S'hard Y'
p176
aS'AAAAAAGCCACGGGCGUUGCUAAUGCAGCGCAUGUGAUUUUCUAGUUAUCUAGGAAAUCGGCUGAAAA'
p177
aF0.9705882352941176
aa(lp178
S'Mat - Elements & Sections'
p179
aS'AAAAGCAGCUCAAUCAUACCGGAGGUCACUAUUUUACGGGCAAAAAUGCAGAGGAAAAGGGAUCCAAAUAGGCUGGUAAGUGCUGAAAAAAAAAAAAAAAAAAAA'
p180
aF0.9619047619047619
aa(lp181
S'Chicken feet'
p182
aS'AAAAAGGAAGUAAAAAUGUGGGAAAUAAUAUCGAAAAUCAAAGAAUCAGCAAACCGAAGAUCAAAAA'
p183
aF0.9701492537313433
aa(lp184
S'Bug 18'
p185
aS'AUCAGUAGAGUCAAGUAAGGAAAAAAAAACUCGUCAGUAAUAAAGAAAAAGUG'
p186
aF0.9622641509433962
aa(lp187
S'Fractal star x5'
p188
aS'AAAAACGCGUAGCAAGAUCGAAAGAUCAACAUCGAAAGAUGAACAUCGAAAGAUGAACAUCGAAAGAUGAAGCUACGCGAAAAACGCGUAGCAAGAUCGAAAGAUCAACAUCGAAAGAUGAACAUCGAAAGAUGAACAUCGAAAGAUGAAGCUACGCGAAAAACGCGUAGCAAGAUCGAAAGAUCAACAUCGAAAGAUGAACAUCGAAAGAUGAACAUCGAAAGAUGAAGCUACGCGAAAAACGCGUAGCAAGAUCGAAAGAUCAACAUCGAAAGAUGAACAUCGAAAGAUGAACAUCGAAAGAUGAAGCUACGCGAAAAACGCGUAGCAAGAUCGAAAGAUCAACAUCGAAAGAUGAACAUCGAAAGAUGAACAUCGAAAGAUGAAGCUACGCGAAAAA'
p189
aF1.0
aa(lp190
S'Crop circle 2'
p191
aS'GAGAAGUAAAAUGAAAAAGCGAAAAAAAGUGAAAAAAAAAAAAAAAAAAAAAAAAAAAAAGGAAAAAAAAAAAAAAAAGAGAAAAAAACCAGAAAACAGCGAAACAAAAA'
p192
aF0.9454545454545454
aa(lp193
S'Branching Loop'
p194
aS'GUUGGCUAAAAAAUAGCAGUAAUUUGCCACUGAAAAAAAA'
p195
aF0.95
aa(lp196
S'Bug 38'
p197
aS'AGCUUGAGACCUUGGAAAUAAAUAAGACGAAAAACG'
p198
aF0.9444444444444444
aa(lp199
S'Simple Single Bond'
p200
aS'AAAAAAGGAAAAAAAUGCGAUAAAUUCGUUAAAAAAAACGUAAAAAAAAAAAAAAAAAAAA'
p201
aF1.0
aa(lp202
S'Taraxacum officinale'
p203
aS'UAGGGAAACACUGAGCGUAAAAAACUAAUUGUAAAAAAUAGACAGGGAAACACUGACAGCAAAAGAUAGGUAUGUAAUCAAGAAGUUAGACUGUCUAUGUACGUGCUAUGCACAGUACAUAAGAUGCAAGAAACGCAAUUUGCGAUGCAAAGCAUCGUCGUUGCGUUUCGAUCAUUUGCCAAAGGUAAAGAUCGCAUCUAAGAUAGUUUAGCAGUGCAAAAGACACACAGCAAAAGAUUCGCAGUGAAAGACUUAUGGGGAAACACUGGAGGUAAAACACCU'
p204
aF0.950354609929078
aa(lp205
S'Headless Bug on Windshield'
p206
aS'AGGAGGAAAAAGAGACAAAGGAGAUAAAAAAAAAAAAAAAAAAAAAAAAGAUCACUAAAGUCAUCAAACCGCCAGAGAAGGGAAGCAAAAAAAGGAAAACCAAAAAAGGCCCCGAAACACUCACCCGCAAAAAAGGAGAAGGAGCAGAACGGGACAAAAAAAAAAAAAAAGUCAACGAACUGAGCCACUCAGGCUAGGGA'
p207
aF1.0
aa(lp208
S'Pokeball'
p209
aS'AAACAAAUGUAAAAGAGAGCGAGAGAAGGAGGGAAGGAAGGAGGGAUUGGAACAAUUAACCACCGUUAACCACUCGGCAUCACGUUUGAAAAAAAAGCGAUUUAAAACUAAGGAAGAGGAGCAACGAAGAAAGACGUCAAGGGAAUAGCAAAUAAUCACUAAGCAUUAACCGGGAGAUCGCAAA'
p210
aF0.9782608695652174
aa(lp211
S'Variation of a crop circle'
p212
aS'AAAACGAAAAGUAAAACGAAAAGAUACGAGGAAAAUAAAACCAAUGUGAAAAACGAAAAAAGACAAAAAAAAACGAAAAAAAAAAAAA'
p213
aF0.9545454545454546
aa(lp214
S'Loop next to a Multiloop'
p215
aS'AGGCGCUUUGAAAAAAAGAGUAUAGGAAACUAUGCAGAGAUGCGAAAGCAUCUCGCGAAAAAACAAAGUGCAA'
p216
aF0.9726027397260274
aa(lp217
S'Snowflake 4'
p218
aS'GAUCGAAGAAAGAGGUCCGAAAGGGCAACUAUUCACCGGAAACGCCGAGGCACAAAGUGCAAGAUCAAAGAUUCUCGGAAAAGGCCGUGAAGAGUUACGAUAAUUUCGAUCGUUGAAGCGACAACAGCAAAGCUGGAUCGUAAAAAUUGUAGCAAGAUGCGGAAAGCAUGAUCGCUGAAGUAGCAAGAUCUAUGAUCGAUCGAGAAAGCCGUAUCAAGAGACGAAAAAACCGAUCGUCCGCAGGACAACACCAAGGGUGGAUCGGGAAAAUCGUUUCGAGGUACUAAAAAUACAGGGGACGAAACGUCAAGUUCGAAGGAUCUCUGUCAAAGAGGUACCGUUUUGCGGAAAGCCACUUCCGUCUAUGAUC'
p219
aF0.9135135135135135
aa(lp220
S'Mat - Cuboid'
p221
aS'GAAGGAAAAGCAACUAAAAGGAAGGAAAACAGUCAAGGAAAAGAAAGCAAGGAAAAGAUGCAAUGAAGGAAAAGCAAGAAAUGAAGGAAAAGCCAACAAUCAAUGAAGGAAAAGGAAGGAAGGGAGAAAGCAAAAGGAAACAAGGUAGGAAGGACGUAAAAGGAAGGAAAGGAAGGAGGAAUUAAAUAGAAGGAACGAAUGAGAGAAGGGAAAAAUCAGCUAACAAACGAACCAACUAGAACUAUCUAACUAACUAACCGUAACUAAUAGUCUGAAUAACCCCCUGUAAUCAACUAACCCCAACAGUGAGAGCAUGCCCAACAAUUCAAGCCCAACAAAGCUACCCAAGUAAUCCCAAGAAGGCCAACCAGAAGCCCAAC'
p222
aF0.9473684210526315
aa(lp223
S'Misfolded Aptamer 6'
p224
aS'AAAAAAGACAAAAAAGAGCAAGGAAAGAGAAAAAAAACUCAAAACGAAAAGCUCGAAAAAAGUCAAAAAAAAAAA'
p225
aF1.0
aa(lp226
S'Snowflake 3'
p227
aS'ACCGGAAAACCAGACCAUAAAAAUAAAGUUCAGAGCAAAAUAAAAGUUCUCAGGAAAACCGCGAAACACUCUAAUCGAGUGGAGUAAAGCAAAGCUCGGAUCAAUAGAAAACUAUAGACGAAAACGGAGAAACUCGGAAAGCCAUUAAAGAAAACUUAAGAUCAGAUCAAUAGUAAUUUACACAAGGAAAUUUGGAAGCUAGUAAAACCUGUCGAGAAAACUUAAGAUCAGAUCUAAAAAAAACUUUACAGGAAAUUCGAGAAACUCGUAAACCCAGUGGAGAAAACUCACGGUCAGUCCAAUAGAAAGCUACACACGAAAACCGAGAAACUCGGGAAACUAGUGGAGGAAACUCAAGGGCAGAACAAGGGAAAACUCGUCGGGAAAACCGGU'
p228
aF0.8015267175572519
aa(lp229
S'Hard Y and a bit more'
p230
aS'AAAAUGAGCCACUCUAGCGAAAGUUACGCGGAGUUAGAAAGAUCGAAAGAUCGAAAUACAAAAAAGUGUUGGUCGAGACCUUUUCUAAAAAAAAAAAAAAAAAAAA'
p231
aF0.9716981132075472
aa(lp232
S'Mat - Lot 2-2 B'
p233
aS'CAUGGGAAGAGGAAUGAAAAGGAAGACUAAAAAGAAAAUCAACGCAAACCAAAAUCAAUCCCAGCGAAGGAGGGUGGAGGAAACGGAAGGGGAAGGAAAAGGAAAACCAUAACCAAAACCAAUCCCAACGGCAGUCAAGGUAAACUUCGUCUGGAAGGAAAACGGAGGGGAAAACCAAAACCAACCCUGAGAAAAAAUUACAGGAAGCAAUUAGACUGAACAAAAAUUUAAGUUUAGUAAAAGCAAAAGCCUAUGCAAAACCAUGGCUAACAUGAAGGAACUAU'
p234
aF0.8063380281690141
aa(lp235
S'Shapes and Energy'
p236
aS'AAAAAAAAAUCCGGCUAAAACGAAAAGUCAAGAAAUGGAGCGAGCUAUCGACCUAUACUGUGGGAAACCGCGCAGGGUGUGAAAAAAAAAAAAAAAAAAAA'
p237
aF0.9603960396039604
aa(lp238
S"Spiral of 5's"
p239
aS'GAAAAGAUACUAAGACACUAAGAUUCAAAAGAUACAAACAUACAAAGAUAUAAGAUACUAAAGAUCCUAAGAUACCAUGAUACUAGAUACAAGGUUUCAAAGAUACAAGAUACGAAGAUAAAAGUUACGAGAUACAGGAUAUAAGAUACGCGUAGGGUCAGGAGACAAAAAGUUUCUCAGUCUGACAAAAACUACGAAAACGUAUCGAAAGAUAUCAAAAAGUAUCAAAAAGUAGCAAAAAUUAUCAAAAAGUAUCAAAAAGUAUCAAAAAGAAACAAAAAGUAUCGAAAUGUAUCUAAAAGUAUCAAAAUGGAUCAAAAUGUAUCAAAAAAUAUCAAAAAGUAUGAAAAAGUAUCAAAAAGGAUCAAAAUGUGUCAAAAUGUAUCAAAAGUAAAAA'
p240
aF0.9949622166246851
aa(lp241
S'Campfire'
p242
aS'AAAAGGUCACAAUGCAAGGGGAAUAUCAAAAGGGUGGCAGUCUAUGCCAUGCAAUCCCGGCGACCAUCACAGGGGAAACCACUGGAGGCAGGUUCGAUCAUCGAAAGAGACGGGUCAUUGAAAGCACAGUCCCAUGCACUGCACACGGGUAUGAGGUUGGAUAUACAUCUAAUGAUGAUACUAGAGGGGCCGAAGACACCACUCCCCCGAUC'
p243
aF0.9811320754716981
aa(lp244
S'Anemone'
p245
aS'AAAUCAUUUAAAGGAAUGAGAUUGGAAACAAUCCCACAGAAAACUGUGGGAACCAAAGGGUUCGCAGAAGAAAUUCUGCGCUACGAAAGUAGCGUUCCGAAAGGAACCGAUAGUAAUCUAUUGACAUGGAAAGCCAUGGAGUUGGAAACAACUCGGCACGAAAGUGCCGCUUAGUAAUCUAAGCGAUGCUAAUGCAUCGCCUACGAAAGUAGGC'
p246
aF1.0
aa(lp247
S'Fractal 3'
p248
aS'AAAAAAGUUUGCUGGGGAAAGUGCAAAAACAAUAUUAAGACUAAUUCACAAAAGCACUAGGAUAGGGAAACCGGAAAGCCAAUCCGGGAGUAAAAACGUAAAACCAUUCCAACAGAAAA'
p249
aF0.8487394957983193
aa(lp250
S'Kyurem 5'
p251
aS'AAAAUGAAUGUUUUCUAAUGACGAUAAAAGUUGAGUCAAAGGGUAAAUUUAAAAUCCUGAAAAAUGGAGAACGGUAAUAAGGUUUAAAAAAAAAAAAAAAAAAA'
p252
aF0.9134615384615384
aa(lp253
S'Snowflake Necklace ( or v2.0 )'
p254
aS'GGUAUCACCUUGUACACAUGUGGGAAAAACCAACAAAAAGUAUCAAAAAGGAUCAAAAAGGAGUAAAAAAUAUUAUGAGACAAAAGGUCAGAUCGAGGAAAAACGAGCAAAAAGUGACAAAAAGAACCAAAAAGGAACAAAAAGCACGAUCAGAGAAAAACUCAGAUGUAGGAAAAACCACAAAAAAUGACAAAAAAUGGCCAAAAAGGACCAAAAACAGCUAUUACAGGAAAACUGGGGUAGGGCAAAAAGCAUCAAAAAGGAUGAAAAAUGACGAAAAACGAUCAAAAAGGAGUACCAGAGAAAAACUCGGAGAUAAUAAAAAGUACCAAAAAGGACCAAAAAGGACCAAAAAGGACCAAAAAGGGGUCUCAGUACAAGGUGAUACC'
p255
aF0.884318766066838
aa(lp256
S'Methaqualone C16H14N2O Structural Representation'
p257
aS'AAAAAAAGAACAGAUCUGACAGAGAAAACUCGGAUAUAGAAAAGUGAGACAGAGAAAGCUCAGACGUGGAAAACCGACAGGAAAAAACUGAGUCAGUCAGUCAGUCUCAAAGAGAUCUGAUAAAAAUUGAGAAACGAAAACGAAAAAAACUCAGUGAGAGAAAACUCGAGUAAUCUUGAGAAAACUCCACUGCAAACAUCAGAAACGGAAACUGGGAGAGAGACAGUAAAGAUAAAAGUCUCUGACAGAAAACUGACUCAGUGAAAACACGCAUAGCGAACACUCACAGAGCUGAGAAAACUCGGUAAAAGCCAGAGAAAACUCAGUAUUCAGAUCAAAGAUCUGUUUAAAAAAA'
p258
aF0.8929577464788733
aa(lp259
S"Cat's Toy 2"
p260
aS'AAAACCGGUUGUUAAAGGUGUGAAAAAAAAAAAAAAAAAAGAACAAAAGCAAAAGCGAUAGGAAACUUAAAAAAAUGAAAAAUUCACGACCGGGAAA'
p261
aF0.979381443298969
aa(lp262
S'Zigzag Semicircle'
p263
aS'AAAAUGGAGCAGGGAAAAUGAUCGGGUCCGGAAA'
p264
aF0.9411764705882353
aa(lp265
S'Short String 4'
p266
aS'AAAAAGGUAGCUAGGAAGAAAAAUGAGCGAAAGUCAGAUAAAUUCGAAGGAAAACCAACAUUGAAAUACAAUGCACAAAAAAAAAAAAAAAAAAAAA'
p267
aF0.9381443298969072
aa(lp268
S'Gladius'
p269
aS'AAAAAUAAAGAAUGGAAGAACCUAAAAAAGAGAGAGAAAGAUCGAAAGAUCAGAUACAAGAGAGAAGAGAUCGAUGUUUCAAGAGAGAUCCCAUCUACCAUAUACAUAACAGCAAAAGAUCAAAGAUCAUUGGCGUUAGAUAUAGAGUAGAGAGGAUCUCAACAGAGGAAAAGAUCAACACUCAACAGUAUCGCUCGAAUACAGAAUCAAAAGAGAGAGGAUCAGAAGCUUAGUUGACAUAGAUAUAAUACGGAGACGAUACAUACAGUAUAGAAAACUAUACAAGUAGAUAUCUACUUCCAAUUAUAACUAUGUCCCAGGAGCACAAGAUCACAAUUCAUAAGAUUCAGAUCGAAAGAUCAAAGUAACUCAAACAACCGAGCGAAAGAAAGAAAGAAAG'
p270
aF0.9
aa(lp271
S'Thunderbolt'
p272
aS'UCAGGAUUCAAAAAAAACUGUAAGCAUAUAUAGAAAAAACUGGUGUCAAAAAAAAAGGAAAAAAGGUCGAAAAGAUCAAAAAACCAAAAGUAUGAAAAAAUGGACAAAAAAGAACAAUGAACGCAAAACUAAUGGCAUGAAAAAGCUGAAAGCGGGGAGAAACACCAAGAAAAAAGUAGAGUAAGGGAAAAAAAUAUACAGAAAGUAGUUAAAAAAACAAAACUCAAAAAAAACAUGACAUUCAUGAGAAACUCAUGCCGGGCGAAAAAAAAAAAUUAUAUGAAAAAAAAGAUCCGAAAGGGACACAAAAGUUAAAAAAUGAAAAAGUGUCUAAGUUUAAAGACAUCAGAAAAAAAGUCGCAAACUCGAAAACAAAAAAAGAGGAUCAAGGA'
p273
aF0.9387755102040817
aa(lp274
S'Mutated chicken feet'
p275
aS'AAAAAAAGUAUCGGGAAAACACGAAGUGAAAGCGCAGGAGGAAGAAAAAGACAAACUAAAACACAGGGUAACGAAGAGAGGAAUUAAAAGCCCAAAAAAA'
p276
aF0.9
aa(lp277
S'Chicken Tracks'
p278
aS'AAAAAAAAGAGUCGCGAGAGAAAUUUUAGGGUCAAAGGAUCAUAAUAAAAGAGUUGCGACUCAAAAGGAUUGAAGAUCAUAACCAAGGAUUCAUCUCUAUUAUAUUAGAAUAAAAA'
p279
aF0.9310344827586207
aa(lp280
S'Looking Back Again'
p281
aS'GACAACAGGUUGAAAAAGCAGGUAAAGUCUGCACAACAAGAGGCGAAUCUAAAAGACGCAGUUACAAAGAUGGAAAUAUCAAAAGUAACAACACAACUGAAGGAGCCCAAAAUGAUACAAAGGUAUCUAAAAAGGGGAUACGUCACAAAGUGACGACAGAAAUUCACGCGCUGGUAAGUUUAACGAGAAGGAGAUUGAAAAAUCAACACAAGAUUUAGCGAUGAAAAUCAAUAGCGCAAAGUAUCCACCAGGUAGAGUUUAAAAAACGAUCAUAAAAAAGAGAGCAAAAAGCUCAGGGAAAUCCAGAUCAGUAAAAAAAGGGUAAAGAAAACUUUACAAGAGGAUAUUCUUAUAGAAGCUAUGUGUUCCGAAAAGACGUUACCAAAGUC'
p282
aF0.9177377892030848
aa(lp283
S'Multilooping 6'
p284
aS'AAUAUACUAGGAUUGUAAUCAAUCAGUAAUAAUUUAUGCAGGAGGAGAUUACUGUAGAUGGUGAAAUGGGUAGUCGGAUGAA'
p285
aF0.9146341463414634
aa(lp286
S'Cesspool'
p287
aS'UAAGAAGAAAACAGCAGAAGAGAGGGAAACCCAACAACAACUGAAGUUGAAAACUUCUUAAGAAAACAAGUAAAAGAAAACAACAGAAACGAGAAGAAAACAACUAAAGGGUUAGAAAUCAUACUACAAUUGAAGAAGAAAACAACAAAAGAAAACAACAAAAAGAAAACAACGAGAACGAAGAUGAAAACUAGAGAAGAGAUAGAAACUGAGCAACAACUGAAGAAGAAAACAACAGUAGAAAACAUCAAAAAGAAAACAAUAACGAAGGAAGAAGAAAACAACCGAAAAGGGAGAAACUCAACAACAACAGAAUAAGGAAAUAAAAGAUGCAAAUUACAAAAAGAAAACAACAACC'
p288
aF0.7653631284916201
aa(lp289
S'Hoglafractal'
p290
aS'AAUAGAUAGAUACAAAAGAUGAAAAAAAGUAACGUAUCGAAAAAAGUUCAAAAGGAACUUUUCAGAAGAGAAAACUACUGAGACAAAGAGAAAAUUUCGAAAAAGAAGGCUCUGCAACAGAAAAACUUCCGCCAAGUAAUCCCAUCACCGAAAGAGAAGGGUAAAAAUUCCUCCUAUCAAAAAGAAGAAGAAAGCACACAUAGAAAAAGAAUUGAAAAAAACCCUAUAAAUUAGCUAAAACGGGCAUUGAAAAAAGCGAAAAAAUGCGGAAAAACCAAACGCAGCCAAAGGCUGCGAAAAAAACAAUGCAAAAAACUAUGAAAAAGGUGUAAAGUCGAUGCAAUUAAGAGGAUAUCAAAAGUAAAAGCGGAAAACCGAUAUCAAAGAUAUCAGAUACUGC'
p291
aF0.88
aa(lp292
S'Bullseye'
p293
aS'AAACGCGAGCAAAUCUAAAGAUUAAAGAUCAACGUUAAAAAUCGCGACAAAAAUGAUGUUAAAAGAGAAAGGUCAAAGAUCAAGUUCAAACAACGUCUAAAAAAAGGGGGACAAGGGCCAUGAUCUAGGAUCUAUUACAAAGCGGACGAAAAAAAACAGGAACGAAGCGCAAUAUCAAGGAUAAAGGCCAAAACUCCUGAAA'
p294
aF0.8712871287128713
aa(lp295
S'Shooting Star'
p296
aS'GGGUAGGAUGCUGAGUCAAGGAGGGCGGGAGAUGGAUCGAAAGAACCUACUCACAUAACCAAGACUAAUAGCCCUUAGACACUGGGAGACGAGGAUAGAAGAGAGCGAAAGAACUCAACUACACUCAGCUCACAAAAGCGUACAAAACAUGACCCAUUGGUGCAAAGUACCACAGAGAAAUGCGGUUGGAAACUACGGUUACGUCAGAUAAGCCCAAGCGCGUUCAAGGAGUGUGACAUAGUAUCUAAGGGGCGCGUAGCAAGGCUACGCAUCUAGAAACUAGAUAUCGAUAAACAAAAGUAGAAAUGGGGGGCAGAUGAGAUUGAAAGUACUCAAGUAUCAACAAGGCAGGGUUCACUACCCA'
p297
aF0.8296703296703297
aa(lp298
S'Teslagon'
p299
aS'AAAAAAACGAAAAAAUUAGCAAAAAAAUGAGGAAAAAAAAAAAAAAAACUAAAAAAAGUGAAAAAAAAAAAAAAACGACAAAAAAAAUCACAAAAAAAAGAAAAAAAAAAAAAAAAACAAAAAAAUCAACGAAAAAAGCACGUAAAAAAAAAAAAAUCCCAAAAAAUUGAAAAAAAAAAAAAAAACCAGCAAAAAAAGCAUCAAAAAAUGGAAAAAAAAAAAAAAACUAAAAAAACGAUCUAAAAAAGUAGUAAAAAAAAAAAAAAAGCGAAAAAAAGAUAAAAAAAAAAAAAAAACAGCAAAAAAAGUAGUAAAAAAAAUGAAAAAAAAAAAGAAAAAAAAAAAAAAAACUAAUGAAAAAAGCAAGAAAAAAAGUAAAAAA'
p300
aF0.9162303664921466
aa.