(lp0
(lp1
S'Simple Hairpin'
p2
aS'GAUACAAAAAAGUAUC'
p3
aF1.0
aa(lp4
S'Arabidopsis Thaliana 6 RNA - Difficulty Level 0'
p5
aS'UCAUGUCAAAAGCCAAAAAAAAAAAGGCACGGACUCGGGAUAUUAUAAUAAGAUUAUAAAGAUGCAAAAAAGCAUCGGUGAUCAUUAUUAUAAUAUCAAGAGUUCGUAAGACAUGA'
p6
aF1.0
aa(lp7
S'Prion Pseudoknot - Difficulty Level 0'
p8
aS'CAACUCAGAUCAAAGGAUCGAGAUUGAAAAAAAAAA'
p9
aF1.0
aa(lp10
S'Human Integrated Adenovirus - Difficulty Level 0'
p11
aS'CUUAGUGGAGCAUCUGCAUGUUAAAAAAAAGUGAGCGGGACAGGAAAAAGGAUGUAGAAAAGGAUAAAAUCUACGAAAAAAAGUAGAUUUUAAAAUUCCCUACAAAAAUCCCCUACACGUCCCAAAACUCUGUAAAAAUCAGAGUGUUCUAAAAAAAAAAUGCAUGCUGAUGAAAACUCCAUAAAUAAGAAA'
p12
aF1.0
aa(lp13
S'The Gammaretrovirus Signal - Difficulty Level 0'
p14
aS'AGGUGGGGCAUGCGAAAGCAUGCAACUCAAAAAAGAUCAAGUCAGAUAUAGACGAAAGUUUAGAAAUAUCGACGAUCGAUUAUAGAUGAAAGUUUAUAGAA'
p15
aF1.0
aa(lp16
S'Saccharomyces Cerevisiae - Difficulty Level 0'
p17
aS'GCAUAUACUGCGAAAAAAAGUAGAGGGAGAAAAAAAAAAAACCAAAAGCUUCAAAAAAGGGAGUUAUAUGCAAAAGAAUCUAAAGAGGUAAAAAAUUCUCGGGAAAAAAAAAAAAACCCAUGUCAUGUUAAAAAUAUAUGUAGAUUCAAAAGCAUGUGAGGACUGAAAAAAAGGUCGCACGUUAAAAAUAUGUGUAAAAUAUCUAAAAAAAAGAUACACAUGCGAAGGAAUGUCAAGCGCAAAAAAUGGUGCGAUUGUAAAAAAGACAAUUAAAAUAUGCAAAAAAGGUAUAGACAUUCAAAGGUAAGUAAAGGUGAAAAAAAGCGCCUAUCAGGAAAAAACUGAUAAAACAUUGCGAAAAAAGCAAUUACUUGCAAAA'
p18
aF1.0
aa(lp19
S'Fractal 2'
p20
aS'AAAAGUCUUAUGUGAAUGGUCGACUUAAUUACUAAAAUAAAUGUAAAAGCUGCAAAAAAAAUUAGCCCGGUCAAAAAAAAACGACUAAAAGUCGACCAGAAUAUACGUCUCGAAGGGAAAAAAAAAGCCCUGAGUUCAAAAAAAAAAGGACAAGUUCGAAAAAAAAAGAACAAGAGACGUGUAGAAGAGAACUUUCAAAACCGAAAAAAAAAGGUUAAGAGUGAAAAAAAAAACUCGAGGGCGAAAAAAAAAGCCUAAGAGAGUUUUCGAAGCAUAGGGAAAAA'
p21
aF1.0
aa(lp22
S'G-C Placement'
p23
aS'AUGCAAAGCAUA'
p24
aF1.0
aa(lp25
S'The Sun'
p26
aS'AUCAGGAAGUGAAGUACUAAGGCGAUAAGCACAGCUUGUCAAAGGCAACACCGUGAAACAGAGAGGGUCGAGGAUAAUCGCCUGAAGGACAUCUGGUGAAACACUAAUGGGUCAAACCCAACAGUGGAAGUCACAAUAAGGGGAAUACAACAAGUCAAAGACUAAUGUGUAGAACUAAGCCUCUCAAAGACAAAUGCAGGGAACGACGCAAGACAAAGACAAAUACGCGGAACAGAGCAUGGCUAUGCUAAAUGCAUG'
p27
aF0.8294573643410853
aa(lp28
S'Frog Foot'
p29
aS'AAAAAAAAAAGCUCGAAAGGGCCUACUAAUGUAGCGUCAAAGACG'
p30
aF1.0
aa(lp31
S'InfoRNA test 16'
p32
aS'GCAUGUGCCACAUUUUAAUGAGUGCUGAGGGCAUGC'
p33
aF1.0
aa(lp34
S'Mat - Martian 2'
p35
aS'AUACGAAAGUAUAAAGCAUGUCAAGCAUGUCCAAAAAAGACAUGCGAUAUGCAAAGCAUGUACAAAAAAGCAUGUCAGCAUGUCCAAAAAAGACAUGCGAUAUGCAAAGAUAUUAUAAUAUCAAAAAAAGAUAUUACUGAUAUCAAAAAAGUACAUGCAAAGAAUAUCCUAUAAUAAAAAAAGUUAUAGAAGAUAUUCAAACUGCGAAAGCAG'
p36
aF1.0
aa(lp37
S'square'
p38
aS'GCAUGUCCAGUACCAGUAUCCAGUACAAAGUACUGAAAAGAUACUGAAAAGUACUGAAAAGACAUGC'
p39
aF1.0
aa(lp40
S'Six legd turtle 2'
p41
aS'AAAAACAAAGUUGAAAAGAACUACGCUGAAAAGCAUUGGCAAAUGGAAACGAAAGUUAAUGUAAGACGAAACGACACGACAAAAAAAAAAAAAAAAAA'
p42
aF0.9183673469387755
aa(lp43
S'Small and Easy 6'
p44
aS'AUGAGAAAUUCUGCGUAAAAAAAAGGACAC'
p45
aF0.8666666666666667
aa(lp46
S'Fractile'
p47
aS'AAAAAAAAAAAAGGGAGACUGAGGAAAGGUGAAAACAUUAGCAAAAAAAAGGAAAGUAUCGAAAGGAAAUAAGUGAUAGGGAAGACAAAAAAAAAAAAAAAAAAA'
p48
aF0.9619047619047619
aa(lp49
S'Six legd Turtle'
p50
aS'AAAAAUAUAAAGGAAAGCCGAAAGCGAAAGUGAAAGUGAAAGGAAAGGGGAAACUAAAGCAGAAAUGAAAAGGCUAGUCGAAUUACAAAAAAAAAAAAAAAAAAA'
p51
aF0.9619047619047619
aa(lp52
S'snoRNA SNORD64'
p53
aS'GCAUGCAAAAAGUCAAAAGUCAAAGAUACAAAAAAAAAAAAAGUAUCGAAAGACAAGACAAGCAUGC'
p54
aF1.0
aa(lp55
S'Chalk Outline'
p56
aS'AAAAUGGUCGGAGCGAAAACGACUCGAUGAGUCUAAUGACCAUAGCAGCUAAAAAGACUGCACCCACGAAAGUGAGGGACCUCGAAAAAAAAAAAAAAAAAAAA'
p57
aF1.0
aa(lp58
S'InfoRNA bulge test 9'
p59
aS'UUCGGUCAGAGAGUGCAGGUCAAAGGACUUGCCCCGGCCGGA'
p60
aF1.0
aa(lp61
S'Tilted Russian Cross'
p62
aS'AAAAAGAUCGUCCGAAAGGACCACCAGAUUGAAAAAUCGACACUAAUGUGUCAGUUAGAAAUAACGGUGCAGCGAAAGCUGGGUCGCAAAAAAAAAAAAAAAAAA'
p63
aF1.0
aa(lp64
S'This is ACTUALLY Small And Easy 6'
p65
aS'AAAAAAAAAAAAAAAAAAAAAAAAAAAAAAAAAAAAAAAAAAAAAAAAAAAAAAAAAAAAAAAAAAAAAAAAAAAAAAAAAAAAAAAAAAAAAAAAAAAAAAAAAAAAAAAAAAAAAAAAAAAAAAAAAAAAAAAAAAAAAAAAAAAAAAAAAAAAAAAAAAAAAAAAAAAAAAAAAAAAAAAAAAAAAAAAAAAAAAAAAAAAAAAAAAAAAAAAAAAAAAAAAAAAAAAAAAAAAAAAAAAAAAAAAAAAAAAAAAAAAAAAAAAAAAAAAAAAAAAAAAAAAAAAAAAAAAAAAAAAAAAAAAAAAAAAAAAAAAAAAAAAAAAAAAAAAAAAAAAAAAAAAAAAAAAAAAAAAAAAAAAAAAAAAAAAAAAAAAAAAAAAAAAAAAAAAAAAAAAA'
p66
aF1.0
aa(lp67
S'Shortie 4'
p68
aS'GCGAAAGCAGCGAAAGC'
p69
aF1.0
aa(lp70
S'Shape Test'
p71
aS'AAAAACGGAUCAAGAUACAAAAAAAAGUAUCAAGUCAUACAGAUACAAAAAGUAUCAGAUCGAAAGAUCAGUAGACAAGAUCGGAAAAAAAAAAAAAAAAAAAA'
p72
aF1.0
aa(lp73
S'The Minitsry'
p74
aS'GGCAAAAAGUCAAAAAGUCAAAAAGUCAAAAAGUCAAAAAAAAGACGGACAGACAGACGGCC'
p75
aF1.0
aa(lp76
S'stickshift'
p77
aS'AAGUGUGCUCAAAAAGACGCACACAA'
p78
aF1.0
aa(lp79
S'U'
p80
aS'AAAAAGAUACAGAGAGUAGAGGAGGUAGUAUAGGCUGCUUUCCACCCGUAUCGAAAA'
p81
aF1.0
aa(lp82
S'Still Life (Sunflower In A Vase)'
p83
aS'AAUCAGCAACAUGCGAAAAGCAUGAAGUUACAAGGUAGCAGGGGACAAAAAGGAACAAGUGAUGAAAUCACAAGAGUCAAAAAGACUCAGUAUAAAAAAAUUAUAAAAAUUUUAAAAGAUUUUAAUAUCCAGACAAAAAGGUCUGAUAUAGAAAAAAAAAAAAAGGUCAAAAAAAAAAAAAAAAAAAAAAAAAAAAAAAAAAAAAACCGGACUGCGAAAAAAAAAACUAUAGAAUCGAAAGAUUCAGAUAUUAGGAUUUUUUGGGAUUUAAGGCCUAAAACAGAACAAGAUGCGAAAAGCAUUAGAACACAAAAAGUGUUAAGAUUCAAAAAGGGACAUGAUACGAAAGUAUCUGGGAACAAAAAGACUCAGCUGUAA'
p84
aF0.9735449735449735
aa(lp85
S'Quasispecies 2-2 Loop Challenge'
p86
aS'AAAAUGAGGCUGGAGGAUCGAAAGAUCGGCCAGGGAUCGACUAUGGAGAUCAGGUCAAGCUGUCAAAAAGACUCCCAGACCCCUCUAAAAAAAAAAAAAAAAAAA'
p87
aF1.0
aa(lp88
S'Corner bulge training'
p89
aS'AGCGUGGCAGACGAAGUCUGAAAAUCAUGCA'
p90
aF1.0
aa(lp91
S'Spiral'
p92
aS'AAAAAGAUCAGCAUGCAGUCAGAUACAGAUCAGAUCAGUAGUAGUAGUAGUAGCAAAAAGCACACACACACGAUCGAUCGUAUCGACGUAUGCGAUCAAAAA'
p93
aF1.0
aa(lp94
S'InfoRNA bulge test'
p95
aS'AAAAAAAAAAAAAAAAAAAAAAAAAAAAAGUGGAAAAAUGCCUUAAACACGUAAGGAGGAGCUCGCACCGAAAAGGAUGAGAUGCGACUACCGAUCGAUGGAAAUAGCGCUAAAAGCCGACG'
p96
aF1.0
aa(lp97
S'Worm 1'
p98
aS'AAAAAAAGGUUUGGGGAAACGUGGAAAAUAGAGAUACACUGUGGC'
p99
aF0.9555555555555556
aa(lp100
S'just down to 1 bulge'
p101
aS'AAAAAGACCAUAGACGAAAGUCUAAGUCGAAAGACAGGAUCAAAAGAUCAUACGAAAGUAAGUCGAAAGACAGAUCAAAAAAAAAAAAAAAAAAAA'
p102
aF1.0
aa(lp103
S'Iron Cross'
p104
aS'AGUCAGUCGAAGGGAUACAAAGUAGGUCGAAAGACACCCGAAGGCACACGAAAGUGGGACAAAGUCAGCCGAAGGCAUACGAAAGUAACUCAAAGAGCGCCGAAGACAUACAAAGUAAGACGA'
p105
aF1.0
aa(lp106
S'loops and stems'
p107
aS'AAAAAGCAUGUCAAAGAUGAAAUAUCAAAGAUCAAAAAAAAAGAUACAAAAAAAAAAAAGUAUCAAAGAUCGAAAGAGCAAAAAAAAAAGCUCGAAGAUAACAGUCAAAAAAAAGACAAACAUCAAGCAAAAAAGCAAAGACAUGCAAAAA'
p108
aF1.0
aa(lp109
S'Water Strider'
p110
aS'AAAAGGAGGUCAUCAGCAGUUGAAAAGCUGCAAAGGCGGUUAGGGAGGAGAGAAAGCUCCGAGAAAGUGAUAAGAAGGUAUUAAAAAAAAAAAAAAAAAAAAA'
p111
aF0.941747572815534
aa(lp112
S'The Turtle(s) Move(s)'
p113
aS'AAAGCGAAAGCAAAAGCGGUCUACAAAAAAAAAGUAGACCGUAAAAGAUCAAAAAGAUCAAAAAGUCGAAAGACAAAGAUACAAAAAAAGUAUCAAAAGGCAAAGCGAAAGCAAAAAGUCGAAAGACAAAAGCAUGCAAAAAAAGCAUGCAAAACACGAAAGUGAAAAACAUAACAAAAGUCCAAAAAAGACAAGUCAAAAAAAAGACAAAGAUGCAAAAAAGCAUCAAAGAUGAAAAACAUCAAGUUAUGAAAAAAAAAGCGAAAGCAAAAAGCAAAAGCAAAAAACAUACAAAAAAAAAAGUAUGAAAAAAGCC'
p114
aF1.0
aa(lp115
S'Adenine'
p116
aS'GCGACGGCUUGCGGCGUCGAGCGUGCAGAAUGCUGGGUGCGAAAGCAUGCAAAAAAGCAUGCAGCAUUCUCAUGCAAAGUCUAUCGAAGAUAGGCGCAUGUGCGUUCAGAUAACCUAUGCAAAGUAUAGGAAAUUAUCAGCAUGCAAAACGACGCAAAUGCAGGCAAAAGUUGC'
p117
aF1.0
aa(lp118
S'Tripod5'
p119
aS'AACGUCGGGAUAAAUUCCCCUGCGAAAAGCGGGAUGAA'
p120
aF1.0
aa(lp121
S'Shortie 6'
p122
aS'ACGAAAGUAGCGAAAGCAGCGAAAGCAGCGAAAGC'
p123
aF1.0
aa(lp124
S'Runner'
p125
aS'AAAAAGAUCAGCGCAUAAACAUCUAUGAUGAGCGCAAACGCGACGGUCCUAUGCAAAACAGAAGUUAUAUUAAAAAUUCAGCGAAUUUGACAGUCGAAAGACAUAAGGAUCAAAAA'
p126
aF0.9482758620689655
aa(lp127
S'Recoil'
p128
aS'AAAAAGAUACAAGCAAGCAAGUCAAGUCAAGCAAGCUCAGCAGCAGACAGACAGCAGCAGUAUCGAAAAAAAAAAAAAAAAAAAA'
p129
aF1.0
aa(lp130
S'[CloudBeta] An Arm and a Leg 1.0'
p131
aS'AAAAAGUCAGAGCGAAAACGACUUAUGAGCGAAAGCCAUAGACGAAAAAAAAAAAAAAAAAAA'
p132
aF1.0
aa(lp133
S'[CloudBeta] 5 Adjacent Stack Multi-Branch Loop'
p134
aS'AAGUCGUGGAAAGCCACCUAGCGAAAGCUAGCAUACGAAAGUAUGUAGUGAAAACUAGACUUA'
p135
aF1.0
aa(lp136
S'Triple Y'
p137
aS'AAAAACUGCCGCCGCGAAAUGUCGAACGCUAAUGCAUACCGCCGCAGCUAUAGGCCUCUACUAAUGUCAGCAAGUAGGAAAAAAAAAAAAAAAAAAA'
p138
aF0.9587628865979382
aa(lp139
S'Misfolded Aptamer'
p140
aS'GAUCUAAAAAGGCACAAAGUGAGCGAAAGCAAAAAAAAACCAAAAUGAUC'
p141
aF1.0
aa(lp142
S'Flower power'
p143
aS'AAAAAUUUCCCACAAAGGGGAUAAUUGGCAAAGCCAACAGUCUAUGGUUUUUUCCAAUGAGAAAUAAAUAGUAUUGAGGGAAGAAAAAUAAAAAAAAAAAAA'
p144
aF0.9215686274509803
aa(lp145
S'Kudzu'
p146
aS'AAAAACUGGGUGGCAACCCAGAUCAGUUCUAGGGGUCGGCAUGCGAAACACCAAGAAGUCUAUGUUAAAGUUUCAUCGCGUGAAAAAAAAAAAAAAAAAAA'
p147
aF0.9405940594059405
aa(lp148
S'"1,2,3and4bulges"'
p149
aS'AAAAAGGUAAUCCAGAAAGCUUAAACGGGUUUGUAAGAAAUAAUCAAAAGGCCGAUCGAAAGCGAGUUGUGGAAAUAUACGAUUGAAAAAAAAAAAAAAAAAAAA'
p150
aF0.9238095238095239
aa(lp151
S'medallion'
p152
aS'GCACGCACAUAACGAAAGUUAUGGAGGAAAACCUAUACGAAAGUAAUGUAGCGAAAGCUACAAUACGAAAGUAAUGUAGCGAAAGCUACAAUGCGAAAGUAAUACGAAAGUAAUGUAGCGAAAGCUACAAUACGAAAGUAAUGUAGCGAAAGCUACAAUACGAAAGUAAUACGAAAGUAAUGUAGCGAAAGCUACAAUACGAAAGUAAUGUAGCGAAAGCUACAGUACGAAAGUAAUACGAAAGUAAUGUAGCGAAAGCUACAAUACGAAAGUAAUGUAGGGAAACCUACAAUACGAAAGUAAUACGAAAGUAAUGUAACGAAAGUUACAAGCGUGC'
p153
aF1.0
aa(lp154
S'[RNA] Repetitious Sequences 8/10'
p155
aS'AGGAAAAAAGCAAAAAAGCAAAAAAGCAAAAAAGAAAAAAAUCAAACAAGCAAUAAAGCAAAAAAGCAAAAAACCAAAAA'
p156
aF1.0
aa(lp157
S'Documenting repetitious behavior'
p158
aS'AAAAAAACUUAAUUUAAAGGUAUUCUAAUGAAAAUGUAAUGCAGAUUUAAGGGGAACAAAAAGCUAGUUAAAAGGGAAUAUAAUAGGUAUAUAAAGCAAAAAAAAAGUAAAAAAGUUGAGAAAAAUAAGGAAAAAAUUGCGUGAAAAUUAGGAAAAAAUUAUUGAAAAAGCAUUAAAAAAUUAGGUAAACAUCCGGGAAAAAAAACCAGAUAUAAUAUGAAAUUAAAAGAAAAUUAAAAAGAAAUUAAGCCGAAAUUAAUCGAAAAUUAAGCCGAAAUUAAAUCGAAAUUAAAACGAAAAAAAAGCCAAAAAUUUCUUAAAAAUUACCGAACAAGUUGCGAAAAAUUACCAAAAAAUGUGUUAAAAAUCGUCUAAUUACGUCCGAAAAACAUAGGAAAAA'
p159
aF0.925
aa(lp160
S'7 multiloop'
p161
aS'CCGGGGACUUAAUAGUCCGAGACGAAAGUCUCCAUCUGAAAGGAUGGGUGCAAAGGCACCGCGCCUAAUGGCGCCAUACUAAUGUAUGCCGG'
p162
aF1.0
aa(lp163
S'Kyurem 7'
p164
aS'AAAACCGGUCAAGGAAAAGUUCCACAAAAGUUGGUACUAAAUGGAACUGUGGAAAAAGGUAAAUCAAUACUGUCGUCAGUCCUAAAAAAAAAAAAAAAAAAA'
p165
aF0.9803921568627451
aa(lp166
S'JF1'
p167
aS'CAUACUCCUAAACACACAAGAUACAAAAGCAUGCAAGAUACAAAGAGAGAAGACAAAACAUAUUAUAAUAUCGAAAGAUAUUAUGAUAUGAAGUCGAAAGACAGCAUGUAGUUUAAACUACAUGCAAGAUACGAAAGUAUCAUUUGUCACUCUCAGUAUCAGCAUGCAAAGCAUGCACAAAAAGUGACAUGCAAGAUAUUAUAAUAUUAUAAUAUUAUUUAAGUGAUAUUAUGAUGUUUAUGAUAUCAAAGAUACAAAAAAGUAUCCAUAAUAUCUUUAAGGAUAUUAUGAAAUUGGAAAACCAAAAGUAUCAAGUGUGAAUACAGUCAGUCGAAAGACGACGUAUAGCAGCAUGCGAAAGCAUGACUGCAUUAGAGAGAUAUGAAA'
p168
aF1.0
aa(lp169
S'multilooping fun'
p170
aS'UAAUGGCUUAAAUGAUGAAAAAGAAAUGCGAACGUG'
p171
aF0.8333333333333334
aa(lp172
S'Multiloop...'
p173
aS'GAUCAGAUCAGUCGAAAGACAGUCGAAAGACAGUCGAAAGACAGUCGAAAGACAGUCGAAAGACAGUCGAAAGACAGAUCAGGUACAAAAAAGUACCGUCGAAAGACGAUC'
p174
aF1.0
aa(lp175
S'hard Y'
p176
aS'AAAACGAUUCGACCAUCUAAAAAGUUGGAUGCGCGUAAAAGUCUUUAAUAAGACUUUUAAAUCAAAAA'
p177
aF1.0
aa(lp178
S'Mat - Elements & Sections'
p179
aS'AAAAAGAUCAGUAAGGGAGAUGAGCGCAUUAGACCAGCGGGCGAAAGCCAGAGGGUCGCGGUGCAAAACUUCUCGCAGUCGGAUCGAAAAAAAAAAAAAAAAAAA'
p180
aF0.9619047619047619
aa(lp181
S'Chicken feet'
p182
aS'AAAAAAGCACGCUACGAAAUUUCAAAAAAGAUCAGGCAAAUUACAAGGUUGGAAAAAAUUCCACAAA'
p183
aF0.7910447761194029
aa(lp184
S'Bug 18'
p185
aS'AAGUUGAGUGACUAUCAACGAGCUAACCGACGAAGUGUUAACGAUGGAAUGCA'
p186
aF0.9622641509433962
aa(lp187
S'Fractal star x5'
p188
aS'AAAAACAUAAUAAAAGAUCGAAAGAUCAAGAUCGAAAGAUCAAGAUCGAAAGAUCAAGAUCGAAAGAUCAAUUAUUAUGAAAAACAUAAUAAAAGAUCGAAAGAUCAAGAUCGAAAGAUCAAGAUCGAAAGAUCAAGAUCGAAAGAUCAAUUAUUAUGAAAAACAUAAUAAAAGAUCGAAAGAUCAAGAUCGAAAGAUCAAGAUCGAAAGAUCAAGAUCGAAAGAUCAAUUAUUAUGAAAAACAUAAUAAAAGAUCGAAAGAUCAAGAUCGAAAGAUCAAGAUCGAAAGAUCAAGAUCGAAAGAUCAAUUAUUAUGAAAAACAUAAUAAAAGAUCGAAAGAUCAAGAUCGAAAGAUCAAGAUCGAAAGAUCAAGAUCGAAAGAUCAAUUAUUAUGAAAAA'
p189
aF1.0
aa(lp190
S'Crop circle 2'
p191
aS'AUGCGUGAAAGGCGAAAAGUUAAAAAAAGUUGAAAAAAAAAAAAAAAAAAAAAAAAAAAAAAAAAAAAAAAAAAAAAUAUAAAAAAAAAGUAAAAAAAGGAAAAAUAAAA'
p192
aF0.9454545454545454
aa(lp193
S'Branching Loop'
p194
aS'AUUUCAAAAAAAAGGAUUAAAAGUAGUGAGAGGGAAAAAA'
p195
aF0.95
aa(lp196
S'Bug 38'
p197
aS'AACGAAACGAAACGGAAAUAGUGCGCAGUAAAGGUA'
p198
aF0.9444444444444444
aa(lp199
S'Simple Single Bond'
p200
aS'AAAAAAGGAAAAAAAUGUGCUAAAUGUAUUAAAAAAAACAAAAAAAAAAAAAAAAAAAAAA'
p201
aF1.0
aa(lp202
S'Taraxacum officinale'
p203
aS'CUACGAAAGAUAGACUACGAAAGAUAGACUACGAAAGAUAGACUACGAAAGAUAGACUACGAAAGAUAGACUACGAAAGAUAGAGAUAGACUAUCGAAGCGACUACAAAGUAGAUCGCUUCAGAUACAAGACAAGUCUCAAGACAAGCAAAGCUUGUCAGAGACUUGUUGAUCAGCAUGCAAAGCAUGCGAUCGUAUCGACGAUAGUCUAUCAGAGCGAAAGACUCACUACGAAAGAUAGACUACGAAAGAUAGACUACGAAAGAUAGACUACGAAAGAUAG'
p204
aF1.0
aa(lp205
S'Headless Bug on Windshield'
p206
aS'UGCUCGAAAAAGGUGUAGACUAGAGAAAAAAAAAAAAAAAAAAAAAAAAACUUAAGAAAGCAACCGAACGUGCAGGCAAGGCAACGAAAAAAUGGGAAAUCUAAAAAGCGGCCAAAAAGGCUAAGGUAAAAAAAGGAAAAGAUUUUCAGGCACGCAAAAAAAAAUAAAAAGUCGUGCGGGACUUUCGCUUAAAGAAGCAA'
p207
aF0.96
aa(lp208
S'Pokeball'
p209
aS'AAAGCAUGUUAAAAUCAAACAAUAUAAGAGCAAAAGAAAGGCAGCAAUUAAAGCAACGGGCAUCAAUAAUCAGUAAGGCGCAACAUGCAAAAAAAAGCAUUAAAAAAGCAGGCAAGGGCAGAUAUCAAGGACAAUAGCCAGCAACGCUGCAAUCACCGGACGUCAACCAGCAGCUUGAUGCAAA'
p210
aF0.9782608695652174
aa(lp211
S'Variation of a crop circle'
p212
aS'AAAGUGGAAAUCAAAUUGAAAAGUAAUCUAGGGCACCGCGGAAAGGCGAAAAACAUAAAAAAGGAAGAAAAAAUGAAAAAAAAAAAAA'
p213
aF0.9545454545454546
aa(lp214
S'Loop next to a Multiloop'
p215
aS'AAGCUCGUUCGAAAAAAGGGGAUGCAAAGGCAUUCAGAAUUUCUAAUGAGAUUCGUAAAAAAAGGACGAGCAA'
p216
aF0.9726027397260274
aa(lp217
S'Snowflake 4'
p218
aS'CUGCCAAGCUGCAUACCCAUAGGGGAUAUUGCAGACUCUUCGGACAUCUCUAGAAAUUAGAAGUUUAAAAAACGGAUGCUUAAUGGGUCUGAAGAAUCCGAUAGGGGAGGGUGUAUAUUACAAAACGUAAAACGUCCUUUCUAUAGCGGGUUCGGUGUACACAUAAGUCAAACAGGCGAAACCAAACGGAAAAGCCCGUUUUAUAUACGAGAAUCAAGAUAACUAUAAGUCAUAUUGGGAAGCCCAAACUGCACAGUUGAUAUGAGGCAGUGGUAUCGGAUGACUUCUAAUGGAUAUCCCCAAAGCUGAAUAGUGAAGAUAAUAUUUUAAAAGGGUCUUAUGUAUGUUGAACGCGUAUGCUGCGAAGCAG'
p219
aF0.7756756756756756
aa(lp220
S'Mat - Cuboid'
p221
aS'AAAGUAAAAGCGAGCAAAAGCAAGCAAAAGAUGCGAGCAAAAGCGAACAGGCAAAAGAACCGAUCAACGAAAAGGGAGCGAGCGAGCAAAAGCGGUCGAGCGAGCAUUCAAAAGCUUGCUGGCUUGCAUGCAAAAGCACGUGUGUUUGCUUCCGAGGAAAAGAAUAGUGGUUUCCAGACAGGCAAAACCGAGGCUGCGUCCAAGAAGACAAAAAAGUAGUUGGGGUCGUGACCGAGGGCGGGUGAGCGUGCAAUUGGUCUCGAGGGAGCUGACGGACUGGCGCGCGCGGACAAGCCAGCAGUAGCGAGCACGCAUGCGCGUGCAAGCAUCUCGGGGGAUGGGACGCAGGCAUGUGCGUUCUACGCAGGCACGGGCGUCAU'
p222
aF0.7684210526315789
aa(lp223
S'Misfolded Aptamer 6'
p224
aS'AAAAACGGCAAAAAAGAUCAAGGAAGCUCAAAAAAAAGGGAAAACGAAAAGGUCGAAAAAGGUCAAAAAAAAAAA'
p225
aF1.0
aa(lp226
S'Snowflake 3'
p227
aS'GCGCUUUAAGGAGUCCUCGAAAGAGAUGAGCAGAGGAAGUUCAAUGACAAGGGCGAAAGACAUAAAGUGGUGAAAGCCUUGCUUGAAAAGGAACAUCGCUGCAAACCGAAAGGUCAGUGCGAAAGUUACAAAGUACCGAAAGUCCUGGCCGAAAGGUAGACAGAGAGCCAUGGGAAACCACAGCGCAAAGGUAACAAUGUACGGAAACCCCUGCACGAAAGUGAAUACUACUGCAAGGAGAAAUCCCACUGCGAAAGCUACAAACGAUGGAAACAAGUGGACGAAAGUCAAGCAUGGUGCAAGUUGAAAGACCAGCGCGCCAGCAACAAGGUAUCGAAAGAACGGCACUAAUGUGAAGUUCAGCUCUAGUCUAAAGACGAUCCAGAAAUGUAC'
p228
aF0.8473282442748091
aa(lp229
S'Hard Y and a bit more'
p230
aS'AAAAUGACCUUGGGCUAAAAAGUUAGACCGUAUGCUGCGAGAUCUAAUGAUCAAGAGUCGAAAAAGGCUCAAGUUGCAUGGGGUUUAAAAAAAAAAAAAAAAAAAA'
p231
aF0.9716981132075472
aa(lp232
S'Mat - Lot 2-2 B'
p233
aS'UGGGUCUAGUUCUUACAAAAGCUAGAACAAAGGUUAAAUCGAGCGCGUGAAAAAACCAGAGCGUGCAAGCGGCUGGACUCAAAAUCUGGAGCUCACAAAAUCGAAAGAGUCAGUAAAAUCAAGGGGGGCCAUUUGCAACUUCACGGUUUUCAACUUUCAAAAACGAGAGGGAAACUAAAAUCGAGUGGGCGAAAAAAAGAAUGCGACUAAAGAAGCUAUUGCAAAAGCAAGAUAUUGCAAAAGUGAAAGCGCGAUAAAAAUCGGGCGCGAUAGCUUGCAACAAG'
p234
aF0.8028169014084507
aa(lp235
S'Shapes and Energy'
p236
aS'AAAAAGUGGUUGAUAUGAAACAGGUCGACAUAAAGUGUUUGGAAUCAUGGUGGUGUGCACUUCUAAUGGGGCUGCGACAAUAAAAAAAAAAAAAAAAAAAA'
p237
aF0.9207920792079208
aa(lp238
S"Spiral of 5's"
p239
aS'CAAAAGAUACGAAGAUGAAAUGAUAAAAAAGAUACAAAGAUACAAAGAUGAAAGAUACAAAAGAUACAAAGAUGAAAAGAUAAAAGAUACAAAGAUAGAAAGAUUUAAGAUACAAAGAUAAAAGAUACAAGAUACAAGAUACAAGAUACAGUUACUGAUAACUAUGAAAAGCAUAGAGCGCCUAUCUAAACGUAACAAAAGGUAUCAAAAAGUAUCAAAAAGUAUCGAAAAGUAUCAAAAAUUAUCAAAAAGUAUCAAAAAAGAUCAAAAACUAUCAAAAAGUAUCGAAAAUUAUCAAAAAUUAUCAAAAAGUAUCAAAAAGUAUCAAAAAUUAUCAAAAAGUGUCAAAAAGUAUCAAAAAUUAUCUAAAAUCAUCAAAAAGUAUCGAAAAGAAAAA'
p240
aF0.9949622166246851
aa(lp241
S'Campfire'
p242
aS'AAAACUUCAAGCUUCAAGGGGAACUGCAAAAAGCAGCUGGUAAAAUACACAGCCCCGCCCUCGCUACCAGAUUAGAAAUGAAUCGCGAAAGGAGUUACGAGCGAAAGCCGCAAACUAGUGGAAACAGCAAGUUAAACACGGGACAGGCGAAGCUAUUCUCAGACAGAUGAAAGUAUCGUCGAAGUACGCCCUAUGGGACGAUGCUGAAGACG'
p243
aF0.9245283018867925
aa(lp244
S'Anemone'
p245
aS'AAAGCUUGCGAAAGCAAGCGUUUCGAAAGAAGCGCCUGCAAAGGCAGGCGACCCUAAUGGGUCCAGUGCGAAAGCACUGCAUUCGAAAGGAUGGAUUCGAAAGGAUCGCAUGUAAAGGCAUGCAGUUGCGAAAGCAAUGACAACGAAAGUUGUCGAUGCGAAAGUAUCGAGAAUGAAAGUUCUCCAUACGAAAGUAUGGUUAAAGAAAUUUAAC'
p246
aF1.0
aa(lp247
S'Fractal 3'
p248
aS'AAAAAGAUCACAGAUCGAAAGAGCGAAAGCACUGAGGCAUCGAAAGAGCGAAAGCAGCCAGUCAUCGAAAGAGCGAAAGCAGACAGUCAUCGAAAGAGCGAAAGCAGACAGAUUAAAAA'
p249
aF1.0
aa(lp250
S'Kyurem 5'
p251
aS'AAAAACCAUUAGGACUAAUCACACGAAAAGUUCGGUCAAAUAGGAAAACAGGAACCACAAAAAGCUGAGAGCGCACUGCAAUGGGCAAAAAAAAAAAAAAAAAA'
p252
aF0.9807692307692307
aa(lp253
S'Snowflake Necklace ( or v2.0 )'
p254
aS'CUGAUUACAAUAUUAAAAUAGAGUAAAAACCACUAAAAACGGCUAAAAAAGACAAAAAAAGACAAAAAAAGACUAUUAGUCAAAAACACAUACUCUCUAAAAAAAAGUAAAAAACAUUAAAAAAGACUAAAAAAGAAUAAAAAAGUGACUAAAAUAAAAAGACAAAGUAACCAAAAAGGACGAAAAACGACUAAAAAAUACCAAAAAGGACUAAAAAAGAUAGUUAGUGAAAAAUACGAACGCACUUAAAUAGACUAAAAAAGACUAAAAGAGAGUAAAAAACACUAAAAAAGAGCGUUAGUCAAAAAGACAUAGUAAGUAAAAAAGACUAAAAAAUACUAAAAAAGACUAAAAAAGACUAAAAAAGAUACUAAUGAUAUUGUGAUUGG'
p255
aF0.8508997429305912
aa(lp256
S'Methaqualone C16H14N2O Structural Representation'
p257
aS'AAAAAAAGAUCAGAUCAUGCAAUGAAAACAUAGUCACACUAAUGUGAGUCAUUGGAAACAAAUUCACAUGAAAGAGACAGGAAAAAAUUGAGAGAGACAGACAACAAGAAACAGAUCAGUACAAAGGAGACAAAGUUCAACAAAAAAAAGACAGGCAGCGGAAAGACCCCGAAAGGGUACGAAAGUAGACGUCAAGGAUCAGUAUAAGUUAGUAAGAGAUAGAGUCAAAAGGCGAAAGCCGGACAGUCAAAGGACACUGAGCUAAAGAGCCCUGAGUCGAAAGACAUACAGUCAACGAAAGUGUACGAAAGUGACACGAAAGUGGCCAGAUAGAUCAAAGUACAGAUCAAAAAAA'
p258
aF0.9380281690140845
aa(lp259
S"Cat's Toy 2"
p260
aS'AAAAGAGCUCAUGAAAGGGAUAAAAAAAAAAAAAAAAAAAAAACAAAGGUAAAGCCAAAGUGUAUGAGCAAAAAAGAGAAAAAUCAUGGGCUCAAAA'
p261
aF0.9587628865979382
aa(lp262
S'Zigzag Semicircle'
p263
aS'AAAAAUGUAAGAAUGAAAGAGCCUAUAAAUGAAA'
p264
aF0.9411764705882353
aa(lp265
S'Short String 4'
p266
aS'AAAAAAGCACGGAGGGGUGAGGCAACCGGGAACGUCAAGGAAUAGUAAUUGAAAAGGGACCGGAAAAAUCGACACCAAAAAAAAAAAAAAAAAAAAA'
p267
aF0.9587628865979382
aa(lp268
S'Gladius'
p269
aS'CGAAAGAACUACGUGAAGAAGCCGAGGAAGCCAGUCAAAUAGCGAAAGUUAAGAUACAGGUGUCAAGAGAUCAGAAGAUCAAUAGAUAUCAUAGUAUAGAGAUACACAUUAGCUCUAGAUCAAAGAUCUGAGACAGUGGAUAUCCAUAUACGAUGAUAUCACAAGAUUAAUAGAUCACCGGACUACAGUAUCAGACAAAUUCUGAAUCACAAGGCAUAAGAUUGCAAAUUCACAAGAUAUACAACUAUCACGUGUAGCAUAGCCUCUGCAUUCGAAAGGAUGCGUGAGAAUAUGACACGCAGGAUGGAAGUAUAUCAGAGGAAUAGAAGGUCAGAAGCCAGAAGAUUCUGCUCAAAGGAGCAAAGAGGGACAAACUAGGCGGCAGAAAAAUGGACGAAAG'
p270
aF0.91
aa(lp271
S'Thunderbolt'
p272
aS'ACAAGUUACAAAAAAAUGAGCGAGCGGAAAAGGAAAAGAGUAUUUAAAAAAAAAAACCAAAAAAGUGCAAAAAGCACAAAAAAGGAAAGCAUGCAAAAAAAGUUCAAGAAAGGACAGGCUAUCUAAAACUAAUGAGAAGAAAAAGUCAAAAACUAGCACGAAGGGCCUGAAAAAGACAGAUCAGACAAAAAAACAUGUGCUCUGCUCGAGAAAAAACCGAAGAUCAAAAAAAACUUCAAAAGAGAUGCCAAGCAAUUGGAGUGUACAAAAAAAAGGCGGGCAAAAAAAAAAGUUAAAAAGUAUAUCUAAAAGAAAAAAAACGAAAUGGUAUAAAGGGUCAGGUAAAUACAAAAAAAACGGCAAGCGAUAAAAGAAAAAAACGGUGACAGGUA'
p273
aF0.9540816326530612
aa(lp274
S'Mutated chicken feet'
p275
aS'AAAAAAGGCUCUAAAAAAUCGCAAGAUGGAAGGGCACUAGGUUAAAAUCUAUUCAAUAAAUCACAGUACUGGCGAAGUAUACCAUAAAAAGCUAAAAAAA'
p276
aF0.76
aa(lp277
S'Chicken Tracks'
p278
aS'AAAAAAAAGCAUGUCGAUCGAAAGAUCAUGAUCGAAAGAUCUAGCUUAAAGAAGCGACAUGCAUGCGGAUCGAAGAUCAAGAGCAAAGUUCAACCACAAAGUGGCGCUAAUAAAAA'
p279
aF1.0
aa(lp280
S'Looking Back Again'
p281
aS'UGGUAUUCUGGCAAAAGCCUCGCUAUGCGGGGAGCCAAAGUUCUCAAGUCAAAGACGACUGAUAUAAAGGUCGAAAGACCAAAAGUAUCUAGACAAGAGAAUGUCUGUAAAAAGAUACAAAGGUAUCUAAAAGGUGCUUAGAAGUCAAAGACUGCAUACAAAGUAUGGCAUGCUCAUGUAUAAGUUGAAGAAGAUCGAAAGAUCGACACGUCAAACUGAGUCUAAUGACAAGCAUGCAAACUAGGGACCGAAGUAAAAUUUAAAAUUAGGAUCGAGAGAGAGGUCAAAAAGAUCGAUCAAACUAUGAUUCUACUAAAAAGCUAUAACGAAAGUUAUGAAGACUGAAGUAUCCCACAAAGGGGGUAGUAUCAAAUGAAGGACUAAAUCCA'
p282
aF0.8406169665809768
aa(lp283
S'Multilooping 6'
p284
aS'AUGAUAUAAAUAUACGAAAGUGUCGGUACAAAGGUACCAUGUGUCAGAGGAAACUUUGUAUACGAAAGUAUAACAGUAUUUA'
p285
aF0.9024390243902439
aa(lp286
S'Cesspool'
p287
aS'GAAGAAGAAAACAACUCUUAGAAGUCAAAGACAAUAAUGACAGGAGUAGAAAACGACAGUUGAAAACGACAAAAAGAAAACAACUACACCUUGAUCAAAAGAAGCGAUUAGAGUGAAGCGCAACAACUACACAACUUUAAAAAUUGAUUUGAAAACGAGAAAAAGAAAACACCGAAAAUCAUGAAGAAAACAAGGGUUGACAGUCAAAGACAAUAACUAAUCAAGUUGAAAACGACUGUUUAAAAGUACUAAAAGAAAAUACCGGGAAAUCUUGAAGAAAGUAAGUGUUCUGGUUCAAAAAGAACUAGGACACAAGUCGUAAACGAUUGCUCAAAGGGACUAAAAGAAAACACCGAGA'
p288
aF0.7262569832402235
aa(lp289
S'Hoglafractal'
p290
aS'AAGAGAGACGCCCAAAAGAUACAAAAAAGUAUCGGGCGCAGAAAAAAUCGAAAGUAUCUCAGCCCGAGUCAAAGGGCGGGAGUCAAAUAUCAAAGAUCAAAAAAGAUCGAUCAGAAAAUCGUAAAGACGGCCGAGCGAAAGCCGACUGCGAAAGCUAAGACAAAAAAGACAGCCCAGCAAAAAGUUGCACUAAUGUGACUUACAAAAAGGAGCAAAAAGGCCCAAGAAAAAGCGUAGAAAAAGGCAACGAAAAAGGUCAAAAAGGACACAGAAAGAAAAUAUGAUCUAUGAUCAUAAAAAAAACGUUGCAAAAAAGUAAAGAAAAGUAGAAAAGACAAAUCAACAGUGUAGACUCCGAACCCGAAAGGCCGAAAGAUAAACGAAACGUUUAAGAUGCUUC'
p291
aF0.905
aa(lp292
S'Bullseye'
p293
aS'AAACUGUUGCGAAGAAAAAUGUGGAACACAGAUCUCAAAGCGGCGGGAAAAAACCGCUGAUGCAAUAAAGGUCGAAACGACAAGACCAAAUAACGUGUAAAAAAUCGGGCCCUAUGGGUAAGCUCGAAGAGCGCGACCAAGGAUCCCGAAAAAAAUUUCUGCUACGAGCAGAGUGCGCAGCGUAAGGACGAAGUUUCGGUAA'
p294
aF0.8316831683168316
aa(lp295
S'Shooting Star'
p296
aS'UCGGUGGGUCCCUGAUCUAAUACAAGGUCUCAGCCAGCGAAAGACCGACGGGUUACGGGAAUGAUCACGAGUUGGUUGACACGCUCACAGCUACAGGUAGUUCAGGGAAAUACGAAACGCCGAUAGACGUGUGACUGGCGAUCGAAAGACCAACACGUGUUAUAAGGUAAGAAAUUCAAAGGAUUUAAGAACUGGAGCAUAGUCCAGUUCAGUACAAUGCUUGCCGAAGGCAGGUUCAGAAAAAGUCUGGUACCCUUAUCGAAGAUGAGGACAUAGAAGCUAUGGAGCGUUGAAGUAAUCUUGGAAGUUGGCUCACAGCUCAGCGAAAGACGAGACGUGUGUACUCCGUAACGAACACACCGGA'
p297
aF0.7857142857142857
aa(lp298
S'Teslagon'
p299
aS'AAAAAAGUAAAAAAAGCGCGAAAAAAAACUGUAAAAAAAAAAAAAAAGAUAAGAAAAAGUAGAAAAAAAAAAAAAACAGGGAAAAAACCUCGAAAAAAGACAAAAAAAAAAAAAAGGUAAAAAAACGUUUAAAAAAAGUAUCAAAAAAAAAAAAAAGGAAAAGAAAAACGAGAAAAAAAAAAAAGCCAGCGAAAAAAACGAGAAAAAAAGCAAAAAAAAAAAAAAAAUGAAAAAAAUAGGAAAAAAAUUACGAAAAAAAAAAAAAAGCCAAAGAAAAAACAGAAAAAAAAAAAAAGUGAGGAAAAAACCAAGAAAAAAAGGAAAAAAAAAAAAGCAAAAAAAAAAAAAAAGCAUCGAAAAAACCAGCGAAAAAAGCAGAAAA'
p300
aF0.9267015706806283
aa.