(lp0
(lp1
S'Simple Hairpin'
p2
aS'GGGGCAAAAAAGCCCC'
p3
aF1.0
aa(lp4
S'Arabidopsis Thaliana 6 RNA - Difficulty Level 0'
p5
aS'GGGGGGCAAAAGGCAAAAAAAAAAAGCCGGGGGGGCAAGAUAUAUAUAUAUAUAUAUGAAGGGGCAAAAAAGCCCCAAUAUAUGAUAUAUAUAUAUCAAGCCCCCCCAAGCCCCCC'
p6
aF1.0
aa(lp7
S'Prion Pseudoknot - Difficulty Level 0'
p8
aS'GGGGGCAGGGCAAAAGCCCGCCACCCAAAAAAAAAA'
p9
aF1.0
aa(lp10
S'Human Integrated Adenovirus - Difficulty Level 0'
p11
aS'GAUAUAUAUAUAUAGGGAGGUUAAAAAAAAAUGGGCUACAGGCGAAAAAGGGGGGGCAAAAGGGAUCUAUAUAUGAAAAAAAAUAUAUAGAUGAAACCCGCCCCAAAACCCCGCAAAACUGUAAAAGGGGGCAAAAAAAGCCCCCGCCCUAAAAAAAAAAUACCUCCAUAUAAAAAUAUAUAAAAUAUCAAA'
p12
aF1.0
aa(lp13
S'The Gammaretrovirus Signal - Difficulty Level 0'
p14
aS'CGCGCAGGUGGACUAAUGUCCACAGGAGAAAAAAGGGUAAGUCAGUGCAAUACAAAGGUAUUAAAAGCGCGGCGCCCGGUGAGGGGCAAAGGUCCCUCGAA'
p15
aF1.0
aa(lp16
S'Saccharomyces Cerevisiae - Difficulty Level 0'
p17
aS'AGGGGUUGCGAGAAAAAAAUCGCAGCACUGUCUGUCACUGCGCGAAAAGGGGAAAAAAACUCCCGACCUUUAAAUAUGGGGGAAGGUCGAAAAAAAGACCGGCUAAAAAAAAAAAUGCCAAAAGGGGCAAAAAAGGCCCCCCCCCAUUAAGAGGGUGUAAGGGCAAAAAAAAGCCCGGGGUCAAAAAAAGGCCCCAAAAGGCUCAAAAAAGGGGCUACCCCCUAAAAUGGAAGGAAGGCCAAAAAAAGGGCCCGGGGCAAAAAAAGCCCCGAAAAGAGGAGAAAAAAUCCUCCCUUCCGAAAGCGGUUGGAACGGUUAAAAAAUGCCCUGGUUCAAAAAAAGCGCAGAAAAGGCGAAAAAAAGUCGCCGCAGCCCAAAA'
p18
aF0.9947229551451188
aa(lp19
S'Fractal 2'
p20
aS'AAAAACGGGCCGCAAAGAUGUUUAUAAACCCGUAAAAAAAAUUGGGAAGGGCGAAAAAAAAAGCCCGAAGGUAAAAAAAAAGACCUGAUAUAAACAUCAAGGCUUUAGAUUAAGGACAAAAAAAAAAGUCCAGGAGCUAAAAAAAAUGCUCAACAAGAAAAAAAAAACUUGAGAAUUUAGAGCAAAGAUCUAUAUCAGGGGCAAAAAAAAAAGCCCAUGGCCAAAAAAAAAAGGCCUAUGGUGAAAAAAAAAACCAAAGAUGUAGAUCAAGGUGGCCCGGAAAA'
p21
aF1.0
aa(lp22
S'G-C Placement'
p23
aS'GGGCAAAGCCCG'
p24
aF1.0
aa(lp25
S'The Sun'
p26
aS'GACAGGUGAACGAAGCUCAAACCGUCAAAGCGAGUGGCGGAAACUCCAACCGCGAAAAGGCAGGGGAACAAAGGUCAACCCGCCAAGGGCAUAGGGGUAAAACCCAACCAGCCAAAGCCACUGCGGCGAUGCCCAAAGCGACAAUAGGAGGGGAGGGAACACCAAUUCACUUAAUGCAGGGUUCCUAUGGAAAACCCGUAAAUAGCAGAGACUCAAAGCCUAACUGCGUUAAACCAGAGGUGGAAGUCGGAACUCGCU'
p27
aF0.9224806201550387
aa(lp28
S'Frog Foot'
p29
aS'AAAAAAAACAGGGCGAAAGCCCGUGCUAAUGCACGUGCUAUGCAC'
p30
aF1.0
aa(lp31
S'InfoRNA test 16'
p32
aS'GGGGGCACGGGGGUCAAAAGACCCACCAGAGCCCCC'
p33
aF1.0
aa(lp34
S'Mat - Martian 2'
p35
aS'AGCUAAAAAGUUAAAGGGGGGCAAGGGGUGCUAAAAAUGCACCCCGCCCCCCAAAGGAGGGGGGAAAAAGGGGGGCAGGGGUGCAAAAAAGGCACCCCGCCCCCCGAAGAUAUUGGAAUCUGAAAAAAGCAGAUUCACAAUAUCAAAAAAUCCCUUCCGAAGAUAUAGGAAUAUGAAAAAAAUAUAUUCAACUAUAUCAAAGGGCAAAAGCCC'
p36
aF1.0
aa(lp37
S'square'
p38
aS'GUGUGGCUAUCUUGCUAUAGCAUAUAGAAUAUAUGUAAACUGUAGUAAAAGAGAUAAAAUGCUACAC'
p39
aF1.0
aa(lp40
S'Six legd turtle 2'
p41
aS'AAAAAGUGAAUUAAAAAGAAAUCAAAAGGAAAGUUAAUAAGAAGGAAAACCGAUGUAAAGGUUAACGAAAGUGAAAGCAAAAAAAAAAAAAAAAAAAA'
p42
aF0.9591836734693877
aa(lp43
S'Small and Easy 6'
p44
aS'CGAACUAAAUGGAACCGAAAAAAAAAGUGG'
p45
aF0.9333333333333333
aa(lp46
S'Fractile'
p47
aS'AAAAAAAAAAAGUCGAAAGGAAAGCGAAGGAAAACCGAGGAAAGCAAAGGCAAACCGAGCAAAAGCGAAGCAACAGAAAUGAAAAAAAAAAAAAAAAAAAAAAAA'
p48
aF1.0
aa(lp49
S'Six legd Turtle'
p50
aS'AAAAAGUAAAAUGAAAAUCAAAUCUAAAAAGUAAAUGAAAACAAAAAGGAAAUGAGAAAUCAAAUGCAAAAUCAAAAGGAAAAGCGAAAAAAAAAAAAAAAAAAA'
p51
aF0.9428571428571428
aa(lp52
S'snoRNA SNORD64'
p53
aS'GGGGGCAAAAAGGCAAAAGGCAAAGGGGCAAAAAAAAAAAAAGCCCCAAAAGCCAAGCCAAGCCCCC'
p54
aF1.0
aa(lp55
S'Chalk Outline'
p56
aS'AAAAAGGGCUCGCGAGAAAUUAGCGGGGCAGGCAAAAGCCGCCGGGGAGCAAAAGCAUCCCAGGGGAGAAAUCCACCGCCCAAAAAAAAAAAAAAAAAAAAAAA'
p57
aF1.0
aa(lp58
S'InfoRNA bulge test 9'
p59
aS'GGGGGGCAGAGAGAGGGGGGCAAAAGCCCCCCCCCGCCCCCC'
p60
aF1.0
aa(lp61
S'Tilted Russian Cross'
p62
aS'AAAAAGCGAACUCGCAAGAGUGGCCAACGCGAAAGCGUGGGACAAAGGUCCCAGGGAGAAAUCCCGGCCCCUGGAAACAGGUCGCGAAAAAAAAAAAAAAAAAAA'
p63
aF1.0
aa(lp64
S'This is ACTUALLY Small And Easy 6'
p65
aS'AAAAAAAAAAAAAAAAAAAAAAAAAAAAAAAAAAAAAAAAAAAAAAAAAAAAAAAAAAAAAAAAAAAAAAAAAAAAAAAAAAAAAAAAAAAAAAAAAAAAAAAAAAAAAAAAAAAAAAAAAAAAAAAAAAAAAAAAAAAAAAAAAAAAAAAAAAAAAAAAAAAAAAAAAAAAAAAAAAAAAAAAAAAAAAAAAAAAAAAAAAAAAAAAAAAAAAAAAAAAAAAAAAAAAAAAAAAAAAAAAAAAAAAAAAAAAAAAAAAAAAAAAAAAAAAAAAAAAAAAAAAAAAAAAAAAAAAAAAAAAAAAAAAAAAAAAAAAAAAAAAAAAAAAAAAAAAAAAAAAAAAAAAAAAAAAAAAAAAAAAAAAAAAAAAAAAAAAAAAAAAAAAAAAAAAAAAAAAAAA'
p66
aF1.0
aa(lp67
S'Shortie 4'
p68
aS'GCAAAAGCAGCGAAAGC'
p69
aF1.0
aa(lp70
S'Shape Test'
p71
aS'AAAAAGUGGGCAAGGGGCAAAAAAAAGCCCCAAGGCAGGCAGGGGCAAAAAGCCCCUGGGCAAAAGCCCUGCCGCCAAGCCCUCAAAAAAAAAAAAAAAAAAAA'
p72
aF1.0
aa(lp73
S'The Minitsry'
p74
aS'GGCAAAAAGGGAAAAAGGUGAAAGGGCAAAAAGGCGAAAAAAAGCCAGCUAACCAUCCGGCC'
p75
aF1.0
aa(lp76
S'stickshift'
p77
aS'AAGGGGUCGCAAAAAGCAGGCCCCAA'
p78
aF1.0
aa(lp79
S'U'
p80
aS'AAAAAGGGGCAGAGAGCAGAGGGGGGGGGAAAACCCCCCCCCCGCCCGCCCCAAAAA'
p81
aF1.0
aa(lp82
S'Still Life (Sunflower In A Vase)'
p83
aS'AAAGGGAAAGGCGGUAAAUUCGUCAAGGGACAAAGUCCCAUGGUACGAAAAGUACCUUGUUGCAAGGCAACUAGAGGCAAAAAGCCUCAAGUGGCGAAAAGCCACAUAUAUAGAUAUAUAUAUAUAUUCGUGUGUAAAAUCACACAGGGGCUAAAAAAAAAAAAGGGCAAAAAAAAAAAAAAAAAAAAAAAAAAAAAAAAAAAAAAAAAGCCCGAAAAAAAAAAAUGCCCCCGAACAAAAGUUCGAGAGUAUAUAUAUAUAUUUAUAUGAUUUGGUAAAAAACCAAUAUAUGUGAAAAACAUAAAUGGGCAAAAGGCCCGAGGACGCAAAAGGCGUCAAGUGACAAAAGUCAUAGCUAGUAAAAAACUAGGUCCCAAA'
p84
aF1.0
aa(lp85
S'Quasispecies 2-2 Loop Challenge'
p86
aS'AAAAAGGGCGGCCAAGGGCAAAAGCCCAAGGCCAGGGCAACUAUGGGGCCCAGGGCAAGAAGGCAAAAAGCCAACAAGCCCGCCCAAAAAAAAAAAAAAAAAAAA'
p87
aF1.0
aa(lp88
S'Corner bulge training'
p89
aS'AGGGGGCGGGGCAAAGCCCCAAAAGCCCCCA'
p90
aF1.0
aa(lp91
S'Spiral'
p92
aS'AAAAAGGGCAGGGGGCAGGCAGGGGCAGGGCAGGGCAGCAGCAGCAGCAGCAGCAAAAAGCGCGCGCGCGCGCCCGCCCGCCCCGCCGCCCCCGCCCAAAAA'
p93
aF1.0
aa(lp94
S'InfoRNA bulge test'
p95
aS'AAAAAAAAAAAAAAAAAAAAAAAAAAAAAGGGCAAAAAAGGGCAAAAGGGCAAAGGGCAAGGGCAGGGCAAAAAGCACCAGCACCAAGCACCAAAGCACCAAAAAGCACCAAAAAAGCACCA'
p96
aF1.0
aa(lp97
S'Worm 1'
p98
aS'AAAAAAAAAUAGACUCCGGAGGAUGAAAGCUUGUCACUGCUAGGU'
p99
aF0.9111111111111111
aa(lp100
S'just down to 1 bulge'
p101
aS'AAAAAGGGCAGGGGCAAAAGCCCCAGGCAAAAGCCAGCACCAAAAGGGCAGGCAAAAGCCAGGCAAAAGCCAGCCCAAAAAAAAAAAAAAAAAAAA'
p102
aF1.0
aa(lp103
S'Iron Cross'
p104
aS'AGGCAGGGAAAGGUAUUCAAAGAAACGCAAAAGCGAACCAAGGGCAUACAAAAGUAAGGCAAAGCCAGCCAAAGUGAGACAAAAGUCAGGCAAAGCCACACAAACCCAUACAAAGUAAGCCAA'
p105
aF1.0
aa(lp106
S'loops and stems'
p107
aS'AAAAAGGGGGGCAAAGUGUAAACGGCAAUGUGCAAAAAAAAAGAGCCAAAAAAAAAAAAGGCUCGAGGUACUAAAUGUUGAAAAAAAAAAACGAAAGCCGAAAGCCAAAAAAAAGGCAAAACGCAUGUGAAAAAACUAAGCCCCCCAAAAA'
p108
aF1.0
aa(lp109
S'Water Strider'
p110
aS'AAAAGGCGGCAAGUGGUAUGUAAAAACCGGCAAAAGUCCACAAAAAGGAGGGAAAGCCCAGCAAAGGAUAAUUAUGAGCAGCAAAAAAAAAAAAAAAAAAAAA'
p111
aF0.9320388349514563
aa(lp112
S'The Turtle(s) Move(s)'
p113
aS'AAGGCAAAGGAUAAAGGGGGGGGGAAAAAAAAGCCCCCCCCCAAAUGGGCGAAAAGCCCUAAAGGGCGAAAGCCAAGGUUGCAAAAAAAGCGACAAAACGAAACCCAAAUGAAAAAAGGCAAAAGCAAAAAGGGAGCAAAAAAAGCUCCCAAAAGACGAAAGUCAAAAAGGAGGCAAAAGACUAAAAAUGUCAAGGCGAAAAAAAGCCAAGGGGGCAAAAAGGCCCCAAUGGGCGAAAAGCCCUAGCCUCCAAAAAAAAAGAAAAUCCAAAAACCAAAAGUAAAAAAAUAUCAAAAAAAAAAGAUAUGAAAAAUUC'
p114
aF0.9873417721518988
aa(lp115
S'Adenine'
p116
aS'GGGGCAGGGGGCAGGGGGCAGGGGGCAGGGGGCAGGGGGCAAAAGGGGGCAAAAAAGCCCCCAGCCCCCAGGGGCAAAGGGGGGCAAAGCCCCCCGCCCCAGCCCCCAGAUAGGGGAAUGAAACAUUCCCAAACUAUCAGCCCCCAAAAGCCCCCAAAAGCCCCCAAAAGCCCC'
p117
aF1.0
aa(lp118
S'Tripod5'
p119
aS'AGGUGUGGAGAAAAACUCCCAGUGAAAAGCUGACACAA'
p120
aF1.0
aa(lp121
S'Shortie 6'
p122
aS'CCGAAAACAGUUAAUACGGGAAAGUCGUGGAAAGU'
p123
aF0.8857142857142857
aa(lp124
S'Runner'
p125
aS'AAAAGGGGCUGAUCAAAACUUGGUAUCCCCAGCUCAAUAGUAUGGCGGCAAAGCCUAAACCGAGGGCAAAUUCAAACUCAAUUUAGGACGAAGACAAAAGUCGGUCUGCCCAAAAA'
p126
aF0.9827586206896551
aa(lp127
S'Recoil'
p128
aS'AAAAAGGGGCAAGCAAGCAAGGCAAGGCAAGCAAGCAAAGCAGCAGCCAGCCAGCAGCAGCCCCAAAAAAAAAAAAAAAAAAAAA'
p129
aF1.0
aa(lp130
S'[CloudBeta] An Arm and a Leg 1.0'
p131
aS'AAAAAGGCAGGGGCAAAAGCACCCGGCAGCAAAAGCGCCAGCCAAAAAAAAAAAAAAAAAAAA'
p132
aF1.0
aa(lp133
S'[CloudBeta] 5 Adjacent Stack Multi-Branch Loop'
p134
aS'CGUAGCGUUGAAAGGCGGGCUAAAAGUGUAUGCGUGGUGGUGGGCGUCGAAAUUCAUCUGUGA'
p135
aF0.9682539682539683
aa(lp136
S'Triple Y'
p137
aS'AAAAUAUGGCUACGGGUGAAACCUUUCUCUAAUUGGAGCAAGUGCCCAAUAAUUUAGAGGUGAAAACCUAGGCUCGAUAAAAAAAAAAAAAAAAAAA'
p138
aF0.8762886597938144
aa(lp139
S'Misfolded Aptamer'
p140
aS'GGCCAAAAAAGGGCGUAUCGCAGCAAAAGCAAAAAAAAACCAAAAGGGCU'
p141
aF1.0
aa(lp142
S'Flower power'
p143
aS'AAAAUGGGUCGUGAAAUACGGGGGCGCAGAAACUGCAAGGGCGAAGCCCAAAGACGAAGUCUGCCCAAGGCGAAGCCUGCCCUAAAAAAAAAAAAAAAAAAA'
p144
aF1.0
aa(lp145
S'Kudzu'
p146
aS'AAAAAGGGAUAAGUCGAUAAAGGCAGCAAGAAUCAUUUGGUAGUCAAAGGCCGACAUCUCAAGGGAUAAUUGUCGGAAUCUAAAAAAAAAAAAAAAAAAAA'
p147
aF0.9801980198019802
aa(lp148
S'"1,2,3and4bulges"'
p149
aS'AAAAAGAGCAGACACAAAAGAAAAGGUCAGGCAAAGCCCAGUACCAAAGGGACAUUGAAAGAAAAGGUAUAAAAUGGGUUCAAGCAAAAAAAAAAAAAAAAAAAA'
p150
aF0.9809523809523809
aa(lp151
S'medallion'
p152
aS'GGUGGCGUAAAUCAAAAGAUAUAAGCCAAAAGGCAGACAAAAGUUGAAUUUCAAAAGAGAUUAAAAAAAAGUUAGAGAGCAAAAGCUCUUAUACAAAAGUAAUACAAAGGUAUUACAUGAAAGUAUGUAUUGCGAAAGUAUUGUCCUGAAAGGGAUAUUACGAAAGUCGUUGAAAAUUAUUAUAGUAAAAACUAUAUUUAAAAAUGGAUAAGUCAAAAGAUUUAAUACAAAGGUAGUUCGAAAGGAGUAUAUCUAAGCAUAUAAAACAAAAGCAAUAUAUAAAAAUAUAUAAUCCAAAAGUAACUCAAAAGAGAUGGAACAAAAGUUUCAAAUCGCC'
p153
aF0.8516320474777448
aa(lp154
S'[RNA] Repetitious Sequences 8/10'
p155
aS'AGCAAAAAAGCAAAAAAGCAAAAAAGCAAAAAAGCAAAAAAGCAAAAAAGGAAAAAACCAAAAAAGCAAAAAAGCAAAAA'
p156
aF1.0
aa(lp157
S'Documenting repetitious behavior'
p158
aS'AAAAAAAGCAAAAAAAAAGAAAAAAAAAAGCAAAAAAAAAUCAAAAAAAAAACUAAAAAAAAUCAAAAAAAAAGUAAAAAAAAGCCAAAAAAAAAUGAAAAAAAAUCUAAAAAAAAAGAAAAAAAAAACUUAAAAAAAAGUAAAAAAAAAUCAAAAAAAAAGCAAAAAAAAAAGAAAAAAAAAUCAAAAAAAAACCAAAAAAAAGGGAAAAAAAAAGCAAAAAAAAAUAAAAAAAAAAACAAAAAAAAGGAAAAAAAAAAACAAAAAAAAUGUAAAAAAAAAUCAAAAAAAAAAGUAAAAAAAACAGAAAAAAAAGUAAAAAAAAAGCAAAAAAAAAGGAAAAAAAAUGUAAAAAAAAAGCAAAAAAAAGGCAAAAAAAAAUCAAAAAAAAGGCAAAAAA'
p159
aF0.935
aa(lp160
S'7 multiloop'
p161
aS'CAGUGGAGCGAAAGUUCCCGAUUAAAAGGGUAGAGGCGAAAGCCUUUGUAGGAAACUACAGGCGCAAAGGCGCCACAGAGAAAUUGAGACUC'
p162
aF0.9347826086956522
aa(lp163
S'Kyurem 7'
p164
aS'AAAAACGGCGGCAAUAAAGGCUAGCCAAAUUGCACUGAAAAGCAGGGGCUACUAAAAUGGAAAAGACGAGGGCUACCAGCUGGAAAAAAAAAAAAAAAAAAA'
p165
aF0.9411764705882353
aa(lp166
S'JF1'
p167
aS'AUAAAAGGACAAGGGGCAAGGGGCAAAAGGCGGCAAGGGGCAAAGGGGCAAGGGGGCAGAUUUAAAUAUAUGAAAACAUAUAUUUAGAUCAAGGGAAAACCCAGGGGGGGGGAAAACCCCCCCCCAAGGGGCAAAAGCCCCAGCCCCCAGCCCCAGCCCCAGCCGCCAAAGGGGGGGCAAAAAGCCACCCCCAAGAUAUAUAUAGAUAUAUAUAUCUGAAAACAGAUAUAUAUAUUAUAUAUAUAUCAAAGGGGCAAAAAAGCCCCGAUAUAUAGGAAAACUUAUGUAUCAAAGGGAAAAAUCCCAAGCCCCAAGCCCCAGGGCAGGUAGGCAAAAGCCGCCGCCCAGGGGGGGGGUAAUCCCCCACCCCAUGUCACUUAUUAUGAA'
p168
aF1.0
aa(lp169
S'multilooping fun'
p170
aS'UCUCAACCACAAUCCGUAAACAGCAGUCAAAAAUGG'
p171
aF0.8888888888888888
aa(lp172
S'Multiloop...'
p173
aS'GGGCAGUCCGGACAAAAGUCAGGCAAAAGCCAGCAAAAAUGCAGGCGAAAGCCAAGCGAAAGCUGGCCAAAAGGCAGGACAAGGGCGAAAAAGCCCUGGCAAAAGCCGCCC'
p174
aF1.0
aa(lp175
S'hard Y'
p176
aS'AAAAAUGGCGGUGGGCUGGGGAAACCCAGCUACUUCGGAUAUCAGGAAACUGAUAUCUGGCCGAAAAA'
p177
aF0.9705882352941176
aa(lp178
S'Mat - Elements & Sections'
p179
aS'AAAAAGGGAGUCAGGAUAGCUAACGGGAUGGAGCGAGGUGGCGAAAGCCUCAUCGUACGACCCGGAAGUUGCUGGUAAAGACAUCAAAAAAAAAAAAAAAAAAAA'
p180
aF0.9619047619047619
aa(lp181
S'Chicken feet'
p182
aS'AAAAAGGAUCUUAAAGUAUUCUAAGGUAGUACCGGUAGCACGAAAGUUGAAAAGCUAGGCACAAAAA'
p183
aF0.8805970149253731
aa(lp184
S'Bug 18'
p185
aS'ACGAUUAGAAGCAGGGAGCGAACAAAGGAACGACUGUCCGUCAGGAAAACUGA'
p186
aF0.9622641509433962
aa(lp187
S'Fractal star x5'
p188
aS'AAAAAGUGGGGUCAACGAGAAAAUUCGAAGGUCGAAAGGCCAAGGGUGAAAGCCCGACUGCGAAAGCGGAAGACCCCAUAAAAGUGGAGGGCAGGCGAUAAUUGCAAUAGACAAAGGUCUUAGUCGAAAAAGUUAGGUGAAAAAUCAUAGGCCCUCCGAAAAAGGGGUGGCUAUGGUUAAUGCUAGAGGGGAAAAUCUCAAGCGCAAAAGUGCAUGCGGUAAUCCGCUUGCUACCCUGAAAAGGGCUCGCUAGGGCAAAAGCCCAACGUUGAAAGACGGAAAGUAAAUACACAACCCCACAAGGGGAUGCGGGCCCGAAAAACUUGGUUAUUAGAAAAAUUUGUACGUGGAAACACGGUAGGGAAAACCCUUGGGGCAAAGGUCCAGGGCUAAGUGAAAA'
p189
aF0.985
aa(lp190
S'Crop circle 2'
p191
aS'ACAAUGAAAAAUUAAAAGGUAAAAAAAAGAUAAAAAAAAAAAAAAAAAAAAAAAAAAAAAAGCAAAAAAAAAAAAAAAGCAAAAAAAAAAAAAAAAAAGAUAAACUAAAA'
p192
aF0.9636363636363636
aa(lp193
S'Branching Loop'
p194
aS'AUUUCGCCAAAAAACGAGCAAAAGCUCCUGAAAGAAAAAA'
p195
aF0.95
aa(lp196
S'Bug 38'
p197
aS'UGGAGGAAUUACAUUAAAGUUGCAUAACCUAAGCCU'
p198
aF0.9444444444444444
aa(lp199
S'Simple Single Bond'
p200
aS'AAAAAAGGAAAAAAAUAAGCAAAAAGCUUUAAAAAAAACAAAAAAAAAAAAAAAAAAAAAA'
p201
aF1.0
aa(lp202
S'Taraxacum officinale'
p203
aS'GAGAGAAACAAGCAGGGCGAAAGACCCGUGGGGAAACACCGAGGGGUAAUUACUCGCUGGAAAGCAAGCUCGCCAAAGGAGCCUGCUUUAUAUGCGUCUUAGGCAUAAGGUGCACUAAGGCACGGGGAAGGCAUUUGUGAGGGGUGUCAAAGACGCCCACAUAGAUGCCGGGUAGGGGGCAAAGCCCCCACCCCCCCGAAAGUAUGUAAAGUGGCCCAAAACACGCUUGCCAAAAACGCAAGGUGUAAUCAAUCGGCGCUAAUGACGCAGCAGAAAACAUGC'
p204
aF0.9078014184397163
aa(lp205
S'Headless Bug on Windshield'
p206
aS'GGCGGUAAAAAAGAGCAAAGAACGGAAAAAAAAAAAAAAAAAAAAAAAAACUGAUCAAAGCUACUAAAGUAACAGGAAUUUCAAUUAAAAAAAGAAAAAUCAAAAGAAGAGCGUAAAAAUCCAAGUGGAAAAAAAGGCAAGGAAGGCAAGAUCGGUCUCUCUCUCUCUUCCCCGUAGAAGCCAAACAGUCAACGAAACCU'
p207
aF0.95
aa(lp208
S'Pokeball'
p209
aS'AAAUGGGGGUAAAAUCAAGAAAGGAAAGUAAGGACCCAAGGACGCAGAGAAACAGGGAGGCGCCGGCGAACAACAGCCAGAACCCUCAAAAAAAAAAUGGAUCAAAAGCAAACAAGACAAAAAGGUAAUGAAGGAAUCGAGCAAAGCAGGAGCAAUAAGCAAUUAGUCAUGCGCGAUUCAUGAA'
p210
aF0.967391304347826
aa(lp211
S'Variation of a crop circle'
p212
aS'AAAAUCGAAAUUAAAAGAAAAACCUAGUAAUAAAAUGAAAUAAAUUAAAAAAAUUAAAAAAAACGAAAAAAAAGGGGAAAAAAAAAAA'
p213
aF0.9545454545454546
aa(lp214
S'Loop next to a Multiloop'
p215
aS'AGGGGGGAGCAAAAGAAUUGGAGUCGAAAGGCUCCGGGGGGGCAAAAGCCCCUCAAAAAAAAAGCUCCCCCAA'
p216
aF0.9726027397260274
aa(lp217
S'Snowflake 4'
p218
aS'GAUUAAAGGUCUAUAGGCGAAAGCGGGGCGCGGGCCGAUAAUUCGUUUCGGCCGAAGGACAACGGUAAAAUCGGAGACGCUAAUGCGGCCUCGGGCGCUCAAAAGGGGGCCUGUUAAAGAUAAAAAGUUAUACUGGUCCAGUGAAAAGGCUCCAGGGUGAUCGAAAGAGGUACUCUCUAUGGGAAAGUUGAAACAACGUACCACGAAAGUUCGCCAGGCUGCUCAAAGGGGGGCCUAUCAAGGAUAAAGGCUGAAAGCCGGCUCUCAAAGGGGCGGCAACGGCGGUUAAUAAGGCGCGGCCAAGGGCCAAGAGCAAAGCUCGCGCCCGAAAAUCCGCCGGAGCUCCACAAAAGCCUAUGGGCGGAAUCCC'
p219
aF0.8918918918918919
aa(lp220
S'Mat - Cuboid'
p221
aS'GAAGGAAAAGAAAGCAAAAGCAAGAAAAAGAAACAAGCAAAAGCAAGGAAACAAAAGUAGAAAUCAAGCAAAACCAAGUAAGCAAGCAAAAGCAUGCAAUCAAGAAAGCAAAAGAUAGCAAGCAAGCAAUCAAAAGCAAGCAAUCAAGCAAGGAAGCAAAAGCAAGCAAGCAAGCAAAGAAGCAAAAGCAAGCAAGCUAACGAGAAGAUAAAAAGAUAAUCAAGCAUGCAAGCAAGGGCAACUAAGCAAGCAAGCAAGCGCAACCAAGCGAGAAACUAAGCGGAGCCAAGCAAGCGUGCGCAAUCAAGAGAGCUAGCGCAAGCAAACAAGGGCAAGGAAGUAUCGGAAGCAAGCGCAAGCAACUCAGGUGCAAUCUCAAC'
p222
aF0.9131578947368421
aa(lp223
S'Misfolded Aptamer 6'
p224
aS'AAAAAAGGGAAAAAAGGGCAGGAAAAGGAAAAAAAAAUCCAAUGCAAAAGGCCUAAAAAAACCCGGAAAAAAAAA'
p225
aF1.0
aa(lp226
S'Snowflake 3'
p227
aS'GGCUCAAAGGAUGGCGGGGAAACUCAAGAGUGGCGCAAUGCGAAAGCAGGCGGUAAAAGCCGCAAAGUAUCAAAAGAAGCUGGCGAAAGUCAAGAGCAGGACUAGGUGAAAGCCGGCUCUAAAAUGGAAAAAUUAUCGAAAGAUGCUUGCGAAAGCGAUGUCCAGGGGAAGGCAAAAGCCAGUAGCAAAAGCGAUUAAAAUCAAAAAUAAAUUGGGAAAAGCCAACCCCAGGGCAAGACAAAGGAUUGCAGAAAAAUCUCCUAAAGAUCAAAAGAAGCCUACAAAAGUAAAGCCCGGUUCAAGCCAAAGACCGCCUGUAAAAGCGACGAAGUUGUAAAAACAGGCAGAAAAAGCUAAGGGCAGCCCGAGGCAAAGGCCGCCUUCAAAAGGGCC'
p228
aF0.806615776081425
aa(lp229
S'Hard Y and a bit more'
p230
aS'AAAAAAGGGCACAGGCGAGAAAUCGUACGCUUGGCGCCGAUAUGAAAACGUAAAAGGGCAAAAAAGCCCUAAGGAGCUUAGCCCUGAAAAAAAAAAAAAAAAAAAA'
p231
aF0.9716981132075472
aa(lp232
S'Mat - Lot 2-2 B'
p233
aS'AAAGGCAAGGUCAAGCAAAACGAAGGGCUAAUGCAAAACCGCUGGCAAGCAAAACCAAGUUAAAGCAAGCGAGCUCAAGGAAAAGCAGUGGGAAGCAAAAGCAAAAGAGCAACCAAAACGAAGUUCAAGGAGAAGAAAGGGAAAUCGAAAGGGCUAGCAAAAGCAAGGGAAAAAUUAAAACCAAGUGCAUGCAAAACCAAUAUCAAGCAAGCGACCUCAACGAAAAGGAAGUGUAACCAAAAUCGAAAGAGCAGGAAAAAUCGACUUGAAGAGCAAUAAACAAU'
p234
aF0.8556338028169014
aa(lp235
S'Shapes and Energy'
p236
aS'AAAAAUCGGUCUAUGCUAAAAUGUUGGUAUAAAAAUUUACUAAAGCCAGGAGUAAAAAAUGGAACAGACCAGCGGCCCAUUAAAAAAAAAAAAAAAAAAAA'
p237
aF0.9207920792079208
aa(lp238
S"Spiral of 5's"
p239
aS'UAAAAGGGGCAAAGGGUCUAAGGGGCAAAAGGGGCAAUGGGGCAAAGUGGCAAGGGGCAAAAGGGGCAAAGCGGCAAAGGGGCAAGGGGCAAAGGGGCAAGGGGGCAAGGGGAAAAGGGGCAAGGGGCAAGAGGCAAGGGGCGAGGGGCAGGGGCUGAUAGGGCCGAAAAACGGCCAAAAACUAUCCAAAUGCCCCAAAAAGUCCCAAAAAGCCCCAAAAAGCCUCAAAAAGCCCCAAAAAGCUCCAAAAAUCCCCAAAAAGCCCCAAAAAGCCCCAAAAAGCCCCAAAAAGCCCCAAAAAGCCGCAAAAGGCCCCAAAAAGUCCCGAAAAGCCGCAAAAAGCCCCUAAAAGCCCCAAAAAGCUCCAAAAUGACCCAAAAAGCCCCAAAAAAAAAAA'
p240
aF0.9949622166246851
aa(lp241
S'Campfire'
p242
aS'AAAAGGGCAAUGUUGCAGGGCAAAGUCGAAAAGACUAAGGUCGAAGGCAUUUCCCCGUGGAUAGCACCAGGGGAAAAAGCACCCGGCCGGACCAGCAGCAGCAAAAGCGCGCGGGGAGGCGAAAGCACCACCGAGGCAAUCACCACACCAACAGGCGGGCUGCCAGAAUUAAUGUUCGGCGUCUGGGGAGCAAAACCACCACCAAGCCGCCC'
p243
aF0.9198113207547169
aa(lp244
S'Anemone'
p245
aS'AAAGAGGGCUAAUGUUCUCGGAUGGAAACGUCCGUAGGAGAAAUCCUACCAGGUGAAAACCUGCGGGUCGAAAGACUCGGGAUCGAAAGGUCCGGGGAAAAGUCCCCGUUGUGAAAGCACAGCAUCUAUAAAGGUAGAGGGGGUGAAAGCCCCCGGGGCAAAGGCCCCCCGCUAGAAAUAGCGGCUGGCGAAAGCCAGGUGACCAAAGGGUCGC'
p246
aF1.0
aa(lp247
S'Fractal 3'
p248
aS'AAAAAAGACAUCCACGUAAUUGAGGAAAUUAGGACGACACGAAAAGCGAUAAUCCAGUUGAUCACUAAAAGCAUGAAAGUAGGAACUCAACGAAAGGCCGAAACCAGAGUGUCAGAAAA'
p249
aF0.8991596638655462
aa(lp250
S'Kyurem 5'
p251
aS'AAAAAGGGGGGACUGGAAAUACAAGAAAAGUGGCUAAAAAGAACAAAAAUCUUGGGGCAAAAAGGCCACCACGCUGCGAACCUCGAAAAAAAAAAAAAAAAAAA'
p252
aF0.9423076923076923
aa(lp253
S'Snowflake Necklace ( or v2.0 )'
p254
aS'GAUAUAUAGAUAUUCGGGUUUACCAAAAACGAUCAAAAAGAAUUAAAAAAAAUGUAAAUCAAACAAAAAGUACGACCAGGAAAAAAUCCGGGGUAAGUAAAAAACAUCAAAAAGAAACAAAAAGUAUCAAAAAGAACAGAAAAGAGUACAAAGGCAAAAGGCCAGGAAACGCAAAAGGCAUAAAAAAUAACCAAAAAGGAGCAAAAAGUGAUAAAAAAAUUUACCGGACAAAAAGUCGCAGGAAGCAAAAAGCAUCAAAAAGAAAAAAAAAUUUGCAAAAAGCUUAAAAAAGAACCCCCAGGCAAAAAGCCAGUGGUAGCAAAAAGCAUCAAAAAGAAUUAAAAAGGACCUAAAUGGGGCAAAAGGUAACCACAGGAUAUUUAUAUAUC'
p255
aF0.8508997429305912
aa(lp256
S'Methaqualone C16H14N2O Structural Representation'
p257
aS'AUCUCACUGUAAGGGCGGGUACGAAAAAUCGAGGCAGGCAAAAGUCAGGCAGUCAAAAGACAGGCAGGCAAAAGCCAGUCAAAAAAAGGCGGCCAGCCAGCCGGCCAGAAACAUACCAGGGCAAAGCACCCAAAGCAAAGUAAAAAAAAGGAAGGCAGGGAAAAUCCGCCAAAACAAUGCAAAAGUAUCCAGCAAAGGUCACGUAGAGGCAGUCUGGCAUACUGGCUAAAGGCAAAAGCCUGCCAGGCAAAAGCCUGUAAGUGGAAACCCCGCCGGGCAAAAGCCAGACUGUCUGGAAAAUCGUACAAAAGUAACGUGAAAGCGGGCUGCCAGGCCAAAGCCCAUACGUCUCAAA'
p258
aF0.9323943661971831
aa(lp259
S"Cat's Toy 2"
p260
aS'AAAGUCGGCUUAAAAAUCGUGAAAAAAAAAAAAAAAAAGAUAAUCUCUGAAAAACCGAACAUAAUUGUAAAAAAUAAAAAAAAGGUGGGCCGAAAAA'
p261
aF0.9381443298969072
aa(lp262
S'Zigzag Semicircle'
p263
aS'AAAAAUGGACGACUAAAAUAAUCGAUUCAUGAAA'
p264
aF0.9411764705882353
aa(lp265
S'Short String 4'
p266
aS'AAAAAAGCAUGGAUCGAGAAAAGGUAUGGAAACGGCAAUAAUCUAUAAGGGAAACCAAAUUCGAAACAGAAAUACCGAAAAAAAAAAAAAAAAAAAA'
p267
aF0.9381443298969072
aa(lp268
S'Gladius'
p269
aS'UAAAAAAAGAACAAAAAGAACGCAAAAAAGGCAGGCAAAGGUCGAAAGAUCAGGCGCAAAGGGCAACAGGGCAAGAGGGCAAAAGAUUUAGGAGAUAUGAGCGAUUGCGGAGGUCAAUGGCAAAGCCGAGACACCCGCACCUCACAAUAUCCACUAAAUCAAUAGCCCAACAGCCCAAGAGCCAAUAGCGCCGGCCAAAGGCAAAAGCAUAAGGCAGAAGAGCAGAGGGGGAGAAGAUAUACAGAAUAUAGAUAGAGGGAAAGGUGAGGGGGCUAAUGCCCCCAACGUUAUUCCACCUAUGCAUAUUGCGUAUAUUAGAAUCCCACAAGCUCACAGGCCAAAAGUUUUACGGCAAAAGCCGAAAGCCAGCCAAACAAGACAACAAAGGAAACGAAAAAAU'
p270
aF0.89
aa(lp271
S'Thunderbolt'
p272
aS'GGAAUGGGCAAAAAAAAUAGCGACCACGAAACGAAAACAGCGAUGCGAAAAAAAAAGGGAAAAAGUGCAAAAAGCACAAAAAAACAAAGGAAGCAAAAAAUUAAGAAAAAACAAGUAGCAAGCAAAAUGAAAACAGGUGAAAAAGACAAAAAGAAGAAUAAAGGUCAGCAAAAAGGCAAGACAAAAAAAAAAUGAAGAGAGAAGCACAACUAAACAAUAAAGCCCAAAAAAAACGCCAAAAAGCGGGCAAGGCCCGCAGCAAGCAAAAAAAAAAAGCAACCAAAAAAAAGCAGGGAAAACGGGGACAAAAACAAAAAAAGGGAAAAGUCCCCAAUAAGGAACGCAUCGCAAAAAAAAGAGGAAGCGGAAAAAAAAAAAAAUAGCCCAAGUCA'
p273
aF0.9540816326530612
aa(lp274
S'Mutated chicken feet'
p275
aS'AAAAAAAUCAGUAAAAAAUCAGAGAAGGAAAAAGAAUGAGUAGUGAAGAGGCGAAGCAAAGCACAGCAUUAGGAAACCAGUAAAGCCAAGCGCAAAAAAA'
p276
aF0.82
aa(lp277
S'Chicken Tracks'
p278
aS'AAAAAAAAUGGGGUCGGUCAAAAGACCAUGGGCAAAAGCCCUAGGGCAAAAGCCCGACCCCAAAGGUGGACAAAGUCCAAGCGCAAAGCGCAAAGGCAAAGCCUACCGAAAAAAAA'
p279
aF1.0
aa(lp280
S'Looking Back Again'
p281
aS'AGCAAGCAGGGUAAAAAGGCUCGGAACGAGCUAACCCAAGACGCCAAGACAAAGUCCGAAGGAGCAAUGGGCAAAAGCCCUAAAGCCUCAAGCCGUUGCAACCGGCGUAAAAAGGGUCAAAGGACCCAAAAAGACGGGCGAAGGGCAAAGCCCUGGAGCAAAGCCCCGGGGGCUCAAGUAGAAGGAGAUGAAGGGCUAAUGCCCAACUCGACCAUCAGAGGCAAAGGCCAAGCCCCCAAAGCCCCGACGGGGGGUAGAGCGAAAAAGGGGGGGAAAAAAAAUGGCAAAAAGCCACCCCAAACCCAGCCCGCGGAAAAAAGUGCGGCAAAAAUGCCGCGAGCCUCAAAGAAUAUACUAUGUAUAAAGGCACAAAGCCGCACCCCAAGGCU'
p282
aF0.9074550128534704
aa(lp283
S'Multilooping 6'
p284
aS'AUGCAUCGGCCGAGUUAAUACUCGUGGCAAAAGACCUACCCAAGUCAGUGAAUAUCCAAAGUUUAAUGGUUUCUUGAUGUUA'
p285
aF0.926829268292683
aa(lp286
S'Cesspool'
p287
aS'GAAGAACGAAAGAACACAAGAGAAGCAAAGGUAACAACAAGCGAAUAAAAAAAUGAGAGAUGAAAACAACAAAAAGAAAACAACAACAAGAAGAACUAAUGAAGACAAGAGGGGCAAAGCCAACAACGAGCCAAGAAAAAAAUGAUGGAAUAAAACAACAAAAAGAAAACAACAACAAUUAAGAACUAAUGAAUGGAAGAGAGGCAAAGCCAACAAGGAUCAAAGAACAAAAGGACAGAAGAAAACAACAAAAAGAAAACAACAAGGAAUGAAGAAGAAAACAAGUCAAGUGGGGCAAAGCCAACAGCAAGGCAAGAAAAAAAUGACAGAAGAAAACAACAAAAAGAAAACAACAAUG'
p288
aF0.7877094972067039
aa(lp289
S'Hoglafractal'
p290
aS'AAAAGGAAGGGACAAAAGGGGGAAAAAACCCUCGUCCCGUGGAAAGGGCAAAAAGCCCCCACGGGAAGGCAAAAGCCUCCUGGCAAAGGGGAAAGGGGAAAAAACCCCCCCCGGCAAGGCAAAAAGCCGCCGCAGCAAAAGCGUUUAUCAAAAUGCAAAGCAAAAAAGCCGGAGCAGCAAAAAGCGCGGCAAAAGCCUGGGGCAAAAAGGAGGAAAAAAUCCCGGCAAAAGGCCACAAAAAUAGGGGGCAAAAAAGGCAAAAAAGUUCCGAAAAGGAAUUCUGGGCAAAGCCCGGGUAAAAAGGCCCCCGAAAAAGCCCCUAAAAGAUAUAAAGCAUAGCCAGUGAAGAUCAGGGCAAACGCAAAAGCUCAAAAGAUAUAUCAAAGAUAUAAGCCCGCGC'
p291
aF0.93
aa(lp292
S'Bullseye'
p293
aS'AAUGGCGUGCAACGCGCAAGGGCGAAGCCUAAGGGCAAAGCUCGACUAAAAAAUUGCGGGCGAAGCUCAAGUGCUAUGCCCGAGGGCAAGGCACGCAUAAAAAAGCUGGGCUAAGGGCCAAAGCUGAAGGCUGAGCUCGAAGACCUAGAAAAAAAAGUCGUGCAAAGCACAAGGUCAAAGGCCAACGGGAAGCCCGGGCAAA'
p294
aF0.8811881188118812
aa(lp295
S'Shooting Star'
p296
aS'CGAUACGGCCGGGGGGCAACGAUGAGUUCUCAAGCAAUGAAAGAUGCAUGGGUGACAAAUUUGCCCCCCAGGACGGUGAGACGUGCGCAGUCGGAGCCAGGGCAGGAAAACACGCUAUGGCCACGGACGCGACACAACCUACGGAAACAACUCCAAGCGGGGCAAAACUCCAUGGGCGAAGUCCAGAUAAAAGACACCCUAGGCCAGGGAAAUGUAAAGGGGGGCAAAGCCCCCCGGGCGAAAGGCGCCGCAUGGGGGGCAAAGCAUCCUUGAGAAAAGUUCUCUACCGGGGAAUAAAGAGGGGAUAGAGGUGGGAAGGGCACUAAAAAUGGCCACUCCACAGCACUUCACGUCCCAGUGUCGA'
p297
aF0.8543956043956044
aa(lp298
S'Teslagon'
p299
aS'AAAAAAAUAAAAGAAGCAGCAAAAAAAGCAUCCCUCUAUCUCUCUGACAAAAAAAAAGGAUCUCUCUCUCUCUGAUUAACGAACGAAGCAGCAAAAAAAUAUCUCUCUCUCUCUGAGGGGAAGAAGCAGCGAAAAAAGCACCACUCUCUCUCUCUGGGGAAAAAAAAACCGAUCACACUCUCUGAGGGGCAAAAGAAGCAACAAAAAAAGCUCUCUCUCUCUUUUAGCAAAAGAAGUAGCAAAAAAAGUAUCUCUCUCUCUCUCUGAUAAAAAAAAAAGCUCUCUCUCUAUCUCAGCGACAAAAGAAGCAGAAAAAAAAGGAAAAAAAAAAAAUCUCUCUCUCUCUCUGAGGACCAAAACAAUCAGCGAAAAAAGUAAAAAA'
p300
aF0.8324607329842932
aa.