(lp0
(lp1
S'Simple Hairpin'
p2
aS'GAUACAAAAAAGUAUC'
p3
aF1.0
aa(lp4
S'Arabidopsis Thaliana 6 RNA - Difficulty Level 0'
p5
aS'GAUAUACAAAUGACAAAAAAAAAAAGUCGAUAUAUCGAGUAUAUAUAUAUACAUAUCAAAGAUACAAAAAAGUAUCAGAUAUGAUAUAUAUAUAUACAAGAUAUAUCAAGUAUAUC'
p6
aF1.0
aa(lp7
S'Prion Pseudoknot - Difficulty Level 0'
p8
aS'GAUAUCAGAUCAAAAGAUCGAUAAUCAAAAAAAAAA'
p9
aF1.0
aa(lp10
S'Human Integrated Adenovirus - Difficulty Level 0'
p11
aS'GGUUCUAUAUAUAUUGAUAGCGAAAAAAAAAGGACCCGCUGGCGAAUACGCAAUAUCCAAAGGGAUGGAUGUAUAAAAAAAGGUACGUCCAUGAAAUCCGAUAUCAAAUGCCGCAAAACAGCGAAAUAUGUAGAAAAAAUACAUAGGUCAAAAAAAAAAAAGCUAUCUGUAUUAAAAUAUGGCAAAAUCAAA'
p12
aF1.0
aa(lp13
S'The Gammaretrovirus Signal - Difficulty Level 0'
p14
aS'AAGUCAAGAUAUCUAAUGAUAUUAGGUCGAAAAAGAUUAAGACAGGUGGUAUGAAAGCAUACACAACACCGUCGAUCAGCGUAUAUGAAAGUAUAUACGAA'
p15
aF1.0
aa(lp16
S'Saccharomyces Cerevisiae - Difficulty Level 0'
p17
aS'GAUAUACAUUCUAAAAAAUGAAGUAACUAAAAAAAAAAAAUCUUAGAGAUUGUAAAAAUCGAUCGUAUGUCAAAUAGCAUGGAAGAUCGAAAAAAAGAUCGGGUAAAAAAAAAAAUCCCAAACGAUAUUAAAAAUGUAUCCCAUGUUUAAGGAGACACAUUACCUAAAAAAUGGUGUAUAUCAAAAAAAGAUAUAAAACGAUGCGAAAAAAGUGUCGUGUCUCAAAGGGUGUUUAAGCUUGAAAAAAAGAGCGAUAUCAAAAAAGGAUAUCAAAAGAUGCGAAAAAAGCGUCGAACACCAAAAGAAAUACAAGGUCUAAAAAAUGACCCUUAUCUAAAAAUGAUAGGAACUGAAGGGAAAAAACCUUUGUAUUUCGAAA'
p18
aF0.9947229551451188
aa(lp19
S'Fractal 2'
p20
aS'AAAAAGAUAUAUCAAAGUAUAUAUUUAAGAGUAAAAAAAAAGGCUCAAGAGCAAAAAAAAAAGCUCAAGAUCAAAAAAAAAAGAUCAAAAAUAUAUACAAAGUAUAUAUAUAAGAGCAAAAAAAAAAGCUCAAGAGCAAAAAAAAAAGCUCAAGAUCAAAAAAAAAAGAUCAAAUAUAUAUACAAAGUAUAUUUAUAAGAGCAAAAAAAAAAGCUCAAGAGCAAAAAAAAAAGCUCAAGAUCAAAAAAAAAAGAUCAAAUAAAUAUACAAAGAUAUAUCAAAAA'
p21
aF1.0
aa(lp22
S'G-C Placement'
p23
aS'CCUUGAAGAGGU'
p24
aF1.0
aa(lp25
S'The Sun'
p26
aS'GCAAGAAAGACAAAGUUUAAGUAUGCAAUUAGAGUAAUUCAAUGGAUAACGCCUCUAAGCGGGGAAUUCAAAGAAUAAUCCAUCAAAGGCAGAUAUUGAAACAAUAAAUCGCCGAAGAGAUCUUAUUAAGAGAAGAAUCAUUAAAAACAGUUGUAAAAAUGACCAAUCGGUAAAGAAACACAUUCCAGGAAUAAGUGUUCAAGCACAUGUACACGAUGUGUAAACAGUGAAAGACAGGUAUUUAAAAAAUAAAUCGUC'
p27
aF0.8643410852713178
aa(lp28
S'Frog Foot'
p29
aS'AAAAAAAAAAGACAUAAUUGUCGACCGAAAGGUCGGAGUAACUCC'
p30
aF1.0
aa(lp31
S'InfoRNA test 16'
p32
aS'UAUGGCUCGUGAAUCAAAGGAUUCUACAGUGCUAUG'
p33
aF1.0
aa(lp34
S'Mat - Martian 2'
p35
aS'CGCAAAAAUGCGGAUGAGGGACAAGAUAUACAAAAAAGGUAUAUCGUUCCUCUAAGAAAGUACGAAAAAGAUAUACAGAUAUAUAAAAAAAAUAUAUCGUAUAUCGAUGUUUAGAUGUAGACAAAAAAGGUUUAUACUCUAGACUAAAAAGUAUUUUCGAUGGCUAUAUAUCUAUUAAAAAUGUAGGUAAAUAUAGCUUAAGAUCAAAGGGUC'
p36
aF1.0
aa(lp37
S'square'
p38
aS'GAUAUACGAGUACGAUAUACGAUAUCAAAGAUAUCAAAAGUAUAUCAAAAGUACUCAAAAGUAUAUC'
p39
aF1.0
aa(lp40
S'Six legd turtle 2'
p41
aS'AAAAAUUAAAGCUAAUCGAAUGCAAAGGCUAAAAAAAAUUGAAGGAAAACCAAAUGUAAUCAAAACCAAAGGGGAAAGAAAAAAAAAAAAAAAAAAAA'
p42
aF0.9591836734693877
aa(lp43
S'Small and Easy 6'
p44
aS'GGCCCUAAAUGGAAGAGAAAAAAAAUCGCU'
p45
aF0.8666666666666667
aa(lp46
S'Fractile'
p47
aS'AAAAAAAAAAAUUCAAAAGAUAACCAAAGGAAAUGAAAGAUAAAGAAAACUAAUACAACUAAAGAGAAACCAAGGCAAAUCAAAAAAAAAAAAAAAAAAAAAAAA'
p48
aF0.9619047619047619
aa(lp49
S'Six legd Turtle'
p50
aS'AAAACUGUAAAAGAAAACUGAAAGCAUAAGAAAAAUUAAAAGAAAAAACAAAAGUAAAUGCAAAGGUUAAUGCAAAAGCUAAUGAAAAAAAAAAAAAAAAAAAAA'
p51
aF0.9428571428571428
aa(lp52
S'snoRNA SNORD64'
p53
aS'GAUAUCAAAAAGACAAAAGACAAAGAUACAAAAAAAAAAAAAGUAUCGAAAGUCAAGUCAAGAUAUC'
p54
aF1.0
aa(lp55
S'Chalk Outline'
p56
aS'AAAAACAUCAGCUACUAAUGUAAGCAGACAGUGGAAACACGUCUGGCAGAGAAAUCAUGCCUCGGUCGAAAGACACGGAUGCAAAAAAAAAAAAAAAAAAAAAA'
p57
aF1.0
aa(lp58
S'InfoRNA bulge test 9'
p59
aS'GGUCUAUAGAGAGAUAGAUCCUAAUGGAUCUGCCCAUAGACU'
p60
aF1.0
aa(lp61
S'Tilted Russian Cross'
p62
aS'AAAAAGUUGCUGCAAAGGCAGACUCAGAUCGAAAGAUCGGAACUAAUGUUCCAGAUGGAAACGUCGAGUGACCGAAAGGUCCAACGAAAAAAAAAAAAAAAAAAA'
p63
aF1.0
aa(lp64
S'This is ACTUALLY Small And Easy 6'
p65
aS'AAAAAAAAAAAAAAAAAAAAAAAAAAAAAAAAAAAAAAAAAAAAAAAAAAAAAAAAAAAAAAAAAAAAAAAAAAAAAAAAAAAAAAAAAAAAAAAAAAAAAAAAAAAAAAAAAAAAAAAAAAAAAAAAAAAAAAAAAAAAAAAAAAAAAAAAAAAAAAAAAAAAAAAAAAAAAAAAAAAAAAAAAAAAAAAAAAAAAAAAAAAAAAAAAAAAAAAAAAAAAAAAAAAAAAAAAAAAAAAAAAAAAAAAAAAAAAAAAAAAAAAAAAAAAAAAAAAAAAAAAAAAAAAAAAAAAAAAAAAAAAAAAAAAAAAAAAAAAAAAAAAAAAAAAAAAAAAAAAAAAAAAAAAAAAAAAAAAAAAAAAAAAAAAAAAAAAAAAAAAAAAAAAAAAAAAAAAAAAAA'
p66
aF1.0
aa(lp67
S'Shortie 4'
p68
aS'UCGAAAGAACCGAAAGG'
p69
aF1.0
aa(lp70
S'Shape Test'
p71
aS'AAAAAGAGAUCAAGAUACAAAAAAAAGUAUCAUGACGACCGGAUACAAAAAGUAUCAGUACAAAAGUACAGGUGUCUAGAUCGCAAAAAAAAAAAAAAAAAAAA'
p72
aF1.0
aa(lp73
S'The Minitsry'
p74
aS'GCCGAAACCGGAAAAAGGGGAAAAUGUAAAAAGGUAAAAAAAGACCGGCAACCCGCUGAGGC'
p75
aF1.0
aa(lp76
S'stickshift'
p77
aS'AAGAUAUCCGAAAAACGAGAUAUCAA'
p78
aF1.0
aa(lp79
S'U'
p80
aS'AAAAAGUUUCAGAGAGCAGAUCUAAAUGCUAAUGUAUUUAGACGCCCGAAGCGAAAA'
p81
aF1.0
aa(lp82
S'Still Life (Sunflower In A Vase)'
p83
aS'AAAGAUCAAGAGUCAAAAGGGCUCAGGAGGCGAAGUCUCAAGAUACAAAAAGUAUCAUCUGAAAAGUUCAGUGGGCACAAAAAGUGUCAAGACCUCAAAUCCAUCAGUAUAUAUAUAUAUAUCUAUAUUUAGCCAAAAAAGGUUGAGAGAUAAAAAAAAAAAAAGUGCGAAAAAAAAAAAAAAAAAAAAAAAAAAAAAAAAAAAAACCAGUAUAAAAAAAAAAAAAAUCUCGUUGGAAAGUUAGCAAAUAUAGAUAUAUAUAUAUAUACGAAGCGUGAAAAAUGCUAAUAUUCAAAAAGAAUGAAGAUUGUAAAUAGAUUAAAUAAUUAAAAGUGGUAAGAUAGAAAACUAUCAAGAUAGGAAAACUAUCAGAUCGAA'
p84
aF0.9735449735449735
aa(lp85
S'Quasispecies 2-2 Loop Challenge'
p86
aS'AAAAGCAUGGUGACAGAUCGAAAGAUCAUUAACAUUAUGGACAAUAAGGGAAGAUGGGCGGGUCAAAACUGCAAGGGCAUCGAUGAAAAAAAAAAAAAAAAAAAA'
p87
aF0.9809523809523809
aa(lp88
S'Corner bulge training'
p89
aS'AGAUAUCGAUACAAAGUAUCAAAAGAUAUCA'
p90
aF1.0
aa(lp91
S'Spiral'
p92
aS'AAAAAGAUCAGAUAUCAGACAGAUACAGAUCAGAUCAGCAGCAGCAGCAGCAGCAAAAAGCGCGCGCGCGCGAUCGAUCGUAUCGUCGAUAUCGAUCAAAAA'
p93
aF1.0
aa(lp94
S'InfoRNA bulge test'
p95
aS'AAAAAAAAAAAAAAAAAAAAAAAAAAAAUGCGUAAAAAAGGGCAAAAGAACAAGGUGAGGCUCUACGACGAAAAGUACGAAGAAGAAUUAACAAAGUAUCAAAAGGCACCAAAAAGGCAGCU'
p96
aF1.0
aa(lp97
S'Worm 1'
p98
aS'AAAAAAACACUAAGUGGUCGCUAUAAAAAAAGAGGAUUCGCUGCG'
p99
aF0.8666666666666667
aa(lp100
S'just down to 1 bulge'
p101
aS'GAAAACCACAGAUACAAAAGUAUCAGACAAAAGUCAGUAGGAAAACAUCAGACAAAAGUCAGACAAAAGUCAGAUGAAAAAAAAAAAAAAAAAAAA'
p102
aF1.0
aa(lp103
S'Iron Cross'
p104
aS'AGACAGAGAAAGACAUGCAAGGCAAGACAAAAGUCAGUCAAAGGCAACCAAAAGGUAGACAAAGUCAGCCAAACGCAAUCAAAAGAUAGACAAAGUCAGCGAAACUCAAUCAAAGAUAGUCAA'
p105
aF1.0
aa(lp106
S'loops and stems'
p107
aS'AAAAAGAUAUACAAAGAUCAAAGAUCAAAGAUCAAAAAAAAUGAUACAAAAAAAAAAAAGUAUCUAAGAUCGAAAGAACAAAAAAAAAAGUUCAAAGAUCAAAGACAAAAAAAAGUCAAAGAUCAAGCAAAAAAGCGAAGUAUAUCAAAAA'
p108
aF1.0
aa(lp109
S'Water Strider'
p110
aS'AAAAAAGAGGGGGGCGUUGCUGAAAUCCUGGUAAUCUGGUCGGGGCGGUUAAAAAGUUGAGGAAAACUGAGUUACAACCCCUAAAAAAAAAAAAAAAAAAAAA'
p111
aF0.9320388349514563
aa(lp112
S'The Turtle(s) Move(s)'
p113
aS'AAAUGAAAGUGGGAAGACGUGUAUAAAAAAAAAGUACGCGUCGAAGCUCCGAAAAGGAGACAAUUGCAAAAGUACAAAGUACUAAAAAUGUGCUAAAACCUGAAGCGAAAGCAUAACGUCAAAGGACAAAAGUUAUUAAAAAAAGAUAGCAAAGGAGAAAGUUCAAAAAGAUUUAAAAUGACUAAAAAUGUCUUGACAAAAAAACGUCUAAGAUUCAAAAAAGGAUUGAAGUUGGAAAACAACGAUAAAUCGAAAAAAAAAGAAAGCUACAAACGUAAUCGGAAAAGUACAUGAAAAAAAAAAUGGAAAAAAAGGU'
p114
aF0.9620253164556962
aa(lp115
S'Adenine'
p116
aS'GAUACAGAUAUCAGAUAUCAGAUAUCAGAUAUCAGUUAUCAAAAGAUAUCAAAAAAGAUAUCAGAUAACAGAUACAAAGAUAUACAAAGUAUAUCGUAUCAGAUAUCAGUAUGAUAUUAUAAAAUAAUAUAAACAUACAGAUAUCAAAAGAUAUCAAAAGAUAUCAAAAGUAUC'
p117
aF1.0
aa(lp118
S'Tripod5'
p119
aS'AUUCUGGGAGAAAAGCAUAUUUGAAAAGCAAGUCUAUA'
p120
aF0.9473684210526315
aa(lp121
S'Shortie 6'
p122
aS'GCGAAAGUAGAGAAAUCGGGUAAUCCAGGGAAACU'
p123
aF1.0
aa(lp124
S'Runner'
p125
aS'AAAAUGAUUGGAUCAAAAACAACAAGGUUCGUAUGAAAGAGUAGAUGGUUAUGCUAAAAUCGUGUUGGAACGUAAACACUUUCCAGGGUAAAGCCAAAGGGCGACCAGAUUUAAAA'
p126
aF0.9827586206896551
aa(lp127
S'Recoil'
p128
aS'AAAAAGAUACAAGCAAGCAAGACAAGACAAGCAAGCAAAGCAGCAGUCAGUCAGCAGCAGUAUCAAAAAAAAAAAAAAAAAAAAA'
p129
aF1.0
aa(lp130
S'[CloudBeta] An Arm and a Leg 1.0'
p131
aS'AAAAAGACAGCUACAAAAGUAAGCGACAGCAAAAGCGUCAGUCAAAAAAAAAAAAAAAAAAAA'
p132
aF1.0
aa(lp133
S'[CloudBeta] 5 Adjacent Stack Multi-Branch Loop'
p134
aS'UUUGGGCGCGAAAGCGCGCUGCGAAAGUAGCGGGGCGAAAGCUCCGCUCGAAAGAGCCCGGAA'
p135
aF1.0
aa(lp136
S'Triple Y'
p137
aS'AAAAAUGUGAACCGAGCUAAUGCCCUAUUUAAUAAUGUCCCGAUCGGUAAAAGUAUUGCGUAAAAAAUCGAUGCACGAAAAAAAAAAAAAAAAAAAA'
p138
aF0.9175257731958762
aa(lp139
S'Misfolded Aptamer'
p140
aS'GAGUGAAAAAUGUAGAAACUAACUGAAAGGGCCGGGGGUCAGAAAAGCUC'
p141
aF0.92
aa(lp142
S'Flower power'
p143
aS'AAAAAGCUUCAUCAAGGAUGUGUACCAUAUAUUCUGAAGAUCAAAGAUCAAAAAAGAAGAUUGUACUGUAGAAAUUAGGAGCGAAAAAAAAAAAAAAAAAAA'
p144
aF0.9019607843137255
aa(lp145
S'Kudzu'
p146
aS'AAAAACGCUGAGCAAGUCGAUGACAGCUAUCCGUCUAUGCAUUGCAAGGCAGAAGAAAUCGAAGACAAAGUUAGAACUUUGGAAAAAAAAAAAAAAAAAAA'
p147
aF0.9207920792079208
aa(lp148
S'"1,2,3and4bulges"'
p149
aS'AAAACGAUUAGCUUUAAAAAGGAAGUCCAGAAGAAAUCCAGAACUAAAGUGCCGCGGUCAUCAAACUGCUCAAAGGACAUGAACGAAAAAAAAAAAAAAAAAAAA'
p150
aF0.9238095238095239
aa(lp151
S'medallion'
p152
aS'GAAAUCAGUCUAAUAAUUUAGACAGACAAAAGUCGAUGGAAACAUAUCUCUCAAAAGAAAGGGAUCAAAAGAUAGUAUGAAAAAUCAUACAACCAAAAGGUAACCAAAACAUAAUGUGCGAAAGCAUAUGAUGAAAAUAUAAUAUACGAAAGUAUAUAAGAAAAAGAUAGUCAAAGCAUAGGUUACGAAAGUAACUGAGUAAAGAUUACUAUAGAAAACUAUAGAAGCAAAAAUUGGACUAAUGAUAAGAUACUAAUGUAUCUAGCCGAAAGGCAAUAUAAAAAAUUAUAUUGGCAAAGCCUUUCGAAAGCAUAUUGUACAAAAGUACAAGAAGAUU'
p153
aF0.887240356083086
aa(lp154
S'[RNA] Repetitious Sequences 8/10'
p155
aS'AGGAAAAAAGCAAAAAAGCAAAAAAGCAAAAAAGCAAAAAAGCAAAAAAGCAAAAAAGCAAAAAAGCAAAAAACCAAAAA'
p156
aF1.0
aa(lp157
S'Documenting repetitious behavior'
p158
aS'AAAAAAAGGAAAAAAAAAGGAAAAAAAAAGGAAAAAAAAAGGAAAAAAAAAGGAAAAAAAAAGGAAAAAAAAAGGAAAAAAAAAGGAAAAAAAAAGGAAAAAAAAAGGAAAAAAAAAGGAAAAAAAAAGGAAAAAAAAAGGAAAAAAAAAGGAAAAAAAAAGGAAAAAAAAAGGAAAAAAAAAGGAAAAAAAAAGCAAAAAAAAAGCAAAAAAAAACCAAAAAAAAACCAAAAAAAAACCAAAAAAAAACCAAAAAAAAACCAAAAAAAAACCAAAAAAAAACCAAAAAAAAACCAAAAAAAAACCAAAAAAAAACCAAAAAAAAACCAAAAAAAAACCAAAAAAAAACCAAAAAAAAACCAAAAAAAAACCAAAAAAAAACCAAAAAAAAACCAAAAAA'
p159
aF1.0
aa(lp160
S'7 multiloop'
p161
aS'GUGGUUAUUGAAAGGUGAUCGACGAAAAUAGAUAGUGUAAUAGUUGCGAGCAAAGGCUCGCGGGAGAAAUCCCAAUCUGAAAGUGAAUUUAC'
p162
aF0.9130434782608695
aa(lp163
S'Kyurem 7'
p164
aS'AAAAAGGGGCGCUAAAAAGUCAAACAAUAUUGAUGGCGAAACGUCUUCAUAUGAAAAAGUAUAAGGAGUGGGAUGUGACUCCGAAAAAAAAAAAAAAAAAAA'
p165
aF0.9411764705882353
aa(lp166
S'JF1'
p167
aS'GUAUUUGUCUAAGAUAUAAGAUAGAAAAGACAUCAAGAUACAAAGAAUCAAGAUAUCUAGAUAUAUAUAUACAAAGGUAUAUAUAUAUCUAAGACAAAAGUCAGACAUAUGUGAAAACAUAUGUCAGGAUACAAAGGUAUCGGAUAUCAGAUUCGGUAUCAGAUGUCAAUGAUAUAUCAAAAAGAUAGUAUCUAGUAUAUUUAUAGAUAUAUAUAUACAAAAGUGUAUAUAUAUUUAAUAGAUAUAUAAAGUUACAAAAAAGUAGCGUAUAUAUACAAAAGUAUAUAUACAAAGAUGGAAACAUCAAUUAUCGAGUAUCAGAUCAUACAGGCUAAUGCCGUAGAUCAGAUGCAUAUUAAUAUAUGUCAUCAUAGAGUAACAUACAAA'
p168
aF1.0
aa(lp169
S'multilooping fun'
p170
aS'UCAAGACAAGAAAUGAAAAGUGCGAAGGAACACGGA'
p171
aF0.8055555555555556
aa(lp172
S'Multiloop...'
p173
aS'GAGCAGUUCAGGAAAAAUCCGUACGAAAGUAAGAUGAAAAUCAGCUAAAAGGCAGACAAAAGUCAGUCAAAAGACAGAACAGAUACAAAAAGGUAUCGCCAAAAGGCGUUC'
p174
aF1.0
aa(lp175
S'hard Y'
p176
aS'AAAAUGAUGCUAGAUAUUUAAAAGUAAAUAUAUGUGGUUGUGAAGGAAAUUUUACAGCUUAUCUAAAA'
p177
aF0.9705882352941176
aa(lp178
S'Mat - Elements & Sections'
p179
aS'AAAAUUAAAUGUAAUGGAUGAAAGCCCAUAAGAUACACGCUCAAAAGAGAGAUUAUCGAGGGGCAAAAUGCCUCAGAAUCUUUUGUAAAAAAAAAAAAAAAAAAA'
p180
aF0.9619047619047619
aa(lp181
S'Chicken feet'
p182
aS'AAAAUGUGAGGGCAAAGCUCGGAACGAAACGGAGUCACCUUCAAAGAAGUAAAAUAAUGGAAAAAAA'
p183
aF0.8805970149253731
aa(lp184
S'Bug 18'
p185
aS'AGGAGAAGUAGGAAGGAAGCAGCAAAGCAAGCACCGCCAAACGAUCAAAGCCA'
p186
aF1.0
aa(lp187
S'Fractal star x5'
p188
aS'AAAAGGAUACUUCAUCUUGAAAACAAGUUGAGCAAAAGCUCUACACAAAAGUGUGAAUACCUAAUGGUGAGGGGGUAUCAAAAAGCUAGAUCUAAUACAAAAGUAUAAGAUCAAAAGAUCAGUUUUGAAAGAGAAAUAUUGAAAAAUGAUGAUUUAGCGAAAAGAGGCUUCGGAGACGAAAGUUUAAGAAUAAAAAUUCAUACUCAAAAGAGUUAGAGCUAAUGCUCAAGAAGCCUCAAAAAGAUGUAUCAAAAGCGAAAGUUUAGUACAAAAAUGUGAGAAUCAAAAGAUUAAAAUGGAAACAUUAGGAUAUGUCAAAAUGUUAUAUCAACUACAAAAGUAGGAGAUCGAAAGAUCGAGAUCAAAGGAUCAAGAUUAAAAAAUCGAGAUAUGACUAAAA'
p189
aF1.0
aa(lp190
S'Crop circle 2'
p191
aS'GUAAAGAAAAAUUGAAAAUGUAAAAAAAGGUUAAAAAAAAAAAAAAAAAAAAAAAAAAAAUGUAAAAAAAAAAAAAAUCGAAAAAAAAAAAAAAAAAGAUGAAGAAAAAA'
p192
aF0.9636363636363636
aa(lp193
S'Branching Loop'
p194
aS'UGCCUGGAAAAAAACGCUUUAAUGAGCAGGGGCUAAAAAA'
p195
aF1.0
aa(lp196
S'Bug 38'
p197
aS'GUUCUUUGCACGGGAAGAUGUCCACAUCAAAAAACA'
p198
aF0.9444444444444444
aa(lp199
S'Simple Single Bond'
p200
aS'AAAAAAGGAAAAAAAUAGUCAAAAAGAUUUAAAAAAAACGAAAAAAAAAAAAAAAAAAAAA'
p201
aF1.0
aa(lp202
S'Taraxacum officinale'
p203
aS'GAACAAAAGAUUUAGAUUAAAACCACCAUCCCAAAGGUGGGGAAUUUAAUGAAUUAGUUAUAGUGGAAAAGAUCGAAAGAAUCACGAUAUAUAACUCAUAUCGAUCAAAGAUCAGAUAUGGAAAUAAAAUGAUAUAUAUGAGAGAUUGAAACGAUUUCAGUAUAUAUCAGCUCAGACAUCAAAGAUGUCGAGCUUAUUAAAGUUAUGUAUCGUGAUGAAAAUAAUCUAAAUAAAAAAUUUAUAACGAAAGAUCCAAAUAAAAAUAACCGGACCAAAAGAGUC'
p204
aF0.8439716312056738
aa(lp205
S'Headless Bug on Windshield'
p206
aS'AGCACAUAAAACCAGCAAAGCACCGAAAAAAAAAAAAAAAAAAAAAAAAACGGGGCAAAGCUAGGGAUUGAGCAGGUAAGGCAAGGAAAAAAAGCAAAAGCAAAAAAGCCGCCAAAAAAACCAGACGCAAAAAAAGAGAAGAAAGAAGAGCAGAUAAAAAAAAAAAAAAAGUCAAGCGAUUCAAUCACUCAGGCAAGUCG'
p207
aF1.0
aa(lp208
S'Pokeball'
p209
aS'AAAGGUACACAAAAGCAAGAAAGACAAGAAAGUGAGGAAGCAAGCGAGCAAAGCAGCAAGCACCAACAAUCAGUCAUCAGCGUGUACCAAAAAAAAUAUAUACAAAAGCAAGAAAGAGAAGAAAGCGAGAAAGAAAGCGAGCAAAGCAGCAAUCAUCAGCGAUCACUCAUCAGCGUAUAUAAAA'
p210
aF1.0
aa(lp211
S'Variation of a crop circle'
p212
aS'AAAAGUAAAAGCCAAUUUAAAAUAAAGGAUGCAAGUUUCCUAAAAGGAAAAAAACAAAAAAAGCAAAAAAAAAACAAAAAAAAAAAAA'
p213
aF0.9545454545454546
aa(lp214
S'Loop next to a Multiloop'
p215
aS'AAGAUAUAUUGAAAAAAUAGAUAUCAAAAGAUAUCAGCUCUACAAAAGUAGAGCGAGAAAAAAGAUAUAUCAA'
p216
aF0.9726027397260274
aa(lp217
S'Snowflake 4'
p218
aS'GAUGAAGCAUCCUAUGCGGAAACGCUAUGAUCAAGGGCGAAAGCGAAUUCAUCUACCAUGAAGUUCAACGAGGGAAUCAGAAAACUCCUUGUUUCUUCGCAAAGGACAAUCUCAGGAACUGACAGAUCAAAAAUUGAUUGUGAAAAUGCAAAAUAGGUACGUAAAGGCGAAUCCUAGUAUCUAGAAGAUGUAUCAUCGAUUCGUUAAUGCGUACCGAGAUACGCAAAGGCGAAUCCUAGAAACUAGAAAUUCAAAGAAUGAUUCACAAAGGCGUAUCAAGCUUAUCAAAAGAGAGUAACUCUAUGCGCAAGCUACAAUAGCUAUUCGCAAAAGCUUAACGACACAGGGAAAGGCCAUAGGAUAAAAUAUC'
p219
aF0.8324324324324325
aa(lp220
S'Mat - Cuboid'
p221
aS'GAAGAAAAACCUAGCAAAAGCAAGUAAAAGAAGCAGGCAAAAGCAAGCAAGGAAAACAAGCAAUCAAGCAAAAUCAAGCAAGCAAACAAAAGCAAGCAGGUAAGCAGGAAAAAGCGAGCGAGCAUGCGAUCAAAAGAGAGUAAACGAGGGAGCGAUCAAAAGAGAUCGAACGAGCGAACGAGCAAAAGCGAGCGAUCGAGCGAAUGGGUAAAAAAGUAAAUGAGUGAGAGAGUGAGCGCGAGCGAGUGAGCGAGGGAGCGGGAGCGAGUGAGCGGGCGAGCGAGAGCUGGCGAGCGAGCUCAAGCAAGCAAGCAAGCGUGAGCGAGCAAGCGCAAGCAAGCAAGCCAACCAAGCGCAAGGGACGCAAGCACAUGCGCAGC'
p222
aF0.8473684210526315
aa(lp223
S'Misfolded Aptamer 6'
p224
aS'AAAAAGGACAAAAAAGAUCAGGAAAAGACAAAAAAAAGUCGGAGCAAAAAGAUCAAAAAAAGUCAAAAAAAAAAA'
p225
aF1.0
aa(lp226
S'Snowflake 3'
p227
aS'GGCCCGAAAGGGAUAGACAAAAGACAGGCGCAGUUGAACACAAAAGUCGGCAACAAAAGUAAGAAACUUACAAAAGUAGUCGACAAAAGACAAUAUCAUGUGGAUACAAAAGUCGAGAGCAAAAGUAUCGAAGAUACAAAAGAACUCGACAAAAGUUAACAUGUGAUCAAGACAAAGGUCGACAAAAAAAGUAUCAAAGAUACAAAACUAGUCGACGAAAGUCAAGAUCUGAUCUAGUCAAAAGACCACAUCAAAAGGAGCAAAGCUCCAAAGGUAGUGGACAAAACCCAUGAUCAUAUAAAGAAAAAAGUCGAGAACAAAAGUGUCAAAGACACAAAAGUACUCGACAAAAGUCAAUAUAGGUGCAAACAAAAGGUCUGUAACAAAAGUGCC'
p228
aF0.8422391857506362
aa(lp229
S'Hard Y and a bit more'
p230
aS'AAAAUUAUCCGCAGCUUCUAAAGGAGACGUGAUCCUGGAAGCUGAAAAUAGCGGUAUGUAAAAAAACGUGAGCGUGUAUCGAGUAUAAAAAAAAAAAAAAAAAAAA'
p231
aF0.9716981132075472
aa(lp232
S'Mat - Lot 2-2 B'
p233
aS'GAAGUGGGGUGUGAUCAAAAGCAACUGCAAAAGGAAAAGCGGGCGGGCGCAAAAGAAGAGAAGAGAAAGCAGGCGCAAUCAAAAGAGAUGGUGAGCGAAAUGAAAAUAGUGAGCAAAAUGGAGAGGGGACCUGAGAAAGAAAAAGUGUAAUUAGGUUCAAAAGUGAGUUUAAAAAAAAAAGUGAACGGUACUAAAAGGGGGCGCGAGGAACCAGGCGCGUGUAAAAGCGGGUCUGGGCAAAAUGUAAUCGGCAAAGAAAAGCAAGCGCUACCGCGAUAAAUAGC'
p234
aF0.8415492957746479
aa(lp235
S'Shapes and Energy'
p236
aS'AAAAAAGUUAGCACCAUAAAAGAAAGAUCAUGAAAGGGAUCAAGCGUGGAAGGAAAAACUCUGAAAACAGACCGGCUAUCGAAAAAAAAAAAAAAAAAAAA'
p237
aF1.0
aa(lp238
S"Spiral of 5's"
p239
aS'CGAAAGAUACAAAGAUAGAAAUAUAGAAAAGAUACAAAGAUUGUAAGAUAGAAGAUACAAAAGAUACAAAGAUAGAAAGAUAUAGGAUACGAAGAUAGAAACAUAGAAGAUACAAAUAUAGAAGAUACAAGAUACAAAAUACAUGAUACGGAUAUAGUAGGAGAGCUAAAUGCUUUGGGGGCUUACGAAAAGUAUCAAAAAGUAUCUAAAAGUAUUAAAAAGUAUCAAAAAGUAUCAAAAGCUAUAAAAAGGUAUCAAAAACUAUGAAAAGCUAUCAAAAAGUAUCAAAAAGUAUCAAAAACUAUCAAAAAGUAUCAAAAAGUAUCGAAAACUAUCAAAAUCGAUCAAAAAGUAUCAAAAACUGUAAAAAACUAUCAAAAAGUAUCAAAAAGAAAAA'
p240
aF0.9949622166246851
aa(lp241
S'Campfire'
p242
aS'AAAAGAUUGGGAAAAAAGGUCAAUAUCAAAAACAUGGGUAUCAAGAAUAAUGGAUUGAUAUCAGCAGCAGAUACAAAGGUAAUCCCGUUACACAUCACGAGCAAAGGCCGGGGAUACGCUUAAUGUACCAAUCAGGUAGUAGAUAAUCUUCUCGCCGGAUAUACAAGUCAAAGGACUGUAAUCGCUACGUCUAUGGUAGUAAACAGUCAAUC'
p243
aF0.839622641509434
aa(lp244
S'Anemone'
p245
aS'AAAAUUCAGAAAAUUGAAUGCUACUAAUGUAGCGAGUGGAAAGCUACUCGAAACGAAACCCUCGGCAUCGAAAGAUGCCGGGGGUAAUCCCCCGCACAUAAUUGUGCUAAUUCAAAGGAGUUAAAUGGGUAUUGCUAGAGUUGAUAAUUCGAUGCACUAUACUUAAGUUUUCUCUAAUGAGAAAGUAACAAGGACUACGGUAUAAAAGUAUACU'
p246
aF0.8691588785046729
aa(lp247
S'Fractal 3'
p248
aS'AAAAAUCUAGGAAAGAGAAAUCGAUAAUUUAUACAAGAAGCAAAAGCAUAAAAGUGUGUGGAAAGCUAAUGUGGAAACCGAUUGAGACAGUAAAGUCUCAAAAACAUUCAUAGGAAAAA'
p249
aF0.8487394957983193
aa(lp250
S'Kyurem 5'
p251
aS'AAAAUAGCGUAAGAGGAAAACCGACAAAAGUACGACCAAAGACUAAAUGGCAGUCGGUAAAAAGAUCGGUCCGUCUGGAACCUUUAAAAAAAAAAAAAAAAAAA'
p252
aF0.9230769230769231
aa(lp253
S'Snowflake Necklace ( or v2.0 )'
p254
aS'GUUUUUAUGUAUCUGAUUGAGAGCAAAAAGCAACAAAAAGUGGGGAAAACCAACAAAAAGUUUGAAAAAUGUACUGAGGACAAAAAGUCACCGUCUGAAAAAAUCAACUAAAUGUAAGAAAAGUUAAGAAAAACUCACAAAAGGUUGGCGUAGGCUAAAAGUCAUAUUUGUAUAAAUUAAAGAAAAACUCCGAAAAGCGACCAAAAGGGGCGAAAAACGCAGAUGUGGCAAAAAGUCGUAUUCAGUAAAAAACAACAAAAAGUAACUAAAUGUAGCAAAAACCUCGAAAAGCGUGUAAAAGCCAAAAAGUCAGAGAUAGCAAAAGGCGGCAAAAAGCAGGAAAAACCUACAAAAAGUUCCAAAAAGUAAUUUCAUAGAUAUAUAGAAAC'
p255
aF0.8097686375321337
aa(lp256
S'Methaqualone C16H14N2O Structural Representation'
p257
aS'AAAAAAAGAUCAGAAUACACAGACAAAGGUCGGACAGACAAAAGUCAGGCAGAGAAAAUCGAGACAAUCAAAAGAUGGGCCAAAAAAGUCAGUCAAGGAGUUAGUGGGAAACAAUUCAGAACAAAGAGAUAAAAACAAAGCAAAAAAAGGAGAGAUCAUCAAAAGGCGACAAAAGUCAACAAAAUUUAUCAGCAAAGAACAAAAAUAGACGGAGAGACGGAGAAUCAAAAGAGAAAACUCAUAUGAUCAAAAGAUACUCAGACAAAAGUCAGUCAGAUAAAAGUCACUCAGAGGUAAAAAGGCGACAAAAGUCAGACAAAAAGCCUCAGUCGGUUCAAAGUUCAGAUCAAAAAAA'
p258
aF0.8873239436619719
aa(lp259
S"Cat's Toy 2"
p260
aS'AAAUUAGACAACGAAAUCGAGGAAAAAAAAAAAAAAAAAAAAAGUAAUGGUAAUACUAGGCUAAUGUAAAAAAAGGAAAAAAAGGGUUGUCUAUAAA'
p261
aF0.9587628865979382
aa(lp262
S'Zigzag Semicircle'
p263
aS'AAAUGUGGAGGUCCAAGAGAACAUAUUUGUGAAA'
p264
aF0.9411764705882353
aa(lp265
S'Short String 4'
p266
aS'AAAAAAGGAUCAAAAAAGAAAAAGAAGUAAAAACAAAAGAAAGAUGGACGAAAAUGGAUGGAAAAACCUGAAGGUCGAAAAAAAAAAAAAAAAAAAA'
p267
aF0.9381443298969072
aa(lp268
S'Gladius'
p269
aS'GGAAACAAUGGAGUCAUGAAGAGAAGAAAGACAGUUAAAGAUCAAAGGGUCAGAUAGAAGAGUCAAUAGAUCAAGAGGAUGAGAUUAUAUGAAGAAUAAAGAUUUAGAUCAAAGCAAACUCAAAGAGUAGUUAUGAUCAAAAUCCGUAUUCAAUAUAUGAAACAGUUCAACAGAUUAAAGGACAACAUAAUAAGACAAAGACAGUUACUUAAGGCAGAACAGAGGAUGUUUAUUCGGCGUACAGGGUAUAGUAUCACAUAUCAGAGAGAUAUCAAAAGAUAUCAAUUCGAAUAUAGGGUAACAUAUUACGUAUGUCCAGAGAACUCAAUCUGGCAAGCCAAAUGUAACAGAACAAAGGUUCAAGGUCAGUCCCACAACCCGACUAAAAAAAAAAGAAAAC'
p270
aF0.895
aa(lp271
S'Thunderbolt'
p272
aS'UUAAGAUGCAAAAAAAAAUGUAAGCAGAAAGGGAACAUAGAUAUACCAAAAAAAAAGUGAAAAAGAUCAAAAAGAUCAAAAAAGCAAAGCCAUGAAAAAAAAAAUAAAAAAAGACGAGCAGGUAAAAAGAAAGCAGACCAAAAAGACUAAAACAAGCUUUAUAUGCAAGAAAAUGUCAGACCAAAGAGAAAAAAAAGACGAAACGGGAAUAAAAAAACAGGGGUCGAAAAAAAGGUCAGAGGGAGAUCAAGGAUUUCAGCAGGCGGAAAAAAAAUGGGUGCAAAAAAAAAGAACAAAAAGCGAUACAAAAACAAAAAAAAGAAAAAGUAUCGAAGAACGAAGGUAUAUCAAAAAAAACAUCAAGCUUAAAAACAAAAAAAGAGCAUCAAAAA'
p273
aF0.9336734693877551
aa(lp274
S'Mutated chicken feet'
p275
aS'GAAAAAACCAGCAGGAAACCGCGUAUCCAAAGUAGGGCAAUAGUGAAACACUGAACGAAAGCGCAGCAUCAGCAAAGCAGCAAAGCGAACGGCAAAAAAA'
p276
aF0.84
aa(lp277
S'Chicken Tracks'
p278
aS'AAAAAAAAGAUACACGAGAAAAAUUUCAUGAUCAACGGAUCUACAGCAAAGGCUGGUGUAUCAGGAGAUGCGGAGAACAAUGCCUAUGGCAGCGAUGUAUAAUACUCAAAAAAAAA'
p279
aF0.9482758620689655
aa(lp280
S'Looking Back Again'
p281
aS'AACAGGGCGUGCAAAAGGAUAUCAAAGAUAUCAGAACAUGAGGAAAAUAGAAACUGAGCAGACACAAAGAACAAAAGUUCGAAAGUGUCAAGUCUAGCCAAGGACUGCAAAAAUAUACAAAAGUAUAAAAAAAGCAGAUAGGAUAUAAAAUAUCGAUACAAAGUGUCGCUAUCGUAGUAAUAAUUAAUAGAGGAUGAAAGCAUCAGCUGCUGGAAGAACGUAAAAAUACAAGAUAGCAAACUAUCGUCCUGAUGCAAGACAAAAAGUUUAUAUAAAAAAAAGCUCAAAAAGAUCAUAUAACGGGAGUCUUACCAAAAAGGCGAUCUUAAAAGAGAUCAAGACCCAAAGCAAUAUCAAAGAUAUAAGUGGAAAAAGAACGAAUCUAGGUU'
p282
aF0.9023136246786633
aa(lp283
S'Multilooping 6'
p284
aS'AAUGUUUCGCCGGGUGAAACUACCGAGAAGAAAUUCUCGCAUCGGGUCCUAAAGGACUCUCUGUUAUCGGUCUAGAGGAGGA'
p285
aF0.926829268292683
aa(lp286
S'Cesspool'
p287
aS'GGCGAAAGAAAUAAUCGGAUAUAGACAAAGUCAAAAAAAUCUGAAAAUAAAAAUUAUGGAAAAAAAGAACACAAUAAAAAUAACAAAAUGAAUAAGUAAUAAAGAGGAUAGACAUAAAGCGAACGAAAAGAUGAAAACAAAAGAAUGGAAUAAAAGAACACAAUAAAAGCACAAACUAGCGAUAAGAAAACAAGGCGACGGACACGAAGUGAAGAAGAAGCUAAAAACAAAAGAACACAUCGAAAGUAGACAAGAAAAAUACAAACCAAGGGAUAAGAAAACAAGUAGAUAUAGAUAAAGCCAAGAAAAACUCAGAUAGAAAACAAUAGUAUAAAAGAUCGAAAUAAAAACACAAUGC'
p288
aF0.7737430167597765
aa(lp289
S'Hoglafractal'
p290
aS'AUGGACAAUUAUGAAAAGGUGCAAAAAAGCACCCAUAAGAAGAGAGCGCAAAAAGUACCUUCUACAACACAAAAGUGGUCAGACAAAGAUCCAAGAUCAAAAAAGAUCGAUCGAUAAGACAAAAGGUCGUCGCAGCUAACGCGAAAUACAAAAAACAAGACUAAAAUGACGUCGCAGCAAAAAUCACUACGAAAGUGAUAUACAAAAAGCAGGAAAAAGUCGAGGCAAAAGGACUCAAAAGAAGAUUUCAAAAAAGUCAAAAGAGGCAUAAAAAAUGAACAUAUACAAAGUGUAUGAAAAAAAGGAAUCAAAAAAGGAUGAAAAGGUAUAAAAGCCAAAGCAACUAAAAACACUUCUAAAGCAAAAGCGUAAAAACGUAUCCAAAGGAUACUGAGGGUAU'
p291
aF0.9
aa(lp292
S'Bullseye'
p293
aS'AAAGGUGUUGAAGCAGCAGCGUUAAAGAGGAAGUAUAAGAAUCGCCAAAAAAAUACCGAUCAAAGAUCAAGGUGGAAGAUAAAGUUCUAUGAGCGUUUAAAAAAUGCUGUUCAAGGAUCAAGGUAAAGUACCAAGUUCAAGGAGCAGCUAAAAAAUCGAGAGCAAAGUUCAAGAAGAAACCUCAAGUUACAAGAACUAGUAA'
p294
aF0.8267326732673267
aa(lp295
S'Shooting Star'
p296
aS'UAUAUAGUUUGGUAUUCAAAGAAAAUCGCUCAAUCAGGGAAAUACGAACGAGAGAGGAUAGAGAAUACCAGAUUCAUGAUAAGUGCUCAGAUGAAAACAGACCAGCAAAAGACGGUACGUUUACAUAUGAGAUACAAACUGGGUAAUUAGGAUGGAUGCUUCAUAUUGAAGAGAUAAAAAUUAUCGAAAAAGUACAAAUCAGAACAGAGCAGAUCAAAGAUAGAGAAACUCUAUUAGCAAGAAAUUUGCGAUCUGGGUAGAAACUACCCAAGAUGCAAAGCAUCGCUCUCUCAAGGAAACUUAUAGGAAUAGAUUCAGUUCAGCAAAAGACAAUACAAGACGAAAACAGGUCGAGAAUAUUUAA'
p297
aF0.7857142857142857
aa(lp298
S'Teslagon'
p299
aS'AAAAAAGGAAAAAACCCGGGUAAAAAAGUUGUAAAAAAAAAAAAAAAGCAAACAAAUUAAUAAAAAAAAAAAAAAGCUACAAAAAAGCCACCGAAAAAAUCAAAAAAAAAAAAAAAGAAAAAAAAGGCGGGAAAAAUGUAGGUAAAAAAAAAAAAAUUCAAACAAAUUAAAAAAAAAAAAAAAAAGUAGCUAAAAAACCAAGAAAAAAAUCAAAAAAAAAAAAAAAGAAAAAAAAUUUGGAAAAAAAGCAACAAAAAAAAAAAAAAAGUGAACAAAUAGCAAAAAAAAAAAAAAAGCACCAAAAAAACCUAAAAAAAAAGCUAAAAAAAAAAACGAAAAAAAAAAAAAAGCGUACAAAAAAAGUAGGAAAAAAUCCAGAAAA'
p300
aF0.9214659685863874
aa.