(lp0
(lp1
S'Simple Hairpin'
p2
aS'AUAUCAAAAAAGAUAU'
p3
aF1.0
aa(lp4
S'Arabidopsis Thaliana 6 RNA - Difficulty Level 0'
p5
aS'AUAUAUCAAAUCACAAAAAAAAAAAGUGGGUAUAUCGGGCUAUAUAUAUAUAUAUACUACGCUACAAAAAAGUAGCCGUAUAUAAUAUAUAUAUAGCAAGAUAUAUCAAGAUAUAU'
p6
aF1.0
aa(lp7
S'Prion Pseudoknot - Difficulty Level 0'
p8
aS'GCUGUCAGCUCAAAAGAGCGACAAGCAAAAAAAAAA'
p9
aF1.0
aa(lp10
S'Human Integrated Adenovirus - Difficulty Level 0'
p11
aS'CUAGGAGAGAUAAGGGCUAUCAAAAAAAAAAUGCUCCACAAGCGCUCACGGCGGAUCAAAAGCCGGAGAUAGAAAAAAAAAGUUUUAUUUUCAAAAGGCGAUCCAAAAGCCCGCCAAAUUGUGAAAGCGCUCAAAAAAGGAGCGCGAGCUAAAAAAAAAAGGAUAGCACUUAAAAAUCUCUCAAACUGGAAA'
p12
aF1.0
aa(lp13
S'The Gammaretrovirus Signal - Difficulty Level 0'
p14
aS'UAGAGGAGGUUUAUAAUUAAAUCAACGCGAAAAGACUCAAGACAGCUGCGUCCAAAAGGGCGGAAAUGGCGUCGAGUAAGCUAGAUUGAAAAAUCUAGCGA'
p15
aF1.0
aa(lp16
S'Saccharomyces Cerevisiae - Difficulty Level 0'
p17
aS'GCGACUUGUCCAAAAAAAAGGGUUGUAAAAAAAAAAAAAAAACUAACCAUAGUAAAAAUCUAUGUAGUUGCAAAGGAAAAUUUCACACAAAAAAAGGUAUUUGGAAAAAAAAAAAACAAAAAACGUUGAAAAAAACGCGUAGUUGUAAAACGUUUUAUAACGGUGUAAAAAAGCCGUCGCUCUAAAAAUGAGCGAAAAACCUGAAAAAAAGUUAGGAGAGUGCUAAUGAUUUAUAAGCUCGAAAAAAAGAGCGAGAGCUAAAAAUGCUCUCAUAGUUUACGAAAAAAGUAGAAUAGGUCUAAUGAUAUGUUAGCUCGAAAAAAAGAGCCGUUGCUAAAAAUGUAAUGAAAGAGGAUUAAAAAUGUUCUACAUAUCUAAA'
p18
aF0.9630606860158312
aa(lp19
S'Fractal 2'
p20
aS'AAAAUGCGAUGUCUAAUCGUUAUGGGUCCGCUAAAAAAAAAAAGUGAAGUAGCAAAAAAAACCUGCAAGCUGAAAAAAAAAACAGCAUCUUAUAACGAAAAGCUGUAUAUUAAGUGCAAAAAAAAAGGCACAAGCUCAAAAAAAAAAGAGCAAGCUCAAAAAAAAAAGAGCAAGAUAUAUAGCAAAAUUGGAUAUUAUGCGCGAAAAAAAAAGCGCUUGCGCAAAAAAAAAAGCGCUAGAUCUAAAAAAAAUGAUCAGAAUAUUCAGUAAUGACAUUGCUAAAA'
p21
aF1.0
aa(lp22
S'G-C Placement'
p23
aS'GCUCAAAGAGCG'
p24
aF1.0
aa(lp25
S'The Sun'
p26
aS'GAUAGCUGUCCAAAGGACAAAGCAUCAAGCAGAGUGGUAGUAUCUACAACACCUGAAACGCAGCAGUAGUAUCUACAAUGCAUGAAACACACAUAAUAAAGUAUCAAAUCAUUAAAAGUAGGAUUACAAGGUGAAAUCCAUUAAACACAGCUUUACAAGCUACAAAGAAUGGAAUAGAGAUGUACUAUGGACAAAUCCUGAAACACAGCUGUACAAGGUAUAAAGCGUGAAACGAACCGGGACAAAGAACAACGCGCG'
p27
aF0.7945736434108527
aa(lp28
S'Frog Foot'
p29
aS'AAAAAAAAACAUGCGAAAGUAUACUCGAAAGGGUUCAGGAACUGA'
p30
aF1.0
aa(lp31
S'InfoRNA test 16'
p32
aS'AUAUACGCAGAUUUCGAAAGAAAUACUCGAGUAUAU'
p33
aF1.0
aa(lp34
S'Mat - Martian 2'
p35
aS'GACUAAAAGGUCAAAGCUAUAGAAGCUAUCCAAAAAAAGGAUAGCCUAUAGUAAAGCAUAUGCAAAAAGGCUAUACACCUAUUUAAAAAAGAGGUAGGGUAUAGCAAAGCUAGAUAUAUAUUAAAAAAAAAUAUAUAAUCUAGCAAAAAGGCAUAUGCAAGGCAUUUAGAUAUACAAAAAAGGUAUAUCAAUGAAUGCAAAUGCUGAAAAGCA'
p36
aF1.0
aa(lp37
S'square'
p38
aS'AUAUAUCCGGUACCGGUAUCCGGUACAAAGUACCGAAAAGAUACCGAAAAGUACCGAAAAGAUAUAU'
p39
aF1.0
aa(lp40
S'Six legd turtle 2'
p41
aS'AAAAACACAGGGAAAGUCAAACGAAAAUGGAAAGAAUACGAAAAAAAAAUUAAUGCAAAAUGUAAUCAAAAGGAAUAGAAAAAAAAAAAAAAAAAAAA'
p42
aF0.9591836734693877
aa(lp43
S'Small and Easy 6'
p44
aS'CAUGUGAAAAGUAGGCUAAAAAAAUAGAAU'
p45
aF0.8666666666666667
aa(lp46
S'Fractile'
p47
aS'AAAAAAAAAAAAUCGAAAGAGAAUAAACGCAAAAUGUAACAAAGUAAAAGCAAAUAGGACAAAAGUCAAUGAAGAAAAAGCAAAAAAAAAAAAAAAAAAAAAAAA'
p48
aF0.9619047619047619
aa(lp49
S'Six legd Turtle'
p50
aS'AAAAUCUAAAUUGAAAAGAUAAGUCAAAAGGAAAACGAAAGUGAAAAGGGAAAUAGAAUGAUAAUGUUAAGGUAAAAGCAACGAGUAAAAAAAAAAAAAAAAAAA'
p51
aF0.9428571428571428
aa(lp52
S'snoRNA SNORD64'
p53
aS'AUAUACAAAAAGACAAAAGACAAAGCUACAAAAAAAAAAAAAGUAGCGAAAGUCAAGUCAAGUAUAU'
p54
aF1.0
aa(lp55
S'Chalk Outline'
p56
aS'AAAAAGCUCAGCUCUAAAAAGAAGCAGACAGACAAAGGUCGUCAGCUAGCAAAGGCAUAGCAGGGGCAAAAGCCACCGAGCGAAAAAAAAAAAAAAAAAAAAAA'
p57
aF1.0
aa(lp58
S'InfoRNA bulge test 9'
p59
aS'GUAUAUCAGAGAGAGCUAUACGAAAGUAUAGCCCCGAUAUAU'
p60
aF1.0
aa(lp61
S'Tilted Russian Cross'
p62
aS'AAAAUCGUACCGCAAAGACGGGGUGACCUCGAAAGAGGGGGCCAAAGGGCCCAGGCCAAAGGGCCCACCGGCAUUAUUACCUACCUAAAAAAAAAAAAAAAAAAA'
p63
aF0.9809523809523809
aa(lp64
S'This is ACTUALLY Small And Easy 6'
p65
aS'AAAAAAAAAAAAAAAAAAAAAAAAAAAAAAAAAAAAAAAAAAAAAAAAAAAAAAAAAAAAAAAAAAAAAAAAAAAAAAAAAAAAAAAAAAAAAAAAAAAAAAAAAAAAAAAAAAAAAAAAAAAAAAAAAAAAAAAAAAAAAAAAAAAAAAAAAAAAAAAAAAAAAAAAAAAAAAAAAAAAAAAAAAAAAAAAAAAAAAAAAAAAAAAAAAAAAAAAAAAAAAAAAAAAAAAAAAAAAAAAAAAAAAAAAAAAAAAAAAAAAAAAAAAAAAAAAAAAAAAAAAAAAAAAAAAAAAAAAAAAAAAAAAAAAAAAAAAAAAAAAAAAAAAAAAAAAAAAAAAAAAAAAAAAAAAAAAAAAAAAAAAAAAAAAAAAAAAAAAAAAAAAAAAAAAAAAAAAAAAA'
p66
aF1.0
aa(lp67
S'Shortie 4'
p68
aS'GGUAAUCCAUCGAAAGA'
p69
aF1.0
aa(lp70
S'Shape Test'
p71
aS'AAAAAGGGCUCAAGCUACAAAAAAAAGUAGCAAGACAGACAGCUACAAAAAGUAGCAGCUCAAAAGAGCAGUCGUCAAGAGCGCAAAAAAAAAAAAAAAAAAAA'
p72
aF1.0
aa(lp73
S'The Minitsry'
p74
aS'GGGUAAAUGACAAAAGCACAAAAAGCCUAAAAGCCAAAAAAAAGGCCGGCAGUGGGUCUCCC'
p75
aF1.0
aa(lp76
S'stickshift'
p77
aS'AAGCUAUCCCAAAAAGGAGAUAGCAA'
p78
aF1.0
aa(lp79
S'U'
p80
aS'AAAAAGCUACAGAGAGCAGAGCUAUAUACAAAAGUAUAUAGCCGCCCGUAGCAAAAA'
p81
aF1.0
aa(lp82
S'Still Life (Sunflower In A Vase)'
p83
aS'AAAACUCGACAGAUAAAAAAUUUGAACCGGAAAAUCCGGGGCACAGAAAAGGUGUGAAAUGAAAAGGACAUAACAAACAAAAAGUUUGAAUAUUUAAAAAAUACAUGCUGUAUAUAUAUAUAUAUACAUCAUACAAAAAAGUAUGAGCUAUAAAAAAAAAAAAAGCUCGAAAAAAAAAAAAAAAAAAAAAAAAAAAAAAAAAAAAAAAAGAGCAAAAAAAAAAAAAAUAGCGGUACAAAAGUGUCAGUGUAUAUAUAUAUAUAUAUAGCUAGCUACAAAAGGUAGCGAGGACUAAAAAAGAUUAACAUACAAAAAGUAUGAAGAUGCGAAACGUACGAAGAUUCAAAAGGGUCAACGAACGAAAAGGUCGGGAGCAAA'
p84
aF0.9735449735449735
aa(lp85
S'Quasispecies 2-2 Loop Challenge'
p86
aS'AAAUGAACCGUCUAAGCUCUAAUGAGUGUGGGUAGCUCAAAAAGUAGGGGCAGGUCCAGGGCCGGAAAAUGGAACGUGAUUGGGAAAAAAAAAAAAAAAAAAAAA'
p87
aF0.9809523809523809
aa(lp88
S'Corner bulge training'
p89
aS'AGCUAUCCAUACAAAGUAUGAAAAGAUAGCA'
p90
aF1.0
aa(lp91
S'Spiral'
p92
aS'AAAAAGCUCAGCUAUCAGACAGCUACAGCUCAGCUCAGCAGCAGCAGCAGCAGCAAAAAGCGCGCGCGCGCGAGCGAGCGUAGCGUCGAUAGCGAGCAAAAA'
p93
aF1.0
aa(lp94
S'InfoRNA bulge test'
p95
aS'AAAAAAAAAAAAAAAAAAAAAAAAAAAAACAGCAAAAAAACCCAAAAGCGCAAAGGGCGGGCGUAGCACAAAAAGUAGUAGCAGCAAGCACUGAAGCAGCAAAAAGGAGUAAAAAAGCAUGG'
p96
aF1.0
aa(lp97
S'Worm 1'
p98
aS'AAAAAAAGGAUCGUAUAUAAUUAGAAAACAGAAUAAGAAAGGCAC'
p99
aF0.9555555555555556
aa(lp100
S'just down to 1 bulge'
p101
aS'AAAAAGCGCAGCUACAAAAGUAGCAGACAAAAGUCAGCAGCAAAAGCUCACACAAAAGUGAGACAAAAGUCAGAGCAAAAAAAAAAAAAAAAAAAA'
p102
aF1.0
aa(lp103
S'Iron Cross'
p104
aS'GAACAGACAAAGGCACGCAAAGCGAGACAAAAGUCAGCCAAACGCACACAAAGGUGCCACGAAGACAACCAAAGGGAAUAAAAAUGUAUCCAAAGACAGUCGAGGACGAACAAAAUUAGUUAA'
p105
aF0.9349593495934959
aa(lp106
S'loops and stems'
p107
aS'AAAAAGCUAGACAAAGCUCAAAGCUCAAAGAGAAAAAAAAAAGCUACGAAAAAAAAAAAGUAGCAAAUCUCGAAGACUCAAAAAAAAAGGAGUAAAGAGCAAAGACAAAAAAAAGUCAAAGAGCAUGAAAAAAAUCUAAGUCUAGCAAAAA'
p108
aF1.0
aa(lp109
S'Water Strider'
p110
aS'AAAAAUCUGUCAGCGAUAGGCAAAAGCCUACCAAAGAAAGCGGGGGGCACACAAAAGUGGACAAAAGUCAUGCGCAAGCUGAAAAAAAAAAAAAAAAAAAAAA'
p111
aF0.941747572815534
aa(lp112
S'The Turtle(s) Move(s)'
p113
aS'AAGGGAAAGCCAAAGAAGAUAUUCUAAAAAAAUGGAUAUCUUAAAGUAUCGAAAAGAUGAAAAGGUCUAAUUGCAAACAUAUAAAAAAAGUAUGAAAUCUGAGGGGAAACCAGAAAGCUCAAAAGAGAAAACAUACCAAAAAAAGGUAUGAAAAAAUAAGAGUAUAAAACCUUUCAAAAUACAAAAAAGGUCAAGUCGAAAAAAAGGCAAACGUAUAAAAAAAUAUGGAUAACCAAAAAGGUUUAGAGAGGAAAAAAAAAUGGAAACAGAAAGUUGAAAUCAAAAGGACAUCAAAAAAAAAGGAUGUAAAAAACGG'
p114
aF0.9493670886075949
aa(lp115
S'Adenine'
p116
aS'AUAUCAGCUAUCAGCUAUCAGCUAUCAGCUAUCAGCUAUCAAAAGCUAUCAAAAAAGAUAGCAGAUAGCAGCUACAAAGCUAUACAAAGUAUAGCGUAGCAGAUAGCAGCUAAAUAUAUCAAAGAUAUAUAAAUUAGCAGAUAGCAAAAGAUAGCAAAAGAUAGCAAAAGAUAU'
p117
aF1.0
aa(lp118
S'Tripod5'
p119
aS'AAGCGCGAUCAAAAAGAUCCACCGAAAAGGUGGUGCAA'
p120
aF1.0
aa(lp121
S'Shortie 6'
p122
aS'GGAAAACCAGCAAAAGCAGCAAAAGCAGCGAAAGC'
p123
aF1.0
aa(lp124
S'Runner'
p125
aS'AAAAAGCUCAGCUCGAAAAGCUCGAAGAGUAGAGCGAAGGCAAAACAUCAAGACUCAAAUUUAGAAUUAUGACAAACUAAGCCGAAUACCAAGACGAAAGUCUGUGAGAGCAAAAA'
p126
aF0.9482758620689655
aa(lp127
S'Recoil'
p128
aS'AAAAAGCUACAAGCAAGCAAGACAAGACAAGCAAGCAAAGCAGCAGUCAGUCAGCAGCAGUAGCAAAAAAAAAAAAAAAAAAAAA'
p129
aF1.0
aa(lp130
S'[CloudBeta] An Arm and a Leg 1.0'
p131
aS'AAAAAGACACCAGGUAAUCCAUGGGUCAGCUAAUGCGACAGUCGAAAAAAAAAAAAAAAAAAA'
p132
aF1.0
aa(lp133
S'[CloudBeta] 5 Adjacent Stack Multi-Branch Loop'
p134
aS'GCUAGCAUCAAAAGAUGGAUACAAAAGUAUCGCUACAAAAGUAGCGCUCAAAAGAGCCUAGCA'
p135
aF1.0
aa(lp136
S'Triple Y'
p137
aS'AAAAGGCUUUGUUCCGGAAACUAGGGGUCUAAUGACUGAUAUCUGGAUCGAAAGAUUGCUCUAAUGAGCUAGUGAGCAACAAAAAAAAAAAAAAAAA'
p138
aF0.9175257731958762
aa(lp139
S'Misfolded Aptamer'
p140
aS'AUACUAAAAAGCCACAAAGUGAGCGAAAGCAAAAAAAAAGCGAAAUGUAU'
p141
aF1.0
aa(lp142
S'Flower power'
p143
aS'AAAAAGGUCCCUCAAAGGGGAACUACCUCUAUGAGGAUGGUAAAGGAUUUAGCCCAAGGGGCUACUGAAUCAAGGAGCGAUCGAAAAAAAAAAAAAAAAAAA'
p144
aF0.9019607843137255
aa(lp145
S'Kudzu'
p146
aS'AAAAAGGAGGAUGGUGGGUAGCUCAGUAAAGCGAAGCGCCCGAACAAGCCAUACGAAGAAGAAUUCAAAUUGACUGCAUCCGAAAAAAAAAAAAAAAAAAA'
p147
aF0.9801980198019802
aa(lp148
S'"1,2,3and4bulges"'
p149
aS'AAAAAGGGUAUCCAAUACUGUUAAACGCUGCCUAAUGGCUUCAGCAAUAUAGUUAACUAAUGAAAGAGUAGAAAAUUAUACAAGAUAAAAAAAAAAAAAAAAAAA'
p150
aF0.9238095238095239
aa(lp151
S'medallion'
p152
aS'GUCUAUGCACAUCGAAAGAUGUGACCAAAAAAAGAACGAAAACUGGUCAGUCUAAUGACUGGAUACGAAAGUAAACCUUGGAAACAGGGUGGCCAAAAGGCAGGGAAAACCUGGCGAUAAAAAUGUUACAGUGAAAACACAAGUCUCAAAAGAGACUAUACAAAAGUGGGUCGAAAGGCAGGGUUCAAAAGGAAUUAAGCGAAAGUUAGUUCUCGAAAGAGAACAAUUAAAAAGCAGACAAAAGUCAGCUGUCAAAAGAUAGCUAGAAAAAGCGUGGUUUCAAAGGAAAUCUUAUAAAAAUGCUAGAAAACAGUAGUAUGAAAACAUAUUAAUAGAU'
p153
aF0.9080118694362018
aa(lp154
S'[RNA] Repetitious Sequences 8/10'
p155
aS'AGCAAAAAAGCAAAAAAGCAAAAAAGCAAAAAAGCAAAAAAGCAAAAAAGCAAAAAAGCAAAAAAGCAAAAAAGCAAAAA'
p156
aF1.0
aa(lp157
S'Documenting repetitious behavior'
p158
aS'AAAAAAAGCAAAAAAAAAGCAAAAAAAAAGCAAAAAAAAAGCAAAAAAAAAACAAAAAAAAAGAAAAAAAAAAGCAAAAAAAAGGCAAAAAAAAAACAAAAAAAAAGUAAAAAAAAAUGAAAAAAAAUGGAAAAAAAAUCCAAAAAAAAAGUAAAAAAAAAACAAAAAAAAUGAAAAAAAAAAGUAAAAAAAAAGGAAAAAAAAAUCAAAAAAAAAACAAAAAAAAAUCUAAAAAAAAGUAAAAAAAAAGCAAAAAAAAAAUUAAAAAAAAACUAAAAAAAAUCAAAAAAAAAGCAAAAAAAAAUGAAAAAAAAAAAAAAAAAAAAGCAAAAAAAAAGGAAAAAAAAAGUAAAAAAAAAGCAAAAAAAAAGCAAAAAAAAAGCAAAAAAAAAGCAAAAAA'
p159
aF0.95
aa(lp160
S'7 multiloop'
p161
aS'AAGCGGUAGUUAUCUACCCUCUAUAAUUGUGGGUGAUAAAAAUCGCGGGAUAAAACUUAAUAUUGAAAAUGAUAAUUAAGAAAUUACCUUAU'
p162
aF0.8478260869565217
aa(lp163
S'Kyurem 7'
p164
aS'AAAAAGCUACUGUACGAAAGUAGCCAAAAGCUCGGAGAAAAACUCAGCCCGCAAAAAGGCGAAAGGCGAGCGGCCAGAUAGCAAAAAAAAAAAAAAAAAAAA'
p165
aF1.0
aa(lp166
S'JF1'
p167
aS'CAUAGAUAUAUACAUAUAAGCUACAAAAGCUAUCAAGCUACAAAGCUACAAGCUAUCACAUAUAUAUAUAUCAAAAGAUAUAUAUAUAUGAACACAAAAGUGACAUAUAUACAAAAGUAUAUAUGAACAUACAAAAGUAUGAGAUAGCAGUAGCAGUAGCAGAUAGCAAAGCUAUAUCAAAAAGAUAAUAGCAACAUAUAUAUAGAUAUAUAUAUAUCAAAAGAUAUAUAUAUAUCAUAUAUAUAUGAAAGCUACAAAAAAGUAGCCAUAAAAAACAAAAGUUUUUUAUGAAACAUCAAAAGAUGAAGUAGCAAAUAUGAUAUCAGACAGACAAAAGUCGUCGAUAAGCUAGAUACAAAAGUAUCAUAGCAAUAUAAUCAUAUGAAA'
p168
aF1.0
aa(lp169
S'multilooping fun'
p170
aS'UAUGAGUAUGAAAAUAGAAAUUAAGCUGAAAACGUA'
p171
aF0.8333333333333334
aa(lp172
S'Multiloop...'
p173
aS'AUCCUGCUCAGACGAAAGUCAGCAGAAAUGCACUCGAAAGAGAGACAAAAGUCAGACAAAGGUCACCCAAAAGGGAGAGCUCCGACGAAAAAGUCGGGCCAAAAGGCGGAU'
p174
aF1.0
aa(lp175
S'hard Y'
p176
aS'AAAAGGGUCAAAGGCGUCUCAAAAGAGAUGUGGAUUCUAUAUAUCUAAUGAUAUAUAGGGGCCAAAAA'
p177
aF0.9705882352941176
aa(lp178
S'Mat - Elements & Sections'
p179
aS'AAAAAGGUCGAAAUUGGCUCAUGGCUCAGACGCUCCACUGGCAAAAGCUUUAAGAGUAACGAGCAAAUAAGGGCGGUAGUGGACCAAAAAAAAAAAAAAAAAAAA'
p180
aF0.9619047619047619
aa(lp181
S'Chicken feet'
p182
aS'AAAAUAGAGGAGCAAAUCAGGGAAUUAAGCUUAUGGAACUCGUAUUCUGUAAGGCCAAGGAAAAAAA'
p183
aF0.8805970149253731
aa(lp184
S'Bug 18'
p185
aS'UCUGGCUCUAGCAAGUAGGCGCGAAACGGGGUAACGAGGAAGAUGGAAAAAGU'
p186
aF0.9245283018867925
aa(lp187
S'Fractal star x5'
p188
aS'AAAAACUUGUAUCAACAGGGAAAUCUGAACACUUAAUAGUGAUUAUCUAAUGAUAUACAUGAAAACAUGAAGGUAUAGGAAAAAUAUUUCCAGUGACCGAUUGGUUUGUAUCGAAAGAUAAACCUAAAAAUAGGAAGAGCGAAAGUUUAAUGGAGAUAAAAAGUCGGGCUCGACCCCAAAGGGGGAAUACAAAAAUGUGAAGACCAAAGGGUUAACAUCAAAGGAUGAAGAGCCCGGAAAAACGCGCGCGUAUACUUAAUAGUAAUUGUGGAAACAUAUCCCUUAAAAAAGGUAGAACAAAGGUUCCUUGCGUGUGGAAAAAGGAUUUCAAGCUCAAAAGAGCAACGUCGAAAGACGGACAUCAAAAGAUGGCCAUCGAAAGAUGAAGAGAUUCUAAAAA'
p189
aF1.0
aa(lp190
S'Crop circle 2'
p191
aS'AUGAUGAUAAAGCGAAACCAAAAAAAAAAUCUAAAAAAAAAAAAAAAAAAAAAAAAAAAAUGGAAAAAAAAAAAAAAAGGAAAAAAAAAGAGAAAAAUGGUAAAGCAAAA'
p192
aF0.9636363636363636
aa(lp193
S'Branching Loop'
p194
aS'ACUGCUAAAAAAAAAACUUAAAAAAGUACGUGGGAAAAAA'
p195
aF0.95
aa(lp196
S'Bug 38'
p197
aS'AGCUAGUGGGGGCUAAAAGUGCAUCAUAUUAAAGUA'
p198
aF0.9444444444444444
aa(lp199
S'Simple Single Bond'
p200
aS'AAAAAAGGAAAAAAAUACUCAAAAAGAGUUAAAAAAAACGAAAAAAAAAAAAAAAAAAAAA'
p201
aF1.0
aa(lp202
S'Taraxacum officinale'
p203
aS'CCAGGAAACCUGGGAGACGAAAGCACUACCUUUACUGAACGAGUCAAAAGUAAUUCGUGAUAACUACCUGCCUCGAAAGUAGGAGCUAUAUAUAUCUUAUAUAUACGAAGUAUAAUAUAGGGGCUUGAAAAUAUAGUUCGACUUAUUUAAAGGAUAAGGGAGUUAUAUUGCCCAGCUAUCAAAGAUAGCGGGCCGAGCAAAAUAUAUAUAGCGGCCCAAAACAGGCACAACAAAGGAUUAACGUUAAAGACACGACUGCGAAAGAAGGGUAUAAAAAGGAAG'
p204
aF0.8971631205673759
aa(lp205
S'Headless Bug on Windshield'
p206
aS'AGCUGAAAAAAAUCUAUAGGGUAUCAAAAAAAAAAAAAAAAAAAAAAAAAGAUUGCAAUGGGUGUAAAUCUGCAGACAAGAGAAGGAAAAAAAAGGAAAUUAAAAAAACUCUCGAAAAGGACGGUGACGGAAAAAGAGAGGCAGGAAAGGGUUAGUAAAAAAAAAAAAAUCUAAUUCAGGUCAGGUACUCGAGUAACACA'
p207
aF0.98
aa(lp208
S'Pokeball'
p209
aS'AAAACUUUAGAACAGCAAGGAAGAUGACCGGGGAUGUAAGCGUGCUAAGUAUUCUGCUAGCCACGUCAAGGAGUUAGCACUUUAAAGUAAAAAAAAGCAAUUCAAAACCAAGCAAAAACAUCGGGCAAGUAAGGGUUCAAAGAAAUCAGAUACCGGCAGCAAGCGGACGGCGGGGCAAUUCGAA'
p210
aF0.9782608695652174
aa(lp211
S'Variation of a crop circle'
p212
aS'AAAACCAAAAGGAAAACGCAAUCUUAUUGUCUAAACAUAGGAAAUAGUAAAAAUUAAAAAAAUCAAAAAAAAAGAAAAAAAAAAAAAA'
p213
aF0.9545454545454546
aa(lp214
S'Loop next to a Multiloop'
p215
aS'AGCCUAUAUCUAAAAAAUGGCUAUAAAAGUAUAGCAGCUAGACGAAAGUUUAGCUAAAAAAAUGAUAUGGGAA'
p216
aF0.9726027397260274
aa(lp217
S'Snowflake 4'
p218
aS'CCUGAAGUAUGCUAUGGCAAAAGUUUUUCUGCGGAUGAUAAUUCUGUGCGAUAAAAUAGCAACAUCAAAGAUGGUACGCUAAAAUGAUUUCAAAAGACCCAAAAGGCAUACCGGCAAAGCCGAAUUUCAAAGAAAGCAAGCCUAAUGGAUACCCAGCUAGUCCAAGGGCAUACCGGCAAAGCCGAACUUCAAGGAAGGUAUGCCAAAUGUCGAGCAAGCUUCGCCAAGGACAUAAGGGUUAUACCCAACAUUAAAGAUUUUAUGACAAACGAGGAGCAAGACAGGCUAAUGCAGUUCGAUCAAAGAUCAACGUCAAAGAUAGGAUGCCGAAAGGGUAGGGUGAAGGGAGAAAGCCAUAGCAUCAAACAUG'
p219
aF0.827027027027027
aa(lp220
S'Mat - Cuboid'
p221
aS'GAGGCAAAAGCGGGCAAAAGAGGACAAAAGGAAGGGGCAAAAGCGGGUGGGCAAAAGGGGGGGGGAGGCAAAAGCUGACGGGGGGGGAAAAUAGGGGGGGGGGUCAUGCAAAAGAGUGGGGGCGGGUGAGCAAAAGCGGGCGAGUGUGGGGGAGAGCAAAAUCGGGCGGGCGGGCGGGCGGCGAAAAUUGGGUGGGCGGGGAUGCGGGCAAAAAAGCAAGCUGGCAAGCAAACAAGAUGAAGCAAGCAAGCAAGCAAGAGCGAUCAAUCUAACGAGCAAGCGCGAGCAAGCAAUCUAUCGCUAGAAACCAAUCAAUAUCAAUCAAGCAUGCGCAGCCAAGCAACGCAAGCAAGCGCAAGUGACGCAAUCGCAAGCGCAGU'
p222
aF0.9842105263157894
aa(lp223
S'Misfolded Aptamer 6'
p224
aS'AAAAAAGACAAAAAAGCUCAGCAAAGGUCAAAAAAAGGGCAAAGGAAAAAGAGCAAAAAAAGUCAAAAAAAAAAA'
p225
aF1.0
aa(lp226
S'Snowflake 3'
p227
aS'AUCACAAAAGUAGACCAUGAAAAUGAAGCUCAUAGCAAGACAAAAGUCAACACCUAAUGGCACAAGGUGCCAAAAGGAGUCAACUAAAGUUAGGUUCAGCUAAAGACAAAAGUCCUCACCAAAAGGCACAAAGUGCCAAAAGGUGAGCACAAAAGGGAAGACUAGCUCAAGAGAAAAUUCAACGCCAAAAGGUACAAAGUACCAAAAGCAGAACGCUAACGCGGCGAGCAGCUCAAUACAAAAGAAGACGCACAAUUGCUCAAAGAGCCAAAAGGAGUCCACAAAAGUGAGGAGCAGUUCUUGACAAAAGUCUGCACCAAAAGGCAGAAGCUGCCAAAAGGAGUACUCGAAAGGGAACUGUGGAGCAAGACAAAAGACGGCAGCAAAAGCGAU'
p228
aF0.8346055979643766
aa(lp229
S'Hard Y and a bit more'
p230
aS'AAAAACGUUUAACCACGCUAAUGAGUAGCUUCAAGAGCAAACGUAAAGAUGCGGGGAUAUAAAAUUGUUUAGGCGUUUUAUGACGGAAAAAAAAAAAAAAAAAAAA'
p231
aF0.9716981132075472
aa(lp232
S'Mat - Lot 2-2 B'
p233
aS'CGAGGCUGACGCGGGCAAAAGGAGGCGCAAAAGGAAAAACAGUCGCAAGUAAAAGCAAUCCGGGGCAAUCGGGGCUGUGCAAAAGCGGGCGCGGGCAAAAGCAAAAGCGCAAGCAAAAGCAAGCACAAGCGGAGCCAAAAAAAAUUACGGGGGAGAGCAAAAGUCGGCUCAAAGGCAAAAGCAAGUGCGAACAAAACCAAGCGGAGGCAAGCAAGAGCCGGCAAAAGCGGGAGAUGGCAAAAGCAAAAGCGCAUGCAAAAGCAAGCGCAAGGGCAAAGAACGAG'
p234
aF0.8380281690140845
aa(lp235
S'Shapes and Energy'
p236
aS'AAAAAACGGCUCUGGCUAAAAGUAAACGAUCUGCUGUGUGAAAUCAGUUUACCAAAAUACGCUGAAAGGCGGUGGGGUAGUAAAAAAAAAAAAAAAAAAAA'
p237
aF0.9603960396039604
aa(lp238
S"Spiral of 5's"
p239
aS'UAAAAGCUACAAAGCGACAAACCUACAAAAGCUACAAAGCUACAAAGGUACAAGCUACAAAAGAUACAAAGCUACAAAGCUACAAGCUACAAAGCUACAAAGCUGCGAGGUACGAAGCUACAAGCUACAGGCUACAAGCUACAAGCUACAGCUACAGCUAUAGAUCAAAAAGAUCUGCGGGAUAGCAAAAAGUAGCAAAAAGUAGCAAAAAGUAGCAAAAAGUAGCAAAAAGUAGCAAAAGGUAGCAAAAAGUAUCAAAAAGUAGCAAAAAGUAGCGAAAAGUAGCGAAAAGUAGCAAAAAGUAGCAAAAAGUAUCAAAAAGUAGCAAAAAGUAUCAAAAAGUAGCAAAAAGUAGCAAAAAGUAGGAAAAAGUCGCAAAAAGUAGCAAAAAGAAAAA'
p240
aF0.9949622166246851
aa(lp241
S'Campfire'
p242
aS'AAAAGUUAAAUGUAGAAGUUCAAGGUCGAAAAGAAGGCCAACAAAGUCAAGCGAGCGCCGGUACCCGGAACUGGAAACUCAAGACUGGCAUAAGACAGAAGCAAAAGCCUAUGGUCAUUCAAAAGAGGGAACUAAGUAAUGCUCAAGCCUAUACACCUGCAUAAAGCUUUAAUGAGUGUAGUGGAUCCCCCAAGGGGAGGAGUCUGUGUAAC'
p243
aF0.8443396226415094
aa(lp244
S'Anemone'
p245
aS'AAAGCGAUCGAAAGAUCGCGCCGCUAAUGCGGCGCGAACGAAAGUUCGCGGAUCGAAAGAUCCGCUAUAUAAUUAUAGCGUUGCGAAAGUAACGCCCCUAAUGGGGCGGUAUCGAAAGAUACCAGUUUCCAAAGAAACGCCAGCAAAAGUUGGCCCUAAUAAUUUAGGGCGAGCGAAAGCUCGCGAUACUAAUGUAUCGCACUUAAAAAAGUGC'
p246
aF1.0
aa(lp247
S'Fractal 3'
p248
aS'AAAAAUGUCAGACAAGGAAAUCGAAAAAGUAGUCAUAUUAUAAACGUUCGAAAGGCGAAGGAGAGCAAAACGGUAAAUGUAUUCGGACGCCAAAACGCUAAAAGGAGUCAGACAAAAAA'
p249
aF0.8487394957983193
aa(lp250
S'Kyurem 5'
p251
aS'AAAAGGGUAUGCCACAAUGGAGGCCAAAAGCAGCGACAAACAGAAAAAUAGGCUGAAAGAACAAUUUAUGGCGGCCUAACUAUCAAAAAAAAAAAAAAAAAAAA'
p252
aF0.9807692307692307
aa(lp253
S'Snowflake Necklace ( or v2.0 )'
p254
aS'AUAUAUAUUGAUAUCGACUACAGAAAAAAACAGCAAAAAGCAGCAAAAAGCACGAAAAACGGCAAAAAGCGAAUAGUGAACAAAAAGUCACCGAGACCAAAAAAGGGCAAAAAGCGCAAAAAAGGUGCAAAAACCAGCGAAAAGCAAUUGGAGACAAAAAGACAGAUAUAGCAAAAAGCGCCAAAAAGGAGCAAAAAGCGGUAAAAAGCAGCAAAAAGCAAUGGCGGACAAAAAGUCUGCAGGGGCAAAAAUCAGCGAAAAGUUCCAAAAAGGUCCGAAAAGGAGCAAAAAGCACUUGCUGGGAAAAAUCCAGCUAUGUCAAAAAGGACCAAAAAGGGGAAAAAAGCAGCAAAAAGCACCAAAAAGGAAUAGCAGAUAUUGAUAUAUGU'
p255
aF0.8406169665809768
aa(lp256
S'Methaqualone C16H14N2O Structural Representation'
p257
aS'AAAAAAAGCUCAGUGCACACACACAAAAGUGAGACACAGUAAAAUGAGAUAUACAAAAGUAAGACAUACAAAAGUGAGGCUAAAAAUGCUAGUCAAUCAAUCAGUGAGAAGCAGAGCAGCUCUAAGCGACCAAAGAAAAUCAAAAAAAAGGUUGAUAGACGAAAGUCUAUAAAAGUACAUAAAAAUUAUUUGCAAAGCGCUGUGUCUGACAGAGUCACAUAGAUACAAAAGUCUAAUGGCGGUGAAACAAACGUUAAUAAUACAAAAAUAGGUGUGUUAAAAGGCAGUCAAACGGCAAAGGACUACAAAGGUAACGCAAAAGUCGUUGGUCUGUGGAAUGGGCAGGGCAAAAAAA'
p258
aF0.8816901408450705
aa(lp259
S"Cat's Toy 2"
p260
aS'AAAAGAGCGAUCUAAAGUAUCAAAAAAAAAAAAAAAAAAAGUACCGAGGCAAAAGCAAUGCAAAACCUAAAAAAAGGUAGCGGGUGGUUGUUCGAAA'
p261
aF0.9381443298969072
aa(lp262
S'Zigzag Semicircle'
p263
aS'AAAUGAACUGGAAGAAAACAACAUAGGGACUAAA'
p264
aF0.9411764705882353
aa(lp265
S'Short String 4'
p266
aS'AAAAAAGAAGCGGGCGAGGAACAUUAGCACAGGAAAGAUAACAGCGUGGCAAAAGCAUUGGAUUAACAGCAAGCUCAAAAAAAAAAAAAAAAAAAAA'
p267
aF0.9587628865979382
aa(lp268
S'Gladius'
p269
aS'GGAAACAAGGAAAAGAAGGGGGGGGGAAGGACAGACAAGGCUGAAAAUAGCAGCUGCGUGAGACACGAGCGCAACAGCGGUCGUGCGAGAUGAGCUGGGAGCUACAGCUAAUUUCGAGCUCAAAGAGCGGAGAAUAGCGAUAGCCACCAGCCAAUUUUGCUACAUCGCAAGGGCGCAAAAGUCAAGAGUAGCAGUCAAAGACAGCGCGAUUAGACUGAAGCUCAGAAUCUCAGAAGCUACUCAAUUAUCACCUGCAGCUAUCACACUGCUAUCAAAAGGUAGCUAGUGGAAUAGACGUAGAGGAUAGAUGAGUAGCACAGGAGGACAAGAGCACUUGUCUGAACGCGCACCUGUAAUCAGGGAAGUCAGUCAAACAACGCAACAAAAGAAACAAGAAAAC'
p270
aF0.91
aa(lp271
S'Thunderbolt'
p272
aS'GCGUUCUACGAAAAAAACGGCGGGCGGAAAAAGAAAGCAGCUGAACCUAAAAAAAAGCGAAAAAGUUCAAAAAGAGCAAAAAAGCAAACCGAGCAAAAAAAGGGGAAAAAACAACAAUCGGGCAAAAUGGAAACUGCGAAAAAACAUAAAAAGGGGCUCUAAGUGCAACAAAAAAUGAGCUCAAUUAGAAAAGUAUAAAGUAUUUAUUAGAAAAAAAAUAAGACCAAAAAAAAUAGAGAAAUGCUAUCAAAGAUAGCUGCAAGGAAAAAAAAAAAGCGAGGAAAAAAAAACGAUCAAAAGUACAAAAAAAUGGAAAAAAACUAAAAUUUGUAAAAAAAAAUGGUUUAGCAAAAAAAACGGCAAGCAGAAAAAGAAAAAAACAGUAGAUAGCA'
p273
aF0.9693877551020408
aa(lp274
S'Mutated chicken feet'
p275
aS'AAAAAAAGCAGCAGCAAAGUACCUAUAGAAAGCACAGGAACUGCAAAGCCACAAAUGCAAUCGUAGCAGGAUUAAAGAAACAAAGCAAAUCGCCAAAAAA'
p276
aF0.89
aa(lp277
S'Chicken Tracks'
p278
aS'AAAAAAAGGCUUUAGGAUCAAAAGAUCAAUGUCAAAAGAUAGAUCCCAAAAGGGACUAAAGCAUGUUCGAAAAAUUCGAUGCCAAAAUCGCUAGGUCAAGGAUCGCCUAAAAAAAA'
p279
aF0.9827586206896551
aa(lp280
S'Looking Back Again'
p281
aS'AGCAAGACAUUGUAAAAGGUAUGAAACAUACCAUAAUAAGAGCAAAAGACUAUGUCUUGAGGUGCAAAGGUGAAAAUAUCAAAAGCAUCAAGUCAAGUCGAAAUUAAGAAAAGCCUACGAAAGUAGGAAAAAACUCACUGUGAGUCGAAGAUUUCAUACAAAGUAUGGCCAUCACAAGGGGAAUUGGUAGGGGGUUAAAAGACCAACUCAUGAAACAGGCACAAAAGUGAGGAUGGCAAAACAGUGACCAGCUGUACAUCAAAAAGGCAGUAUAAAAAAAAGCCCGAAAAGGGCAUACAAAUGCAGAUGGCUUUAAAAAUGCAUAUCAAAAGAUAUGAUGCCCGAAAGGUCUUGCUAUGUAGGUAGGAUAAAAUUACCGCAGCAAAUAU'
p282
aF0.8997429305912596
aa(lp283
S'Multilooping 6'
p284
aS'AAUAGAGUUCCCAACGAAAGUUGGUAAACGAAAGUUUAUAGCUGGACAGAAAACUUCUUUUACGAAAGUAAACUUCUUUAGA'
p285
aF0.926829268292683
aa(lp286
S'Cesspool'
p287
aS'GGGGAAGAAAACAAACCGGGAAACAGUAAAUGAAAAACAAGAAAAUGGGAAAACAAGAAGGGAAAAUAACAAAAGCAAAAGAACGACAGGGGGGAGAAAACAACUCGGGAGGCACAAAGUCAACAAAAAGGCAAGGGUAAAAGAAUAUGGGAAAAUAAAAAAAGAAAAAUAACAACAAACCGAAAGAAAGUAACCAGGGGGAGACAAAGUCAGCGAAAAGGGAAGGGGAAAAAAACAAGGGAAAACAAUAAAAGCAAAAGAACAAGUGAGUGGGGAGAAAACAAUACGGGAGAGUGAAAGGCAACAACAAGCAAAGGGGAAAACAACAGGGCAAAAGAACAAAAGCAAAAGAACAAAC'
p288
aF0.7681564245810056
aa(lp289
S'Hoglafractal'
p290
aS'AACAGGAAGCUAUAAAAGCUACUAAAAUGUAGCGUAGCGGUCAAAGUGCUAAAUGCACGACCUACAAGACAAAAGUCAUAGGAAAAAGCUCAAAGGGCUAAAAUGCCCGAGCGACAAGUCAAAAAGACGUCUUAGCGAAAGCGGGGAUCAAAAUACAAGGCAAAAAAUUCCUACCACCAAAAAGGGGAACGAAAGUAAGCAUUGAAAAGCAACAAAAAGGUGCUACAAAAUGUGACGAAAGGAGCUCUCUAAAAUUAUAAAAAGAUGCCUAAAUGAAAACUUAAUCAAAGAUUAAGAAAAAAUGAGAGCAAAAAAAAUGCAAAAAGAUCAAAGUCCAAACCAAGGAAGAAGCGCGGAAAAUUUAAUAAGCGAAAGCCGAAACAAAGUUUCGAUAGCCUAU'
p291
aF0.91
aa(lp292
S'Bullseye'
p293
aS'AAGAACGCUGUACGAGCAGGCUCAAAAAGCAAGCGCGAAGUGCAUGAAAAAAAUCAGCUUCAAAGAAGAGUCUAAAAGAGCAAGCUAGAAGAGCAUAUAAAAAAGGACGACCAAAGAGCAGCCGUGAAGCGGAAGCUCAAAGAGCGUCAAAAAAAGCUCCAUAUAUACGGUAACUCCAAGAGUAAUGCCAAAGUUGGAGAAA'
p294
aF0.8316831683168316
aa(lp295
S'Shooting Star'
p296
aS'GCUGUCACAGCAUAUAUAAAAAGGGGCGAUCAGGAAGGAAAACACCUAUGAUCGACAACUAAGUAUACGACGUAUGGGACGGUCCAUCAGUUACAGAUAGCUCAGCAAAAGACGAGACAUUGAUAGACGGUUGACAACAAAAGAAAACCUUAUCACUCCACACAAAGAAUAACAUACUGUGACUCCUAAAAAGUGAGAGCCUCGCAGCUCAGCUAAAAGCUUAGGAAACCUAAGCACAGCCGAAAGUUGGAGCGAUCGGCAAAGCCGAUCACAUGCGAAGUCUGGAGAGAUCAAGAAAAGGGAGAAUGGGUGAAUCAGCUCAACAAAAGACGAGAUGAAGCAUCAAAGCAAGAACGAGAUAGUA'
p297
aF0.8076923076923077
aa(lp298
S'Teslagon'
p299
aS'AAAAAUUAGAAAAAAGAACCGAAAAAAGCACCAAAAAAAAAAAAAAAGCAAAAAAUCACAAAAAAAAAAAAAAAACGACCGAAAAAAGGAACAAAAAAAACAAAAAAAAAAAAAAGGAACAAAAAAUAGCAAAAAAGACAUCAAAAAAAAAAAAAAAAGAAAAAAUUUUCAAAAAAAAAAAAAAAGGGGUAAAAAAAGUAUCAAAAAAAGCAAAAAAAAAAAAAAAGCAAAAAAAUGAGGAAAAAAAGUAUCAAAAAAAAAAAAAAGGGAAAAAAUAACAAAAAAAAAAAAAAAAUGGACAAAAAAAUCGACAAAAAAAAAUAAAAAAAAAAAGCUAAAAAAAAAAAAAUUCUGUAAAAAAAGUAGCAAAAAAAUAUAAAAA'
p300
aF0.900523560209424
aa.