(lp0
(lp1
S'Simple Hairpin'
p2
aS'GAUAGAAAAAACUAUC'
p3
aF1.0
aa(lp4
S'Arabidopsis Thaliana 6 RNA - Difficulty Level 0'
p5
aS'GAUAUACAAAAGACAAAAAAAAAAAGUCGAUAUAUCAAGAUAUAUAUAUAUAUAUAGAAAGAUAGAAAAAACUAUCGCUAUAUAAUAUAUAUAUAUCAAGAUAUAUCAAGUAUAUC'
p6
aF1.0
aa(lp7
S'Prion Pseudoknot - Difficulty Level 0'
p8
aS'AUCCUUAGAUCGAAAGAUUAGGUGAUAAAAAAAAAA'
p9
aF1.0
aa(lp10
S'Human Integrated Adenovirus - Difficulty Level 0'
p11
aS'GCUAUAAAUGGUUCGCAUUUCAAAAAAAAAAACAUCGACGUGCCAAAAACCCGUAUCAAAAGUCAUAUAUAUAAAAAAAAAGUUAUAUAUAUUAAAGACGAUACAAAAGGGGGCCAAAAUGUCAAAGAAUUCGAAAAAAGAGUUCGAUGGAAAAAAAAAAGGAGAUGAGAACAAAUUAUUUAAAAUAGCGAA'
p12
aF1.0
aa(lp13
S'The Gammaretrovirus Signal - Difficulty Level 0'
p14
aS'AUGUGGGGAGAUCUAAUGGUCUCAACUCUAAAAAGAUCAAGUGAGAUGCAUAGAAAACUAUGAAAACAUCCACGAUCAAGAUAUAUAAAAGUAUAUAUUAA'
p15
aF1.0
aa(lp16
S'Saccharomyces Cerevisiae - Difficulty Level 0'
p17
aS'AAAUAUCGAUGAAAAAAAACAUCAGGGAAAAAAAAAAAAAACCAAAACAUAGAAAAAAACUAUGGAUAUUUAAAGAAUUGACAAGGCCUAAAAAAUGGCCGCCUAAAAAAAAAAAUGGCAAAACGUAGAAAAAAACUACGGUUAGUUAAAAGUUAAACAACGCAAAAAAAAAUGCGGGUAUCUAAAAAUGAUAUCAAAACAAAGGAAAAAACUUUGGUUUAACAAAAGAUAUUCAAGAGCUAAAAAAUGUUCGAUAUCUAAAAAUGAUAUCAAAAGUUAGGAAAAAACUAACGAAUAUCAAAAGCUCUACAAGAUCGAAAAAAAGAUCGAUAUUGAAAAAAGAUAUCAAAACUUGGAAAAAAACCAAGGUAGAGCAAAA'
p18
aF1.0
aa(lp19
S'Fractal 2'
p20
aS'AAAAAGAUAUAUCAAAGAUAUAUAGCAAGAUCAAAAAAAAAAGAUCAAGAUAGAAAAAAAAAUAUCAAGAACAAAAAAAAAAGUUCAAGUUAUAUAUCAAAGAUAUAUGUCAAGGUCAAAAAAAAAAGAUCAAGAUCAAAAAAAAAAGAUCAAGCUAAAAAAAAAAAUAGCAAGAUAUAUAUCAAAGAUAGAUGUCAAGCUCAAAAAAAAAAGAGCAAGAUCAAAAAAAAAGGAUCAGGAUCAAAAAAAAAAGAUCAAGAUAUUUAUCAAAGAUAUAUCAAAAA'
p21
aF1.0
aa(lp22
S'G-C Placement'
p23
aS'CUAGGAACUAGA'
p24
aF1.0
aa(lp25
S'The Sun'
p26
aS'CGGACGCGGAUAAGGUCCUAGCGCUGAAAGACACCUAUACGAAGUAUACAAGGUUAAGCAGAGUUAUAAAAAUUAUAAAACCUGAAGCAGAGUAUGUGUAUCGCAAAUGCCUGAAACCGACAUAGAGAAGCUCAAAGUCCUGAAACAAACGCAUACGAAAUUUAAGUGUUGAAGCAGAGACAUAAAUGCUGUAAGACCUGAAACAGAGACCGAGAAGCUCGAAGUCCUGAAACAGAGAUUAAGAAGCCAGAAAUUCUG'
p27
aF0.8217054263565892
aa(lp28
S'Frog Foot'
p29
aS'AAAAAAAAAAGAUAGAAAUGUUAUCCUAAUGGGUGCCCUAUGGGC'
p30
aF1.0
aa(lp31
S'InfoRNA test 16'
p32
aS'GAUAUUAGCAAUAUCGAAAGAUAUCUGACAGAUAUC'
p33
aF1.0
aa(lp34
S'Mat - Martian 2'
p35
aS'GAUCGAAAGAUCAAAGAUAUAGAAGAUAUAGAAAAAAACUAUAUCCUAUAUCAAAGAUAUAUCAAAAAAGAUAUUGAGAUAUAGAAAAAAACUAUGUCCAAUAUCAAAGAUAUAUAUAUAUCAAAAAAGGAUAUAUAAUAUAUCAAAAAAGAUAUAUCAAAGAUAUACAUAUAUCAAAAAAGGAUAUAUAAGUAUAUCAAAGAUCGAAAGAUC'
p36
aF1.0
aa(lp37
S'square'
p38
aS'GAUAUACGAUAUCGAUAUACGAUAUCAAAGAUAUCAAAAGUAUAUCAAAAGAUAUCAAAAGUAUAUC'
p39
aF1.0
aa(lp40
S'Six legd turtle 2'
p41
aS'AAGCAGCAAAAGGAAACUGAUGGUCAUGCAAGAUUGAUAGAAGACAAUGGCAGAGCGACAGAGAGUGGUCAUGAAGCCCAAAAAAAAAAAAAAAAAAA'
p42
aF0.8775510204081632
aa(lp43
S'Small and Easy 6'
p44
aS'GACUCUAAAUGAAAAUGAAAAAAAAAAGUC'
p45
aF0.8666666666666667
aa(lp46
S'Fractile'
p47
aS'AAAAAAAAAACCGGGAAACCAUAGCCAAGCGAAAGCAAGCGAGGUGAAAACAAAGCGAGGGAAACCAAUGCAACGUACACGAAAAAAAAAAAAAAAAAAAAAAAA'
p48
aF1.0
aa(lp49
S'Six legd Turtle'
p50
aS'AAAAUCUAACAUAGAAAUGGAGCUGUAAUCAACACCGAGUGAGUAAACAAGAGUGGAAUUUAAUGGAUAAGGCAAAGGCAAAUGGGAAAAAAAAAAAAAAAAAAA'
p51
aF0.9047619047619048
aa(lp52
S'snoRNA SNORD64'
p53
aS'GAUAUCAAAAAGACAAAAGAGAAAGAUACAAAAAAAAAAAAAGUAUCAAAACUCAAGUCAAGAUAUC'
p54
aF1.0
aa(lp55
S'Chalk Outline'
p56
aS'AAAAUCAUCAGAGAAGAAAUUAUUCAGAUAGAGAAAACUCAUCAGUUAGUGAAAACAUAGCAGGGAGGAAACUCGCCGAUGUAAAAAAAAAAAAAAAAAAAAAA'
p57
aF1.0
aa(lp58
S'InfoRNA bulge test 9'
p59
aS'GAUAUAGAGAGAGAGAUAUAGAAAACUAUAUCCCCCUAUAUC'
p60
aF1.0
aa(lp61
S'Tilted Russian Cross'
p62
aS'AAAAAGCCCCUGCGAAAGUAGUACCGGUUCGAAAGAGCGAUAGAAAACUAUCAAAUCGAAAGAUUGGUAUAUCGAAAGAUAGGGCGAAAAAAAAAAAAAAAAAAA'
p63
aF1.0
aa(lp64
S'This is ACTUALLY Small And Easy 6'
p65
aS'AAAAAAAAAAAAAAAAAAAAAAAAAAAAAAAAAAAAAAAAAAAAAAAAAAAAAAAAAAAAAAAAAAAAAAAAAAAAAAAAAAAAAAAAAAAAAAAAAAAAAAAAAAAAAAAAAAAAAAAAAAAAAAAAAAAAAAAAAAAAAAAAAAAAAAAAAAAAAAAAAAAAAAAAAAAAAAAAAAAAAAAAAAAAAAAAAAAAAAAAAAAAAAAAAAAAAAAAAAAAAAAAAAAAAAAAAAAAAAAAAAAAAAAAAAAAAAAAAAAAAAAAAAAAAAAAAAAAAAAAAAAAAAAAAAAAAAAAAAAAAAAAAAAAAAAAAAAAAAAAAAAAAAAAAAAAAAAAAAAAAAAAAAAAAAAAAAAAAAAAAAAAAAAAAAAAAAAAAAAAAAAAAAAAAAAAAAAAAAAA'
p66
aF1.0
aa(lp67
S'Shortie 4'
p68
aS'GCGAAAGCAGCGAAAGC'
p69
aF1.0
aa(lp70
S'Shape Test'
p71
aS'AAAAAGAGAUAAAGAUAGAAAAAAAACUAUCGAGGAAGAGAGGUAGAAAAGCUACCGGCAUUAAUGUGCGCUCUCCAAUAUCGCAAAAAAAAAAAAAAAAAAAA'
p72
aF1.0
aa(lp73
S'The Minitsry'
p74
aS'GACAAAAAGACAAAAAGACAAAAAGACAAAAAGAGAAAAAAAACUCGGUCGGUCGGUCGGUC'
p75
aF1.0
aa(lp76
S'stickshift'
p77
aS'AAGAUAUGCUAAAAAAGACAUAUCAA'
p78
aF1.0
aa(lp79
S'U'
p80
aS'AAAAAGAUAGAGAGAGCAGAGAUAUAUAGAAAACUAUAUAUCCGCCCCUAUCAAAAA'
p81
aF1.0
aa(lp82
S'Still Life (Sunflower In A Vase)'
p83
aS'AAAGAUCGAGGUAGAAAAAAAAUAAAGAUGGAAACCAUUAACAUAGAAAAACUAUGGAGAUAUGAACGAUUAAUUCAUAAAACGAGAGAACCUAGAAAAACUAGCGGAUACAGGUAUAUAUAUCUAGACGAUAGAAAAAACUAUCAGAUACGAAAAAAAAAAAACAUCAAAAAAAAAAAAAAAAAAAAAAAAAAAAAAAAAAAAAAAAAGAUGAAAAAAAAAAAAAGUAUCGAAAGAAAACUUUCAGUCUAGAUAUAUAUAUUUGUAUCAAGAUUGAAAAACAAUCAAGAAAGAAAAACUUUUGAUAUAAGAAACCCAAAAACGUGCGAAAAGUACGAAUAUGUAAAAACAUGAACCCAGGAAAACUGGGAGAUCAAA'
p84
aF0.9470899470899471
aa(lp85
S'Quasispecies 2-2 Loop Challenge'
p86
aS'AAAAACAUCGAGCAAGAUCGAAAGAUCAGGCUCAGGUCGACAAAGGAGAUCACAUCUACAAGAGAAAAACUCAGGGCGAUGGAUGAAAAAAAAAAAAAAAAAAAA'
p87
aF1.0
aa(lp88
S'Corner bulge training'
p89
aS'AGAUAUCGAUAGAAACUAUCAAAAGAUAUCA'
p90
aF1.0
aa(lp91
S'Spiral'
p92
aS'AAAAAGAUCAGAUAUCAGAGAGAUAGAGAUCAGAUCAGCAGCAGCAGCAGCAGCAAAAAGCGCGCGCGCGCGAUCGAUCCUAUCCUCGAUAUCGAUCAAAAA'
p93
aF1.0
aa(lp94
S'InfoRNA bulge test'
p95
aS'AAAAAAAAAAAAAAAAAAAAAAAAAAAAAGAGAAAUAAGGGGUUAAGCUGUAAUCGCCGGUUCGUUACUUAAAUAGCUAUCGCAGAAGGACGUAAACAAGAAAAUACACCAAAAAGUCAUCG'
p96
aF1.0
aa(lp97
S'Worm 1'
p98
aS'AAAAAAAUUUAGGUGGGGCAGCCCGAACUAGUAGCAUGGACGGUG'
p99
aF0.9555555555555556
aa(lp100
S'just down to 1 bulge'
p101
aS'AAAAGGACCAGAUAGAAAACUAUCGGAGAAAACUUAGGAUCAAAAGCUCUGAAGAAAUUCAUCAGAAAUGAUGAGCAAAAAAAAAAAAAAAAAAAA'
p102
aF1.0
aa(lp103
S'Iron Cross'
p104
aS'AAAGUGACGAUUACGCUGAAACUGGCGGAAAACCCACGGAAAAACUGCGAAAACGUACGGAAAUCCGCUUAAGUAACAGGAAAGCCAAUGGAAACUGAAUGAAACUCAGAGUAUCUAUUUCGA'
p105
aF0.9349593495934959
aa(lp106
S'loops and stems'
p107
aS'AAAAAGAUAUAGAAAGAUCAAAGAGCAAAGGUAAAAAAAAAAGAUACAAAAAAAAAAAGGUAUCAAGUACCAAAAGUUCAAAAAAAAAAGAACGAAGCUCAAAGAGAAAAAAAACUCAAAGAUCAGGCGAAAAAGCAAACUAUAUCAAAAA'
p108
aF1.0
aa(lp109
S'Water Strider'
p110
aS'AAAAUCGAGAGAAGCCCAGUGUAAUCACCAGAAAGCUGGGGAAAAAAGGGUAAAAGUGCCUAAAAAUAGCUUGUUGAUCGUGUAAAAAAAAAAAAAAAAAAAA'
p111
aF0.941747572815534
aa(lp112
S'The Turtle(s) Move(s)'
p113
aS'AAAGCUAAUGCAAAAGAUCUAUGCGAAAAAAAAGCAUAGAUCAAAAGAUCAAAAAGAUCAAAAGGAUGAAAAUCACAGAGAGAAAAAAACUUUCAAAACCCAAAGCGAAAGCAAAAACAGAAAACUGAAAACAUGACAAAAAAAGUUAUGAAAAGACGAUAGUCAAAAAGAUAUCAAAAGCUAAAAAAAAGCAACAGUAAAAAAUCUGAAACCUCGAAAAAACGAGGAAUCAUCAAAAAGAUGUAGAUAUCAAAAAAAAAGCGAAAGCAAAAGCCGAUAGGAAAAAAGGAGCAAAAAAAAAAGCUCCAAAAAAGGG'
p114
aF1.0
aa(lp115
S'Adenine'
p116
aS'GAUAGACAUAGCGGAUACCAUAAAUCGUAUGUCAGAUAUUAAAAGAGAUCAAAAAAGAUCUCAAAUAUCGGAUAGAAAGCUAUAGAAACUAUAGCCUAUCAGAUAUAAGAUGAAUAUAGCAAAGUUAUAUAUAUUAUCAGAUUUGAAAAGGUAUCAAAAGCUAUGGAAACUAUU'
p117
aF1.0
aa(lp118
S'Tripod5'
p119
aS'AACCUCGGUUUAAAUGGCCGCGCUAAAUGUGCGAGGGA'
p120
aF1.0
aa(lp121
S'Shortie 6'
p122
aS'GGAAAACCAGCGAAAGCAGGGAAACCAGCGAAAGC'
p123
aF1.0
aa(lp124
S'Runner'
p125
aS'AAAAACAUUAGGUCUAAAUGUUCGAAGAGCUGACCAAAGACAAGUCACCAAAGGUAAAGACGUCAGCAAAGCUAAAGACAGUCAAGGAGAAAGAAAAAGUUCGCUUAAAUGAAAAA'
p126
aF1.0
aa(lp127
S'Recoil'
p128
aS'AAAAGCACAGAAGCAAGGAAGAGAAGCCAACAGAGCAAAGCAUGGGGCGCUCGCCGGCGUUGUGAAAAAAAAAAAAAAAAAAAAA'
p129
aF1.0
aa(lp130
S'[CloudBeta] An Arm and a Leg 1.0'
p131
aS'AAAAACUGAGGUCGGAAACGCGCCCAGAGCAAAGGCCUGACAGAAAAAAAAAAAAAAAAAAAA'
p132
aF1.0
aa(lp133
S'[CloudBeta] 5 Adjacent Stack Multi-Branch Loop'
p134
aS'AUAGCCAUCGAAAGAUGCAUAGAAAACUAUGGAUAGAAAACUAUCGAUCGAAAGAUCGCUAUA'
p135
aF1.0
aa(lp136
S'Triple Y'
p137
aS'AAAAAUAUAAAUCAAUAUAAUCAUGGUUGGAAAUAAUAAUUGAUGCAACUUAUGAUGGAUCUAAUGAUCCAUCUAUGGCAAAAAAAAAAAAAAAAAA'
p138
aF0.9175257731958762
aa(lp139
S'Misfolded Aptamer'
p140
aS'CAGUGACAAUGCCGCAAAGCGACUAUCGAGGACAAAAAUGCUAAAAGCUG'
p141
aF1.0
aa(lp142
S'Flower power'
p143
aS'ACAAAGUGGCGGGGAACUCGUGAUCGUGCAAAUUACAAGAUAAAGUAUCAAUAACUAUCUUUGAUCUGAUAAAAUAUCUUACAAAAAAAAAAAAAAAAAAAA'
p144
aF0.8431372549019608
aa(lp145
S'Kudzu'
p146
aS'AAAAAUAAGUUAGCGACUGAGGACAAUAACGAGGCCUCGCAAACGAAUCGAAUAUAAGGAAAAUACAAAGUCAAGUAAUUAGAAAAAAAAAAAAAAAAAAA'
p147
aF0.9405940594059405
aa(lp148
S'"1,2,3and4bulges"'
p149
aS'AAAAGUACUAGCGCGUCAUCGAGAACGCACUCAAAACAGAGGAUGAAAAUUUAGGAAUAAUAAACUCAGAUAAAAGUCAUCAAAAAAAAAAAAAAAAAAAAAAAA'
p150
aF0.9047619047619048
aa(lp151
S'medallion'
p152
aS'GAAAUAACAUAACAAAGGUUAUGACGGAAAAUUCAUAGAAAACUAAGAUAUCGAAAGAUAUCAGACAAAAGUCAGAUAUCGAAAGAUAUCAGAAAAAACACAAAGAAAGCACAGACAUCGAAAGAUGUCAGGGAAAAAUUAGAUUUCGAAAGAGAUCAAAUGAAAAUUAACGAAAACGAAGACAUCGAAAGAUGUUAGAAAAAGCGAGGAUAGCGAAAGUUAUCAGACAAAAGUCAGAGGAAACUCAGACAUUAAAGGAUGUCAUAGACAACGAAGAUAUGUAAUCAUAUCAGAUGAAAAUCAACGAUAACGCAGAUAGAGAAAUUUAUCAUAUUUC'
p153
aF0.9109792284866469
aa(lp154
S'[RNA] Repetitious Sequences 8/10'
p155
aS'AGCAAAAAAGCAAAAAAGCAAAAAAGCAAAAAAGCAAAAAAGCAAAAAAGCAAAAAAGCAAAAAAGCAAAAAAGCAAAAA'
p156
aF1.0
aa(lp157
S'Documenting repetitious behavior'
p158
aS'AAAAAAAGCAAAAAAAAACCAAAAAAAAACCAAAAAAAAACCAAAAAAAAACCAAAAAAAAACCAAAAAAAAACCAAAAAAAAACCAAAAAAAAACCAAAAAAAAACCAAAAAAAAACCAAAAAAAAACCAAAAAAAAACCAAAAAAAAACCAAAAAAAAACCAAAAAAAAACCAAAAAAAAACCAAAAAAAAACCAAAAAAAAAGGAAAAAAAAAGGAAAAAAAAAGGAAAAAAAAAGGAAAAAAAAAGGAAAAAAAAAGGAAAAAAAAAGGAAAAAAAAAGGAAAAAAAAAGGAAAAAAAAAGGAAAAAAAAAGGAAAAAAAAAGGAAAAAAAAAGGAAAAAAAAAGGAAAAAAAAAGGAAAAAAAAAGGAAAAAAAAAGGAAAAAAAAAGCAAAAAA'
p159
aF1.0
aa(lp160
S'7 multiloop'
p161
aS'GCUCUGUCUUAAUAGGCGACAGGAAAGGUUGCUAGGUGAAAACCUGUCUCAUAAUUGUGCGGCAGGAAACUGUCUGGAUGAAAAUCCGGAGC'
p162
aF0.9782608695652174
aa(lp163
S'Kyurem 7'
p164
aS'AAAAUAGUUGCUCUUUAAUGAGUAGAAAAUUGCGGGCAAAAGUGCGCAACAGUAAAAUUUGAAAUUGGCACCUGAUCAAGCGUAACAAAAAAAAAAAAAAAA'
p165
aF0.9215686274509803
aa(lp166
S'JF1'
p167
aS'GACGGAUGUAUGCAUAGAAGAUACAAAAGAUAUCAAGAUAGAAAGAUAGAAGAUAUGGGAUAUAUAUAUAUCGAAAGAUAUAUAUGUAUCAGCAGAAAACUGGCAUAUAUAGUAAUCUAUAUAUGAGCAUAGAAAACUAUGACAUAUCGCUAUCACUAUCGGAUAUCAAAGAUAUAUCAAAAAGAUAAUAUCAACAUAUGUAUACAUAUAUAUAUAUCGAAAGAUAUAUAUAUAUGAUAUAUAUAUGAAAGAUAGAAAAAGCUAUCGAUAUAUAUCGAAAGAUAUAUAUCAAACAUCGAAAGAUGAAGUAUCAACUAUGAGAUCAGAGAGAGAAAACUCCUCGAUCACCUAGAUAGAAAACUAUUAUAGGAAUACGGUCACGUCGAA'
p168
aF1.0
aa(lp169
S'multilooping fun'
p170
aS'ACGGAAUGAUAAAUAGGCAACGAUGCUGAGAAUCGU'
p171
aF0.8055555555555556
aa(lp172
S'Multiloop...'
p173
aS'GGACAGAUCAGGAGAAAUUCAGGGGAAACCCAGCGUAAACGUCGGCAAAUGCCUCCGGAAACGGUCUGAGAACAGGGAUCGCGUAGUAAAAUCUAUGGCUGAAAAGCGUCC'
p174
aF1.0
aa(lp175
S'hard Y'
p176
aS'AAAAAGGUAAUAGAUGUAUCGAAAGAUGUACGAACGAUUGAUAUCAAAGGAUAUUGAUCGCCAAAAAA'
p177
aF0.9705882352941176
aa(lp178
S'Mat - Elements & Sections'
p179
aS'AAAAAAAGAUGAAGGAGCCCUCGUACUCGACGAACACCUCAUCAAAGUAUUAGCGUCAGCAGUGAAAAGUGGUCGCAAGCUUUUUGAAAAAAAAAAAAAAAAAAA'
p180
aF0.9619047619047619
aa(lp181
S'Chicken feet'
p182
aS'AAAAGGCAACGGGAAACGGCUAAAGGAAAACGCGUCAGCGCGAAAUGUGAAAAGAGAAGAGAAAAAA'
p183
aF0.8805970149253731
aa(lp184
S'Bug 18'
p185
aS'AGGAGAGUGGCGUGUGUAGCAUCUAUGAGAUCUUAUCGAAUGAAACAAAGUCA'
p186
aF0.9622641509433962
aa(lp187
S'Fractal star x5'
p188
aS'AAAAACAUAUAUCAAGAUCGAAAGAUCAACAUCGAAAGAUGAACAUCGAAAGAUGAACAUCGAAAGAUGAAGAUAUAUGAAAAACAUAUAUCAAGAUCGAAAGAUCAACAUCGAAAGAUGAACAUCGAAAGAUGAACAUCGAAAGAUGAAGAUAUAUGAAAAACAUAUAUCAAGAUCGAAAGAUCAACAUCGAAAGAUGAACAUCGAAAGAUGAACAUCGAAAGAUGAAGAUAUAUGAAAAACAUAUAUCAAGAUCGAAAGAUCAACAUCGAAAGAUGAACAUCGAAAGAUGAACAUCGAAAGAUGAAGAUAUAUGAAAAACAUAUAUCAAGAUCGAAAGAUCAACAUCGAAAGAUGAACAUCGAAAGAUGAACAUCGAAAGAUGAAGAUAUAUGAAAAA'
p189
aF1.0
aa(lp190
S'Crop circle 2'
p191
aS'ACAAAGGUAAAGUAAAAGACAAAAAAAAACUAAAAAAAAAAAAAAAAAAAAAAAAAAAAAAAGGAAAAAAAAAAAAAGGUAAAAAAAAGGCGCAAAAACGGAAAGUAAAA'
p192
aF0.9636363636363636
aa(lp193
S'Branching Loop'
p194
aS'GGUUCAAAAAAAAAAUAACAAAGGUUGAAGAACAAAAAAA'
p195
aF0.95
aa(lp196
S'Bug 38'
p197
aS'AACGCCGGGGUGAACAAAGAACAGGAAGAAAAAGUG'
p198
aF0.9444444444444444
aa(lp199
S'Simple Single Bond'
p200
aS'AAAAAAGAAAAAAAAUAAUCGAAAAGAUUUAAAAAAAGCGAAAAAAAAAAAAAAAAAAAAA'
p201
aF1.0
aa(lp202
S'Taraxacum officinale'
p203
aS'GAUCGAAAGAAUCACGUCGAAAGAACGGCACCGAAAGAGUGAGCUCGAAAGAAGCGGAUCGAAAGAAUCACGUCGAAAGAACGGCAUAUAUAUACGAUAUAUAUAGAAACUAUAAUAUAUCAGAUACAAGAUAUUUAUCAGGAUAUGGAAACCAUAUCAGAUAGAUAUCCAGCAGUUAUCAAAGAUAGCGCUGGUAUCAAAGUAUGUAUAUGAGGUCGAAAGAACCACUGCGAAAGACGGACAUCGAAAGUAUGGCCUCGAAAGAAGGACACCGAAAGUGUG'
p204
aF1.0
aa(lp205
S'Headless Bug on Windshield'
p206
aS'GUGAGCAAAAGGAGAGAAAGCCGUUAAAAAAAAAAAAAAAAAAAAAAAAAGACGGCGAACUUAUCACAGCACGAGAGUAGAGAAUCAAAAAAUUGGAAAUAUAAAAAGGACACGAAAACCUCAGAUACAAAAAAUGAGAAGCUAGAGGAUCGUAUAAAAAAAAAAAAAAAUUGAAGAAACUCAAGCGUUCUAGGGCAUCA'
p207
aF0.99
aa(lp208
S'Pokeball'
p209
aS'AAAGAGCUAGAAAAGCAAGCAAGUGAAGGAGGUAUGCAUGCUAUCAAAUAAAAGGGGAUGCUGCAGUAACCGCGCGGCGGCCCGGCUCAAAAAAAAGCGAUUCAAAAGGGGCCAAGAGAGGCAAUCGACCGAUGAACUGAACAAAUGGUUAAAGAGCGGAAGGCACUCAGGACCGAGUCGCGAA'
p210
aF0.9782608695652174
aa(lp211
S'Variation of a crop circle'
p212
aS'AAAGGUAAAAGAUAAGCCAAAAGCGAAUAACCAAGGCAAAUAAAAGCGAAAAGGCAAAAAAUGCGAAAAAAAAGCAAAAAAAAAAAAA'
p213
aF0.9545454545454546
aa(lp214
S'Loop next to a Multiloop'
p215
aS'AGGAGAUAUUGAAAAAAUUGAUAGCGAAAGCUAUCUGCUUUUGGAAACAAGAGCAGGAAAAAAGAUAUUUCAA'
p216
aF0.9726027397260274
aa(lp217
S'Snowflake 4'
p218
aS'GAUCAAGGAUCAAUACCCAAAGGGGAUGGAAGAUGGGCGAAAGCGAUACGAUCAAAGAUCAACGUCAAAGACGGUAUCGCGAAAGCUCAUCAACGCACCCGAAAGCGAUAGCCUCAAAGAGGAAGAUCGAAUAUCCCAUCGCGAAAGCGUGUGAACAUAUGCGAAAAUGAAUGCAGCAAAGCUGAACCUGAAAUAGGCGAUCGAGAAAGCGUAUGAACAUACUAGAAAGAGAUCGCAUCUAUGAUGAAUAGCUAUGCUACGCUCGCGAAAGCGUAUGAACACACGCGAAAGCCAUGCUCGCAAAGCGGAACCUGAAACAGGGCAUGGCGAAAGUGUGUGAAUCAUCGCGAAAGCGUAUUGAACAAAGUUC'
p219
aF0.8864864864864865
aa(lp220
S'Mat - Cuboid'
p221
aS'GAAGGAAAAGCGAGCAAAAGCGAGCAAAAGAAGCAAGCAAAAAGAAGGAAUCAAAAGAAGCAAGCAAGAAAAAACAAGCAAGCCAGCAAAAGGAAGUGAGCGAGCAAGCAAAAGCAUGCAAGCAAGUAAACAAAAGUAAGUAAGCAAGCAAGCAAGAAAAAGCAAGCAAGCCGACAAGCAAGCAAAAACAAGUAAUCAAGUAACCAAGUAAAAAAACAAGGAAACAAGAAAGCAGGUGGAAGCAAGCAAGCAAGAAAACGCAAGAAAACAAGCAAACGAAAGAAAGCAAGCAAGCUAGCGCAAGCAAGCAAGCAACCGCAAGCAAGCAAGCGCAAGCAGGCAACGGAAGCAGUCACAAGCAACGCACGCGCAAGCUCAAC'
p222
aF0.8473684210526315
aa(lp223
S'Misfolded Aptamer 6'
p224
aS'AAAAAAUACAAAAAGGAUCGGCGAAACAUUAAAAAAUAUGAAAAGAAAAAGAUCAAAAAAAGUAAAAAAAAAAAA'
p225
aF1.0
aa(lp226
S'Snowflake 3'
p227
aS'UUCCCUUUUGGAGGCGGGAAAACUCAAUUGCGGUUCAACAGAAAACUGGAAACGGAAACCCAGAAACUGAUCUUUAUAUUUGGAAAAAUCCAAGAACGAUACAAUGGAAAACCAGAAAGCGAAAGCGAGUAUCUCCUUUUUGGAUUCCUGAAAGUACAAGUAUAUAACUAGUCGAAAAGGGACAGCGAAAGUCAGAAACUCUUUUUUAGGGUCGAGAAAACUAAUGUUAUUAUCAAGAGAAAACUCGAUAUCGAAAGCGAGAAACGCAGGUUAGGAGUCGAGAAAACUCAAGAUAUGAGCAACAGAAAACUCUUUAUAGAAAUGUGGAAACUGCUUUAUAGAGAGGUGAAAACGCAAGCUUGGAGAAAGAGAAAACUUGCCAGAGAAAUCGAC'
p228
aF0.72264631043257
aa(lp229
S'Hard Y and a bit more'
p230
aS'AAAAGAAUAUGUAGAUAGAAAGUUUUACAGGCUAGAGCGGGGAUUAAUGUCCAAGCGAGGAAAAACUUGCGAGCACUGGUGUGGUAAAAAAAAAAAAAAAAAAAAA'
p231
aF0.9716981132075472
aa(lp232
S'Mat - Lot 2-2 B'
p233
aS'GGACGCAGGAACAAGCAAAACAAAAAAGUAAUUUAAAAUUGGGGGAGAGAAAAACCGACCGUAAGCAAGUAAGACUAGGCAAAAGCAAGAUCGACCAAAAUUGAAAACGCAAGAAAAACCGAGCGUAAAGUUAAGCAAUCGAAAGGGUAAUAUCUAGCAAAAUCAAGAAUGAAAAUAAAAUCAGGGGCAUAAAAAAGGAAGACCAAAGAAUCAAGCGUAAGCAAAAGCGAAGUCAAUUAAAAUCGAAAUGAAAAGAAAAAUCAAGCGCGGACGCGAGCAAGAAC'
p234
aF0.8098591549295775
aa(lp235
S'Shapes and Energy'
p236
aS'AAAAAAGAGAUCGUAGCAGAACAAAGAUAAUUAAUGAGGUUAAGGGGUGAGUGAAAAACUAGGAAAGCCUACGAGAGUGCAAAAAAAAAAAAAAAAAAAAA'
p237
aF0.9603960396039604
aa(lp238
S"Spiral of 5's"
p239
aS'UAAAAGAUACAAAGAUACAAAGAUACAAAUGAUACGAAGAGACAAAGAUAGAAGAUACGAAAGAUACAAAGGUACAAAGAUAGAAGAUACAAGGAUACAAAGAUAGAAGAUACAAAGAUAGAAAAUAGAUGAUAGAUGAUAGAAGAUAGGGAUAGGGAUAUGUUAUAAAAAAUAACUAAAAAUAUCAAAAACUAUCAAAAACUAUCAAAAACUAUCUAAAACUAUCUAAAGCUAUUGAAAACUAUCAAAAAGUAUCAAAAACUAUCAAAAAGUAUCAAAAAGUAUCAAAAACUAUCAAAAAGUACCAAAAAGUAUCAAAAAGUAUCGAAAACUAUCAAAAGGUCUCAAAAAGUAUCUAAAAGUAUCGAAAAGUAUCAAAAAGUAUCGAAAAAAAAAA'
p240
aF0.9949622166246851
aa(lp241
S'Campfire'
p242
aS'AAAAUAUCCACAGACAAGAUCAAGAGCAAAAUGUUUCUUACUAAGAGUAAGGGAUCGUGUGCAUGAUCAGGUAGAAAGCUAACCGAUACUUCCUGCAUCAUCUAAUGAGGGCUAUCAUGGUAAUCUAGGAAUACUGGAGAGGCAAUGAGUUUGAUAACAGAGAAAUAGCGAAAGCUAUUCCUGGCUAUAUCUAUGAUAAUAGUCGUGAUGUU'
p243
aF0.8820754716981132
aa(lp244
S'Anemone'
p245
aS'AAACACAACUAAUGUUGUGGAUUCAAAGGAAUCCAUAGCGAAAGCUAUGCUGAGGAAACUCAGGACUUCGAAAGAAGUCCCUAGGAAACUAGGCUCAGAAAGCUGAGCGUAUCUAAUGAUAUGAGCUAGUAAUCUAGCGCUAGCGAAAGCUAGCCAAGGUAACCCUUGCACGUGUAAUUACGUGGACAAGAAAUUGUCGAUAUGGAAACAUAUC'
p246
aF1.0
aa(lp247
S'Fractal 3'
p248
aS'AAAAGCCGGGGGGAUUGAAAGAGCUUGCAUAGUCAAAGAGCGCAAGCGUGUUAACACUUAGUCACCGAAAGGAUAUUUAGGCACAGAGAACGAAAGUUUUUUUAGACUUAUUGGAAAAA'
p249
aF0.8319327731092437
aa(lp250
S'Kyurem 5'
p251
aS'AAAAGCCGAGAGACGAAACCGUAUCAAAAGCGGCAUUAAAGAUUAAAUAUCAAUGUGCGAAAAACUGACCGACAUCUUAAUCGGAAAAAAAAAAAAAAAAAAAA'
p252
aF0.9038461538461539
aa(lp253
S'Snowflake Necklace ( or v2.0 )'
p254
aS'GAUAUAUAUAAAUACGGAUACAGCGAAAAGCAGCGAAAUGCAGCAAAAAGCAGCAAAAGGCGCUAAAAAAGAGUAUCAGAGAAAAACUAAGUUGCAUGAAAAACGAGUAAAAAGCGCUAAAAAAGAACUAAAUGUGGCGAAAAGCAGCAACGGCGAAAAACGCAGAUAUACGAAAAACCACUAAAAAAGAGCGAAAAGCAGUAAAAAGUACAAAAAAUGAAUAUCAGAGAAAAACUCAAAUACUGGAAAAACCUCCAAAAAGGACAAAAAAGGACUAAAAGAGACCGAAAAGGAGUCUGAUAGAAAAACUCAGGCAAGGCAAAAAGGACUUAAAUAGAACAAAAGAUGGCAAAAAGCAGUAAAAAAGAUUGCCAGUAUUUAUAUAUGUC'
p255
aF0.8663239074550129
aa(lp256
S'Methaqualone C16H14N2O Structural Representation'
p257
aS'AAAAAAAGAGUAGAUCGGAUAGGGAAAAUCCAGGAACAGAAAGGUCAGAUUGAAAAAACCCACACACGGAAAACUGAUAGAAAAAAGCUAGCAGUUAGUCAAGGUAACUAUGAGAUAGGAUUAAAGCAGACAAAGCUAUGCAAAAAAAAGUCAUUCAAAGAAAACUUGGCGAAAGCUCAUAAAAAUGGAGAGCAAAAAUCAGAAACAGCGAGGCACGCGGACGGGGGAAAAAGAAAACUUACCCACAGAAAGCUGAGUCAGAUAAAAGUCAGUGCUAGAAAUCUAAGUCGUUCUGGAAAAGGAUUGAAAACAGACUGAAAAUCGGGAACGCAGAUCAAAGAGUAAUUUAAAAAAA'
p258
aF0.8366197183098592
aa(lp259
S"Cat's Toy 2"
p260
aS'AAAAGGUAUAACAAAAGCAAUAAAAAAAAAAAAAAAAAAUGGACCUAAGUAAAGAUGAGGCGAAAGCAAAAAAAUUGGAAAGGGCGUUAUACCAAAA'
p261
aF0.9587628865979382
aa(lp262
S'Zigzag Semicircle'
p263
aS'AAAAUUUGGCGGUUAAAGAGAGAGAAUGUACAAA'
p264
aF0.9411764705882353
aa(lp265
S'Short String 4'
p266
aS'AAAAAACUAGCGAAAAACUAACUGUAGUGAAAACACAUGGAAUAGCAAGUAAAGGUAAGCAAGAAUAAGGGAGCGGGAAAAAAAAAAAAAAAAAAAA'
p267
aF0.9381443298969072
aa(lp268
S'Gladius'
p269
aS'CGAAAGAGAGAAACAAAGUAGGGAAGAAGGACCGACAAAGGUCGAAAGACCAGAGAUAACUGAGAAGAGGUCUAGUCUUGGAGGCGUUUAUCAGAGAGGAGAGACAGAUCGAGUCAAGUGCGAAGCGCGGAUAGGAUCGAUUUCCACUCUUGAAUAAAUGAGCAUAACUUCAGACCAAUGCUCUAGGAUUUCGGUCAAACAGGGAUUCAGAGGAGAGAAGAUUGGUAUUUCGUAAGAUAUAGACAUAUCAAAUUCAGAUAUCAGAGAGUUGACGAAAGUCAACAACUCGAAUAUAAGGAUACGGUAUAGCUAUAUCGAAAGAGGACAAAAUCGAGACUCAUGAGGAUCAGAUCGAAAGAUCUAACUGAGUCAAACGACGUGUCGAAGGAAAGAAUAAAAG'
p270
aF0.91
aa(lp271
S'Thunderbolt'
p272
aS'GGAAGCUAAAAAAAAAAUGACAGGCAAGAAAAGGAAACAGAUAUAUUAAAAAAAAAUGGAAAAUUCUCAAAAAGAGAUAAAAACAAAAGUACGCAAAAAAUUUAAAAAAAAGGUAUACGAAGCAAAAAGAAAGCAGAACUAAAAGACGAAAACAAGCGUAAGGAGCAGGAAAAAGUCACCCGAAAAAAAAAAACAUCUGCAACGCCGUAGAAAAAAAGAAAUCGGGAAAAAAUGUUCAAAAAGACAGCAAAGUUGUCAGCAACGAAAAAAAAAAAGCAGACGAAAAAAAAGGACGAAAUACGUAUAGAAAUAAAAAAAAGUUAAAAUAUACGCAGGACAAAGAUAUAUCAAAAAAAAUAGCAAGGAGAAAAACAAAAAAAGGUUAGCAACCA'
p273
aF0.9642857142857143
aa(lp274
S'Mutated chicken feet'
p275
aS'AAAAAAAUCAUAGGCAAAGCAUGAAACAAAAUCGAGCGAGGUGGAAAUUAAAAAAGUAAAGCUCACUGGCAGCAAAGCAGUGUAAGAAAGCAGAAAAAAA'
p276
aF0.77
aa(lp277
S'Chicken Tracks'
p278
aS'AAAAAAAACCAAUACGAUAGAAAUGUCAUGUUAUAAUUAACUAUAUGGAAACAUAGUAUUGGAUGCCGCGGAAACCGCAAGAUCAAAGAUCGACAGGAAGCCUGGGCUAAAAAAAA'
p279
aF1.0
aa(lp280
S'Looking Back Again'
p281
aS'GGCGGGAGAUUUAAAAACAUCUCAAAGAGAUGGAAAUAAGACGGGAAGGGGAACCGCCCACAUAGAAAGUUCAAAGGAACGAAGCUAUGAAGUCAAGUCAGGACACGCAAAAGCGCAGUAAUCUGCGAAAAAAGUGUAUCCGACAGAAACUGUCGAAAGAAGCUUACGAAAUGACUAGAACAAGAAAAAGAAGGUAGAAAUACCAAAGUAGCGGAGGGGGAGAAAACUUAGCAUUUCAAAGUAGCUGUCAGAUACAGAUAAAAAAAGAUACACAAAAAAAACAUUUAAAUGAUGGUCUAAAGUCGUAUCGAUCAAAAAGGAUACAUAGAAAUAUGUAAAGAGAGGAAACUCAUAGAAACUAUGAACACUCAAAAGAUCGUAUCAAAGUC'
p282
aF0.8791773778920309
aa(lp283
S'Multilooping 6'
p284
aS'AUCAAACUGCAAAAUUAACGUUGUGAUUCAAAGGGAUCUAAGAAUUAGGGAAACCUGGGGUAUGAAAGUACCUUGAUAUGUA'
p285
aF0.926829268292683
aa(lp286
S'Cesspool'
p287
aS'AAAAAAGAAAACAACAGAACGCCGAUAAAGUUAGCAAGAACUCAAGAAGGAAAUAAUAAGAUGAAAAAAUAAAAACGAAAGGAUAAUAACAACAACGAAAGAACCAUAAGGAGAUAAAGUCAACAAGAUCCGAACAACGAAAGGAGAGAACGAAAGAACGAAAACGAAAGAAGAAGAAACAAGAGGUAAUCAACAGAACAACGAGAAACCCAACAAGAACUGAACAAGGAAAUAAGACAACAAAGGAAGAAAAACGAAAGAAGAAGUAAGGAACAAGAAAACAACUAAACGGAGGGAAACCCAACAAGAACAGAACAAUGAAAAGAGACAACGAAAGGAGAAAAACGAAAGAAGAAGC'
p288
aF0.8212290502793296
aa(lp289
S'Hoglafractal'
p290
aS'AAUAGUAAAAUACAAAAUUUAGUAAAAUCUAGGGUAUUGCAUAAAGAUCAAAAAGAUCGAGGCAAAAGCGUAACCGCUUGAGACAAAUCUCAUAUACCUAAAAUGGUGGGGAGGGAAGAGUAACACUCCUCGCAGCGAAAGCGCAGUUCAAAAGACAAGGGAAAAAACCCCUGGGAGCAAAAAGCUCAAGAAAACUCACAUUCGAAAACCAUCAAAAAAGAGCGAGAAAAACUCCUUUUUAGUGAUAUCUAAAAAGUAAAAAAAUACCUGAAAAAGAAAGACAUAUAAGAUAUGUCAAAAAAUGAUAUCUAAAAAGAAAGAAAAAGGUCAAAAGUCAACGCAACAAACCGCAGAUGAAAAGUAUUAAUCUUCCGAGCAAAUCAAAGAUUUGAGGUAGCGG'
p291
aF0.865
aa(lp292
S'Bullseye'
p293
aS'AAACGCGAUCAAAGAUCAAAGUGGAAUACGAAGCUCAAAGAUCGUGAAAAAAAGAACGAUGGAAUAUGAGGGUCAAGGACCAAGGUCCAAAAUCGUUAAAAAAAUCGCGCCCAAAGAGCAACGUCAAAGAUGGGUAUCAAAGGACGCGUAAAAAAUUAGCAUCAAAGAGGAAGGCCUAAGGACAAGAACAAGGUUUCCAUAA'
p294
aF0.8514851485148515
aa(lp295
S'Shooting Star'
p296
aS'UUAUCGAAAUGAUAUCGAAGGAGAAGCAGAGAGAUGUGGAAAUAAGAACCUCGGACAACCAACGAUAUCAAAUAUUACAGAAGCAGAGAGAGAGACAGGGUGCAGCUAAUGACGCAACCUGUAUGUACUUCAGACAACGAUCGGAAACAAUAGCAUUCGAUAUAAAGUAUUACACGGUAUCCGUGCACGAAAGGGAGAAUAGCUUAGUUCAGAACAAAGAUAGCCAAGGGCUAUCACAGAGGAACUCUGGAUCCGUGAGGUAUCCUCAUGACUUAGAAACUAGGGAACGACCAAGUAAUCGAACAAGAACAGGGAGAGAUGAGCGAAAGACCAUACCUCACAGGAACGGAAGGGUUACCAUAUA'
p297
aF0.8021978021978022
aa(lp298
S'Teslagon'
p299
aS'AAAAAAACGAAAAAGUGUGCGAAAAAUCCAGGGAAAAAAAAAAAAAAUCAAAAAAAAACAAAAAAAAAAAAAAAGAGGGAUAAAAAAGGGGCACAAAAAACAAAAAAAAAAAAAAAAUAAAAAAAGCUACGGGAAAAGUAACAAAAAAAAAAAAAAAGGAAAAAAAAAUGAAAAAAAAAAAAAAAUAAGAAAAAAAAUAUGAGAAAAAAUUAAAAAAAAAAAAAAACAAAAAAAAUCAGCUAAAAAAACAGUAAAAAAAAAAAAAAAGCAAAAAAAAAGAAAAAAAAAAAAAAAAUCGGUAAAAAAAGUAGCGUAAAACCAGAAAAAAAAAUUACAAAAAAAAAAAAAAAGUGUCAAAAAAAGCUUAAAAAAAAGUGAAAAA'
p300
aF0.8821989528795812
aa.