(lp0
(lp1
S'Simple Hairpin'
p2
aS'GAUAGAAAAAACUAUC'
p3
aF1.0
aa(lp4
S'Arabidopsis Thaliana 6 RNA - Difficulty Level 0'
p5
aS'GAUAUAGAAAAGAGAAAAAAAAAAACUCGAUAUAUCAAGAUAUAUAUAUAUAUAUAGAAAGAUAGAAAAAACUAUCACUAUAUAGUAUAUAUAUAUCAAGAUAUAUCAACUAUAUC'
p6
aF1.0
aa(lp7
S'Prion Pseudoknot - Difficulty Level 0'
p8
aS'GAUAUCAGAUCAAAAGAUCGAUAGUCAAAAAAAAAA'
p9
aF1.0
aa(lp10
S'Human Integrated Adenovirus - Difficulty Level 0'
p11
aS'GCUGAAUAUAGGUCAUGUGUUAAAAAAAAAAGGAUCCCUGUGGGAAAAACGCAUGCGAAAAGACAUUGCUAUUGGAAAAAAACGGUAGCGAUAAAAGUCCGCAUUAAAGCGCCCAAAAACGGGUAAGGUUUCUAAAAAUGAAACCGAUCAAAAAAAAAAAGAAUACAGGAUUAAAAUAUAUUAACCAGUAAA'
p12
aF1.0
aa(lp13
S'The Gammaretrovirus Signal - Difficulty Level 0'
p14
aS'AAGUGGAGAUAUCAAAAGAUAUCAACUCAAAAAAGAUCAAGAGAGAUCCAAUUAAAAAAUUGAAAAGAUCCUCGAUCAAGAUAUAUAAAAAUAUAUAUCAA'
p15
aF1.0
aa(lp16
S'Saccharomyces Cerevisiae - Difficulty Level 0'
p17
aS'GGAAUAGCUAGAAAAAAAACUAGAUUAAAAAAAAAAAAAAGGAGAAAGAUUGAAAAAAGCGAUCCUAUUCCAAAAUGUACUUAAGGUCUAAAAAAUGAUCGGGUAAAAAAAAAAAUCCCAAAAGAUACGAAAAAAGUAUCGAGUACAGAAAGAUACGUAACAUCUAAAAAAUGAUGGAUAUCAAAAAAAGAUAUUAAAAGAUAGAAAAAAACUAUCGCGUGUCGAAAGAUCUCACAGAGCUAAAAAAUGCUUUAGAGCGAAAAAAGUUUUAAAACAAACGGAAAAAACGUUUUGAGAUCAAAUGAGCUAUACGAUGAAAAAAAACAUCUAUAUGGAAAAAACAUAUAAAAAUAGAGGAAAAAACUCUAGUAGCUCUAAA'
p18
aF0.9894459102902374
aa(lp19
S'Fractal 2'
p20
aS'AAAAUAAUCUGGGAAUGCCCUAUACUUUCAUGAAAAAAAAAGCAUGUGGACUAAAAAAAAAGAGUCACGGCCGAAAAAAAAAGGCCAUGGUAUAGGGCUAAGAUGCUGAUUUGGCAUGAAAAAAAAAGUGCAAGGCCAAAAAAAAAGGGUCGUGAACAAAAAAAAAAGUUCUUGAUCAGUAUCAAAGAUAUAUUUCAGUACGAAAAAAAAAACGUGAAGAUCUAAAAAAAAUGAUCGAGAAGAAAAAAAAAGCUUCAGGAGAUAUAUCAAAUCCAGAUUUAAAA'
p21
aF1.0
aa(lp22
S'G-C Placement'
p23
aS'GAUCAAAGAUCA'
p24
aF1.0
aa(lp25
S'The Sun'
p26
aS'GCGAGGCGUAGAAGCUAUAAGCCCGCAAGGAGAAAUGUAGAAACUAUAAAUUCUCAAACGCAGUUAUAGAAACUAUCAAACGAGGAUCUCAGCUAUAGGAACCAUAAUUCAAGUAGGUCAGAUGUAGAACCCAUAAAUUGGUAACCACAGGCAUAGAAACUAUAAGCCGUGAAGUACACGUGCAUAAGAUCUAAACCAAGAAACUAAGAGAAUGGAACAAUUACUCGAGGAGCUCACAUAUGGAAGCUAUUAAUGGAG'
p27
aF0.7945736434108527
aa(lp28
S'Frog Foot'
p29
aS'AAAAAAAAAAUAUCAAAAGAUAGAUCAAAAGAUCCUCGAAACGAG'
p30
aF1.0
aa(lp31
S'InfoRNA test 16'
p32
aS'GAUAUCACACAUAUCGAAAGAUAUAGUAGAGAUAUC'
p33
aF1.0
aa(lp34
S'Mat - Martian 2'
p35
aS'GAUCAAAAGAUCAAAGAUAUAGAAGAUAUAGAAAAAAACUAUAUCCUAUAUCAAAGAUAGAUCAAAAAUGAUAUAGAGAUAUAGAAAAAAACUAUAUCCUAUAUCUAAGAUAUAUAUAUGUCAAAAAAAGACAUAUAGUAUAUCAAAAAAGAUUUAUCAAAGAUAUAUAGAUAUCAAAAAAAGAUAUCUAAGUAUAUCAAAGACAAAAAUGUU'
p36
aF1.0
aa(lp37
S'square'
p38
aS'GAUAUAGCUAUAGCUAUAUCCUAUAGAAACUAUAGAAAAGAUAUAGAAAACUAUAGAAAACUAUAUC'
p39
aF1.0
aa(lp40
S'Six legd turtle 2'
p41
aS'AAAAAGCGAAGGAAAAUCAAAUCGAAAGAAAAAGUAAUGUAAUCUGAAAGGUAAGCGAAAGCAAAAGAAAAUUAAAGCGAAAAAAAAAAAAAAAAAAA'
p42
aF0.9591836734693877
aa(lp43
S'Small and Easy 6'
p44
aS'AAGAAAAAAGGUAAGUAAAAAAAAGCGCUU'
p45
aF0.8666666666666667
aa(lp46
S'Fractile'
p47
aS'AAAAAAAAAAAUGCGAAAGCUAAGCAAAGGAAAGCCAACCAAGGGAAAACCAAAGGAAGCAAAAGCAAAGCAAGCAAAAGCGAAAAAAAAAAAAAAAAAAAAAAA'
p48
aF1.0
aa(lp49
S'Six legd Turtle'
p50
aS'AAAAAUCGAAGCAAAAGUGAAAAUAAAAAUGGAAAGCGAAAGCAAAGGGAAAAGUAAAUGGAAAGAGUAAAUUGAAAAGAAAAGGAAAAAAAAAAAAAAAAAAAA'
p51
aF0.9619047619047619
aa(lp52
S'snoRNA SNORD64'
p53
aS'GAUAUCAAAAAGAGAAAAGAGAAAGAUAGAAAAAAAAAAAAACUAUCAAAACUCAACUCAAGAUAUC'
p54
aF1.0
aa(lp55
S'Chalk Outline'
p56
aS'AAAAGCUUCACCUACAAAAGUAAGGAGUAAGAGAAAACUCUACGGAUAGCUAAUGCAUAUCAGCGGGGAAACUUAGCGAAGAAAAAAAAAAAAAAAAAAAAAAA'
p57
aF1.0
aa(lp58
S'InfoRNA bulge test 9'
p59
aS'GAUAUAGAGAGAGAGAUAUAGAAAACUAUAUCCCCCUAUAUC'
p60
aF1.0
aa(lp61
S'Tilted Russian Cross'
p62
aS'AAAAAGAUGGAGUGAAAGCUCGGGCAGAAGAAAACUUCGAUACGAAAGUAUCAUACCAAAAGGUAGCCCCUAGUAAUCUAGCGUCAAAAAAAAAAAAAAAAAAAA'
p63
aF1.0
aa(lp64
S'This is ACTUALLY Small And Easy 6'
p65
aS'AAAAAAAAAAAAAAAAAAAAAAAAAAAAAAAAAAAAAAAAAAAAAAAAAAAAAAAAAAAAAAAAAAAAAAAAAAAAAAAAAAAAAAAAAAAAAAAAAAAAAAAAAAAAAAAAAAAAAAAAAAAAAAAAAAAAAAAAAAAAAAAAAAAAAAAAAAAAAAAAAAAAAAAAAAAAAAAAAAAAAAAAAAAAAAAAAAAAAAAAAAAAAAAAAAAAAAAAAAAAAAAAAAAAAAAAAAAAAAAAAAAAAAAAAAAAAAAAAAAAAAAAAAAAAAAAAAAAAAAAAAAAAAAAAAAAAAAAAAAAAAAAAAAAAAAAAAAAAAAAAAAAAAAAAAAAAAAAAAAAAAAAAAAAAAAAAAAAAAAAAAAAAAAAAAAAAAAAAAAAAAAAAAAAAAAAAAAAAAAA'
p66
aF1.0
aa(lp67
S'Shortie 4'
p68
aS'GCAAAAGCAGCGAAAGC'
p69
aF1.0
aa(lp70
S'Shape Test'
p71
aS'AAAAAGAGAUCAAGAUAGAAAAAAAACUAUCAAGAGAGAGAGAUAGAAAAACUAUCGGAUCAAAAGAUCACUCCUUAGGAUCGCAAAAAAAAAAAAAAAAAAAA'
p72
aF1.0
aa(lp73
S'The Minitsry'
p74
aS'GAGAAAAAGGGAAAAAGCAAAAAAGAUACAAACACAAAAAAAAGUGAAUCGUGCACCCGCUC'
p75
aF1.0
aa(lp76
S'stickshift'
p77
aS'AAGAUAUCCCAAAAAGGAGAUAUCAA'
p78
aF1.0
aa(lp79
S'U'
p80
aS'AAAAAGAUAGAGAGAGCAGAGAUAUAUAGAAAACUAUAUAUCCGCCCCUAUCAAAAA'
p81
aF1.0
aa(lp82
S'Still Life (Sunflower In A Vase)'
p83
aS'AAAGAUCAAGAUAGAAAACCUAUCAACGUAGCAACUGCGGGGUUAGAAAAACUAACAAGAUGGAAACCAUCAAGUUGGAAAAACCAGCGACAUGCAAAAAGCAUGGGUUAAAUAGAUCUAUAUAAGUACGUAUCAAAAAAGAUACAGAUAGUAAAAAAAAAAAAGAUCGAAAAAAAAAAAAAAAAAAAAAAAAAAAAAAAAAAAAAAAAGAUUAAAAAAAAAAAAUCUAUCCAUAGGAAACUAUGAGUAUUUAUAUAGAUUUAUUUAGCAGGAGAGAAAAACUCUCAAACUCGAAAAGCGAGUAAGAUUCUAAAUGGGUCAAGAUAUAAAAAAUAUCGAGAGCGAAAACGCUCAAGGUUGUAAAUCAACCAGAUCAAA'
p84
aF1.0
aa(lp85
S'Quasispecies 2-2 Loop Challenge'
p86
aS'AAAAAGAUACUAGAAGAUCAAAAGAUCAACUAGAGAGAAACAAAGGAUCUCAUAUCGAGAAGAGAAAAACUCAACGAGAUAUAUCAAAAAAAAAAAAAAAAAAAA'
p87
aF1.0
aa(lp88
S'Corner bulge training'
p89
aS'AGAUAUCGAUAGAAACUAUCAAAAGAUAUCA'
p90
aF1.0
aa(lp91
S'Spiral'
p92
aS'AAAAAGAUCAGAUAUCAGAGAGAUAGAGAUCAGAUCAGCAGCAGCAGCAGCAGCAAAAAGCGCGCGCGCGCGAUCGAUCCUAUCCUCGAUAUCGAUCAAAAA'
p93
aF1.0
aa(lp94
S'InfoRNA bulge test'
p95
aS'AAAAAAAAAAAAAAAAAAAAAAAAAAAACACGUACAAAAUAAGUAAGGGUAGAUGUGGGUGACCGGUGGAAAAGCCAGCAGGCUCCACCUGUUAAGAACGAAAAUUUACCGAAAAGACAGCU'
p96
aF0.9508196721311475
aa(lp97
S'Worm 1'
p98
aS'AAAAAAAGAUGUAUGUAUGAGAUAAAAAUUUUCUAGGAGGACAGU'
p99
aF0.9555555555555556
aa(lp100
S'just down to 1 bulge'
p101
aS'AAAAAGAGCAGAUUGUAAUCGAUCAGUAAAAGUACGGCAUCAAAAGAGGAUAGAAAGCUACGAGGAAACUUACCUUAAAAAAAAAAAAAAAAAAAA'
p102
aF1.0
aa(lp103
S'Iron Cross'
p104
aS'AGAGACGGAAAGGGACAGAAACUGAUAGGAAACUGACCCAAAGAGAGCGAAAACGCCCGCAAAGCGACUCAAAGAGAGAGAAAACUCAGAGAAACUCACUCGAACCGAGGCAAAGCCACUCAA'
p105
aF1.0
aa(lp106
S'loops and stems'
p107
aS'AAAAAGAUAUAGAAAUAUCAAAGAUCAAAGAUCAAAAAAAAAGAUAGAAAAAAAAAAAACUAUCAAAGAUCAAAAGAGCAAAAAAAAAAGCUCAAAGAUCAAAGAGAAAAAAAACUCAAAGAUAAAGCAAAAAAGCAAACUAUAUCAAAAA'
p108
aF1.0
aa(lp109
S'Water Strider'
p110
aS'AAAAAGAGAAGACAACUACAAAAAAGUUAAAAAAAUUUAAUAAAAAGUGCAGAAAGCUGCUCAAAGGGCAUGUGAAACUAGUAAAAAAAAAAAAAAAAAAAAA'
p111
aF0.9223300970873787
aa(lp112
S'The Turtle(s) Move(s)'
p113
aS'AAGGUAAAAGCAAAAGAUACAUCGAAAAAAAAGCGAUGUAUCAAAAAAUCAAAAAGAUUAAAAGGAUAAAAAUUAAAACGAGAAAAAAACUGGAAAAAUAGAAAGUAAAAGAAAAAACUGAAAACAGAAAAGAUAUCAAAAAAAGAUAUCAAAAAAGAAAACUAAAAAUGAUACGAAAAGGGAAAAAAACCCAAGAUAAAAAAAGGUAAAAGAUAGAAAAAACUAUCAAACAUCGAAAAGAUCAACGUAUUUAAAAAAAGCCAAAAUCCAAAAGCGAAACCAAAAAAGAUAGAAAAAAAAAACUGUCAAAAAACUC'
p114
aF0.9873417721518988
aa(lp115
S'Adenine'
p116
aS'ACUAGAUAGAUUAGACGUAGGAGAUCUAAUAGCAGAGAUCAAAAGAUGUCUAAAAUGAUAUCGGAUCUCUGAGACAAAUAUAUAGAAACUGUAUGGUCUCUGCUAUUUGGUAGAUAUAUGAAACGUAUAUAAAUUACCGGAUUUCAAAAUACGUUAAAAAAUUUAAAAGCUAGU'
p117
aF1.0
aa(lp118
S'Tripod5'
p119
aS'GUGAGCCUACUAAAUGUAGCGAGAAAACCUCGGCUCUA'
p120
aF1.0
aa(lp121
S'Shortie 6'
p122
aS'GCAAAAGCAGCAAAAGCAGCGAAAGCAGCGAAAGC'
p123
aF1.0
aa(lp124
S'Runner'
p125
aS'AAAAUGAUACGUUCAAAAGGAUGAAAUAUCAGAAUAAACCUACGCUGUGGAACGCAAAAACCAGAUCAAGGAUAAACUAGAGGAAUGCGAAAAAUAAAACUGGCGAUUAUUUAAAA'
p126
aF0.9482758620689655
aa(lp127
S'Recoil'
p128
aS'AAAAAGAUAGAAGCAAGCAAGAGAAGAGAAGCAAGCAAAGCAGCACUCACUCAGCAGCACUAUCAAAAAAAAAAAAAAAAAAAAA'
p129
aF1.0
aa(lp130
S'[CloudBeta] An Arm and a Leg 1.0'
p131
aS'AAAAGCAGGGCCAGAAAACUAGGCGAGAGCGAAAGCCUCACUGAAAAAAAAAAAAAAAAAAAA'
p132
aF1.0
aa(lp133
S'[CloudBeta] 5 Adjacent Stack Multi-Branch Loop'
p134
aS'GAUUGGGUGGAAACAUCGUAACGAAAGUUACCCCACGAAAGUGGGCGGGAAAGCCCGCAAUCA'
p135
aF1.0
aa(lp136
S'Triple Y'
p137
aS'AAAAAAAUCCUGGAUUGUAAUCGAUCGCAGAAAUGUGCCAGGUAAUUAGGGAGCUGGCGAAAAAACUAGGAAUGAUUAAAAAAAAAAAAAAAAAAAA'
p138
aF0.9175257731958762
aa(lp139
S'Misfolded Aptamer'
p140
aS'GACGUAAAAGCGAGACAAUAUAGGGAAACCGAAAAAUAGUCAAAAUCGUU'
p141
aF0.96
aa(lp142
S'Flower power'
p143
aS'AAAAAGAUCUCCCAAGGGCUAUAUAUUGUUAUCCAAAAUGGAUAUCCCAGCAAAUGAAGACAGGUAGAAUUGAAAAUCGGUCGAAAAAAAAAAAAAAAAAAA'
p144
aF0.8627450980392157
aa(lp145
S'Kudzu'
p146
aS'AAAAAGAAACUAGGAAUACAAGACAGGGAACCCUGUGAUUUUAAGAAACUAUAAGAUCGGAAGCCCUAAGCCACGUGCUUCGAAAAAAAAAAAAAAAAAAA'
p147
aF0.9108910891089109
aa(lp148
S'"1,2,3and4bulges"'
p149
aS'AAAAGGGGGAGCGCGGAAAUGAAAACGCGGUGGAAACGCACCGUCAAAAUACCUGCCGAAAAAAAGCUGAUGAAAAUCUGGAACGGAAAAAAAAAAAAAAAAAAA'
p150
aF0.9619047619047619
aa(lp151
S'medallion'
p152
aS'UAGUGCGCAUAUGGAAACAUAUGGGGGAAAACCCAGAGGAAACUCGGUUAUCAAAGGAUAGCAGCGAAAGCGCAGAUGUCAAAAGACAUCAGCUUAAUGGCAUGGAAAACUAAGACAUCAAAAGAUGUCAGAAAAAACCCGGAUUACAAAAGUAAUCAGUGAAAACACAGCGAAAAGUGAGAUUUGAAAAUAAAUCGGAGGAAACUCAGAGAUCAAAAGAUUUCGAUUGAAACGGAGGCAAAACUCGGAACUCAAAAGAGUUCAGUGGAAACACAGCGGUCGAAAGACCGCAGACGAAACUUAGGUGAAAACCGGAUACCAAAAGGUAUCAGGAAUA'
p153
aF0.9317507418397626
aa(lp154
S'[RNA] Repetitious Sequences 8/10'
p155
aS'AGCAAAAAAGCAAAAAAGCAAAAAAGCAAAAAAGCAAAAAAGCAAAAAAGCAAAAAAGCAAAAAAGCAAAAAAGCAAAAA'
p156
aF1.0
aa(lp157
S'Documenting repetitious behavior'
p158
aS'AAAAAAACGUAAAAAAAAGAAAAAAAAAAGCAAAAAAAAAGGAAAAAAAAAGCAAAAAAAAAGGAAAAAAAAAGCAAAAAAAAAGCAAAAAAAAGCCAAAAAAAAAGCAAAAAAAAAGCGAAAAAAAAGCAAAAAAAAAACAAAAAAAAAACAAAAAAAAAGAAAAAAAAAAUCAAAAAAAAAGGAAAAAAAAGACGAAAAAAAAGUAAAAAAAAAUCAAAAAAAAACCAAAAAAAAAGCAAAAAAAAGUCAAAAAAAAGGCAAAAAAAAAGCAAAAAAAAACCAAAAAAAAGGCAAAAAAAAAGGAAAAAAAAAGCAAAAAAAAAGCAAAAAAAAAUCAAAAAAAAAGAAAAAAAAAAUCAAAAAAAAACCAAAAAAAAAUCAAAAAAAAUCGAAAAAA'
p159
aF0.96
aa(lp160
S'7 multiloop'
p161
aS'UGGCCCCUGUAAUUUUCGUACCCGAAACGGUGUCUUUGAAAGAAGAUCUUGAAAGCCGGACUGCGCAAUCCCGGGGAACAAAGGUUCCGUUA'
p162
aF0.9782608695652174
aa(lp163
S'Kyurem 7'
p164
aS'AAAAGGGUUUAAGUCGAAAGGCAGGACAACGUCCCCGUAAAUCGAAGAGUCCGAAACAGGAAAAAUUGAUGCCUACAAGGCUAAAAAAAAAAAAAAAAAAAA'
p165
aF0.9215686274509803
aa(lp166
S'JF1'
p167
aS'GAUACAUAUAUGGUUAGAAGAUAGAAAAGAUAUCUUGAUAGUAUGAUGGAAGAUAUCUGAUAUACAUAUAUCAAAAGAUAUAUGUAUAUCUAGAGAAAACUCAGAUAUAUAGAAAACUAUAUAUCAAGAUAGAAAACUAUCAGAUAUCGCUAUCUCUAUCUGAUAUCAAAGAUAUAUCAAAAAGAUAGUAUCAAGAUAUAUAUAAAUAUAUAUAUAAAGAAAUUUAUAUAUAUAUUAUAUAUAUAUCAAAGAGAGUAAAAUCUCUCCAUAUAUAUCAAAGGAUAUAUAUGAAAGAUCGAAAGAUCGACUAUCGACUAACAUAUCAGAGGUGGAAAACCACUCGAUAAGAUACAUAGAAAACUAUGAUGUCAGUAUGAUGAUAUCAAA'
p168
aF1.0
aa(lp169
S'multilooping fun'
p170
aS'AACGUAGGGAAAUCGGUAACCCCUUCUGGUAUUAUU'
p171
aF0.8333333333333334
aa(lp172
S'Multiloop...'
p173
aS'GGUCUCAUGAGUGAAAACACAAAGGAAAAUUAGUCUAAGGGCGGCCUAAUGACAGGGGAAAUUCGGCUAAAAAAUAUACUUGGUAGUAAAAUCUACCGACAAACUUCGAUC'
p174
aF0.9459459459459459
aa(lp175
S'hard Y'
p176
aS'AAAAUGAUCCAAAAGGUAUGAAAGUAUAUUUGAGGGUAUAGGGGGUAAUCCUCCUAUACGAUCUAAAA'
p177
aF0.9705882352941176
aa(lp178
S'Mat - Elements & Sections'
p179
aS'AAAAAAAUGUGGAAGAGGGUGCGGAUCAACAGAUCUGCUGAGUAAUUUCUGACGAUCGCAGAUCAAAGCAGCUCGCGAACUCAAUAAAAAAAAAAAAAAAAAAAA'
p180
aF0.9619047619047619
aa(lp181
S'Chicken feet'
p182
aS'AAAAAGCAUCAGCAACGCGUAAAAUGAAAUCGCACGAUUGGUAAGACUGCUAUGAAAAAAGGGAAAA'
p183
aF0.8805970149253731
aa(lp184
S'Bug 18'
p185
aS'GGUGGGUCGGGUCGCCAUCGAGUCCUAAGUUGUGCAACAUCGUACCUAAUUUA'
p186
aF0.8113207547169812
aa(lp187
S'Fractal star x5'
p188
aS'AAAAAGAGUUAACAAGUCCGAAAGGAUGUGGGCUAAUGUUCUUUCGCAAAGGCGAUGUAUCUAAUGAUGAAGUUAGCUCAAUAAAAGUUAUCGAGUUCAAAAGAACAAGUUAGAAAUAAUAGGUCCAAAAGGACAAGUAUAAAUAUGCGAGGUAACUUGAAAGUGAAUUGCAAGGUUGAAAAAUCAGUAUCGAAAGAUGAGGACCGAAAGGUCAAGAGCUAAUGCUUAAGCGAUUCAAAAAGGGGAGGUGUAGUUUGAAAGAACAUACCCAAAAGGGUUAGAUGAAAGCAUCAGAGUGAAAUCAUUAUUAUCUCCCAAAAACUCUUAUCAUGAUCAAAAGAUUGUGCGUGAAAGCGCUAGUGUUAAUACACGUGGACGAAGGUCUUGGAUAGGGGGAAAA'
p189
aF1.0
aa(lp190
S'Crop circle 2'
p191
aS'GUAAAGAGAAACGAAAAAGCAAAAAAAAACCAAAAAAAAAAAAAAAAAAAAAAAAAAAAAAUGAAAAAAAAAAAAAAAGUAAAAAAAAAUCAAAAAAAUCAAAAGCAAAA'
p192
aF0.9636363636363636
aa(lp193
S'Branching Loop'
p194
aS'AGAUCGUGAAAAAUCACAUUAAUAUGUCGGGUCGAAAAAA'
p195
aF0.95
aa(lp196
S'Bug 38'
p197
aS'AUUGGGAGUGUGGAAAAAUACUCCAUGCCCAAAAAG'
p198
aF0.9444444444444444
aa(lp199
S'Simple Single Bond'
p200
aS'AAAAAAGGAAAAAAAUGGUCAAAAGGACUUAAAAAAAACAAAAAAAAAAAAAAAAAAAAAA'
p201
aF1.0
aa(lp202
S'Taraxacum officinale'
p203
aS'GGCUAAAGGGGUCAGGCAAAAGGCGAUAGGUCUAAUGAACUAGCUAGAAACAGGCGGCACGAAAGUGUCAGUUGCAAAUAGGCUUCAAUAUGUAACUAUAUACAUCAAGGAUGAUAUAUAGAGAUGGAAGCUAUCCAUGGAGAUAUAGGAACUGUAUCACAUGGGUAGCCAGCAGUUCGCGAAGUGAGCGUUGCUAUCAAAUUACGUAUUUUUGAUGAAAGCAGUCAUAGGUAAAUUCUAGCCACGAAAGAUGGAGGUGAAAGUAUCCAGUACAAAAGGUUC'
p204
aF0.875886524822695
aa(lp205
S'Headless Bug on Windshield'
p206
aS'AGAAGCUAAAAGUUAGAAAGCAGAGUAAAAAAAAAAAAAAAAAAAAAAAUUUAAGUAAACUAAACAAUUCAGCGUAGGAGAUCAGGAAAAAAAACAAAAGGAAAAAAACCAUCGAAAAUCCGAGAUUAGAAAAAAGAGAAGUAAGAGAAUCAGUUUAAAAAAAAAAAAAUGACAAGAAACUCAAGCACCCAAUGAAAUCA'
p207
aF0.97
aa(lp208
S'Pokeball'
p209
aS'AAUGGCUUUGAAAAGAAACCGGUAGAAGUAAAUGAACAGGAAAGUAAGCAAAACAGCGGGCGGUAGUAAGCGCUCAGCAUCCGAAGUCUAAAAAAAGCGCUAGAAAACUGCGUUCGAGAAGGAUCUAAUCGAAUGAUAAAUGAAAAGAUGAUCAGGAGAGUGUCGCUCUACAAGCUAGUGCGAA'
p210
aF0.9782608695652174
aa(lp211
S'Variation of a crop circle'
p212
aS'AAAUGUAAAAGGAAAAGGAAACGCAAAAAAUUAAGAAGAUGAAAGGGAAAAAUACGAAAAAGACAAAAAAAAUACUAAAAAAAAAAAA'
p213
aF0.9545454545454546
aa(lp214
S'Loop next to a Multiloop'
p215
aS'AUGAUGAAUCAAAAAAAGGCAUGUCAAAGGAUAUGGGAUAUUCAAAAGAAUAUCAUAAAAAAAGAUUCAUCUA'
p216
aF0.9726027397260274
aa(lp217
S'Snowflake 4'
p218
aS'UAUCGAAGAUACUGACUAAAAAUAGUAAGUGGAUGGCCAAAAGGGUGUGUAUCAAGAAUAAAUAACAAGGAUGUACAUCCGAAAAACUAUCAGGAUUCCCGAAAGUCUGACCUAGUAUCUAGAAGAUUAAGGAUCGUCAGCCAAAAGGGGAUCAAUCCAGCCAAAAGGGUACCCUACAAAGUAGAAAAUCAAAGAUUGGUAUGCAAAAGUCUGAGAAGAUUGACUAAAGUCCAUCCUCGAAACUAGAAUAUGGAAGAUGGAUGGGGUAAUUUCAAUCGAGAAAUCCAAAAGGUUGUCCUACAAAGUAGAAGGUAUAUUACCGACGGACAAAGGGAUUUCGUCUUGCACAAAAUAGUUGGCUGGUAUCCAG'
p219
aF0.8621621621621621
aa(lp220
S'Mat - Cuboid'
p221
aS'GAGGGAAAAGCGAGCAAAAGCAAGCAAAAGAAGCAAGCAAAAGCAAACAAGCAAAAGAAACUAGCAAGGAAAAAUAAGCAAGCAAGCAAAAGCAAUAAAUCAGGCAAGCAAAAAGAAGCAAGCAAGCAAGCAAAAGAAAGCAACGAACCAAGCAAGGAAAAACAAGCAGGCAAGAAUACAAGUAAAAUCGAGCAAGCUAAUAAGGAAACAAAAAAGUGACCAAAUAUGAAAGCGAGAGCAAGUUAUCAACCAAGCAAGUGCAAACGAGGAACGAAGCAAUCGCAGGCAAGCAAGCAACUGCAAGCAAGGAAUCAACCGCAAGCAAGCAAAUGCAAGCAUGCAACGCAAGCAAGCGCAAGCAACACAAACACAAGCGCAAC'
p222
aF0.868421052631579
aa(lp223
S'Misfolded Aptamer 6'
p224
aS'AAAAAAGAGUAAAAUGAUCAAGGAAAUAGUAAAAAAUCUGAAAACGAAAAGAUCUAAAAAUCUCAAAAAAAAAAA'
p225
aF1.0
aa(lp226
S'Snowflake 3'
p227
aS'GAGUCAAACGGCCAGCGCAAAAGCGAAGAUCAGACCAGGUGGAAACAUAGGAGCAAAACCAAGAAACUUGCUAAUGCACCAGAAAAAAUUCAAGGUGUGACCAAGAGAAAACUGUAGUUCAAAAGGGAGAAACUCGGUAAUGCUCUAGUUAAAAAACAAGGGCAGCCUAAGAGAAAAGUCUAGAGCAAAAGCUUGAAACGGGCAAAGGCACUAGAGAAAACUCAAAGGCAGAUCAAGAGAAAAUACUAGAGCAAAGGCUAGGAACUAGCGAAAGCACUACAUAAAGCUCAAGAUUGGAUGUAGUUAAAAGUCUAGAGGAAAACCCAGAAACUGGCAAAAGAACUAAAGAAAACUCAUCAUCAGAUCAAGAGAAAGCACCUGAUCGAAAGGCUC'
p228
aF0.8142493638676844
aa(lp229
S'Hard Y and a bit more'
p230
aS'AAAAGUUCUGGCAGAUAGGAAACUAUGCGCAUUGCUACUUGUUCUAAUGAACUACAAACGAAAAAGUUUGGUGUUGCGAUCAGAAAAAAAAAAAAAAAAAAAAAAA'
p231
aF0.9716981132075472
aa(lp232
S'Mat - Lot 2-2 B'
p233
aS'GGAGUGAAUAUAAGGCAAAAGCAAGAUUAAAAGAAAACUCAAGCACAUGGAAAAACAAGGCUAAGCAAGCAAGCCUAAGCAAAAGCAGGUUCGACCAAAAGAGAAAGAGCAAGAAAAAGCAAGCGCAAGGCCAAGCAAGUAAAAGCUCAAGAUCAAGUAAAAGCAAGAUCAAAAGAAAAAUCAAGUGCAAGAAAAAUCGAGUGUAAGGAAGCAAGCUCAACAAAAAACUAAAUGAAGGAAAAGCUAAUGCCCAACAAAAAUUAUGUUGAAGAGUAGGAAACAAC'
p234
aF0.7887323943661971
aa(lp235
S'Shapes and Energy'
p236
aS'AAAAAAGAGUUCAGCUCAAAAGGAAGAUCACGAAAGAGAUCGAACGAGCAGGGUAAAACAAUCGAAAGAUUCCAGAGCGCAAAAAAAAAAAAAAAAAAAAA'
p237
aF1.0
aa(lp238
S"Spiral of 5's"
p239
aS'GAAAUCAUAGAAACAUCGAAAGAUCUAAAGGAUAGAAAGAUAUAAAGAUAGAUGAUAGAAAGGCUAGGAGGAAAGAAAGAUAGAGGAUAGAAAGAUAGGAAGAUAGAGGAUAGAAAGAUAGAAUAUAGAAGAUGGAAGAAAGAAGAAAGAUUUCGAGACAUAUAUCAAAAAGAUAUCAAAAAUGUCAAAAACGAAGAAAAACUUUCAAAAACUUUCAAAAACUAUCAAAAACUAUAAAAAACUAUCAAAAACUAUCAAAAACUAUCAAAAACUAUCAAAAGCUAUCAAAAACUAUCGAAAGCUUUCAAAAACUAGCAAAAACUAUCUAAAACUAUCAAAAAAUAUCGAAAACUAUCAAAAAGGAUCAAAAACGAUGAAAAACUAUGUAAAAUAAAAA'
p240
aF0.9949622166246851
aa(lp241
S'Campfire'
p242
aS'AAAAGAUCAAGAGCGAAGAGCAAGACCGAAAAGGUUCUUAUGGAACAUAGGGGUUCGAAUACAGCUACAGCGACGAAAGUACCUGUGCAUUAGUGGAGCAGCUAAUGCGCCCGCUGAGAAGAAAUUAACAGGCAUUUAAAUCUAAUUUCGUUCCUAAGAGUGGCAAGCCUAAUGGCUGCCCUCGCGAUGUCGAAAGCAGUAUGCGUGGGAUC'
p243
aF0.8679245283018868
aa(lp244
S'Anemone'
p245
aS'AAAAAGAGCAAAGGCUCUUGGGAGUAAUCUCCCGGUUGGGAAACUAAUCCUUAUGAAAAUAGGAAUGUCUAAUGAUAUCGAUACGAAAGUGUUUAAGAUAAUUCUUGGCGCGUAAAGACGCGUAGCCAUAAAGUUCAGUAUCUCAAAUGAGGUACCACAAACUUGCCGGCACGCGAAAGUGUGCUAUUUGAAAUUAUCUCUCUGAAAGUAGAGG'
p246
aF0.9345794392523364
aa(lp247
S'Fractal 3'
p248
aS'AAAAAUUUGACGUACCAAAGAGGCAAAAGUAUCCAGAGCGCAAAAGCACGAAAGCUCUUCGUGAGGAAAGCUCCGAAAGGGCGUACGGAACGAAAGUGAUAAUGCAGCCGCGAGAAAAA'
p249
aF0.9159663865546218
aa(lp250
S'Kyurem 5'
p251
aS'AAAAAUUCUUCAGUAAAAGUGUGCUAAAACAUGAAGUAAAUCGAAAAGCGAGGUCUCGUAUAAUCGAACAACAGUUCAAAAGUCGAAAAAAAAAAAAAAAAAAA'
p252
aF0.9038461538461539
aa(lp253
S'Snowflake Necklace ( or v2.0 )'
p254
aS'GAUAUGUUUGUAUUCUCAACGACCAAAAAGGAGCAAAAAGCAGCAAAAAGCAGUAAAAAGCAGCAAAAAGCACGUUCAGAGAAAAACUAAGAGGAACGGAAAAUGGUCAAAAAGAAGCAAAAAGAAGCAAAAAGCGGCAAAAAGGAUUUUCGCCGAAAAACAGAGAUUGAGCAAAAACCAGCAAAAAGUAGUAAAAACCUGCAAAAAGCUGAAAAAAGCACGAUCAGAGAAAAACUCAGGAAAAUCGAAAACGAACAAAAAGCAGUAAAAAGCGGAAAAAAUCAGAAAAAAUCAUUUCCACACAAAAACUCAGAUAGUGGAAAAACUAUCAAAACGAGCCUAAAUGGAGCUAAAUGCGGAUAAAUGCACUAUUUGAAUAUGAACAUAUC'
p255
aF0.897172236503856
aa(lp256
S'Methaqualone C16H14N2O Structural Representation'
p257
aS'AAAAAAAGCUUAGAUCAUAGAUAAAAAAUUAGGAAAGGCAAAAGCCAGAGACAGAAAGCUGAAAGAGAGAAAACUCAGCGAAAAAAGCGCGCUCACACGCUCACUAAGAAGCAGAUAUAUCCAAAGUAGAUAAAUCAAAGGAAAAAAAAAUCAUGGAGAGAAAACUCUAGAAAACUAGAGAAAGCUCCCGAGCAAAGACCAGAAGCUGCAAGAGACUAAUAGGUGGAAAAAACAAAAUUUUCCGAGGGAAAACUCACCAAGAGAAAACUCAUGCAGAGAAAACUCGUUCAACGGGCAAAAGUUCUCUAAUGAUACAGAAAAAUCCUUAUGCUGGUGAAGGGACUGAGCAAAAAAA'
p258
aF0.8338028169014085
aa(lp259
S"Cat's Toy 2"
p260
aS'AAAAGCUUUUUAAAAUCCAGGUAAAAAAAAAAAAAAAAAUCACGUAACGGGAAACGAAAACAAAGUUAAAAAAAGGUUAAAAACGUAGAGAGCAAAA'
p261
aF0.979381443298969
aa(lp262
S'Zigzag Semicircle'
p263
aS'AAAAGGUAAAUUUAAAAAUAAGAAAUUACUGAAA'
p264
aF0.9411764705882353
aa(lp265
S'Short String 4'
p266
aS'AAAAAAAAAGCAAUAGAGAAAGAGCAUUAAAGAAGUAGCAAAGUCGUACAAAAAUCAACCAUCAAGCAUAAAGCUUAAAAAAAAAAAAAAAAAAAAA'
p267
aF0.9381443298969072
aa(lp268
S'Gladius'
p269
aS'CGAAAGAAUAAACCAAAGACGGUGAGAAUGAGAGACUAAGAACUAAUGUUCAAAUAGUAGAAAGAACACAUAGAGAUCUCAAGAGAUAUAUCAGAUAUCAGAUGGACAUGAGAUCGGGAUUAAAGAUCAGAUACUAUGCAUAUCGAGUGUCGAGUAUAUCGAUGGAGAGACAUAUGAGGACUUAAUGCUAUUUCUCAAACCGAGGAUGAGACGACAAAAGAUCAGAAGUUCACCGGUUAUAUAGAUAUCGGAUAGAGAUAUGGGAGAUAUAUAAAAAUAUAUGGUCUCGAGUAUACCUAUGAGAUAUACAUAUAGCAGAAGAACGCAGGGUCAGAAGUCACAACGUUCUGAACAAAAAAUCUAGCCGGCUCUAGAAAAGUUCCAAAGAAAAAAAUAAAAA'
p270
aF0.9
aa(lp271
S'Thunderbolt'
p272
aS'ACAAGAUAGUAAAAAAACGACAAGUAAUAAAACAAAGGAGAUCCAUCAAAAAAAAAGGAAAAAAAUUUAAAAAAAAUAAAAAACCAACCUAAUGAAAAAAAGAAGAAAAAACAACAAACAAGCAAAAAAAAAAUGGUACAAAAAGAGAAAAUGGAACUGAAACUGUAACUAAAACUCAGUACAAAGGAAAUAAGAAGAGCGAAGCACAACGAAAAAAUAAAGCGCAAAAAAAAGAAUAAAAAGAUAUCGAAGAUAUCAGCAAGUAAAAAAAAAAACGAAGAAAAAAAAAAGAAGCAAAAACUGUAGGAAAAAAAAAAAAAUAAAAAUUACAGGAUGAUAAAGAUGGAUCAAAAAAAUUGAGAAGUACAAAAAGAAAAAAACUCUAUCGAGUA'
p273
aF0.9387755102040817
aa(lp274
S'Mutated chicken feet'
p275
aS'AAAAAAGGCAUAAAAAAAUUGGUAUACGAAAUGGAUGGAAGACCAAAGCAUCAAAGGAAGCUUCUGCAGUCUUAAAGUAUCAAGGGGAUAUGUAAAAAAA'
p276
aF0.86
aa(lp277
S'Chicken Tracks'
p278
aS'AAAAAAAAUCUAUAGUUUUUAAUAAAGGAUAACAAAGGGUGUCGUAGAAAGUUUCCCAUAGAGUAGGUGAGGAAUCCGCGGACAAAGUGUUAAGAAUAAAGUUCCGUUAAAAAAAA'
p279
aF0.8620689655172413
aa(lp280
S'Looking Back Again'
p281
aS'GAGAAGUAGUAGAAAAAUAUAUCAAAGAUAUGACUAUAAUAGCUUAAAAGAAGCUUGAGAGAUGCAAAUAUCAAAAGAUAAAAAGUAUCAACUCAACACGAGAGACGCAAAAAGAUAGGAAAUUAUCAAAAAAGCGCUAAUGACGGGAGCAGUAUAUCGAAACGAUGGAUCUCCCAAGAGGAAGAUGAGGAGGAGAAAAAUCUCAUGACUACUAACAGACUCGAAAGAGACGAUAUCGAAGGUCGUAGCUGAUGGAGAGCAAAAAAGCUAGAUAAAAAAAAUAACAAAAAGUUAAUCUAAAAGCGGUUCGAACAAAAAAGCUUAUAUAAAAGUAUAAAAGAGUGAAAUGAUGUAUAAGGAACCAACUCGCCAAGGAUACAAUCUAAAUC'
p282
aF0.8611825192802056
aa(lp283
S'Multilooping 6'
p284
aS'AUGAUGUCACGCUACUAAUGUAUUCUUAAUAAUUUAGGAAGUUUGAGACAAAGCGUUCCUUAUUAAUAUAAGGAGCCAUCUA'
p285
aF0.926829268292683
aa(lp286
S'Cesspool'
p287
aS'GGAUAAGAAAACGAGGGAGGAGAGCGAAACCUAACAACAAGCCAAUAAGAAAACAAAAUAAGAAAACAAAAAAAAGAAAACAAAAACAAAAAUAAGAAAACAAGGGGUGGAAUAUAGAAUAAAGUGCUACCCAUUAACAAAGGAAAUUUAAAAAAUAUAAAAAAGAAAACAAAAGUAAGUAAUACCUAUUGAAGUGAAGAGGUCCAAAGGCAACAACAACACAAUAAGAAAACAAAAUAAGAAAACAAAAAAAAGAAAACAAAAAGCAAGUAAUAAGAAAACAAGAAAAGAUAUAGAAACUGAAGAGCAACACGAUAAGGAAAUAAAGUAAGAAAACGAAAAAAAGAAAACAGGAAGC'
p288
aF0.7877094972067039
aa(lp289
S'Hoglafractal'
p290
aS'AAGAAGAAGAUAGAAAAGAUAGGAAAAACUGUCGUAACGAACAAAUAUCAAAAGGAUAGUUCGCGAACGUGAAAAUGCUCGGGGAAGGAUUAAAGAUCAAAAAAGAUCAAUCAGGAAGCUAAAAGAGCCCAGCAGCAAAAGCGCAGAACAAACGUGAACAGAAAAAACUGCACUGAGCAAAAAGCCAGAGAAAAUUCAGAUAGAAAAGGCAGUAAAAAAACGCAGGAAAAACCAGUGAAAGAAGAUGCUAAAAAAGGGAAAAAACUCACUAAAUGAAAAGAUAUAGAAACUAUAUCGAAAAAAGGCAUCAAAAAACUAUCGAAAGGUUCAAAACCCAAGUUAAUAAAGAGCAGAUCAAAAGCAAAAGUACAAAAGAGGAAUAUAUUAUUUCAGAUCGCAC'
p291
aF0.9
aa(lp292
S'Bullseye'
p293
aS'AAUAAGCAAGGAACUAGAUCGACGAAGAUAUGGCUUUAUGAACCUCUAAAAAAAAACCCUGAAACAAGAAGCGCGAAGUGCAAAUUCGAACAGUCUUGAAAAAAAAUGCUACAAAGUGGAAAGACGAAGUCUAAGCUAAAUAGACCAUAAAAAAAUCGGAUUGAAACAAUAGGAACAAAGUUCACGAAAAAAUAUCCUCUAA'
p294
aF0.806930693069307
aa(lp295
S'Shooting Star'
p296
aS'GAGAUCCUAGCUAUAUCGAAGAGAAGCUGAGAGAGAGCAAAAGACCUAUCUCUGACAACUAAGAUAUAGAGAUCGAGUAGGCGCAGAGAGAUAGAGAGAGAGCAGCAAAAGACGUUACCUCUAUAUACCUCAGACAACCAACUAAAAAAAUACCUUACCUGUCAAAGACAGAUAUUGAAACUAUACAAGAAAGAGACUAAACUAGAGAGCAGAUAAAAGAUAUAGAAACUAUAUCAGAUAGAAAUCAUCUAUCGAAAUACGAAGUAUUUCAGUUAGAAGCUAGCGCUCAAUCAAUAAAGAGAAAAGCGAGAAUGCGAGAUCAGCAAAAGACGAUACCGCAUAACAACAUGAUUAUUAGAUUUCA'
p297
aF0.8406593406593407
aa(lp298
S'Teslagon'
p299
aS'AAAAAAUGAAAAAAAGCAGCAAAAAAAGCGGCGAAAAAAAAAAAAAAGCAAAAAAAAACCAAAAAAAAAAAAAAAGGAGCAAAAAAAGCUGCAAAAAAAGAAAAAAAAAAAAAAAAUCAAAAAAAGCUGCAAAAAAGGUAUGAAAAAAAAAAAAAAAGAAAAAAAAAAGUGAAAAAAAAAAAAAAAUAGCAAAAAAACCAUAGAAAAAAACAAAAAAAAAAAAAAACCAAAAAAAUCGGCAAAAAAAGCAUCAAAAAAAAAAAAAAAUAAAAAAAAAAACAAAAAAAAAAAAAAGGUGGUAAAAAAAUCAGAAAAAAAGACAAAAAAAAAAAAUCAAAAAAAAAAAAAAAAAAGCAAAAAAAGAAUCGAAAAAAUAAAAAAA'
p300
aF0.9109947643979057
aa.