(lp0
(lp1
S'Simple Hairpin'
p2
aS'GACACAAAAAAGUGUC'
p3
aF1.0
aa(lp4
S'Arabidopsis Thaliana 6 RNA - Difficulty Level 0'
p5
aS'GACACACAAAAGACAAAAAAAAAAAGUCGACACACCCCGACACACACACACACACACAAAGACACAAAAAAGUGUCAGUGUGUAGUGUGUGUGUGUCAAGGUGUGUCAAGUGUGUC'
p6
aF1.0
aa(lp7
S'Prion Pseudoknot - Difficulty Level 0'
p8
aS'GACACCAGACCAAAAGGUCGGUAGUCAAAAAAAAAA'
p9
aF1.0
aa(lp10
S'Human Integrated Adenovirus - Difficulty Level 0'
p11
aS'GACCCACUCUCCUUGGAGACCUAAAAAAAAAACACGAAGACCCCAAUGGGCGACACCAAAAGACACCCACACACUAAAAAAUGUGUGUGGGUAAAAGUCGGUGUAAAACGCGGGAAAAGUCUUGUCCUCACCAAAAAAGGGUGGGCGUGAAAAAAAAAAAUGGUUUCAAAGGUAAAGGGGUGAAAGGUCAAA'
p12
aF1.0
aa(lp13
S'The Gammaretrovirus Signal - Difficulty Level 0'
p14
aS'AGGUGGAGACGCCGAAAGGUGUUGACUCAAAAAGGAGCAAGCCAUCGUCACUCUAAUGGGUGAAAAGCGAGGUGCUCAAUACUCAAGAAAGUUUGAGUAGA'
p15
aF1.0
aa(lp16
S'Saccharomyces Cerevisiae - Difficulty Level 0'
p17
aS'GUUGCCUUCGGAAAAAAACCUGGGACAAAAAAAAAAAAAAAGUGAACAGGCAGAAAAAAUGUUUGAGUAAUAAAGAACACUGAAUAGCAAAAAAAGGCUGCGGGAAAAAAAAAAAACCGAAAAUACGUCAAAAACACGUGCAGUGUUAAAAGACUGACAAGACGUAAAAAAUCGUCCACUUAAAAAAAGUAGGUGCAAACACGCUAAAAAUGUGUGGUCAGUCAAAUGACCCUCAACAUCUAAAAAAUGGUGCACACAUAAAAAUUGUGUGAAAAUACGUGAAAAAAACGUGGGGGGUCUAAAACCACUUAAUGCUUAAAAAAUAGCGGCCCUCGAAAAAAGAGGGUAAAAACCAGUAAAAAUCUGGUAAGUGGUGAAA'
p18
aF0.9894459102902374
aa(lp19
S'Fractal 2'
p20
aS'AAAAAGACACACCGAACACAGACACGAAGAGCGAAAAAAAAAGCUUGAGACCAAAAAAAAAAGGUCAAAUGGGAAAAAAAAACCGUAACGUGUUUGUGAAGGACUCACACAAAGACCAAAAAAAAAAGGUCGGGACCAAAAAAAAAAGGUCAUGAGCAAAAAAAAAAGUUCUAUGUGUGAGUCAAAGACAUUCAGCAAGACCAAAAAAAAAGGGUCAAGUCCAAAAAAAAAAGGACAAGACGAAAAAAAAAACGUCAAGCUGAGUGUCAAAGGUGUGUCAAAAA'
p21
aF1.0
aa(lp22
S'G-C Placement'
p23
aS'GACCAAAGGUCA'
p24
aF1.0
aa(lp25
S'The Sun'
p26
aS'GACAGACACUUUAAAGGUAAGUCGUUAAAUACAGACACAAAAAGAGUAAGACGUAAAUAUCAGCCCCUCUAUGGGUAAGUCGAUUAAUAUAGAAACACAAAGUUUAAGUCGUAAACCCAAUAUGCGCAAAGCGCAAGGGUGGAAUUGCAGAGAGACAAAAUCUAAUCCGUAUAAUUCAUACAUGUAAAAUGUAAGUAGUAAAAGCCGAACAGACGAACGUUAAGUUUUGGAACAGAGACACACGAAAUGUAAGUCCUG'
p27
aF0.8527131782945736
aa(lp28
S'Frog Foot'
p29
aS'AAAAAAAAAACGCGAAAUUGUGGUCCAAAAGGGCGCCCAAAGGGC'
p30
aF1.0
aa(lp31
S'InfoRNA test 16'
p32
aS'GACACCGGACACCGCAAAAGUGGUAGUGCGGGUGUC'
p33
aF1.0
aa(lp34
S'Mat - Martian 2'
p35
aS'GACAAAAAUGUCAAAGACACACAAGACACACUAAAAAUGUGUGUCGUGUGUCAAAGAUACACCAAAAAUGACACACAGACACACUAAAAAUGUGUGUCGUGUGUCUAAGACACACACACACCAAAAAAGGGUGUGUAGUGUGUCAAAAAGGGUGUAUCAAAGAUACACACACACCAAAAAAGGGUGUGUAAGUGUAUCAAAGACUAAAAAGUC'
p36
aF1.0
aa(lp37
S'square'
p38
aS'GACACACCACACCCACACACCACACCAAAGGUGUGAAAAGUGUGUGAAAAGGUGUGAAAAGUGUGUC'
p39
aF1.0
aa(lp40
S'Six legd turtle 2'
p41
aS'AAAAAGCAAAGCGAAAGUAAAGCGAAAGCAAACCGAAAGGAAAGGUAAUCCAAACCGAAAGGAAACCAAAGGGAAAGCAAAAAAAAAAAAAAAAAAAA'
p42
aF1.0
aa(lp43
S'Small and Easy 6'
p44
aS'AGAUCAAAAGGAAGGUGAAAAAAAAGCAAC'
p45
aF0.8666666666666667
aa(lp46
S'Fractile'
p47
aS'AAAAAAAAAAAAGCAAAAGCAAAGGAAAGCGAAAGCAAGCAAAGCAAAAGCAAGGCAAGCAAAAGCAAACCAACCAAAAGGAAAAAAAAAAAAAAAAAAAAAAAA'
p48
aF1.0
aa(lp49
S'Six legd Turtle'
p50
aS'AAAAAUGAAAAGUAAAAACAAAGCUUAAUGUAAAUCAUAACCGUAAAUUAAAAAAAAAAGAAAAAGCGAAACAAAAAUGAAAGGAAAAAAAAAAAAAAAAAAAAA'
p51
aF0.9238095238095239
aa(lp52
S'snoRNA SNORD64'
p53
aS'GACACCAAAAAGACAAAAGACAAAGACACAAAAAAAAAAAAAGUGUCAAAAGUCAAGUCAAGGUGUC'
p54
aF1.0
aa(lp55
S'Chalk Outline'
p56
aS'AAAAUGUACUGCCCCGAAAGGAGGCUGACAGAAGAAAUUCGUCUAAGAGUGAAAGCGUCUUUGCCAGGAAACUGAGCGUACUAAAAAAAAAAAAAAAAAAAAAA'
p57
aF1.0
aa(lp58
S'InfoRNA bulge test 9'
p59
aS'GACACACAGAGAGAGACACACAAAAGUGUGUCCCCGUGUGUC'
p60
aF1.0
aa(lp61
S'Tilted Russian Cross'
p62
aS'AAAAAAGCGUAACGAAAGUUAGGGCAGACCAAAGGGUCGAUCCAAAAGGGUCACACGGAAACGUGGCUCCUCCGAAAGGAGCGCUAAAAAAAAAAAAAAAAAAAA'
p63
aF1.0
aa(lp64
S'This is ACTUALLY Small And Easy 6'
p65
aS'AAAAAAAAAAAAAAAAAAAAAAAAAAAAAAAAAAAAAAAAAAAAAAAAAAAAAAAAAAAAAAAAAAAAAAAAAAAAAAAAAAAAAAAAAAAAAAAAAAAAAAAAAAAAAAAAAAAAAAAAAAAAAAAAAAAAAAAAAAAAAAAAAAAAAAAAAAAAAAAAAAAAAAAAAAAAAAAAAAAAAAAAAAAAAAAAAAAAAAAAAAAAAAAAAAAAAAAAAAAAAAAAAAAAAAAAAAAAAAAAAAAAAAAAAAAAAAAAAAAAAAAAAAAAAAAAAAAAAAAAAAAAAAAAAAAAAAAAAAAAAAAAAAAAAAAAAAAAAAAAAAAAAAAAAAAAAAAAAAAAAAAAAAAAAAAAAAAAAAAAAAAAAAAAAAAAAAAAAAAAAAAAAAAAAAAAAAAAAAAA'
p66
aF1.0
aa(lp67
S'Shortie 4'
p68
aS'GCAAAGGCAUCGAAAGA'
p69
aF1.0
aa(lp70
S'Shape Test'
p71
aS'AAAAAGAGACCAGGACGCAAAAAAAAGCGUCAAGACAGACUGAGACAAAAAGUCUCUGACCAAAAGGUUGGUCGUCAGGGUCGCAAAAAAAAAAAAAAAAAAAA'
p72
aF1.0
aa(lp73
S'The Minitsry'
p74
aS'GCCAAAAAGUUAAAAACACGAAAAGCCAAAAAGACAAAAAAAAGUCGGGCAGUGGAACAGGC'
p75
aF1.0
aa(lp76
S'stickshift'
p77
aS'AAGACACCCCAAAAAGGAGGUGUCAA'
p78
aF1.0
aa(lp79
S'U'
p80
aS'AAAAAGACACAGAGAGCAGAGACACACACAAAAGUGUGUGUCCGCCCGUGUCAAAAA'
p81
aF1.0
aa(lp82
S'Still Life (Sunflower In A Vase)'
p83
aS'AAAGUCCGUGUGACAAAAAGUCGCUACAGAAGAAGUCUGAACAUUCAAAAAGGGUCAAUGAGGAAAGUAGCAGGAUACAAAAAGUAUUAAAACACAAAAAGUGUUAGACAUGCCCACCCACCAACACUCGACGCAAAAAGGUGUCAGGCAUAAAAAAAAAAAAUGACCUAAAAAAAAAAAAAAAAAAAAAAAAAAAAAAAAAAAAAAAUGGUCUAAAAAAAAAAAAAUGUCGAUCCUAAUGGAUCAGGGUGUUGGUGGGUGGGCGUGUCAAGACACAAAAGGUGUCAAAAAACAAAAAGUGUGGACACGCAAAAAGCGUGAAUACAGAAAAACUGUAAACAGUUUAAUGGUUGAAUAGAUAAAAAGUUCAAGGACAAA'
p84
aF0.9735449735449735
aa(lp85
S'Quasispecies 2-2 Loop Challenge'
p86
aS'AAAAACACCCACGCUAACCAAAAGGUUUACGUGAGACCGACUAUGGAGGUCAGAGCCUGGCGACAAAAAGUCAACUAGCUCGGUGAAAAAAAAAAAAAAAAAAAA'
p87
aF1.0
aa(lp88
S'Corner bulge training'
p89
aS'AGACACCGACACAAAGUGUCAAAAGGUGUCA'
p90
aF1.0
aa(lp91
S'Spiral'
p92
aS'AAAAAGACCAGACACCAGACAGACACAGACCAGACCAGCAGCAGCAGCAGCAGCAAAAAGCGCGCGCGCGCGGUCGGUCGUGUCGUCGGUGUCGGUCAAAAA'
p93
aF1.0
aa(lp94
S'InfoRNA bulge test'
p95
aS'AAAAAAAAAAAAAAAAAAAAAAAAAAAAAGGCGAAAAAAGAGUAAAAGCCCGAAGACCGAGUUCAGGCCAAAAGGGACCGGAUGCGAGGAUCAAAGGAGCGAAAGGCAUCAAAAAGCGAUCA'
p96
aF1.0
aa(lp97
S'Worm 1'
p98
aS'AAAAAAAAGGCCGAGAGUGGGCAGAAAACAGCAUAAUAAAGACAU'
p99
aF0.8666666666666667
aa(lp100
S'just down to 1 bulge'
p101
aS'AAAAAGCCCACACAGAAAAUUGUGAGACAAAAGUCGGGAGCAAAAGACCAGACAAAAGUCAGACAAAAGUCAGGUCAAAAAAAAAAAAAAAAAAAA'
p102
aF1.0
aa(lp103
S'Iron Cross'
p104
aS'AGAGUGACAAAGAUACACAAAAUGGAAUGAAAGUUAAUCGAAUAUGGACAAAAGUUACAUAAAAAGAGUCAAAGAAAUAGAAAAGUCAGUCAAAGGGAUUUAAGGUCAGACAAGGGUUUUCAA'
p105
aF0.9105691056910569
aa(lp106
S'loops and stems'
p107
aS'AAAAAGACACACAAAGAGCAAAUACCAAAGACCUAAAAAAAAGACACUAAAAAAAAAAUGUGUCAAUGGUCAAAAUAGCAAAAAAAAAAGCUAAAAGGUGAAAGACAAAAAAAAGUCAAAGCUCAGGCAAAAAAGCAAAGUGUGUCAAAAA'
p108
aF1.0
aa(lp109
S'Water Strider'
p110
aS'AAAAAGAGUGAGGCGAGAGACAAAAGUCUCAAAAAUGAUUCCGACGGAGCGUGAAAGUGAGCAAAGGUUACUCCGAAUGUCCAAAAAAAAAAAAAAAAAAAAA'
p111
aF0.9611650485436893
aa(lp112
S'The Turtle(s) Move(s)'
p113
aS'AAACCAAAGGGAAAGGAUGUAGGCGAAAAAAAAGUUUAUGUCAAACUACGAAAAACGUAAAAAACGGAAAACCGGAAUGUACUAAAAAUGUACGGAAAGUAAAAUGAAAACAAAAAACGAGAAAUCGAAAAGCAACCAAAAAAGGGUUGCAAAACGCGAAAGCGGAAAUAACACAUAAAUAUUAAAAAUAUGAUGGCUAAAAAAUGCCUAAUACGCAAAAAAGCGUAAAACAUUAAAAGAGUGAUUGUGUUUAAAAAAAAGGAAAACCAAAAACAUAAUUUGAAAAAGAGCCAAAAAAAAACGGCUCGAAAAAAAC'
p114
aF0.9746835443037974
aa(lp115
S'Adenine'
p116
aS'GACACAGACACCAGACACCAGACACCAGACACCAGACACCAAAAGACACCAAAAAAGGUGUCAGGUGUCAGACACAAAGACACACAAAGUGUGUCGUGUCAGGUGUCAGACACACACACCAAAGGUGUGUAAAGUGUCAGGUGUCAAAAGGUGUCAAAAGGUGUCAAAAGUGUC'
p117
aF1.0
aa(lp118
S'Tripod5'
p119
aS'AACUGUGACGGAAAACGUUUCCCGAAAAGGGAGCGGGA'
p120
aF1.0
aa(lp121
S'Shortie 6'
p122
aS'GCAAAAGCAGUGAAAACGCCGAAAGGAGCGAAAGC'
p123
aF1.0
aa(lp124
S'Runner'
p125
aS'AAAAAGACCUGACGAAAAGGACCAAAGGUUACGUCAAAGACAAGACACCAAAGGUAAAGUCGCCACCAAAGGUAAAGGCAGUCAAUGGUGAAGACAAAAGUCAGCCUGGUCGAAAA'
p126
aF1.0
aa(lp127
S'Recoil'
p128
aS'AAAAAGACACAAGCAAGCAAGACAAGACAAGCAAGCAAAGCAGCAGUCAGUCAGCAGCAGUGUCAAAAAAAAAAAAAAAAAAAAA'
p129
aF1.0
aa(lp130
S'[CloudBeta] An Arm and a Leg 1.0'
p131
aS'AAAAAGACAGACACAAAAGUAGUCGACAGCAAAAGCGUCAGUCAAAAAAAAAAAAAAAAAAAA'
p132
aF1.0
aa(lp133
S'[CloudBeta] 5 Adjacent Stack Multi-Branch Loop'
p134
aS'GGCUGACCGAAAGCGGUGUUGUGAAAGCAAUGGAAUUAAUAUUCCGUGCGAAAGUACCAGUCA'
p135
aF1.0
aa(lp136
S'Triple Y'
p137
aS'AAAAAGUACUACCUCAAUAAUUAAGGCUCUAAUGAGAGGUGUUUACGCGUAAACUUGGGCAAAAGUGCUUAUGGUACGAAAAAAAAAAAAAAAAAAA'
p138
aF0.9072164948453608
aa(lp139
S'Misfolded Aptamer'
p140
aS'GACCAAAAAGCCGACGAAGUCAGUUAAUGCAAAAAAAAAGGAAAAGGGUC'
p141
aF1.0
aa(lp142
S'Flower power'
p143
aS'AAAAAGACGGUCCAAAGGACAGACCGCCCAAAGGGCAAGACCAAAGGUCAAGACGAAACGUCGGUCACACCAAAGGUGCGUCAAAAAAAAAAAAAAAAAAAA'
p144
aF1.0
aa(lp145
S'Kudzu'
p146
aS'AAAAUGGGUGCAGGAACCGCUGGGAGGAAAUCUUACACCUAGGGCGUAAUAUUACAAACCAAAAGUAAAGUGGGCUAUCCCUAAAAAAAAAAAAAAAAAAA'
p147
aF0.8613861386138614
aa(lp148
S'"1,2,3and4bulges"'
p149
aS'AAAAGUCACAGGGCUUAAUAGGAAAGCAACGAAAAGACGAGGAGCAAAGGCAUUGAAUAAUUAAACCUAAGUAAUGUCUGUAAGCAAAAAAAAAAAAAAAAAAAA'
p150
aF0.8857142857142857
aa(lp151
S'medallion'
p152
aS'GAUUCAGCGUGCCAAAAGGCAUGGGACAAAGGUCACAAGAAAUUGGGACGCCAAAAGGCCUCGCACGAAAGUGGGACAUCUAAUGUUUUUUCAUGAAAAUGUCAAAAACCUGGCAGACAAAAAUGUUUGAGCCGAAAGGUGCUCACCAAAAGGUGAGACACGAAAGUGGGGGUAAUUUUACAUAGCUAAUGUUGUGUAUAAUAAGGUUCUCAUUAAAAAAUGAGGAUCAAAAGCUGUCCGAAAGGAAGACACCUAAUGGUGUUGCAGAAAGCGAAGACUCCAAAAGGGGUCAAUCAAAGCAGACAUGAAAAUGACUAUCCAAAAGGAUGGAUGAAUC'
p153
aF0.9258160237388724
aa(lp154
S'[RNA] Repetitious Sequences 8/10'
p155
aS'AGGAAAAAAGCAAAAAAGCAAAAAAGCAAAAAAGCAAAAAAGCAAAAAAGCAAAAAAGCAAAAAAGCAAAAAACCAAAAA'
p156
aF1.0
aa(lp157
S'Documenting repetitious behavior'
p158
aS'AAAAAAAGGAAAAAAAAAGGAAAAAAAAAGGAAAAAAAAAGGAAAAAAAAAGGAAAAAAAAAGGAAAAAAAAAGGAAAAAAAAAGGAAAAAAAAAGGAAAAAAAAAGGAAAAAAAAAGGAAAAAAAAAGGAAAAAAAAAGGAAAAAAAAAGGAAAAAAAAAGGAAAAAAAAAGGAAAAAAAAAGGAAAAAAAAAGCAAAAAAAAAGCAAAAAAAAACCAAAAAAAAACCAAAAAAAAACCAAAAAAAAACCAAAAAAAAACCAAAAAAAAACCAAAAAAAAACCAAAAAAAAACCAAAAAAAAACCAAAAAAAAACCAAAAAAAAACCAAAAAAAAACCAAAAAAAAACCAAAAAAAAACCAAAAAAAAACCAAAAAAAAACCAAAAAAAAACCAAAAAA'
p159
aF1.0
aa(lp160
S'7 multiloop'
p161
aS'GUCGCUGACAAAGGUCAGUGCAGUAAUCUGGGUGAGAAAAGUGUCCCUAGGAAAGCCUAGCUGGCUUAUAUCAGGAUAUUAAUAUGUUCGGC'
p162
aF0.9782608695652174
aa(lp163
S'Kyurem 7'
p164
aS'AAAAUGUAUAAGGUCUAAUGAUAGCUAAAGUAUAAACGAAAAGUGAUAGCGCAAAAAAGAGAAAACGCGGCAGAUUGAUAGCUAAAAAAAAAAAAAAAAAAA'
p165
aF0.9313725490196079
aa(lp166
S'JF1'
p167
aS'GACAAACACACACACACUAGACACAAAAGACACCACGACAAAAAGACACGGGGCACCACACACACACACAUCAAAAGAUGUGUGUGUGUGGAGACAAAAGUCACACACACACAAAGGUGUGUGUGAGCACACGAAAGUGUGGGGUGCCAGUGUCGUUGUCAGGUGUCAAAGACGCACCAAAAAGGUAGUGUCAAGUCAGACACGCACACACAAACACCAAAGGGUGUUUGUGUGUGACGUGUCUGACAAAGACGCAAAAAAGUGUCGACAUACACCAAAAGGUGUAUGUCAAGCACCAAAGGGUGAAGUGUCCCGUGUGUCACCAGACAGACAAAAGUCGUCGGUGUGACUCGCACAAAAGUGCGAAGUCAGUGUAGUUAUGUCAAA'
p168
aF1.0
aa(lp169
S'multilooping fun'
p170
aS'AGACGAGGACAAUUAGCCAAUUCGAGGCAAAAGACU'
p171
aF0.8333333333333334
aa(lp172
S'Multiloop...'
p173
aS'GAUCAGACCAGCCAAAAGGCAGUGAAAACACAGACAAAAGUCAGACAAAAGUCAGACGAAAGUCAAGCAAAAGCUAGGUCAGACACAAAAAAGUGUCGACGAAAGUCGGUC'
p174
aF1.0
aa(lp175
S'hard Y'
p176
aS'AAAAUGAUCGCUAAGACGCCGAAAGGUGUCUACGAGACGCAAACUUAAUGGUUUGUGUCGGUCUAAAA'
p177
aF0.9705882352941176
aa(lp178
S'Mat - Elements & Sections'
p179
aS'AAAAGGCCUACUAAGAGACCAUGCACAAUUAGAGCCUAAUGCAAAAGUCGGAAGCUCAAGUGUGAAAAGGGGUCGCGAUCGAGGGAAAAAAAAAAAAAAAAAAAA'
p180
aF0.9619047619047619
aa(lp181
S'Chicken feet'
p182
aS'AAAAAUGAAGUGUAACGAGCGAAAAGAAUCACAGGCAGACUACAACGUGGUACCCUAAUCGUAAAAA'
p183
aF0.9402985074626866
aa(lp184
S'Bug 18'
p185
aS'AAGAGAGAGAGUAAUGAGAGAAUAAAACAGUAACAGGCAAAUAAGUAAAACAG'
p186
aF0.9245283018867925
aa(lp187
S'Fractal star x5'
p188
aS'AAAAAUCCAACCCAGCGCCAAAGGGCGAGCAGCGAAAGUUGAUCAUCAAAAGAUGUAAACCAAAAGGUUGGGGGUUGGAAAAAGCAGCCAGUGAAACCUAAUGGUUGACAUCUAAUGAUGAACACCGAAAGGUGGACACUAAAAAGUGAAACUGGUUGAAAAACACGUACCAAUACCAAAAGGUGAACACCAAAAGGUGAACUUCGAAAGAGGAACAGCGAAAGCUGAGGGUAUGUGAAAAUGACCUACCGACUCUAAAAAGAGAGCACCAAAGGGUGAACACUAAAAAGUGAAAUCCGAAAGGAUAAGGUAGGUUUAAAAGACUCCUAGACAUCAAAGGAUGGAUCAGAAAACUGGCAUAACAAAGGUUAACGAGUAAAAACUCUAUGGGGGUUAAAAA'
p189
aF1.0
aa(lp190
S'Crop circle 2'
p191
aS'GAAAGUCAAAUGAAAAAAUAAAAAAAAAUAGAAAAAAAAAAAAAAAAAAAAAAAAAAAAAGUUUAAAAAAAAAAAAAAUAAAAAAAAAAUCUAAAAAGGCAAAAUCAAAA'
p192
aF0.9636363636363636
aa(lp193
S'Branching Loop'
p194
aS'GAGCCUUAAAAAAUAUAUCUAAUGAUGAAGGCUAAAAAAA'
p195
aF0.95
aa(lp196
S'Bug 38'
p197
aS'UUAAUGGAUAAUAAGAAACAUAGGUAACAGAAAUAU'
p198
aF0.8888888888888888
aa(lp199
S'Simple Single Bond'
p200
aS'AAAAAAGGAAAAAAAUAGCCAAAAGGGUUUAAAAAAAACGAAAAAAAAAAAAAAAAAAAAA'
p201
aF1.0
aa(lp202
S'Taraxacum officinale'
p203
aS'GACCGAAAGAGUCAUACGGAAAUAGUGGCACCAAAGGAGUAGCCGGAAAAUACGGAAACCAAAAGAAGGUAAUCAAAGGAAUCACACACACAUCCGACACACACACAAAGUGUAGUGUGUCACACACAACACGCAGCGCGAGACAAAUUAUGUUUGUCAGCGUUGUGUGACGCAGACGUCAAAGAUGUCGCGUGUGUGAAAUGGUCUGGAUGAGGCCAAAAGAGCCUCAGCUAAUGUGUAACGCCAAAAGAGCGUCAUUGAAAGAGUGUCACCAAAAGAGUG'
p204
aF0.8794326241134752
aa(lp205
S'Headless Bug on Windshield'
p206
aS'UGCUGAAAAAACAGAGAAGGUGGAUAAAAAAAAAAAAAAAAAAAAAAAAAGCCAGCUAGCUUAUGAAAGUAGCUGAGAAAACAACGAAAAAAAUCAAAUGGAAAAAAACGGUUAAAAAAUUUAGCUUUAAAAAAAGAUAAGGCGGACCCGCAAACAAAAAAAAAAAAAAAGUUAGGUAAGUCAAACAGUCAAGGAAGUUA'
p207
aF0.97
aa(lp208
S'Pokeball'
p209
aS'AAAGCUACCCAAAACCUAGGAAGAGGGACCAGCAAUUAGGUAGGUAAACAAAGGAGCAGAUAGGGGCGAGUACUCGUCAGGGGGUGGCGAAAAAAUGGUAACUAAACCUGAGUAGUACGACCACUCAUCUAACCAUGCAACUGAAAUAGCAAGGCAGUCCAAGGAGUAAACAGAGGUUACCUAA'
p210
aF0.9239130434782609
aa(lp211
S'Variation of a crop circle'
p212
aS'AAAAGUAAAAUGAAAGUCAAAGAUAAAUCCACGAAGUUAAUAAAGAGUAAAAGAUAAAAAAAUAAAAAAAAAAACAAAAAAAAAAAAA'
p213
aF0.9545454545454546
aa(lp214
S'Loop next to a Multiloop'
p215
aS'AAGAUAGAAGUAAAAAUUUGACACCGAAAGGUGUCAUUCAUACUAAUGUAUGAGGAUAAAAAUCUUCUGUCAA'
p216
aF0.9726027397260274
aa(lp217
S'Snowflake 4'
p218
aS'GACCGAAGGUCUUCUGCCAAAAGGGAGAUAGGUGACUUAAAACAGACACAAGCAAAGAUGAAACUACAAUAGUGUGACCUAAAAGGGUUGCAUGUGACCCAAAGGGCACUGCCCCAAAGGGGAACUCAGAAGGAGAAGUGACAAAGGGGUUGUUAUACGGCCAAAAAGUAGACCACCAAAGCUGAACUCCUAUGGAGGUCUGGAAAAAAUCCGUCAGGCAAACCUAAUGGCUGACGUCCAAAGGAUAACAGCUAUGCUGGUCGGCCAAAAGGUUGUCAAGAUGCGGAAAGCCCACUCGAUGAAGCGUCAACACCGAAGGUGGAGUUUGAAAAGAGCGUUCAGUCUUCCAAAAGGUAGAGGUCCAAAGGUC'
p219
aF0.8135135135135135
aa(lp220
S'Mat - Cuboid'
p221
aS'GAAGCAAAAGGAAGCAAAAGGAAGCAAAAUAAAGAAGCAAAAGCAAGCAAUCGAAAGAAGGAAGUAUGGAAAAGGAAGCAAGCAAGUAAAAGGAGGAAAGGAAGCAAGCAAAAGCCACCCCGCCCGCCGGCAAAAGCCCGGUCGUUCGCCCGCCAGCAAAAUCCCUCUCGCCCGCCGGCUCGCAAAAGCCAGCCCAAGCUCCCGCCCGGAAAAAAUCAAGCAAGAAAUCAAGCGAGAGCAUGCAAGUAAGCAAGCAAUGGCAAGUAAGCAUGCAACCAAGCGCAAGCAAGCAAGCGAGCGCAGGCCAGCCAUCAAACGCCAGCCAGCCAGCCCUAGCCAGCCAGUACAGCCACCGCCAGCCAGGCCGGUCCGAGCGACAU'
p222
aF0.8236842105263158
aa(lp223
S'Misfolded Aptamer 6'
p224
aS'AAAAAGUACGAAAAAUACCAUGAAAAGACGAAAAAAAGUCAAAGCUAAAGGGUAAAAAAAAGUAAAAAAAAAAAA'
p225
aF1.0
aa(lp226
S'Snowflake 3'
p227
aS'GACCGAAAAGGAGUCUACAAAAGUGAAGACCAGACCGAGUCAAAAGUCCUCACCAAAACGCAGAAAUUGCAAAAAUGAGAGCCCAAAAGGGAAGGUCAGUCCAAGGCAAAAGCCGACACCAAAAGGCAAAAAUUGCCAAAAGGAGUCCACAAAAGUGAAGGACAGACCAAGACAAAAGCCUACGCCAAAAGGCACGAAGUGGCAAAUGUAGAACAGUAAUGUGAAGGUCAUACCAAGGGAAAAUUCCACACCAAAGGGCACAAAGUGCCAAAAGGAGUGCAGAAAACUGAAGGUGAGACGAAGACAAAAGUCCACACCGAAAGGCUCAAGGAGCCAAAAGGGGUGCCUUAAUGUGAACGUCAGGUCAAGACAAAAGUCGGCACGAAAAUGGUC'
p228
aF0.8447837150127226
aa(lp229
S'Hard Y and a bit more'
p230
aS'AAAAAGAGUCUGAUACGCGAAAGCGUAACAGACAAGGCUAGUUUAAAAGGGCGAGGUACAAAAAAGUGCCAUGCAUUGUCGAUUCAAAAAAAAAAAAAAAAAAAAA'
p231
aF0.9716981132075472
aa(lp232
S'Mat - Lot 2-2 B'
p233
aS'GGAGGGCCGACGCCGCAAAAGCCCGGGCAAAACCAAAAUCAAGAGAAAUGAAAAGCAAGUCGAAGUAAGCCCGCUCCCGCAAAAGCCCGACCCCGCAAAAGCAAAAGCGCAAGGAAAACCAAGCGCAAGGGCCGGCAACCAAAAGGGCACGCCCCCGCAAAAGUCUGUGGAAAAGUAAAAACUAACGCAAGGAAAAGCAGGAGCAAGCAAGCAAGCGGCAGCAAAAGUCCUAUCCCGCAAAAGCAAAGGCGCAAGAAAAACAAAACGCGACCCCCAGCAACCAU'
p234
aF0.75
aa(lp235
S'Shapes and Energy'
p236
aS'AAAAAAGAGAUCAGACCAAAGGGAAGACCGGGAAACAGGUCAAACGGUCAAGGAAAAAUCACCAAAGGGUGCCAGAUCGCAAAAAAAAAAAAAAAAAAAAA'
p237
aF1.0
aa(lp238
S"Spiral of 5's"
p239
aS'UAAAGGACAUAAAGACACAAAGACACAAAAGACUCAAAGACACAAGGACACAGGACAAAAAGGACACAAAGACACAAAGACACUAGAUACAAAGACACAAAUACACGAGACACAAAGACACAAGACACGAGACACAACUCACAAGACACAGACUGGGACACAUACCAAAAAGGUAUGAGGGGUGUCAAAAAUGGUCAAAAAGUGUCAAAAAGUGGGAAAAAGUGUCAAAAAGUGUCAAAAAGUGUCAAAAAGUGUCAAAAAGUGUAGAAAAGUGUCAAAAAGUGUCAAAAUGUGUCAAAAAGUGUCAAAAAGUGUCAAAAAUUGUCAAAAAGUGUCAAAAAGUGUCAAAAAGGGUCAAAAAGUGUUAAAAAGUGUCAAAAAGUGUCAAAAAAAAAAA'
p240
aF0.9949622166246851
aa(lp241
S'Campfire'
p242
aS'AAAAGCCCAACAUACAAGAACAACACAUAAAUUGUGGACACCAAGGGUAGUGGCUCAACACCAUCAGCAUACACAAAGGUAGUGGCCGCUAACUGCAGCCGCGAAAGCGAGCCACGAGUCGAAAGGAUGAGUGAUGUCGGAGCUAGUCGUGUGGACAGUUAGUCAGACCAAAAGGUCGACGACGACCCAGCAAAGUUAGUAGGCAGUGGGGC'
p243
aF0.9245283018867925
aa(lp244
S'Anemone'
p245
aS'AAAUAGUUCGAAAGGAUUGCGUGCGAAAGCGCGGACUCUUAAUAGAGUCGGUUGUAAUCAACCGUUACCAAAGGGUGACGUCAAGAAAUUGGCCGCAUGAAAAUGUGGACACAGAAAUGUGUCAGCCUAUAAUUAGGCGACUUCAAAGGAAGUCGUGUGGAAACAUACGGCAGCUAAUGCUGCCCACACGAAAGUGUGCGAACUUAAUAGUUCG'
p246
aF1.0
aa(lp247
S'Fractal 3'
p248
aS'AAAAGAGCCAUUCCCCAAAAGGUCAAAAGAAGAAAGAGAUAGAAAUGACAAACGUACUCCGAAACGGAAACGGGAAAACCAGGUGGGUAGGAAAACGGCAAAAGCAACCAGGCUAAAAA'
p249
aF0.9327731092436975
aa(lp250
S'Kyurem 5'
p251
aS'AAAAUUUCUCACGAUUAAUAUCCCUAAAAUAUGUAGUAAAGGCGAAAAGUCAUGCGCCAAAAACGAGAUGGGAGUCCGAAGCACAAAAAAAAAAAAAAAAAAAA'
p252
aF0.9038461538461539
aa(lp253
S'Snowflake Necklace ( or v2.0 )'
p254
aS'GACUGACACACUCGUGGUCACAGCAAAAACCACGAAAAGUGUCUAAAAAGGGCUUAAAUAGACCAAAAAGGGGUGACAAAGAAAAACUUAAACACACCAAAAAGAAUCGAAAAGGAGCAAAAACGAGCAAAAAGCACAAAAAAGGAGUGUUACUCAAAAAGGCAGGCACACCAAAAAGGACUAAAAAGCAGCAAAAAGCAUCAAAAAGGACCAAAAACAAGUGCCACACAAAAAGUGGGACACGUCAAAAAGAAUCAAAAAGAAGCAAAAAGGAGCAAAAAGCACCAAAAAGCAGAGUCAGGCAAAAAGUAAGGCGCACGAAAAACGUAUAAAAAAUUCCAAAAAGGAGCAAAAAGCAGCAAAAAGCAGUGCCAAUGAGUGUGUUGGUC'
p255
aF0.8766066838046273
aa(lp256
S'Methaqualone C16H14N2O Structural Representation'
p257
aS'AAAAAAAGAUAAGGCCGGACAGAUAAAAAUCAGACACGUGAAAACAGGACAUUCAAAGGGAAGACACGCAAAAGCGACAGUAAAAAUCUGGGUCAGUCAGUCAGUCGCAAGGAGGCCUGACCAAAGCAAACAAACAAAAUGAAAAAAAAGUUAGAGAUGUAAAGACCCACAAAAGUGUACAAAGGUACUCAGCAAAAACGAGGAAUACGCAGACAGGCACACACGCAAAAGGCAAAGGCCAGCGAAACAAAAGCUAGUGAGAUAAAAAUCGGCUAGACGAAAGUCAGUCAGAGGACAAAAGUCGGCGAAAGCCACCCAAAAGGAGUCAGUCCAGUUAAAGGUCUUAUCGAAAAAA'
p258
aF0.9380281690140845
aa(lp259
S"Cat's Toy 2"
p260
aS'AAAGGACAUACGCAAAAUUUUUAAAAAAAAAAAAAAAAAUGUUUGGAUGCAAAGGCUAAGCGAAAGUAAAAAAAACAUAAAAUAUCGUGUGUCAAAA'
p261
aF0.9587628865979382
aa(lp262
S'Zigzag Semicircle'
p263
aS'AAAGUAAACAAAGGAAAAAGAGAAGGUUUGAAAA'
p264
aF0.9411764705882353
aa(lp265
S'Short String 4'
p266
aS'AAAAACGGAAUGGAAAGGAACAAGGAAUAAAAAACCAAGUAACAUUGAUCAAAAGAGAGCGUUGAACAUAAAAUUCUCAAAAAAAAAAAAAAAAAAA'
p267
aF0.9381443298969072
aa(lp268
S'Gladius'
p269
aS'GGAAACAAGGAAAAAAUCGGGGCAAGAAGGACAGACUAAGAUCGAAAGGUCGGACACAAAAGGCAAUAGACCAAGAGAUCGGCAGUCACGGGAGACACGAAUCUAAGACCAGACCAAGGCUAAAAGUCGGGUACGGUCACAGAUUAGUGUCCACCGUGAUAAGAGAUCGACAGGUUAAGAGCCAAUAGUGUCUGUCAAAGACAGGACCAUCAGACGCAAGACCAGAAGACCAGAAGACGCACAAACACCGAACGACAUCAUCAGACAGACAGCAAAAGCUGUCAAGUCGAAUGGAAUUGUAUGGUGUAGGUGUGUCACAAGGUCACAAGGUCAGUAGUCAAAAGGUUCAGACCAAAAGGUCAAAGUCGGUCAAAUUAGAUAAGAAAUAAAACAACAAAAG'
p270
aF0.895
aa(lp271
S'Thunderbolt'
p272
aS'GUUAAACACUAAAAAAACAGAAAGCUGCGGGGGAAAAGUCACACAGUAAAUGUAACGGCAAAAGGACGAAAAACGUCAAAAAAGCAAUUCGAGAAAAAAAUCACCAAAAAGGAAGUGAGGACCAAAAGUAAAAAAGACUAAAAAGGUAAAAACCCGCGGAAACAGCAAGAAAAAGCCAGACCGAUCGAAAAAACAACGGCAAAGCAGAGGAAAAAAAGUAAGGUCAAAAAAAAAGUCAGGAGUAUAUCAAAGAUGUGAGGGACUAAAAAAAAAAAUCGAGGUAAAAAAAUUCAGCAAACGCACAUUGAAAUCAAAAAAAGGUAAAAGAUGUGAACAAAAAAGUUGUGUGUAAAAAAAUUUCCAACGGAAAAAAAAAAAAAUUGUGUUCUGCA'
p273
aF0.9132653061224489
aa(lp274
S'Mutated chicken feet'
p275
aS'AAAAAAUGAAGCAAGAAAUCAGGAAACUAACUCUCUCCAUCGUCAAGGGAGCAAGCCGAAGAGCGCCAACAUCGAAGCAGCAAAGCGAGGCAGAAAAAAA'
p276
aF0.83
aa(lp277
S'Chicken Tracks'
p278
aS'AAAAAAAAGACACACCAGAAAAAUCUGAAUAGCAAAAGUUAAAGGCCGAAAGGCCGUGUGUCGAGGCGGGCAAGGCCCAUGUCCAAAGGACUAGCCCAAGGGGUGCCGAAAAAAAA'
p279
aF1.0
aa(lp280
S'Looking Back Again'
p281
aS'AGCAGGACGUCCGAAAAGCCGCGAAACGUGGCAGCAUAUGACCCCAAACCGAAGGGGGAAGGCAUAAAGAACUAAUGUUCAAAGAUGCCGAGUCUACGCAAGACCGCUUAAAAGACACAAAAGUGUCAAAAAUGUCGAUGCGACGCAAGGUCUCCACAGAAACUGUGUAUAAUCCAACACCAAGCCCACGAUUACCAAAAGGUGUGCGGAACGAGGAUGGAAGAAACUCGAAGAGACAAAGUGUCGGUCGGAUCCACUGCAAAAAAGAAACGCAAAAAAAAGACAGAAAAUGUCGCGUAAAUUCGGCAGGACCAAAAAAACCGCACUGAAAGGUGCGAAGUACCAAACGGCACUCAAAGAGUGAAGGUGCAAAGGGUCGGAGCCAAGUC'
p282
aF0.8637532133676092
aa(lp283
S'Multilooping 6'
p284
aS'AAAAAGAACGGAUAUGAAAAUAUCACUGUUAAUGUUGCGCCAACUACCCAAAGGGGUAGGGCCUAAUGGCUCAUUUCUUCGA'
p285
aF0.9024390243902439
aa(lp286
S'Cesspool'
p287
aS'GAAGAAUGAAAAAACAAUCCAUAAUGAAAGAUAAAAAGAUUUGAACCCCAAAAGAAGACCCCAAAAGAAGAAAAACAAAAGAACCGUAUCCCCAAGAAAACAACACCGGAAUGAUAAAAUUAUUAAUAAGUCAUGGCCAAAAGAAUUCCCCAAAAGAAGAAAAACAAAAGAAGAAGUAGUUCCAAUAAAACACUAGCACAGACGAAAAUUAAAUAAGAACUAAUCCCCAAAAGAAGUCCCCAAAAGAAGAAAAACAAAAGAAGAAACAAGCCCCAAGAAAACAACACCCCAUAGACAAAGUCAACAAGAAGUGAACCCCAAAAGAAGAUCCCAAAAGAAAAAAAACAAAAGAAGAAGC'
p288
aF0.7430167597765364
aa(lp289
S'Hoglafractal'
p290
aS'AACUGCAAUUCACAAAAUAGUCGAAAAAGAUUGGGGUAGACCAAAGUCGAAAAAUGACGGUCAACGACACAAAAGUGACUAGACAAAGACGAAAUAGCAAAAAAGUUGUGAGCGGAAGACAAAAAGUUCCGGGAGUAAAAAGGUAUAACAAAAGACAAUAGAAAAAAUUAAUACCGGCAAAAAGGCGCGAAAAAGCGAUACACAAAAAGCAGCAAAAAGGCGACACAAAAAGUGGGGAAAGUGGACAUCGAAAAAGAAAAAAAGUUCGCUAAAUUCAAUUACAUACGAAGUGUGUAUAAAAAAGGUGUCAAAAAGGUGUAAAAAAGUUAAAAAGUCGAGGCGGGGCAAGGCAGACCAAAAUCGAAAGACCGAAAGGCACACGAAGCGUGUGAGGUCGCAU'
p291
aF0.9
aa(lp292
S'Bullseye'
p293
aS'AAGCGUCGGCAAAGGUCAAGACAUAUUCUCAAGGACAAAGUCUAUGGAAAAAAUCGAGCGGGAACCUCAAGACAGAAUGUCGAAUGUAAAGCAUGCGAAAAAAAGUACGCCGCAGCAUCAAUAGAAAGUUUGAAGACGGAAUAUCGUGAAAAAAAGAGGAACCUAUGGCGAACCUCGAACGGGGCGGCCAAAGGUACUGAAA'
p294
aF0.8118811881188119
aa(lp295
S'Shooting Star'
p296
aS'UACACCGUCUGGGACUCAAAGAUCAGCAGCGACACACGUAAUUAGGAAAUGUAGACGAAAAAAUCUUUUAGACACUACAGUUUCGGACAUACAUAUACAGACCAGUAAAAGACGGUCCGUAGAGGUAAGACAGAGCUGCAAGUGGAAGAGUGUCGAAGCACACAAAGUGGGACACUCAAAGAGCGUGGGAAACAGAGGUCCGGGCAGACGACACUAAAUAGCCACUAUGUGGCUAACAGACAAAGUCUGGGUAGAGGACCAAAGGUUUUCACUGACAAAGUGUGCGUCCUCCAACGAAAGGUUCAAGACCAAAGCCAGACCAGUAAAAAUCGGUUCGGCAUAGGAGCAGUACGGAGAGGUGUGA'
p297
aF0.7637362637362637
aa(lp298
S'Teslagon'
p299
aS'AAAAAAUGAAAAAAAGCAACAAAAAAAAGACCAAAAAAAAAAAAAAAGGAAAAAAAAAACAAAAAAAAAAAAAAAGUGCCAAAAAAAGCAUGAAAAAAAUCGAAAAAAAAAAAAAAGGAAAAAAACAAGGAAAAAAAGCACCAAAAAAAAAAAAAAAGGAAAAAAAAAGCAAAAAAAAAAAAAAAGUAGGAAAAAAAACAGUAAAAAAAGCAAAAAAAAAAAAAAAACAAAAAAAACAGUAAAAAAAGUACCAAAAAAAAAAAAAAAGCAAAAAAAAAGGGAAAAAAAAAAAAAAUCAGCAAAAAAAGCAGUAAAAAAAUGUAAAAAAAAAAAUCAAAAAAAAAAAAAAAGGUGGAAAAAAGGCAGUAAAAAAACGAAAAAA'
p300
aF0.9267015706806283
aa.