(lp0
(lp1
S'Simple Hairpin'
p2
aS'GAUACAAAAAAGUAUC'
p3
aF1.0
aa(lp4
S'Arabidopsis Thaliana 6 RNA - Difficulty Level 0'
p5
aS'GAUAUGCAAAUGAGAAAAAAAAAAACUCCAGAUAUGUUGAUAUAUAGACAUAUAGACAAAGAUACAAAAAAGUAUCAGUCUAUAGUGUCUAUAUAUCUUCAUAUCUGAAGCAUAUC'
p6
aF1.0
aa(lp7
S'Prion Pseudoknot - Difficulty Level 0'
p8
aS'GAGAUCAGCGCGAAAGCGCGAUACUCAAAAAAAAAA'
p9
aF1.0
aa(lp10
S'Human Integrated Adenovirus - Difficulty Level 0'
p11
aS'GGUAUAGAGGGAUCAGAGAUGGAAAAAAAAAAGCUGGGAUUGUGAACACAGCACUAGCAAAGAGAUAAAAUAAGAAAAAAAGUUUGUUUUAUAAAACGUCUAGUAAAAGCUUAAAAAAAAUCGAUGAUCUUCAAAAAAGGGAGAUGCCUGAAAAAAAAAAACAUCUCGGAUCAAAGUUUCUAAAAUGUCAAA'
p12
aF0.9791666666666666
aa(lp13
S'The Gammaretrovirus Signal - Difficulty Level 0'
p14
aS'AACGCGGGAUGCGAAAACGCAUCAAGAGGAAAAGUGGCAAGCCCACUGCGGUCGAAAGACCGAAAACAGUGGCGCCGAAGAUAUGCGGAAACGCAUAUCAA'
p15
aF1.0
aa(lp16
S'Saccharomyces Cerevisiae - Difficulty Level 0'
p17
aS'CUGUUCCCAAGGAAAAAAACUUGAGGGAAAAAAAAAAAAAACCGCAUUAGAUUAAAAAUGUCUAGGAACAGAAAAGCUACGCAAUCGCAAAAAAAGGCGAGGGGAAAAAAAAAAAACCCAAAUGGUCCGAAAAAAGGACUGCGUAGUGAAAAGAGUGCACGCGGAAAAAAAACCGCGUUAUGGAAAAAACAUAGCAGAUACUACAAAAAAGGUAGUGCACUUUGAAGGAUAUGAAAAUGGUAAAAAAUCCAUGGUGUGAAAAAAGCACACCAAAUGGGCCAAAAAAAGGUCCUCGUAUUAAAGUCGGCCUAAUCGCUAAAAAAUGCGAGCUUUGAAAAAAAUAAAGCAAAUUAUAGUAAAAAUCUGUGGGGCCGAAAAA'
p18
aF1.0
aa(lp19
S'Fractal 2'
p20
aS'AAAAAGAUAUGCGAAACAGAUAGGCUAAGUUCGAAAAAAAAAGAACAUGCGCUAAAAAAAAUGCGCUAGGGCAAAAAAAAAAGCUUAAGGCUUAUCUGAAUGAUAUGCGAUAAGCGAAAAAAAAAAAUCGCAAGCGCAAAAAAAAAAGCGCAUACGCAAAAAAAAAAGCGUUAGUCGCAUAUCUAAGAUAUGCUAUAAGCUCAAAAAAAAAAGAGCAAGCGGAAAAAAAAAACCGCAAGAGGAAAAAAAAAACCUCAAGUAGCAUAUCAAACGCAUAUCAAAAA'
p21
aF1.0
aa(lp22
S'G-C Placement'
p23
aS'AGGCUAUGUCUA'
p24
aF1.0
aa(lp25
S'The Sun'
p26
aS'GAUAUACCCUUGAAGAGGAAGUAGUCAAUGACAGAGUAUUCAAGAUAAACUCGUUAAGAACACGGACUGUAUCAGUAACUGGUCAAAGACAGGUACUAAAGUAGUAAACCGUCAAUGACAGAGAGUUGAAAACUAACUCGUCUCUCUAACGGAGUCAAGGGCAAACUAAGCUAAUUCACAGACUUUAUAAGUAACUGGAAAAGGGGAGAAACUGGAACAGUAAUUCCCCAAACUUAUAGGCGCGAAGUGUAAAUAGAC'
p27
aF0.8178294573643411
aa(lp28
S'Frog Foot'
p29
aS'AAAAAAAAAAACCUUAAUAGGUCUAAGAAAUUGGCAGGUAUCCUG'
p30
aF1.0
aa(lp31
S'InfoRNA test 16'
p32
aS'GAUAUGGGAGAUAUGAAAACAUAUACUACGCAUAUC'
p33
aF1.0
aa(lp34
S'Mat - Martian 2'
p35
aS'GCGCGAAAGCGCAAAGAUAUGCAAGAUAUGCAAAAAAAGCAUAUCGCAUAUCAAAGAAUAUGCAAAAAAGAUAUGCAGAUAUGCAAAAAAAGCAUAUCGCAUAUCAAAGAUAUAGAAAUAUCAAAAAAAGAUAUUUACUAUAUCAAAAAAGCAUAUUCAAAGAAAAUGCGAUAACAAAAAAAGUUAUCGAACAUUUUCAAAGCGCGAAAGCGC'
p36
aF1.0
aa(lp37
S'square'
p38
aS'GAUAUGCCGGUUCCGGUUACCGGUUCAAAGAACCGAAAAGUGACCGAAAAGAACCGAAAAGCAUAUC'
p39
aF1.0
aa(lp40
S'Six legd turtle 2'
p41
aS'AAAAAGGAAAGCGAAAGCAAAGCGAAAGCAAAGCGAAAGCAAAGCGAAAGCAAAGCGAAAGCAAAGCGAAAGCAAACCAAAAAAAAAAAAAAAAAAAA'
p42
aF1.0
aa(lp43
S'Small and Easy 6'
p44
aS'GCCGCGAAAAGCAAGGGAAAAAAAACCGGC'
p45
aF1.0
aa(lp46
S'Fractile'
p47
aS'AAAAAAAAAAAAGCGAAAGCAAAGCAAAGCGAAAGCAAGCAAAGCGAAAGCAAAGCAAGCGAAAGCAAAGCAAGCGAAAGCAAAAAAAAAAAAAAAAAAAAAAAA'
p48
aF1.0
aa(lp49
S'Six legd Turtle'
p50
aS'AAAAAUCAAAACCCAAACGAAAACUAAAAGGAAAAGGUAAUCGAAAAGCGAAAGCAAAUCAAAAGUGUAAAACGAAAGUAAAGCGGAAAAAAAAAAAAAAAAAAA'
p51
aF0.9619047619047619
aa(lp52
S'snoRNA SNORD64'
p53
aS'GAUAUGAAAAAGAGAAAAGAGAAAGAUACAAAAAAAAAAAAAGUAUCGAAACUCAACUCAACAUAUC'
p54
aF1.0
aa(lp55
S'Chalk Outline'
p56
aS'AAAAAGCGCAGAGACGAAAGUACUCAAAGAGAGAAAACUCCUUAGAUGCGAAAACGACAUCAGGCUCGAAAGAGACCGCGCAAAAAAAAAAAAAAAAAAAAAAA'
p57
aF1.0
aa(lp58
S'InfoRNA bulge test 9'
p59
aS'GUUUUGCAGAGAGAUAUAUGCUAAUGCAUAUACCCGCGAAAC'
p60
aF1.0
aa(lp61
S'Tilted Russian Cross'
p62
aS'AAAAAGCGCCGGCGAAAGCUGCCUCAGUGCUAAUGUACGAUACGAAAGUAUCAGCGGGAAACCGCGAGGGCUCGAAAGGGCGCGCAAAAAAAAAAAAAAAAAAAA'
p63
aF1.0
aa(lp64
S'This is ACTUALLY Small And Easy 6'
p65
aS'AAAAAAAAAAAAAAAAAAAAAAAAAAAAAAAAAAAAAAAAAAAAAAAAAAAAAAAAAAAAAAAAAAAAAAAAAAAAAAAAAAAAAAAAAAAAAAAAAAAAAAAAAAAAAAAAAAAAAAAAAAAAAAAAAAAAAAAAAAAAAAAAAAAAAAAAAAAAAAAAAAAAAAAAAAAAAAAAAAAAAAAAAAAAAAAAAAAAAAAAAAAAAAAAAAAAAAAAAAAAAAAAAAAAAAAAAAAAAAAAAAAAAAAAAAAAAAAAAAAAAAAAAAAAAAAAAAAAAAAAAAAAAAAAAAAAAAAAAAAAAAAAAAAAAAAAAAAAAAAAAAAAAAAAAAAAAAAAAAAAAAAAAAAAAAAAAAAAAAAAAAAAAAAAAAAAAAAAAAAAAAAAAAAAAAAAAAAAAAAA'
p66
aF1.0
aa(lp67
S'Shortie 4'
p68
aS'CCGAAAGGACGGAAACG'
p69
aF1.0
aa(lp70
S'Shape Test'
p71
aS'AAAAACGGCGCAAGAUUCAAAAAAAAGGAUCGAGACGCCGUGAUACAAAAAGUAUCUGCGGGAAAUCGCACGGGUCAAGCGCGGAAAAAAAAAAAAAAAAAAAA'
p72
aF1.0
aa(lp73
S'The Minitsry'
p74
aS'CCGAAAAGGCUAAAAAGAGAAAAAGGUUAAAUUGUAAAAAAAGACAUGCCGCUCCAGCACGG'
p75
aF1.0
aa(lp76
S'stickshift'
p77
aS'AAGAUAUCCGAAAAACGAGAUAUCAA'
p78
aF1.0
aa(lp79
S'U'
p80
aS'AAAAAGAUACAGAGAGCAGAGAUAUGCGCGAAAGCGCAUAUCCGCCCGUAUCAAAAA'
p81
aF1.0
aa(lp82
S'Still Life (Sunflower In A Vase)'
p83
aS'AAAGCACUUGAUUCGAAAAGAGUCUGUGUCCAAAGGGUCAAGGUAUAAAAAAUACCGUGAUUUAAAAUGCCUGUUAGCAAAAAGCUGGAAGAGACAAAACGUUUCGGAUAUAUAGACACAUAGACGCACGAUACAAAAAGGUAUCAGAUAGAAAAAAAAAAAAACCGCAAAAAAAAAAAAAAAAAAAAAAAAAAAAAAAAAAAAAAAAGGCGGGAAAAAAAAAAAACUAUCAAAUCAAAGGAUUUAGUGUGUCUAUGUGUCUAUAUAUCAAAAAAUGAAAAAUUUUCUGAAUCUAAAUGAUUCUGGAAGGAAAAUUUGUUAAGAUGCAAAAAGCAUCAAUAGACGAAAGUUUGGAAACAUGAAAAUGUUGUAUGUGAA'
p84
aF0.9629629629629629
aa(lp85
S'Quasispecies 2-2 Loop Challenge'
p86
aS'AAAAUGCACGCGCUUCAGUAAAGGCUGUUGCGCAGGUUAACAAAGGGGACCGGACGGGCGCGGGAAAAACCCUAGAACGUUGUGCUAAAAAAAAAAAAAAAAAAA'
p87
aF1.0
aa(lp88
S'Corner bulge training'
p89
aS'AGAUAUCCAGAGAAACUCUGAAAAGAUAUCA'
p90
aF1.0
aa(lp91
S'Spiral'
p92
aS'AAAAAGCGCAGAUAUCAGAGAGAUACAGCGCAGCGCAGCAGCAGCAGCAGCAGCAAAAAGCGCGCGCGCGCGCGCGCGCGUAUCCUCGAUAUCGCGCAAAAA'
p93
aF1.0
aa(lp94
S'InfoRNA bulge test'
p95
aS'AAAAAAAAAAAAAAAAAAAAAAAAAAAAAUCCAAAAAAAGCCAAAAAACCUAAGCAGGGGACACAGGAUGAAAAGUACCGGUAGUAAUCAUGAAAAGAGUGAAAGUGAGCGAAAAGUGAGAA'
p96
aF1.0
aa(lp97
S'Worm 1'
p98
aS'AAAAAAAGAGGGCCUUUGAUGCAAAAAAGAGUUGGAGUUUCAUGC'
p99
aF0.9555555555555556
aa(lp100
S'just down to 1 bulge'
p101
aS'AAAAAGUGCGGAGACGAAAGUCUCGGAGGAAACUCAGCUGCGAAAGCUCGGAGGAAACUUAGGGAAAACCCAGAGCAAAAAAAAAAAAAAAAAAAA'
p102
aF1.0
aa(lp103
S'Iron Cross'
p104
aS'AGGCAGAGGAAAUAGAAGAAACAAAUCAAAAAUGGAGCGAAAUGCAUGUGAAAGUGGAAUAAAGUGACUAAAAGGGACAGAAAAGUCACAUAAAAUGAUCCCAACACGCUGGAACAGAGUAGA'
p105
aF0.926829268292683
aa(lp106
S'loops and stems'
p107
aS'AAAAAGAUAUGCAAAGUGCAAAGCGCAAAGCGAAAAAAAAAAGAUACGAAAAAAAAAAAGUAUCAAAUCGCGAAUGCAGAAAAAAAAAACUGCUAAGCGCAAAGAGAAAAAAAACUCAAAGCACAAGCAAAAAAGCGAAGCAUAUCAAAAA'
p108
aF1.0
aa(lp109
S'Water Strider'
p110
aS'AAAAAGAGUGAAGUGAUAAUUAAAAAAUCCUGAAAAGGUUCUGCGGGAUAAGAAAACUUCCACAAAAGUAUUCGCGAUAAUCGAAAAAAAAAAAAAAAAAAAA'
p111
aF0.9223300970873787
aa(lp112
S'The Turtle(s) Move(s)'
p113
aS'AAAGCGAAAGCAAAGGAGACUCUGGAAAAAAAACGGAGUCUCAAAGGCGCAAAAAGCGCGGAACCAGAAAACUGUGACAGAGCAAAAAACUUUGAAAAAGGAAAGCGAAAGCAUAAGUCCAAAACUAUAAAAUAUGCUAAAAAUGCAUAUAAAAGAUAAAAGUCAAAAAGAUAUGAAAAGAGCAAAAAACUCAGGCUCAAAAAAAAGGAAGUAUGCAAAAAAGCAUGAAUACGGAAAAACCGCUACAUAUCAAAAAAAAAGCGAAAGCACAAACGGAAACGGAAAUUUACUAAAAAAAAAAAAGGAGUAAAAACCU'
p114
aF0.9810126582278481
aa(lp115
S'Adenine'
p116
aS'GAUACAGAUAUGAGAUAUGAGAUAUGAGAUAUGAGAUAUGAAAAGAUAUGAAAAAACAUAUCACAUAUCGGAUACAAAGAUAUGCAAAGCAUAUCGUAUCACAUAUCAGAUAGACUAUUCAAAGAAUAGUAAACUAUCACAUAUCAAAACAUAUCAAAACAUAUCAAAAGUAUC'
p117
aF1.0
aa(lp118
S'Tripod5'
p119
aS'AAGCGAGGGUGAAAAGCCCCCGGGAAAACCGGUCGCAA'
p120
aF1.0
aa(lp121
S'Shortie 6'
p122
aS'GCGAAAGCAGCGAAAGCAGCGAAAGCAGCGAAAGC'
p123
aF1.0
aa(lp124
S'Runner'
p125
aS'AAAAAGUGCAGGCAAAAAAGGGUCAUACUCAUGCUCAACUGGAGCAUUAAAGAAGAAAAUCGUCCAUACCCCAAAAUCAACAGAAAGAGGAACAGAAAGCUGACAUAGUGCAAAAA'
p126
aF0.9137931034482759
aa(lp127
S'Recoil'
p128
aS'AAAAAGAUACAAGCAAGCAAGAGAAGAGAAGCAAGCAAAGCAGCACUCACUCAGCAGCAGUAUCAAAAAAAAAAAAAAAAAAAAA'
p129
aF1.0
aa(lp130
S'[CloudBeta] An Arm and a Leg 1.0'
p131
aS'AAAAAGAGAGAGACGAAAGUACUCGACAGCGAAAGCGUCACUCAAAAAAAAAAAAAAAAAAAA'
p132
aF1.0
aa(lp133
S'[CloudBeta] 5 Adjacent Stack Multi-Branch Loop'
p134
aS'ACAUGGCGCGAAAGCGCGCGACGAAAGUCGCGAUACAAAGGUAUCGCUCGAAAGGGCCAUGUA'
p135
aF1.0
aa(lp136
S'Triple Y'
p137
aS'AAAAGGGACCCGCGAGAUAAUUCUCGACUGAAAAGUCGCGGGGCCGAGCGAAAGCUCGUGAGAAAUCACGGCCGUCCAAAAAAAAAAAAAAAAAAAA'
p138
aF1.0
aa(lp139
S'Misfolded Aptamer'
p140
aS'GCGCAAAAACGGGCCAAAGGCGGCGAAAGCUAAAAAAAACCAAAAGGCGC'
p141
aF1.0
aa(lp142
S'Flower power'
p143
aS'AAAAAGAGGGCGGUAAUCGCGAAUCUUCUGAAACGGAAUCGAAAGCCGAAAUCACGAAAUGAGGGUAAUUUAAGGAAUGCUCGAAAAAAAAAAAAAAAAAAA'
p144
aF0.9607843137254902
aa(lp145
S'Kudzu'
p146
aS'AAAAGCGCAGAAUGUAUGAAUCACAGCGCAACGCAGCUAGAUUCGAAGCCAGAUCAAGACUAUGUUAAAAACGGAACGGCGAAAAAAAAAAAAAAAAAAAA'
p147
aF0.9603960396039604
aa(lp148
S'"1,2,3and4bulges"'
p149
aS'AAAAAGACCGUGUCGAAAACGGAAAGGGAGCGGAAACGUAGCAUCGAAAGUCAUAGCGAAAGAAAAUAUGGAAAACAAAUGAAGUGAAAAAAAAAAAAAAAAAAA'
p150
aF0.9238095238095239
aa(lp151
S'medallion'
p152
aS'GAGAUGAGUAGUUGAAAAGCUACGGAGAAAACUAACCCAGAGGGGAAUAUGUGAAAAUAUAUAGAAAAAAUUUAGAAUGCGAAAGCAUUCUUCGGAAACUAUGAUAAAAGUUGAUACGCGAAAGCGUAUAAGUAAAAAUUUUUCCUCGAAAGAGGGAUGUCAAAAGAUAGACGAAAUUUGAUCUACGAAAGUAGAUAUCUAAAAAGAAUUAUGCAAAGGCAUAGAGUGGAAACGCAUGCAAAAGUAGGGGAGCUAAUGCUUCCAGCGAAAACUCAAUAUGCGAAAGCAUAUAAAAAAAACAUAAAUAAAAGUCGCUUCCCGAAAGGGAAGACAUCUC'
p153
aF0.8991097922848664
aa(lp154
S'[RNA] Repetitious Sequences 8/10'
p155
aS'AGGAAAAAAGCAAAAAAGCAAAAAAGGAAAAAAGCAAAAAAGCAAAAAAGCAAAAAAGCAAAAAACCAAAAAACCAAAAA'
p156
aF1.0
aa(lp157
S'Documenting repetitious behavior'
p158
aS'AAAAAAAGGAAAAAAAAAGGAAAAAAAAAGGAAAAAAAAAGGAAAAAAAAAGGAAAAAAAAAGGAAAAAAAAAGGAAAAAAAAAGGAAAAAAAAAGGAAAAAAAAAGGAAAAAAAAAGGAAAAAAAAAGGAAAAAAAAAGGAAAAAAAAAGGAAAAAAAAAGGAAAAAAAAAGGAAAAAAAAAGGAAAAAAAAAGCAAAAAAAAAGCAAAAAAAAACCAAAAAAAAACCAAAAAAAAACCAAAAAAAAACCAAAAAAAAACCAAAAAAAAACCAAAAAAAAACCAAAAAAAAACCAAAAAAAAACCAAAAAAAAACCAAAAAAAAACCAAAAAAAAACCAAAAAAAAACCAAAAAAAAACCAAAAAAAAACCAAAAAAAAACCAAAAAAAAACCAAAAAA'
p159
aF1.0
aa(lp160
S'7 multiloop'
p161
aS'GCGCGGUGCGAAAGUACCCAUACGAAAGUAUGCAUCCAAAGGGAUGGAAUCGAAAGGUUCGAUACGAAAGUAUCCAUACAAAGGUAUGGCGC'
p162
aF1.0
aa(lp163
S'Kyurem 7'
p164
aS'AAAAGGAAGCUCGCCAAAAGGCCGCCAAAGCCUUGUCAAAAGAGCUGUACUGAAAAAAACGAAAGGCAGCCGGGAGAACAUGAAAAAAAAAAAAAAAAAAAA'
p165
aF0.9803921568627451
aa(lp166
S'JF1'
p167
aS'AAUCAAGAGAAACAUAGAAGAUACUAAAGCUAUGAAGAUACAAGGAGUCAAGAUAUGAAAAAUAUGAUAAUCGAAAGAUUAUCAUAUUUUAAGAGGAAACUCGGAUAUGCGCGAAAGCGCAUAUCUAGAUACGAAAGUAUCACAUAUCAGAUUCAGUAUCACAUGGCGAAUAUAGACCUAAAUGGUACUAUGAAGAUAUAUAGACAUAUAGACAUAUCGAAAGAUAUGUCUAUAUGAUCUAUAUAUCAAACAUACUAAAAUGUAUGGAUACGAUACGAAAGUAUCGUAUCAGAGCGAUAAUUCGCAUGUAUCAACUAUGAGCGCAGACAGAGAAAACUCGUCGCGCAGAUGCGAUGAAAACAUCGACAUCAUUCUACUUCGAUUAGA'
p168
aF1.0
aa(lp169
S'multilooping fun'
p170
aS'CGACGUAUAUAAAUGUGUAAAUUUCGUAGAAAGUUG'
p171
aF0.8611111111111112
aa(lp172
S'Multiloop...'
p173
aS'GCGCAGCGUAGAGGAAACUCAGAGGAAACUCGGUGGAAUCACAGCGAAAACGUGGUCAAAAGGCAGUCAAAAGGCAACGCAGAUUCGAAAAAGAAUCGAGGAAACUCGCGC'
p174
aF1.0
aa(lp175
S'hard Y'
p176
aS'AAAAUGUGGGCAUGCGUUCAGAAAUGGCUGCCAUCGGUUGUCUACUAAUGUAGAUAACCACACUAAAA'
p177
aF0.9705882352941176
aa(lp178
S'Mat - Elements & Sections'
p179
aS'AAAAUUAGGGUUAAGAGCGGUGAUCGAAUCAUCGCAGCGGACAAAACUCAGACGCGGGAGGUGGGAAUUUCCGCGCAAUGAUUUAGAAAAAAAAAAAAAAAAAAA'
p180
aF0.9619047619047619
aa(lp181
S'Chicken feet'
p182
aS'AAAAGCCAGGAGGUAUCGAGUAAAGCAAAGAACACGAGCAUAGAAUAAGCGAAUCAAAGCGGAAAAA'
p183
aF0.8805970149253731
aa(lp184
S'Bug 18'
p185
aS'AUGAGGAGUAGCAAACAAUCGUCCAUCCAAGCGGUGAGAAGCAGCAAAAGUGA'
p186
aF0.9245283018867925
aa(lp187
S'Fractal star x5'
p188
aS'AAAAAGAUAUGCGAGGCGCGAAAGCGCAAGCGCGAAAGCGCAAGCGCGAAAGCGCAAGCGAAAAAUCGCAACGCAUAUCAAAAAGAUAUGUGAAUCGCGAAAGCGGAAGCGCGAAAGCGCAAGCGCGAAAGCGCAAGCUAAAAAUAGCGACACAUAUCAAAAAGAUAUGCGAAGCGCGAAAGCGCAAGCUCGAAAGGGCAAGCGCGAAAGCGCAAGCUAAAAAUGGCAACGCAUAUCAAAAAGAUAUAGGAAGCGGGAAACCGCGAGCGCGAAAGCGCAAGCGCGAAAGCGCAAGUGAAAAAUCGCAGCUUAUAUCAAAAGGAUAUGCGAAUCGCGAAAGCGAAAGCGCGAAAGCGCAAGCGCGAAAGCGCAAGCGCGAAAGCGCAACGCAUAUCAAAAA'
p189
aF1.0
aa(lp190
S'Crop circle 2'
p191
aS'CAGAGCGUAAUAGAAAAUCUGCAAAAAAGCGUAAAAAAAAAAAAAAAAAAAAAAAAAAAAUCCAAAAAAAAAAAAAAAAGUAUAUAAAGUUUCUAAAUUGAAAACGAAAA'
p192
aF0.9636363636363636
aa(lp193
S'Branching Loop'
p194
aS'GGCGUGGAAAAAAACGCGCGAAAGCGCAGACGCAAAAAAA'
p195
aF1.0
aa(lp196
S'Bug 38'
p197
aS'AGCUAGUAGUAAUGAAAAUAAUGUUACCUACAUACG'
p198
aF0.9444444444444444
aa(lp199
S'Simple Single Bond'
p200
aS'AAAAAAGGAAAAAAAUAUGCUAAAUGCAUUAAAAAAAACAAAAAAAAAAAAAAAAAAAAAA'
p201
aF1.0
aa(lp202
S'Taraxacum officinale'
p203
aS'CAGCGAAAGACUGACAGCGAAAGACUGACAGCGAAAGACUGACAGCGAAAGACUGACAGCGAAAGACUGACAGCGAAAGACUGAGAUAUGCGAUCGAUAUGGCAACAAAGUUGACCAUAUCAGAUACAAAAGAUAUGACAAGAUAUGCAAAGCAUAUCAGUCAUAUCUUGCGCAGAUAUCAAAGAUAUCGCGCGUAUCGAAGAUCGCAUAUCAGCGCGAAAGACGCAGCGCGAAAGACGCAGCGCGAAAGACGCAGCGCGAAAGACGCAGCGCGAAAGACGC'
p204
aF1.0
aa(lp205
S'Headless Bug on Windshield'
p206
aS'AGGAGCGAAAACUAUCGAACUAAGGAAAAAAAAAAAAAAAAAAAAAAAAACCUGAGAAAGAUAGGAAAGCGCCAUUUAAUCGAAUGGAAAAAUUGGAAACGUAAAAAAUACGAGAAAAGGGCAUUUGGAAUAAUAGAGCUGUUUGUAUUGGAAUGAAAAAAAAAAAAAAACAUAGCCUUUACUUACUCUUACUUAAAGAG'
p207
aF0.98
aa(lp208
S'Pokeball'
p209
aS'AAAUUUGCAAAAAAGGAGUCGUGAGAGCGAAGUAGUGAGGAGGGUAGAGAAACUAGCAAUCCCAAGCGUCGAGCAGGAAUCAUGCAGAGAAAAAAAGAUAUUCAAAAAGAAAGAAGCGAACAAUACAAGGAAGGUGUGAGGGAAACCAUUAUCCGGCAGUUGCGACGCACUGUUGAGUGUCAAA'
p210
aF0.9021739130434783
aa(lp211
S'Variation of a crop circle'
p212
aS'AAAAGCAAAGACUAAGUUUAAGCCGACGGUGUAAGAGUUCGAAAACAAAAAAUAAAAAAAACGUAAAAAAAAAGGGAAAAAAAAAAAA'
p213
aF0.9318181818181818
aa(lp214
S'Loop next to a Multiloop'
p215
aS'AGGGUAUGCGGAAAAAAAUGGUUUGUAAUCAGACCGGGUAUGCGAAAGCAUAUCUUGAAAAAACGCAUAUCAA'
p216
aF0.9726027397260274
aa(lp217
S'Snowflake 4'
p218
aS'CACCAAAGCUGCGUUGAUAAAAAGAAGUGUAGUUACUCAAAGGGGAGACGCGCAAAGCGCAAGGUCAAAGACCGUCUCGUGAAAACGUAUCAAGGAAGCUGAAAAGCGGUCCGGGUAUGUCGAACAUAAAUUCUGGACCGUGAAAAGUUUUCCAAAAUAUCCAAAACCCUGUACGGCAAAGCCGAACAGCAAAGCUGGACGGCGAAAACUGUAUUAAGAUACCGAAAAGGCCUUCGUGUAAGACAGAAAAGUAAAGCUGGAGUGCGAAAACUGUAUCGAGUUAGUAAAAGAAGGGACGCCCAAAGGGCAAGCGCAAGGCGCGUCCCAGGAAAGCUUAUCAUCCCUUGAGAAAUCCAAUGGUUGAAACAGC'
p219
aF0.8756756756756757
aa(lp220
S'Mat - Cuboid'
p221
aS'AAAUCAAAAGUAAGUAAAACGUAGGAAAAGUAGGAAGAAAAAGGAGAGAAGCAAAAGAAGGAAAGGUGCAAAAGGAAGGAGGGUAGCACAACGAAUGAAGGAAGCAAGACAAAGGUGAUACCCGAGCUUGCAAAAACGUUGUAGCGUGCUGGCUGGCAAAAGUUUGCUGGGUGCUUUGUUCUGAAAAGUUUGCUUGCUAUCUCGCCCGCAAAAUGGCAUGCUUGCGUGCUUACUUGCUAUUGUAUACAUCCAUGCUUAUGUAUGCAUGCUAGCGUCCCAGUGAUUGAUAGCUGACAUUCGCAAGCAACCAACGAACGGUAUCCAGCCAAUCGCUACCAACCGACACAACUACCCGUAACCGUCUCGUCGACGAACGGAAU'
p222
aF0.7631578947368421
aa(lp223
S'Misfolded Aptamer 6'
p224
aS'AAAAAAGAGAAAAAAGCGCAUGAAAAGAGAAAAAAAACUCGAAGCUAAAAGCGCAAAAAAACUCAAAAAAAAAAA'
p225
aF1.0
aa(lp226
S'Snowflake 3'
p227
aS'CAGCGAAAACGAUAGGAGAAAGAUCAAACGCAGGACAAGAGAAAACUCGACAAGAAAACUGAGUAUCUUAGAAAACUAGUCGAGAAAGCUCAAGUCCAGCGGAAGCGAAAACGCGACAAGAAAACAAAGUAUCUUCGAAAACUAGUCGAUAAAAGGCAACCGCAGCACAAGAGGAAACUCGCCAGGAAAGCCGAGUAUCUCAGAAAACUAGGCGUUAAAAGACAAGUGCUUGGCAAGAGAAAACUAGACAAGAAAAGUGGGAAACUCAGAAAACUAGUCCAGAAAACUUAGGCCAUGUGCUAGAUAAAAGUCGGCAAGGAAAUUAAGAAACUUACAAAGCUAGUUGACAAAGCGCAUGCACAGCGUAAGAGAAAACUCCUAAUGAAAACGCUG'
p228
aF0.8422391857506362
aa(lp229
S'Hard Y and a bit more'
p230
aS'AAAAUGAUUCGGGAAUAGUAAUCUAUAGCCGAUACUGAUAUCGCGAAAGCGGGUGUUUCUAAAAUGAAACUUUCUGUAUCGAAUCUAAAAAAAAAAAAAAAAAAAA'
p231
aF0.9716981132075472
aa(lp232
S'Mat - Lot 2-2 B'
p233
aS'GGAGAGUAUUGCGUGCCAAAGCUAGAGUGAAAACAAAAUCGUGCCGUUGUAAAAGAAUCGCAUACCAAGCAAGCUCAUCGAAAAAGUUGCUGUAGCAAAAGCGAAAGCGCGCCGGAAAGCUUCUUGUCGAGUUCGGAAGUGAAAAUGCUUGCGCAUGCAAAAGCGAGCUUGAAAGAAAAACUGAGGGCUGCCAAAAGUUUCCCCUUGAAGGCGGGCGCAUGUAAAAACGACCUCUUACAAAAGAAAACUUGUUUGUUAAAGGGAGUGCUGGCGGAUUGAUCAAU'
p234
aF0.7253521126760564
aa(lp235
S'Shapes and Energy'
p236
aS'AAAAAGAAGGCCGGAUCAAAAGGAAAGGAGUAAAGGAUCUUAAACGAUCAAACGGAAAAAAUGUAAUUGAAGCGGCGCAUAAAAAAAAAAAAAAAAAAAAA'
p237
aF0.9801980198019802
aa(lp238
S"Spiral of 5's"
p239
aS'GUAAAGAAACAAAGAUAGAAAGAUGGUAAAGAUAUAAAGCUAGAAAGAUAGAAGAUACAAAAGAUACAAAGAUAGUAUGAUAGAAGAUACAAACAUAGAAAGAUAGAAGAUACAAGGAUACAUGAUACAAGAUGCAAGAUAGAGGAUAGAGCUAGGCAUACGCUAUAAAAAAUAGCGGGGGGCAGGGAAAAUACUUAAAAACUAUCAAAAACUAUCAAAAAGCAUCAAAAAGUAUCUAAAAGUAUCAAAAGGUAUCAAAAACUAUCAAAAACUAUGAAAAAGUAUCGAAAACUAUCUAAAUCUAUCAAAAAGUAUCAAAAAGUAUCGAAAACUAUCAAAAACUAGCAAAAAAUAUCAAAAUCUAUCAAAAACUAUCAAAAAGUUUCGAAAUCAAAAA'
p240
aF0.9949622166246851
aa(lp241
S'Campfire'
p242
aS'AAAAGGGCGGAUGUGAAGCUCUAGCGCGAAAAGUGUAUAUGAAAACCGAUACAAGCGAGACGGCCAGCAUCGACGAAAGUACGAGCGUGUUACGAUAGUAUAAAAAUCACGACAGCAGGAAAAGCAUCGACUGAAGAAGGCCGUACUUCAUAUAAGGGACAGGCAGCUCAAAGGGGCGUCGUCAUGACUAGUAUCUAUGUACUUACUGGCCC'
p243
aF0.9009433962264151
aa(lp244
S'Anemone'
p245
aS'AAAGAUUUGGAAACAGAUCGGAUUGAAAAAUCCGAUUUAGAAAUAAGUCGUGGGGAAACCCACGUGUUUUAAUAAACGCCUCAAUAAUUUGAGCAGGCGAAAGCCUGGGAGCGAACCCGCUUCAACAUGGAAACAUGUCCGAACGAAAGUUCGGCACAGAAAGCUGUGCGGUGUAAAGAUACCGGAGAUAAUGAUCUCCUAUUCGAAAGGGUAG'
p246
aF1.0
aa(lp247
S'Fractal 3'
p248
aS'AAAAAGCGCACAGAGCGAAAGCGCGAAAGCACUGAGAGAGCGAAAGCGCGAAAGCACUCAGAGAGCGAAAGCGCGAAAGCACUCAGGUAGCGAAAGCGCGAAAGCAAUCAGCGCAAAAA'
p249
aF1.0
aa(lp250
S'Kyurem 5'
p251
aS'AAAAAGAUACAUAAUGAAAUUGGAUAAAAGGAUCCGUAAAUUGGAAAACGAGCGGGGUUAAAAUGACUGAACGCGGUGAAUAUCGAAAAAAAAAAAAAAAAAAA'
p252
aF0.9423076923076923
aa(lp253
S'Snowflake Necklace ( or v2.0 )'
p254
aS'CAUAUAGGAUAAUACUGAAGAAGCAAAAAGCAUCAAAAAGAUUGAAAAACGUACAAAAAGUGCGUAAAUCGAUUUUCAGGGAAAAACCCAGCGAGAUCAAAAAGCAUCAAAAAGAGCGAAAAGCGGUCAAAAAGAAGGUAAAUCCACUCGCAGUCAAAAAAUUAUAUAUUUGAAAAAGAUCCGAAAAGGGAGAAAAAAGAUCAAAAAGAGUAAAAAACGAGUAUAAUCCAAAAAGUCACCGAGACAAAAAAGGAUCAAAAAGGGCGAAAAACGAUCGAAAUGAGCGAAAAACGAUUCGAAGGCAAAAAGUUUCAUACAGCAAAAAGCAUCUAAAUGAGCCAAAAGGUAUGAAAAACAGCCAAAAAGGAGUAUGCGUAUUAUCUUAUGUG'
p255
aF0.8508997429305912
aa(lp256
S'Methaqualone C16H14N2O Structural Representation'
p257
aS'AAAAAAAGCUCUGGGAAUCGCGAGAAAACCCAGAGAAAGAAAACUUACAGAGAUAAAGCUUAGAGAAAGAAAACUUAGAGGAAAAAAUUCACUCACUGACUCACGGAAAAAUAUCCCGGGGCAACGAGUAGAAGGCAAGGCAAAAAAAAACAACACAGACAAAAGUCCAGAAAACUCCAGAAAACUCCUGAUCAAAGGGCAGAAACAUAGUGAUUCAGACAAUGAUGAAAGAUAAAAGACAGUCAGAGAAAACUCUUUAACACAAAGGUAACUGUAACAAAACUUAGUUUGCGCAGAAAACAGUUGAAAACGGACUGAAAACGGUGCACUCAGCCCAAGGCCCUGGGCAAAAAAA'
p258
aF0.856338028169014
aa(lp259
S"Cat's Toy 2"
p260
aS'AAAGGAUAUUCGUAAACUUAUAAAAAAAAAAAAAAAAAAGAAUGAAAAGGAGAGCCGAUGUGAAAGCUAAAAAAAUUUAAAAUAUCGAAUAUUAAAA'
p261
aF0.9587628865979382
aa(lp262
S'Zigzag Semicircle'
p263
aS'AAAUUUUCCUGGGGAAAAAUAGAGAGGAGGUAAA'
p264
aF0.9411764705882353
aa(lp265
S'Short String 4'
p266
aS'AAAAAUGCAGUGAACGGGAAAAGCCAGGGAAGACGCUAUAAGGACCUUCCGAAAGGUUGAAACAAUCAGCAAGCGCUAAAAAAAAAAAAAAAAAAAA'
p267
aF0.9381443298969072
aa(lp268
S'Gladius'
p269
aS'GUAAUUAAAAAAAUAAACAAGACAAGAAAGAGGGAGAAAGCGCGAAAGCGCAGAUACAAGAGGGAGGAUAAGGGAAGCGUUAUGGAUAUAUGAGAUAUGAGGUACAGCGGCGCCCAAGAUCUAUGAUCGGGGACCCGCGAUAUCCAGUAUCGAGUAUAUCAAGUACGCGGAGUUUAAACACCCAACAGUAUCGCUCAAAGAGACAAUCAGUCGAGCCAAGAUCAGAAGAACAGUUGAUGUGCAGGAUACACCUACAUAAGUCAGAAAGAUAUGAAAACAUAUCGAUUCGCGUUUCGGUAGAGGUAUCACGCAUAUCUUAAGUUCAUAAGAUCAGUUCUCUCAAGAUUGUGCAGAAAACUGCAAGCUCACUCAAACGAGGCAACAAAGAAAAUAAUAAAAG'
p270
aF0.89
aa(lp271
S'Thunderbolt'
p272
aS'AGGAGACUCAAAAAAAAGGGGAAGGGGAGGGAGGAAACGGAUAUGCUAAAGAGAAAUUAAAAAAGCGCAAAAAGUGCCAAAAAAGAAAACUUGGUAAAAAAAUUAAAAAAGAUUUAAGCUUAAAAAAAUAAAAGAUAGCAAAAAGGGAAAAAGUUGCACUAUGGGCCUCCAAAACACAGCGCUAAAAGCAAAGUCCAAGCAAAGCGGAAAAAAAAAAUAAUGCGCAAAAAAAAGCUGAGAGUUAUAUCAAAGAUGUGUUGUUGCGAAAAAAAAAACCUUGCAGAAAAAAAACCUCAAAAGCUAGACAAAAAGAAAAAAAACAAAAGGUCUAGAAAUUUGAUGGUAUAUCAAAAAAAAGACCAGCCCCGAAAAGAAAAAAACAGGGUCAACUA'
p273
aF0.9285714285714286
aa(lp274
S'Mutated chicken feet'
p275
aS'GAAAAAAGCACGGACAAGGUAGGAAACCAAACGCCAGCAGCGGGAAACUAGAAAAUCAAAGCGAGACAGGAUUAAAAAAGAAAGGUAAGACGUAAAAAAA'
p276
aF0.86
aa(lp277
S'Chicken Tracks'
p278
aS'AAAAAAAAUCUUUCCCUAGGCAACUAGAGGAUCGAAAGAUCAAGCGCGAAAGCGCGGAAAGAAAGACGGCGAAGCGCCAGGGGCAAGGCUCAAUUCCAAGGGAAGUCAAAAAAAAA'
p279
aF1.0
aa(lp280
S'Looking Back Again'
p281
aS'UAGAAGACCAGCAAAAAGAUAUCAAAGAUAUCAGCUGAAGACCAGAAGACAAAGUCCUGACAGAGAAAGCGCGAAAGCGCGAAACUCUGGAGUCAAGUCAAGGAUGAGAAAAACAUACGAAAGUAUGAAAGAAUCCGAGACAACACAAGGUGUUGUUUCAAAGGAACGAUACCCGAUAUUUAAGUUUCUUUUGCGGGAAAUCGGUUACCUUCAUUCAUGCUGUAAUCAGAAGGUAUCAAAGUUUCAUCAGAAUACAUAUCAAAAAGGCGACUGAAAAAAAAGCGUAAAAAGCGCCAGUAAACGCAGAUGCCGUGAAAAAGCCGAUACGAAAGUAUCGAACAGCCAAAGGUUGUACAAAGUACAUACUGGCGAAAGCGGGGAUUAAACUG'
p282
aF0.9151670951156813
aa(lp283
S'Multilooping 6'
p284
aS'AGCGGGCGUCCAGGGGAAACCUUGGAGUCUAAUGUAUCGACCUAUUCUAUAAUUAGGAGUAUUAAAGAGUAAUAUGCCCGAA'
p285
aF0.975609756097561
aa(lp286
S'Cesspool'
p287
aS'GAAGCAGAAAACGAGUGAUUAGAGAGAAACACAACAAAAGCGCGAGUAGAAAGCGCCAGAUUAAACGUUCAGAAUUAAAAGAUCAGUCACUAUAUUAAAAGUGGAGUCUAGAGUGAAACGCACUAAAUUCUUAGUAUCGAAAGUUAAUAUUAAAAGAUGAGAAUGAGAACAAAGUGGAGCUGUAGGGAAAAAUAAGUUUGUACACAAGGCGAGGAAAUUCUCUUAUAAGAAAUGGUUGGUGGAAAUAAUUGAAAAGAAAUGAAAUGCAAACUUUAAUGAAAAAAGACGUGAUAUAGAAGCUGAACAACUACCCAGGAAGAAAACUCUAAUAUUAAAGGUUAGAAUGAGAACAGAUUGU'
p288
aF0.6843575418994413
aa(lp289
S'Hoglafractal'
p290
aS'AAGUGAGAUAUCAAAAAGGUUACAAAAAUGACCUGAUAGCGCAAAGCGCUAAAUGUGCGCGCGGGAAGAGUAAUCUCCCUAGACAAAGCUCAAAGCGAAAAAAAUCGCGCGCGGUAAGAGAAAAACUCGCCGGAGCAAAGGCUAAAUAGAAAACAGAAGUGAAAAAGUACUUGCCAGCAAAAAGCGGAAUAAAACUGAGACGGAAAAAGAAUCAAAAAGGAGCAGGGAAAACCUCGAAACCGAGUUAUGAAAAAAGAGAAAAGACUCCGGAAAACGAAGCGGUGACAAAGUCACCGAAAAAAACGUAGCAAAAAACUGUCAAAAACUAUGAAAUUUAAACACACGAAUGAGAGCGUAAAAGCGAAAGCCGAAAACGCAGUUCAAAGAACUGAGCGCCUAG'
p291
aF0.93
aa(lp292
S'Bullseye'
p293
aS'AAAGAGUUGAAAUUCAAAGGUGCAAUGCGUAAGAGCAAGGCUCCCCAAAAAAAGUACCAGCUAUCCAGAACGCUAAGGACGGACAGAUAUGUUCGUAAAAAAAAUGAAGAGACAGGUACAAGGACCAAGUCCAAGGUCUAUGACCCUCUAAAAAAGGACAAAGUAUUUCUAACUGCAAGCCAGGACGUCAAAACUGGUCAAA'
p294
aF0.8415841584158416
aa(lp295
S'Shooting Star'
p296
aS'AUGUGCCAUUCAUAUGGAAUCUUUUUUGGGCAGUCACCGAAAGAGGAACGCUAAAAUUUGUACCAUAUGAGCUGGUUGCUGGCCAGAUAUAGACAGACAGCCCAGGGAAAUACGGGACGUCGAUUUAAGUCAGAGAUCCUUUCGAAAGCCCAGCGCAACUGAGAAGCUCAGACGGAGAAACUCUGCAGUAAUCAGAUUGCAGAUGAGACCACCUGACGUAUAUAGGAACUAUAUGAGAGACUAUGUCUCCAGGUAUCGGCAAAGCUGAUGAGAUGCGAAGCAUCGGGCCGGUAAUUAAUCAAUUAAGGAAAAAGAGAGCGCAGGUAAAGACACGACUUCAUGGAGUCAGUUCACCGAGCAUAUA'
p297
aF0.8791208791208791
aa(lp298
S'Teslagon'
p299
aS'AAAAAAGGAAAAAAAUGUGGAAAAAAAGCACGAAAAAAAAAAAAAAACGACAGAAUUGAUGAAAAAAAAAAAAAAGAAGCAAAAAAACCCGCAAAAAAAGGAAAAAAAAAAAAAAACCAAAAAAAGCUAUAAAAAAAAAAAGUAAAAAAAAAAAAAUCUAAAGAAUCUGCUAAAAAAAAAAAAAAGUAUCGAAAAAAGGUUGAAAAAAAGUAAAAAAAAAAAAAAAGCAAAAAAACAUGGUAAAAAAGUACUUAAAAAAAAAAAAAUGGUAACAAUCUCCAAAAAAAAAAAAAAAGGACUAAAAAAUUUUCGAAAAAAACCAAAAAAAAAAAUGGAAAAAAAAAAAAAAACUUGCAAAAAAACCACGAAAAAAGCUGAAAAA'
p300
aF0.9057591623036649
aa.