(lp0
(lp1
S'Simple Hairpin'
p2
aS'GAUACAAAAAAGUAUC'
p3
aF1.0
aa(lp4
S'Arabidopsis Thaliana 6 RNA - Difficulty Level 0'
p5
aS'GCAUAUCAAAACGUAAAAAAAAAAAACGGCACUGACUAGCACUCAUAUCUAAAUCUCAAAGAUACAAAAAAGUAUCAGAGAUUAUAGAUAUGAGUGCGUGUCAGUGCAAGAUAUGC'
p6
aF1.0
aa(lp7
S'Prion Pseudoknot - Difficulty Level 0'
p8
aS'GAUAUCAGAUCAAAAGAUCGAUAAUCAAAAAAAAAA'
p9
aF1.0
aa(lp10
S'Human Integrated Adenovirus - Difficulty Level 0'
p11
aS'GCACAGCUUUUAAAGGCUACUGAAAAAAAAAUGGCCUAUCCAACCAAACGGGAUGCCAAAAGUCAUGUGAUUUCAAAAAAAGGAAAUUGCAUUAAAGACGUCGUAAAAUGUGCUUAAAGGGUGAACGUAACGUAAAAAUCGUUGCGGCUUAAAAAAAAAAAGGUAGCAUUUAUCAAAAAGCUAACGUGCAAA'
p12
aF0.9895833333333334
aa(lp13
S'The Gammaretrovirus Signal - Difficulty Level 0'
p14
aS'AAGGCUUGGUAUGAAAGCAUAUCUUGACAAAAAUGAUCAAGAGAGAGGCUAUGAAAACAUAGAAAACCUCCUCGAUCUGGUACCGACGAAAGUCGGUGCAA'
p15
aF1.0
aa(lp16
S'Saccharomyces Cerevisiae - Difficulty Level 0'
p17
aS'GUUUAAGCUAGAAAAAAAACUAGGGGGAAAAAAAAAAAAAACCAACAGAUAAGAAAAAAUUAUCCUUAGACAAAAGCAUUUGAAGAUCUAAAAAAUGAUCCCCGAAAAAAAAAAAAGGGAAAAGAUUCGAAAAAAGAAUCCAAAUGCGAAAGCAUGGCUAGGACGAAAAAAAGUCCCAUAUCGAAAAAAGAUAUGAGAAGAUACUAAAAAUGUAUCGUCAUGCGAAAGCAUGCCAACAGCAAAAAAAGGCUGCAUAUCUAAAAAUGAUAUGUAAAGGUUCGAAAAAAGGACCGGCAUGCAAAAGCUCGUCAACAUCUAAAAAAUGGUGGUUAAUUAAAAAUAUUAACAAAAGAUACAAAAAAAGUAUCGACGAGCGAAA'
p18
aF1.0
aa(lp19
S'Fractal 2'
p20
aS'AAAAAACUCUGACAAAUUAUUGGUACAAGAUUGAAAAAAAAAAAUCGGGUUCAAAAAAAAAAGAACAAGCUCGAAAAAAAAAGAGCAAGUAUCAGUAAAAAGCUCUGGUACUAUAUCGAAAAAAAAAGAUGAGGUGCAAAAAAAAAGGCGCAUGAAUGAAAAAAAAAAUUCUUGUAUUAGGGUAAAGCAGUGUUCCAAACGGAAAAAAAAAACUGUAAGAUAGAAAAAAAAAUGUCAAGGCCAAAAAAAAAAGGUCAGGGAGCAUUGUAAGGUCAGGGUAAAAA'
p21
aF1.0
aa(lp22
S'G-C Placement'
p23
aS'GAUCAAAGAUCA'
p24
aF1.0
aa(lp25
S'The Sun'
p26
aS'GAGAGCAUAUCAAGGAUAAAUGCCUCAAUGCCAGCUAACCAAAGGUAAAAGCGGCUAGGUCAGCUGUUUGAAAAACACAGCGACAAUCUCAGGCCAUCGAAGAUGACGCAAAGUAUCUCAGUAGACCGAAGGCUAAUGCGAGUAACUAAACAUUUCAAGAAGGAAUGUGAGAAUCUCAGGUCCCUGAAGGGGUAACCGAGCAACUAAAUUCAGGUAUGAUGAAUCCGAGGAACUCAGCCGAUCAAAGAUCAAGGCGAG'
p27
aF0.8837209302325582
aa(lp28
S'Frog Foot'
p29
aS'AAAAAAAAAACAUCAAAAGAUGGCUCUAAUGAGCGACCAAAGGUC'
p30
aF1.0
aa(lp31
S'InfoRNA test 16'
p32
aS'UCUUGCGCACAUAUCAAAGGGUAUAGUAGAGCGAGA'
p33
aF1.0
aa(lp34
S'Mat - Martian 2'
p35
aS'GAUCAAAAGAUCAAGGCAUAUCAAGCAUAUCAAAAAAAGAUAUGCGAUAUGCAAAGCACUGACAAAAAAGCAUGUCAGCAUAUCAAAAAAAGAUAUGCGAUAUGCGAAGCACUGACAUAUACGAAAAAAGUAUAUGAUCAGUGCAAAAAAGUCAGUGCAAAGCACUGAUAUUUACUAAAAAUGUAAAUAAAUCAGUGCAAACUAGAAAACUAG'
p36
aF1.0
aa(lp37
S'square'
p38
aS'GCACUGCCACAUCCACAUACCAUGUCAAAGACAUGAAAAGUAUGUGAAAAGAUGUGAAAAGCAGUGC'
p39
aF1.0
aa(lp40
S'Six legd turtle 2'
p41
aS'AAAAGCUAAAUUAAAAAAAAACGGAAACGAAAGGAAAAUCAAUCCAAAAGUAAAUCAAAAAUAAUAGUAAUUUUAGGGAAAAAAAAAAAAAAAAAAAA'
p42
aF0.9183673469387755
aa(lp43
S'Small and Easy 6'
p44
aS'GGCAUUAAAUACAAUAGAAAAAAAAGGGCU'
p45
aF0.8666666666666667
aa(lp46
S'Fractile'
p47
aS'AAAAAAAAAAAAGCAAAAGCAAAGCAAAGGAAAACCAACCAGAGCAAAAGCAAAGGAAGCAAAAGCAAAGCAAGUGAAAACGAAAAAAAAAAAAAAAAAAAAAAA'
p48
aF1.0
aa(lp49
S'Six legd Turtle'
p50
aS'AAAAAACAAAAGGAAAACUAAAAUAAAAGUGAAAUUUUAAUUAUAAAUUAAAAAGAAAACUAAAGAGAAAGACAAAGUGAAAAGUAAAAAAAAAAAAAAAAAAAA'
p51
aF0.9238095238095239
aa(lp52
S'snoRNA SNORD64'
p53
aS'GCUAUGAAAAAGAGAAAAGAGAAAGAUACAAAAAAAAAAAAAGUAUCAAAACUCAACUCAACAUAGC'
p54
aF1.0
aa(lp55
S'Chalk Outline'
p56
aS'AAAAAGAUCAGCUACAAAAGUAAGCAGAGAGAGAAAACUCCUCAUCUACGGAAACGAUAGGAGGCACAAAAGUGACCGAUCGAAAAAAAAAAAAAAAAAAAAAA'
p57
aF1.0
aa(lp58
S'InfoRNA bulge test 9'
p59
aS'GCAUAUCAGAGAGAGCAUAUCAAAAGAUAUGCCCCGAUAUGC'
p60
aF1.0
aa(lp61
S'Tilted Russian Cross'
p62
aS'AAAAAGAACGGACGAAAGUCCCACCAGAUCAAAAGAUCGUUACUAAUGUAGCAGAGCUAAUGUUCGGUGCAUCGAAAGAUGGUUCAAAAAAAAAAAAAAAAAAAA'
p63
aF1.0
aa(lp64
S'This is ACTUALLY Small And Easy 6'
p65
aS'AAAAAAAAAAAAAAAAAAAAAAAAAAAAAAAAAAAAAAAAAAAAAAAAAAAAAAAAAAAAAAAAAAAAAAAAAAAAAAAAAAAAAAAAAAAAAAAAAAAAAAAAAAAAAAAAAAAAAAAAAAAAAAAAAAAAAAAAAAAAAAAAAAAAAAAAAAAAAAAAAAAAAAAAAAAAAAAAAAAAAAAAAAAAAAAAAAAAAAAAAAAAAAAAAAAAAAAAAAAAAAAAAAAAAAAAAAAAAAAAAAAAAAAAAAAAAAAAAAAAAAAAAAAAAAAAAAAAAAAAAAAAAAAAAAAAAAAAAAAAAAAAAAAAAAAAAAAAAAAAAAAAAAAAAAAAAAAAAAAAAAAAAAAAAAAAAAAAAAAAAAAAAAAAAAAAAAAAAAAAAAAAAAAAAAAAAAAAAAAA'
p66
aF1.0
aa(lp67
S'Shortie 4'
p68
aS'GGAAAACCAGCGAAAGC'
p69
aF1.0
aa(lp70
S'Shape Test'
p71
aS'AAAAAGUGUUCGAGAUAAUAAAAAAUUUAUCAAGAGAGUGGGAUACAAAAAGUAUCAGAGGAAAGUUUCGCACCUCAAGAGCUCAAAAAAAAAAAAAAAAAAAA'
p72
aF1.0
aa(lp73
S'The Minitsry'
p74
aS'GGCAAAAGGAGAAAAAGAGGAAAACGGAAAAAGUGGAAAAAAACGCACCGACUCGCUCAGCU'
p75
aF1.0
aa(lp76
S'stickshift'
p77
aS'AAGCAUACCCAAAAAGGAGUAUGCAA'
p78
aF1.0
aa(lp79
S'U'
p80
aS'AAAAAGAUACAGAGAGCAGAGCACUGAUCAAAAGAUCGGUGCCGCCCGUAUCAAAAA'
p81
aF1.0
aa(lp82
S'Still Life (Sunflower In A Vase)'
p83
aS'AAGUAUUAACCGAGUAAAUCUUGGAACGAUCAAAGAUCGAACUAUGGAAAACAUAGAACUAGAAAAUCUAAGACUAGCUAAAUGCUAGGAGUACGAAAAGCGUAGGGCACUGGUAUAUGUAUAUAUAUUGAUCGUAAAAUCGAUCAGACACAAAAAAAAAAAAUGAUCAAAAAAAAAAAAAAAAAAAAAAAAAAAAAAAAAAAAAACCCGAUCUAAAAAAAAAAAGGUGUCGAAUCAAAAGAUUCAGAUAUAUAUACAUAUACCAGUGCAUCAUACAAAACGUAUGUAUUGGGAAAAGUCCAGAACAUUCAAAAAGAUUCGACGAGGAAAGGUUUUGGAUGGCGGAAACGCCAAAGUGUGAAAAGCAUACAAGAGAGA'
p84
aF0.9735449735449735
aa(lp85
S'Quasispecies 2-2 Loop Challenge'
p86
aS'AAAAAGGUGUGUGAGGUUGAAACUGACAGCAUAGGGUGUACAAAUCUUAUCCGACCUUCGCAAGAAAGGCAUAAGUGGUUCCACCGAAAAAAAAAAAAAAAAAAA'
p87
aF0.9809523809523809
aa(lp88
S'Corner bulge training'
p89
aS'AGCUAUCGAUACAAAGUAUCAAAAGAUAGCA'
p90
aF1.0
aa(lp91
S'Spiral'
p92
aS'AAAAAGAUCAGCUAUCAGAGAGAUACAGAUCAGAUCAGCAGCAGCAGCAGCAGCAAAAAGCGCGCGCGCGCGAUCGAUCGUAUCCUCGAUAGCGAUCAAAAA'
p93
aF1.0
aa(lp94
S'InfoRNA bulge test'
p95
aS'AAAAAAAAAAAAAAAAAAAAAAAAAAAAUGGAGGAAAAACUCUAAAAUCGGAAACUACCUGCCGAUUUCUCAAUGAUAAGCGUGCUCGUAGUGAGUCAGGGAAAAAGGAGGAAAAACUAGCU'
p96
aF0.9836065573770492
aa(lp97
S'Worm 1'
p98
aS'AAAAAAACGUGGAGGAAGCACGACGAAAGGUGGGCAUACGGAAAG'
p99
aF0.9555555555555556
aa(lp100
S'just down to 1 bulge'
p101
aS'AAAAAGACCAGAUACAAAAGUAUCAGAGAAAACUCAGGAUCAAAAGCUGAGAGAAAACUCAUUGAAAACAAAUAGCAAAAAAAAAAAAAAAAAAAA'
p102
aF1.0
aa(lp103
S'Iron Cross'
p104
aS'AGACAGAGAAAGAGAGUCAAAGACAGGGAAAACCCACUCGAAGAGAAUCGAAAGAUAGAGAAACUCACUCGAAGCGACUCGAAAGGGAGAGAAACUCACGCGAACUCACUCAAAGAGAGUCAA'
p105
aF1.0
aa(lp106
S'loops and stems'
p107
aS'AAAAAGCAUAUCGAAGAUCAAAGAUCAAAGUUGAAAAAAAAAGAUAUGAAAAAAAAAAAAUAUCAAGCGACAAAAUAUCAAAAAAAAAAGGUAGAGGAUCAAGGAGAAAAAAAACUCAAAGAUCAAGCAAAAAAGCGAAGAUGUGCAAAAA'
p108
aF1.0
aa(lp109
S'Water Strider'
p110
aS'AAAAGGCGCUAUACGUGAGUGGAAACACGGGGAAACUCUUCUAAAACUCUCCGAAAGGAACCUAAUGGUAGCGGCUGGGAGCAAAAAAAAAAAAAAAAAAAAA'
p111
aF0.941747572815534
aa(lp112
S'The Turtle(s) Move(s)'
p113
aS'AAAUUAAAAGGAAAAUUAUUGAUCUAAAAAAAUGAUCGAUGAAAAAGAUCAAAAAGAUCAAAAACCCAAAAGGGGAACUAUGGAAAAAACAUAGAAAACACCAAGAAAAAUUAAAAACUCAAAAGAGAAAGGCAUGGUAAAAAUCCAUGCAAAAGGGAAAAAGCAAAAACAUAUUGAAAGACAAAAAAAGUCAACGUAAAAAAAGACGGAACUUUGUAAAAUCAAAGGAAGUAGAAAAACUACAAAGUAUGAAAAAAAAAGCAAAAGCAAAAACCUAAGCAAAAAAAAUUGCAAAAAAAAAAGCAAUAAAAAAGUG'
p114
aF0.9873417721518988
aa(lp115
S'Adenine'
p116
aS'GAUACAGCUAUGAGCUAUGAGCUAUGAGCUAUGAGCUAUGAAAAGCUAUGAAAAAACAUAGCACAUAGCAGAUACAAAGCAUAUCAAAGAUAUGCGUAUCACAUAGCAGCACUGAUAUACAAAGUAUAUCAAAGGUGCACAUAGCAAAACAUAGCAAAACAUAGCAAAAGUAUC'
p117
aF1.0
aa(lp118
S'Tripod5'
p119
aS'AAGAUGUAACGAAAAGUUACCCCGAAAAGGGGCAUCGA'
p120
aF1.0
aa(lp121
S'Shortie 6'
p122
aS'GCGAAAGCACCGAAAGGAGCAAAGGCGGCGAAAGC'
p123
aF1.0
aa(lp124
S'Runner'
p125
aS'AAAAAUAUCAGACCAAAAAGAUUAAAGAUCAGGUCAAAGCGGAGGGACGAAACGUAAACCCGCCGGCAAAGCUAAAGGCACGCAAAGAGAAAGAGAAAGCUCACUCAGAUAAAAAA'
p126
aF1.0
aa(lp127
S'Recoil'
p128
aS'AAAAAGAUACAAGCAAGCAAGAGAAGAGAAGCAAGCAAAGCAGCACUCACUCAGCAGCAGUAUCAAAAAAAAAAAAAAAAAAAAA'
p129
aF1.0
aa(lp130
S'[CloudBeta] An Arm and a Leg 1.0'
p131
aS'AAAAUGCGGGGCACUAAGGUAGCCGACAGCAAAAGCGUCACGCUAAAAAAAAAAAAAAAAAAA'
p132
aF1.0
aa(lp133
S'[CloudBeta] 5 Adjacent Stack Multi-Branch Loop'
p134
aS'GUUAGCACCUAAUGGUGGCUACUAAUGUAGCGCGGGUAAUCUCGCGAGCUAAUGCUCCUAACA'
p135
aF1.0
aa(lp136
S'Triple Y'
p137
aS'AAAAUUAGAGAUCUAUUGAAAAUUCUUGCAAAGGUAGGAUCGGUCGGUUGAAAGAUCGUUGUAAUUAGCGACCUUUCUAAAAAAAAAAAAAAAAAAA'
p138
aF0.9175257731958762
aa(lp139
S'Misfolded Aptamer'
p140
aS'GAUGUAAAAACCGAGAAACUCAGCAAAAGCAAAAAAAAAGGAAAAUCAUC'
p141
aF1.0
aa(lp142
S'Flower power'
p143
aS'AAAAAGUGCGUUCAUGGAACAGCCCGCUUAAGGGGCAAUUAGUAUCUAGAUGUAGAAGCUACGGGCGGCUCAAAGCGCGCGUGAAAAAAAAAAAAAAAAAAA'
p144
aF0.9019607843137255
aa(lp145
S'Kudzu'
p146
aS'AAAAUGAGUAAACUGUAGCAUGCGAAGAAAGAUGAUAGGGCUAGGAAAUCAUAGCAGUACGAAAUAAAAUACUAAAUCGGCUAAAAAAAAAAAAAAAAAAA'
p147
aF0.9801980198019802
aa(lp148
S'"1,2,3and4bulges"'
p149
aS'AAAAGGCCCGGACAUGAAAAUAAAAAUGAAAGUAAUCUUAGGAGCAAAACAUCGGGUUAAUGAAAGCAUAAAAAGUUGAGGAAUGAAAAAAAAAAAAAAAAAAAA'
p150
aF0.9428571428571428
aa(lp151
S'medallion'
p152
aS'GCUAGGACAUAACAAAGGUUAUGAGAGAAAACUCAGUAAAAAUACGGCUGAGAAAACUCAGCUGAUAAAAGUCUGGUUAGGAAACUAAUCUGAGAAAAAUUUGUGAAAAAUUAGCUGCGAAAGUGCAGCACAGAAAACGCAGCCUUGAAAACGGCGCAGAGGAAACUUAGAAGAAAUUCAGCUAUGAAAACAUAGCGGAGAAAACGUAGCAAUGAAAACAUUGCAGGUGAAAGUCAGAGAAAACUCGUGUAGGAAAACCUAUUAUAGAAAAGCGAGGUUGGAAAACAAACCAGGGGAAACUCAGAUAAAGAUCAGCUAUAAAAAUAAAGUGCUUAGC'
p153
aF0.8991097922848664
aa(lp154
S'[RNA] Repetitious Sequences 8/10'
p155
aS'AGCAAAAAAGCAAAAAAGCAAAAAAGCAAAAAAGCAAAAAAGCAAAAAAGCAAAAAAGCAAAAAAGCAAAAAAGCAAAAA'
p156
aF1.0
aa(lp157
S'Documenting repetitious behavior'
p158
aS'AAAAAAAGUAAAAAAAAAGCUAAAAAAAGGCGAAAAAAAAGCAAAAAAAAAGCAAAAAAAAAGGAAAAAAAAAUCAAAAAAAAAGCUAAAAAAAAGUAAAAAAAAAAAAAAAAAAAAGCAAAAAAAAUGCAAAAAAAAAACAAAAAAAAAGCAAAAAAAAAGCAAAAAAAAAUCAAAAAAAAAGUAAAAAAAAAAGAAAAAAAAACUAAAAAAAAAGCAAAAAAAAAGGAAAAAAAAACCAAAAAAAAAGCAAAAAAAAAACAAAAAAAAGUCUAAAAAAAACCAAAAAAAAAUUAAAAAAAAAGAAAAAAAAAUGCAAAAAAAAAGGAAAAAAAAAUCAAAAAAAAGGCAAAAAAAAAGGAAAAAAAAAGCAAAAAAAAUGUAAAAAAAAAACAAAAAA'
p159
aF0.945
aa(lp160
S'7 multiloop'
p161
aS'GCUCGAUACAAACGUAUCGUAUGGAAACAUACGUGUGGAAACAUACCUGUGGAAACACAGCGAUGAAAACAUCGCUAUGGAAACAUAGGAGC'
p162
aF1.0
aa(lp163
S'Kyurem 7'
p164
aS'AAAAGGAUUAGCGAGGAAAGUCCAGAAAACAGGGUAUGAAAAGAAAACCCUCAAAAAAGAAAAAGGUGGUGCUGGCUAGAUCAAAAAAAAAAAAAAAAAAAA'
p165
aF0.9411764705882353
aa(lp166
S'JF1'
p167
aS'GCAGUGAUAAAACUAUGAAGAUAUAAAAGCUAUGAAGAUAAUAAGAUACCUGCUAUGGCACAUAUAUAUAUCAAAAGAUAUAUAUAUGUGAAGAGAAAACUCGCACAUAUACAAAAGUGUAUGUGAACUAUGAAAGCAUAGACAUAGCUGUAUCCUUAUCGCAUAGCGAAGCACCGACAAAAAGUCAGGUGCAAGCUCUGAUAUAUAUAUAUAUAUACAAAAGUAUAUAUAUAUAUAAUAUCAGAGCGAAACUAGGAAAAACUAGUCACAUAUAUCAAAAGAUAUAUGUGGAACUAUAAAAAUAGAAAUAUCAGCAUAGGGAUCAGAGAUAGGAAACUACUCGAUCUGCCCGUAUCAAAAGAUGCUGGGCAUUUGCUCGUCUGCAAA'
p168
aF1.0
aa(lp169
S'multilooping fun'
p170
aS'GGGGUAGAACAAAUAAGAAAUGUGUAAUUAAAAAGU'
p171
aF0.8333333333333334
aa(lp172
S'Multiloop...'
p173
aS'AAUCAGAUCUGCGAAAACGCUAUGAAAAAGUUGACUAAACACUGACAAAAGUACGAUUAAAGGCAGUUAAAAAUCGGAUCAGGUACUAAAAUGUACCUAGAAAGCUUGAUU'
p174
aF0.8918918918918919
aa(lp175
S'hard Y'
p176
aS'AAAAAGAUCGUGUCUGUUACGAAAGUAACAGUAGUGUACACAGACUAAUGUUUGUGUACGAUCGAAAA'
p177
aF0.9705882352941176
aa(lp178
S'Mat - Elements & Sections'
p179
aS'AAAAGGGUCAGAAGGUGAUAUGGUAAGAUGUUCUUCUUAGCGAAAAUGCAGAAGAAUCCCUUUUUAAACUCGUUUCAGGUUGAUCAAAAAAAAAAAAAAAAAAAA'
p180
aF0.9809523809523809
aa(lp181
S'Chicken feet'
p182
aS'AAAACUGAACGUGGAACAAGUAAGACAAAGUAGGGUAUAUGCAAACUGGCUAUGGAAUAAGCAAAAA'
p183
aF0.8805970149253731
aa(lp184
S'Bug 18'
p185
aS'UGAUGGGGUAGCACAAAACAACCGAAGGGAUGGCUAACUGCAAAUGAUAUCCU'
p186
aF0.9622641509433962
aa(lp187
S'Fractal star x5'
p188
aS'AAAAUCGAAUGUCUAGAGCUAAUGCUCGAGUUGGAAACAGCAACGAUAAAAGUCGGAAGAAGAAAUUCUAUGACAUUCGUAAAAUACAGAUGAAAAUCGAAAGAUUAACUAGAAAACUAGAACGAGAAAACUCGAAGCAGAAAGCUGCAACAUUUGUGAAAAACACAUAUCUAGUUCAAAAGAAUAACCAGAAAACUGGAUCACUAAAAAGUGUACUGGAAAACCAGGUGAUAUGUGGAAAGGACGUAUGAAGAUCAAAGGAUCAACUAGUAAUCUAGAGGUAGUAAUCUACAAUUGAUAAUUCAAAACAUACGUCAAAAAUGCAGAUCGAGAUCAAAAGAUCGACUGGUAAUCCAGGACUUGGAAACAGGAACUAUAAAGAUAGAAGAUCUGCAGAAAA'
p189
aF1.0
aa(lp190
S'Crop circle 2'
p191
aS'UUAAGCAGAAGUGAAAAACUAAAAAAAAAGCAAAAAAAAAAAAAAAAAAAAAAAAAAAAAGGCAAAAAAAAAAAAAAAGGAAAAAAAAACGAAAAAAAGAAAAGGAAAAA'
p192
aF0.9636363636363636
aa(lp193
S'Branching Loop'
p194
aS'GGACUCUAAAAAAUUUUCGUAAUCGCGACGAUCAAAAAAA'
p195
aF0.95
aa(lp196
S'Bug 38'
p197
aS'AGAAUUGGGAACCUGAAAUUGGAUCAAGGUAAGUUA'
p198
aF0.9444444444444444
aa(lp199
S'Simple Single Bond'
p200
aS'AAAAAAGGAAAAAAAUAACCUAAAUGGUUUAAAAAAAACAAAAAAAAAAAAAAAAAAAAAA'
p201
aF1.0
aa(lp202
S'Taraxacum officinale'
p203
aS'GAACGAAAGAUUCACUCUUAAUGAGAGCCAAUAAAAAAUAGUUGACUAAUUAACAUCGAGGAAACAUCGACGGAAAAGGACCGAGCAGUGACAUCGCUCUGAUAUCAAAGAUGUUCGGAGCUGAUACAAGGACUGGGUCUAUCAUAUAAAAUAUGUGGUGGCUCAGUUCGUUCAGCUAUCAAAGAUAGCGAGCGUAUCUAAGAUGUCGCUGCGAGUGGAUAGAACUACUGCAAAGGACGGACGUGGAAACAAAGACAACGAAAGAUGGAUAAGAAAACAUAA'
p204
aF0.9113475177304965
aa(lp205
S'Headless Bug on Windshield'
p206
aS'AGCAGGAAAAAGCUACGGUCCAGCAUAAAAAAAAAAAAAAAAAAAAAAAUUUGAGGUAUGUGAACAAAUCCGCAGAGGACCGAAGCGAAAAAAGCAAAAGCGAAAAAAGCCGGGAAAAACUAUUUUUCGAAAAAAGAGAAGCAAGAAAAGUAGUGAAAAAAAAAAAAAAAAGCAAACAACUCAAGCAAGCAAAAUAAACU'
p207
aF0.98
aa(lp208
S'Pokeball'
p209
aS'AAAAGGGUUAAAAACCGAGUAUGAGAAGCAAGUAAGUAAGCAACCGUGCAAGGUUGGAAGGAGGCCCAAGCACACUGCAGGUAGUUCUGAAAAAAAGCUCGUAAAAAGCAGACCAUUGGAACAACCGGUCAUGUAAUCAACCAAGCUGGGAAGGUACCGUAAGAAAGGGCCAACUACGGGCAAA'
p210
aF0.9130434782608695
aa(lp211
S'Variation of a crop circle'
p212
aS'AAAAGGAAAAGCAAAGACAAAAAUAAGGAAGAAAAUCGAUCAAAGAAAAAAAAGUAAAAAAAGUAAAAAAAAAGCGAAAAAAAAAAAA'
p213
aF0.9545454545454546
aa(lp214
S'Loop next to a Multiloop'
p215
aS'AUGCACUGAUUAAAAAACGGCGAUGAAAGCAUCGCGGCAUAUUGAAAGAUAUGCUGGAAAAAUGUCAGUGCUA'
p216
aF1.0
aa(lp217
S'Snowflake 4'
p218
aS'GAUUUAUGAUCCUAUGCUAAAAGGCCCGCUAGAUACGCGAAAGCCUAUGGGCGAAAUGCCAACUAGAAGCUAGCAUUGACAAAAGUUUAAGGAGCUAUCCAAAAGGCAUACGUUGAAGCAACAACUAGAAACUAGGUAUGCCAAAAGGAUAGCAAAUUACAGAAAACUUAAAGCCACAAAGUGGGACUAGAAACUAGGUUUUCCAAAGGGGUAGCAUGAUACCCAAAAGGCAUACGUUUAAAAGAUAACUAGCAACUAGGUCUGCCAAAAGGGUAUCUAGUUAUGCAAAAGCCUAUGGAGUUAUAUUUAACUGGAAGCCAGCAUACCCAAAAGGGUAUCAUGUGAAGUGAAAACCAUAGGCAUAAAGUGC'
p219
aF0.7972972972972973
aa(lp220
S'Mat - Cuboid'
p221
aS'GAAGCAAAAGCAAUCAAAAGGAAGCAAAAGAAGCAAGAAAAAACAAUCGAGGAAAGGAAGCUAGCGAUCAAAAUCAACCAAGCAAGCAAAAGCAAGAAAGCAAGCAAACAAAAGCGAGAAAACGACCAAGCAAAAAUAAGCAAGCAAGCAAGAAAGCAAAAGUAAUCAAGGAACCAAGCAACCAAAAGGAGGCAAUCAAUUAAACAAUCAAAAAAGGAAGCAAGAAAGAAAGCAACUGCAAGCAAGCAAUCAAGAAAGCGCAACCAAGCAAGCAAGCAAGUGCAAGCAAGUAAGCAAGCGCGAGCAACCAAGCAAGCGCAAGCAAGGAAGGGGAAGCAUGCGACGCAUGAAAGGUCAAGCAACGCAAGCGAAAGCGCAAC'
p222
aF0.8473684210526315
aa(lp223
S'Misfolded Aptamer 6'
p224
aS'AAAAAAGAGAAAAAAGAUCAGGAAAAGAGAAAAAAAACUCAAAGCAAAAAGAUCAAAAAAACUCGAAAAAAAAAA'
p225
aF1.0
aa(lp226
S'Snowflake 3'
p227
aS'GAGGCAAAAGCAGAAUGAAAAAGUGAAUGUCAUAUCAAGAUUAAUAUCCUCAGCAAAAGCUCCAAGGGAGCAAAAGCAUAACUAAAAAGAGAAGAUCGCUAGAAGAGAAAACUCGUCAGCAAAAACUUCAAAGAGGAAAAAACAGACCUCAAAAGAAAGCUACAGAUCAAGAGAAAACUCCUCAGCAAAAGCCGCAAAGAGCCAAAAGUGGAGCACAAAAGUGAAGAUCGUUAGAAGAGAAAACUCCUCAUCAAAAGGUGUAAGAUGCCAAAGGGAGAGCUCAAAAGAGAACUCGAGAUCAAGGGAAAACUCGUCCGAAAAAGCCUCGAAGAGGCAAAAGCACAUGCAUAACGACAAGAUCAGAUGAAGAGGAAACUCCUCAGCAAAACAAUC'
p228
aF0.7811704834605598
aa(lp229
S'Hard Y and a bit more'
p230
aS'AAAAUGAUACGGUGAUGCAAAGGUAUACUCGCUUCGUCAAGCUCAAAAGAGCAAGAUUCAAAAAGGAAUCAAGCAGAAGCGUAUCUAAAAAAAAAAAAAAAAAAAA'
p231
aF0.9716981132075472
aa(lp232
S'Mat - Lot 2-2 B'
p233
aS'GAAUCUAGGGUGUUGAAAAAGGAAAAGAAAAAGCAAAUUUGAUCGCUUCAAAAAUCAGACCCAAGCAAGCGAACGCUAGGAAAAGCAAACUCAGGCAAAAGCAAAAGAGCAGGGAAAAAUAAAUCCAUGCGCAAGCAAGCAAAAGCCGAAGAUCAAGCAAAAAGAAGUGAGAAAUUAAAAACAACUGCAACCAAAAUCAAUGGUGAGCAAGCAAGUACAAGCAAAAUCAAGCUAGAGAAAAAUGGAAAUAUCAAUAAAAAGCAAGGCCAAGUGUAAGGAAGAGC'
p234
aF0.8028169014084507
aa(lp235
S'Shapes and Energy'
p236
aS'AAAAAAGUUCGCAGUAGAAGAGAGGGGACAGGAAACGGUUCAAGCCUACAAUCAAAAACCGCCAAAAGGCGGAGGUGAUCAAAAAAAAAAAAAAAAAAAAA'
p237
aF0.9603960396039604
aa(lp238
S"Spiral of 5's"
p239
aS'UAAAAGAUACAAAGAUACAAAGAUAUAAAAGAUACAAAGAUACAAAGGUACUAGAUACAAAAGAUACAAUGAUACAAAGACACAAGAUCCAAAGAUACAAAGAUACAAGAUCCAAAGAUACAAGAUUCAAGAUACAAGAUACAAGAUCCAGAUUCGGCACUGAUACAAAAAGUAUCAAAAAGGUGCAAAAAGAAUCAAAAAGGAUCAAAAGGUAUCAAAAAGUAUCAAAAAGGAUCAAAAAGUAUCAAAAAGGAUCAAAAAGUAUCAAAAAGUAUCAAAAAGGAUCAAAAAGUGUCAAAAAGUAUCUAAAAGUAUCAAAAAGUAUCAAAAUGUACCAAAAAGUAUCAAAAAGUAUCAAAAAAUAUCAAAAAGUAUCAAAAAGUAUCAAAAAAAAAAA'
p240
aF0.9949622166246851
aa(lp241
S'Campfire'
p242
aS'AAAAGGUCAACAUACAAGAAUAAGAUCGAAAAGAUCGGCAUCGAAGAUAAUCGAUCGGUAUAAGUAGCAGUUAGAAAACUAAGCGCGCGAUACGGCACCACUAAAGACGGAGUAUAAGGGAAAGCCACUAAUAAAGUAAUUUAUAAUCGUAUCCCCAGAGAGAGAGGUAAAAAUGUCCUCCUCGCACUGACUAUCUCAAAAUACAGAGGAUC'
p243
aF0.910377358490566
aa(lp244
S'Anemone'
p245
aS'AAAGGAAAUAAAUAUUUCUGAGACGAAAGUCUCGGUAUGUAAUCGUACCGGUCUAAAAGGACCGUGAUGGAAACAUCGCGGCACGAAAGUGCCCAUACGAAAGUGUGGCUAGUAAAUGCUAGCAGCAUUAACAGAUGCCCGUUGGAAACAACGGCCGACAAAGGUUGGGGGUUCAAAGGAACUCGCACCGAAAGGUGCGCCAUCGAAAGAUGGC'
p246
aF1.0
aa(lp247
S'Fractal 3'
p248
aS'AAAAAAAUUUCUCAGCGAAACCGUAAAGAAAGAAUGGGAAUAAAGGCUAGAAAUAGCCUGGAUAUCUAAUGGGUUAAUGCAGUGAGAGACGAAAAUGUAAAAAGAACUCAUAUUAAAAA'
p249
aF0.9243697478991597
aa(lp250
S'Kyurem 5'
p251
aS'AAAAUACUGGCCGAUUAAUGUCCACCAAAUAUCGCUCAAAGCGUAAAUCGUGGGGCAUGAAAAAGUGGGAUAGUGACUGAGGGUUAAAAAAAAAAAAAAAAAAA'
p252
aF0.9423076923076923
aa(lp253
S'Snowflake Necklace ( or v2.0 )'
p254
aS'GCACCGCGGUGUAUGAGUUUGUGCAAAAAGCUGAAAAAAUCUGGGAAAAGGAGUAAAAAGCAGCAAAAAGUACAAACGGUGAAAAACACAGGUACGUCAAAAAGAAACAAAAAGUAGCAAAAAGCAGCAAAAAGCGGAAAAAGGAAGUAUCUGAUAAAAAAUCUCAUUCUCGAAAAAACAUAGAAAAGAAGUAAAAACUAGCAAAAAGCAGCAAAAGGUUGAAUGAGCUAAAAAGUCAGAUAUAGCAAAAAGGGGGAAAAAUCAACGAAAAGGAGCUAAAUGCACCGAAAAGAAAUAUCAGAGAAAAACUCGGAGACAGGAAAAAACAGCAAAAAGCAGCAAAAAGCAACAAAAAGCACCAAAAAGGAGUCUCAUAUAUAUUGCGGUGC'
p255
aF0.8868894601542416
aa(lp256
S'Methaqualone C16H14N2O Structural Representation'
p257
aS'AAAAAAAGUCCAGUCCAGGUGGAGAAAACUCUGUGACGGGAAACAAAGAAGUAGUAAUCUAAGAGGUUCAAAAGAGAUCCAAAAAAGGAAAGACACUCACACUCCCAGAAACAGGACAGUAGAAAGCACUCAAAGCAAAGCAAAAAAAGAAGUGAUAGAGAAAACUCAUCAAAAGAGGUCGAAAGACAUCUGCAAAGAUCAGAAAUAGGGAAAGACUCAUAGGGAGAAAAGAGGAAACUCACUCACACAAAAGAGAUUAGAAGAAAACUUGGAGAGCCAAAGGGUAGCCAGCGAAGAAAACUUGGCUAAUGUCACUCGAAAGAGCGCACUCAGAUCAAACUACAGGGUAAAAAAA'
p258
aF0.8985915492957747
aa(lp259
S"Cat's Toy 2"
p260
aS'AAAGGCGUGUACAAAACUUAUAAAAAAAAAAAAAAAAAAAAAUACUACGAAAUGUCGAAGGAAAACGGAAAAAAUAAUAAAAUAGGUGCACGCAAAA'
p261
aF0.9381443298969072
aa(lp262
S'Zigzag Semicircle'
p263
aS'AAAGUGGAGACCGGAAAAAUAGAUAUAUCAAAAA'
p264
aF0.9411764705882353
aa(lp265
S'Short String 4'
p266
aS'AAAAAAUUAUCAAAGAAGUAUAAGCAUCAAAAGCGCACCUAGGAGCAAACAAAAGUAAGCAAUAACUGUUAAGCGAAAAAAAAAAAAAAAAAAAAAA'
p267
aF0.9381443298969072
aa(lp268
S'Gladius'
p269
aS'CGAAAGAUUAAGGGAAAGAAGUAAUGAAAACGAGUCAAAGAACAAAAGUUCAGAGACAUGAGGGAAGGGCCGAAGUGAUCCGGAGUAUUGUCAGCUACGAGAUAUAGCUGUAAUUAGAUACAAAGUAUAAAUAUCAGCCUUAUCCAGUAGCGAGCAAUACGAAAGAUCUACACGGCAACGGGCAAUAGUUUCAGACAAGGAGACUUCCAGAGGACUGAAAGCCGCAGGCUUAGAAGCAAAUAACGUGUCUGAGUCAGCGAUCAGGUAGCUCUGGAAACAGAGCGAGCCGAAUUGACGAUUAUGACAUAGUAUUUGCACUGGAGCAGAAGGCUACUUGUCACAGGGAAGGGAUUAAAAGAUCAAACUCACGUAGACAAAUAGAAAGACAAAAGUAUAAAAG'
p270
aF0.885
aa(lp271
S'Thunderbolt'
p272
aS'GCGAUAUACAAAAAAAAGAGCUAGCAGAAAAAGAAAACAGCGGUGUCAAAAAAAAAGGGAAAAUGAAUAAAAAGUUCUAAAAACCAAAGCAAGCAAAAAAAGAAGAAAAAACGACAAGCAAGAAAAAAGAAAACAAAGCAAAAAGUGAAAAAGAAUCAUAAUGAGAAACGAAAGCACAUAGGGGUGAAAAAAAGUAGUCCAAAGGUCAUCGAAAAAGUGAGGCUAAAAAAAAAGCUUGAAAAGCUAUCAAAGAUAGCAGCAAGCAAAAAAAAAAGGCGGUCAAAAAAAAAGUAUCGACAGCACAUCUAAAGGAAAAAAAACAAAAUGAUGUGAAGAUCAAGGGCGUCGCAAAAAAAACAGCAUGCAUAAAAAUAAAAAAAGAGUAUGAAGCA'
p273
aF0.9744897959183674
aa(lp274
S'Mutated chicken feet'
p275
aS'AAAAAAAGUAGCAGCAAAGCGACAAGGUAAAACACAGUAGCAGGAAUCCACCAAAGGAAAGCGCGUUCGUAUCUAUGAAACAAAACAAGGCGGGAAAAAA'
p276
aF0.88
aa(lp277
S'Chicken Tracks'
p278
aS'AAAAAAAAGCGUAUCGAACGAAAGUUUAGACUUUAAUGAGUAAUGUCAAAGGACAGAUACGCAAGUUCAUGUAGCAAGAUGCACAACGGGAUAAGUAAAUGGUAAACGAAAAAAAA'
p279
aF0.9827586206896551
aa(lp280
S'Looking Back Again'
p281
aS'GUGAAGACGCUUAAAAAGCUAUCAAAGAUAGCACAGCAAGACCUCAAGACAAAGUCGGGAGAUACAAUGAUCGAAAGAUCUAAAGAAUCAAGUCAAGUCAACCUCUAGAAAGGAGAAGAAAAUUUCAAAAAAACUGGAUAAGAUGUAAAAUAUCGUAGCAAAGCUACCACGUCCCAAGAUGAAGAGGAAGAAUAUCAAAAGAUAGACACAACCUACAGGGAGGAAACUCAAGACGUGAAAGAACCGUGCAGAUAGAGAUGAAAAAAGCAGCCAUCGAGAGUGAGCUAAAUGCUCUGGCAAAUGCAUAUCGUAGAAAAAGGGCCGUUCGAAAGAAUGGAAGACCCAAAGGAGAUAUAAAGUAUCAAGUCUUAAAACUACCUAUCAAGCUC'
p282
aF0.884318766066838
aa(lp283
S'Multilooping 6'
p284
aS'AUAGUCUGGUUCAGCUAUUCGUCGACUCCGAAAGGAGUACUUAAUGUCUAAAGGUGUAUACUCUAAUGAGUAUUGAGACCUA'
p285
aF0.926829268292683
aa(lp286
S'Cesspool'
p287
aS'GAAGAAGAAAACAACGCAAGAGGGAGAAAUUCAACAACAAGCGAAGGAGAAAACAACAGAAGAAAACAACAAAAAGAAAACAACAACAAAUAGAAGAAAACAACUCAAUAGCUGGAAACUCAACAAAAAGCGAAAAAGAAAACAAUAAAAGAAAACAAUAAAAAGAAAACACCAUCAUGAAAGAAGAAAACAACGCAUAACGGAGAAACUCGAGGACUAGGGAAGAAAAAAGUAACAAAAUGAAAAAAUAAAAAGAAAACACCAAGCUAGCAAGUAGAAAACAACUCAAGAGAGAAAAGCUCAACAACAAGAGAAGAAGAAAACAACACAAGGAAACAAGAAAAAGAAAACAUCAAAC'
p288
aF0.7737430167597765
aa(lp289
S'Hoglafractal'
p290
aS'AAGAGUAACUAUGAAAAUAGACAAAAAAGUUUGCAUAGGAUCAAAUAUUUAAAUAAUAGGCCCUCAACAGAAAACUGGAGAGAGCAAGAUUAAAGAUCUAAAAUGAUUAAUCUUCAAGAUAAAAAAUCGAGCCAGCAAAAGCGGAGUUCAAAAGAUAAGAGAAAAAACUCAUCCCAGCAAAAAGCGCUUCAAAAGGGAGAUACAAAAAGCAGCAAAAAAGCGCCUCAAAAAGGGGCAAAAGCAGCGAUGAAAAAACGGAAAAAACUGCAAAAAAUGGAACAUUGACAAAGUCAGUGAAAAAAACUUUGCGAAAAAGUAUCAAAAAGAGCGAAACUCAAAGCAACAGAGAGCAGUUCUAAACCAAAAGGCAAAAAGGCAUAUCUAUGAUAUGUGAUCGCAC'
p291
aF0.8775
aa(lp292
S'Bullseye'
p293
aS'AAGUGUAAUCAAACAUUAGAAUCAAAGAUGAAUAUCUAUGAUUGAGAAAAAAACAUAUUUCGAUAAGAAAUCUCAAGGGGAGAGUGCAAGACACGAUAAAAAAAAAACGUAAUAUUCAAAUAAUCGAACUUUUACGGCAAGGCUAAUUAAAAAAAACUCGAGUAAAACUCAUCGUGAAGUAUGUAAACGAAAGGUUGAGGAA'
p294
aF0.7871287128712872
aa(lp295
S'Shooting Star'
p296
aS'GCCUUGACUCGCCUUUCAAGGAGGAGGGGAGAUGGAUCAAAGGAGCCAACUCAUACAAUCAAGGAAGGCUUAUACAAGAGAGGCGAAGACAUUCACAUAGUUCACCAAAAGAGGAAACGUGGAAAUAGCUUAGACAGCCAAGAAAAAUAAUAUAGAUCCUAGAGAAUUUAGACUUUGAAAUAAAGGAGGAAACGCAAAUAAGAGUAUAUAAGUUCAAGUCGUUACAAAGUAACGAACGGUCAAGGAUCGGAACGGUGAUCAAAGAUCGCCACUAUUGAAGGUGGGAUCGAUCCAGAAAGCAAGGAAGAAGGGAGAGAGAUCAUCAAAAGAGGAUAUCUCGCAGCGACGCAGUGAUCACAGGGCA'
p297
aF0.8214285714285714
aa(lp298
S'Teslagon'
p299
aS'AAAAAAGCGAAAAAAGUCUGAAAAAAAGAAUUAAAAAAAAAAAAAAAGAGAAAAAAAAGCAAAAAAAAAAAAAAAGCGUCGUAAAAGCAUCCAAAAAAAGCAAAAAAAAAAAAAAAGCGAAAAAAGGAUCAAAAAAAGCAUUAAAAAAAAAAAAAAAAGAAAAAAAAAGCAAAAAAAAAAAAAAAGCAGCGAAAAAAGGUCCGAAAAAAUCAAAAAAAAAAAAAAAGGGAAAAAAGGAGCGAAAAAAAAAUAAAAAAAAAAAAAAAAUAAAAAAAAAAUCAAAAAAAAAAAAAAAGAAUCGAAAAAAGCAUCGAAAAAAGGGAAAAAAAAAAAGAGAAAAAAAAAAAAAAUCACCGAAACAAGAAGCGAAAAAAGCAAAAAA'
p300
aF0.9109947643979057
aa.