(lp0
(lp1
S'Simple Hairpin'
p2
aS'ACAGCAAAAAAGCUGU'
p3
aF1.0
aa(lp4
S'Arabidopsis Thaliana 6 RNA - Difficulty Level 0'
p5
aS'AUAUACCAAAUGACAAAAAAAAAAAGUCGAGAUAUCGGGAGAUAUACAGAUAUAGACAAAGAUACAAAAAAGUAUCAGUCUAUAAUCUGUAUAUCUCAAGAUAUCUCAAGGUAUAU'
p6
aF1.0
aa(lp7
S'Prion Pseudoknot - Difficulty Level 0'
p8
aS'GAUAUCAGAUCGAAAGAUCGAUAAUCAAAAAAAAAA'
p9
aF1.0
aa(lp10
S'Human Integrated Adenovirus - Difficulty Level 0'
p11
aS'UCUAUAGAUCGAGCUGAUCGUGAAAAAAAAAAGAGCCUGGGCCCAAUGUGUCAUACCAAAAGCGCUCUACCUUCUAAAAAAUGAAGGUGGAGAAAUCGCGGUAUCAAAGACGGGAAAUCCCAGAUACGUCUCGAAAAAAGAGACGGCUCGAAAAAAAAAAAACGAUCUGUUCAAAAGGUCUAAAAUAGAAAA'
p12
aF1.0
aa(lp13
S'The Gammaretrovirus Signal - Difficulty Level 0'
p14
aS'AGGGACUCAUAUCGAAAGAUAUGUAUGCAAAAAAGAUUAAGACAGAUGCGGGCAAAGGCCCGGAAACAUCGUCGAUCAGGAGAUAUCGAAAGAUAUCUCAA'
p15
aF1.0
aa(lp16
S'Saccharomyces Cerevisiae - Difficulty Level 0'
p17
aS'GUUACACUAACAAAAAAAGGUUGAUAUAAAAAAAAAAAAAUUAGAAUGUUUUAAAAAAGAGAACGUGUGACUAAGUAUGUGCAACAUGAAAAAAAACAUGAAGGAAAAAAAAAAAACUUAAAUCGUGGAAAAAAGUCGUGGCAUAUGAAAAGCGUUACAAGAUCAAAAAAAGGAUCCGGGGCGAAAAAAGCCCCGAAAAGAUACAAAAAAAGUAUCGUAGCUCAAAUUAUAUACAUGGCGUAAAAAAUCGUCAGUGGCGAAAAAAGCCACUAAUUGGGACAAAAAAGGUUCCGCAUCGCUAUCGACAACCCAGACCGAAAAAAAGAUCCGGCCCUAAAAAUGGGCCGAAAGGAGAAAAAAACGUUUUUGUACUACGAAA'
p18
aF0.9472295514511874
aa(lp19
S'Fractal 2'
p20
aS'AAAAAGAGAUAUCAAAGAGAUUUACGAAGACGAAAAAAAAAACGUCAAGAGCAAAAAAAAAAGCUCAAGAUCAAAAAAAAAAGAUCAAUGUAGAUUUCGAAGAGAUAUACCAAGGGCUAAAAAAAAUGCCCAAAGGCAAAAAAAAAGGCUUAAGAUCAAAAAAAAAAGAUCAAGGUAUAUCUCGAGGACAAAUACUAAUAGCUAAAAAAAAUGCUAAAGUGGAAAAAAAAAACCGCGAGAUCAAAAAAAAAGGAUCAAGGUAUUUGUCAAAGAUAUCUCAAAAA'
p21
aF1.0
aa(lp22
S'G-C Placement'
p23
aS'ACUCAAGGAGUG'
p24
aF1.0
aa(lp25
S'The Sun'
p26
aS'UGCACAGAUGCGAAGCAUAAUUGGUAAAAAACAGAGUAGCAAAGAUAAACUAGUUAAGGACAGACAUACAAAGUAUAACUCGCUAAGCCCACAGAACCAAGGUAUAACUGGGGAAAAUCACAGGUACAAAGCACAACUGGGGGAACAUGGGGGGAAGAAGGCUAACUCGUGAAGCGCAGAGACACGAAGUGUAACUCGCGAAGCACACGGUUAGAAACGCAAACUGGUGAAACACACAGAUAGGAACUAUAAAUGGUG'
p27
aF0.8953488372093024
aa(lp28
S'Frog Foot'
p29
aS'AAAAAAAAAAGACCGAAAGGUCGAUCUAAUGAUCGAGCGAAGCUC'
p30
aF1.0
aa(lp31
S'InfoRNA test 16'
p32
aS'CUUUACUCGGAUAGCGAAAGCUAUGUCAGUGUAAAG'
p33
aF1.0
aa(lp34
S'Mat - Martian 2'
p35
aS'GAUCGAAAGAUCAAAGAGAUACAAGAGAUACUAAAAAUGUAUCUCGUAUCUCAAAGAGAUAUCAAAAAUGAGAUACAGAGAUACAAAAAAAGUAUCUCGUAUCUCUAAGAGAUAUACAGAUCAAAAAAAGAUCUGUAAUAUCUCAAAAAAGAUAUCUCAAGGAGAUAUACAGAUCAAAAAAAGAUCUGUCAAUAUCUCAAAGAUCGAAAGAUC'
p36
aF1.0
aa(lp37
S'square'
p38
aS'AUAUACCCGGGGCCGGGGGCCGGGGCAAAGCCCCGAAAAGCCCCCGAAAAGCCCCGAAAAGGUAUAU'
p39
aF1.0
aa(lp40
S'Six legd turtle 2'
p41
aS'AAAAAGCAAAGCGAAAGCAAACCGAAAGGAAACCGAAAGGAAACCGAAAGGAAACCGAAAGGAAACCGAAAGGAAAGCAAAAAAAAAAAAAAAAAAAA'
p42
aF1.0
aa(lp43
S'Small and Easy 6'
p44
aS'ACCAGUAAAUCCAAAUGCCAAAAAAACGCU'
p45
aF0.8666666666666667
aa(lp46
S'Fractile'
p47
aS'AAAAAAAAAAAAGCGAAAGCAAAGCAAAGCGAAAGCAAGCAAAUCAAAAGAAAAGCAACCGAAAGGAAAGCAAGCGAAAGCAAAAAAAAAAAAAAAAAAAAAAAA'
p48
aF1.0
aa(lp49
S'Six legd Turtle'
p50
aS'AAAAGCCGAAACGAAAGAGAAAAUAAAAGUGAAAACGAAAGCAAAAAGCAAAGGCAAAAUUAAAGGAAAAUUCGAAAGGUAAAGGAAAAAAAAAAAAAAAAAAAA'
p51
aF0.9619047619047619
aa(lp52
S'snoRNA SNORD64'
p53
aS'AUAUACAAAAAGACAAAAGACAAAGAUACAAAAAAAAAAAAAGUAUCGAAAGUCAAGUCAAGUAUAU'
p54
aF1.0
aa(lp55
S'Chalk Outline'
p56
aS'AAAAAGAUCAGAUACGAAAGUAAUCGGACAGACGAAAGUCGUCAGAUAGCGAAAGUAUAUCAGGGACAAAGGUCACCGAUCAAAAAAAAAAAAAAAAAAAAAAA'
p57
aF1.0
aa(lp58
S'InfoRNA bulge test 9'
p59
aS'AUAUACCAGAGAGAGAGAUACGAAAGUAUCUCCCCGGUAUAU'
p60
aF1.0
aa(lp61
S'Tilted Russian Cross'
p62
aS'AAAAAAGGUGAGCGAAAGUUCGUGGUGCUUGAAAGAGCGAUAUGAGAGUAUCAUCCCAAAAGGGACCACCGUCGAAAGAUGACCUGAAAAAAAAAAAAAAAAAAA'
p63
aF1.0
aa(lp64
S'This is ACTUALLY Small And Easy 6'
p65
aS'GAGAGAGAGAGAGAGAGAGAGAGAGAGAGAGAGAGAGAGAGAGAGAGAGAGAGAGAGAGAGAGAGAGAGAGAGAGAGAGAGAGAGAGAGAGAGAGAGAGAGAGAGAGAGAGAGAGAGAGAGAGAGAGAGAGAGAGAGAGAGAGAGAGAGAGAGAGAGAGAGAGAGAGAGAGAGAGAGAGAGAGAGAGAGAGAGAGAGAGAGAGAGAGAGAGAGAGAGAGAGAGAGAGAGAGAGAGAGAGAGAGAGAGAGAGAGAGAGAGAGAGAGAGAGAGAGAGAGAGAGAGAGAGAGAGAGAGAGAGAGAGAGAGAGAGAGAGAGAGAGAGAGAGAGAGAGAGAGAGAGAGAGAGAGAGAGAGAGAGAGAGAGAGAGAGAGAGAGAGAGAGAGAGAGAGAGAGAGAGA'
p66
aF1.0
aa(lp67
S'Shortie 4'
p68
aS'ACGAAAGUAGCGAAAGC'
p69
aF1.0
aa(lp70
S'Shape Test'
p71
aS'AAAAAGGGAUCAAGAUACAAAAAAAAGUAUCAAGACUAGCAGAUACAAAAAGUAUCAGAUCGAAAGAUCAGCUGUCAAGAUCGCAAAAAAAAAAAAAAAAAAAA'
p72
aF1.0
aa(lp73
S'The Minitsry'
p74
aS'AGGAAAAAGCCCAAACGAAGAAAAGACGAAAAGUCAAAAAAAAGACAGUCAUUCAGGCGCCU'
p75
aF1.0
aa(lp76
S'stickshift'
p77
aS'AAGAGAUCCCAAAAAGGAGAUCUCAA'
p78
aF1.0
aa(lp79
S'U'
p80
aS'AAAAAGAUACAGAGAGCAGAGAGAUAUACGAAAGUAUAUCUCCGCCCGUAUCAAAAA'
p81
aF1.0
aa(lp82
S'Still Life (Sunflower In A Vase)'
p83
aS'AAACCUCUACUUGUUAAAUACAAGAGCUGCCAAAGGCAGAACAGACAAAAAGUCUGAACAGUCAAGGACUGAGUACAUGAAAAGUGUGAACCGGUGAAAAACCGGGGUGAUAUACAGAUAUAGGUAGAUCAGUCAAAAAAGACUGACAUAGAAAAAAAAAAAAAGAUCUAAAAAAAAAAAAAAAAAAAAAAAAAAAAAAAAAAAAAAAUGAUCAAAAAAAAAAAAACUAUGAAACCGAAAGGUUUAAUUUAUCUAUAUCUGUAUAUCGCUAGAGACUAAAUGUCUCAGCUUGCUAAAUGCGAGAAGAGCCAAAAAGGCUUAAUACGAAAAAAUCGUAGACGGUCAAAGGGCCGAUGAAUCUAAAUGAUUCUGAGGGAA'
p84
aF1.0
aa(lp85
S'Quasispecies 2-2 Loop Challenge'
p86
aS'AAAAACAGCGAUCGGGAUCGAAAGGUCAAGAUCAGAUGGACAAAGGACAUCGGUACGGGGGGUCUAAAUGAUAACAAGUACGCUGAAAAAAAAAAAAAAAAAAAA'
p87
aF1.0
aa(lp88
S'Corner bulge training'
p89
aS'AGAUAUCGAUACAAAGUAUCAAAAGAUAUCA'
p90
aF1.0
aa(lp91
S'Spiral'
p92
aS'AAAAAGAUCAGAUAUCAGACAGAUACAGAUCAGAUCAGCAGCAGCAGCAGCAGCAAAAAGCGCGCGCGCGCGAUCGAUCGUAUCGUCGAUAUCGAUCAAAAA'
p93
aF1.0
aa(lp94
S'InfoRNA bulge test'
p95
aS'AAAAAAAAAAAAAAAAAAAAAAAAAAAAAGGCCAAAAAAGACUAAAAGCCCAAUGAGCGGGAGCGACACAAAAAGUAGUAGUAUCAAGCAUCUAAGGAGCAAAAGGGAUCAAAAAAGGACCA'
p96
aF1.0
aa(lp97
S'Worm 1'
p98
aS'AAAAAACAGAGGAAGGAUCUGAAGAAAAUAUGUGCUUACCUGUAU'
p99
aF0.9555555555555556
aa(lp100
S'just down to 1 bulge'
p101
aS'AAAAAGAGCAGAUACGAAAGUAUCAGACGAAAGUCAGUAUCAAAAGAUGAGACGAAAGUCAGACGAAAGUCAUAUCAAAAAAAAAAAAAAAAAAAA'
p102
aF1.0
aa(lp103
S'Iron Cross'
p104
aS'AGACAGACAAACGCACGCAAAGCGGGGCGAAAGCCAGCGAAAGGCAGACGAAAGUUAGACAAAGUCAGCCAAGUGAACCCGAAAGGGAGGCAAAGCCAUCAAAAGUCAGAUAAAAUCAGUCGA'
p105
aF1.0
aa(lp106
S'loops and stems'
p107
aS'AAAAAGAGAUACAAAGAUCAAAGAUCAAAGAUCAAAAAAAAAUAUACAAAAAAAAAAAAGUAUAAAAGAUCGAAAGAGCAAAAAAAAAAGCUCAAAGAUCAAAGACAAAAAAAAGUCAAAGAUCAAGCAAAAAAGCGAAGUAUCUCAAAAA'
p108
aF1.0
aa(lp109
S'Water Strider'
p110
aS'AAAAGGUAUGAACGGGUCAUUGAAAGUGGAGAAAGCUCGACACGAGAUCCAGUAAUUUGGAUAAAACUCAGAACUAGCGGACAAAAAAAAAAAAAAAAAAAAA'
p111
aF0.941747572815534
aa(lp112
S'The Turtle(s) Move(s)'
p113
aS'AAAGCGAAAGCAAAAGAGAUAUAGAAAAAAAAACUAUAUCUCGAAGGAUCAAAAAGAUCAAAAUCACGAAAGUGCGUCAGACAAAAAAAGUCUGUAAAAGCAAAGCGAAAGCAAAAGGACGAAAGUUAAAAAUACACAAAAAAAGUGUAUAAAACACGAAAGUGAAAAACGGGGUAAAAGACAAAAAAAGUCAACAGCAAAAAAUCUGGAACAGGCAAAAAAGCCUGGAACGCGAAAAACGCGAAACCCCGAAAAAAAAAGCGAAAGCAAAAGCCAAAAGGAAAAUUGAUACAAAAAAAAAAGUAUCUAAAAAGCU'
p114
aF1.0
aa(lp115
S'Adenine'
p116
aS'ACAUCAGAGAUCGGAUGUCGGAUGGCAGAUAUAAGAUUACAAAAGAUAUCAAAAAAGAUAUCAGUAAUCGGGUACAAAGAGAUACAAAGUAUCUCGUAUCAUAUAUCAGAGAUAUACUGCUAUGCAGUAUAAAGUCUCAGCUGUCAAAAGAUAUCAAAAGAUUUCAAAAGGUGU'
p117
aF1.0
aa(lp118
S'Tripod5'
p119
aS'AACAUCCUGUUAAAUACAGGCCUGAAAAAGGCGAUGGA'
p120
aF1.0
aa(lp121
S'Shortie 6'
p122
aS'GCGAAAGCAGCGAAAGCAGCGAAAGCAGCGAAAGC'
p123
aF1.0
aa(lp124
S'Runner'
p125
aS'AAAGUCUUAAGGUCGAAAGCUGGGAAGCAGAGACCUAUCGUAAACUUUCAAGGGAACAAGUUGUUCCAAAGAAAUAGUUGAAGUAAAGUAAUUUGGAAACGAGGCUGUAGGUAAAA'
p126
aF0.9224137931034483
aa(lp127
S'Recoil'
p128
aS'AAAAAGAUACAAGCAAGCAAGACAAGACAAGCAAGCAAAGCAGCAGUCAGUCAGCAGCAGUAUCAAAAAAAAAAAAAAAAAAAAA'
p129
aF1.0
aa(lp130
S'[CloudBeta] An Arm and a Leg 1.0'
p131
aS'AAAAAGACAUUCCCGAAAGGAGGAUAGAUAGAAAUACUGAGUCAAAAAAGAAAAAAAAAAAAA'
p132
aF1.0
aa(lp133
S'[CloudBeta] 5 Adjacent Stack Multi-Branch Loop'
p134
aS'ACUGAGAGCGAAAGCUUGUUGCGAAAGCAGCGAUACGAAAGUAUCCCGCGAAAGCGGUCGGUA'
p135
aF1.0
aa(lp136
S'Triple Y'
p137
aS'AAAAACGCACCACUUGGAAAGCCCGGAUCAAAUCAUCGUGACUUCUGGGGAAAUUCGGGAAGUUAUUUCGAUUUACGCAAAAAAAAAAAAAAAAAAA'
p138
aF0.9072164948453608
aa(lp139
S'Misfolded Aptamer'
p140
aS'ACACUAAAAAGGGACAAAGUCAGCGAAAGCAAAAAAAAACCAAAAUGUGU'
p141
aF1.0
aa(lp142
S'Flower power'
p143
aS'AAAAAGAUGGAACGAAGAUCAAGUAGAACGAAUUUCAGGAUGAAACAUCAGAACGAAGGGAUAACCGGUCCAAGGCAUCAUCGAAAAAAAAAAAAAAAAAAA'
p144
aF0.9215686274509803
aa(lp145
S'Kudzu'
p146
aS'AAAAGGUGGUAAGGUACACACAUCAGCUAUGCGACGUGCGAUCUCUAUGGAGAUCUGAUAAAGUAUAAAGUGACGAGGCACAAAAAAAAAAAAAAAAAAAA'
p147
aF0.9603960396039604
aa(lp148
S'"1,2,3and4bulges"'
p149
aS'AAACAAAUACAGGCCGAAAGGCAAACCGGGGGGAAACCCACGAUUAAAAUACGUAGUGAAAAAAACGGCGCGAAAAGCACGAUGGAAAAAAAAAAAAAAAAAAAA'
p150
aF0.9809523809523809
aa(lp151
S'medallion'
p152
aS'ACCUCCACGGGGCGAAAGCCCCGAGACGAAAGUCACACGAAAGUGACGGGGCGAAAGCCCCGACACGAAAGUGACGGGGCGAAAGCCCCGACACGAAAGUGACACGAAAGUGACGGGGCGAAAGCCCCGACACGAAAGUGACGGGGCGAAAGCCCCGACACGAAAGUGACACGAAAGUGACGGGGCGAAAGCCCCGACACGAAAGUGACAGGGCGAAAGCCCUGACACGAAAGUGACACGAAAGUGACGGGGCGAAAGCCCCGACACGAAAGUGACGGGGCGAAAGCCCCGACACGAAAGUGACACGAAAGUGACGGGGCGAAAGCCCCGGGGAGGU'
p153
aF1.0
aa(lp154
S'[RNA] Repetitious Sequences 8/10'
p155
aS'AGGAAAAAAGCAAAAAAGCAAAAAAGCAAAAAAGCAAAAAAGCAAAAAAGAAAAAAAUCAAAAAAGCAAAAAACCAAAAA'
p156
aF1.0
aa(lp157
S'Documenting repetitious behavior'
p158
aS'AAAAAAGUAUAAAAAAAAUGAAAAAAAAAGGAAAAAAAAAGUUAAAAAAAAGGAAAAAAAAAUGUAAAAAAAAAAAAAAAAAAAACAAAAAAAAAGGAAAAAAAAAGAAAAAAAAAACGUAAAAAAAAUUAAAAAAAAAAGAAAAAAAAAAUAAAAAAAAAUUAAAAAAAAAAGAAAAAAAAUAUAAAAAAAAAGGGAAAAAAAACUAAAAAAAAAAUUAAAAAAAACAGAAAAAAAAAAAAAAAAAAAAUAAAAAAAAAUUAAAAAAAAGAAAAAAAAAAUCGUAAAAAAAGUCGUAAAAAAACCAAAAAAAAACCGAAAAAAAGUUGAAAAAAACCGAAAAAAAAAUCAAAAAAAAUGCAAAAAAAAGCCAAAAAAAAGCGAAAAAAAAUUAAAAAAA'
p159
aF0.8925
aa(lp160
S'7 multiloop'
p161
aS'GCACCUAUAGAAAUAUGGACCGCGAAAGCGGUGAGAUGAAAAUCUUGCGGCGAAAGCCGCCCGACUAAUGUCGGUAUCAGAAAUGAUAGUGC'
p162
aF1.0
aa(lp163
S'Kyurem 7'
p164
aS'AAAAAUAUGACACGGAAAGGAGCACAAAAUUUGCCGUUAAAUGCGGAGCGUUGAAAAAAGCAAAGUUUGAACUUAGUAUGUGGAAAAAAAAAAAAAAAAAAA'
p165
aF0.9215686274509803
aa(lp166
S'JF1'
p167
aS'GUAAGGUCCUAACAGAUAAGAUACAAAAGAUAUCAAGAUACAAAGAGACAAGAUAUCAAUAUACACAUAUAUGAAAGUAUAUGUGUAUAUAAGACGAAAGUCACGGGGGGGGAAAACCCCCCCCGAACAGACGAAAGUCUGAGAUAUCAGUCUCAGUAUCAGAUAUCAAAGAGAUAUCAAAAAGAUAAUCUCAAGAGAUAUACAGAUAUAGACAUAUCUAAUGAUAUGUCUAUAUCAUGUAUAUCUCAAAGAUACAAAAAAGUAUCCAGGGGGGGCGAAAGCCCCCCCUGAGACAGAAAAAUCUGAAGUAUCGGGUCUGAACACAGACAGACAAAGGUCGUCGUGUAGAGAAAUACGAAAGUAUUAUCUCAUAGGUACUAUUAUAGA'
p168
aF1.0
aa(lp169
S'multilooping fun'
p170
aS'UGUCAUGGAAAAAUAGGAAAUAAUGUUAAAAGGAUG'
p171
aF0.8333333333333334
aa(lp172
S'Multiloop...'
p173
aS'ACACAGAUCAGACGAAAGUCAGACGAAAGUCAGACGAAAGUCAGACGAAAGUCAGACGAAAGUCAGACGAAAGUCAGAUCAGAUACAAAAAAGUAUCGACGAAAGUCGUGU'
p174
aF1.0
aa(lp175
S'hard Y'
p176
aS'AAAAUGAUCGCAGAGAUUCAAAAGUGAAUCUACGUGAGAUACUCCUAAUGGAGUAUCUUGAUCUAAAA'
p177
aF0.9705882352941176
aa(lp178
S'Mat - Elements & Sections'
p179
aS'AAAAAGAACACAAACUGAGUUGGGGUCAAUAGAUGCGCAUAUGAAAGUAAGACCAUCGACGACCAAAACUGCUCUGAAAGGGUUCAAAAAAAAAAAAAAAAAAAA'
p180
aF0.9619047619047619
aa(lp181
S'Chicken feet'
p182
aS'AAAAGCCAGCGGCAAAGCAUCAAAGGUAAACCGAGCACCAACGAAGUAAGGAAGUGAAGGCCAAAAA'
p183
aF0.8805970149253731
aa(lp184
S'Bug 18'
p185
aS'AGUUAUAUCUGAAAACGUAGAUUGAAGAAGGGAUUACCAUGAAAACUCAGAAA'
p186
aF0.9245283018867925
aa(lp187
S'Fractal star x5'
p188
aS'AAAAACUGGGGGUAUACACGAAAGUGUUGCAGCAAAGGCUGAAGAGCGAAAGCUUAAUGUCAAAAGGCGAAACCCCCAGAAAAACGGGGGGUAGACACGAAAGUGUAACAUCUAAUGGUGAACAGCGAAAGCUGAACAUAAAAAUGUGAAACCCCCCGAAAAAGGGGGGGUAAACACGAAAGUGUAACUGCGAAAGCGGAACAGCGAAAGCUGAACAGGAAAACCUGAAACCCUCCCAAAAACGGGGCGUAAACACGAAAGUGUAACAGCGAAAGUUGAACAGCAAAGGCUGAACAGAAAAAUCUGAAACGCCUCGAAAAACGGGUGGUAAACCCGAAAGGGUAACAGCGAAAGCUGAACAUCGAAAGGUGAGCAGCGAAAGCUGAAACCACCCGAAAAA'
p189
aF1.0
aa(lp190
S'Crop circle 2'
p191
aS'UUUAGUCAAAGAAUAAAAGCAAAAAAAAGUGAAAAAAAAAAAAAAAAAAAAAAAAAAAAAACGAAAAAAAAAAAAAAAGCGAAAAAAAUGUAAAAAAGGAAAAUAAAAAA'
p192
aF0.9636363636363636
aa(lp193
S'Branching Loop'
p194
aS'UGGCCCUAAAAAACCUGACAAAGGUCGCAGUUUUAAAAAA'
p195
aF0.95
aa(lp196
S'Bug 38'
p197
aS'AUCUCAAGAGGAAAUAAACGGCGGCGAGGACAGGGU'
p198
aF0.9444444444444444
aa(lp199
S'Simple Single Bond'
p200
aS'AAAAAAGGAAAAAAAUAUGGAAAAACCAUUAAAAAAAACAAAAAAAAAAAAAAAAAAAAAA'
p201
aF1.0
aa(lp202
S'Taraxacum officinale'
p203
aS'CAGCGAAAGACUGACAGCGAAAGACUGACAGCGAAAGACUGACAGCGAAAGACUGACAGCGAAAGACUGACAGCGAAAGACUGAGAGAUAUACACGAGAUAUACACAAAGUGUAAUAUCUCAGAUACAAAUAUACACAUAAGAGAUACAAAGUAUCUCAGUGUGUAUAUGAUCAGAUAUCAAAGAUAUCGAUCGUAUCGAAGUGUAUAUCUCAGAUCGAAAGAAUCACAGCGAAAGACUGACAGCGAAAGACUGACAGCGAAAGACUGACAGCGAAAGACUG'
p204
aF1.0
aa(lp205
S'Headless Bug on Windshield'
p206
aS'CGCAACAAAAAGAAAUAAGGAAAGGAAAAAAAAAAAAAAAAAAAAAAAAGCAAGUCAAACGUAUCAAAGUAACAUAGAGGGAAAAGAAAAAAUGCGAAAGCGAAAAAACUUCCAAAAAAUUGAGAAGCAAAAAAUAACAAGUAUGAGGGGAAGUCAAAAAAAAAAAAAAAGGCAAUCAACUCUAACAGUUUGGCAAUUCG'
p207
aF0.99
aa(lp208
S'Pokeball'
p209
aS'AAAGAGAUGCAAAAGCAGGAAAGACAAGAAGGCAAGAAAGAAGGCAGGCAAAGCAGCAAUCAUCAGCAAUCAGUCAUCGGCGCAUCUCAAAAAAAAAAGUUAUAAAAGGAAGAAAGACAAGAGGGCAAGAAAGAAGGCAAGGUAUCCAGCAAUCAUCAGCAAUCAGUCAUCACCGUAGCUUAAA'
p210
aF1.0
aa(lp211
S'Variation of a crop circle'
p212
aS'AAAUUAAAAAGAAAAAGUGGAACUUCGGGGCAGAAUGAACCUAACUGAAAACAACAAAAAAAUGAAAAAACAUGAUAAAAAAAAAAAA'
p213
aF0.9545454545454546
aa(lp214
S'Loop next to a Multiloop'
p215
aS'AGGAGUUACUAAAAAAAUAUAUAUUGAAAGAUAUAGGGUAUAUGAAAAUGUGCCAGAAAAAAAAGUGGCUCAA'
p216
aF0.9726027397260274
aa(lp217
S'Snowflake 4'
p218
aS'CAUCAAGGGCACGGGUCCGAAAGGCAGAGCGGUGACUGAAAACGCUGAGGUGUGAAACGCAUCCGCAAAGCGGUUCAGCCGAAAGCGUCGAAGGAUUCCCGAAAGGCGAGCGGCGAAGCGCCAACUGCAAGGCGGGCUCGGAAAAGGCGAAUCAAGUUAUUCGAAAUGGGAGCAGGCGAAGCCGAAUAUCGAAGAUGGCUCUCCGAAACGGUAACAAGAGACCAUAAUCGCGAGUCUUCAAGAAGCAAAAGUUAUGCUUACUCGGAAAAGUCGUCUCAAGUAACAUGAAAACCAGGCGAUUUAUAAUCAUCAGCAAGGCUGGCCUGGUAAAGAUGUUACAUUUUUGGCGAAAGCACCCGAUUGAAAGAUG'
p219
aF0.8972972972972973
aa(lp220
S'Mat - Cuboid'
p221
aS'GAAGCAAAAGGAAGCAAAAGGAUGCAAAAGAAGGAAAGAAAAUGAAGUAAACAAAAGAACGGAGGAACCAAAAGCAAGCGUGGAAACAAAACGAAGGAAGGAACCGCGCAAAAGCAGGCGUGCGAGGGGAUAAAAUCGGGGGGGCGGGCGGGUGGCCAAAACCGGGCGGGCGGGUGGGCGGUCAAAAGCGGGCGGGCGGGAGGGCGGGCAAAAAAGCAAGCAAUCAAGCAAGCAAGCGGAAGCAAACAAGCAAGCAAGGGGAAACAAGCAAGCAACCAAGAGUAACCGAGCUAGUAUGCGCAAGAAAGCAAACAAGGGUAAGGUAUCAAGUGCAAUCAAGCGAGGUAAACAGCGCCAACUAAGGCUACCGCAAGCGCAAG'
p222
aF0.9
aa(lp223
S'Misfolded Aptamer 6'
p224
aS'AAAAAAGACAAAAAGGAUCAAGGAAAGACAAAAAAAAGUCAAAACGAAAAGAUCAAAAAAAGUCAAAAAAAAAAA'
p225
aF1.0
aa(lp226
S'Snowflake 3'
p227
aS'CUCCGGAAACGAGUCCUAAAAGGUUAAGCUGAGAUCAAGACGAAAGUCCUAAACGAAAGUCACAAAGUGACGAAAGGGUGGCAGGAAACUGAGGGUCAGAUAAAUACGAAAGUGCGCAACGAAAGUCGGGAACAGCCGGAAGGACCGCGCGAAAGCGAGUAUCACAUGAAGCCGAAAGGCCGCAACGAAAGUUACAAGGAGCCGAAAGGGUCGAAUGAAAGUUAAUAUCAUAUCAAGACGAAAGUCAACAACGAAAGUCAUGAAGUGGCGAAAGUAGUUCACGAAAGUGAAGAUCAGUGCGGCACGAAAGUCCACAAAGAAAUUUACAAGGUGGCGAAAGCAGUAAACGAAAGUUAAGAGCAUAGCGAGCAGAAAUUCGACGGUGAAAGUGCG'
p228
aF0.8269720101781171
aa(lp229
S'Hard Y and a bit more'
p230
aS'AAAAUGAUACUCAUAUACGAAAGUAUCAGUGAUACAGCAGGAUCGAAAGAUCAUGGUACGAAAAAGUACCUAGCAGUAUCGUAUCUAAAAAAAAAAAAAAAAAAAA'
p231
aF0.9716981132075472
aa(lp232
S'Mat - Lot 2-2 B'
p233
aS'GAGGAAGGGACCAGGCAAAAGGGGGACUGAAAGAAAAUUCAACCGCAGGAAAAAUCAAUCCAAAGCAAGUGGGCGCGGGAAAAAGCGGUAUCCGUAAAAACAGAAAGGUGAAGAAAAAUAAAGCCCAAGUUCUGGGAAGCGAAAGGGGGGGAUAGGUCAAAAGCGGGACGGAAACGAAAAUCAAGCAGAAGAAAAAUCAAUCACAUGCAAACAAGCGCAGACAAAAUCGGGACCGGUCAAAAACGAAAGUGGAAGGAAAAACAAGGGUAGGAUCGAGGAACAAG'
p234
aF0.8345070422535211
aa(lp235
S'Shapes and Energy'
p236
aS'AAAAAUGAUCUCGGCUAAAAAGAAAGAUUACUAAUGGAAUUGGGCUAGCAGUUAAAAAAGUCGAAAGUGGCGGAGAAAGUUAAAAAAAAAAAAAAAAAAAA'
p237
aF0.9603960396039604
aa(lp238
S"Spiral of 5's"
p239
aS'GAAAAGAUACAAAGAUAGAAAGAUAGAAAAGAUACAAAUAUAGAAAGAUAGGAGAUACUAAAGAUACAAAGAUAGAAAGAUAGAAGAGACAAAGAUAGUAAGAUAGAAGAUACAAAGAUUGAAGAUACAUAAUACGAGAUUCUAGUUACAUACGCAGAGUGAUAUUAAAAAAGUAUGCGGGCUCUCAAAAAGCAUGAAAAAGUAUAAAAAUGUACCAAAAAGCAUUUAAAAGUAUCAAAAACAAUCAAAAAGUGUCAAAAACUAUCAAAAUCUAUCAAAAAGUUUCGAAAACUAUCAAAAACUAUCAAAAAGUAUCAAAAUGUAUCAAAAACUAUCAAAAACUAUGAAAAAGUAUCAAAAACUAUCAAAAACUAUCAAAAAGUAUCAAAAAUAAAAA'
p240
aF0.9949622166246851
aa(lp241
S'Campfire'
p242
aS'AAAAAAGCACACAGCAAGUUGCAGGUCGAAAAGACCGUCCACAAAGUGAGACCAACAGUAUCAGCAGUAAAAACGAAAGUAUUAGCGCCUUUUUAGAAGAGGAAAGCCCACUACGGAGACUAAUGUACCACGUCGAAAAACGAUCGCUGCUGUAGCGGACAGAAAGAUCAAAGGAUCUUCGUCGAGUGGUCGAAUACAUAACUCAGCGGCUU'
p243
aF0.8962264150943396
aa(lp244
S'Anemone'
p245
aS'AAACGGAUCGAAAGAUUCGGAGGCGAAAGCUUCGAGUACGAAAGUGCUCGAGUCGAAAGGCUCCGUUUCUAAUGAGAUGCGUUCAAAGGGACGGACACAAAGGUGUCGUUAUUGAAAAAUAGCAGGGAGGAAACUCCCCAUGCCGAAAGGCAUGCUCCAUAAUUGGAGGUUAUGUAAUCAUGACCAGCUGAAAAGUUGGAGAGCUAAUGCUCUC'
p246
aF1.0
aa(lp247
S'Fractal 3'
p248
aS'AAAAAGAUCAGAGAGCGAAAGCGCGAAAGCACUCAGACAGCGAAAGCGCGAAAGCAGUCAGACAGCGAAAGCGCGAAAGCAGUCAUACAGCGAAAGCGCGAAAGCAGUAAGAUCAAAAA'
p249
aF1.0
aa(lp250
S'Kyurem 5'
p251
aS'AAAAGGAGAAAGGGGUAAUCUCGAUAAAAGGGCGUUCAAAGGCAAAAGGCCGAGCGACGAAAAAGUCAUCCCAUCUUUAGUCUCAAAAAAAAAAAAAAAAAAAA'
p252
aF0.9423076923076923
aa(lp253
S'Snowflake Necklace ( or v2.0 )'
p254
aS'AUGUACCCAUAUUGCAAAUACAGUAAAAAACAUGAAAAAUAACCUAAAUGGCUCAAAAAGAGCCAAAAAGGAGGAUUAGGCAAAAGGCAAAAUACAUCUAAAUGGGCAUAAAUUGGCGAAAAAGUACCAAAAAGGACCAAAAGGGAGUAUUAGAUAAAAAAUCAGCUACGUGAAAAGGAAACAAAAAGUGCCUAAAUGGCGCAAAAAGCAACAAAAAAGAGUAGUUGACAAAAAAUCUGAGACGGCAAAAAGCAUCAAAAAGAGCCGAAAAGGGUAAAAAAGACCCAAAAAGGUGUUUCGCAGAAAACGUGAGAUGGACCAAAAAGCAGCAAAAAGUACGAAAAAUGAUAAAAAAUAGUCAAAAAGAAUUAUCAGCAAUAUGGGUAUAU'
p255
aF0.8277634961439588
aa(lp256
S'Methaqualone C16H14N2O Structural Representation'
p257
aS'AAAAAAAUAUCAGAUCAGACGCACAAAGGUGAGACACACGAAAGUGAGGCGCACGAAAGUGAGACAAGCGAAAGCUACACAAAAAAAGUGAGUCGGCCAGCUAUUCGCAAAGAGAUCAGAUCAAAAAACAUAAAGGGAAUCAAAAAAAAGAAAGUUAGACGAAAGUCCAGGAAAUUGGACGAAAGUCGACCAUAAAUAUUCUAAACAGACAGAGACAUCCAGAAGGAAAAAACUAAUGUUAACUACACGAAAGUGACUGACACGAAAGUGAGUGAUACAAACGUGAAUCGGACGCCGAAAGGCUUCGAAAGAGACACGAAAGUGAUCAGUAAAAUAAAAGAUCAGAUGAAAAAAA'
p258
aF0.9661971830985916
aa(lp259
S"Cat's Toy 2"
p260
aS'AAAGGGAUUAACUAAACCGGAAAAAAAAAAAAAAAAAAAGUAAUGAAGUCGAAAGAAAAGCAAAGGCAAAAAAAGAGAAAAAAGUGUUGGUUCAAAA'
p261
aF0.979381443298969
aa(lp262
S'Zigzag Semicircle'
p263
aS'AAAAAAAGUCAAGGAAAAAUAAAGCACUUUGAAA'
p264
aF0.9411764705882353
aa(lp265
S'Short String 4'
p266
aS'AAAAAGACAAGAAGAGAUAAAGAUCAUUGAAAGUGAAGCAAAGAUUGGUCGAAAGAAAAGAGCAAAGAUUGACGGUAAAAAAAAAAAAAAAAAAAAA'
p267
aF0.9381443298969072
aa(lp268
S'Gladius'
p269
aS'UUAAUGAUAAAAACAAAGAACAGAAGAAAGAGGGGCAAAGAUCGAAAGAUCAGAUACAAUAGACAAGGUAGCAGAAGAUCAUGAGAUAUACCAGAUAUUAGAGUCAAGUCAGAUUAAGAUCAAAGAUCAGGUACGAUUGAGCUCACAUAUUGAGUAUAUCAAUAGAUCCGUAGCUAAACAGUCAAAAGUAUCAGCCAAAGACAGAAGCGGGAGGCACAUGAUCUGAGGAUGAGUAGAUAUACAUGAGACAGAUACAGAUAGUAGACAUUUAGAGAAAUUUAGGGAGUCAACUAUACGUAUACGUCUCCAGUAUGUCUCAAUAUCACAUGAUCUGAAGUCAGAAGCUUCGCAACGAAAGUUGAAAGUCACUCAAACAAGGGAAUAAGGGAAAGUACGAAAG'
p270
aF0.89
aa(lp271
S'Thunderbolt'
p272
aS'GGAAGCUGCAAAAAAAACGGCAAGUGGAGGCGGAAAACAGAGAUAUCUAAAAAAAAGCGAAAAAGGUCAAAAAGAUUAAAAAAGCAAGUCGUGUAAAAAAACUCCAAAAAAGAAGAUGCGGGCAAAAAUAAAAAAGAUUAAAAACUUUAAAAAAGGCACAAAGAGCAAUAAAAUGAGAUAUUGAAUAGAAAAGCUGUAAGAAACUGUAUGAAAAAAAGGAAAAUAAAAAAAAGGAUCAGGGAGUUAAAUAUUUUAGCGGCAAGCUCAAAAAAAAAGCAAGAAAAAAAAAACGAGCAAAAGUGGGGGAAAAGAAAAAAAAAUAAAAGUCCCCAAAUGAGAAUGAUAUCUCAAAAAAAACGACGAGCGGAAAAAGAAAAAAACAGCAGCGGUCA'
p273
aF0.9540816326530612
aa(lp274
S'Mutated chicken feet'
p275
aS'AAAAAAAGCAUCGGAAAGUUAGAAAAUCAAAGGGCGGCAGCAGCCAUUCCAGAAACUCUGGAGCAGGAGCGCGAUAUGAGCUAUGCAAACCCCAAAAAAA'
p276
aF0.84
aa(lp277
S'Chicken Tracks'
p278
aS'AAAAAAAGGAGUUAGACACGAAAGUGUAAGAUCGAAAGAUCAAGACCGAAAGGUCCUAACUCAGCCCGGGCCAUGCCCAACGCCAAAGGCGGAGCUCCAAGAGCGGGAAAGAAAAA'
p279
aF1.0
aa(lp280
S'Looking Back Again'
p281
aS'AGCAAGAGGACUAAAAGGUGGUCGAAGAUUACAAGUCAAGAGGAGAUGAGAAACUCAUUAGAUAUAAAGCUCGAAAGAGCAAAAGUAUUGAUUCAAUUUAAGGGCAGCUAAAACAGACUAAUGUCUGGAAAAUGUUCAGAAGGCACAAAGUGUGCGCUCAAAAAGCGGACAUCCUAAUAUGAAAAAGAAGAGGACAAAAAUGUCAACAUGAGCUAGAAGCACGAAAGUGAAGAUCUCAAAGUACCACCCAGCGCCAAAGCAAAAAAUGGAUUUAAAAAAAAGAGCAAAAGGUUCAAAUAAAUUAGGAUUUGCCAAAAAGUACCGGUCGAAAGGCCGGAAGACAUUAUAUGUAUACGAACUAGGAAACCGCAAAAGAUCGGCGCGAAGUU'
p282
aF0.8251928020565553
aa(lp283
S'Multilooping 6'
p284
aS'AAUAUAUAAACAAGCAAAGGUUUGAAUUCAAAGGAGUUGAUGAGUUGACUAAUGUUGAAAUCGUAGUCGAUUAUAGUAUAGA'
p285
aF0.9024390243902439
aa(lp286
S'Cesspool'
p287
aS'GGAGAAAGAAAUAACAUCGAAGAGCGAAAGUCAACAAUGAAUGAAGAAGUAAUCAACAGAGGAAAACAACAAAAUGAAAACAACAAGAUCAGGAACAAAGGAACUUCCGAGAGAUAAAAUCAACGACGAAAGAAGGGGAAAACAAGAGAGGAAAAUAACAAAAUGAAAACAACAAGUUGUGGGAAGAAAACGACAUCGUAUAGAGAAAGUUAAAAACAAAUCAAUGGGUAAGCAAAAGAGGAAAACAACAAAAUGAAAAUAACAAGCUAAAGAAAAGAAAACAAGAUCAGAGAGACAAAAUGGACAAUGAAUCAAGAGGAAAGCAACACGGGGAAAUAAGAAAAUUAAAACAAUGAGU'
p288
aF0.7737430167597765
aa(lp289
S'Hoglafractal'
p290
aS'AAGGUUGAGAUAGAAGAGAUACUAAAAUGUAUCUGAUCGACCAAAACACUAAAUGUGUGAUCAACAAGACGAAAGUCGUGCUGAAAACACCAAAGUUCAAAAAUGAGCGCUCUGCAAGAUAAAAAAGCGUGUCAUCGAAAGUGAUGAGCAAAAGACAAGACAAAAAAGUCGUCGCAGGGAAAAUAGCUACGAAAGUAAGAUACAAAAAUUAGCGAAAAAGCAAUACAAAAAGUGGCGAAAGCAGAUAUCGAAAAAGACAAAAAAGUCCCGAAAAGGUAACGGGGUCUAUGGCCCCGAAAAAAAGAUAUCAAAAAGGUAUCAAAAGGCUCUAAAAAGCGAUAAACAAAGGACAGUACAAAAGCGAAAGCCUGAAAGGCAGACCAACGAUCCGAAUACGUAC'
p291
aF0.9025
aa(lp292
S'Bullseye'
p293
aS'AAACUGGAUCAAAAAUCAAGGUGAAGCAUUGAAAUCAAAGAUCCGGAAAAAAAGCACCUCAAAAUGAGAAGAGAAAAACUCCAGGUAAAAAACCUCGAAAAAAAACAGGCUCGAAGAGCAAGCUCGAUAGGCAAGAGCAAAACUAGCGGAAAAAAUUUCGGCUGAAGGCCAAUGCCAAAGGUCAACUGGUAUCUGCCAAGAA'
p294
aF0.8267326732673267
aa(lp295
S'Shooting Star'
p296
aS'GUAUACGGGCGAUAUACAAUGAGGGGUAAGCAUACAGCUAAUGACGUAGGCUAGACAACCUAGUAUGUCAGAUACGGGAGAGGCAAGCAGAUACACACAGAUCAGCGAAAGACGAUACGUGGAUAUACGCUAGACAGCUAAGGGAAACAGUAUCGAUCCAGACAAGGUGUGGGAGGGUAUUUCUGAUUAAAAAUGAGAUUAGCCCAGACCAGAUAAAAAUAUUCCAAAGGGAUAUGUAUACAAAGCAUAACGCGAUAUACAAGGUAUGUCACCUGAAAAUUGGGGAUCGUUUAAAAAAAUAGGGAAGUCGAGAAGCAAAACAGCGAAAGACGUUAUGCUACAAAAUUGCAAGAGACAGUGUACA'
p297
aF0.8076923076923077
aa(lp298
S'Teslagon'
p299
aS'AAAAAGGGAAAAAAAUAAGGAAAAAAACAAGAAAAAAAAAAAAAAAAUCAAAAAAUUUUAAAAAAAAAAAAAAAAUAAACGAAAAAACCAGCGAAAAAAUGAAAAAAAAAAAAAAAUCAAAAAAAGUAGGAAAAAAAUCGGAAUAAAAAAAAAAAAUGAAAAAAAUUGUCUAAAAAAAAAAAAAUGGGGAAAAAAAACCGGGAAAAAAAAUAAAAAAAAAAAAAAAACGAAAAAACCACGAAAAAAAGCAUCAAAAAAAAAAAAAAAGGAAAAAAUUAUGAAAAAAAAAAAAAAAUGAGAAAAAAAAAGGGGAAAAAAAGUAAAAAAAAAAAAGUAAAAAAAAAAAAAAAGCGGCGAAAAAACCAUAAAAAAAACCAAAAAA'
p300
aF0.900523560209424
aa.