(lp0
(lp1
S'Simple Hairpin'
p2
aS'GAUACAAAAAAGUAUC'
p3
aF1.0
aa(lp4
S'Arabidopsis Thaliana 6 RNA - Difficulty Level 0'
p5
aS'GAUAUAGAAAGGAGGAAAAAAAAAACUCGAUAUAUCAGGAUAUAUAUAUGUAUAUACGAGGAUACAAAAAAGUAUCAGUAUAUAAUAUAUAUAUAUCAGGAUAUAUCAACUAUAUC'
p6
aF1.0
aa(lp7
S'Prion Pseudoknot - Difficulty Level 0'
p8
aS'GAGAUCAGAUCGAAAGAUCGAUACUCAAAAAAAAAA'
p9
aF1.0
aa(lp10
S'Human Integrated Adenovirus - Difficulty Level 0'
p11
aS'GAUACAUAUGAACUGGAAAUCAAAAAAAAAAGGACCCUAGGCUACAGACAUUAGAUCCGACUUGAUAGAUAUAGAAAAAAAGUUAUAUCUAUAAAACGGGAUUUAAAAUGCGACAAAACUUAGAAAGAUAUCAAAAAAGGAUAUCGGUCAAAAAAAAAAAGGAUUUCAAGUUAAAAUAUGUGAAUUAUCAAA'
p12
aF0.9791666666666666
aa(lp13
S'The Gammaretrovirus Signal - Difficulty Level 0'
p14
aS'GAGAGAGGAGAUCGAAAGAUUUCAACGCAAAAAAGCUCAAUACCGAAGCAUGGAAAGCCAUGGAAACUUUGUAGGGCAUGAUAUAUCGAAAGAUAUAUCUA'
p15
aF1.0
aa(lp16
S'Saccharomyces Cerevisiae - Difficulty Level 0'
p17
aS'GGCGUGAUCGUGAAAAAAAAUGAGCAAGAAGGUCAUGGUCGUUAAAUAAAAAAAAAAAUAAUUGGUAAGUAAAAUCUCCGAUAGGAUUUAAAAAAUGAUCGAGGAAAAAAAAAAAAAUGAAAGCAUACAAAAAAGGUAUGGGUGGGGUAAGACCAUACAAGAUCAAAAAAAGGAUCCCAGUGUAAAAAUUACUGGAAAGCAUAAGAAAAAAUUAUGGUGUGGUAAAGGAUGGACAAUACGAAAAAAAACAUGCAAAGCGAAAAAAGCUUUGAAAGAUUAAUAAAACUUUAAGGUCUGUUAAAAGAUCUACUAGUCCAAAAAAAGGUAACUCCGGAAAAAAGUCUGAGAAAGUACACAAAAAAGGUGUGGUAGAUUAAAA'
p18
aF0.9102902374670184
aa(lp19
S'Fractal 2'
p20
aS'AAAAUGUCUGACUAAACAUUUUUAUAUAUAGCGAAAAAAAAAGCUGGAGUGCAAAAAAAAAAGCACGUGAUCAAAAAAAAAAGAUCUUUAUAGAAGUGAAUGCUCUAUAUUGGGAGAUAAAAAAAAUUCUCAGCAGAAAAAAAAAAGUCUGAAGAUCGAAAAAAAAAGAUCAAGAUAUAGAGCUAAGACAUGUAGAUUCGGCAAAAAAAAAGGCCGUAGGGAGAAAAAAAAAUCCCAGUCUCAAAAAAAAAAGAGAAUUCUAUAUGUCAAAGGUCGGGCUAAAA'
p21
aF1.0
aa(lp22
S'G-C Placement'
p23
aS'GAUCAAAGAUCG'
p24
aF1.0
aa(lp25
S'The Sun'
p26
aS'GACAGAGAAACAAAGUUUAACUCGUCAAACCCUGAAGCACGAAGUGUAAUUCGGGAAGCAGAGACAUACAAGGUAUAAGGCCUGAAGGUGAGAAACACAAAGUGUAAUUCCAUAAGCAGAAAUUUGCAAAGUAGAAGUCCUGAAACAGAGAGAACCGAAGGUUAACUCCUGGAGCAGAGAGGUACAAGAUAUAACUCUUGAAGCAGAGCGAGACGAAGUUUAACGCCUGAAGCAGAGGGAUACAAGGUACAACUCCUG'
p27
aF0.8410852713178295
aa(lp28
S'Frog Foot'
p29
aS'GAAAAAAAAAGCUCGAAAGAGCCAUCAAAGGAUGGGGCAAAGCCC'
p30
aF1.0
aa(lp31
S'InfoRNA test 16'
p32
aS'GAGACCGCAGAUGUCUAAUGACAUACUCGAGGUUUC'
p33
aF1.0
aa(lp34
S'Mat - Martian 2'
p35
aS'CAUCGAAAGAUGAAAGAUAUACAAGAUAUACAAAAAAAGUAUAUCGUAUAUCAAAGAAAUAUCAAAAAAGAUAUACAGAUAUACAAAAAAAGUAUAUCGUAUAUCAAAGAUAUAGAUAUAUAAAAAAAAUAUAUAUACUAUAUCAAAAAAGGUAUUUCAAAGAUAUAGAUGUAAAAAAAAAAUUUGCAUAACUAUAUCGAAGAUCGAAAGAUC'
p36
aF1.0
aa(lp37
S'square'
p38
aS'GAUAUACCGGUUCCGGUUGCCGGUUCAAAGAACCGAAAAGCGACCGAAAAGAACCGAAAAGUAUAUC'
p39
aF1.0
aa(lp40
S'Six legd turtle 2'
p41
aS'AAAAAGCAAAGCGAAAGCAAACCGAAAGGAAACCGAAAGGAAACCGAAAGGAAACCGAAAGGAAACCGAAAGGAAAGCAAAAAAAAAAAAAAAAAAAA'
p42
aF1.0
aa(lp43
S'Small and Easy 6'
p44
aS'GCCGCUAAAUGCAACGGAAAAAAAACGGGC'
p45
aF1.0
aa(lp46
S'Fractile'
p47
aS'AAAAAAAAAAAAGCGAAAGCAAAGCAAAGCGAAAGCAAGCAAAGGAAAACCGAAGCAAGCGAAAGCAAAGCAAGCGAAAGCAAAAAAAAAAAAAAAAAAAAAAAA'
p48
aF1.0
aa(lp49
S'Six legd Turtle'
p50
aS'AAAAACCUAAGGUAAAACCAAAUCAAAAAUCUAAAGGAAAACUAAAUGCAAAGGGUAAUUUGAAAAGUAAAGGGAAAUCGAAUGAAAAAAAAAAAAAAAAAAAAA'
p51
aF0.9428571428571428
aa(lp52
S'snoRNA SNORD64'
p53
aS'GAUAUCAAAAAGAGAAAAGAGAAAGAUACAAAAAAAAAAAAAGUAUCGAAACUCAACUCAAGAUAUC'
p54
aF1.0
aa(lp55
S'Chalk Outline'
p56
aS'AAAAAGAUCAAAGACGAAAGUACUUAGACAGACGAAAGUCGUCAGAUAUCGAAAGACUAUCAGCAACGAAAGUUAGCGAUCACAAAAAAAAAAAAAAAAAAAAA'
p57
aF1.0
aa(lp58
S'InfoRNA bulge test 9'
p59
aS'GUGAUAGAGAGAGCGUUCUUCUAAUGAAGAGCCCCCUGUUAC'
p60
aF1.0
aa(lp61
S'Tilted Russian Cross'
p62
aS'AAAAUGAGGCGUCGAAAGAUGGAGCAGAGCGAAAGUUCGAUACAAAGGUAUCAGAUGGAAACAUCGCUCGUCCUAAUGGGCCCUCUAAAAAAAAAAAAAAAAAAA'
p63
aF1.0
aa(lp64
S'This is ACTUALLY Small And Easy 6'
p65
aS'GAGAGAGAGAGAGAGAGAGAGAGAGAGAGAGAGAGAGAGAGAGAGAGAGAGAGAGAGAGAGAGAGAGAGAGAGAGAGAGAGAGAGAGAGAGAGAGAGAGAGAGAGAGAGAGAGAGAGAGAGAGAGAGAGAGAGAGAGAGAGAGAGAGAGAGAGAGAGAGAGAGAGAGAGAGAGAGAGAGAGAGAGAGAGAGAGAGAGAGAGAGAGAGAGAGAGAGAGAGAGAGAGAGAGAGAGAGAGAGAGAGAGAGAGAGAGAGAGAGAGAGAGAGAGAGAGAGAGAGAGAGAGAGAGAGAGAGAGAGAGAGAGAGAGAGAGAGAGAGAGAGAGAGAGAGAGAGAGAGAGAGAGAGAGAGAGAGAGAGAGAGAGAGAGAGAGAGAGAGAGAGAGAGAGAGAGAGAGAGA'
p66
aF1.0
aa(lp67
S'Shortie 4'
p68
aS'GCGAAAGCAGCGAAAGC'
p69
aF1.0
aa(lp70
S'Shape Test'
p71
aS'AAAAAGAGAUCAAGGUACAAAAAAAAGUACCAAGACAGACAGAUACAAAAAGUAUCAGCUCGAAAGAGCAGUCGUCAAGAUCGCAAAAAAAAAAAAAAAAAAAA'
p72
aF1.0
aa(lp73
S'The Minitsry'
p74
aS'GGGAAAAAGAGAAAAGGAAAAAAAGACAAAAAGACAAAAAAAAGUCGGUCGUUCACUCACCC'
p75
aF1.0
aa(lp76
S'stickshift'
p77
aS'AAGAUAUCCGAAAAACGAGAUAUCAA'
p78
aF1.0
aa(lp79
S'U'
p80
aS'AAAAAGAUACAGAGAGCAGAGAUAUAUAGAAAACUAUAUAUCCGCCCGUAUCAAAAA'
p81
aF1.0
aa(lp82
S'Still Life (Sunflower In A Vase)'
p83
aS'AAAGGUCAAGACUGAAAAACGGUCAACAUUGAAAUUAAAAAGAUAUAAAAAAUAUUAACAAAUUAAAUUUGAACGGAUAAAAAGUAUGAAGCUGUAAAAUAUAGGUUAUAUAGAUAUAUAUAUAUUUAGGAUAUGAAAAAGUAUCAGAUAGGAAAAAAAAAAAAGAGCAAAAAAAAAAAAAAAAAAAAAAAAAAAAAAAAAAAAAACCCGUUCACAAAAAAAAAAACUAUCGAUUCGAAAGAAUCACUAGAUAUAUAUAUAUCUAUAUGUAUUUAUGAAAAGUGGAAGAAGAGAAAAACACAAAACACAUGAAAAAUGUGAUCAUAAAAAAAUUAUGUACAUAUGAAAAUAUGGACUAUGUAAAUCAUGGAGAUCAAA'
p84
aF0.9417989417989417
aa(lp85
S'Quasispecies 2-2 Loop Challenge'
p86
aS'AAAAAGGGCGAUCGGAGUAGAAAUACUAAGAUCGGAUCGACUAUGGAGAUCAAUGCGGUGGCACAAAAGGUGAAAAAGUAUGUCCAAAAAAAAAAAAAAAAAAAA'
p87
aF1.0
aa(lp88
S'Corner bulge training'
p89
aS'AGAUAUCGAUACAAAGUAUCAAAAGAUAUCA'
p90
aF1.0
aa(lp91
S'Spiral'
p92
aS'AAAAAGAUCAGAUAUCAGACAGAUACAGAUCAGAUCAGCAGCAGCAGCAGCAGCAAAAAGCGCGCGCGCGCGAUCGAUCGUAUCGUCGAUAUCGAUCAAAAA'
p93
aF1.0
aa(lp94
S'InfoRNA bulge test'
p95
aS'AAAAAAAAAAAAAAAAAAAAAAAAAAAAAUGCUGAAAAAACCCUAAAGCUCAAACACUAACAACUGAGUAAAAAACGUCUGUAUGGGAGAUGGAGGAGGCGAAAUGGAGUAAAAAAAGACGA'
p96
aF1.0
aa(lp97
S'Worm 1'
p98
aS'AAAAAAAUAAAAAUGGAUCGGGGUAAAAAUCCAGAGUAGGUGCCA'
p99
aF0.8666666666666667
aa(lp100
S'just down to 1 bulge'
p101
aS'AAAAAGAUCAGAUACGAAAGUAUCAGACGAAAGUCAGACUCAAAAGAUCAGACGAAAGUCAGACGAAAGUCAGAUCAAAAAAAAAAAAAAAAAAAA'
p102
aF1.0
aa(lp103
S'Iron Cross'
p104
aS'ACAGAGACAAAGGCACGGAAACCGGGACGAAAGUCAGCCAAAGGUACAGAAAACUGAGACAAAGUCAACCAAAGGCACAGAAAACUGAGACAAAGUCAGCCAAAGUCACAGAAACUGGCUGGA'
p105
aF1.0
aa(lp106
S'loops and stems'
p107
aS'AAAAAGAUAUACAAAGAUAAAAAUUCAAAGAUCAAAAAAAAAGAUACAAAAAAAAAAAAGUAUCAAAGAUCGAAAGAGCAAAAAAAAAAGCUCAAAGAGUAAAGUGAAAAAAAACACAAAUAUCAACCAAAAAAGGGAAGUAUAUCAAAAA'
p108
aF1.0
aa(lp109
S'Water Strider'
p110
aS'AAAAAGUACUGGCCGAGAGGCGAAAGCCGUCUAAUGGCCUCGGGGGGAGGGAAAAAUCCUGAGAAAUCGACGCUGAAGGGACAAAAAAAAAAAAAAAAAAAAA'
p111
aF0.9611650485436893
aa(lp112
S'The Turtle(s) Move(s)'
p113
aS'AAAGCGAAAGCAAAGGAGACAGUGAAAAAAAAGCGCUGUCUCGAACUAUCAAAAAGAUUAGAGGUGUCAAUACGAGACAUAUAAAAAAAAUAUGAAAAGGAAAGGCGAAAGCACUUUUGGGAAACUAUAAAACUCACAAAAAAGGUGAGUAAAGGGGGAACACGAAAAACCAUCCAAAUGAGCAAAAAACUCUACAGUAAAAAACCUGGAAUCCGCAAAAAAGUGGAGAUCAUGAAAAGCAUGUAGGAUGGAAAAAAAAAGCGAAAGCACACUGCAAAUGCAAAAGUGGUACAAAAAAAAACGUACCUAAAAAUCC'
p114
aF0.9746835443037974
aa(lp115
S'Adenine'
p116
aS'GAUACAGUUUUCGAAUAUCAGGUAUAAGAUAUAGCGUGGCAAAAGAGACGAAAAAACGUUUCGGUCGCGAGAUACAAAGAUAUACGAAGUAUAUCGUAUCGUAUAUCGGAUAGACAUAUAAAAUAUAUGUAAACUAUCGUAUACCAAAAGAUAUUAAAAGAGAACAAAGGUAUC'
p117
aF1.0
aa(lp118
S'Tripod5'
p119
aS'AAGAGACGUAAAAAGUACGCUUCGAAAAGAAGUCUCAA'
p120
aF1.0
aa(lp121
S'Shortie 6'
p122
aS'UCGAAAGAAGCGAAAGCAGCGAAAGCAGCGAAAGC'
p123
aF1.0
aa(lp124
S'Runner'
p125
aS'AAAAGGAUAAACUUAAAAAAGUCAAGGAACGGAGUAAAGCGAAUCUGAGGAAGGUACAGACGGUACAGAAGGUAAAGUCACUUAAUGAGAAACAGAAAGCUUGCUCUUGUCAAAAA'
p126
aF0.9655172413793104
aa(lp127
S'Recoil'
p128
aS'AAAAAGAUACAAGCAAGCAAGACAAGACAAGCAAGCAAAGCAGCAGUCAGUCAGCAGCAGUAUCAAAAAAAAAAAAAAAAAAAAA'
p129
aF1.0
aa(lp130
S'[CloudBeta] An Arm and a Leg 1.0'
p131
aS'AAAAAGAGAGAGACGAAAGUACUCGACAGCGAAAGCGUCACUCAAAAAAAAAAAAAAAAAAAA'
p132
aF1.0
aa(lp133
S'[CloudBeta] 5 Adjacent Stack Multi-Branch Loop'
p134
aS'GAUAGGAUCGAAAGAUCGCUACGAAAGUAGCGAUACGAAAGUAUCGCUCGAAAGAGCCUAUCA'
p135
aF1.0
aa(lp136
S'Triple Y'
p137
aS'AAAAAGAUGUUUGCACCUGAUGGUAGAUGAAAGCAUGGAAAAUGGUAUUAAAGAAUAGAUCAAAGGAUCUCAUUAUCGAAAAAAAAAAAAAAAAAAA'
p138
aF0.9175257731958762
aa(lp139
S'Misfolded Aptamer'
p140
aS'UUCGAAAAAAUGGCAAACUGCGUGAAGGUAAAGAGAGAGUAAAAAAGGGG'
p141
aF0.96
aa(lp142
S'Flower power'
p143
aS'AAAAAGAUGUCGCGAAGCGAAGUGCGAGCAAAGCUCAAGAUGUAUCAUCAGACAGUAUCUGUGCACAGACCAAAGGUCCAUCGAAAAAAAAAAAAAAAAAAA'
p144
aF1.0
aa(lp145
S'Kudzu'
p146
aS'AAAAGUAUUGAAUUGAGGUGGACCACCAAAAGGCAUCGUGGCACGUAUGGAUGUCCAAAUAAAGUUUAACUCUGAACUAUAAAAAAAAAAAAAAAAAAAAA'
p147
aF0.9801980198019802
aa(lp148
S'"1,2,3and4bulges"'
p149
aS'AAAAAGACUGGUCGCUAAUUUGAAAGACAGGCCAAUGUCGUGAUCAAAAGUGACGGAAAAAUGAACCUUUAGAAAUGGCUAAAGCAAAAAAAAAAAAAAAAAAAA'
p150
aF0.9428571428571428
aa(lp151
S'medallion'
p152
aS'GAUAUGACUAAGCGAAAGCUUAGAUACGAAAGCAACAGAAUGCUGACUAUGCGAAAGCAUAGACCCAAAAGGGACUUUGCGAAAGCAAAGACUGGAAACAGACAAGAAAUUGACUAUGCUAAGGCAAAGAUAGGAAACUAGCUGUGAGAAAGCAUAGAGUAAAAAGAGGCUUAAAACCGUCUUUGCGAAAGCAGAGAGAGAAAACUCAGUCGGCGAAAGCAGACACACAAAAGUGCGAAAAAAUUGAUGGUGCUAAUGCGCUAAUCUAAAAAGAACUAUGCGAAAGCAUAGGCAGAAAGCUGCGAGAAAACUGACUAUGCGAAAGCAUAGACAUAUC'
p153
aF0.9525222551928784
aa(lp154
S'[RNA] Repetitious Sequences 8/10'
p155
aS'AGGAAAAAAGCAAAAAAGCAAAAAAGCAAAAAAGCAAAAAAGCAAAAAAGCAAAAAAGCAAAAAAGCAAAAAACCAAAAA'
p156
aF1.0
aa(lp157
S'Documenting repetitious behavior'
p158
aS'AAAAAAAGGAAAAAAAAAGGGAAAAAAAAGGAAAAAAAAAGGAAAAAAAAAGGGAAAAAAAAGGAAAAAAAAAGGUAAAAAAAAUAUAAAAAAAAGGAAAAAAAAGGGUGAAAAAGACGAAAAAAAAAUGAAAUAAAACCUUAAAAAAAAGCAAAAAAAACGUGAAAAAAAAGAAAAAAAAAGAUAAAAAAAAAUGAAAAAAAAACAAAAAAAAAGGCAAAAAAAAACUGAAAAAAAACCAAAAAAAAAGCAAAAAAAAGCGGAAAAAAAAUCGAAAAAAAACAAAAAAAAAUUCAAAAAAAAACCAAAAAAAAUUGAAAAAAAAACCAAAAAAAAGCUAAAAAAAAACCAAAAAAAAGACAAAAAAAAACGAAAAAAAAACGGAAAAAAAGCUAAAAAA'
p159
aF0.9725
aa(lp160
S'7 multiloop'
p161
aS'GCCCCACGGGAAACUGUGCUCCCGAAAGGGGGUACGCGAAAGUGUAGAAGUGAAAACUUCGCCGGAAAGUUGGCGGUUAGAAAUGAUCGGGC'
p162
aF1.0
aa(lp163
S'Kyurem 7'
p164
aS'AAAAUGAUACAGACCGCAAGGUGCGUAAAGGUCAUGUGAAAAACAGCCCCAGGAAAAACUGAAAGGGGACCCGCCUGUUAUCUAAAAAAAAAAAAAAAAAAA'
p165
aF1.0
aa(lp166
S'JF1'
p167
aS'GAUAAAGAUGUACAUAGAAGAUACAAAUGAUAUCAUGAUACUAUGAGACAAGAUAUGACAUAUAUAUAUAUAAAAAUAUAUAUAUAUAUGAUCAGGAAACUGUCUAUGAUAUGAAAAUGUCAUAGUACAUAUGAAAAUAUGACAUAUCGGUCUCUGUAUCCGAUAUCUAAGAUAGACUAAAAAAGUACUAUCAACAUAUAUAUAGAUAUAUAUAUAUAAAAAUAUGUAUAUAUAUUAUAUAUAUAUGAAAGAUACAAAAAAGUAUCCAUGCUAUGCGAAAGCAUAGCAUGAGACAUGAAAACAUGAAGUAUCAAUUAUGAGAUCAGACAGACGAAAGUCGUCGAUCAGAUGCAUAGAAAACUAUGACAUCAACAUACUUAUAUCAAA'
p168
aF1.0
aa(lp169
S'multilooping fun'
p170
aS'UAAAGGAUGCAAACUGAAAACCCCAUGUGAAAAGAA'
p171
aF0.8888888888888888
aa(lp172
S'Multiloop...'
p173
aS'CGCGAGCUCAGACGAAAGUCAGCCGAAAGGCGUACGAAAGUGAGACGAAAGUCAGACGAAAGUCAGACGAAAGUCGGGGCGGUGACAAAAAAGUCAUGCCGAAAGGCCGUG'
p174
aF1.0
aa(lp175
S'hard Y'
p176
aS'AAAAAGAGCGUAUCUAUGACGAAAGUUAUAGCAACCAAGUAUUUAAAAAUAGAUAUUUGGCUCGAAAA'
p177
aF0.9705882352941176
aa(lp178
S'Mat - Elements & Sections'
p179
aS'AAAAAGAUAACAAGGAUAGGGUGCCGGAGGGGAUCAGGGUACGAAAGUAACACGAUCAACUCGGAAAAGAUCGACUAAGUGUAUCAAAAAAAAAAAAAAAAAAAA'
p180
aF0.9619047619047619
aa(lp181
S'Chicken feet'
p182
aS'AAAAGGAACCUGGAAAGCACCUAUGGAAUGGUUAGCUCGUAUAAAAUAGUAAAGCGAUUUGAAAAAA'
p183
aF0.8805970149253731
aa(lp184
S'Bug 18'
p185
aS'AGUGUAAGCAUCCAACACGGAAUAAGGGGACCGUUAGAAAGAACCGAAAAACA'
p186
aF0.9245283018867925
aa(lp187
S'Fractal star x5'
p188
aS'AAAAUCUACAAUCAAAUACAAAGGUAUGACCUCGAAAGAGGGACAGCUAAUGCUGGACAGAAAAAUCUGGAGAUUGUAGUAAAUUUGGGUUCAUGAACUAAUGUUUUACUACGAAAGUAGAUCGUCGAAAGAUGUCGAUCGAAAGGUCCGGAAUCUAAUAAAAGUAUGAAGGAAUACAAAAGUAUGACAUAGAAAUAUGAAUUGCAAAGGCGGAACACCAAAAGGUGGGCUUCAUAUAAAAACUUGGACCAUCGGGAAAACCUGUACAUCGAAAGAUGAACUUUGAAAAAGGAAUAUCAAAAGAUGAAGGUCCGAGAAAAAUGACGAUCAAAUCGAAAACGAUGAGAUUAAAAAAUCAACCUGGAAACAGGAGAACGGAAACGUUAAGAUCGUUAAAAAA'
p189
aF1.0
aa(lp190
S'Crop circle 2'
p191
aS'AGGCACGGAAACCAAAAAGUGAAAAAAAAAGAAAAAAAAAAAAAAAAAAAAAAAAAAAAAAUCAAAAAAAAAAAAAAACGGAAAAAAAUGAAAAAAAAUUAAAACCAAAA'
p192
aF0.9636363636363636
aa(lp193
S'Branching Loop'
p194
aS'AGAUUAUAAAAAAUCAAUGAAAGCGUUUAAAUCGAAAAAA'
p195
aF0.95
aa(lp196
S'Bug 38'
p197
aS'UGUUAGUUUAGGUAUAAAAGGUAGGAACUUAAUAUU'
p198
aF0.8888888888888888
aa(lp199
S'Simple Single Bond'
p200
aS'AAAAAAGGAAAAAAAUAAUCAAAAAGAUUUAAAAAAAACAAAAAAAAAAAAAAAAAAAAAA'
p201
aF1.0
aa(lp202
S'Taraxacum officinale'
p203
aS'CAGCGAAAGACUGACAGCGAAAGACUGACAGCGAAAGACUGACAGCGAAAGACUGACAGCGAAAGACUGACAGCGAAAGACUGAGAUAUAUAUACGAUAUAGAUACAAAGUAUACUAUAUCAGAUACAAGAUAUAUAUAAAGAUAUACAAAGUAUAUCAUAUAUAUAUCGAUCAGAUAUCAAAGAUAUCGAUCGUAUCAAAGUAUAUAUAUCAGAGCGAAAGACUCACAGCGAAAGACUGACAGCGAAAGACUGACAGCGAAAGACUGACAGCGAAAGACUG'
p204
aF1.0
aa(lp205
S'Headless Bug on Windshield'
p206
aS'ACCAGCAAAAUCCCUUUAACCAGAAAAAAGAAAAAAAAAAAAAAAAAAAAGUCAGCGAUGAGAGCUAAGUGGGGGAUAUGCCAAGGAAAAAAAUUAAAGAAAAAAGAACAGGCUAAAACGUCAGAGCCGAAAAAAGACAGAAAAGAUAGGAAGAUGCGCGAGGGGCCGAAAUCACGCAAGUAAAUUGGUCAAGGAAGUCG'
p207
aF0.95
aa(lp208
S'Pokeball'
p209
aS'AACGAUUCUAAAAAGCGAGGUAUUUAAGAAGGGAAUGAAGAAGGCAAGGAAAUCAGUAAUCAUGGCCAAUCAAAAUCCAGCGGAGAUCCCAAAAAUUAGAUACAAAAGCCAGGAUUCCAAGUAGGCAACCGAGGAAGAAAGCAAACUAGCGACCAGUAGCAAGCAGUGACCAGCGUAUCUGUAA'
p210
aF0.9782608695652174
aa(lp211
S'Variation of a crop circle'
p212
aS'AAAUGUAAAGACAAAAACAAAAGAAAUUUAUAAAAGGGAGGAAAAACAAAAAAGUAAAAAAAAUAAAAAAAAGACUAAAAAAAAAAAA'
p213
aF0.9545454545454546
aa(lp214
S'Loop next to a Multiloop'
p215
aS'AAGAUAUAUGAAAAGAAGUGUAUUCGAAAGAAUACGGGUAUAAAAAGUUAUAUCUUAAAAAAGCAUAUAUCAA'
p216
aF0.9726027397260274
aa(lp217
S'Snowflake 4'
p218
aS'CCUCAAGGAGGCUAUGCCAAAGGGCCUAGAAGCGACUCGAAAGACAUGAGAUCAAGGAUCAUCAUCUAUGAUGUUAGAAGGAAAUUGUCGUAUGGGACCAGAAAUCUGAUGCUACAAAGUAGAAAUUCAAAGAAUCAUCGACGAAAUGGUCCCUGCGUGCCUGAAAGGCGGUGCUCCAAGGGAGAAGAUCGAAGAUCCAUUGCCAAAGGGGUAUGAAGAUGCUCGAAAGACUUUUAUCAUAUUGGUAACUUAGAAUAGGGGUAGACAAACGGGUGUCGAGAUACGGAAAAUCCAAUGCAGCAAAGAUGAACAGCGAAGUUGCAUUGCGGAAAGUGUAUCGACUAUGGCGAAAGCCAUCGCAGCAAGGCUG'
p219
aF0.8729729729729729
aa(lp220
S'Mat - Cuboid'
p221
aS'GAAGCAAAAGGUAUGAAAAUGCAGGAAAAGAAGGAACCAAAAGGAAGCAAGUAAAAGAAAUAAGGAAGGAAAAGAGAGGAAGUAGGUAAAAGGAAGCAAGGAAGCGAGCAAAAGCGGGUUGGCAAGCGGGGAAAAGCGGGCGGGCGGGGGGGCAGGCAAAAGCGGGCGGGAGAGCGGACAGGCAAAAGCGUGCGGGCGGGGGGGAGGGCAAAAAAGUAAUUAAGCAAGCAAGCUAGCGCAGGUAAGCGAUCAAGCAAGCGCAGGCAACCAAGCAAGCAAGCCAAAGCAGGCAAGCAAACGCAAGGAAUCAAUAAAUUCCAAACAACCAGUCGCUAUCAGAUAAUACAAUCAGUCGAUACCAGAGCAACACAAUUCGCAGU'
p222
aF0.9052631578947369
aa(lp223
S'Misfolded Aptamer 6'
p224
aS'AAAAAAGAGAAAAAAGAUCAGGAAGAGAGAAAAAAAACUCGAAGCAAAAAGAUCAAAAAAACUCAAAAAAAAAAA'
p225
aF1.0
aa(lp226
S'Snowflake 3'
p227
aS'GAGGCGAAAACAGAGCAGAAAACUGAAGACGAGAUCAAGACGAAAGUACAGAGCGAAAGUUGGAAACCAUCGAAAGAACUGCAGAAAAUUGAAGAUUAGAUCAAGACGAAAGUCCGGCGCGAAAGCUGGAAACUAUCGAAAGAAUUGCAGAAAACUGAAGAUUAGCUCAAGACGAAAGUCCAGCGUGAAAGCAAGAAACUAUCGAAAGAACUGCAGGAAACUGAAGAGCACCUCAAGGCGAAAGCCCAGAGCGAAAGCCAUAAACUGUCGAAAGAGCUGCAGAAAACUGAAAAUCAGAUAAAGACGAAAGUCCAGAGUCAAAGCGAAAAGUUCGCAAAGGCACUGCGGGAAACCGAAUAUCGCAUGGAACCGAAAGGUCUCGGCGAAAGCCUC'
p228
aF0.8244274809160306
aa(lp229
S'Hard Y and a bit more'
p230
aS'AAAAAGAUACAUAGCUACGAAAGUAGAUAUUAAACGACGAGAUCGAAAGAUCAUGAUAUGAAAAAGUAUCUAGUAGUUUAGUAUCAAAAAAAAAAAAAAAAAAAAA'
p231
aF0.9716981132075472
aa(lp232
S'Mat - Lot 2-2 B'
p233
aS'GAAUGCUGGAAGGGGGAAGAACUGCUUAGAAAGAAAAAGGAUGUUUAAUUAAAAUCAAGCCGAAACAAUCGGACGCGAGGCAAAGCGGGAUGGAGAAAAAGGGAAAUCUCGACAAAAAUCAAGCGUGAGCGCUGCCAAUAGAAAUCACGGGAUCGGGCAAAAGGGAGGCCUAAUGGAAAACCGAUCGCAAGAAAAACCAAGCGCAUGCAAGUAAGAGCGGGCAAAAAGGAGAUCGGGCAAAAGCAAAGGUCCAAGAAAAAUCGACAGAAAGCGCAAUGAAAAGU'
p234
aF0.8556338028169014
aa(lp235
S'Shapes and Energy'
p236
aS'AAAAACGGUUCCGAUUCAAAAGCAAAUUCUAGAAAAUGGGUUCACGAGUCCUCAAAAAAAUAGUAAUCUAUACGCUGCCCAAAAAAAAAAAAAAAAAAAAA'
p237
aF0.9603960396039604
aa(lp238
S"Spiral of 5's"
p239
aS'UAAAAGAUACAAAGAUAGAAAGAUAGAAAAGAUACAAAGAUAGUAAGAUAGAAGAUUCAAAAGCUACAAAGAUAGAAAGAUAGAAGAGACAAAUAUAGAAAGAUAGAAGCUACAAGGAUAGAAGAUUCAAGACACAAGAUACAAGAUACAGAUACAAGUAGAAAUAAAAAAGAUUUCGGGGCCAUUAAAACGUAUCAAAAAGUAUCAAAAAGUAUCAAAAAGUGUCAAAAAGGAUCAAAAACUAUCAAAAAGUAGCAAAAACUAUCAAAAACUAUGAAAAAGUUUCGAAAACUAUCAAAAACUAUCAAAAAGUAGCAAAAAGAAUCAAAAACUAUCAAAAUCUAUCAAAAAGUAUCAAAAACUAUCAAAAACUAUCAAAAAGUAUCAAAAAGAAAAA'
p240
aF0.9949622166246851
aa(lp241
S'Campfire'
p242
aS'AAAACAGCGACAUAUAAGUACAAGAACAAAAUGAUAAUAUCCAAGGGAAUGUCUUCGGUAGCGGCAGCAGACAGGAAACUAGUCGCGCGAAGCUGCACCAGCAAAGGCGGGCGUUAAGAUUAAUAUACUAGACAUGUAUGCCCUAACCAUAUGCAGAUACAGGAAUAUCUAAUGAGGUCCGUGGAGAGAUCGAAGAUACUAAUCCCUGGGUG'
p243
aF0.8584905660377359
aa(lp244
S'Anemone'
p245
aS'AAAGAUAGCGAAAGCUAUCGAGUCUAAUGACUCCAUAUCUAAUGAUAUGCGUAUAAAGGUACGGUUCUCUAAUGAGAACGAUACGAAAGUAUCGAAAGGAAACUUUCCAGGUCGAAAGAUCUGAGAUACGAAAGUAUCCUUAACAAAGGUUAGGGAGACGAAAGUCUCGAGAUAUAAUUGUCUCGAUACGAAAGUAUCCAUAUAGAAAUAUGUG'
p246
aF1.0
aa(lp247
S'Fractal 3'
p248
aS'AAAAAGAUCAGGGAGUGAAAGCGCGAAAGCACCCAGAGAGCGAAAGCGCGAAAGCACUCAGAGAGCGAAAGCGCGAAAGCACUCAGUGAGCGAAAGCGUGAAAGCACACAGAUCAAAAA'
p249
aF1.0
aa(lp250
S'Kyurem 5'
p251
aS'AAAAAGAUGUAGGAGACAGGUCGGCAAAAUAUCGUGUAAAGUCGAAAAAACGUGCUAUAAAAAGGUAAAAUGGAACUAACCAGCGAAAAAAAAAAAAAAAAAAA'
p252
aF0.9230769230769231
aa(lp253
S'Snowflake Necklace ( or v2.0 )'
p254
aS'UAUAUAAAUAGAUACAGAUAUAUCGAAAAGCACCAAAAAGGAUCAAAAAGGACCAAAAAGGACAAAAAACGAAUAUCUCACAAAAAGUGUUAUACAGCAAAAAGCACGAAAAAUGACCAAAAAGGAUCAAAAAGAACCAAAAAGGAGUAUAGGUGAAAAACGCGGAUAUAGGAAAAACCAUCAAAAAGAAAGAAAAACUAUCUAAAUGAGAGUAAAUCUAAUAUCAGAGAAAAACUCAUAUACAGCGAAAAGCACCAAAAAGGACAGAAAAUGAGCAAAAAGCAGCGAAAAGCAGUAUAAGGGUAAAUCCCAGGGAUAGCAAAAAGCGUUUAAAUAAAUGAAAAACAACCGAAAAGGAGCGAAAAGCGAUUCCAGUAUCUAUUUAUAUG'
p255
aF0.8817480719794345
aa(lp256
S'Methaqualone C16H14N2O Structural Representation'
p257
aS'AGGAGUUGAUUAGAUCGGAGAGAUGAAAAUCAGAGACAGUAAUCUGGGAGAGUCAAAGGGCGGGGUAGGAAAACUGUCAAGAAAAAACUGACCCACUCACUCACUCCGUAUCAGAUCAGUAUAAAGAACUGAAAGCAAUGUAAAAAAAACGGGGAGAGACGAAAGUCGAGAAAACUAUAGACAACUACUCAACAAAGGUCUCAAAGAGACAGAGACAGAGAGGUUAAAAAGACGAAAGUCGUACACACAAAAGUGACUCUGACGAAAGUCUCUGAGACGAAAGUCACUCACAGGCCGAAAGGCCCCUAAUGGGACUUAAAAAUGCUGAGUCUGAUCAAAAUACAGACGUGGGAAA'
p258
aF0.8929577464788733
aa(lp259
S"Cat's Toy 2"
p260
aS'AAAAGCUAUGCCUACAUUUAGAAAAAAAAAAAAAAAAAAACAAGGAAAGGUAAUCCGAACAAAAGUGAAAAAAAACCGAUAAUGAGGCGUAGCAAAA'
p261
aF0.9587628865979382
aa(lp262
S'Zigzag Semicircle'
p263
aS'AAAGACACUGUCAUAAAAGUCGACUAGUGUAAAA'
p264
aF0.9411764705882353
aa(lp265
S'Short String 4'
p266
aS'AAAAAAGUACGAAGCAAAAAAGGUCUACGAAAGUGAAACAAAUAGGGAGCAAAGGCGACUGAGAAAUAGCAACGGCAAAAAAAAAAAAAAAAAAAAA'
p267
aF0.9381443298969072
aa(lp268
S'Gladius'
p269
aS'CGAAAGAAGGAAAGGAAGAGUAAGAAAAAGAGGAGCAAAGGUCGAAAGACCAGAUAGAAUUGACAAAAGAUCAUAAGAUCAAUUGAUAAAGCAGAUAUUCGGUAGUGAUGAGAUCAAGUUCAAGGAGCAGAUACCAUCUAUACCUCAUAUUGACUUUAUCUAAAGAUCAACGGAUCGGCAGUCUCCAUUAUCGGCUAAAGACAGAGUUUGAAGACGGAAAAUCGGAAGACUGGAAGAGUGGCAGAUAUCAGAUACAGCUAUCAGUGAGAUACAGAAAUGUAUCGCCACGAAUAGACGUAUACGAUAUACGUUGCUCGUAAGGUUACAAGAUUGCAAGUCGUAUGAUUCAGAAGAAAGCUUCAAAGUCACUUAAACAAUGCAACAAAAGAGAGAACGAAAG'
p270
aF0.8975
aa(lp271
S'Thunderbolt'
p272
aS'GGAGGAUAUAAAAAAAAGAAGUAAUGUAGAGGAAAAAGAGGUAUGUGAAAAAAAACGUUAAAAGGAUCAAAAAGAUCAAAAAUGCCAGGCGGGCUAAAAAAGAACAAAAAAGGACAAGAGGCCAAAAACGAAAGAGAUAAAAAAGGGAAAAAUAGGCAAAAAUGGCAAAAAAAACCCAGAUUUGAGAGAAAAAGAGUGGCAAAGCAGAACAAAAGAACGGUAAUCAAAAAAAAUAUCAGGGGGAAAUCAAAGAUUUCAGGAAUCGGAAAAAAAAUGCAAGUAAAAAAAAAGCGGUAAAAGCUAAACAAAAAGGAAAAAAACAAAAAGUUUAGAACAUCAAACACAUACCAAAAAAAAGAAAAUUAAAAAAAUACAAAAAACGGUAUUAUUCA'
p273
aF0.9336734693877551
aa(lp274
S'Mutated chicken feet'
p275
aS'GAAAAAUUGGGGAGCAAAGCAUGGAACGAAGUCUAAUCAGGACCUAUGCAACGAAGCAUAAUGAGGGACCUGCUAUGCAGGUAUCUAAUAGUCAAAAAAA'
p276
aF0.86
aa(lp277
S'Chicken Tracks'
p278
aS'AAAAAAAAGAUAUACCUUCGAAAGAGGAAGACCGAAAGGUCAACAUCGAAAGAUGGUAUAUCAAGAGCCUGGAACAGGAAGAUCAAAGAUCAAGCUAAAAUAGCCUCAAAGAAAAA'
p279
aF1.0
aa(lp280
S'Looking Back Again'
p281
aS'GUCGAGACAGUCAAAAAGUUAUCGAAGAUAACAGACUAAGCUCAGAAGACAAACUCCUGCGAUACAAAGAGGGAAAUUUCAAAGGAAUAGAAUCAAUUCAAGGAUGAGGAAAGCAUACGAAAGUAUGAAAAAAUUCGCUCAUAUCCAAAGGCCCCAUAGAAAUUACGGAAAUCGUAAGAGUAAGAGUAAGAGGAUAUAAUUAUCAACGGAACAAACGGUGAAGAAAGUUAAGAAUUCAAACUAGCAUCCAGAUUGAGAUCAAAAAAGAGAUAGAAAAAAAAGAUCUAAAUGAUCCAAGAAACUCGGAAUGUUUAAAAAAGCCUAUGCGAAAGCAUAGAAGGACUAAAAGAUACAUAAAAUGUGAAGUUGCAGAGAAACAGAUCAAAGCC'
p282
aF0.7969151670951157
aa(lp283
S'Multilooping 6'
p284
aS'AGGCUGCCUGGCGACAAAGUUCUUGUUUUGAAAGGAACGGCGGGGCAAAUAAUUUUGAGUUCUUAAUGGGACCUCGCAGUAA'
p285
aF0.926829268292683
aa(lp286
S'Cesspool'
p287
aS'AAAGAAGAAAACAUCGCGGUAGAGAGAUGCUCAGCAAAAACGUUAGAGGUAAUCAACAAGGUAAAAAAAUAGAGCUGAAAGAACAAUAGGAGGAAGAAAACAACAGAGUAUAGGGAAGUCCACGAAAAGCUGAAGAGGAAAACAACAAAGUAAAAAAAUAGAAUUGAAAGAACAGCAAGCGUGAGAAAAUUAACAGAGUAGAGCCAAAGGCACUAGAAACUGAAGAGCAAAAGAACAAAGUGAAAAAAGAGAGGCGAAAGAUCUAGCAAGCAGGAAGAAAACAACAGAGUAGAGAUAAAAUAACCAAAAACUGAAGAAGAAAAGGACAAAGGGAAACAAUAGAGCCGAAAGACCAAGC'
p288
aF0.7374301675977654
aa(lp289
S'Hoglafractal'
p290
aS'AAGGGGUAGAUACAAAAGAUACAAAAAAGUGUCGUAUCGCUAAAUGAUCGAAAAGAUCUAGAUAGAACGCGAAAGCGCUAAGAGAAAGAUGAAAGAUCAAAAAAGAUCGGUUCAUAAGACAAAAAGUCGUGCCAGCGAAAGCGGAUAUCAAAAUACAAGAUAAAAAAAUCGUCCCAGCUAAAUGCGGCAGAAAACUGACACCCAAAAAGCAUCAAAAAAGGGCAAGAAAAACUUCAGAAAUGUGAUGGGAAAAAAGCUGAAAAAAGCAAAGAAAGAGCACUAUGACUAUGUCAUAGCAAAAAACCCAUCUAAAAAGGGUGAAAAGGAUUAAAACUCAAUACAACGAAGAGCAGAUCAAAACGGAAACGCCGAAAGUAAUAUCAAAGAUAUUCGAUCGCGC'
p291
aF0.905
aa(lp292
S'Bullseye'
p293
aS'AAAAUGUAUCAAGGAUAAAGAUCAAGGAUCAAUAUGUAUGAUACGUGAAAAAAAAGCCACCAAAGCUGAGGAGCACGGUUCAAAAGCAAAGCUACUUGAAAAAAACAGGUUGAAACAUCACGAUCAAAAAUCAAGACCAAGCGUCAUGGAAAAAAGGUGGAUCUAUGAUUAAGAUGAAGUAUCAAGAUCAAAGAUCCAUAAA'
p294
aF0.8514851485148515
aa(lp295
S'Shooting Star'
p296
aS'AAUAUGGCUAUGGAUAAUAAGAAGGGCUGACAGACAACGAAAGAUGAACGUCUGACAAUCGUUUAGCAAACGGAGAUGAGGGGGACAGAGUGGCAGGCAGAUGAACGAAAGAUUAUACGCCGACCGACCUGGCACUACGUGGAUAAUCAGUUCGGAGCGUUCUAAAAGAAAACAUAUAAAAUAUGAGAAAAAUAUAAAAGAGAUCAGUAUACAUGAAGGGUAGCUAAAAGCAAUCACACCGAAAUAGUCUAGGGAGAUGGUAUUCCUCUCACAGAUCCUGAUCGCAGCGUCAAACGAAAGGUUUUUCAAUAGAGGCAGAUCAGCGAAAGACGGUACGUCGCAAAGGCUGUUUGAUCACAUGUUA'
p297
aF0.7197802197802198
aa(lp298
S'Teslagon'
p299
aS'AAAAAAGGUAAACAAGUUGAGAAAGAACCGACGUGGGAGAGGGGGAAACAAAGAGAGUAUUGGGGGGGGGGGGAUGGGGCAAAAGAAUCAGAAAAAAAAGGGGGGGGGGGGGGGAACCAAAAGAAUCAUUGAAAAAAGAAACGGCGAGGGGGGGGAAGUAAAGAGAGACCAGAGGGGCGGGGGAAGGGGCAAAAGAAACAGGAAAAAAAGCGGGGGGGGGGGGGAAGAAAAAGAACCGGUAAAAAAGGCAGCGGGCGGGGCGGGGAAGCAAAGAGAGGGCGGGGGGGGGGGGGAAGCAGCAAAAGAAACAGGAAAAAAAGGAAAAAAAAAAAAGGGCGGGGGGGGGGGAAGCACCGAAAGAAACGGCAAAAAAUUUAGAAAA'
p300
aF0.8717277486910995
aa.