(lp0
(lp1
S'Simple Hairpin'
p2
aS'GAUACAAAAAAGUAUC'
p3
aF1.0
aa(lp4
S'Arabidopsis Thaliana 6 RNA - Difficulty Level 0'
p5
aS'GAUAGACAAAUCACAAAAAAAAAAAGUGGAUAGAUCUACAUAUAUAUAUAUAUAUACAAAGAUACAAAAAAGUAUCAGUAUAUAAUAUAUAUAUAUGAUGAUCUAUCAAGUCUAUC'
p6
aF1.0
aa(lp7
S'Prion Pseudoknot - Difficulty Level 0'
p8
aS'GAUAGCAGAUCAAAAGAUCGCUAAUCAAAAAAAAAA'
p9
aF1.0
aa(lp10
S'Human Integrated Adenovirus - Difficulty Level 0'
p11
aS'GUUAGAGAAAGUUUGGAUAGCAAAAAAAAAAGGCUCCACUUACAGAAAUGUAUGAUCGAAAUGGAAUGCAAUUGAAAAAAAGUAAUUGCGUUGAAACCGGAUCAAAAAUACUGUCAAAGGGUGAAAGAUAGGGAAAAAACCUAUCGAGCAAAAAAAAAAAGGCUAUCAAAGCAAAAUUUCUCAAAUAGCAAA'
p12
aF0.96875
aa(lp13
S'The Gammaretrovirus Signal - Difficulty Level 0'
p14
aS'AAGUGUUCAGAUCAAAAGAUCUGUUCUCAAAAAAGAUCAAGACAGAUGCGGUCAAAAGACCGGAAACAUCGUCGAUCAAGAUAGAUCGAAAGAUCUAUCAA'
p15
aF1.0
aa(lp16
S'Saccharomyces Cerevisiae - Difficulty Level 0'
p17
aS'GGGAGCCGAUCUAAAAAAUGAUCAGGGAAAAAAAAAAAAAACCAAAUCGGACAAAAAAAGUCCGGGCUCUCAAAGGAGACAGAAUAUCGAAAAAAAGAUGCCGAAAAAAAAAAAAACGGAAAUCACACAAAAAAGGUGUGCUGUUUCAAAUGAUUGGCAAGAUCUAAAAAAUGGUCGAUAGCAAAAAAAGCUAUCAAAUCAGACUAAAAAUGUCUGGUCAAUCUAAAGAUAGACAAGAACGAAAAAAAGUUCUAUAGCAAAAAAAGCUAUAAAAUCUGUCUAAAAAUGACGGGUCUGUCAAAGGAGAGACAAAUGCAAAAAAAAGCAUGAUAGCAAAAAAAGUUAUCAAAUCAUACAAAAAAAGUAUGGUCUCUCAAAA'
p18
aF1.0
aa(lp19
S'Fractal 2'
p20
aS'AAAAAGAUAGAUCAAAGGUAGAUAAUAAGAGCAAAAAAAAAAGCUCAAGAGCAAAAAAAAAAGCUCAAGAUCAAAAAAAAAAGAUCAAAUUAUCUACCAAAGAUAGAUUAUAAAAGCAAAAAAAAAAGCUUAAGAGCAAAAAAAAAAGCUCAAGAUCAAAAAAAAAAGAUCAAAUGAUCUAUCAAAGAUAGAUAAUAAGAGCAAAAAAAAAAGCUCAAGAGCAAAAAAAAAAGCUCAAGAUCAAAAAAAAAAGAUCAAAUUAUCUAUCAAAGAUCUAUCAAAAA'
p21
aF1.0
aa(lp22
S'G-C Placement'
p23
aS'GAUCAAAGAUCU'
p24
aF1.0
aa(lp25
S'The Sun'
p26
aS'CACAGAUUAAGGAAUUCGAAAUAAUCAAAGAAAGAGUGACGAAUACACAAUCGCAGAAGGGAGCUUGACAAAGUCGACAGCCUCGAAUACAGAUGGACAAGGUCUUAAUCGUGAAUGACAGAGACGCAAGGUGUCACUCGUCUAAGACACAUGGUCGAAGCCUAAAUCGUCGAAGUCAGAUUCACAAUGUUAAAGUCGGCAAAGGGAGAUAAGCAAAGCUUAAAUACUUGAAGCCAGCUAGAUAAAAUCUAAAUCGGU'
p27
aF0.7596899224806202
aa(lp28
S'Frog Foot'
p29
aS'AAAAAAAAAAACCUUAAUGGGUGAGUGAAAGCUCGGUGGAACACC'
p30
aF1.0
aa(lp31
S'InfoRNA test 16'
p32
aS'UAUAGCUCGAAUUAUAAAAGUAAUCUCAGUGCUAUG'
p33
aF1.0
aa(lp34
S'Mat - Martian 2'
p35
aS'GAACAAAAGUUCAAAGAUAGACAAGAUAGACAAAAAAAGUCUAUCGUCUAUCAAAGAAAAAACAAAAAAGAUAGACAGAUAGACAAAAAAAGUCUAUCGUCUAUCAAAGAUAUAGAAAUAUUAAAAAAAGAUAUUUACUAUAUCAAAAAAGUUUUUUCAAAGAAAAAAGAUAUAUAAAAAAAGUAUAUCAAUUUUUUCAAAGAUCAAAAGAUC'
p36
aF1.0
aa(lp37
S'square'
p38
aS'GAUAGACCGGUACCGGUAGCCGGUACAAAGUACCGAAAAGCUACCGAAAAGUACCGAAAAGUCUAUC'
p39
aF1.0
aa(lp40
S'Six legd turtle 2'
p41
aS'AAAAGUGAAAUCUAAAACGAAGCGAAAGUAAUGAGAAUCUUAAGAAAAAUUGUAUGAAAACUAAGGCAAAAUUAAAUCAAAAAAAAAAAAAAAAAAAA'
p42
aF0.9591836734693877
aa(lp43
S'Small and Easy 6'
p44
aS'GCGGUAAAAGACAAGGUAAAAAAAUUCGGU'
p45
aF0.8666666666666667
aa(lp46
S'Fractile'
p47
aS'AAAAAAAAAAAACCAAAAACAAGGGAAGUAAAAAUAAUGUGAAGGAAAACUAAAAUUAGGAAAAGUAAAUCUUGAAAAAACUAAAAAAAAAAAAAAAAAAAAAAA'
p48
aF0.9619047619047619
aa(lp49
S'Six legd Turtle'
p50
aS'AAAAUGGGAAAUCAAAAGAGAAUGUAAAACCUAAUGAAAAGCUUAAGCUAAAAGGAAAUGAAAAAUCUAAAUUAAAAGAAAAAUAUAAAAAAAAAAAAAAAAAAA'
p51
aF0.9428571428571428
aa(lp52
S'snoRNA SNORD64'
p53
aS'GAUAGCAAAAAGACAAAAGACAAAGAUACAAAAAAAAAAAAAGUAUCGAAAGUCAAGUCAAGCUAUC'
p54
aF1.0
aa(lp55
S'Chalk Outline'
p56
aS'AAAAAAGUCAUAUGAGAAAUCACUAGGACAGAGAAAGCACGUCAAAUUUCAAAAGUAAGUUACUGCAAAAAUGUAGGGCCUAAAAAAAAAAAAAAAAAAAAAAA'
p57
aF0.9807692307692307
aa(lp58
S'InfoRNA bulge test 9'
p59
aS'GAUAGAGAGAGAGCGAUAAACGAAAGUUUAUCCCCCUCUAUC'
p60
aF1.0
aa(lp61
S'Tilted Russian Cross'
p62
aS'AAAAAGAGUGGGCGAAAGCCCCAGGAGAAGGAAACUUCGUUUCGAAAGAAACAGAUGUAAACAUCCCUGUAGCAAAGGCUAGCUCGAAAAAAAAAAAAAAAAAAA'
p63
aF1.0
aa(lp64
S'This is ACTUALLY Small And Easy 6'
p65
aS'AAAAAAAAAAAAAAAAAAAAAAAAAAAAAAAAAAAAAAAAAAAAAAAAAAAAAAAAAAAAAAAAAAAAAAAAAAAAAAAAAAAAAAAAAAAAAAAAAAAAAAAAAAAAAAAAAAAAAAAAAAAAAAAAAAAAAAAAAAAAAAAAAAAAAAAAAAAAAAAAAAAAAAAAAAAAAAAAAAAAAAAAAAAAAAAAAAAAAAAAAAAAAAAAAAAAAAAAAAAAAAAAAAAAAAAAAAAAAAAAAAAAAAAAAAAAAAAAAAAAAAAAAAAAAAAAAAAAAAAAAAAAAAAAAAAAAAAAAAAAAAAAAAAAAAAAAAAAAAAAAAAAAAAAAAAAAAAAAAAAAAAAAAAAAAAAAAAAAAAAAAAAAAAAAAAAAAAAAAAAAAAAAAAAAAAAAAAAAAAA'
p66
aF1.0
aa(lp67
S'Shortie 4'
p68
aS'GGAAAACCAGGGAAACU'
p69
aF1.0
aa(lp70
S'Shape Test'
p71
aS'AAAAAGUGAUCAUGAUACAAAAAAAAGUAUCUAGACAUGCAGAUACAAAAAGUAUCAGAGCAAAAGUUCAGCAGUCGAGAUCUCAAAAAAAAAAAAAAAAAAAA'
p72
aF1.0
aa(lp73
S'The Minitsry'
p74
aS'GCGAAAAAGGAUAAAACCGAAGAAGGGAAACGCUCAAAAAAAAGAGACCCGUGGCUCCGUGC'
p75
aF1.0
aa(lp76
S'stickshift'
p77
aS'AAGAUAGCCCAAAAAGGAGCUAUCAA'
p78
aF1.0
aa(lp79
S'U'
p80
aS'AAAAAGAUACAGAGAGCAGAGAUAGAUACAAAAGUAUCUAUCCGCCCGUAUCAAAAA'
p81
aF1.0
aa(lp82
S'Still Life (Sunflower In A Vase)'
p83
aS'AAAAUCGAACCAACUAAAUGUUGGAACACAAAAAAACUAAACAGACGAAAAGUCUGGGAAGCAAAAGAAUGAGCAGACAAAAAGUCUGAACAGUCGAAAAGGCUGAGACACAAAAAUAUAUCGAUAUACGAUGAAAAAAAUCAUCAGAUAUUAAAAAAAAAAAAGGUGGAAAAAAAAAAAAAAAAAAAAAAAAAAAAAAAAAAAAAAAACACCAAAAAAAAAAAAUGUAUCGCUACUAAUGUAGUAGUAUAUUGAUAUAUUUUUGUGUCAAGUAUCAAAAGCACAAGAGAUACAAAAAGUAUCGCCAUUCAAAAAGACUAAGGAUUGAAAAACAAUCAAGAAACAAAAAAGUAAUUAUCUAAAAGAGAUAACGAUGAA'
p84
aF0.9417989417989417
aa(lp85
S'Quasispecies 2-2 Loop Challenge'
p86
aS'AAAAAGAGGGCUGGAUCGGUAAUCUGGGACAGCAGAGCAACAAAGGGGCUCAGUUCGGUAGCGCGAAAAGCGAGAAAGGAUCCUUGAAAAAAAAAAAAAAAAAAA'
p87
aF1.0
aa(lp88
S'Corner bulge training'
p89
aS'AGAUAGCGAUACAAAGUAUCAAAAGCUAUCA'
p90
aF1.0
aa(lp91
S'Spiral'
p92
aS'AAAAAGAUCAGAUAGCAGACAGAUACAGAUCAGAUCAGCAGCAGCAGCAGCAGGAAAAACCGCGCGCGCGCGAUCGAUCGUAUCGUCGCUAUCGAUCAAAAA'
p93
aF1.0
aa(lp94
S'InfoRNA bulge test'
p95
aS'AAAAAAAAAAAAAAAAAAAAAAAAAAAAAGAGGGAAAAUGGGCAAAAGAGCGAAGAGCAUCAGCGGAGCAAAAAGCAUCAGCAUGUGGCAUCAAAGCAUCAAAAGGCAUCUAAAAAUCAUCG'
p96
aF1.0
aa(lp97
S'Worm 1'
p98
aS'AAAAAAAGAUAUGGAUGAGAUUAAAAAAUGGGGACAGACAAGGGU'
p99
aF0.9555555555555556
aa(lp100
S'just down to 1 bulge'
p101
aS'AAAAAGAGCAGAUACAAAAGUAUCAGACAAAAGUCAGCAUCAAAAGAUCAGACAAAAGUCAGACAAAAGUCAGAUCAAAAAAAAAAAAAAAAAAAA'
p102
aF1.0
aa(lp103
S'Iron Cross'
p104
aS'AAUCAUCAAAAGGCAGUAAAAUGUUGGCUAAAGUCGGCCAAAGUUACUCAAAAGGGAGUCAAGGACGGGUAAUUCCAGACAAAAGUCAGAUAAAAUCACGAUAAUUAAGAUGAAAUCAGAUGA'
p105
aF0.9512195121951219
aa(lp106
S'loops and stems'
p107
aS'AAAAAGGUAGAGAAGUGUUAAGGUUCUAACCGUAAAAAAAAAGGUACAAAAAAAAAAAAGUAUCAAAACGGGAAAGAGUUAAAAAAAAUGCUCAAUGAGCAAAGUCGAAAAAAAGACAAAAACGAAGGAAAAAGCCAAAUUCUACCAAAAA'
p108
aF1.0
aa(lp109
S'Water Strider'
p110
aS'AAAAUGAGGCAGAUGAAAGUCGAAAGUCUACGAAAGUAGUCGCCGAGUCGGGCAAAUUCUACGAAAGUAAAUUAUAGGCAUCUAAAAAAAAAAAAAAAAAAAA'
p111
aF0.941747572815534
aa(lp112
S'The Turtle(s) Move(s)'
p113
aS'AAAGGAAAACCAAAAGUUAGGGAUUAAAAAAAUAUCCCUAGCGAAGCAGUAAAAGACUGAAAAGCACGAAAGUGAGACGGACAAAAAAAGUCCGAAAAGGCGAACUGAAAAGAAAAACACAAAAGUGAAAAGAUAGCAAAAAAAGCUAUCGAAAGGCGAAAGUCAAAAAGAUAGAAAAAGACAAAAAAAGUCAAGACUAAAAAAUGUCAAAGAUGCAAAAAAGCAUCAAAGAUCAAAAAGAUCAAUCUAUCAAAAAAAAAGCAAAAGCAAAAACCGAAAGGAAAAAUCAGACAAAAAAAAAAGUCUGUUAAAAGCC'
p114
aF1.0
aa(lp115
S'Adenine'
p116
aS'GAUACAGAUAGCAGAUAGCAGAUAGCAGAUAGCAGAUAGCAAAAGAUAGCAAAAAAGCUAUCAGCUAUCGGAUACAAAGAUAGACAAAGUCUAUCGUAUCAGCUAUCAGAUAGAUAAAUUAAAGAUUUAUAAACUAUCAGCUAUCAAGAGCUAUCAAGAGCUAUCAAGAGUAUC'
p117
aF1.0
aa(lp118
S'Tripod5'
p119
aS'AAGGAGUAUGGUAAACAUAGCCCAAAAGGGGCCUCUGA'
p120
aF1.0
aa(lp121
S'Shortie 6'
p122
aS'GGGAAACCAGGAAAACCAGGAAAACCAGGGAAACC'
p123
aF1.0
aa(lp124
S'Runner'
p125
aS'AAAAAGAGAAUAUCAAAAUCAGUAAAAAUCCAGUCAAUAACGAGAUAGCUAUGGUCAAAUCUGUAUCAAAGAUAAAGCAAGUCUAAAAGAAAGCGAAAACUCACUUAUAUGGAAAA'
p126
aF0.8793103448275862
aa(lp127
S'Recoil'
p128
aS'AAAAAGAUACAAGGAAGGAAGACAAGACAAGGAAGCAAAGCACCAGUCAGUCACCACCAGUAUCAAAAAAAAAAAAAAAAAAAAA'
p129
aF1.0
aa(lp130
S'[CloudBeta] An Arm and a Leg 1.0'
p131
aS'AAAAAGACAGCUACAAAAGUAAGCGACAGGAAAACCGUCAGUCAAAAAAAAAAAAAAAAAAAA'
p132
aF1.0
aa(lp133
S'[CloudBeta] 5 Adjacent Stack Multi-Branch Loop'
p134
aS'GAUGGCGUCGAAAGAUGGUCCUGAAAGGGACGGGCGGAAACGUUCGGAGAAAACUCCCUAUCA'
p135
aF1.0
aa(lp136
S'Triple Y'
p137
aS'AAAAAGAUCUAUCAGGCAAAGGCUUGCGCAAAAGUGUGACAGCUCCCUCUAAUGAUUUUCGGAAACAGCUAUUGAUCAAAAAAAAAAAAAAAAAAAA'
p138
aF0.9175257731958762
aa(lp139
S'Misfolded Aptamer'
p140
aS'GAUUGAAAAAGGGACAAAGUCAGGAAAACCAAAAAAAAACCAAAAAGAUC'
p141
aF1.0
aa(lp142
S'Flower power'
p143
aS'AAAAUGUUGAAACGAAGAUUGGGGAUGCGGAACGUAAAGGUGAAGCAGCAAAUCUGAAAGCUUGCUACUUCAAGGAGCUGUCUAAAAAAAAAAAAAAAAAAA'
p144
aF0.9019607843137255
aa(lp145
S'Kudzu'
p146
aS'AAAAUCGCGAAGGUUUCGAAUUAAGCAUAUAGGAAAAACGAAGGGUAUCCACUUCAUCAGAAAUUGUACGAGUCAACAGCGUAAAAAAAAAAAAAAAAAAA'
p147
aF0.9405940594059405
aa(lp148
S'"1,2,3and4bulges"'
p149
aS'AAAAUAGUAUGCCGAUAAAGUUAAAGGCUGAUAAAAGUCUUGCUUUAAUGGCAAGUAAAAAUAAAGCAGGGGAAACUCGACCACCUAAAAAAAAAAAAAAAAAAA'
p150
aF0.9428571428571428
aa(lp151
S'medallion'
p152
aS'ACUAGCAGAUUCCUAAUGGAAUUAGUGAAAAGAUUCUAAAAAAAUAGAUAGCAAAAGCUAUCAGACAAAGGUGAGGUGGCGAAAGCUACCAGAGAAAAAUCGGAAAAAAGUGAGCUAGUAAAAGCUAGUAGCCAAAAGGCUGAUUGAAAAAUCGAUCAAAAAAAAUGCGUAAAAAAGUCAGAAAGUAAAAGAUAUAAGACGAAAGUCUGUUAGCAAAAGCUAACUAACAAAACUCGUCCAAAAGGAUGAUAGGGAAAUCUAUCUGCCAAAAGACAGUUCACAAAAGUGAGCAGGCCCAUAUCGGAGAAAGCUCAGAUCUCAAAAGGGAUCAGCUAGU'
p153
aF0.8902077151335311
aa(lp154
S'[RNA] Repetitious Sequences 8/10'
p155
aS'AGGAAAAAAGGAAAAAACCAAAAAAGGAAAAAAGUAAAAAAGCAAAAAAGUAAAAAAGCAAAAAACCAAAAAACCAAAAA'
p156
aF1.0
aa(lp157
S'Documenting repetitious behavior'
p158
aS'AAAAAAAGGAAAAAAAAAGGAAAAAAAAAGGAAAAAAAAAGGAAAAAAAAAGGAAAAAAAAAGGAAAAAAAAAGGAAAAAAAAAGGAAAAAAAAAGGAAAAAAAAAGGAAAAAAAAAGGAAAAAAAAAGGAAAAAAAAAGGAAAAAAAAAGGAAAAAAAAAGGAAAAAAAAAGGAAAAAAAAAGGAAAAAAAAAGGAAAAAAAAACCAAAAAAAAACCAAAAAAAAACCAAAAAAAAACCAAAAAAAAACCAAAAAAAAACCAAAAAAAAACCAAAAAAAAACCAAAAAAAAACCAAAAAAAAACCAAAAAAAAACCAAAAAAAAACCAAAAAAAAACCAAAAAAAAACCAAAAAAAAACCAAAAAAAAACCAAAAAAAAACCAAAAAAAAACCAAAAAA'
p159
aF1.0
aa(lp160
S'7 multiloop'
p161
aS'AGCCGAAUGGAAACAUUCCCAUGAAAGUGCGGUUGACAAAAGUCAAGAUUGAAAGCAGUCAUCUCGGGCACAGUUAGACGAAAGUCUAGGGU'
p162
aF0.9782608695652174
aa(lp163
S'Kyurem 7'
p164
aS'AAAAUAUUAGUGUGAAUAUGGGAAUAAAACGCGGAUUGAAAACCUAUCCCGGGAAAAACCGAAAUGGAAUCAUCCGUAAAGUUAAAAAAAAAAAAAAAAAAA'
p165
aF0.8725490196078431
aa(lp166
S'JF1'
p167
aS'GAAUCAAGUGGAGAUAUGACAUGCAAAAGAUAGCAAGAUACAAAGAUACAAGAUAGCAGACAUAGAUAUAUUAAAAAAUAUAUCUAUGUCAUGACAAAAGUCUGAUAGAGACAAAAGUCUCUAUCAAGAUACAAAAGUAUCAGCUAUCAGUAUCAGUAUCGGCUAUCAAAGAUAGAUCAAAAAGAUACUAUCAAGAUAUAUAAACAUAUAUAUAUAUUAAAGAAUAUAUAUAUAUGCUUUAUAUAUCAAAGAUACAAAAAAGUAUCGAUAAAAAAUAAAGAUUUUUUAUCAGAGAUAAAAAUAUCAAGUAUGAAGUAUCAAAACAGACAGACAAAAGUCGUCGUUUAGACAGAUACAAAAGUAUCAUGUCACUAUGUUGAAUUCAGA'
p168
aF1.0
aa(lp169
S'multilooping fun'
p170
aS'CUCCGUAGCGAGAGAAAAAAUGAAACUUGAAAAGUG'
p171
aF0.7777777777777778
aa(lp172
S'Multiloop...'
p173
aS'GAUGAGAUCGGGCAAAGGCCAGCCAAAAGGCGUGCAAAAGCAAGACUAAUGUCGUGGGAAACCAAGGAAAAAUCCAGAUCAGACACAAAAAAGUGUCGCCGAAAGGCCAUC'
p174
aF1.0
aa(lp175
S'hard Y'
p176
aS'AAAAUGGUCGUAAACAGAUCAAAGGGUCUGUAAGGGAUAUAUAAUUAAUAUUAUAUGUCGACCUAAAA'
p177
aF0.9705882352941176
aa(lp178
S'Mat - Elements & Sections'
p179
aS'AAAAUUACUGGGAGGUUAACCCUGUUCAGCCGGCAAUAGCGCUAAUGCGAGUCUGCUGACGAGUUAAAUCGUUGUCAUAUAAAUGUAAAAAAAAAAAAAAAAAAA'
p180
aF0.9619047619047619
aa(lp181
S'Chicken feet'
p182
aS'AAAAAGCAUGAGUAAGAAGGCAAAACAAGCAGCGGGACCAGCGAACCAGCAAAGUGAACGUCGAAAA'
p183
aF0.8507462686567164
aa(lp184
S'Bug 18'
p185
aS'AGCAGGAGGAUGAAGGAACGAGCAAAGCGACGACCACAGACCGACCAAAAGCA'
p186
aF1.0
aa(lp187
S'Fractal star x5'
p188
aS'AAAAAGGUAACUGGGAAUCAAAGGAUUAUGAUCGAAAGAUUUUGGUGGAAACAUCUAGAUAAAAAUAUCGACAGUUAUCAAAAAGGUGGAUGGCGGUUAAAAAAUCAAGUUCAAAAGAACAAGGGCGAAAGCCCAUGGGCAAAAGCCCUACAUUUAUCAAAAUGAUAGAGGAAGGUCAAAAGACCAAUAUCUAAUGAUAAAGAUCAAAAGAUCAAUCUGGAAACAGGAACCUCUAUCUAAAAGGUUGAGUAUUGUGAAAACACAUAGAUCAAAAGGUCAACAUCAAAAGAUGAAGGCGAAAACGCUAAAUUCAACCAAAAACGUGGAAGAAGACCGAAAGGUUAAUUGCUAAUGUAAAAGAACAAAAGUUCAAGGCUUAAUAGUCGACUUCUAUGAAAAA'
p189
aF1.0
aa(lp190
S'Crop circle 2'
p191
aS'GAGGAUUGAAACUAAAAAUGUAAAAAAAUGUGAAAAAAAAAAAAAAAAAAAAAAAAAAAAAACAAAAAAAAAAAAAAUUAGAAAAAAAAAGAAAAAAACAGAAAUCAAAA'
p192
aF0.9636363636363636
aa(lp193
S'Branching Loop'
p194
aS'GGGUACAAAAAAAAGGAUAGAAAUAUCGCUACCAAAAAAA'
p195
aF0.95
aa(lp196
S'Bug 38'
p197
aS'AGGACAAGAUUGUAGAAACAGCUUUGAUGUAAGCUG'
p198
aF0.9444444444444444
aa(lp199
S'Simple Single Bond'
p200
aS'AAAAAGGGAAAAAAAAGAGGAAAAAUUUCGAAAAAAAACAAAAAAAAAAAAAAAAAAAAAA'
p201
aF0.9672131147540983
aa(lp202
S'Taraxacum officinale'
p203
aS'GGCGAAAAGAGCCAGAUAAAAAUAAUAGGCUCAAAGGAGUCAGAACGAAAGAUUCAGAGUGAAGAACUCAGGGUGAAAGAUCCAGAAGGUUAAAAGAUCGACAAACUAUGUUUAGUCGAUCACAUAGAAGUUAGAUAAUUGGAUACCCAAAGGGUAUCAAUUAUUUAGCGUUCAGAUAGCAAGGCUAUCGAGCCUAUGAAAUUUUAACCUUCUCAUGAAAAUAAGGGACUUAAAAGAAGCAGAGCGAAAGAUCCCGAAAGAAAUAUUCAUUAGAAAAAAUUA'
p204
aF0.9148936170212766
aa(lp205
S'Headless Bug on Windshield'
p206
aS'AACUGGAAAAACAGAUAAAGUCUUCAAAAAAAAAAAAAAAAAAAAAAAAGGAAAACAAGAUCAUGGAACCAGUAUGAAAGCCAAGGAAAAAAAAGAAAACUAAAAAAACGGACAAAAAAGCAAGAGCGGAAAAAAGACAAAGUUGACCGCAAGUCGAAAAAAAAAAAAAAGGCAAGGAUGUGUACCAGUCAAUGAAUUAG'
p207
aF0.99
aa(lp208
S'Pokeball'
p209
aS'AAAUUUAAUCAAAAAGGUGAGAGGCUAGUGAGUAAGUAGGCUACCGAACAAAGCAGAUUUCGGGACCGAGCGGCCAUCACCGAUUAGAAAAAAAAAGGGAAUCAAAAGGGAGAAACACGAUGUCCCAAGGGGGUUUUCAAGCAAAGCAGAUUACACCGGGGACAAGUGAUCACCGAUUCUUGAA'
p210
aF0.9565217391304348
aa(lp211
S'Variation of a crop circle'
p212
aS'AAAAUCAAAGCUGAAGGAAAUGGGAAUGGAUUAAGGAGAUAGAUGCGAAAAAGUCAAAAAAAAGAAAAAAAAUGAGAAAAAAAAAAAA'
p213
aF0.9545454545454546
aa(lp214
S'Loop next to a Multiloop'
p215
aS'AAGAUGGAUUAAAAAAGGGGAUCGCAAAAGCGAUCAGAUAGACAAAGGUCUAUCUUAAAAAAAAAUCUAUCAA'
p216
aF0.9726027397260274
aa(lp217
S'Snowflake 4'
p218
aS'CGUAAAAGACGCGAAAGGAAAAUAGCGACAGGACUUUGAAAACGGGAAGGUUCAAUGAGCAAGAUGUAUCAUCGUUCCGGGAAAUCAGGUUAAGUUAUGGGAAAUCGGAUGCCGAAAAUCGGAACGGGAAACCUUCGUCCGGAAAGCCGUAGCAAGAUAGGGGAAAGAGAAUUCUGGAAACCAGAACAACAAGGUUGAAUUCCGAAAACCUUAUCGAGAGACUGAAAACAGAUAGGGGCGAAGCCUAAGACAAAACGUCGUAUCUGAAAGCAGUUUCGUUACACGGAAAACCUUAAGGGGCUAUGUUCAAGAGCUAUGCUCCUUGAGUAAAGGCGUGUAUGGUUGCAUGAAAGCUUUCGUAUAAAAGAUC'
p219
aF0.8702702702702703
aa(lp220
S'Mat - Cuboid'
p221
aS'GAAGCAAAAGAAAGGAAAAGGGAGGAAAAGGACGAGGAAAAAGGUAGGGACGCAAAGAAUAAAAGAAGUAAAAGGGAGAAAGUAAGCAAAAGGAGGCAAAGAAGGGAGGAAAAGUCUGCAUCGUUCGUCCGACAAGGUUCGUAUGUUCGAUCGUUCCAAAAGGAUACUUCGUACGUUCGGUUCAAAAGUGUCAUUCGUUCAUACGUUAGAAAAAACUUUCGCUUGUUCGUAGGUAGCGGUACGUUCGGUCCUUGUUGACCGUUAGUUCGUACAUGCGUCACGGUUCAUCUGUAAUUGGCCCAAUUAAGCACGCAAUCGCGCCCAAACAAGCGCAAGUAGAAAAGCGUAGUAUUCCCAACGAAGCCAACUCCAGUCCCAGG'
p222
aF0.7026315789473684
aa(lp223
S'Misfolded Aptamer 6'
p224
aS'AAAAAACCAAAAAAAGUGCGAGUAAAGAGUAAAAAAUCUCAAAUCGAAAAGCGCAAAAAAAUGGAAAAAAAAAAA'
p225
aF1.0
aa(lp226
S'Snowflake 3'
p227
aS'GACCCAAAAGGGUACGAUAAAAAUAAGCAACAGCUCAAGUCAAAAGACGACAUGAAAACACCCAAAGGGCUAAAGAGAGUCGACAAAAGGCAACAUCAGAUCGAAACAAAAGUCGACAGGUAAUCCCCCGAAGGGCAAAAAGGGGUCGACGAAAGUGAACGUCGGUCCAAGACAAAGGUUGACACAGAAAUGCACAAAGUGCCAAAAGGAGUCUACGAAAGUCAGGGACAGGUUGACACAAAAGUCUACAUGAAAACCCACUAUGUGCCAAAAGGAGUGGACAAAAGUAAAGAGCGGAUUUAGGCAAAAGCCGCCAGGAAAACCGGCAAAGCCCCAAAAGGAGUCGACAAAAGUCAUGAACAGUUGAAGUCAAAAGGCGUGAGGAAAACCGUC'
p228
aF0.7964376590330788
aa(lp229
S'Hard Y and a bit more'
p230
aS'AAAAUCAUGGGUACAGAUGACAAUAAUGAUUAUUAUGUAGUUUGUAAUCAAGAAUAGGAGAAAAAUCCUAAGACAUGACGUUAUAUAAAAAAAAAAAAAAAAAAAA'
p231
aF0.9716981132075472
aa(lp232
S'Mat - Lot 2-2 B'
p233
aS'UAAGGUUUCUAUUUCGAAAAGAUGCAGCAAAACAAAAAUUAUUUCCUUAUAAAAAGUUGCCAAAGCAAAUUUAGUGAUCCAAAAGGUUCCGCUACCAAAAGGGAAGCCGGGUGUAAAACUCUCCGGUGCAGAUGGGAAGGUCAUCCAAUUCAGCGUGCACAAGAUUCUCUGAAAUGAAAAAGUUUCGCAAGCAAAAUGUUUUUUAUCUAACUAUGCCGAUUCAAAAGAUUACGGUACCAAAAGAUAAUCUGGGUUCAAAAGUUUCUCUUAAUGCAGUGUGCAAG'
p234
aF0.7922535211267606
aa(lp235
S'Shapes and Energy'
p236
aS'AAAAAUGUUAUAGGGUGUACACAACUCCGGUUAAAAAUGGGAAACGGUCCUAACAAAAAGGGAAAACGGCCCUCUAUAUCUAAAAAAAAAAAAAAAAAAAA'
p237
aF0.9405940594059405
aa(lp238
S"Spiral of 5's"
p239
aS'UAAAAGAUACAAAGAUACAAAGAUACAAAAGAUACAAGGAUACUAAGAUACAAGAUACAAAAGAUUCAAAGAUACAAAGAUAAAAGAUACAAAGAUACAAAGAUACAAGAUAUAAAGAUACAUGAUAGAACAUACAAGUUACAAGAUACAGAUUCAGAUAGAGAAUAAAAAAUUCUGGGGGCUAUCAAAAAGAAUCAAAAAGUAUCAAAAAGUAACAAAAAGUAUGAAAAAUUAUCUAAAAGUAUCAAAAAGUAUCGAAAAGUAUCAAAAAGUAUCAAAAAGUAUCGAAAAUUAUCGAAAAGUAUCAAAAAGGAUCAAAAAGUAUCAAAAAGUAUCAAAAUGUAUCAAAAAGUAUCAAAAAGUAUCAAAAAGUAUCAAAAAGUAUCAAAAAAAAAAA'
p240
aF0.9949622166246851
aa(lp241
S'Campfire'
p242
aS'AAAAGAUUAAGACUCACGACGAAGAUUUAAAAAAUCGUUAGCAAGGGUUAAUCGUAAACAGCAGCAGCAUAGAUAAAAGUAUUAGCGCGUUUCGGCAGCAGGGAAACCGCGCGAUUAGUUAAAGACACAAAUCAAGGAAACGCUAAUGGAGUCCACUUGCAGGCAGAUUAAAGAAUCGCCGCGUAGACGUAUAUAAGACUAUUGUAUGGGUC'
p243
aF0.8773584905660378
aa(lp244
S'Anemone'
p245
aS'AAAUACGAAAAAGUCUCUGGUUGUAAAGACAACCUCUGUAAAAACUGAGCUUUCAAAGGCAAGAAGAUAGAAAUAUCUGUUACCUAAUGGGUGGAGGGGAAACUUUCAGGGGCAUAGGCCUUGUUAUAGAAAACUAUAGCCAGCAAAGGCUGUCGAUUCAAAACAAUUCUCACCAAAGGGUGAGUUUAGGAAACUAAGCAAAGAAAAGUCUUUG'
p246
aF0.8691588785046729
aa(lp247
S'Fractal 3'
p248
aS'AAAAAGUCCGGUCUGUGAAAGUGGAAAGCCUGAGAGACAAGAAAGCCGGAAAGCCGGGUGGAGCGGGAAACCGGGAAACCACGCGCAUGUAAAAGCGUGAAAGGGAAUGAGGGCAAAAA'
p249
aF0.9243697478991597
aa(lp250
S'Kyurem 5'
p251
aS'AAAAGAAUAGAGUCCGAAAAUAAUCAAAAUCAGGCGAAAACUGUAAAUCAGGCGCCACAAAAAGGUGAUGGAAAGGUGAAUAUGAAAAAAAAAAAAAAAAAAAA'
p252
aF0.9423076923076923
aa(lp253
S'Snowflake Necklace ( or v2.0 )'
p254
aS'GCUAUUUAAAUAUACAAAUACAGUAAAAAACACUAAAAAAGGCCGAAAAGGACGAAAAAGGACCAAAAAGGAGUAUUAGACAAAAAAUUAAUGUGAGGAAAAACCACCAAAAAUGACGAAAAACGGCCGAAAAGGACCUAAAUGGACACGUAUAGAAAAAGACAAAGACAGGAAAAACCUCCAAAGAGGUACUAAAUGUGCCAAAAAGAGGGAAAAACCAGUUUUACGCAAAAAGUGAAAAAGAGGAAAAACUACCAAAAAGGACGAAAAAUGACCAAAAAGGACAAAAAAUGACCUAUAGCCAAAAAGUCAAAAAGAGCUAAAUGAACUAAAAAGGAACGAAAAGUACCAAAAAGGACCAAAAAGGACUUUUAGUAUAUUUAAAUAGC'
p255
aF0.8457583547557841
aa(lp256
S'Methaqualone C16H14N2O Structural Representation'
p257
aS'AAAAAAGGAUCAGCUCGGAGACACAAAAGUGGGACAGCCAAAAGGCGGACAAGCAAAAGCUAGACAGACAAAAGUCAGACAAAAAAGGUCAGUCAGUCAGUCGUUUAGAAACGGAGCAGAGCAAAGGAGUCAAAGCAAAGAAAAAAAAAGACAGACAGGUAAAAGUCCAGAAAGUUGGAAAAAAAUGGUCACCAAAGAUCUAAAAUUUACAGACAGACUCGGAUAAAAAAGACAAAAGUCAGUGAUGCAAAGGCAACCGAUAUGAAAGUCGGUCAGACAAAAGUCAGUCACACGACAAAAGUCCGCAAAAAAGACACAAAAGUGUUUAAUGUGAUCAAAGCUCAGAUCAAAAAAA'
p258
aF0.9042253521126761
aa(lp259
S"Cat's Toy 2"
p260
aS'AAAGGGAAGGCCUAAACGAUAAAAGAAAAAAAAAAAAAAAUGAGUCACAUAAAAACUUAUAGAAACGGCAAAAAAGACAAAAACGGGUCUUCCAAAA'
p261
aF0.9587628865979382
aa(lp262
S'Zigzag Semicircle'
p263
aS'AAAGCACGCCUGGUAAAAAGAGAUAGUGUGAAAA'
p264
aF0.9411764705882353
aa(lp265
S'Short String 4'
p266
aS'AAAAAAAGAGUGGGGAUGAAAUUUUACGAAAACCAAGUCAAAGAGUUUUCGAAAGAUUCCAACGAUCUCCAAGCCUAAAAAAAAAAAAAAAAAAAAA'
p267
aF0.9381443298969072
aa(lp268
S'Gladius'
p269
aS'GGAAACAAUAAUAGAAGGUUACUAAGGAAAUCGGUGAAAGAUAAAAAUAUUAGAUAUAACAUCAAAUGGACCAGGAGAUCAAAUGAGCUAGCAGAAAUAAGAAAAAGAUGAAAUGAAGUUCGAAGAGCAUAUAGCAUCGGUUUCACAUUUCGACUAGCUCCUUGGAUCAGGAGGUCAGAAUGAAAGGAUAUCACACAAAGACGCAACCUUAAGAGAGAGCAAUUGUGGAUCACGAGAUAUGACGGAAGCAGAGACAGGUAUGAUAUGGAUAGCUAAUGCUAUCAAGUGCAAUAUAAGUCUACGUUUCAAUCAUAUCAACAGAUCACAAGUUGAUGAUUCGAAUGGUUGAGAAGAAAAUUUCAAAGUCAGGUGAACAGAAUUAUAAACGAAAAAAGAAAAC'
p270
aF0.89
aa(lp271
S'Thunderbolt'
p272
aS'GUUAGGGGCAAAAAAAAGGCUAGGGAGGAAAACAAAAGUGAUACAUCAAAAAAAAAGGAAAAAUGAACAAAAAGAUUUAAAAACCAAAAGUUCCAAAAAAAGUUCAAAAAAGUACGAGCGUUUAAAAUAAAAACCGUAUAAAAAGAUUAAAAGUUCCUGAAACAGCGUCGAAACAUCAGCACGAAUAGAAAAAGUUCAGCAAAGCAGCUCAAAAAAGGAGAGAACAAAAAAAAGGUUAAAAAAACGCUAAAGACCUUAGAUAGAAAAAAAAAAAACGUUCAAAAAAAAAAGUGCCAAAAGCUUAAAAAAAAGGAAAAAAACAAAUAUUUUGGAAGUUCAAAGAUGUGUCUAAAAAAACGCCAAGGCCAAAAAGAAAAAAACAGUUUCAUGCA'
p273
aF0.8903061224489796
aa(lp274
S'Mutated chicken feet'
p275
aS'AAAAAAAGAAGGAGAUAUGCAGUGCAGUGAAAAGCACCAUGGGAAAAGUUCAAAAACUAACGGCGCCAUAAAAUAUUUGGCAAAGAAAUCAGCAAAAAAA'
p276
aF0.78
aa(lp277
S'Chicken Tracks'
p278
aS'AAAAAAAUGGUGGGCUAUGUAAUUAUAAAGAAAUAAUUAUCAAGGUCAAAAGAUCGUCUAUCUAGAUGGUUUAUAGAUAACGUCUAUGACGAAAAAGAAGCUCCGGCAAAAAAAAA'
p279
aF0.9310344827586207
aa(lp280
S'Looking Back Again'
p281
aS'GCCAAGACGCAGAAAAUGAAAGAUAUUCUUUCUCUGUAACGCUCCAAGGUAAAGCCGGGAGGUACAAAGAUCAAAAGAUCAAAAGUAUCGAGUGAAGUCAAGGUCGGCUAAAGGAUACAAAAGUAUCAAAAAUUCAGUGACGAUAGAAAUUAUCGGUACUAUGCCUCUAUAGUUCAAGAACAAGUGCGAGACGAGCUAAUGCUCUGCAGAACGCUCAGGGACAAAAGUCAAGCUAUGAAAAUCACGACCAGAUAUAGGGCAAAAAAUAUAGACAAAAAAAAGACCAAAAAGGUCGUCUAAAAUGAGUCCUACUAAAAAGGGGGGCGCAAAAGCGUCCAAGUCCCAAAGGGCAGUCUACGACUGAAGCCCCAAAAGGUCCUAUCAAGGGC'
p282
aF0.8817480719794345
aa(lp283
S'Multilooping 6'
p284
aS'AAGAAACACGGGAUUCAAUGAUCUGAUGUUAAUCAAUUUGACUCUUAGUGAAAGCGAUGAUACAAAGGUAUCGAAGUUUCGA'
p285
aF0.9512195121951219
aa(lp286
S'Cesspool'
p287
aS'GAAGAAGAAAAGAUAAUCUGAGUCGUAAAGCGACCAUAUUAUUAACCUGAGAACAUGGGUAAAAAAUGCCAAAAUUACAAAAACAAGAAAAUUCGAAAAAUAAAAGGGGGGAGACAACGUCAACAAGAACUUAAUUAGAAAACUCGGGUUAAAAAGUUCCAAAUUAAAAGAGAAGCAAGAUUUAGGUAAGCAUAAGGUCAAACGAAAAUCGAACAAGUUCUCUAGUUGUAAUCUUCGGUACAAAAGGCCAAAAUCAAAAGAGAUACCAACCUUUAAGAAAAUAAGAGCCCAUAGGGAAACCUAACAAGUUCUCAAGUGCAAAACAUCAAUUCAAAAGUUUGAAAUCAAAAGAAAUUUC'
p288
aF0.6424581005586593
aa(lp289
S'Hoglafractal'
p290
aS'AUCGGGAAGAGAUAAAAUAAACAAAAAAGUUUAGUACCGUCAAAAGGUCUAAAUGACUGGAGACCAAGACAAAAGUCGGGAGCUUAAGACGAAAGGUUAAAAAAACUGCUUAGACAGUAAGAAAAGUAGUCAAAGAGAAAGUUUAGAUGGAAAGACAAGACAAAAAAGUCGUCGGAGGAAAAACCUCCACAAAAGUGAUAUACGAAAAGCAGGGAAAAACCGCGUCAAAAAGGACCAAAAGGGGCGAUGGAAAAAGCAAAAAAAUGCGCAAAAAGUAACCAGAUACAAAGUAUCUGAAAAAAACAUCGUGAAAAAGUAUGAAAAACGUCAAAUGGUGAACCAACUGAGAGCAUAGGAACAGGAAAGCCUUGAAAGGCAGAUCUAUGAUCUGACUAAGUGC'
p291
aF0.8975
aa(lp292
S'Bullseye'
p293
aS'AAAAACCGUCUACGACGAAGUUCCAAGAGCAAGAUCGAAGAUCGUUGAAAAAAAGCUGAUCGAAUAUCAAGAAGUAGUUUUAAGCCCAAAGGUCAGCAAAAAAAGAGCGAUAGAAGAUCAAGGCCCAUGAUGUAGCCGGAAUAUGGCCAAAAAAAAGACUUCCGAAGGAAAUGAGCAAAGUUUUAUAUCACGAAUAGUCGAA'
p294
aF0.7970297029702971
aa(lp295
S'Shooting Star'
p296
aS'GGCAGCCAUCGAUAAACAAUGCGUACCGGCCAGGCAAGUAAUCAUGCACGGCAGAGGUCCUAGUUUAUCAGAAACAUCAGUUCCAGACAGAUACAGACAGAUGAGGAAAACACCAUACGUCGAUAUACGUCGGAGUUCGUUGGGAAACGGUUUCGAUCGAUGCAAACUAUCAGACUCAAAGGGUCGGGGCAACACAGAUACAGUGAGAUUAGGAUAAAGAUUGACAAAGUCAAUCAGAGUCAAAGGAUCCAUCGAUAGGCAAAGUCUAUCAGAAAUAAAGUAUCGAUCGUACAAUAAAAGGUUCAGGUCCAGUGACAUAUCAGGAAAACACGAUAAGUCUCAAGUUCAGUUCGUACAGCUGCCA'
p297
aF0.8076923076923077
aa(lp298
S'Teslagon'
p299
aS'AAAAAGGUUAAAAAAGAAGCAAAAAAGAUAGGAAAAAAAAAAAAAAAGCUAAAAAUGAGUAAAAAAAAAAAAAAACCGGUAAAAAAAACUGUAAAAAAUAGAAAAAAAAAAAAAAACUUAAAAAAGCAGAAAAAAAAGGUAGAAAAAAAAAAAAAAACGUAAAAAUUAGAAAAAAAAAAAAAAAACAUCCAAAAAAAUUUUCAAAAAAAUCAAAAAAAAAAAAAAAUGAAAAAAGCUUGCAAAAAAACGAGAAAAAAAAAAAAAAAAGCCAAAAAUUAGAAAAAAAAAAAAAAAAACAUGAAAAAAAUUAAGAAAAAAAGGAAAAAAAAAAAAAGAAAAAAAAAAAAAAACUAUCGAAAAAACAAUCAAAAAAUUCAGAAAA'
p300
aF0.9109947643979057
aa.