(lp0
(lp1
S'Simple Hairpin'
p2
aS'GAUACAAAAAAGUAUC'
p3
aF1.0
aa(lp4
S'Arabidopsis Thaliana 6 RNA - Difficulty Level 0'
p5
aS'GAUAUACAAAAGAGAAAAAAAAAAACUCGAUAUAUCAUGAUAUAUAUAUAGAUAUACAAAGAUACAAAAAAGUAUCAGUAUAUACUAUAUAUAUAUCUGGAUAUAUCAAGUAUAUC'
p6
aF1.0
aa(lp7
S'Prion Pseudoknot - Difficulty Level 0'
p8
aS'GAGAUCAGAUCGAAAGAUCGAUACUCAAAAAAAAAA'
p9
aF1.0
aa(lp10
S'Human Integrated Adenovirus - Difficulty Level 0'
p11
aS'GAUAUAUAGAUAUCGGAUAUCUAAAAAAAAAGGCUCCAUGCGCCAAAAAGCGAUAUCAAAAGCAAUAGAUAUACGAAAAAAAGUAUAUCUAUAAAAUGCGAUAUAAAACGCGGCAAAUGCAUGAAAGAUAACAAAAAAGGUUAUCGAGCAAAAAAAAAAAUGAUAUCAGAUAAAAAUCUAUAAAAUAUCAAA'
p12
aF1.0
aa(lp13
S'The Gammaretrovirus Signal - Difficulty Level 0'
p14
aS'AAGAGGGGAGAUCGAAAGAUCUCAACGCAAAAAUGUUCAAGAGAGAUCCCUGAAAAAUCAGGAAAUGAUCCUCGAGCUAGAUAUAACGAAAGUUAUAUCAA'
p15
aF1.0
aa(lp16
S'Saccharomyces Cerevisiae - Difficulty Level 0'
p17
aS'GAGGCUGCUUCUAAAAAAUAGGUGAAUAAAAAAAAAAAAAUAUAAAACUUAGAAAAAAAUUAAGCAGUCUUAAAUGGCAUCGAAUUUCUAAAAAAUGAAAUCUAAAAAAAAAAAAGCGGAAAAGAUCUUAAAAAUAGGUCCUAUGGCUAAGGAUAUUGAAGCCUAAAAAAAGGGGCGAUGGUUAAAAAUGCUAUCAAAAGCCGGAAAAAAGCUGGUCAAUAUUAAAAGUUUUGGAAGAUUGAAAAAAAAAUCGCGGUUAAAAAAGAACCGCAAAAUAUACGAAAAAAGUAUACUAAAACGAAAUGGUUCUACUAUGGAAAAAAACAUACUCAUCUAAAAAUGAUGAGUAAAGUUGGAAAAAAACCAGCCGAAACACAAA'
p18
aF0.9683377308707124
aa(lp19
S'Fractal 2'
p20
aS'AAAAAGAUAUUUCAAAUUUAUAGAUCAAGUUCUAAAAAAAAUGAGCGAGAUCAAAAAAAAAAGAUCAAGAUCAAAAAAAAAAGGUCAAGAUUUAUAAAAAAGAUAUUUCGUAAGGACAAAAAAAAAAGUCCAAGCUCAAAAAAAAAGGAGCAAGGUCAAAAAAAAAAGACCAAAUGAAAUAUCGAUAGUAAAUAUGGAGAACAAAAAAAAAAGUUCAAUGACAAAAAAAAAGGUCAAAGAUCAAAAAAAAAAGAUCAACAUAUUUGCUUAAGAAAUAUCAAAAA'
p21
aF1.0
aa(lp22
S'G-C Placement'
p23
aS'GAUCAAAGAUCA'
p24
aF1.0
aa(lp25
S'The Sun'
p26
aS'AAGCGGGACAUUAUAUGUAACCCCUUAAUGACAGAGAGUUAAGGACUAACUCGUCUAGGACAUAGAUCCAAGGUAUAAUUACUCAAAAUGGAAUACACAAAGUGUAAAUAUGUAAAGAGAGAGAAGCUAUGGAUGACUCCUCGAUGAGAGUCGCGCGAAGCGCAAGGCCUCUAAAAGCGAGAGGCAAGGGAUAACUCCUCGAGGAUAGAGAUCCGAAGGAUAACUCCUCAAAGAGAUAGAUACAAGGGAUAACUCAUC'
p27
aF0.8062015503875969
aa(lp28
S'Frog Foot'
p29
aS'AAAAAAAAAAGAGAAAAGUCUCCGGCGAAAGCUGGGCCAAAGGCC'
p30
aF1.0
aa(lp31
S'InfoRNA test 16'
p32
aS'GAUAUCACAGAUAUCGAAAGAUAUACUAGAGAUAUC'
p33
aF1.0
aa(lp34
S'Mat - Martian 2'
p35
aS'GAUCGAAAGAUCAAAGAUAUACAAGAUAUACAAAAAAAGUAUAUCGUAUAUCAAAGAUAUAUCAAAAAAGAUAUACAGAUAUACAAAAAAAGUAUAUCGUAUAUCAAAGAUAUAGAUAUAUCAAAAAAAGAUAUAUACUAUAUCAAAAAAGAUAUAUCAAAGAUAUAGAUAUAUCAAAAAAAGAUAUAUAACUAUAUCAAAGAUCGAAAGAUC'
p36
aF1.0
aa(lp37
S'square'
p38
aS'GAUAUACCAUGUCCAUGUACCAUGUCAAAGACAUGAAAAGUACAUGAAAAGACAUGAAAAGUAUAUC'
p39
aF1.0
aa(lp40
S'Six legd turtle 2'
p41
aS'AAAAAGCAAAGCGAAAGCAAAGCGAAAGCAAAGCGAAAGCAAAGCGAAAGCAAAGCGAAAGCAAAGCGAAAGCAAAGCAAAAAAAAAAAAAAAAAAAA'
p42
aF1.0
aa(lp43
S'Small and Easy 6'
p44
aS'GCCCGGAAAACGAAGCUAAAAAAAUGCGGC'
p45
aF1.0
aa(lp46
S'Fractile'
p47
aS'AAAAAAAAAAAAGCGAAAGCAAAGCAAAGCGAAAGCAAGCAAAGGAAAACCAAAGCAAGCGAAAGCAAAGCAAGCGAAAGCAAAAUAAAAAAAAAAAAAAAAAAA'
p48
aF1.0
aa(lp49
S'Six legd Turtle'
p50
aS'AAAAAGGAAAAGCGAAAGCAAAAGCGAAAGCAAAAGCGAAAGCAAAAGCGAAAGCAAAAGUGAAAACAAAAGCGAAAGCAAAACCAAAAAAAAAAAAAAAAAAAA'
p51
aF1.0
aa(lp52
S'snoRNA SNORD64'
p53
aS'GAUAUCAAAAAGAGAAAAGAGAAAGAUACAAAAAAAAAAAAAGUAUCAAAACUCAACUCAAGAUAUC'
p54
aF1.0
aa(lp55
S'Chalk Outline'
p56
aS'AAAAAGAUCAGAGACGAAAGUACUCGGAGAGAGAAAACUCCUCAGAUAACGAAAGUAUAUCAGGAUCGAAAGAUACCGAUCAAAAAAAAAAAAAAAAAAAAAAA'
p57
aF1.0
aa(lp58
S'InfoRNA bulge test 9'
p59
aS'GAUAUACAGAGAGAGAUAUACGAAAGUAUAUCCCCGUAUAUC'
p60
aF1.0
aa(lp61
S'Tilted Russian Cross'
p62
aS'AAAAGAAUUCCUCAAAGGAGGUUACGGACGGAAACAUCGAUACAAAGGUAUCAGUUCGAAAGAGCGUACUAUCGAAAGAUAAUUUAAAAAAAAAAAAAAAAAAAA'
p63
aF0.9809523809523809
aa(lp64
S'This is ACTUALLY Small And Easy 6'
p65
aS'GAAAAAAAAAAAAAAAAAAAAAAAAAAAAAAAAAAAAAAAAAAAAAAAAAAAAAAAAAAAAAAAAAAAAAAAAAAAAAAAAAAAAAAAAAAAAAAAAAAAAAAAAAAAAAAAAAAAAAAAAAAAAAAAAAAAAAAAAAAAAAAAAAAAAAAAAAAAAAAAAAAAAAAAAAAAAAAAAAAAAAAAAAAAAAAAAAAAAAAAAAAAAAAAAAAAAAAAAAAAAAAAAAAAAAAAAAAAAAAAAAAAAAAAAAAAAAAAAAAAAAAAAAAAAAAAAAAAAAAAAAAAAAAAAAAAAAAAAAAAAAAAAAAAAAAAAAAAAAAAAAAAAAAAAAAAAAAAAAAAAAAAAAAAAAAAAAAAAAAAAAAAAAAAAAAAAAAAAAAAAAAAAAAAAAAAAAAAAAAA'
p66
aF1.0
aa(lp67
S'Shortie 4'
p68
aS'GCGAAAGCAGCGAAAGC'
p69
aF1.0
aa(lp70
S'Shape Test'
p71
aS'AAAAAGAAAUCAAGACUUGAAAAAAAAGGUCAGGAUAGAGGGAUACAAAAAGUAUCAGAUCGAAAGAUCGCUCAUCAAGAUUGCAAAAAAAAAAAAAAAAAAAA'
p72
aF1.0
aa(lp73
S'The Minitsry'
p74
aS'GGAGAAAAGCAGAAAAGGGAAAAAGAGAAAAAGUCAAAAAAAAGACGCUCAUCCGUGCAUCC'
p75
aF1.0
aa(lp76
S'stickshift'
p77
aS'AAUACAUCCAAAAAGUGAGAUGUAGA'
p78
aF1.0
aa(lp79
S'U'
p80
aS'AAAAAGAUACAGAGAGCAGAGAUAUAUACGAAAGUAUAUAUCCGCCCGUAUCAAAAA'
p81
aF1.0
aa(lp82
S'Still Life (Sunflower In A Vase)'
p83
aS'AAAGAUCAAGUAUUAAAAAAAUACAAGAUUGUAUCGAUCAGGGUCGGAAAACGGCUAAAGCGCAAAGUGCCAAGGGAUUAAAUGUCUCAAUAAACAAAAAGUUUAAGAUAUAUAUUUAUAUAUAAAUACGUUACGAAAAAGUGACAGACAUGAAAAAAAAAAAAGAUUGCCCCCCCCCCCCCCCCCCCCCCCCCCCCCCCCCCCCCCCAGAUCAAAAAAAAAAAAAAUGUCCUUUCGAAAGAAGGAGUAUUUAUAUAUAGAUAUGUAUCAUGUUAGAAAAACUAACUAGGAUUGAAAAAACUCGAUUGGCAAAAAAUUGAAAGAUAAAAAAAUUAUCAAGAGACGAAAGUCUCGAUACUCCAAAAGAGUGAGAUCAAA'
p84
aF0.9947089947089947
aa(lp85
S'Quasispecies 2-2 Loop Challenge'
p86
aS'AAACGAUCCGGCCUGGGUCGAAAGAUCAUGGUCAGAGCACCGAAGAGGCUCAGGUCGAGUUCAGAAAAACUGUCCAAGACCGGAUAAAAAAAAAAAAAAAAAAAA'
p87
aF1.0
aa(lp88
S'Corner bulge training'
p89
aS'AGAUAUCGAUACAAAGUAUCAAAAGAUAUCA'
p90
aF1.0
aa(lp91
S'Spiral'
p92
aS'AAAAAGAUCAGAUAUCAGAGAGAUACAGAUCAGAUCAGCAGCAGCAGCAGCAGCAAAAAGCGCGCGCGCGCGAUCGAUCGUAUCCUCGAUAUCGAUCAAAAA'
p93
aF1.0
aa(lp94
S'InfoRNA bulge test'
p95
aS'AAAAAAAAAAAAAAAAAAAAAAAAAAAAAGGACAAAAAAGGCCAAAAGGACAAAGGACUUGGACAGGACAAAAAGUACCAGUACCUCGUACCAAAGUACCAAAAAGGACCAAAAAAGUACCA'
p96
aF1.0
aa(lp97
S'Worm 1'
p98
aS'AAAAAAAAGGACUAAUGUAGGUAGAAAACUACAUCAGGUUGGAAU'
p99
aF0.8666666666666667
aa(lp100
S'just down to 1 bulge'
p101
aS'AAAAAGGACAUAUACGAAAGUAUAAGAGAAAACUCAGUACCAAAAGAUCAGAGAAAACUCAGAGAAAACUCAGAUCAAAAAAAAAAAAAAAAAAAA'
p102
aF1.0
aa(lp103
S'Iron Cross'
p104
aS'AUGCACCGAAAGAGAGCGAAACGCAUAGAAAACUAACUCAAAGCGAUAGGAAACUAGGACAAGGUCACGCAAAGACAUAGAAAACUAGGAUGAAGUCAGUCGAACGGAGAGAAACUCAGCAGA'
p105
aF1.0
aa(lp106
S'loops and stems'
p107
aS'AAAAAGAUAUACAAAGAUCAAAGAUCAAAGAUCAAAAAAAAAGAUACAAAAAAAAAAAAGUAUCAAGGAUCAAAAGAGCAAAAAAAAAAGCUCAAAGAUCAAAGAGAAAAAAAACUCAAAGAUCAAGCAAAAAAGCAAAGUAUAUCAAAAA'
p108
aF1.0
aa(lp109
S'Water Strider'
p110
aS'AAAAACCUCAGGGCGGAAGUGGAAACGCUCCAACACACUUCAAAAAGAUGGGAAAGGUAAGUCAAAGUCAGUUGCAAUGUGGAAAAAAAAAAAAAAAAAAAAA'
p111
aF0.941747572815534
aa(lp112
S'The Turtle(s) Move(s)'
p113
aS'AAAUCGAAAGAAAAAGAGCUAUUCAAAAAAAAAGAAUAGCUCAAAUGGUCAAAAAGACCUGAGAUAGGAAACUAAGGGUUCCAAAAAAAGGAACAAAAGGCAACGGGAAACCACAAACCUAAAAGGGAAAACAUAUCAAAAAAAGAUAUGAAAACUGAAAACGGAAAAAGAUAUCAAAUGAGAAAAAAACUCUAGAGCAAAAAAACUCAAGUAUACAAAAAAGUAUAAAAGAUCAAAAAGAUCAAGAUAUCAAAAAAAAAGCGAAAGCACAAAGCGAAAGCAAAAAUGAUGCAAAAAAAAAGGCAUCUAAAAAGCC'
p114
aF1.0
aa(lp115
S'Adenine'
p116
aS'GAUACAGAUAUCAGCUAUCAGAUAUCAGAUAUAAGAUAUCAAAAGAUAUCAAAAAAGAUAUCAGAUAUCGGAUACAAAGAUAUACAAAGUAUAUCGUAUCAUAUAUCAGAUAGAUAUAUCAAAGAUAUAUAAACUAUCAGAUAUCGAAAGAUAGCAAAAGAUAUCAAAAGUAUC'
p117
aF1.0
aa(lp118
S'Tripod5'
p119
aS'AUCUGGGUCCAAAAGGGGCGGUCAAAAAGAUCCCAGUA'
p120
aF1.0
aa(lp121
S'Shortie 6'
p122
aS'GCGAAAGCAGCGAAAGCAGCGAAAGCAGCGAAAGC'
p123
aF1.0
aa(lp124
S'Runner'
p125
aS'AAAAAGAUCGGUACAUAAAGAUAAAGUAUCAGUACGAAGAGAAGAGACCUAAGGUAAACUCGCAUCCCAAGGAAAAUGCACUCGAAGCGAAACGGGAAACUGACGCAGAUCAAAAA'
p126
aF1.0
aa(lp127
S'Recoil'
p128
aS'AAAAAGAUACAAGCAAGCAAGAGAAGAGAAGCAAGCAAAGCAGCACUCACUCAGCAGCAGUAUCAAAAAAAAAAAAAAAAAAAAA'
p129
aF1.0
aa(lp130
S'[CloudBeta] An Arm and a Leg 1.0'
p131
aS'AAAAAGAGAGAGACGAAAGUACUCGAGAGCGAAAGCCUCACUCAAAAAAAAAAAAAAAAAAAA'
p132
aF1.0
aa(lp133
S'[CloudBeta] 5 Adjacent Stack Multi-Branch Loop'
p134
aS'AGUGCGAACGAAAGUUCGGGUCUAAUGGCUCGGGACGAAAGUCCCCUACGAAAGUAGGCACUA'
p135
aF1.0
aa(lp136
S'Triple Y'
p137
aS'AAAAUGACGUAGGGGUCUAAGGAUCGCAAAAAGUUUCUCUAUUUCGGGCUAAUGUUCGAUCGAAAGAUUGAUACGUCUAAAAAAAAAAAAAAAAAAA'
p138
aF0.8969072164948454
aa(lp139
S'Misfolded Aptamer'
p140
aS'GGGGGAAAAAGGCGGGAACCGAGGAAAUCCAUAAAACAUCCGGAAACCUC'
p141
aF1.0
aa(lp142
S'Flower power'
p143
aS'AAAAGGUGCGUGGAAGUCACACUUUGCUUUAUGCGUAUCGUAAAAUAUGUCAACCAAGGAUUGAAGAAUGCAAAGGACGUAUAAAAAAAAAAAAAAAAAAAA'
p144
aF0.9215686274509803
aa(lp145
S'Kudzu'
p146
aS'AAAAAGUGUAAAGUGACGCACGUCAGCAAAACGGACUGCAAUACCAAGGGAUAUUAUGAGUAUCUCUAAGACACCCCUAGCAAAAAAAAAAAAAAAAAAAA'
p147
aF0.9801980198019802
aa(lp148
S'"1,2,3and4bulges"'
p149
aS'AAAAUGGGUAGACUGGAAACAAAAAGUCAGGGGAAAUUCAGCAAAUAAUAGCGAUUAAAAAUAAAACAAGGUAAUCCUACGAACUUAAAAAAAAAAAAAAAAAAA'
p150
aF0.9428571428571428
aa(lp151
S'medallion'
p152
aS'AAUAUGUGAUAGCAAAGGCUAUCUGAGAAAACUAAGAGAAAGUUCAGUUAUCGAAAGAUAGCAGAGGAAACUCGUAAAUCUACUGAUUUGAGUUAAAGCACAUUGAAAACGCGGAUAUCGAAAGAUAUCAUAGGAAACUAAGAUAUGGAAAUAUAUCGGGAAAAAUUUGGAUAAAAAUCAUACAGCAAAGGCUGUAAGGGAAAACCCGGAUAGCGAAAGUUAUCAGACAAAAGUCGAAUAAAAUAUUGAUUUCGAAAGAAAUCACAUAAAAAUCAGAUAUCGAAAGAUAUCGUAGGAAACUAAUAGAAAGCUCGUAUAUAGAAAUAUAUGAUAUAUU'
p153
aF0.9198813056379822
aa(lp154
S'[RNA] Repetitious Sequences 8/10'
p155
aS'AGGAAAAAAGCAAAAAAGCAAAAAAGCAAAAAAGCAAAAAAGCAAAAAAGCAAAAAAGCAAAAAAGCAAAAAACCAAAAA'
p156
aF1.0
aa(lp157
S'Documenting repetitious behavior'
p158
aS'AAAAAAAGGAGAGUGAAAAGUAGUUUAAAGGAAACAUAAAGGAAAUUUAAAGGAAUUUUAAAGUGAAUUAAAAGGAAAUUGGAAGGGUAUUUAAUGGAAAAAAAAGGGAAAGAAUUUUUUAAAACAUUGGGAAAGAUCAGGAAAAAAUCGGGAAAACAUUAGCAAAAAAGUUCGGAAAAAUAUUUGAAAAAUUACGAAAAAAAAAUGGAAUUUAAAGCUAAUCGAAGCUUAAAUAAAAGCGACUUUAAGUCUGAUCUAAACCGUAUUUAAACUAACCUUAAUGAAAAUUAAAACCCAAAAAAAGCCUAAAAAUUACCGAACCAUUUCUAAGGAAUAGACAAAAUACUGAUAAAAAAUCACAAACAAUUUUCGAAAAAAGGUUUAAAGAGUAUCUAAAAAA'
p159
aF0.7975
aa(lp160
S'7 multiloop'
p161
aS'GCGGUGUUCGAAAGAACACAUUCUAAUGGAGGGGCAUAAUGAGGCCACUACUAAUGUAUUUAGAGUAAUCUCUACGGACAAAGGUCCGUCGC'
p162
aF0.9782608695652174
aa(lp163
S'Kyurem 7'
p164
aS'AAAAAAAACUACCCUAAAGAAAACCACCAAAUCUACAGAAAACGUUUAGGGCUAAAAUGCCAAUGUAGACCGGAGUGUGUUUGCAAAAAAAAAAAAAAAAAA'
p165
aF0.9803921568627451
aa(lp166
S'JF1'
p167
aS'GAUAAAGCUAGAGGUACAAGAUACAAAAGAUAUCGAGAUACAAAGAGACCCGAUAUCAGAUAUUUAUAUAUCGAAAGAUAUAUAAAUAUCAUGAGAAAACUCUGAUAUAUACUAAUGUAUAUAUCAAGAUAGUAAUUUAUCGGAUAUCCGUCUCAGUAUCAGAUAUCAAAGAUAGAUCAAAAAGAUACUAUCAAGAAAUAUAUAGAUAUAUAUAUAUCGAAAGAUAUAUAUAUAUCAUAUAUAUUUCAAAGAUAAAAAAAAUUAUCGAUAUAUAUCGAAAGAUAUAUAUCAGAGAUCGAAAGAUCAAGUAUCAGGUAUCAGGUCAGAGAGAGAAAACUCCUCGAUCAGAUAGAUACGAAAGUAUUAUAUCACUAGACUUCUAUCAAA'
p168
aF1.0
aa(lp169
S'multilooping fun'
p170
aS'ACAAAAGGGUAAUAACGAAAGGGGGGGAAAAAUUGU'
p171
aF0.8333333333333334
aa(lp172
S'Multiloop...'
p173
aS'UAGAAUGCAAGUGUAAUCGCAUAUGAAAAUAACAGAAAACUUUCGGAAAACUGAGAGAAAGCCCGCAUUAAUGUCAGGUUAAUGGUGAAAAAGCCGUACUUAAAGGGACUA'
p174
aF0.9459459459459459
aa(lp175
S'hard Y'
p176
aS'AAAAGGAUGCCACAUGAAUGAAAGUGUUCAUAGGGCAUAUAUAUGGAAACAUAUGUAUGUAUCAAAAA'
p177
aF0.9705882352941176
aa(lp178
S'Mat - Elements & Sections'
p179
aS'AAAAACGGCACAAAGAGCGGACGGAAGCCGACCUCAGCAGCGAAACCGAGGAAGAGGUACUAUCAAAACACCGCACGAAGAGUCGAAAAAAAAAAAAAAAAAAAA'
p180
aF0.9619047619047619
aa(lp181
S'Chicken feet'
p182
aS'AAAAAGUAGGCGUAAGGUUACAAAGUAAGAAGCUCAAGCGCAAAAUGAGCAAGGUUAGGCUGUAGAA'
p183
aF0.8656716417910447
aa(lp184
S'Bug 18'
p185
aS'GAGAAGAACUUAUAGGUAUAAGCAAACCGGGAGCCUAGGCGCGACGAAAGCCA'
p186
aF0.9622641509433962
aa(lp187
S'Fractal star x5'
p188
aS'AAAAAGUUAUAUGAAGAUCGAAAGAUCAUGAUCGAAAGAUCUAGAUCGAAAGAUCAAACUUAAAAAAGUAAUAUAUAGCAAAAUGAUUUUUCAAGAUCGAAAGAUCAAGAUCGAAAGAUCAAGAUCGAAAGAUCAAGAUAGAAAUAUCCAGAGAAGUCUAAAGGAUGUGUUAAGAUCGAAAGAUCAAGAUCGAAAGAUCAAGAUCGAAAGAUCAAGGGGAAAACUCCAAGAUACAUCAAAAAGAUAUAUCAAUACUGAAAGGUGAUGAUCGAAAGAUCUAUAUCGAAAGAUAAACAUAAAAAUAUGAAGAUAUAUCAAAAAGAUAGUUCAAGAUCGAAAGAUCAAGAUCGAAAGAUCGAGAUCGAAAGAUCAAGGUCGAAAGAUCAAGAACUAUCGAAAA'
p189
aF1.0
aa(lp190
S'Crop circle 2'
p191
aS'GGGAAGAGAAGGGAAAAAGUGUAAAAAAUGUGAAAAAAAAAAAAAAAAAAAAAAAAAAAAAGCUAAAAAAAAAAAAAAGAGAAAAAAAAUCAAAAAAAUCAAAAUCAAAA'
p192
aF0.9636363636363636
aa(lp193
S'Branching Loop'
p194
aS'GAAAUAAAAAUAAGUAACUUAAUAGUUCAAUCAAAAAAAA'
p195
aF0.95
aa(lp196
S'Bug 38'
p197
aS'UACGUGCGCGAGCUCAAUGUCAAGCGAUUAAAAACU'
p198
aF0.9444444444444444
aa(lp199
S'Simple Single Bond'
p200
aS'AAAAAAGAAAAAAAAUAAUGGAAAACAUUUAAAAAAAGCAAAAAAAAAAAAAAAAAAAAAA'
p201
aF1.0
aa(lp202
S'Taraxacum officinale'
p203
aS'GGGGAAAACACAUAGAGGGAAACACUCUGCGGGAAACCCUCUGAGGGAAACACUCAAUCUGAAAGACUUAGGAGAAAACAUCCGGAUGUAUAUACGAUAUUGAUACAAAGUAUACGGUAUCAGAGACAAGUUAUAUGGCAAAAUAUACAAAGUAUAUUGGCCAUAUAACGAUCAGGUAGCAAGGCUAUCGAUCGUUUCAAAGUAUAUACAUCAGAUGAAAGAAAUCGUAUGAAGAUAGUAAUAGGGAAACACUAUUCGGGAAACAAUAUGCGAAAAAGACGC'
p204
aF0.9716312056737588
aa(lp205
S'Headless Bug on Windshield'
p206
aS'GCCGGCGAAAAGUAUAAAAGUAGGGUAAAAAAAAAAAAAAAAAAAAAAAUCCCAGCAAAUAUAGCGAAGCAGGACUGGAGAGCUCGCAAAAAAGUGAAAACAAAAAAUCCUUCAAAAAAUACCGAGUAAAAAAAAGGCGGUCUUGGUAGUCAGUGAAAAAAAAAAAAAAAUGCAAGAAGGUCUCCAACUCAAUGAAAUCA'
p207
aF0.98
aa(lp208
S'Pokeball'
p209
aS'AAAUUCGUACAAAAGUGAGGCGAGAGGGGGGGCAAGGAGUGCAUCAGUGAAAGGAGAGACAACCAGCAAUCAUCCACCAACGUGUGGAGAAAAAAAGCUAUUCAAAAUGAAUUGUGAUAAGGAAGGGGUCAAAGAGCGAGGCAAAGCACGACGUGCGACCGGCCGGUCAGAACAGGAUAGCAAA'
p210
aF0.9782608695652174
aa(lp211
S'Variation of a crop circle'
p212
aS'AAAAACGAAAACAAAAUGUAAAUGAAGCAAAUAAAAUGGGCAAAAGGGAAAAUUCAAAAAAAGUAAAAAAAAAGUGAAAAAAAAAAAA'
p213
aF0.9545454545454546
aa(lp214
S'Loop next to a Multiloop'
p215
aS'AAGAGAUAUUUAAAAAACGGCAUGCGAAAGCAUGCAGAUAUCAGAAAUGAUAUCUGGAAAAAUAAUAUCUCGA'
p216
aF1.0
aa(lp217
S'Snowflake 4'
p218
aS'GAGCGAAGCUCCAUGUUUGAAAGCGGUAUAGGCUCCCCAAAGGUGAUAGGCUCAAGGAGCAAGGUCAAAGACCCUAUCUCGAAAAGGGGGCAAGUUUCGCGAAAGUGCUGCUAUAAAAUAUAAAGAUUAAAGGUCACAGCGGGAAAGUAGAACAAGAUGGAAGAAAGCGAUACGAGCGAAGCUCAAGAUCAAAGAUCGUAUCGUAAAGCAUUAUCAAGUUACGCGAAAGAGCUAAGUUCUAUGAAAAAAGGAUAUUCCUUUGGCAAGAAGUUGUAACAGGAGCAACGAAAUUGAUAUUAUUGAAAAUCAAGUUCGAUGAGUGUAUCGCGAAAGCUCUUCAAGUACCCUGAAAAGACAUGGCCCAAAGGGC'
p219
aF0.8972972972972973
aa(lp220
S'Mat - Cuboid'
p221
aS'CAAGGAAAAUAAACCAAAAGUAAGAAAAACUACCAUGGAACAGGGGGAAGACAAAAGAAACAAGUGAGCAAAAUCAACCAAGCAAGCAAAAGCUACCAACUAAGCAAUUAAAAGCGUACUGGCCCGCGUGCAAAAGGUUGCACACAGCCACGAUGUAAAAAGCCUGCCAGUCACCUUUAGAACAAAACCGAGGUGACAGUAAAGCAACCAAAAAAGGGCGCGCUAAGGUAACCGAGGGUGAUGAAGGAUACCAGCAUGCUAAUUCAGGGAGGUCGGCAUGCGCUAGCUACCGAGUAAGAGAGAGCGAAGUGGGGUGUGCAGGCAAGGAUGAUGGAACAAGGAAUCAAAUCAAUUCCUAGGGAGUCAAACGGAAGAUCUAG'
p222
aF0.8552631578947368
aa(lp223
S'Misfolded Aptamer 6'
p224
aS'AAAAAAGACGAAAAUAAUCAGCAAUAUACAAAAAAAGGUAGAAGGAAAAGGAUUUAAAAAAGUCGAAAAAAAAAA'
p225
aF1.0
aa(lp226
S'Snowflake 3'
p227
aS'GAGAAGAAAUAAGAGGAUAAAAGUCAAGUUCAGAUCAAGUGAAAACACGAGAGCGAAAAUUAGAAACUACCAAAGGCAUUCGAGAAAACUCAAUAUCGGGGAAACAGAAAACUCCGGAGCAAAGGAUAGAAAUUAGGGAAACCAUCCGAUAAAAAACAAUCUCAGAUGAAGAGAAAACUCCGCGGCGAAAGCUCGAAACGAGCGAAAGCAGCGGAGAAAACUCAAUAUCAGAACACUACUAAUGUAAGCAGCGAAAGCUAGAAACUAGCGAAAGCACCGGAGAAAGCUCAAGUUCGGCUCAAGAGAAAACUCGAGAGCGAAAGCUAGAAACUACCUAAUGGACUCGAGAAAACUCAAGAGCGGAGCAAGAGAAAACUCCUCGGGGAAAUCCUC'
p228
aF0.8015267175572519
aa(lp229
S'Hard Y and a bit more'
p230
aS'AAAAAGAUAGAAAGACACUAAUGUGUAUUCGAGCCUUCUAGAUCGAAAGAUCAUGAUACUAAAAUGUAUUUUGGUGGCUCCUAUCGAAAAAAAAAAAAAAAAAAAA'
p231
aF0.9716981132075472
aa(lp232
S'Mat - Lot 2-2 B'
p233
aS'GGAUGUAAGUACAUGUAAAACCUUGGAUGAAAAUAAAACUUUGGACUGGUAAAAGCGGACGGUACCAAUCUUCCACUUACAAAAGCUAAUUGAUGCAAAAUCGAAAGGGCCGCGAAAAGUAUGCGUAAGUCCUUGAAAGCGAAAGCGGUUGACCACCCAAUCCGGUGCACGAAAGUAAAAGCUACGGGUGGGAAAAUUAAUCGCAAGGAAUCAAUCGUCGGUAAAAGAGUGGACAGGAAAAAGCGAAAGCUCAGGUAAAACAAAGCACACGCGCAUCUAAAUAC'
p234
aF0.8133802816901409
aa(lp235
S'Shapes and Energy'
p236
aS'AAAAAUGGGUGCAUUUCAAAAGUAUUAUGAGGAAACGCAUAUAGCGAGGGGUGGGGCGCGGUUGAAAAGUCUGAGCGCAUUAAAAAAAAAAAAAAAAAAAA'
p237
aF0.9603960396039604
aa(lp238
S"Spiral of 5's"
p239
aS'UAAAGGAUACAAAGAUAGAAAGAAAGAAAACUUACAAAGAUAUAAAGAUAGAAGGUACAAAAGAUAGAAAGAUAGAAAGAUAGAAGAUACAAAGAUAGAAAGAUAGAAGAUACAAAGAUAGAAGAUACAAGAUACUAGAUACAAGAUUGCGACAGGGAGCGAUCUCUAAAUGAGAUGAAAACGUUCAAAAACUAUCAGAAAUGGUCAAAAAGUAUCAAAAUGUAUCAAAAAGUAUCAAAAACUAUCAAAAAGUAUCAAAAACUAUCAAAAAUUAUCAAAAAGUAUCAAAAACUAUCAAAAACUAUCAAAAACUAUCAAAAAGUACCAAAAACUAUCAAAAAAUAUCAAAAAGUAAGAAAAACUUUCAAAAACUAUCAAAAAGUAUCAAAAAAAAAAA'
p240
aF0.9949622166246851
aa(lp241
S'Campfire'
p242
aS'AAAAGGUCGACGUGCAAGAUCAAGCUCUAAAUGAGCUGUAACAAAGUUACCAGAUCGGGCACAGUAGAAUAGACAAAGAUACUAUGACGAGACAGCACAAGCGAAAGCUGGCUACUAGAGGAAACUACACGAAAAGUAAUCGAGACCCGCAUGCCGAGACAGAGAUAUCGAAAGAUGCUCGUCGAGAGUUAGAAGCAACUAUUCGCCGGACC'
p243
aF0.9433962264150944
aa(lp244
S'Anemone'
p245
aS'AAAGAGACUAAAGGGUUUCCAAUCGAAAGGUUGGUAAUCGAAAGAUUGCGAGACGAAAGUCUCGAUAACGAAAGUUAUCGUUACGAAAGUAACGCUACGAAAGUAGCGAUAUCGAAAGAUAUCAUCCUAAAAGUGGGAGAUAUUGAAAAAUAUUUAUGCGAAAGCAUAGAUAGCGAAAGUUAUCGUUACGAAAGUAACGUUCUGAAAGCAGAGC'
p246
aF1.0
aa(lp247
S'Fractal 3'
p248
aS'AAAAUGAUCAGAAAGCGAAAGCCGGAAACGAUUCAGAGAGCGAAAGCGAGAAAUCACUCGGAGAGCGAAAGCGUGAAAACACUCAGAUAGCGAAAGCGCGAAAGCAGUCAGAUCUAAAA'
p249
aF1.0
aa(lp250
S'Kyurem 5'
p251
aS'AAAAGGAUAGUCAGGAAAGACUAGCCAAAAAUCUAGGAAACGGGAAAAUUGUGUAGUAGCAAAACUCAGGGGACUGUAAGGAUCGAAAAAAAAAAAAAAAAAAA'
p252
aF0.9230769230769231
aa(lp253
S'Snowflake Necklace ( or v2.0 )'
p254
aS'GGUAUAUUUAAAUACACUCGGCUCAAAAAGUAUCAAAAAGAAUCAAAAGGAAGCGAAAAGCAGUAAAAAGAACUGAGACACGAAAAGUGAGUUAAUGCAAAAAGCUUCGAAAAGAAUCGAAAAGAGUCAAAAAGAUGAAAAAAGCGCUAACAGUGAAAAACGCAUAUAGAUCAAAAAGAAACAAAAAGUACCAAAAAGAAUCAAAAAGAAUCAAAAAGAGCUGUAAGAGAAAAACUCGCUUAGAGCAAAAAGCAUCAAAAAGAGUCAAAAAGAAGCAAAAAGAGGCAAAAAGUACUAAGAGAGAAAAGCUCAGAAAAUUCAAAAAGGAGCAAAAAUUAACAAAAAGAAUCAAAAAGAGUGAAAAGGAAUUGUCGGUAUUUAAAUAUAUC'
p255
aF0.8663239074550129
aa(lp256
S'Methaqualone C16H14N2O Structural Representation'
p257
aS'AAAAAAACAUCAGAUCAUAGAGAAAAAGUACGGAAGAAGAAAACUUAGAGGGUGAAAACGAGUAGCGAGAAAACUCAGGGAAAAAAGCUCACUCUCUCAUGCACUCAGAAACACAUCAGUAGAAAGAUGACGAUGGAAGUCUAAAAAAAAUCUGACAAAGAAAAACCUGGGAAACCACUUAAAAAUGCUCUUAAAAGAUCGGAAACAGAGAGAGAGGCAUAGAGAGAAAAGUGAAAACACACUCAUAUGAAAAUGACUAAGAGAAAACUCAGCCAGACGAAAGUCACUCAGGGGAGGAAAUUCUAGAAAACUAAUAGAAAGCUCCCCACUCAGAUCAAACUACAGAUGAAAAAAA'
p258
aF0.8873239436619719
aa(lp259
S"Cat's Toy 2"
p260
aS'AAAUCUGUGGUAAAACCCUACAAAAAAAAAAAAAAAAAAAGGAGUCUGCAGAAAUGAAAUCGAAAGGGAAAAAAUGCAAAAAUGGUACAGCUCUAAA'
p261
aF0.9587628865979382
aa(lp262
S'Zigzag Semicircle'
p263
aS'AAAAGGAGCAAAAUAAAAAUAUAUAGUUCCGAAA'
p264
aF0.9411764705882353
aa(lp265
S'Short String 4'
p266
aS'AAAAAGUUAACAGACAUGAAACUGAAGCGAAAGCUCAUGGAAUAGGGCUAUAUCUGUAUCAAGAAACAGUAAGUACACAAAAAAAAAAAAAAAAAAA'
p267
aF0.9381443298969072
aa(lp268
S'Gladius'
p269
aS'GGAAACAUUUGAAUCAAUAAGAGAAGUAGCAGAGUCUAAGAUCGAAAGAUCAGAUAGAAAAGAGACGGGAUCAUUGGAGCAAGAGAUAUAACAGAUGGUAUAUAGAGAUCACAUCAAGACCAAAGGUCAGGUAGGAUCUGUGUGGCCUAUCGAUUAUAUCGACAGCUCAAGGGAUCGACCCUCAAUACUAUCUGACAAAGCGGCAUGCAGGAGUGGGAAGCAGACAGGAAGAGAAGAUAUACAGAUAUCUGAUACAGAUAGUAGAGAGAUAUCGAAAGAUAUUGGCUCAUCUAUACGUGUACGAUAUACGUAUAUCACGAGAUCAGAGCUGCGCAACACACACGUAUGAGAGCGAAAGCUCAAACGCACUGAAACGGCAUUAAAAUGACAUAUAUAAAAA'
p270
aF0.895
aa(lp271
S'Thunderbolt'
p272
aS'GCAAGAUACAAAAAAAAUAGCAAGAAGGAAAAGUAAUCGCAUAUAUCAAAAAAAAAACAAAAAAGCUCAAAAAGAGCAAAAAAACGAGACGCUUAAAAAAAGUGCAAAAAACAACAAGGAAGGAAAAAGAAAACGGAUCUAAAAGCUAAAAAGUAGCAGAAACAGAAUCAAAAAACCAGAUGAAAGUAAAAAAGUAGAUCAAAGAACCACAAAAAAUCAAGUAUCAAAAAAAUGAUCAAAAGGCCAUCUAUGAUGGCACCGCCCAAAAAAAAAAAAUUAGUAAAAAAAAAGUGCAAAAAUGAUGUCAAAAAGAAAAAAAACAAAAAGACAUCAAAAACAAAGAUAUAUGAAAAAAAACAUCAAGCAAGAAAAGAAAAAAAUAGUAUCAAGCA'
p273
aF0.9387755102040817
aa(lp274
S'Mutated chicken feet'
p275
aS'AAAAAAAGCAUCAGGAAGACAGCAAUCGAAAUAGCAGCAGGUCGAAAUGUGGAAACCAAAGGGCGGCAGCACCGAAGGAGGAAAACGAAGGGCAAAAAAA'
p276
aF0.86
aa(lp277
S'Chicken Tracks'
p278
aS'AAAAAAAGUAUAUACUAUCGAAAGAUAAAUGGCUAAUGUCAGAGAUCGAAAGAUCGUAUAUAAACGCUCGGAAACCGAAAGAUCAAAGAUCAAGGCCAAAGGUCGCGAAAAAAAAA'
p279
aF1.0
aa(lp280
S'Looking Back Again'
p281
aS'AGGAACGGGAUCAAAAAGAUAUCGAAGAUAUGGCAUCAGGAGGGGAAGCGGAACGCCCCAGUUCCUAACAUCGAAAGAUGAAAUGGAGCAACUCAACCAAAGACUGAGAAAAAGAUACGAAAGUAUCAAAAAAGUCAAUGCGAUACAAAGUGUCGAUACAAAGUAUCGAAAUAUAUAGUCUAACUUGAAGUUUAUCUAAUGAUAUACGCAAGAAACACAAGGAAAAUUAAAUAUAACAAAGUAUUGGGCAAAUAUAAAUUAAAAAAGAAAUAGAAAAAAAAAAGCAAAAAGCCGCUAUAAACUUAAAUCGUGGAAAAAAACCGUAUCGAAAGGUAUGAAGACUCAAAGAAUAUACUAUGUAUAAAGGGUCGAAACCACGUAUCAAACUU'
p282
aF0.8817480719794345
aa(lp283
S'Multilooping 6'
p284
aS'AGGCCACGUUGAUACAAAGGUGUCGCUAUUAAUGUAUCAGAAGGGAACUUAAUAAGUUGAGACAAAGGUCUCCCUGUGGCAA'
p285
aF0.926829268292683
aa(lp286
S'Cesspool'
p287
aS'GAGUAAGUAAGCAACCGACGAUAGAGAACCACUAGAACAACGGAGAUGUAAAGAAAUACAGCAAAGCAAGACAGAGAAAACAAAAACAUUAUGAACGAAAUAGCUGAAGAGGAAGUAACUUAAUAACGGCAGAAUUCGAAAGCAAAAUUUGAAAACUAAACAAAGAAAACACCAGCUAUCAUGAAGAAAAUAGGACGUCAGAGGAAAAUCCAACAAGAAGUUAAAGUGAAAAACAUUGUUGAAAACACCUCACAGAAAAUACCAAGCGAGGUAGAAGGAAAUAAGAGUUGAGAGACAAAGUCAGCGACAACUCAAGUUUAAAAAAACACAAGAAAACGAGACAGAGAAAACACCGAGC'
p288
aF0.7206703910614525
aa(lp289
S'Hoglafractal'
p290
aS'AUAAGGUAUAUCCAAAAGAGACAAAAAAGUUUCGGAUGGAUCCAAAUGCAAAAGGCAUGAUCAAGAAAAGAAAACCUGUUAGAGAAAGAUCAAAGAUCAAAAAAGAUCGGUCAAGAAGCAAAAAAUGCUUUGCAGCGAAAGCGCAGAUUAAAAGGCAAGAGAAAAAGACCGUAGCAGCAAAAAGCGCGUCAAAACACGGAUACAAAAAAGAGCGAAAAAGCCUGGGAAAAACCCUCGAAAGAAGGUGUCAAAAAAUAGAAAAGACUAACUAAAUGGAAGAAUAUACAAAGUAUAUUAAAAAAAGACACCAAAAAGGUAUCAAAAAAAUCAAAACUCAAUUCAACUAAUUGCAGAUCUAAACCGAAAGGGCGAAAGCGAUAUAAAAUAUAUCUGAUCGCAA'
p291
aF0.925
aa(lp292
S'Bullseye'
p293
aS'AAUGAGUUUCGAAGGGAAGGUCUUAUGGACAACAGCUAUGAUACUUUAAAAAAAGCUGAUGAAAGAGCAAGAACGAAGUUCGAAAUAAAGAAUCGGCGAAAAAAAGACGUUCUAUGAACAUGAGCGAAGCUCUAGAGUAAGAUUCCCCGAAAAAAAUCGCCUGGAACAGGAGUACUAAGCAUGAAGGACAAAGAUCUUCGGA'
p294
aF0.8267326732673267
aa(lp295
S'Shooting Star'
p296
aS'GAUAUCGAUUGAGAGACUAAGAGAUGCGCAUAGAGACGGAAACACUUCCAUGAGACAGCCAUGAAUUUCAGGUAGAGGAAAGAGUGGGAAAUAGAGAGAGUUCAGGAAAACAUGAAACUUCCAUAUAUCCAUCCAAGCCAGCGAAAACAAUAUCGGUCGCCCCAAAGGGGCAGAUACAAAGUGUCUAGGAAACGGAGAUCAGUUCAGCUUAGAGGAAAGGUAUACAAGGUAUACCAGAUAGGAAUUAGCCCUCGCGUAUGAAACAUGCGCAGACACAAAGUAUCGGUUGUAGAAGGAAACGUUAAAGUACAGAGUUACACUAGAAAAAGGCGGUAGAACGCAAGAAGAUUAACUACAGAUAUCA'
p297
aF0.8434065934065934
aa(lp298
S'Teslagon'
p299
aS'AAAAAGGCUAAAAAAAGAGUAAAAAAAGCUUUGAAAAAAAAAAAAAAGAGAACAGAAUGCAAAAAAAAAAAAAAAGCUUCAAAAAAACCAAGGAAAAAAGUAAAAAAAAAAAAAAAGCAAAAAAACUUGUAAAAAAACAAGGAAAAAAAAAAAAAAACGAAACGGAAAACUAAAAAAAAAAAAAUAUGUCGAAAAAAGGUGCAAAAAAAGGAAAAAAAAAAAAAAAUCAAAAAAAACAGGAAAAAAAGAAGCGAAAAAAAAAAAAAAGUAAACAGAAAGAAAAAAAAAAAAAAAAUCAGCAAAAAAACCAGAAAAACAAGUAAAAAAAAAAAACCAAAAAAAAAAAAAAAGGGCCGAAAAAACAACCAAAAAAUGCAAAAAA'
p300
aF0.9109947643979057
aa.