(lp0
(lp1
S'Simple Hairpin'
p2
aS'GAUAGAAAAAACUAUC'
p3
aF1.0
aa(lp4
S'Arabidopsis Thaliana 6 RNA - Difficulty Level 0'
p5
aS'GAUAUCGAAAAGAGAAAAAAAAAAACUCGUAUAUCGAACAUAUAUAUAUAUAUAUGUUAUGAUAGAAAAAACUAUCUAUAUAUAAUAUAUAUAUAUGAACGAUAUACAACGAUAUC'
p6
aF1.0
aa(lp7
S'Prion Pseudoknot - Difficulty Level 0'
p8
aS'AUCGACAGAUCAAAAGAUCGUCAGAUAAAAAAAAAA'
p9
aF1.0
aa(lp10
S'Human Integrated Adenovirus - Difficulty Level 0'
p11
aS'GAUAGAUAUGUAUCGGAUAUUUAAAAAAAAAUUAGGUACCGCUCAAAGGCCCACAUGAAAAGCCAUAUUUCAACUAAAAAAUGUUGAAAUAUAAAAGGCCAUGUAACAGGGGAGAAAACGGUAGAACUAUAAAAAAAAGUUAUAGCCUAUAAAAAAAAAAUAAUAUCAGAUAAAACCGUAUCAAAUAUCAAA'
p12
aF1.0
aa(lp13
S'The Gammaretrovirus Signal - Difficulty Level 0'
p14
aS'AAGUGGACUAUAGGAAACUAUGGAACUCGAAAAUGAUCAACCGUGAUAAAUAGAAAACUAUUAAAGUAUCCGGGAUCUAGAUAUAUUAAAGGAUAUAUCAA'
p15
aF1.0
aa(lp16
S'Saccharomyces Cerevisiae - Difficulty Level 0'
p17
aS'GUUCUAGGGAGUAAAAAAUCUCCGGGGAAAAAAAAAAAAAACCAAAAUGUAGUAAAAAUCUAUACUAGAGCAAAGGCCGACCAUGAUCUAAAAAAUGAUCGCGUAAAAAAAAAAAUCGCAAAAGCUACAAAAAAAGUAGCGGUCGGCAAAACAUAUAGAAGAGCAAAAAAAGGUUCCAUUAGUAAAAAUCUGAUGAAAAUUGAUUAAAAAUAUCAACUAUAUGGAAAGACUUGGAAGUUCGAAAAAAAGAGCGGUAUCAAAAAAGGAUACCAAAAGACAGAAAAAAACUGUCCUAAGUCAAAAGUUCAAGCAGAUCGAAAAAAAGAUCCUUGUCUAAAAAUGAUAGGAAAAAUGAGGAAAAAACUCAUCUUGAGCGAAA'
p18
aF1.0
aa(lp19
S'Fractal 2'
p20
aS'AAAAGGAUAUGUCUAGGUUAUAUAUGAAGAUCAAAAAAAAAAGAUCAAGGUCAAAAAAAAAAGACCGCUGUGAAAAAAAAAACACGAAUAUAUAUAACAAAGAUGGACAUCACGGUUAAAAAAAAAAAACCAAGAUCAAAAAAAAAAGAUCGCUCGUUAAAACAAAUGCGAAAGAUGUCUAUCAAAGAUAUAUAUUAACAUCAAAAAAAAAGGAUGAUCUUCGAAAAAAAAAGAAGCGGAUCAAAAAAAAAAGAUCAAAAUAUAUAUCAAUGAUAUAUCAAAAA'
p21
aF1.0
aa(lp22
S'G-C Placement'
p23
aS'ACACAAAGUGUA'
p24
aF1.0
aa(lp25
S'The Sun'
p26
aS'GACAGCGGUCCAAAGGACAACGCGUCAAAGAGACUGAUACAAGGUGUAGCAGCUCAAAGGCAGGCGUACAAGGUACAAGCCGCCAAAGACAGAGAUACGAAGUACAACUCGUCAAAUGUAGAGAUCCAAAGGAUAACUCGCGGAAUACAGGUAUACGAAGUAUAAACCGGGGAAGAGAGGCAUACAAAGUAUAACUCCUCGAGCACAGUGAACCAAGGGUUAAAGCGUGAAACUCAGUGAUACAAGGUAUCACGCCGC'
p27
aF0.875968992248062
aa(lp28
S'Frog Foot'
p29
aS'AAAAAAAAACGCUUGAAAGAGUCUUCGAAAGAAGCACCAACGGUG'
p30
aF1.0
aa(lp31
S'InfoRNA test 16'
p32
aS'GCUAUCUCAGGUAUGGAAACAUAUACUAGUGAUAGC'
p33
aF1.0
aa(lp34
S'Mat - Martian 2'
p35
aS'GAUGAAAACAUCAAAGAUAUGGAAUAUAUAGAAAAAAACUAUAUGCUAUGUCAAGGAUAUAUCAAAAAAGAUAUACAGAUAUAGGAAAAAACUAUAUCGUAUAUCAAAGAUAGAGAUAUAUCAAAAAAAGAUAUAUACUUUAUCAAAAAAGAUAUAUCAAAGAUAUAUAUAUGUCGAAAAAAGAUAUAUAAGUAUAUCAAACCUGUAAUCAGG'
p36
aF1.0
aa(lp37
S'square'
p38
aS'GAUAUACGAUAUCGAUAUACGAUAUCAAAGAUAUCAAAAGUAUAUCAAAAGAUAUCAAAAGUAUAUC'
p39
aF1.0
aa(lp40
S'Six legd turtle 2'
p41
aS'AAAAAAUAAAGCUAAUUUAAAAUAAAAUUAAAGCGAAAAUAAUUAGAAAUGUAUGCAAAAGCUAUGUAAAAGCUAGGUGAAAAAAAAAAAAAAAAAAA'
p42
aF0.9591836734693877
aa(lp43
S'Small and Easy 6'
p44
aS'GGCGCGAAAAGCAAGGGAAAAAAAACCGCC'
p45
aF1.0
aa(lp46
S'Fractile'
p47
aS'AAAAAAAAAAAACCAAAAGGAAAGCAAACCAAAAGGAAGCGUACGAAAACGAAAGCAAGCAAAAGCAAAGCAAUCGAAAGAGAAAAAAAAAAAAAAAAAAAAAAA'
p48
aF1.0
aa(lp49
S'Six legd Turtle'
p50
aS'AAAAUCCAAAUACUAAUGUUAAACCAAAGACAAAUGCAAAAGCUAAGCCAAAACCAAAAGAAAAAGUAAAGGCAAACCCAAAAAGAAAAAAAAAAAAAAAAAAAA'
p51
aF0.9428571428571428
aa(lp52
S'snoRNA SNORD64'
p53
aS'GAUAUCAAAAAGAGAAAAGAGAAAGAUAGAAAAAAAAAAAAACUAUCAAAACUCAACUCAAGAUAUC'
p54
aF1.0
aa(lp55
S'Chalk Outline'
p56
aS'AAUAACUACAGAGAGAAAACUACUCGGACAGCCAAAAGGCGUCAGAUGACGAAAGUGCAUCGGGGUUAAAAGACACCGUAGAAAAAAAAAAAAAAAAAAAAAAA'
p57
aF1.0
aa(lp58
S'InfoRNA bulge test 9'
p59
aS'GAUAUAGAGAGAGAGAUAUAGAAAACUAUAUCCCCCUAUAUC'
p60
aF1.0
aa(lp61
S'Tilted Russian Cross'
p62
aS'AAAAAUUGGGUAUUAAUAAGCUCGAAGUCAGAAAUGACCUUAUUAAUAUAAGAUGUCGAAAGGUGUUGGGUUUUAAUAAUCGUCGGAAAAAAAAAAAAAAAAAAA'
p63
aF0.9238095238095239
aa(lp64
S'This is ACTUALLY Small And Easy 6'
p65
aS'AAAAAAAAAAAAAAAAAAAAAAAAAAAAAAAAAAAAAAAAAAAAAAAAAAAAAAAAAAAAAAAAAAAAAAAAAAAAAAAAAAAAAAAAAAAAAAAAAAAAAAAAAAAAAAAAAAAAAAAAAAAAAAAAAAAAAAAAAAAAAAAAAAAAAAAAAAAAAAAAAAAAAAAAAAAAAAAAAAAAAAAAAAAAAAAAAAAAAAAAAAAAAAAAAAAAAAAAAAAAAAAAAAAAAAAAAAAAAAAAAAAAAAAAAAAAAAAAAAAAAAAAAAAAAAAAAAAAAAAAAAAAAAAAAAAAAAAAAAAAAAAAAAAAAAAAAAAAAAAAAAAAAAAAAAAAAAAAAAAAAAAAAAAAAAAAAAAAAAAAAAAAAAAAAAAAAAAAAAAAAAAAAAAAAAAAAAAAAAAA'
p66
aF1.0
aa(lp67
S'Shortie 4'
p68
aS'GCAAAAGCAGCGAAAGC'
p69
aF1.0
aa(lp70
S'Shape Test'
p71
aS'AAAAACUGUUCAAGAUGGUAAAAAAUCUAUCGGGACAUAGAGGUAUUAAAUAUACCAGCUCAAAAGAGCGCUAGUCAAGAACUGGAAAAAAAAAAAAAAAAAAA'
p72
aF1.0
aa(lp73
S'The Minitsry'
p74
aS'GAGAAAAAGAGGAAAAGACAAAAUUCGAAAAAGAGAAAAAAAACUCGCGACGUCACUCGCUC'
p75
aF1.0
aa(lp76
S'stickshift'
p77
aS'AAGAUAUCGCGAAAAGCGGAUAUCGA'
p78
aF1.0
aa(lp79
S'U'
p80
aS'AAAAAGAUAGAGAGAGCAGAGAUAUAUACAAAAGUAUAUAUCCGCCCCUAUCAAAAA'
p81
aF1.0
aa(lp82
S'Still Life (Sunflower In A Vase)'
p83
aS'AAAGAACAAGAAUGUAAAUCAUUCGAGAUCUAAGAGAUCAGGAGCGGAAAACGUUCAUGCUUCAAAGAAGCUAUACAGUAAAUCUGUAAAGAUACAAAAAGUAUUAUAUAGAUAUAUUUAUAUAUUGCUCCUAGUAAAAUCUAGGAGUUGCGAAAAAAAAAAAAUUAGAAAAAAAAAAAAAAAAAAAAAAAAAAAAAAAAAAAAAAACACUAGAAAAAAAAAAAAAGUCACGAAUCAAAAGAUUCAAGUAAUAUAUAAAUAUAUCUAUGAAUAUUAAAAAGUGAUGAUGAAUCAAAAGGAUUCUGAACAAGAAAACUGCCAUGAUAAAAAAGUUAUCUUGGUACGAAAGUACCUAGAAAAAAAAAUUUUCAGUUUAAA'
p84
aF0.9523809523809523
aa(lp85
S'Quasispecies 2-2 Loop Challenge'
p86
aS'AAAAACUACGAUAACCUAAUAAUUUAGAAUAUCAGAUCAACCAAGGGGAUCAGAUCGGCGACUCAAAAAGAGGAGAAGAUCGUAGAAAAAAAAAAAAAAAAAAAA'
p87
aF1.0
aa(lp88
S'Corner bulge training'
p89
aS'AGAUAUCGAUACAAAGUAUCAAAAGAUAUCA'
p90
aF1.0
aa(lp91
S'Spiral'
p92
aS'AAAAAGAUCAGAUAUCAGAGAGAUAGAGAUCAGAUCAGCAGCAGCAGCAGCAGCAAAAAGCGCGCGCGCGCGAUCGAUCCUAUCCUCGAUAUCGAUCAAAAA'
p93
aF1.0
aa(lp94
S'InfoRNA bulge test'
p95
aS'AAAAAAAAAAAAAAAAAAAAAAAAAAAAACGAGAAAAAGGAGCAAAAGAGCAAAGAGCGGCGAGACGAGAAAAACUACGACUACGAAGCAUCAAAGCAUCAAAAAGCAUCAAAAAACUACGA'
p96
aF1.0
aa(lp97
S'Worm 1'
p98
aS'AAAAAAAGGCUGGGAUUCCGGAUAACAAUUUUAGAUGAUAGUGAU'
p99
aF0.9555555555555556
aa(lp100
S'just down to 1 bulge'
p101
aS'AAAAAGAGCAGAUAGAAAACUAUCAGAGAAAACUCAGCAUCAAAAGAUCAGAGAAAACUCAGAGAAAACUCAGAUCAAAAAAAAAAAAAAAAAAAA'
p102
aF1.0
aa(lp103
S'Iron Cross'
p104
aS'UGAAAUUCGAAAAGAUAAAAAUUGAGGGAAAACUCACUCGAAGUGAGAGAAAACUCUACCAAAGCUUUGUGAAGAGACACAAAAGUGGCACAAAGUGACUCGAAGGACUACAAAGAACUUGUA'
p105
aF0.9512195121951219
aa(lp106
S'loops and stems'
p107
aS'AAAACCUAUAUCAAGGAUCAAAGAUCAAAGCUCAAAAAAAAAGGUAGAAAAAAAAAAAACUACCAAAGAGCAAAAGAGCAAAAAAAAAAGCUCGAAGAUCAAAGAGAAAAAAAGCUCAAAGAUCAAACAAAAAAGUAAAGAUAUAGUAAAA'
p108
aF1.0
aa(lp109
S'Water Strider'
p110
aS'AAAAACGACAGGGCGCCAGACAAAAGAUUAGCAAUGUAUACAAAAAACCCGCAAAGGCGAUUGAAAGUUAGAUGGAAUGAUGGAAAAAAAAAAAAAAAAAAAA'
p111
aF0.941747572815534
aa(lp112
S'The Turtle(s) Move(s)'
p113
aS'AAAGGAAAACCAAAUGCUUAAUACGAAAAAAAAGUAUUGAGCUAAAAAUCAAAAAGAUUAGAAACCCAAAAGGGAAAGGUAGAAAAAAACUAUCGAAAGUUAAAGCAAAAGUAGAACCUAAAAAAAGAAAACUAUAGAAUAAAACUAUAGAAAAGAGAAAACUCAAAAAUUUCAGUAAAGAGAAAAAAACUGAACAGCAAAAAAAAUGAAACAUAGGAAAAACUAUGGAGGAUCAAAAAGAUCAUCCGGGAAAAAAAAAAGGAAAACCAAAAAGCAAAGGCAAAAAGAUGCCAAAAAAAAAAGGCAUAAAAAGGAC'
p114
aF0.9873417721518988
aa(lp115
S'Adenine'
p116
aS'GAUAGAUAUAUCAGAUAUCAGAUAUCAGAUAUAAGACAUCAAAAGCUAUCAAAAAAGAUAGCAGAUGUCAGACAGAAAGAUAUGCAAAGCAUAUCCUGUCAUAUAUCAGAUAGAUAUAUCAAAGAUAUAUAAACUAUCGGAUAUCAAAAGAUAUCAAAAGAUAUGAAAACUAUC'
p117
aF1.0
aa(lp118
S'Tripod5'
p119
aS'AUGCCCGCCCUAAUUGGGCGACAUCAAUUGUCGGGUUA'
p120
aF1.0
aa(lp121
S'Shortie 6'
p122
aS'GAGAAAUCAGCGAAAGCAUGGAAACAACGGAAACG'
p123
aF1.0
aa(lp124
S'Runner'
p125
aS'AAAAAGCUUGGAUCAAAAAGAUAAAAUAUCAGAUCAAAGAGAAGAGACCAAAGGUAAACUCGCAACCAAAGGUAAAUGCACUCAAAGAGGACGGGAAAACCCACUCAAAGCAAAAA'
p126
aF1.0
aa(lp127
S'Recoil'
p128
aS'AAAAACUAUCAAGCAAGCAAGAGAAGAGAAGCAAGCAAAGCAGCACUCACUCAGCAGCAGAUAGAAAAAAAAAAAAAAAAAAAAA'
p129
aF1.0
aa(lp130
S'[CloudBeta] An Arm and a Leg 1.0'
p131
aS'AAAAACUCAGAGAGAAAACUACUCGACAGCAAAAGCGUCAGAGAAAAAAAAAAAAAAAAAAAA'
p132
aF1.0
aa(lp133
S'[CloudBeta] 5 Adjacent Stack Multi-Branch Loop'
p134
aS'ACGUCGAGUGAAAGCUCCUAAGGAAACUUGGCCAGCUAAUGCUGGGGAGGAAACUCCGACGUA'
p135
aF1.0
aa(lp136
S'Triple Y'
p137
aS'AAAAGGUACCGCGGUUUAAAGAAACGAGCAAAGGAUCAGCGGUAGGCUCGAAAGAGGUACUUAAUAGUAAAACGUGCAAAAAAAAAAAAAAAAAAAA'
p138
aF0.9175257731958762
aa(lp139
S'Misfolded Aptamer'
p140
aS'GAUUUAAAAUAUUACGAAGUAGCCGUAAGGAAAAAAAAGAUUUAAUAAUC'
p141
aF0.96
aa(lp142
S'Flower power'
p143
aS'AAAAACUAGCUGCAAAGCAGGGUGCGAGCAAAGCUCAAGAUAAAAUAUCAUACACAAAGUGUGCACAGCUCAAAGAGCCUAGAAAAAAAAAAAAAAAAAAAA'
p144
aF1.0
aa(lp145
S'Kudzu'
p146
aS'AAAAACUAUGUAAGGGCCGAAAGUAGCUCUGCACAUUUAUAGGGCAAGGGCCUUAAAGAGAAACAAGAAGUCAAGUCUUAGAAAAAAAAAAAAAAAAAAAA'
p147
aF0.9603960396039604
aa(lp148
S'"1,2,3and4bulges"'
p149
aS'AAAAAAGCUGCCAUGUAAUCGAAAAGGGAAUGUCAUCACAACACAAAAAGGUUAGACGAAAGCAAGUGAAGAAAACUUAAGUCGCGGAAAAAAAAAAAAAAAAAA'
p150
aF0.9809523809523809
aa(lp151
S'medallion'
p152
aS'GGGAUCAGUCACCAAAUGGUGGCACUCUAAUGAUACAGAAAACACGGCUAUCAAAAGAUAGCAGCGAAAACGUAUAUAUCAAAAGAAAUGAGAGAAAACUCGCGGAAAAUCAGGAUAUCAAAAGAUAUCAAUGAAAACAUAGAGUUCAAAAGAGCUCAGACUAAUGUCAUAGGAAACUAGGGCGUAAAAAUAUGCCAGCGGAAACGUAGAUUUUAAAAGAGAUCGGGCAAAACUUAGAAGAAAUGUGGAGAUCAAAAGGUCUCGGUGGAAACACAGAUGUGAAAACAUGUCGGGGAAAACUCAGAUUAAUGUCAGCUGUCUAAUGACAGCGGAUUCU'
p153
aF0.9376854599406528
aa(lp154
S'[RNA] Repetitious Sequences 8/10'
p155
aS'AGCAAAAAAGCAAAAAAGCAAAAAAGCAAAAAAGCAAAAAAGCAAAAAAGCAAAAAAGCAAAAAAGCAAAAAAGCAAAAA'
p156
aF1.0
aa(lp157
S'Documenting repetitious behavior'
p158
aS'AAAAAAAGUAAAAAAAAACGGAAAAAAAUCUAAAAAAAAACUAAAAAAAACCGAAAAAAAAAUGAAAAAAAAAUGAAAAAAAAGUGUAAAAAAAACCUAAAAAAACGAAAAAAAAAACCAAAAAAAAAACAAAAAAAAACCAAAAAAAAUUAAAAAAAAACGUAAAAAAAAGCAGAAAAAAACGCGAAAAAAAACGAAAAAAAAACGAAAAAAAAAGUAAAAAAAAAGGUAAAAAAAAGUAAAAAAAAAUGUAAAAAAAGGGGAAAAAAAACUGAAAAAAAGGGGAAAAAAAAUGAAAAAAAAUUGGAAAAAAACAGAAAAAAAAGAGAAAAAAAAAUAGAAAAAAAAGGAAAAAAAAAACAAAAAAAAAAGUAAAAAAAAUGAAAAAAAAAACAAAAAA'
p159
aF0.95
aa(lp160
S'7 multiloop'
p161
aS'CGCGGCCGCUAAUGCGGUGGGACAAAGGUCCCCACUAGAAAUGGUGCGAUAGAAAUAUUGGAGACAAAGGUCUCCUCAGGGAACUGAGCGCG'
p162
aF1.0
aa(lp163
S'Kyurem 7'
p164
aS'AAAAUCCAGCGCCGGGAAACUCGAGAAAGGAAGACACUAAAUGCGCGCCUACAAAAAAGUGAAUGGCCUAUCUCGCGAUUGGUAAAAAAAAAAAAAAAAAAA'
p165
aF0.9411764705882353
aa(lp166
S'JF1'
p167
aS'GAUAGAGAUAUAGAUAGUAGAUAGAAAAGAUAUCAAGAUAGAAAGAGAGAAGAUAUCACAUAUAUAUACAUCAAAAGAUGUAUAUAUAUGAUGAGAAAACUCUGAUAUAUACAAAAGUAUAUAUCAAGAUAGAAAACUAUCAGAUAUCGCUCUCACUAUCAGAUAUCAAAGAUAGAUCAAAAAGAUACUAUCAAGAUAUAUAUAUAUAUAUAUAUAUCAAAAGAUAUAUAUAUAUACUAUAUAUAUCGAAGAUAGAAAAAACUAUCGAUAUAUAUCAAAAGAUAUAUAUCAAAGAUCAAAAGAUCAACUAUCGCCUAUCAGAUCAGACAGUUAAAAAGCGUCGAUCGCUAGAUAUCAAAAGAUAUACUAGAAUAUACUCAUAUCAAA'
p168
aF1.0
aa(lp169
S'multilooping fun'
p170
aS'CCCCAACCCAAUUGGGGAAACACCGGAGAAUACGUG'
p171
aF0.8055555555555556
aa(lp172
S'Multiloop...'
p173
aS'GACGCGCUCAGAGGAAACUCAGUGAAAACACGGCUAAAGGGCAGACAAAAGUCAGAUGAAAGUCGGGGUAAUCCCAGAGCAGAUAUAAAAAAGUAUCGCGGAAACGCCGUC'
p174
aF1.0
aa(lp175
S'hard Y'
p176
aS'AAAAGGGCCAUACCAAAGACGAAAGAUUUUGAGAUAGUAUAUAUCGAAAGUCCGAUAUCGGUCAAAAA'
p177
aF0.9705882352941176
aa(lp178
S'Mat - Elements & Sections'
p179
aS'AAAAUCAAGGCGAACUGCAAUUUAAGACUGCGAGCCAGGAGCAAAGGUUACCUGUUGUAAUCUCAAAAAUUUGCUGGAAGACUUGUAAAAAAAAAAAAAAAAAAA'
p180
aF0.9619047619047619
aa(lp181
S'Chicken feet'
p182
aS'AAAAAGAACCAGCGAAGCUGCAAUACUAAGGGCGAGAAUAGAUAUCUACGAAAUUAAGAGCUUAAAA'
p183
aF0.9104477611940298
aa(lp184
S'Bug 18'
p185
aS'ACUAUUUUAAGCCAGCCAGGUAUAAAGUAUCCUGCAGUAAUAUAGGGAAAAGG'
p186
aF0.8490566037735849
aa(lp187
S'Fractal star x5'
p188
aS'AAAAAGUUACCGGAAGUUCAAAAGAACAUUAUCGAAAGAUAUAGAUCAAAAGAUCAUGAUAAAAGUAUCUACUGGUAACAAAAACAUAUAGCGGGGACAAAGGUCCAAGAUAGAAAUAUCAAUCUCAAAAGAGAAAUUCGUAAUCGAAAAGCUAUAUGAAAAAGAUAGGCCUAUAUCUAAUGAUGGUGCUCUAAUGAGCUAGGCCGAAAGGUCAAGGUAGAAAUACCAUGGCUUAUCGAAAGCAUAUCUGAUGUCCAAAAGGGCUAGAUCAAAAGAUCAAUGUCAAAAGGCGAAGGUCAAAAGACCAACGGAUAUGAAAAAGUGUUAUCGACCGCUAAUGUGGGCGUUGAAAACGACAUGGUCAAAGGGCCUAGGACAAAAGUCCGAGAUAGCACAAAAA'
p189
aF1.0
aa(lp190
S'Crop circle 2'
p191
aS'GGUAAAUAAAAAGGAAAACUGAAAAAAAAUCAAAAAAAAAAAAAAAAAAAAAAAAAAAAAGGAAAAAAAAAAAAAAAAGGGAAAAAAAAAUAAAAAAAGCAAAAUCAAAA'
p192
aF0.9636363636363636
aa(lp193
S'Branching Loop'
p194
aS'AGAUACUAUAAAGUGGAAGAAAGCAUCAAUAUCGAAAAAA'
p195
aF0.95
aa(lp196
S'Bug 38'
p197
aS'AGGGAGCCGUUGGGCAAAUGGCUCGUUCCAAACUCA'
p198
aF0.9444444444444444
aa(lp199
S'Simple Single Bond'
p200
aS'AAAAAAGGAAAAAAAUGGGUAAAAAGCCUUAAAAAAAACAAAAAAAAAAAAAAAAAAAAAA'
p201
aF1.0
aa(lp202
S'Taraxacum officinale'
p203
aS'GGACAAAAGAGCCACAGCAAAAGACUGGACGCAAAAGACGCGCGCCUAAUCAGAGGAAGCAAAAGAAACACAGAAAAAGACUGAGAUAGAUAUAUGAUAUGGCUGCGAAGCAGACCAUAUCGGAUAGAAUAUCUAUAUCAGGAUAUGCAAAGUAUAUCAGAUAUAGAUAGAUCAGCUUCCAAAGGGAGCGAUCCUAUCAAAAUAUAUCUAUUACAUCAAAGGAACCGUUCGGAAACACGGAGUACAAAAGGUGCACAGGGAAACACUGACACGAAAACAGUG'
p204
aF0.8865248226950354
aa(lp205
S'Headless Bug on Windshield'
p206
aS'AUCGACAAAAAGGAAUAAAGCACUAAAAAAAAAAAAAAAAAAAAAAAAAAUAGAGCAAAGUCAUCAAAGUAGGUGUCUAAACAAGCGAAAAAUGCAAAAGUUAAAAAAGCGUUAAAAAUGACAGAGUGGAAAAAUAACAAGGAGAAGUAAGAGCGAAAAAAAAAAAAAAACGCACCUAUCUCAACCAGUUUACGAAGCCG'
p207
aF0.98
aa(lp208
S'Pokeball'
p209
aS'AAAAAUAUAGAAAAGCCAGAAAGUGAACGAACCAAGGAAGGAACCAAGCAAAGCAGGAACCACCAGGAACGACGCAUCAGCCUAUAUUACAAAAAAUAUUUAGAAAAGCCAGAAAGAGAAGGAACCAAAGAAGGAAGCAAGCAAAGCAGCAACCACUAGGAACCACUCAUCAGCCUAGAUAAAA'
p210
aF1.0
aa(lp211
S'Variation of a crop circle'
p212
aS'AAAACUAAAAUCAAAAGGAAAGAGGAGCGGCUAAAAGAAGCAAAACAAAAAAACCAAAAAAAGAAAAAAAAAAGGGAAAAAAAAAAAA'
p213
aF0.9545454545454546
aa(lp214
S'Loop next to a Multiloop'
p215
aS'AUGAGAUGCGAAAAAAAAGAGUUUCAAAAGAAAUUAGAUAUGGAAAACCAUAUCGUAAAAAAGCGUAUCUCUA'
p216
aF0.9726027397260274
aa(lp217
S'Snowflake 4'
p218
aS'GAUUAAAGAUUGAUACUCGAAAAACUUAGAAUAUAGGCAAAAGCGAUACGACGAAGCGUCAAGAUCAAAGAUCGUAUCUCAAAAGCUUAUAAACUAGCACUAAUGAUGUAAUAACAAAGAAAAUGAACGAAGUUCUUGUCGCGAAAGCGAUAGAACUGUGGGAAAACCGAUACUAUCAAAGAUAAAGAUCAAGCGUCGUAUCGCAAAAGCUACAGGAUUAUUGCAAAAGCGAGACUAGCAAAGCUAAAGAUCAAAGAUCGUCUCGCAAAAGCAAUAAAGCUAUUCCAAAAGGCUACCCGACAAAGUCGAAGAUCGUAGAUCGGUAGCUAAAAGGGAUAGAACUAGGGCAAAAGCGUAUCUAUCGAACAUC'
p219
aF0.9081081081081082
aa(lp220
S'Mat - Cuboid'
p221
aS'GGGAGGAAAGCAAGCAAAAGCAAAGAAAAAAAUCUAGCAAAAGCAAGCAGGCAAAAAGAACGACCGGUGAAAAGAAAGCGAGAAGGAAAAAUCGAGCAAGCAAGUAAAUAAAAGCGGAUGACCUGUCAGCCAAAAUCGAGGGGCAGGCCGGUAGGCAAAAAUCGUUACGCCGACACACCGGUCUAAAACGGGUUGUCGGGCGCUAGGGCAAAAAAGUAAUGAAGCAAGAAUGCAAGUGAAAGGGAUGGAGGAAGGUACGUGAAUAAAGGAAGGAACCGAGAGGAAGUAUGGGAGUAAGCGUGAGCAAGCGAGCAAGAUCAAUCAAGCAAGCGAAAGGGAGUGAUGCAAACAAGCGCAUGGGAGGCACACGUAAGUACAAC'
p222
aF0.8736842105263158
aa(lp223
S'Misfolded Aptamer 6'
p224
aS'AAAAAUGAGGAAAAAGAUCAGCAGAACUCAAAAAAAAGAGAAAGGAAAAAGAUCAAAAAAACUCUAAAAAAAAAA'
p225
aF1.0
aa(lp226
S'Snowflake 3'
p227
aS'GCACGAAAACGUGAGGCCAAAAGACAGGACAAGAUCUAGCGAAAAUGCGACAUCGAAAGCUCCAAAGGAAGAAAAUAAGUCGAUAAAAGUAAUGAUCGGAGCAAGAGAAAAAUCGACAUCAAAAGAUAUGAAAUAUAAAAGGAAGUCGAGAAAACUCAAGCUCGUUUAAAGAGGAAACUCGACUGCAAAAGCUACAAAGUAUAAAAAUAAGUCGACAAAGCUUAAUAAAAGAACAAGAGAAAACUCAACAGCAAAAGCUACAACGUAGCAAAAGUAGUGGUGAAAACACAAGAUCAUAUUGAUAGGAAACUAGAAUGGAAAAACUACAAAGUAUCGAAAGAUUUGAAGGAAACUUAAGAUGAUGACAAUAGGAAACUGCCCAGCAAAACCCGG'
p228
aF0.8396946564885496
aa(lp229
S'Hard Y and a bit more'
p230
aS'AAACGCUGGCAUCGCACGUAAAAGAGAUUGUAUGCACCAUUAAUAAAAGUUAGAGAUUUUAAAUUGGAUUGAGGCGCAUAGCUAAAAAAAAAAAAAAAAAAAAAAA'
p231
aF0.9716981132075472
aa(lp232
S'Mat - Lot 2-2 B'
p233
aS'CAACGCGGCGAGAACGAAAAGGGGCGGGAAAACCAAAACGAACCUGAACUAAAGCGAAGAUCAAACAAGAAGGCCCGACCAAAAGUGGCGAGUACCAAAAGCAAAAGUGGAUCUAAAACGAAACGGGAGGCAGGGCAAGAAAAAUCGGAGCGUGAACCAAAAUCGGCGAGAAAACUAAAACGAAGGGGAACGAAAAAGAGGCGUAAAGAACCGGUCAAAGGCAAAAGGGACGUGAACGAAAACCGAAAGGCGAACGAAAACGGAUCAGAGCUUAAAGAAAGGAG'
p234
aF0.7852112676056338
aa(lp235
S'Shapes and Energy'
p236
aS'AAAAAAAUUACCACAAUCAAAAAAAACGCUUUAAUAUGCGUGAGUGUUGGAUAAAAAAAAAUAAAAAUCUGUCGCCCGUUAAAAAAAAAAAAAAAAAAAAA'
p237
aF0.9603960396039604
aa(lp238
S"Spiral of 5's"
p239
aS'AAAAAGAUAGAAAGAUAAAAAGAUAUAAAACAUAGUAAGAUAAAAAGAUAAAAGAUAGAAAAGAUAGAAACAUAAAAAGAUAAAAGAUAGAAAGAUAAUAAGAUAAAAGAUAGAAAGAUAAAAGAUAGAAGAUAGAAGAUGGAAGAUCGCGAUAGAGAUAGAUAUCAAAAGGAUAUAAAAACUAUCGAAAACUAGCUAAACCGAUCAAAAACUAUCGAAAACUAUCAAAAACUAUCGAAAAUUAUCAAAAACUAUCAAAAAUUAUCAAAAUUUAUCGAAAACUAUCAAAAAUUAUCAAAAAUUAUGAAAAACUAUCAAAAACUAUCAAAAAUUAUCAAAAAUUAUCAAAAUCUAUGAAAAAGUAUCAAAAAUUAUCAAAAACUAUCAAAAAUAAAAA'
p240
aF0.9949622166246851
aa(lp241
S'Campfire'
p242
aS'AAAAGAGGGAGAGAUAAGCUUAAGAUAAAAAGGAGCAUCGAGUAUUUCAGAUAAUCGAAAUCAGCGGCAGAGAGAAAACUAUUCGCGAUACAGGCCACCAGGGAAACCAGGGCUAGAGAGGAAAUUACCAUAGAGCUACUGGGUACUUGUUUGUACUGACAGAAAUAUCGAAAGAUAUACGUCGAAAGAUCUAUAACACUAUUCUCAGCCUC'
p243
aF0.8537735849056604
aa(lp244
S'Anemone'
p245
aS'AACGUGAUCGAAAGAUUUCAUAUCGAAAGACAUGACGUCUAAUGACGCUGUCAGAAAGCUGGCGACUUCAAAGGAGGUCCUUCGGAAACGAAGCAUAGAAAGCUAUGUAUCUCAAAAGGUAUAAGCUGUUAAUGCAGCCAUAAAAAAAUUUAUGGGUACGAAAGUACCGAUCGGGGAACCAAUCGAUGGAAAGCCCACGAGGUCUAAUGAUCUC'
p246
aF0.9906542056074766
aa(lp247
S'Fractal 3'
p248
aS'AAAAAGACUACUAAACAAAAGUGCAAAAGCAUAGAGAGAGCAAAAGCGCAAAAGAACCCAGACAGUUAAAGAGAAAAAGCAGGGAAACAUAAAAAUCACAAAGGCAGCAAGGUCAAAAA'
p249
aF0.8907563025210085
aa(lp250
S'Kyurem 5'
p251
aS'AAAAGGCAUACCCCCAAAUAGCUAUAAACGGUCUGUCAAAGAAAAAAAUUCGACGUGUAAAAAGAUAAGGUCACGGGACAAUAUAAAAAAAAAAAAAAAAAAAA'
p252
aF0.9423076923076923
aa(lp253
S'Snowflake Necklace ( or v2.0 )'
p254
aS'AAUGAAUAGAUCUAUAGAUUGAGCGAAAAGCAAGGAAAACUUUCAAAAAGAUGCAAAAAGCAUCAAAAAGAAUUAUCAGUCAAAAAUGCAUGUAUAGCGAAAAGCAGCAAAAGGCAGGAAAAACCAUCAAAAAACAUCAAAAAGCAGUACAGCCCAAAAAGGGAGAUAGGGCAAAAAGCAGCAAAAACCGUCAAAAGGAAGCAAAAAGCAAUAAAAGGUACUAUUAGUAGAAAAUACAAUUGUAGUAAAAAGUGGCAAAAAAUAUCAAAAAGACUCGAAAAGACGCGAAAAUCAGCAGUGGACAAAAGUUAUGCGCGGGCAAAAAAGAUGAAAAACAAACAAAAAGAAGCAAAAGGUAACGAAAAGCACGCGUUAUAGAUUUGUUUAUU'
p255
aF0.8406169665809768
aa(lp256
S'Methaqualone C16H14N2O Structural Representation'
p257
aS'AAAAAAAGAUCUAAUGAGACAGUCUAAUGAUAGAGAUCGGAAACGGGCACAUAGAAAACUAAGACAUUCAAAAGAGAGAGUAAAAAUCUCACACAGUGGCUAACUAAGAAACAUAUUAGUGGAAAAAAGAGAAAGCAAAGCAAAAAAAACUCGGGGAUGAAAAAUAGUAGAAAACUAUAGAAAACUACCCAUUAAAGAGCAGUAACAAAAAGAAAGAGGGAGAGAUUAAUGACGAAAGUCUAUCAGAGAAAGAUUACUCGUGGAAAACCAACUCAGGUAAAAGUCAUUCGGUAGAGAAAAUACUACAAAAGUAAGCGAAAACUCUACAUUCAGCUCGAACUACUGAUCAAAAACC'
p258
aF0.8676056338028169
aa(lp259
S"Cat's Toy 2"
p260
aS'AAAUAUAGUAUCUAACGGGGGUAAAAAAAAAAAAAAAAAUCAAACCAAACAAAAGCAAACUAAAGGCUAAAUAAAUGAAAAAACCGGUACUGUUAAA'
p261
aF0.9381443298969072
aa(lp262
S'Zigzag Semicircle'
p263
aS'AAAUUGGACACGUCUAAAUCACCUAGUUCAUAAA'
p264
aF0.9411764705882353
aa(lp265
S'Short String 4'
p266
aS'AAAAAAUCAGUAACAAUGAAAGAGGAGGAAAGCAGCGACAAGUGGCGUCGAAAAUGGAGAGAGAAACUUAAGACGGGAAAAAAAAAAAAAAAAAAAA'
p267
aF0.9381443298969072
aa(lp268
S'Gladius'
p269
aS'UGAAAGAAUGAAAUAAAGAAGCGAACAAAGAGUGUAAAAGAUCGAAAGAUCGGAUAGAAUGGAGAAGAGAGCGAUAGUUCUUGGGAUAUAGGCGAUAGUAGGUACACAUGAGAUCAAGCUCAAAGAGCAGAUACCAUGACUAUCGACUAUCCACUAUAUCAGUUGAACACCAGCUCGAUACUCAAGACUAUCAGACAAUUAGACUAUCAGAAUAGAGAAGCAAUGAAGGUGAGAUGAUAAAUAGUAUAUAGAUAUAGAUACAAGGCUGAUAUGAAAACGUAUCUCGUCUCGUAUACAUAUACAUAUAACAUUUAUCUCAACACCAUAUUUGCGCAACUAGCGAGAUAGAGAGCAAAAGCUUAAACUAUCUCAAGGGACACGACAAACGGAAAAAAAAAAU'
p270
aF0.9075
aa(lp271
S'Thunderbolt'
p272
aS'GGGAGAAAUAAAAAAAAAGGCAGGGAAUAAAAGAAAGCUUGGUACUAAAAAAAAAUCCGAAAAACUAUAAAAAAUAGAAAAAAGGUAAGCAGACAAAAAAAUAAGAAAAAGUGAAAUGCGGCCAAAAAGUAAUCAGCUGAAAAAGAGAAAAAGUUCGAAAAGUAUGACCAAAAACUCAUCCGAAAUAAAAAAUAGGUAUCUAUGAUAAAUUAAAAACAAAACGGGAAAAAAAACAGCAAAAGAGUAGCUAAGCUACUAGGAGGCAAAAAAAAAAAGUCGGCAAAAAAAAAAAACGAAAACGUUGUCAAAAGCGAAAAAAGGAAAAAGGCAACAAGAAUAAAUAGUGACAUAAAAAAUUCUUAAGCAUAAAAAGAAAAAAACAGUUUCGAUCA'
p273
aF0.9413265306122449
aa(lp274
S'Mutated chicken feet'
p275
aS'GAAAAAAUAAGCCGUAAACCGGGAAACUAAAUAUAAGCAACAGUAAAGUGGCAAAUUAAACCGCAAGACGGGAAAAUAAUGAAACAAAAUGCCGAAAAAA'
p276
aF0.82
aa(lp277
S'Chicken Tracks'
p278
aS'AAAAAAAGCUGCCUAACUGAAAACGAUAGGAUCUAAUGAUCAAGACCAAAGGAUCUCGACAGAAUGGGUGGAAACAACAUGAUCUAUGAUCUAGAGGUAACAUUUCACAAUAAAAA'
p279
aF0.9827586206896551
aa(lp280
S'Looking Back Again'
p281
aS'CAGAAGACAAUCAAAAAGAUAUCAAAGAUAUCGGAUUAAGACGAGAAGAAAAAGUCCUCAGUAUCGAAGUUCAAAAGAGCGAAAGAUACGAGUCAAGUCGAGUUCGAGAAAAAGUGAGGAAACUCACAAAAAACUCGAUUCGAAACGAAGUUUCGAUACAAAGUAUCGAUAUCUGCCUAGCAAGAGUUUGAGCUGGAAAACCAGAACUGAAUGAGAUUAGUCAAAAGACAAGAUUUCAAAGGAUCGAGUAGAAGCACAUGUAAACGGAUAUAGAAAAAAAACGAGGAAAACUCGCUAUAAAGCCUCAUGGUUGGAAAAAGCGGGAUCAAAAGAUUCCAAGCCCGAAAUAGUAUACAAAGUAUAACGGCGCAAACCGACGCUUCGAACUG'
p282
aF0.8946015424164524
aa(lp283
S'Multilooping 6'
p284
aS'AAAGUGGGGCCGAUCGAAAGAUUGGGAUCUAAUGGCCAGCCUCCGAUGUGAAAACAUCCAGUUUAAUAAUCGACGCUACUGA'
p285
aF0.926829268292683
aa(lp286
S'Cesspool'
p287
aS'GAAGAACAAAAAGAGAGAACAGUGAGAAACUCUCCAAAAACUCAAGAAGAAAACAACAGAGCAAAAUAAAAGAAUCAAAAGAACGACAAGAAGAAGAAAACAAGAGAACAUACUCAAAGAGACAAAGGACUCAAGAAGAAAACAACACGGCAAAAGAAGAGAAUUAAAAAAGCAAUAAGGAGAAAGAAAACAAGGGAGCAGAGGCUAUGCCACCAAGAGCCCAAGAAGAAAACAAUAUAAGAAAAUCAGAGAACCGAAAGACUAACUAACCGCCAAUAAAAGAAUAGGAAAGAGACAAACUCACCAAGAACUGAAGAAGAAAACAACAUAACAAAAGGAAAGAAUCAAAAGACGAAGG'
p288
aF0.7597765363128491
aa(lp289
S'Hoglafractal'
p290
aS'AGGUCCAACGUUCAAAAAACACAAAAAAGUGUGGAAUGCUAAAGAUUAGAAAAACUAGUAAGGCAAUGAGAAAACUCUAUUGAUAGCGAUUAAAUACUGAAAAAAGUGAGUCGGGAACUUAUAAGAAGCUCGAAUCAAAGUAUCAGAUCAAAAGGGAAGAGAAAAAACUCCUCGCAGCAAAAAGCGCGAAAAAAGUCCGACGGAAAAAGCAGGAAAAAACCGCAAGUAAAUCUAACGAAAGUCGAUAAGUAAAAUGUGUAAAGUCGCCCAAAAAGAAAAGAUCUACGAAGUAGAUCAAAAAAUCUUAUCAAAAAAUCGUCAAAAAGAUCAAAAAUAUCCGAAACAAAGUGCAGAUCAAAAGUAAAAACACAAAGGAUAUAUGAAGCAUAUACGAUCACUU'
p291
aF0.86
aa(lp292
S'Bullseye'
p293
aS'AAGGAGGAGCAAAUAUAAAUUUCUAUGAAGAAGACUCAAGGACCUCAAAAAAAAUACGCUCAAGAGACAAAAUCAAAGAUUGAGGUGUAUGAGCGUGGAAAAAAAACGGAUCAAGCAUCAAGAUCGAAGAUCAAGAUUAAAGAUCCGUAAAAAAAAGACGCCCAAAGAGCAAGAACAAAGGUCGUCGCCAAAGUUGGUGAAA'
p294
aF0.8217821782178217
aa(lp295
S'Shooting Star'
p296
aS'CUAUAGCCAGUUGAAUGAACUAGAAUGGGUCAGUCAGCAAAAGCCGAACGAUACAGAGCGUAGUUUCAGAGAUCGGUCAGUGCGAUUGACAUCAAGACAUAGCAGCAAAGGACGUUACGUCUAGAUAGCAGACACAGCGUACGUAAUUAAGGUCCACUUUUGCAAAGCAGCAGAUACAAGGUAUUCGCAAAAGAGAGACGACUUCAGAUUAGGUCAAAGAGAUAUAAGGUAUUUCGGGCGCAAGGCGCCGACCGAUAUACAAAGUGUAUCAGUUACUAUGUAGCAAUCGCGAAAGAAAACGUACGAUAGCAGACUGAGCUCAGUAAAAAUCGAUACUAGAAAAGACCAAAUCGCGCACUAUAGA'
p297
aF0.7582417582417582
aa(lp298
S'Teslagon'
p299
aS'AAAAAACUGAAAAAAUUAGCGAAAAAAGUAUCAAAAAAAAAAAAAAAGGAAAGAAAAGGGAAAAAAAAAAAAAAAUCAACGAAAAAAGCGGCAAAAAAAGCAAAAAAAAAAAAAAAACGGAAAAAGGGGCAAAAAAAGCAGCUAAAAAAAAAAAAAUGCAAAGAAAAAUGAAAAAAAAAAAAAAACGAGCGAAAAAAGAGGUAAAAAAAUCAAAAAAAAAAAAAAAGAGAAAAAAACAGAGAAAAAAGCAUCAAAAAAAAAAAAAAAGAGAAGAAAAAGCAAAAAAAAAAAAAAAGUAGCACAAAAAUCAUGGAAAAAAGCGAAAAAAAAAAGUCAAAAAAAAAAAAAAAGAAGCGAAAAAGGGAGGGAAAAAAAGAAAAAA'
p300
aF0.9267015706806283
aa.