(lp0
(lp1
S'Simple Hairpin'
p2
aS'GAUACAAAAAAGUAUC'
p3
aF1.0
aa(lp4
S'Arabidopsis Thaliana 6 RNA - Difficulty Level 0'
p5
aS'GAUAUACAAAAGUCAAAAAAAAAAAGACGAUAUAUCAAGAUAUAUAUAUAUAUAUACAAAGAUACAAAAAAGUAUCAGUAUAUAAUAUAUAUAUAUCAAGAUAUAUCAAGUAUAUC'
p6
aF1.0
aa(lp7
S'Prion Pseudoknot - Difficulty Level 0'
p8
aS'GAUAUCAGAUCAAAAGAUCGAUAAUCAAAAAAAAAA'
p9
aF1.0
aa(lp10
S'Human Integrated Adenovirus - Difficulty Level 0'
p11
aS'GUAGAGUAUAUAACUGAUCUCGAAAAAAAAAAUGCGGAGAUACGAAAAAGACCGCGUAAAAGACAUGUUAUGUCUAAAAAAUGGCAUAAUAUAAAAGUCACGUGUAAAGUCCGUAAAAGUCUCAAUUAUUUUAAAAAAGAAGAUGCGCAGAAAAAAAAAAAGAGAUCUGUUAAAAAUGUAUUAAAUUACAAA'
p12
aF1.0
aa(lp13
S'The Gammaretrovirus Signal - Difficulty Level 0'
p14
aS'AAGGCGAGAUCGCAAAAGCGAUCGAGACGAAAAGGAUUAAGUUAGAUCCAUACAAAAGUAUGAAAAGAUCAACAAUCAGAAUAGAGCGAAAGCUUUAUUAA'
p15
aF1.0
aa(lp16
S'Saccharomyces Cerevisiae - Difficulty Level 0'
p17
aS'CAUAUGCGUUUUAAAAAAUAAGCUCGAAAAAAAAAAAAACGCGUCAACGGUCUAAAAAUGAUUGGCAUAUGAAAAUUGGUAGAAGAUGUAAAAAAUCAUCACCAAAAAAAAAAAAAGGUAAACGAUGCUAAAAAUGCAUCCUACCAGGAAAGAGCCAUAAGACCGAAAAAAAGGUCGUUUGUAAAAAAGACAAACAAAGACUGUUAAAAAUGCGGUAUAGCUCAAAGGGUCGUGAAUAUCUAAAAAAUGAUAGACGUAAAAAAAGUAUGUCAAAAAGAACAAAAAAGGUUUUCAUGGCUAAAGGCCAUAGAGGUUCUAAAAACUGGGCGAUUUUUAAAAAUGAGAUCUAAAGGUAGAAAAAAGCUAUCAUAAAGCAAAA'
p18
aF0.9894459102902374
aa(lp19
S'Fractal 2'
p20
aS'AAAAAGAUAUAUCAAAGGUACUUAACAAGAUCAAAAAAAAAAGAUCAAGAUCAAAAAAAAAAGAUCAAGUUCAAAAAAAAAAGAACAAGUUAAGUAUCAAAUAUAUAUAUCAAGACCAAAAAAAAAAGGUCAAGAUCAAAAAAAAAAGAUCAAGAGGAAAAAAAAAAUCUCAAGAUAUAUAUGAAAGAUAUAUACCAAGCUCUAAAAAAAAUGAGCGAGAUCAAAAAAAAAAGAUCGAGAUCAAAAAAAAAAGAUCAGGGUAUAUAUCAAAGAUAUAUCAAAAA'
p21
aF1.0
aa(lp22
S'G-C Placement'
p23
aS'GAUCAAAGAUCA'
p24
aF1.0
aa(lp25
S'The Sun'
p26
aS'GUCAUAUGACCGAAGGUUAAAGAGAUAAAAUCAGAUAUUCAAAGGGUAAAUCGAUAAAUGCAGAGAUACUACGGAUAAAUCGCGGAUGUGAGAACUUCAAAGAAGAAUUCCACUAAAUCAGACAUACGAAGUAUGAGUCGACCAAGUCAGGGAAAUUAUAUUUAACCCGACGAAGCGAGCUAUACAAAGUAUAAAGCCGCGAACUCAAUUAUUAAAGGGAUAAAUCUACAAAGUCAGAUAUGCUAUGUAUUAAUCGAU'
p27
aF0.813953488372093
aa(lp28
S'Frog Foot'
p29
aS'AAAAAAAAAAGAUCAAAAGAUCGAGCGAAAGCUCCAGCAAAGCUG'
p30
aF1.0
aa(lp31
S'InfoRNA test 16'
p32
aS'GAGACAGCCUAUAGCUAAUGCUAUCAGAGAUGUCUC'
p33
aF1.0
aa(lp34
S'Mat - Martian 2'
p35
aS'GAUGAAAACAUCAAAGUUAUACAAGAUAUACAAAAAAAGUAUAUCGUAUAACAAAGAUAUAUCAAAAAAGAUAUACAGAUAUACAAAAAAAGUAUAUCGUAUAUCAAAGAUAUAUAUAUAUCAAAAAAAGAUAUAUAAUAUAUCAAAAAAGAUAUAUCAAAGAUAUAAAUAUAUCAAAAAAAGAUAUAUAAUUAUAUCAAAGAUCAAAAGAUC'
p36
aF1.0
aa(lp37
S'square'
p38
aS'GAUAUACGAUAUCCAUAUACGAUAUCAAAGAUAUCAAAAGUAUAUGAAAAGAUAUCAAAAGUAUAUC'
p39
aF1.0
aa(lp40
S'Six legd turtle 2'
p41
aS'AAAAAGGGAUAUAAAAGAUAAUUAAAAAGGAAGAAAAAUCGAGGCAAAAGGAAAGCGAAAGCAAAGCUAAUAUAAAUUAAAAAAAAAAAAAAAAAAAA'
p42
aF0.9591836734693877
aa(lp43
S'Small and Easy 6'
p44
aS'ACGAUAAAAGAAAAGGGAAAAAAAACAUGU'
p45
aF0.9333333333333333
aa(lp46
S'Fractile'
p47
aS'AAAAAAAAAAAAUUUAAUGAGAAUGGAAAGAAAACCAAACAAAGGUACCCCAACGCAACCAAAAGGAAACAGUGGCAAAUCUAAAAAAAAAAAAAAAAAAAAAAA'
p48
aF0.9619047619047619
aa(lp49
S'Six legd Turtle'
p50
aS'AAAAAAGUAAAGGAAAAUCAAAAACAAAACCGCAUAUAAAAAUCAAAGGAAAAUCAAAAUGAAAAUGAAAAACAAAGCUAAAGCCAAAAAAAAAAAAAAAAAAAA'
p51
aF0.9428571428571428
aa(lp52
S'snoRNA SNORD64'
p53
aS'GAUAUCAAAAAGUCAAAAGUCAAAGAUACAAAAAAAAAAAAAGUAUCAAAAGACAAGACAAGAUAUC'
p54
aF1.0
aa(lp55
S'Chalk Outline'
p56
aS'AAAAAUAUCUGGUCCAAAAGGAACCUGUCACCCUAAUGGGGACGGACAUCGAAAGACUGUCAACCAAGAAAUUGUGUGAUAAAAAAAAAAAAAAAAAAAAAAAA'
p57
aF1.0
aa(lp58
S'InfoRNA bulge test 9'
p59
aS'GAUAUACAGAGAGAGAUAUACAAAAGUAUAUCCCCGUAUAUC'
p60
aF1.0
aa(lp61
S'Tilted Russian Cross'
p62
aS'AAAAUGAUCAGUUAAAGAACAGAGGAGAGCGAAAGCUCCAUAUAAAGAUAUGAGUGUUAAUGCACCUUCAAGCGAAAGUUCGAUCUAAAAAAAAAAAAAAAAAAA'
p63
aF0.9238095238095239
aa(lp64
S'This is ACTUALLY Small And Easy 6'
p65
aS'AAAAAAAAAAAAAAAAAAAAAAAAAAAAAAAAAAAAAAAAAAAAAAAAAAAAAAAAAAAAAAAAAAAAAAAAAAAAAAAAAAAAAAAAAAAAAAAAAAAAAAAAAAAAAAAAAAAAAAAAAAAAAAAAAAAAAAAAAAAAAAAAAAAAAAAAAAAAAAAAAAAAAAAAAAAAAAAAAAAAAAAAAAAAAAAAAAAAAAAAAAAAAAAAAAAAAAAAAAAAAAAAAAAAAAAAAAAAAAAAAAAAAAAAAAAAAAAAAAAAAAAAAAAAAAAAAAAAAAAAAAAAAAAAAAAAAAAAAAAAAAAAAAAAAAAAAAAAAAAAAAAAAAAAAAAAAAAAAAAAAAAAAAAAAAAAAAAAAAAAAAAAAAAAAAAAAAAAAAAAAAAAAAAAAAAAAAAAAAAA'
p66
aF1.0
aa(lp67
S'Shortie 4'
p68
aS'UCGAAAGAAGCGAAAGC'
p69
aF1.0
aa(lp70
S'Shape Test'
p71
aS'AAAAAGUGAUCAAGAUACAAAAAAAAGUAUCAAGUCAGUCAGAUACAAAAAGUAUCAGAUGAAAACAUCAGACGACAAGAUCUCAAAAAAAAAAAAAAAAAAAA'
p72
aF1.0
aa(lp73
S'The Minitsry'
p74
aS'GACAAAAACUGAAAAACCAAAAAAGUCGAAAACUCAAAAAAAAGGGAGACGUGGACAGGGUC'
p75
aF1.0
aa(lp76
S'stickshift'
p77
aS'AAGAUAUCCGAAAAACGAGAUAUCAA'
p78
aF1.0
aa(lp79
S'U'
p80
aS'AAAAAGAUACAGAGAGCAGAGAUAUAUACAAAAGUAUAUAUCCGCCCGUAUCAAAAA'
p81
aF1.0
aa(lp82
S'Still Life (Sunflower In A Vase)'
p83
aS'AAAGAUUAGGAUCCAAAAGGAAUCAAGGCAUAAACCGUUAAGAUUCUAAAUGAGUCAAAAGUGAAAGAGAUAAGAUACGAAAAGUAUCAGGGUGCAAAAAGUACCGUAUAAAUAUUUACUGAAAUGGACGUGGCAAAAAGGCUACACGAACUAAAAAAAAAAAACAUCACCCCCCCCCCCCCCCCCCCCCCCCCCCCCCCCCCCCAAAGGAUGAAAAAAAAAAAAUGUUCGGAUCGAAAGCGGUCAGUUUAUUUCAGUAGAUAUUUAUGUAUAUUCGAAAAGGAUAGCAUUCUUAAAUGGGGAAGGAUGUGAAAGGUAUCAAGGUAUGAAAAAUACUGAGAUGCGAAAGUAUCAUGACAAAAAACAGAUCUGAUCAAA'
p84
aF0.9417989417989417
aa(lp85
S'Quasispecies 2-2 Loop Challenge'
p86
aS'AAAAAUGUCGAUGCUGGUCAAAAGAUCUAUAUCAGCUCGAGAAAUAAGAGCAGUCCAUGAGGUCAAAAGGAUAGCCAGGGCGACAAAAAAAAAAAAAAAAAAAAA'
p87
aF0.9809523809523809
aa(lp88
S'Corner bulge training'
p89
aS'AGAUAUCGAUACAAAGUAUCAAAAGAUAUCA'
p90
aF1.0
aa(lp91
S'Spiral'
p92
aS'AAAAAGAUCAGAUAUCAGUCAGAUACAGAUCAGAUCAGCAGCAGCAGCAGCAGCAAAAAGCGCGCGCGCGCGAUCGAUCGUAUCGACGAUAUCGAUCAAAAA'
p93
aF1.0
aa(lp94
S'InfoRNA bulge test'
p95
aS'AAAAAAAAAAAAAAAAAAAAAAAAAAAAACCGCAAAAAGGACCAAAGUACCAAGGAUGAAGAGCGGACUAAAAAAGAUCAGUAUCAACACUCAAAGGAUGAAAAGGGAUCAAAAAGGCAGGA'
p96
aF1.0
aa(lp97
S'Worm 1'
p98
aS'AAAAAAAUAGAUAUAAAGUAGGUUGAAACUGCGACAUGAGAAUAG'
p99
aF0.9111111111111111
aa(lp100
S'just down to 1 bulge'
p101
aS'AAAAAGAGCAGAUACAAAAGUAUCAGUCAAAAGACAGUAUCAAAAGAUCAGUCAAAAGACAGUCGAAAGACAGAUCAAAAAAAAAAAAAAAAAAAA'
p102
aF1.0
aa(lp103
S'Iron Cross'
p104
aS'AUUGAGUCGAAGCAAGACAAACGAGUACAAAAGAGAGCAAAAGCGAGUCAAAAGGCAGAGGGAUUCAUAGAAAGUCAUUCAAAGGGAAUGCAAAGAAAGAUAAAGAUGCGCAAAGCCAGAGAA'
p105
aF0.943089430894309
aa(lp106
S'loops and stems'
p107
aS'AAAAAGUUAUACGAAGAUAAAAGAGCAAAGGGAUAAAAAAAAGAUACAAAAAAAAAAAAGUAUCAAUUCUCAAAAGAUAAAAAAAAAAAUAUCGAAGUUCGAUGUGUAAAAAAUCACUAAUAUCAGGCAAAAAAGCAAAGUAUAACAAAAA'
p108
aF1.0
aa(lp109
S'Water Strider'
p110
aS'AAAAUCCUCCGAUCAGCAGGGAAAACCUGCUGAAAAGCGUCAAAAAGACGUUAAAGGACGAUUAAUGUCAGUCGGGAGGUGCUAAAAAAAAAAAAAAAAAAAA'
p111
aF0.941747572815534
aa(lp112
S'The Turtle(s) Move(s)'
p113
aS'AAGGAAAAAUCAAAUGAUAUAUACAAAAAAAAAGUAUAUAUCUAAGGAUCAAAAAGAUCAAAAAGACAAAAGUCGAAUAUACGAAAAAAGCACAAAAAAUCAAAGAUAAUUAAAAAAGUUAAAAGAGAAAAGAUAUCAAAAAAAGAUAUCAAAAGAGGAAACUCAAAAAGAUAUCAAAAGUAAAAAAAAUACAAGACAAAAAAAAGUCAAUGACACAAAAAAGUGUCUAAGAUCAAAAAGGUCAAGAUAUCAAAAAAAAACGAAAACGAAAAACAAAACGCAAAAAAGCCAUAAAAAAAAAAAUAUCAAAAAAGAC'
p114
aF0.9873417721518988
aa(lp115
S'Adenine'
p116
aS'GAUACAGAUAUCAGAUAUCACAUAUCAGUUAUCACAUACCAAAAGAUAUCAAAAAAGAUAUCAGGUAUGAGAUUCAAAGAUCUACAAAGUAGAUCGGAUCAGAUAGCAGAUACAUAUAUCAAAGAUAUAUAAAGUAUCAGAUAUGAAAAGAUAUCAAAAGAUAUCAAAAGUAUC'
p117
aF1.0
aa(lp118
S'Tripod5'
p119
aS'AGCAGGUAUCAAAAAGAUAGGGGAAAAGCCCCCCUGAA'
p120
aF1.0
aa(lp121
S'Shortie 6'
p122
aS'GCAAAAGCAGCAAAGGCAGGAAAACCAGCGAAAGC'
p123
aF1.0
aa(lp124
S'Runner'
p125
aS'AAAAACAUCUGAACAAAAAGAUCUAUGAUCGGUUCUAAGUCGAGACACCAAAGGUUAAGUCGGGGCCAAGGGCAAACCCAGACAAACACUAUUUCUAAUGAACGUGGGAUGAAAAA'
p126
aF1.0
aa(lp127
S'Recoil'
p128
aS'AAAAAGAUACAAGCAAGCAAGUCAAGUCAAGCAAGCAAAGCAGCAGACAGACAGCAGCAGUAUCAAAAAAAAAAAAAAAAAAAAA'
p129
aF1.0
aa(lp130
S'[CloudBeta] An Arm and a Leg 1.0'
p131
aS'AAAAAGUCUGGAUCUAAUGGGUCCGUGUGCUAAUGUCGCUGACGACAAAAAAAAAAAAAAAAA'
p132
aF0.9682539682539683
aa(lp133
S'[CloudBeta] 5 Adjacent Stack Multi-Branch Loop'
p134
aS'GAUAGCGGGGAAACCCGGCGCCGAAAGGCGCGUUGCUAAUGCAACGCCGGAAACGGCCUAUCA'
p135
aF1.0
aa(lp136
S'Triple Y'
p137
aS'AAAAAUAUACAUGGUUGGAAAGAUCAAUCAAAUGUUUUAUCCACCCGCUGAAAGAGCGAACAAAGAUACGAUGUAUAAAAAAAAAAAAAAAAAAAAA'
p138
aF0.9175257731958762
aa(lp139
S'Misfolded Aptamer'
p140
aS'GAUAUAAAAAGGGUCAAAGACAGCUAAUGCAAAAAAAAACCGAAAUUAUC'
p141
aF1.0
aa(lp142
S'Flower power'
p143
aS'AAAAAGAUACAGCAAGAACAAGCUCGACCAAGCAUUAUAAUCAAAGAUUUAGUCACAAGGAAGAGCAGAAGAAACACUUGUCGAAAAAAAAAAAAAAAAAAA'
p144
aF0.8431372549019608
aa(lp145
S'Kudzu'
p146
aS'AAAAAGAUGCAUGGGUCGUAGCUCAGUGAAGCGACUCCCUUAACCAAAUGAUUGCCAGCCUAUGGCGAAGACACUUGAGUCGAAAAAAAAAAAAAAAAAAA'
p147
aF0.9801980198019802
aa(lp148
S'"1,2,3and4bulges"'
p149
aS'AAAAAGCGUAUGAGGGAAACUAAAAUGAUUGAGAAAUUAUGACGCGGAUAUAGAUCGAAAGUAAAGCGGUGAAAGCACGCUAAGGUAAAAAAAAAAAAAAAAAAA'
p150
aF0.9047619047619048
aa(lp151
S'medallion'
p152
aS'GAUAUGAGCAAUCAAAAGAUUGCGAUUAAAAGCUAUCCAAAAGGAGUAGAUCGAAAGAUCUGAGCGAAAAUGCAGAUAUCAAAAGAUAUCAGCGAAAACGCAAGCAAAAGUCAGAUAUGAAAGCAUAUUAGUGGAAAUACAGCUAUCAAAAGAUAGCGGACAAAAGUCGGACAAAACACAGAUAUAAAAAUAUAUCGGUGAAAACAUUGAUGGUAAAAACUAUCUCAGAAAACAGUGUCGAAUCUCUGUUCUCAAAAGAGAACUGCUAAAGAGCAGCUCCCAAAAGGGAGCAAUAAAAGGAUACUUAAAAGGCGGAUAUCGAAAGGUAUCAUAUAUC'
p153
aF0.9287833827893175
aa(lp154
S'[RNA] Repetitious Sequences 8/10'
p155
aS'AGCAAAAAAGCAAAAAAGCAAAAAAGCAAAAAAGCAAAAAAGCAAAAAAGCAAAAAAGCAAAAAAGCAAAAAAGCAAAAA'
p156
aF1.0
aa(lp157
S'Documenting repetitious behavior'
p158
aS'AAAAAAAGGAAAAAAAAGCAAAAAAAAAACUAAAAAAAAAGGAAAAAAAAAGAAAAAAAAAGACAAAAAAAAAGCAAAAAAAAAGCAAAAAAAAAGCAAAAAAAAAGCGAAAAAAAAACAAAAAAAAACCGAAAAAAAAUCAAAAAAAAACCAAAAAAAAAGUAAAAAAAAAGGAAAAAAAAAGCAAAAAAAAAUUAAAAAAAAAAAAAAAAAAAGGCAAAAAAAAAGCAAAAAAAAAGUAAAAAAAAAGGAAAAAAAAAGAAAAAAAAAAGGAAAAAAAAAGCAAAAAAAAAGCAAAAAAAAAGUAAAAAAAAAGCAAAAAAAAAGCAAAAAAAAGUUAAAAAAAAAUCAAAAAAAAAUCAAAAAAAAAAGAAAAAAAAAUGAAAAAAAAAUCAAAAAA'
p159
aF0.96
aa(lp160
S'7 multiloop'
p161
aS'CCUGUAUACGAAAGUAUAGAUACGAAAGUGUUCAUUUGAAAGAAUGGGUCUAAAUGGACCGGGCCUAAUGGUCCGCUCGGAAACGAGCCAGG'
p162
aF1.0
aa(lp163
S'Kyurem 7'
p164
aS'AAAAAGAUACUUUCCGAAAGGGCGGAAAAGACUAGCCUAAAUGGCACUAGUCUAAAAAGACAAAUACAGUCCGGGGGAUGUCAAAAAAAAAAAAAAAAAAAA'
p165
aF0.9803921568627451
aa(lp166
S'JF1'
p167
aS'GAUAGAUGUAUAGAUACAAGGUACAAAAGAUUUCAAGAUACAAAGAUACAAGAUAUCUGAUAUAUAUAUAUCAAAAGAUAUAUAUAUAUCAAGUCUAAUGACAGAUAUAUACAAAAGUAUAUAUCGAGAUACAAAAGUAUCCGAUAUCAGUAUCGGUAUCAGAGAUCAAAGAUAUAUCAAAAAGAUAAUAUCAAGAUAUAUAUAGAUAUAUAUAUAUCAAAGGAUAUAUAUAUAUCAUAUAUAUAUCGAAGAUACUAAAAUGUAUCGAUAUAUAUCAAAAGAUAUAUAUCAAAGAUCAAAAGAUCAGGUAUCAAGUAUCAUAUCAGUCAGUCAAAAGACGACGAUAAGUUAGAUACAAAAGUAUUAUAACGAUAUAAUCAUAUCAAA'
p168
aF1.0
aa(lp169
S'multilooping fun'
p170
aS'CGACAAGGAAAAGUGUGAAAGAUGAGGUAAAAAACG'
p171
aF0.8333333333333334
aa(lp172
S'Multiloop...'
p173
aS'GAUGAGAUGAUAAGAAACACGGAGGAAACACGGCUAAAAAGCAGACGAAAGUCAAAUGAAAUAUAGUGAAAAUACACAUCGCUUUCAAAAAGGAAGCGUCAAAGGGGCAUC'
p174
aF0.9459459459459459
aa(lp175
S'hard Y'
p176
aS'AAAAUGAUCUGAGAUUUAUCGAAAGAUAGAUACCGGGGAGAUAUCAAAGGAUAUUUUCCGAUUUAAAA'
p177
aF0.9705882352941176
aa(lp178
S'Mat - Elements & Sections'
p179
aS'AAAAUGCGGAUGAAGUCUGCGAAUAUAACACGAUGAGUAUGCAAACGAGAAGACGUCAAUUAAAUAAGUGGUGGUCAAAAGCCGUUAAAAAAAAAAAAAAAAAAA'
p180
aF0.9619047619047619
aa(lp181
S'Chicken feet'
p182
aS'AAAAGACACCUAAAAAUUUGCAAAGCUAUGCGCCCCAGCAGUUAUACAGGGAACCGAGGUGAGAAAA'
p183
aF0.8507462686567164
aa(lp184
S'Bug 18'
p185
aS'AGCAUCUCGGGUAGGUUUGCAGCAAAGGGAUCCGUGAUAAUGAUGAAAAGGCA'
p186
aF0.9622641509433962
aa(lp187
S'Fractal star x5'
p188
aS'AAAAAUUUACAGGAAGACUUAAUAGUCAGUUUCAAAGGAAAAAGAAUGAAAGUUCGAGAUCAAAGGAUCAAUUUGUAGGAAAAAGAUUUACUAAGAUGAAAGCAUUAAGUGCAAAAGCGCGUUAACGAAAGUUAUAGUUUAAAAGAGCAAGGUAAAUCGAAAGGACGUACCGAGGACAAAAGUCCGAGAUCGAAAGAUCGUGAUAUAAUUGUCUAGCUGAAAGUAGCAAGGUACGUCAAAAUGGGGUAAGAAUAGUAAAGGCUGAAGGACAAAAGUCUAAGAUGGAAACAUCAAGAGGAAACCCUUGGCUUACCCUUAAAUGUUACUUCAUUAGCAAAAGUUAUAGAUGAAAGCAUCAAGAGUAAAGAUUCGAGGUCUAAUGACCAAGAAGUAACUAAAA'
p189
aF1.0
aa(lp190
S'Crop circle 2'
p191
aS'UUAAGGAAAAAAAUAAAAACAAAAAAAAAUGAAAAAAAAAAAAAAAAAAAAAAAAAAAAAGGGAAAAAAAAAAAAAAAGCAAAAAAAAUUAAAAAAAUCCAAAAGAAAAA'
p192
aF0.9636363636363636
aa(lp193
S'Branching Loop'
p194
aS'UGACUUAAAAAAAGGGUCAAAAGUAACACAGUAUAAAAAA'
p195
aF0.95
aa(lp196
S'Bug 38'
p197
aS'AGCAUGCAUAUCUAACAAUAAGGAAUUCGGAAAGCA'
p198
aF0.9444444444444444
aa(lp199
S'Simple Single Bond'
p200
aS'AAAAAAGGAAAAAAAUGCUGGAAAAUAGUUAAAAAAAACAAAAAAAAAAAAAAAAAAAAAA'
p201
aF1.0
aa(lp202
S'Taraxacum officinale'
p203
aS'GUGUAAAAGACACAGAAUCAAAGAACCAGCUCAAAAGAAGCACCACAAAGGAUGCGGAAUAAAAAAUUCACUUCAAAAUAAUAAGAAAUUGAUACGAUGUAUAUAGAAGUUAUAAUAUAUCGAAUACAAGAGAUAAAUCAGGAUAUACAAGGUAUAUUAGAUUUAUUUUGAUCAGAUUUCAAAGAGAUCGAUCGUAUUAAAGUAUUAAUUUCUCAGGAAAACUUUCUGCUCUAAUGAAGCAGACCAAAGGAUCCGCGUAGAAAUAACGACAUGACAAUAAUC'
p204
aF0.9078014184397163
aa(lp205
S'Headless Bug on Windshield'
p206
aS'AGCAUCAAAACGAAACGAAGCAGACAAAAAAAAAAAAAAAAAAAAAAAAAGUCAGCAAAGUUAUCAAAGAAGCAGGAAAGUCAAGGAAAAAAAGGAAAACCGAAAAAACCGACAAAAAAUCCAGAGCCGAAAAAUCCCAACUAAGUAAAGCGGUCAAAAAAAAAAAAAAAGACAAGCAAUACGAAGAGGGUAGGAUCUCA'
p207
aF1.0
aa(lp208
S'Pokeball'
p209
aS'AAAGAUGGAGAAAAGGAAGCAACACAAGCAAGAAAUGAGGUAGGCAAACGUAGUAUUAAACACAGGCAAGCGGUGGGCACCUUUCAUUAAAAAAAAGCGUUGGAAAUCGGAUCAAUGGAGGCUAGCAACGCACAAAGAAGGCAAAGCAUCGAUGACCAGCAUGCAUCAGGAACGCCAACGCAAA'
p210
aF0.967391304347826
aa(lp211
S'Variation of a crop circle'
p212
aS'AAAGGGAAAAACAAAUACAAAAGGAAUGAAGGAAAUAAAUGAAAGCCAAAAAAACUAAAAAACCAAAAAAAAAUUAAAAAAAAAAAAA'
p213
aF0.9545454545454546
aa(lp214
S'Loop next to a Multiloop'
p215
aS'AAGAUAUAGCAAAAAAAAAAAGAUCAAAAGAUUUUCGUUAUACGAAAGUAUAGCCUGAAAAAAGCUAUAUCAA'
p216
aF0.9726027397260274
aa(lp217
S'Snowflake 4'
p218
aS'UGUCAUGGACACAUACGUAAAAUCGAUUCAUGUUACUCAAAAGCUAUGCGAUCGAAGAUCAAGUUCGAAGAACGUGUGCCAAAAGGGUAACUAGAUAGGCUAAUGCGAUAGGGUCAAAGACCAUGAGCGAAGCUCCUUUCGCUAAUGGCUAUCAAGAUACGGAAAACUUGUGAGUUCAAAGAGCAAUAGCGAAGCUAUGGUGUGGAAAUCGUAUCAAGGUAAGCAAAGGCGAUUCGCUCUAUGAGCAAGAUCAAUGAUCGGAUCGGGAAAGCUUAUCAAAAUUCUCAAAAGCGAUACGAUCGAAGAUCAAGAGCAAAGCUCGUAUCGCAAAGGCGAAUUAAGAAUCGGAAAACCGUAUGGACCCAUGGUC'
p219
aF0.8810810810810811
aa(lp220
S'Mat - Cuboid'
p221
aS'GAAGCAAAAGCAAGCAAAAGCAAGCAAAAGAAGCAAGCAAAAGCGAGCGGGCAAAAGGAGCAAGCAAACAAAACCAAGCGAGCAACCAAAAGUAAGCAAGCAAGUAUUCAAAAGCAAGCGAGCAAGCAAGCAAAAGCUAUCAAGCAAGCAAUCAAACAAAAUCAAGAAAGCAAGCAAGCAGGCAAAAUCAAGCAAGCAAGCAAGCAAGGAAAAACUCAAGCAAGAAAGCAAGCAAGAGCAAGCAAGGAAGCAAGCGAGGGCAAGCACGCAAGCAAGCAUGCGCAAGCAAGCAAGCAACCGAUAACAAGCAAGCAAGCGCAAGCAAGCAAGCGCAAGCAAGCAACGCAAGCAAGCGCAGGCAACGCAAACGCAAGAGUAAC'
p222
aF0.8289473684210527
aa(lp223
S'Misfolded Aptamer 6'
p224
aS'AAAAAAGUCAAAAAAGACCAAGUAAAGUCAAAAAAAAGACAAAUCGAAAAGGUCAAAAAAAGACAAAAAAAAAAA'
p225
aF1.0
aa(lp226
S'Snowflake 3'
p227
aS'GACGCAAAAGUAGGCGUCAAAAGACAAGAACAGCUAGAAUAGAAAGCCGUCGGCAAAAGCAUCAAAGAUGGUAAUUCAGAGGCAAAAAUAAAAUAGCGGAUAAAGUCAAAAGACGUCAGGAAAACCGUCAAAGACGCAAAAGCAAACGUCAAAAGACAAUAUGAGAGUAAGUCAAAGGACGUCGCCAAAAGGGGAAAAUUCCUAAAAAGAGACGUGUAAUGAGAAAUUCAGAUAAAGUUAAAAAAUGUAAGCAAAAGCGUCAAAGACGCGAAAGCAGGCCUCAAAAAACAAUAUCAGGACAAGUGGAAACACGUCAGCAAAAGCUUCAAAGAAAUAAAAGUAGAUAUCAAAAGAUAAGUUCAGUUCAACACAAAAGUGGCCAGCAAAGGCGUC'
p228
aF0.8625954198473282
aa(lp229
S'Hard Y and a bit more'
p230
aS'AAAAAGAUACGGAUAUACUAAUGUAUAACCCGUGGAGCAUGAUCUAAUGAUCUAGAAACUAAAAUGUUUCGAGCACCACGGUAUCGAAAAAAAAAAAAAAAAAAAA'
p231
aF0.9716981132075472
aa(lp232
S'Mat - Lot 2-2 B'
p233
aS'GAAGGCAAGCUUAAGCAAAAGCAAGACCAAAAGCAAAAUCAAGCGCGAGAAAAAUCAAUCUGUAUCAAGAAAGAGCUACCAAAAGCAGGUUCAAUGAAAACCAAAAGGCAAAGAAAAAGCAAGCGCAUUCGUAGGCAAGCAAAAGUGCAGGAUCAAGCAAAAGCAAUAGCAAAGGUAAAAUGGAGCGCAAGAAAAAUCAAGCGCAAGCAAGCAAUCGCAGGGAAAAUCAAGAUAAAGUAAAAUCAAAGGGGCAAGAAAAAUCAAGAUCAGGUGAAUCCAACAAC'
p234
aF0.7746478873239436
aa(lp235
S'Shapes and Energy'
p236
aS'AAAAAAGAGAUCUCAUUAAAAGAAGUGUCUGGAAACUGGCAAAGCAAUGAAUGAAAAAGGCGGAAAAUCGCUGUGGUCGCGAAAAAAAAAAAAAAAAAAAA'
p237
aF0.9603960396039604
aa(lp238
S"Spiral of 5's"
p239
aS'GAAAAGAUACAAUGAUACAAAUAUACUAAAGAUACGAGGAUACAAAGAAACAGGAUACAAAAGAUACAAAGAAAAAAUCAUACAAAAUACAAAGAUAGAAGGAUACAAGAUGCAAUGCUACAAGAUACUAGAUACUAGAUACAAGAUACAGAUGCAGAUAAACGUCAAAAAGAUGUAAAAAUUAUCGAAAAGCAUCAAAAGGUAUCAAAAAGUAUCAAAAUGUAUCAAAAUGUAUCAAAAAGUAGCUAAAAGCAUCAAAAAGUAUCAAAAGCUAUCAAAAGGUAUUGAAAAGUAUGUAAAAUUUUCAAAAAGUAUCAAAAAGUAUCAAAAAGUUUCAAAAAGUAUCAAAAAGUAUCAAAAUGUAUAAAAAAGUAUCUAAAAGUAUCAAAAACAAAAA'
p240
aF0.9949622166246851
aa(lp241
S'Campfire'
p242
aS'AAAAGAGCAAUCAAUAAUAUUAAGCUCGAAAAGAGCGCUAUUAAGGAUAAUCUAUCGAAAACAGUAAUCAACACAAAGGUAGUCCCGCGAUACAGCACCAGCGAAAGCGGGCGAGCAGGCGAAAGCACGAUUCAAGUAAACGUUAGUUACACAGACAGUUAGUCUAAUCGAAAGAUUGACAACGAUGCAUCAAGUAUCAAAAUCGGUCCCUC'
p243
aF0.8679245283018868
aa(lp244
S'Anemone'
p245
aS'AAUUAGGGCGAAAGCCUUGCUGGGGAAACUCGAGGUGUCGAAAGGCACCCGGACGAAAGUUUGGACACCGAAACGGGUCGGCACUAAUGUGCUUGGAAUAAUGGAAAGAUGUUAAAGGACAUUAGACGCGAAAGUGUUCUUGUGAAAGUAUGGGGAAGCAAAUACGAUGAUGGCGAAAGCCAUCGACGGAAAGUCGUCGAGCUCUAAUGAGCUC'
p246
aF0.9345794392523364
aa(lp247
S'Fractal 3'
p248
aS'AAAAAGAGUGGCCACGAAAACGACAAAAGUGGACAGUAAGCAAAAGCUCGAAAACAAACAAUCAGCAAAAGCUCAAAAUUACCUAGGUAGCGAAAGCGCGAAAGCAGCCAGUACAAAAA'
p249
aF0.8823529411764706
aa(lp250
S'Kyurem 5'
p251
aS'AAAAGGUCACCGGCCUAAUCACUUUAAAAGUGCUACCAAAAUCAAAAAGAUGAUAGUGAAAAAGAACAGUACGAAUGUAAUGUUAAAAAAAAAAAAAAAAAAAA'
p252
aF0.9230769230769231
aa(lp253
S'Snowflake Necklace ( or v2.0 )'
p254
aS'CAUCUAAAGUUCUUCAGCUAUUUGAAAAAGAUGCAAAAAGCAGAAAAAAUGAGUAAAAAGUAUCAAAAAGAAUAAGCGGGUAAAAAAUCAAAUAUAGCAAAAAGCAUCAAAAAGAAGGGAAAAUCAGUAAAAAACUGCAAAAAGCUAUAUUAAGCAAAAAGCUAGGUUGUGCAAAAAGCAGGAAAAAUCAGAAAAAGGCGGCAAAAAGCAGCAAAAAGCUCGAUCGGUAAAAGGUACCUAUCUAGGAAAAACCAGCAAAAGGCAACAAAAAGCAGCAAAAAGUAGCAAAAAGGGAGAUAAGCGUAAAUUACUGAUGCAGCAAAAAGCAGCAAAAAGCAUGGAAAACCAGCAAAAAGCAACAAAAAAAAGUAUCUGGAGAGUUUUAGAUG'
p255
aF0.8457583547557841
aa(lp256
S'Methaqualone C16H14N2O Structural Representation'
p257
aS'AAAAAAAGAGCAGAUCAGGAAGUCAAAAGACAGUGAGGCGAAAGACAGUCAUCUAAAAAGAAGUCUGUCAAAAGACACGCAAAAAAAGUGUGACAUUCACACAGGCAGAAACAGAUCAGUACAAAGAACUCAAAGCAAAGUAAAAAAAAGAGAGUCAGUCAAAAGAUUUCAAAAGAAGUCAAAAGACGACAGCAAAGAUUUGAAACAGUCAGUCAGUCAUACGGUCAAAAGUUAAAAGACAGACAGUCAAAAGACAGUAAGCAAAAAUACGGACAAUCAAAAGAUAGACAGUCGUGAAAACACGGCAAAAGCCAGUCAAAAGACUACAGACUGAUCAAAGUACGGUUCAAAAAAA'
p258
aF0.9042253521126761
aa(lp259
S"Cat's Toy 2"
p260
aS'AAAAUGUUCAGUAAAAGCAUCAAAAAAAAAAAAAAAAAAAGUACGGAAGGAAAACUGAGAGAAAACCAAAAAAAACUCAAAAGGUGUUGAAUGGAAA'
p261
aF0.979381443298969
aa(lp262
S'Zigzag Semicircle'
p263
aS'AAAAAUCGCGUCAUAAAAGGAAAUAGUGAUGAAA'
p264
aF0.9411764705882353
aa(lp265
S'Short String 4'
p266
aS'AAAAAAAGACUAAGAUUAGAUUCUCAAUAAAAACGACUAAAUAAGGAAAGAAAAUUAACCAAUUAAAUCCAAAGCUGAAAAAAAAAAAAAAAAAAAA'
p267
aF0.9587628865979382
aa(lp268
S'Gladius'
p269
aS'UAAAAAAAGAAAAGGAAGUAGAGGAGUAUGUCAGGCAAACCUCGAAAGGGGAGAUACGAAGAUCAAGAGAUCAAUGGCUCGAGAGAUAUACUACUUAUCAGAUAAAGAUCUGAUCUAGUGCAAAGUACCGAUAUGAUCUAUAUCGAAUAGGACGUAUAUCGACAGAGUGCACGAUCACCAGAUGAUAGUAUCGGCUAAAAGCGCAUGCUGGGCUCAGGAUAUCAGGAGACCUGAAGGUAUACAGAUAUCAGAUACAUAUUUGGUUAAUGUCCAAAAAUGGACAAAUAAAAAGAUAGGUAUAGGAUAUACGUAUACCACGAGGUUAGAGGAUGAAAAGAGAUAUGCAUGAUAACUAAUGUUAAAAGUUAGACUGUCAACGCCGCGAACAAAACGAUAAAAC'
p270
aF0.9
aa(lp271
S'Thunderbolt'
p272
aS'CCAUGUGUCAAAAAAAAGAGCAAGUAUAAAAAGUAAUCAGAUAAAAUAAAAAAAACGCAAAAAGGAUCAAAAAGAUCAAAAAAGCAAUAGAAGCAAAAACGUAGUAAAAAACAAGAAGGAAGCAAAAAGAAAAUGUACCAAAAAGUGAAAAAGAAAUAGAAAAGACAACAAAAAGAUGGAUCAAAGGAAAAAUGGAGAGCAAGGCACGACUAAAAAACAAAGAUCAAAAAAAAGGUAAAAAAGAUAUGAAACAUGUCAGCAACCAAAAAAAAAAGGCAAUCUAAAAAAAAGACGGAAAGCAAUAUGAAAAUUAAAAAAAAGUAAAACAUAUUAAUUGGUAAAUUUUGUCCAAAAAAGAGACGAGUGCAAAAAGGAAAAAACAGGCGUUAGGA'
p273
aF0.9438775510204082
aa(lp274
S'Mutated chicken feet'
p275
aS'AAAAAAAGCAGGAGCAAAGCUUCAAAGAUAUGCACGGCGCUAGAGAAACAAGAAACCAAAGAGCAGCAGAAGUAAAGCUGCAAAGCAAGUCGAAAAAAAA'
p276
aF0.82
aa(lp277
S'Chicken Tracks'
p278
aS'AAAAAAAGGAUGUAGCACCGAAAGGUGAAGAUCAAAAGAUCAAGAACUAAUGUUCCUACAUCAACUGGACCAAGGGUCAAGUUCAAGGAGCAAGGUGUAUCACCCAGGAAAAAAAA'
p279
aF1.0
aa(lp280
S'Looking Back Again'
p281
aS'GUCAAGGGGAUGGAAAGGAUUGCAAAGCGAUCACAUCAAGUCUUCAAACCAAACAUGGUAGAUACAAUGUUCGAAAGAGCUAAGGUAUCAAGACAACUAAACAUGGCUAAAAAGAUAGAAAACUAUCAAAAAGACCUUUAAGAUAUAAGGUAUCAUUAUUAAGGAACUAAAUUCGUGGAAGAAGGGGAGGAAGCGCAAAAGUGCAACACAACCGGCCCGCUCAAAAGAGAAGAUUUAAAAGUAUGCAUGAGAUACAUAUGGAAAAUGAUGGAAAAAAAAAAGUUCAAAAAGAGCCUCUAAAAUUAUACGGUUCAAAAAGGCGUUAUCAAAAGAUAACAAGAGUCUAUGCUUAUACACAGUAUCGAUCCGUAAAAGGACGUAUCAAAGAC'
p282
aF0.8637532133676092
aa(lp283
S'Multilooping 6'
p284
aS'AAGAUACGUCCACCCAAAGGGGUGGAGGCAGACCCCUCGACGUCUAAUAAAAAUAACGGAGACAAAGCUGUCGAAGUAUCGA'
p285
aF0.9024390243902439
aa(lp286
S'Cesspool'
p287
aS'GAAGAAGAAAACAAAGCAAGACAGGGGAACCAGACGCCAAGCCAAUGAGGAAAUAACACAAGAAAACAAGGAAAACAAAAGAGCAACAACAAGAAGAAAACAAGGCAACACAGUAAAAUACAAGAAGAAGUUAAGAGGAAAACAACAGAAGAAAACAACAAAAACGAAAGACCAAGAACAAGGUCUGAAAGAACGCAAGAUAGUCAAAGAUAACAACAAGUAAAGGUAGAAACUACAGAAAGAAAUAGUAAAAAAGAAAUAACAAGGAAGUAAGAAUAAAAGAAAGCAAGAGAGCAGAAUUCAACAACAAGACAAGAAAAAAAUAGCGGAAGAAAACAACAAAAAGAAAAGACCAAGC'
p288
aF0.7932960893854749
aa(lp289
S'Hoglafractal'
p290
aS'AAGAACAACAUACAAAAGAUACAAAAAAGUAUCGUAUGGAUCAAAAAUGAAAAGUAUUGCCCGCCAAGUCGAAAGACGAUAGUCGAAAAUGAAAAAUGAAAAAAUUUUUAUCGUCAAGUCAAAAAGACGCCGCAGCAAAAGCGCAUAACAAAAGUCAAGCCAAAAAAGUCGUCGGAGCAAAAAGCUCGGCAAAGGCCAGAUAUAAAAAGCAGGAAAAAACCCCGUCGAAAAGACGUAAAAGCAGAUUGCAAAAAAGUCAAAAAAGACGCAAAAAGCAAAGAUAUACUAUGUAUAUCAAAAAAAGCAAUCAAAAAAAUAUUGAAAAGAUGAAAAGACAAAGAAACAAAGUGGAGAUUUAAAGCAAAAGCUAAAAAUAGAUAGCAAAGUUAUCUAAUCCCUC'
p291
aF0.8975
aa(lp292
S'Bullseye'
p293
aS'AAGGCGCGGGAAACAAGAAGUUCAAAGAGCGAAGUGGAACCGUCGCAAAAAAAUGGGAAUCGAAGAUUAUGAUAGAAUUUCUAGUCCAAGGGGCUCCAAAAAAAAUUUGAUCAAACAUAAAGUAUAAGAUAUAAGAUAUAUGAUCGGAAAAAAAAGAUACAUCAAAGAAGAAACUCGAAGAUUGAGGGUAAGAUCCUAUAAA'
p294
aF0.8514851485148515
aa(lp295
S'Shooting Star'
p296
aS'GACGUCAAUAAAUUUAAAAAGAGAAGGAGUCAGGCAGCUAAUGACGCACGACGCACGAUAGAUUAAAUUAGAUAUGAGAGAAGGUGUGAGAGACAGACAGACCAGUAAAAAACGGUACGUCGAUCUACCACUCACAGUCAUGGGAAAGAAUAACAAUAAAUACAAGGUGUUACAGAGAAACUUUCAAGGAAAGAAAGCUGAUAUUAGCUCAGAUAAAUUUUGUGCAAAGUACAAGUCUUACGAAGUAACUGUCGAGAUACAAAGUAUCUCAAGUACAAAGUAAAGAGAGAUCAAGAAAUACAACAAGCAGGGGCGGAGGGAACGAAAAUUGUCUACCUGACAACAAAAGCACGAUCAGAUGUCA'
p297
aF0.804945054945055
aa(lp298
S'Teslagon'
p299
aS'AAAAAAUCAAAAAAACUAGCAAAAAAAGGUGUUAAAAAAAAAAAAAUGUAAAAAAAAAACAAAAAAAAAAAAAAAGUAGGGAAAAAAGAAGUAAAAAAUAGAAAAAAAAAAAAAAAUCUAAAAAAACAAUGAAAAAAGCACCAAAAAAAAAAAAAAAGGAAAAAAAAGAUGAAAAAAAAAAAAAAACAGCAAAAAAAACACCAAAAAAAGAAAAAAAAAAAAAAAAGGAAAAAAAACAGAAAAAAAUCAAGAAAAAAAAAAAAAAAAGCAAAAAAAAAUCAAAAAAAAAAAAAAAGCAUUUAAAAAAUAAUAAAAAAAAACAAAAAAAAAAAAGAAAAAAAAAAAAAAAAUCAUCAAAAAAGGACAGAAAAAAAGAAAAAAA'
p300
aF0.9109947643979057
aa.