(lp0
(lp1
S'Simple Hairpin'
p2
aS'GAUACAAAAAAGUAUC'
p3
aF1.0
aa(lp4
S'Arabidopsis Thaliana 6 RNA - Difficulty Level 0'
p5
aS'GAUAUACGAACGAUAAAAAAAAAAAAUCGAUAUAUCGAUAUAUAUAUAUAUAUAUACAAAGAUACAAAAAAGUAUCAGUAUAUAAUAUAUAUAUAUAGAGAUAUAUCAAGUAUAUC'
p6
aF1.0
aa(lp7
S'Prion Pseudoknot - Difficulty Level 0'
p8
aS'GAUAUCAGAUCAAAAGAUCGAUAAUCAAAAAAAAAA'
p9
aF1.0
aa(lp10
S'Human Integrated Adenovirus - Difficulty Level 0'
p11
aS'GAUAUAUAAUUCUCUUAUGUCAAAAAAAAAAUGGGACAGGUACGAAAACGCGAUAUCUAAAGACUCAGGAUUACUAAAAAAUGUAAUCCUGAUAAAGUCGAUAUAAAACGCCGUAAAAGCCUGAUAAUAUAGUAAAAAUCUAUAUUCCCUAAAAAAAAAAAGAUAUGUGAGAAAAAAUUAUAAAAUAUCAAA'
p12
aF1.0
aa(lp13
S'The Gammaretrovirus Signal - Difficulty Level 0'
p14
aS'AAGAGAGUUUAUCUAAUGAUAAAAACGCAAAAAAGAACAAGACAGAUCCGGGGAAAGCCCCGAAAAGAUCGUCGUUCAAGAUAUAUCAAAGGAUAUAUCGA'
p15
aF1.0
aa(lp16
S'Saccharomyces Cerevisiae - Difficulty Level 0'
p17
aS'GAUACACCAAUGAAAAAAAAUUGAACUAAAAAAAAAAAAAUGUAAAUGAUUGGAAAAAAGCCGCGUGUAACAAAGGAUAUGUACCACCGAAAAAAAGGUGAGCGAAAAAAAAAAAAGCAAAAAGUUACAAAAAAAGUAACGCGUAUCAAAAAAUAGAAAACAGGUAAAAAAUCUUGCGUAACUAAAAAUUGUACGAAAUGUUUCGAAAAAAGGAACUUCUAUUGAAAGUUACAGAAGCUCAAAAAAAAGAGCCAUAUCUAAAAAUGAUAUGAAAUGGUACAAAAAAAGUACCCUGUAACGAAAGCUAUAUUCGAGGAAAAAAAAUCUCGUGGGCAAAAAAAGUCCACAAAUCGUCUAAAAAAGGCAUCAUGUAUCGAAA'
p18
aF0.899736147757256
aa(lp19
S'Fractal 2'
p20
aS'AAAAAGAUAUAUCAAACAUGUAUAAGAAUGUCAAAAAAAAAAGAUAGAGAUCAAAAAAAAAAGAUCGAGGUUAAAAAAAAAGAACCAACUUAUAUAUGAAUGUUUUAAAACAGGGACAAAAAAAAAAGUUCAACUAGGAAAAAAAAACUGGGGUGAGGAAAAAAAAACUUAAGGUUUUAAAGCUAAGUAUUUUAGGAGCGGGAAAAAAAAAGUCCGGACAUCAAAAAAAAAAGAUGGUUGCUAAAAAAAAUGGGCAUGCUUAGAGUGCGAAGAUAUAUCAAAAA'
p21
aF1.0
aa(lp22
S'G-C Placement'
p23
aS'AUGCGAAGCAUA'
p24
aF1.0
aa(lp25
S'The Sun'
p26
aS'CACAUACAAAUAAAAUUUAAUUAGUGAAUGCCACAGACAUGAAGUGUGACCGUGCUAAGUUAGAGAUUCGAAGGAGAAAUCGGCAAAGAAACAUCGUCAAAGGUGAAAUGUGCUAACACACAUGUCUUAUGGAUCGAUGGUCAAUGCGAGAUGUUCGAAGUAAAAAUCCGCUAUGACAGAAGUCGCAUUUUCAAUUCGUCUAAGGCAGGGACACAAAGUGUGACUCGCCGAACACAGUGGACCAAGGGUCAAAGCGUG'
p27
aF0.8604651162790697
aa(lp28
S'Frog Foot'
p29
aS'GAAAAAAACCGUACGAAAGUAUCGCCUAAUGGCGCACGAAGCGUG'
p30
aF1.0
aa(lp31
S'InfoRNA test 16'
p32
aS'GUAAUUUCCGAUGUGUAAUUACAUGCGAGUAAUUAC'
p33
aF1.0
aa(lp34
S'Mat - Martian 2'
p35
aS'GAUCAAAAGGUCAAUCAUAUACAAGAUAUACAAAAAAAGUAUAUCGUAUAUGUAAGAUAUAUCGAAAAAGAUAUACAGAUAUACGAAAAAAGUAUAUCGUAUAUCAAGGGUAUAUAUAUAUUGAAAAAAGAUAUGUAGUAUAUCAAAAAAGAUAUAUCAAUGAUAUAUAAAUAUAAAAAAAAUAUAUUUAAGUAUAUUGAAGUAGAAAGCUAC'
p36
aF1.0
aa(lp37
S'square'
p38
aS'GAUAUACCGGGUCCGGGUACCGGGUCAAAGACCCGAAAAGUACCCGAAAAGACCCGAAAAGUAUAUC'
p39
aF1.0
aa(lp40
S'Six legd turtle 2'
p41
aS'AAAAAUUAAAGUAAAAGGAAAGUCAAUAUAAACCAAAGCUAAACGAAAAAGGAAAAAAAAUCAAAGUAAAAGAGAAAGAAAAAAAAAAAAAAAAAAAA'
p42
aF0.9591836734693877
aa(lp43
S'Small and Easy 6'
p44
aS'GCCGCAAAAUGCAAGGGAAAAAAAACCGGC'
p45
aF1.0
aa(lp46
S'Fractile'
p47
aS'AAAAAAAAAAAAGGGAAACCGAAGCAAACCAAAAGGAAGUGGAGGAAAACCGAAGCAAGCAAAAGCAAAGCAAGCAAAAGCAAAAUAAAAAAAAAAAAAAAAAAA'
p48
aF1.0
aa(lp49
S'Six legd Turtle'
p50
aS'AAAAAUCAAAAGUAAAGGCAAAACAAAAAUGAAAGGUGAAAGAAAAUAGGAAAUUUAAAGUAAAAGCAAAAGGGAAAUUGAAAGAAAAAAAAAAAAAAAAAAAAA'
p51
aF0.9428571428571428
aa(lp52
S'snoRNA SNORD64'
p53
aS'GAUAUCAAAAAGACAAAAGACAAAGAUACAAAAAAAAAAAAAGUAUCAAAAGUCAAGUCAAGAUAUC'
p54
aF1.0
aa(lp55
S'Chalk Outline'
p56
aS'AAAAAGAACAGAUACGAAAGUAAUCGGUCAUACAAAAGUGGACAGUUAUCUAAUGAUUAACACCCGCGAAAGUGCGGGUUCAAAAAAAAAAAAAAAAAAAAAAA'
p57
aF1.0
aa(lp58
S'InfoRNA bulge test 9'
p59
aS'GAUAUACAGAGAGAGAUAUACAAAAGUAUAUCCCCGUAUAUC'
p60
aF1.0
aa(lp61
S'Tilted Russian Cross'
p62
aS'AAAAGCAGGGGCAGAAAUGCCGUCGGGAGCAAAGGCUCGAUCGUAAUUGAUCAGUCCAAAGGGACCGACCCACGAAAGUGGCCUGAAAAAAAAAAAAAAAAAAAA'
p63
aF1.0
aa(lp64
S'This is ACTUALLY Small And Easy 6'
p65
aS'AAAAAAAAAAAAAAAAAAAAAAAAAAAAAAAAAAAAAAAAAAAAAAAAAAAAAAAAAAAAAAAAAAAAAAAAAAAAAAAAAAAAAAAAAAAAAAAAAAAAAAAAAAAAAAAAAAAAAAAAAAAAAAAAAAAAAAAAAAAAAAAAAAAAAAAAAAAAAAAAAAAAAAAAAAAAAAAAAAAAAAAAAAAAAAAAAAAAAAAAAAAAAAAAAAAAAAAAAAAAAAAAAAAAAAAAAAAAAAAAAAAAAAAAAAAAAAAAAAAAAAAAAAAAAAAAAAAAAAAAAAAAAAAAAAAAAAAAAAAAAAAAAAAAAAAAAAAAAAAAAAAAAAAAAAAAAAAAAAAAAAAAAAAAAAAAAAAAAAAAAAAAAAAAAAAAAAAAAAAAAAAAAAAAAAAAAAAAAAAA'
p66
aF1.0
aa(lp67
S'Shortie 4'
p68
aS'GCAAAAGCAUCGAAAGA'
p69
aF1.0
aa(lp70
S'Shape Test'
p71
aS'AAAAAGAAAACAAGAUACAAAAAAAAGUAUCAAGACACGCAGAUACAAAAAGUAUCAUAUUAAAAGAUGGGCGGUCAAGUUUGCAAAAAAAAAAAAAAAAAAAA'
p72
aF1.0
aa(lp73
S'The Minitsry'
p74
aS'GGCAAAAAGCUGAAAGCUUGAAAGAUCAAAAAGACGAAAAAAAGUCGGAUAAAGAGGCGGCC'
p75
aF1.0
aa(lp76
S'stickshift'
p77
aS'AAGAUAUCCUAAAAAAGAGAUAUCAA'
p78
aF1.0
aa(lp79
S'U'
p80
aS'AAAAAGAUACAGAGAGCAGAGAUAUAUACAAAAGUAUAUAUCCGCCCGUAUCAAAAA'
p81
aF1.0
aa(lp82
S'Still Life (Sunflower In A Vase)'
p83
aS'AAAGAACGGGAGUCAAAAAGACUUAGGCCACAAAUUAUCACGACGUAAAAAAUAUCCGGACGCGAAACGUUAUGCAACAAAAAGUUGCAGGGUACAAAAAGUACCAGAUAUAGAAGGAUAUAAGUAUGCGACACAAAAAAGUGUCAGAUUUGAAAAAAAAAAAUGAUCAAAAAAAAAAAAAAAAAAAAAAAAAAAAAAAAAAAAAACCGGAUCUAAAAAAAAAAAAAAAUCGAAACAAAAGUUUCAGUAUACUUAUAUCCUUCUGUAUCAAAAUAGAAAAAUAAUGAAUAUUCAAAAAGAGUAGAACGUGGAAAAUACGUGGGGCAGGAAAAUUGCCAUCACGGAAAAAUAUUUGAUCUUGAAAAGAGAUAGUUCGAA'
p84
aF0.9735449735449735
aa(lp85
S'Quasispecies 2-2 Loop Challenge'
p86
aS'AAAAAGAUCCACUAGUACCAAAGGGUAAGGGUGAGUGUGACAAAGGAGCAUGGCUCUCGUCGACGAAAAGUCUUCUUGAGCGAUCGAAAAAAAAAAAAAAAAAAA'
p87
aF1.0
aa(lp88
S'Corner bulge training'
p89
aS'AGAUAUCGAUACAAAGUAUCAAAAGAUAUCA'
p90
aF1.0
aa(lp91
S'Spiral'
p92
aS'AAAAAGAUCAGAUAUCAGACAGAUACAGAUCAGAUCAGCAGCAGCAGCAGCAGCAAAAAGCGCGCGCGCGCGAUCGAUCGUAUCGUCGAUAUCGAUCAAAAA'
p93
aF1.0
aa(lp94
S'InfoRNA bulge test'
p95
aS'AAAAAAAAAAAAAAAAAAAAAAAAAAAAAGAUAGAAAAUUCUUUAAGUCCCAAACAAUUGGUCGCUACUGAAAAGGCUGUCGAACAAUUCUGGAAGGAGAAAAAUGAAGGUAAAAAGAAUCG'
p96
aF0.9672131147540983
aa(lp97
S'Worm 1'
p98
aS'AAAAAAAGCGAUAAUGGGGUGAAGAAAAUGUUUGCAGUCGGGCAC'
p99
aF0.9111111111111111
aa(lp100
S'just down to 1 bulge'
p101
aS'AAAAAGACCAGAUACAAAAGUAUCAGACAAAAGUCAGGAUCAAAAGAUCAGACAAAAGUCAGACAAAAGUCAGAUCAAAAAAAAAAAAAAAAAAAA'
p102
aF1.0
aa(lp103
S'Iron Cross'
p104
aS'UUGUAUAUAAAGAGGGUGAAAUCCAGACAAAAGUCAAUCAAUGCUGUGCAAAAGCGAGUCGAAGAUACUCUCAGGUACAAAAAACUGGUACAAAGUAAACCGAAAUAGGAAAAAUGGGAAAUA'
p105
aF0.8699186991869918
aa(lp106
S'loops and stems'
p107
aS'AAAAAGAUAUACAAAGAUCAAAGAUCAAAGAUCAAAAAAAAAGAUACAAAAAAAAAAAAGUAUCAAAGAUCAAAAGAACAAAAAAAAAAGUUCAAAGAUCAAAGACAAAAAAAAGUCAAAGAUCAAGCAAAAAAGCAAAGUAUAUCAAAAA'
p108
aF1.0
aa(lp109
S'Water Strider'
p110
aS'AAAAAGUUUCUAGCGAAACGCAAAGGAGUUCUAAUGAAUUAAAAAAGGAGGGUAAUUCAUACAAAAUGGAAUUGCAUCGUACGUAAAAAAAAAAAAAAAAAAA'
p111
aF0.941747572815534
aa(lp112
S'The Turtle(s) Move(s)'
p113
aS'AAGGUGAAAACAGAAGGGAUAGUCAAAAAAAAAGGCUAUUUCAAAUGAGCAAAAGGCUUUAAACGGCGAAAGCCAAAUUGUUAAAAAAAAGCAGAAAAUUGAAAUAGAAAAAUACAACCUAAAAGAGAAAAGUUAUUGAAAAAAGAUAACAAAAGACGAAAGUUAAAAACAGGUCAAAAGAGAAAAAAACUCGUGACAAAAAAAAGUCUAAGUUACAAAAAGGUAGCAAAGUUCAAAAAGAGCGAGACCUGAAAAAAAAACAAAAAGUUGAAGGAAAACGCAAAACAGCUUCAAAAAAAAAAGAAGCAAAAAGCAA'
p114
aF0.9778481012658228
aa(lp115
S'Adenine'
p116
aS'GACAAGGCUAUCAGAUAGCAGGUGUCACGUAAUAGAUAUAGAAGCAUUGCAAAAAAGCAAUGAUAUAUCAGAAUUAAAGAUAUACAAGGUAUAUCAAUUCAGUUACGCGAUCUAGAAAUAUAUUAUUUCUAAAGGAUCAGAUACCAAAGGCUAUUGAAAGAUAGCAAAAUUGUU'
p117
aF1.0
aa(lp118
S'Tripod5'
p119
aS'AAAAGCGGUGGAAAACACCCAUCAAAAAGGUGGCUUGA'
p120
aF1.0
aa(lp121
S'Shortie 6'
p122
aS'CCGAAAGGGUGGAAACAAGGAAAGCCGUCGAAAGA'
p123
aF1.0
aa(lp124
S'Runner'
p125
aS'AAAAGGGGCAGAAUUUAAAGUUUCAAAAGCUAUUAAAAGGUAAAACUUCAAAGGUAAAGAAGACGGGACAGUUAAACGCAACCAAUGAGAAAUACAAAAGUGGGUUGGCCCAAAAA'
p126
aF0.9137931034482759
aa(lp127
S'Recoil'
p128
aS'AAAAAGAUACAAGCAAGCAAGACAAGACAAGCAAGCAAAGCAGCAGUCAGUCAGCAGCAGUAUCAAAAAAAAAAAAAAAAAAAAA'
p129
aF1.0
aa(lp130
S'[CloudBeta] An Arm and a Leg 1.0'
p131
aS'AAAAGGACGGCUCUGAAAGGAAGCGACAGCAAAGGCGUCAGUCAAAAAAAAAAAAAAAAAAAA'
p132
aF1.0
aa(lp133
S'[CloudBeta] 5 Adjacent Stack Multi-Branch Loop'
p134
aS'UGCAGGGUCGAAAGACCGUCAUUAAUAUGGCGGUACAAAGGUGCCGGGCGAAAGUCCCUGCAA'
p135
aF1.0
aa(lp136
S'Triple Y'
p137
aS'AAAAAGUUCAACCCAACAAAACUUCAAACGAAAGAACGGCUGCGGGCAAGAAAUUUCUCUCGAAAGAGGGUUCGAGUGAAAAAAAAAAAAAAAAAAA'
p138
aF0.9175257731958762
aa(lp139
S'Misfolded Aptamer'
p140
aS'GCUCAAAAAAUCUACAAGUGAUCAAAAAUGUGUGAGGGGGAAAAAGGAGC'
p141
aF0.92
aa(lp142
S'Flower power'
p143
aS'AAAAGGUUUGAACCAUGUACAUCUCGAUGAAAUAUUGAUUCGAAACGUCGGGCUCCAAGAGCGAGAAGAUAAAAUAGCAAAUAAAAAAAAAAAAAAAAAAAA'
p144
aF0.8431372549019608
aa(lp145
S'Kudzu'
p146
aS'AAAAAGAAAGAGGGUACCGAGGGAAGCAAGGCACAGUCGGGUAGCAAGGCAUCCCGGGAGAAACUCAAAGUAACAGCGUUCAAAAAAAAAAAAAAAAAAAA'
p147
aF0.9603960396039604
aa(lp148
S'"1,2,3and4bulges"'
p149
aS'AAAAACGCCUGCCUCAAAGGGAAAUGGCUGACGAAAGUCAAUACGAAAUGAUGUAACUAAUGAAAUGCUACUAAUGCGGCAAAUUUAAAAAAAAAAAAAAAAAAA'
p150
aF0.9428571428571428
aa(lp151
S'medallion'
p152
aS'GGUUGCAGAUAGCAAAAGUUAUCACGCAAAAGUCAUACGAAAGUGAGUUAUAGAAAUAUAACGCGUAAAAGCGGGUGGGGUAAUCCAUGCAGACGAAAGUUAACCAAAAGGUGGAUGUUAAAGGACAUCAGAAGAAAAACCGGUAUAAAAAUAUACGAGUCAAAGGACAGUCAAAAAUCCUCGAUCAAAAGAUCGGACAUAAAAGACAGGUAUCAAAAGGUAUCAGACGAAAGUCACUGGAAACAUAGGUAACAAAAGUUGCCAGUCAAAAAGCAGAGAUCAAAAGAUCUCGGCGAAAGCGCUGAGAAAACUCUUAUAUUUAAUAAUGUAAGUAAUC'
p153
aF0.9080118694362018
aa(lp154
S'[RNA] Repetitious Sequences 8/10'
p155
aS'AGGUAAAAGGUAAAAAAACAAAAAAGCAAAAACGCCAAAAAGCAAAAAAGAAAAAAGUCAAAAAAGCAAAAAUCCAAAAA'
p156
aF1.0
aa(lp157
S'Documenting repetitious behavior'
p158
aS'AAAAAAACAGAACUGAAGUAAAAAAUAAAACGAAUAUAAGGUGAAUCUAAACAAAAAUUAAAAGGAAUGUAAUACGAACUUAAGAUAUAUUUAAAGCAAAAAAAAACUGAAUAAUAUUCAAAAAAUUAGUUAACUAUUGGUGAAAAAAGUGUGAAAAAUUUGUUAAUGAAUAGUAAAAAAAUGCCUAAUACUUACCGAAAAAAAAGGAAUUUUAAUGGAACGUUAAGACGAAUCUAAUAUACAUUUAAAACUAACAUAAAGCAAAUUAAAUACCGAUUUCAAGAUGAUUUAAAGGUAAAAAAAAGCAAAAAAUUUAUAAAAAGUUAGUUAAAAAUUACUAAAAAAUUUCGAAAAAAUAAACAAAAAAUGAGUAAAAAAUUUUGAAAGUAUUAUCAAAAAA'
p159
aF0.785
aa(lp160
S'7 multiloop'
p161
aS'UUCAAAGGGAAAUCUCUUCCACUGAAAGGUGGAAGGCGAAAGUUUUGCUUAGAAAUAAGUGCUAAAAAUUUAGCCAGAUUAAUAUGUGUCCG'
p162
aF0.9021739130434783
aa(lp163
S'Kyurem 7'
p164
aS'AAAAGGAGGCGUGACAAAGUGAUGCAAAGGAUAGGAGGAAAACUCAGUCGCCAAAAAGGGUAAAGAUGAUCGAAUCGCUUUCAAAAAAAAAAAAAAAAAAAA'
p165
aF0.9411764705882353
aa(lp166
S'JF1'
p167
aS'GAUAGAUGAUGAGAUACAAGAUAGAAAAGAUAUCAAGAUACAAAGAAUCAAGAUAUCGGAGAUAUAAAUAUAAAAGUAUAUUUAUAUUUCGGGACAAAAGUCAGAUAUAUAUGAAAGUAUAUAUCGAGAUACAAAAGUAUCAGAUAUCAGAUUCAGUAUCAGAUAUCAAGGAUAUAUCAAAAAGAUAAUAUCAAGAUAUAUGGAGAUAUAAGUGUAUUAAAAAAUAUACUUAUAUCAUCUAUAUAUCAAAGUUACAAAAAAGUGAUUAUAUAGACAAAAAUGUUUAUAUAAAAUAGCAAAGGCUGAAUUAUCAGGUAUCAGAUCAGAAAGACAAAAGUCUUCGAUCAGAUUCAUACAAAAGUAUGCAGUCACGUUGAUUAUAUCACA'
p168
aF1.0
aa(lp169
S'multilooping fun'
p170
aS'UUUAAGUUAGAUAUGUUAAUAUAAGGAGAAACUUGG'
p171
aF0.8888888888888888
aa(lp172
S'Multiloop...'
p173
aS'GGAUAUGUUAGUUAAAAGACGGCGAAAAUGCAUCGUAAUUUGAAACAAAAGUUACAUAAAAGUGUUGUAAAAAUAUAAUGGUAUUCAAAAAAGAGUCGCGAAAGUGCGAGC'
p174
aF0.9459459459459459
aa(lp175
S'hard Y'
p176
aS'AAAAAGACCAGGCAAGGAUUUAAUGAUCCUUUCCUGUAAAAUUUUGAAAAAGAUUUUGCGGUCGAAAA'
p177
aF0.9705882352941176
aa(lp178
S'Mat - Elements & Sections'
p179
aS'AAAAAUAUCGCGAUGUGAGGUGGGGUCAGGAGGUCCACACAAAAAAUUAGGAUGACCCACGACCAAAACUCCUCUCUAAGAGAUGAAAAAAAAAAAAAAAAAAAA'
p180
aF0.9619047619047619
aa(lp181
S'Chicken feet'
p182
aS'AAAAAGCAUCAGCAAAGUGGUAAGACAAGGCGCAGCAGGUGCAAGGUACCAAAAGGAAUUGCAAAAA'
p183
aF0.8507462686567164
aa(lp184
S'Bug 18'
p185
aS'AUCAUUGGUAGGAAUCAAGUAGUUAGAGAGGCGGGAUUAAACAUAGGAAAGGG'
p186
aF0.9245283018867925
aa(lp187
S'Fractal star x5'
p188
aS'AAAAAAAUAUAUAAUGUUCAAAAGAGCUAAUUCAAAAGAAUGUGAUCAAAGGAUCUAGGUAAAAAUAUCGAUAUAUGUUAAAAAGAUCUAUAUGGAGCAAAAGUUCAGGUUCAAAAGGACAAGAUCAAAAGAUCGAGAUAAAAAUAUCAUUAUAGAUCAAAAAGGUUUAUAAAGAUCAAAAGAUCGUGUUCAAAAGAGCUAACGCAAAAGCGUGAGAUAUAAUUAUCAAUAUAAACCAAAAAGACUUAUAAAGCGCAAAAGCGCGAGAUCAAAAGAUCGAGAUAAAAAUAUCGAGAUAGAAAUAUCAAUAUAAGUCAAAAGGGCAUGGAAAGUUCAAAAGAACGAGGUCAAAAGAUCGAGAUUAAAAAAUCGAGGCCAAAAGGUCAAUUUAUGCCAAAAA'
p189
aF1.0
aa(lp190
S'Crop circle 2'
p191
aS'ACUAAGUAAAAAUGAAAAGAAAAAAAAAUGGAAAAAAAAAAAAAAAAAAAAAAAAAAAAAAUCUAAAAAAAAAAAAAACCAAAAAAAAAAAAAAAAAAGUGAAUGCAAAA'
p192
aF0.9636363636363636
aa(lp193
S'Branching Loop'
p194
aS'GUAGCAUAAAAAAAUCGGGUAAUUUCGGUGCUAAAAAAAA'
p195
aF0.95
aa(lp196
S'Bug 38'
p197
aS'UAUGACAAUCGUGUCAAAAAGGGAAAAAGAAAAAUU'
p198
aF0.9444444444444444
aa(lp199
S'Simple Single Bond'
p200
aS'AAAAAAGGAAAAAAAUAUCGGAAAACGGUUAAAAAAAACGAAAAAAAAAAAAAAAAAAAAA'
p201
aF1.0
aa(lp202
S'Taraxacum officinale'
p203
aS'CUACGAAAGAUAGAUAAAGAUAUAAUAACUGAAAUGUUCAGAUAGUAAAACACUAAGAGAUAAUUCCACUUAUAAAAAGAAUAAGUUUAUUCAAUGCGAUGUAAAUAAAGUUUAAUAUUGCAGAUAUAAAUAUAUGUACUUGGAAUACAAAGUAUUCCUGUAUAUAUAUGAUCAGGGUUCAAGGAGCUCGAUCAUAUCAAAGUUGAAUGAGUGGGUCAAAAGAAUCAAUCCAAAAGGUAAGCGGUAAAAGACCGAGGCGAAAUUAGCUAUAGCAAAAGACUA'
p204
aF0.8439716312056738
aa(lp205
S'Headless Bug on Windshield'
p206
aS'AGAAGCAAAAGGAAGCAAAGAAGCAUAAAAAAAAAAAAAAAAAAAAAAAUUGGGUUUAAGUUAUUAAAGCGUCACACAAAGAAAAGGCAAAAAUCAAAAGUAAAAAAAUUUUUAAAAAAGUCAGGUCCGAAAAAAGACUAGAAAGAGGAACUUAUAAAAAAAAAAAAAAAAUGUAGUGACUCAAUUUGUCCAGGUAACCA'
p207
aF0.98
aa(lp208
S'Pokeball'
p209
aS'AAAGAUCUAGAAAAUGAACAAAUACGAGCAAUUAACUAAAAAAUCGAGGAAACCAGAAAUUGGGAGAGAGCAGUAAUGGGAUUGGAUCAAAAAAAAGUAACACAAAAGGAAGAAAGACUAACAUUCGCUCAAGAUAUGGACGACAACACAACUCGGGAGAUAGCUGUCAUCACCGUGUUGCAAA'
p210
aF0.967391304347826
aa(lp211
S'Variation of a crop circle'
p212
aS'AAAAUAAAAUAGAAAAUAAAAGCCAAUGCAGAAAAAAGAUAGAAAGAAAAAAAAGAAAAAAAAUUAAAAAAAAGGCAAAAAAAAAAAA'
p213
aF0.9545454545454546
aa(lp214
S'Loop next to a Multiloop'
p215
aS'AUUAAAUAUGAAAAAAAGAUAGACGGAAACGUCUAAGAUAGACAAAAGUCUAUCGUAAAAAAAUAUAUUUGUA'
p216
aF0.9726027397260274
aa(lp217
S'Snowflake 4'
p218
aS'AAGCAAAGCCACAGCCGAAAAGUCAAGGCAUGACAUGCGAAAGCCACAAAGUCAAAGACAGUUCUCAAAAAUGUUGUACCAAAGGGAUAUAUAGACACUCGAAAUGCAUACUAUCAAGGAUAAACAGCAAAGCUGAUAUGCUAAAAGGCCGUCAUGAUACCCAAAACGAUUACUAUCAAGGAUAAACUGCGAAGCAGGUAAACAAAAAGGGUAUCUAUAUCCCGAAAACGCAUAGGAUCAAAGAUUAAUAGGUAUCCUGCUAUGUCUAAGUGGGAUGGGGACAAUCUAAUGCUAUUCGAUCCAGGAUUGAGAUCGAAGAUCGAAUAGCUAAUGCUUAUCAAGCCUUGGGAAAGCGGCUGGAUUAAAAAUU'
p219
aF0.8
aa(lp220
S'Mat - Cuboid'
p221
aS'AAAGGAAAAACAAGCAAAAGCAAGGAAAAGAAUGAAACAAAAGCAAGUGGGCAAAAGAAGCAAGCGAGGAAAAUCAAGGAAGAAAGCAAAAGCAACCAAGGAAGCAACAAAAAGGAAUCGAUCAACUGAACAAAAGAGAGCGAUGGAUCGAUCUAUUAAAACCAAUCGAUUGAUCAACCAAUCAAAAGCGGUGGAGCGAUCGAUCGAUGAAAAAGCAGAGGGAGAGAGUGAUAAAGCGAGGGGGGGAGAAAGAGAGGGGGGCUGAGAGAGACAGAGUGAUCGGGAAAGGGAGAGGAACCGGAGGCAGGCAAGCAAGGUCAGUCGACCAAACCCAAGCAGGCAAUGCAAUCAAGUACAACAAAACCAAGAGCAGGUUCGAU'
p222
aF0.8842105263157894
aa(lp223
S'Misfolded Aptamer 6'
p224
aS'AAAAAAGAUGAAAAACACGGGGGAAACGCAAAAAAAGGCGGGAACAAAAAUGUGGAAAAAAAUCAAAAAAAAAAA'
p225
aF1.0
aa(lp226
S'Snowflake 3'
p227
aS'GCAACAAAAGGAGAUCGCAAAGGCGAAGAUCAGAUCAAGAGAAAGCUCGUAUACAAAAAUAGCGAAGUCACAAAAGUUUGUCACAAAGGUGAUGAACGGAUCACGUCAAAGGACUAAGUCAAAAGCACCAAAGAUACAAAGGUAUUACGUAAAAGCGACGAUCAUAUAAAGACAAAAGUCGUAAACAAAAGUAUCAAAGGUAUGAAAGUAUGCCGUAAAGGCGAAUAUGAGAUCACGACUAAUGUCAAUAACAAAACUACCAAAGAUGCAAAAGAGAUACGUGAAAACGAAGACCAGAUCAAUACAAAAGUAGAAAACAAAAGUAGCGAAGCCAGAAAGGUAUUACCCAAAGGGGAAGAUUGGAUCGAGACAAAAGUCAUCGACAAAGGCUGC'
p228
aF0.7837150127226463
aa(lp229
S'Hard Y and a bit more'
p230
aS'AAAAGGGUACGGACACAUAAAGAUGUAGCUCAUUUAGCAGGAUCAAAAGAUCAUGAGACAAAAAAGUUUCUAGCAGAAUGGUAUCAAAAAAAAAAAAAAAAAAAAA'
p231
aF0.9716981132075472
aa(lp232
S'Mat - Lot 2-2 B'
p233
aS'GAGGGGAUUACUAAUCAAAAGCUACACAAAAAUGAAAAUGCUGCGAGGAAAAAAUAUGCGUAAAGUAAUCGAUCACGGCCAAAAGCGAAAUCAAACAAAUGCAAAAGCGAGGGCAAAAUUGAGCGGAAGUUAGAUAAAGCAAAAGUGUGUUUUAGUUCAAAAGCGAUAGAAAAGUCAAAAUAGAGCGAUAGAAAAAAAGAGCAAGAGGAAGAAAGGGUAAACAAAAGCGAUGUCCAUCAAAACUAAAAGGGAGAGAAAAACAGAGCGUGCACGCAGGAAACAGU'
p234
aF0.8169014084507042
aa(lp235
S'Shapes and Energy'
p236
aS'AAAAAUGUGUGCAUAACGAAAAGAGGUUAAUGAAAGAUAAUAAAUGUUAGGGUAAAAACGGUAGAAAUAUCGAAGAACUCUGAAAAAAAAAAAAAAAAAAA'
p237
aF0.9603960396039604
aa(lp238
S"Spiral of 5's"
p239
aS'CAAAAGGUACAAAGAUAGAAAGAUAGGAAAGAUACAAAGAGAGAAAGAUAGAUGAUACAAAAGAUACAAAGAUAGAAAGAUAGAAUAUACAAAGAUAGAAAGAUAGAUGAUACAAAUAUAGAAGAUAGGAGAUACGAGAUACAAGAUAUAUAUACAGAUAUAUCAAAAAAGUUUAUCAAAAAUCUUAAAAAGUAUAAAAAAAUAUCAAAAAGUAUCAAAAAGUAUCAAAAAUUAUCAAAAACUAUAAAAAAGUAUCUAAAACUAUCAAAAACUAUCAAAAAGUAUAAAAAACUAUCAAAAACUAUCAAAAAGUAUCAAAAAGUAUCUAAAACUAUCAAAAGCUUUCAAAAAGUAUCAAAAACUAUCAAAAACUAUCAAAAAGUACCGAAAAGAAAAA'
p240
aF0.9949622166246851
aa(lp241
S'Campfire'
p242
aS'AAAAGGACGAGUAUCAACAUCAAUAUGUAAAUCAUAGUACAGGAAUCUAUAUGAUGGGAUUCAACAUAAGUAACAAAGGUAUAUUGGUGAUACAACAGCAGCAAAGGUGCGUUUUCAGACGAAAGUAUGAAGGAGGUAAUCACAAUCCGCGUUCGAUUCGAGGUAUUUCUAAUGAAGGCCCGAAAAAUAAAAAGUAUAGUAUUUUUCGGAGC'
p243
aF0.839622641509434
aa(lp244
S'Anemone'
p245
aS'AAAUAUUGUGAAAGCAAUGAAGUCGAAAGACUUUUUGAUAAAGGUCAAGCGUGCGAAAGCACGGAACCCUAAUGGGUUCGUCACAAAGGUGAGUAUGCGAAAGCAUAAAGAUUAAAGGGUUUUAGAUACGAAAGUAUUAAUAUGAAAGCGUAUUUGCAGGAAAUUGCCGUGAUCUAAUGAUUACGAUACGAAAGUAUCCCAAGCGAAAGUUUGG'
p246
aF0.9906542056074766
aa(lp247
S'Fractal 3'
p248
aS'AAAAAAAGGGGGCUUCGAAAGGCCGAAAGGUGUUAUAUGAAAAAGUAGUGAAAAUAGGAAGACAGUAAAAGAGCGAAAACAGUAACACAGGAAAACCGCAAAAGGAGUCGCUUUAAAAA'
p249
aF0.865546218487395
aa(lp250
S'Kyurem 5'
p251
aS'AAAAAUAUUGUCGGAUAAUUUCGAGAUAAUCGUGCUGAAAGACAAAAGGUCCAGCGACUUAAAUGUCACGUAUGUGAUAAGAUGGAAAAAAAAAAAAAAAAAAA'
p252
aF0.9423076923076923
aa(lp253
S'Snowflake Necklace ( or v2.0 )'
p254
aS'GAUCUGUAAAUUUACGGUUAUCGAAAAAAGUGGCAAAAAGUGACAAAAACAAUGAAAAAUAAGAAAAAACAAAUAACAGACAAAAAGUCAUAUAUAUCCAAAUGAAAGUAAAUCUAGUAAAAAGUACCAAAAAGGAUCAAAAAGAAGAAUUGAACAAAAAGUUAUACAUAGGAAAAACCAUCAAAAAGCAUCAAAAAGAAUCAAAAAGAAUCAAAAAGAAAUACAAGAUAAAAAGUCACCUAAAGCGAAAAGCGUCAAAAAGGAUCAAAAAGAAUCAAAAAGUAUCAAAAAGAAUUGGGAGACAAAAAGUCAUAUAUAGCAAAAAGCAUCAAAAAAAACCAAAAAGAUUCAAAAGGAUGCAAAAAGAAAUAUAAGUAGAUUUGUAGAUC'
p255
aF0.8149100257069408
aa(lp256
S'Methaqualone C16H14N2O Structural Representation'
p257
aS'AAAAAAAUAUCAGGUCAGAUAGCCGAAAGGCAGAUGCGCAAAAGCGAGUCUGACAAAAGGUAGAGAGACGAAAGUCAGUUUAAAAAUAACAUUCUUACAAUCAAUCAGAAACAGACCAGAUUAAAGAGCGCAAAGGAAGCCAAAAAAAACCGAUGUAGACAAAAGUCUACGAAAGCGUACAAAGACGUCAAUCAAUGAUCAGAAACACGCGGGGACGCAGAGGGAGAAAAGUCAAAAGGCACUCAGACGAAAGUCAAUCAGCCAAAAGGCAGCGAGACAAAAGUCACCCAGCUCGGAAAACCGCCCAAAAGGGAUACAAAAGUAAUCAUCGAGCUCUAAGAUCAGAUGAAAAAAA'
p258
aF0.9098591549295775
aa(lp259
S"Cat's Toy 2"
p260
aS'AAAAGGUUAAGGAAAAGGAAAAAAAAAAAAAAAAAAAAGGCGAAUGACGAGAAUUCUAUACAAAGGUUAAAAAAAAAGAAAAAUCUCUUAGUCAAAA'
p261
aF0.9587628865979382
aa(lp262
S'Zigzag Semicircle'
p263
aS'AAAAAAUAUCGCUUAAAAUAAUCUAAUGUUGAAA'
p264
aF0.9411764705882353
aa(lp265
S'Short String 4'
p266
aS'AAAAAGGAAUAUGGGAGGGAAGAUAAGCGAAAGCGACAAAAUGACAGAGCGAAAGUGAUGGAUUAAUGCAGUGAUAAAAAAAAAAAAAAAAAAAAAA'
p267
aF0.9587628865979382
aa(lp268
S'Gladius'
p269
aS'GAAAACAAAAAAGGGAAGAAGAGAAGUAAGACGGGCAAAGAUCAAAAGAUCGGAGACAUGGGCAGAGUGAUAAUGGGAUGAACGGUUAUAUCAUAAAUGGUAAACAUAUCAGAUCUUGAUGAAACGUUUGAUACGAUAGAUUUAAAAUUUGGCAUAUAACAAGGUAUCAAUUUAUCUACAUGUAACUGUCUCGGCCAAAGACGGAACCGGAAGGCAGGAUUGUAGUAAAGAGGAAGAUAUAGAGAAUUUAAUAUGACAUAUAGGAAAGAUAUCAAAAGGUAUCAAUUUAAAUAUAGCAUAGAAAAUUACUUAUAUCACAAGUGUGCAAGCGAAGAAGCCAAAAGGUUCAGCAUGAAAGUGCAAAGUCUGUCAAUUAAUACAACGAACAAAAUAAUAAAAA'
p270
aF0.885
aa(lp271
S'Thunderbolt'
p272
aS'ACAAGAUACAAAAAAAUUAGCAAGCAUAAAAAGGAAACUGCCUGAUCAAAAAAACACGGAAAAUUAUCAAAAAGAUAUAAAAAUGGAAGGGCCUGAAAAAAGAGCAAAAAAGAACAACCGAUCAAAAACAAAAGAUAUGUAAAAGCAAAAAACUACCAAAAAGAGGCUAGAAAAUGCGCAUCAGGGAAAAAAAGAAUACCAAAGGAGGAUAAAAAAACGAGGAUGAAAAAAAUCAUAAAAAACAGAUCUAUGAUUUGGGAGAGGAAAAAAAAAAAGGGAGCAAAAAAAAAAAACAAAAAUCAGGUGGAAAUCAAAAAAAAGUAAAAUAUCUGAAAACAAGAGAUUAGGCUAAAAAAAAAGCAAGCAGUAAAAGAAAAAAUCAGUAUCGGGUA'
p273
aF0.9540816326530612
aa(lp274
S'Mutated chicken feet'
p275
aS'GAAAAAUCCAACAUCAAAGCUGGAAACCUAAGGGUUGAAGGAGCUAUGCGCGUAUGUAAAUCGGACCACUUGUAAAGCUUCAAAGAAAUAGGGAAAAAAA'
p276
aF0.81
aa(lp277
S'Chicken Tracks'
p278
aS'AAAAAAAAGUUAAUAGAAUAAAGGUUCGAACUCGAAAGAGUGAGAUGGAAACAUUCGUUAACGACGCUUGCAAAGUAAGGAUUCAAAGAAUUGCUGAAAGGCAGGUGGAAAAAAAA'
p279
aF0.9482758620689655
aa(lp280
S'Looking Back Again'
p281
aS'ACUUAGAGGCUGAAAAAGAUAUCAAAGAUAUCAGAUCGAUAACGCAAGACAAGGUCACGAUCUUCAAGGAUCGAAAGAUCAAAGGAAGAGAUCGAACUCAUGCUCUAGAAAAAGGUGCAAAAGCACCGAAAAGCAGAAUGCGACACAAAGUGUCAGUUCAAAGGACUGACAUCCUAAGUAUAAGAAUAAGAGUGUGAAAUCGCAAACGGAACAAUCAGGGACAAAAGUCAAGAUGUCAAAGUAUCGAUCUGAUGCAAACGAAAAAAGGUAUGGAAAAAAAAGAUCGAAAAGAUCUGAUAAAUUCACGCUGGUCGAAAAAGCCUGGUCAAAAGACUAGAAGCCCUUAUAGUUAUAUGAAAUAUAAAGGUGCAAAAGUGCGUAUUUAUAGC'
p282
aF0.8329048843187661
aa(lp283
S'Multilooping 6'
p284
aS'AUGAAUGUAGUAGUUUAAUAAAUAUCCGUUAAAACGUACCGUUUCGGAUUAAUGUCCGGGCGUGAAAUCGUUAGAGAUUCUA'
p285
aF0.926829268292683
aa(lp286
S'Cesspool'
p287
aS'GAAGAGGAAAAUAAGAAGAUAGAGACAAACUCAACAAAGAGUCGAGAGGAAAACAGGAGAAUAAAAAAAUGCAAUUAAAAAAACAAUAAGAAGAACAAAAGGAGUCGGUAAAGACAAAGCCAAUAAAAAGCCGUGAAGGAAAUAAUUAAAUAAAAAAAUACAAUGAAAACACCAAUAAGCAAGAAGAAAACGAAACGAUAGAGACAAAGUGAACAAAGAAUCGAGAAGUAAUCAAUAGAGAAAAAUAAUACAAUUAAAAAACCGGGCAACCGAGAAGAAAACGAGACGAUAGAGGAAAAGUCAACAAAGACUCGAGAAGAAAACAAUAGAAUAAAAAAAUACAAUUAAAAAACCGAGG'
p288
aF0.7625698324022346
aa(lp289
S'Hoglafractal'
p290
aS'AGGAGCAAUAAGGAAAAGCUAGAAAAAGUUAGCACGAAUAAUAAAGAACAAAAAGUUCGUUCUGAAAGACAAAGGUCACAACGAGACGAUCAAAGAUCUAAAAUGAUCGAUCAAAAAGACUAAGUGUCUUUCCAUAGAAAGGGGAGAUCUAAACACAAGCGAAAAAACGCGCGUCAGUAAAAAGCGAAGCAAAAGUGAGGUGAAAAAAAAAGCAAAAAAGCUUGCCUAAAUGGACCAAAGGGGGACCUCAAAAAAGACUAAAAUGUCACUAAAUGAAAGUUUAUACGAAGUAUAAAAAAAAAGGGGGUCAAAAAAACAUCGAAAUGAUCGAGAUUGAAAUCAGCAAAGAAGACAUCGAAAGGAAAGUCACGAAAGUUAUCUUUAUGAGAUCGGAUGCCGC'
p291
aF0.85
aa(lp292
S'Bullseye'
p293
aS'AAAGAUCUUCAAAGAGGGAGCUUAAAGAGCGACGGCGCAGUUAAUCAAAAAAAGGGCGGCCAAAGACGGAUAUUGAAAAUAGAAAGCAAGGUUUGUCAAAAAAAACAUUGUGAAACCCAGUGAUCUAACAACUAGAGGUAUCCUCAUGAAAAAAAAUACUGCCAAAGGGAGAAGCCAAGGGCUGAGAUCAAGGGCCGACGAA'
p294
aF0.8415841584158416
aa(lp295
S'Shooting Star'
p296
aS'AUAGCUGUGCGCUACACGAGGAGAAACAGUUACCCAGCGAAAGACGGAGGACAGUUAACUAAGUGUAGCAGAUCUGAUAGAAUCAGAAAUUUUCAGACAUAGGAGCGAAAGACUCUAAGUCGAGGGUCUUCAGAAAACAGAGUAAAAGAAUAUCGCACCAUGGGAAUCGUGGGAUACGAAGUAUCCAAUAAUACGCGAUCAGCAUAUAUGAGAUAAGAGGGAGUCAAAGGUGCUUAGAGACGAAGUUUCUAUCAAUAUACAAAGUUUACCAGAUCUAAAGGAUCAAUAGAAAAACUAAUGAGAAAAGAAUUGUGAUCGAUCAACAAAAGGCUAUACUUCUCUAAAACUUAAUCAUCAAGUUAUA'
p297
aF0.7774725274725275
aa(lp298
S'Teslagon'
p299
aS'AAAAAAACAAAAAAAAUUGUAAAAAACUCUGAAAAAAAAAAAAAAAAUCGAAAAAUUACCAAAAAAAAAAAAAAAGGUCAAAAAAAGACUGUAAAAAAAGCAAAAAAAAAAAAAAAGCAAAAAAACCUGUAAAAAAAGUGACAAAAAAAAAAAAAAAGUAAACAAUUAGUGAAAAAAAAAAAAAAGAAACAAAAAAAACGAUUAAAAAAGGAAAAAAAAAAAAAAAGCAAAAAAUACAAGAAAAAAAGCAAUAAAAAAAAAAAAAAAAUAAACAAUUCUCAAAAAAAAAAAAAAAGGAGCAAAAAAAAUAGGAAAAAAUCAAAAAAAAAAAAAACAAAAAAAAAAAAAAAGCGUGUAAAAAAUCUGUAAAAAAAGUAAAAAA'
p300
aF0.900523560209424
aa.