(lp0
(lp1
S'Simple Hairpin'
p2
aS'GACACAAAAAAGUGUC'
p3
aF1.0
aa(lp4
S'Arabidopsis Thaliana 6 RNA - Difficulty Level 0'
p5
aS'GACACACAAAAGACAAAAAAAAAAAGUCGACACACCCCCACACACACACACACACACAAAGACACAAAAAAGUGUCAGUGUGUAGUGUGUGUGUGUGUAGGUGUGUCAAGUGUGUC'
p6
aF1.0
aa(lp7
S'Prion Pseudoknot - Difficulty Level 0'
p8
aS'GACACCAGACCAAAAGGUCGGUAGUCAAAAAAAAAA'
p9
aF1.0
aa(lp10
S'Human Integrated Adenovirus - Difficulty Level 0'
p11
aS'GAAACUCACAACUCUGAAUACGAAAAAAAAAUUACCGGACUAUAGCACGCCUUGCCCAAAAUGCAGUCGGAUUCUAAAAAAUGGGUCUGACUAAAAGCGCUGUGAAAAAGGCGGAAAAUUGCCCCGGGCGUUUAAAAAUGGCGUCGGUAUAAAAAAAAAAAGUGUUCUGAGUAAAAUGUGAGAAAUUUCAAA'
p12
aF0.96875
aa(lp13
S'The Gammaretrovirus Signal - Difficulty Level 0'
p14
aS'AGCGCCCCACACCAAAAGGUGUGUAGAGAAAAAAGACCAAGACAGGCCGACACAAAAGUGUUGAAAGGUCGUCGGUCAAGACACACCAAAAGGUGUGUCAA'
p15
aF1.0
aa(lp16
S'Saccharomyces Cerevisiae - Difficulty Level 0'
p17
aS'GGCACACCGCCAAAAAAAGGGCGUUUAAAAAAAAAAAAAAAAAUGAACUUGGAAAAAAACUAAGGUGUGCCAAAAAUUAGUCAACUGCGAUAAAAAGCAGGUCGAAAAAAAAAACAGACAAAAGACGCGAAAAAAGCGUCGACUGAUAAAUAAAAGAGCAUGCAAAAAAAAGUUUGCUAUCUUAAAAAUGGAUAGAAAAGAGGUAAAAAAGACCUCCUCUUUUUAAGGCUACAGAACUCCAAAAAAAGGGAGCGCACUGAAAAAAGGUGCGAAAAGAUACUAAAAAUGUAUCCUGUAGCAAAUGACCUCCAAUAGCGAAAAAAAGGUGGUUAUGUAAAAAUUGUGGAAAAAUCCGUAAAAAAGCUGGAGGGGGUCUAAA'
p18
aF0.9894459102902374
aa(lp19
S'Fractal 2'
p20
aS'AAAAAGGCAGACCUAAGACACUCACCAAGACCAAAAAAAAAAGGUCAAGACCAAAAAAAAAAGGUCAAGAUUAAAAAAAAAAGAUCAAGGUGAGUGUCAAUGACACAGUUUAACACUAAAAAAAAAGGGUGAAGACCAAAAAAAAAAGGUCAGCUAGAAAAAAAAAACUGGAAGAACUGUGUCUAAAAGACACCCCAACUCUAAAAAAAAAAAGAGAAGCCCAAAAAAAAAAGGGCAAGACCAAAAAAAAAAGGUUGAGGGGUGUCUUAAUGGUUUGUCAAAAA'
p21
aF1.0
aa(lp22
S'G-C Placement'
p23
aS'GACCAAAGGUCA'
p24
aF1.0
aa(lp25
S'The Sun'
p26
aS'GAAAGACUAACGAAGUUAAAGUCUCUAAAUAUAGACACAAAAGGUGUAAGCCGAAAAACGCAGAGACACAAAGUGUAACUCGUGGAGCAUAGAGAUAUGAAGUGUAAUUUAUCAAAGACAGUCAAACAAAGUUUAAGACGUUAAACUGAGACACAGAAAGUGUAAGUGCCGAAUCGCAGUCACACAAAAUGGAAGUCGCGCAACACAGACCUGCGAAGCAGAAGUCAUGAAACCAAGACAUACUAUGUAUAAGUCUGG'
p27
aF0.9069767441860465
aa(lp28
S'Frog Foot'
p29
aS'AAAAAAAAAAGCCCAAAUGGGCGAUGGAAACGUCCCGCCAAGCGG'
p30
aF1.0
aa(lp31
S'InfoRNA test 16'
p32
aS'GACACCGCACACAUCGAAAGGUGUAGUAGAGGUGUC'
p33
aF1.0
aa(lp34
S'Mat - Martian 2'
p35
aS'AGGUAAAAAUCUAAUGAGACACAAGACACACGAAAAAAGUGUGUCGUGUCUCUAAGAUACACCAAAAAAGACACACAGACACACGAAAAAAGUGUGUCGUGUGUCAAAGACUCACAUACACCAAAAAAAGGUGUAUAGUGGGUCAAAAAAGGUGUAUCAAUGAUACACACAUACCUAAAAAUGGUAUGUAAGUGUAUCUAAGACCGAAAGGUC'
p36
aF1.0
aa(lp37
S'square'
p38
aS'GACACACCACACCCACACACCACACCAAAGGUGUGAAAAGUGUGUGAAAAGGUGUGAAAAGUGUGUC'
p39
aF1.0
aa(lp40
S'Six legd turtle 2'
p41
aS'AAAAAGCAAAUGAAAAGGAAACAAAAGAUGAUCGGAAAUGUAAGGGAAACCAAAUUAAAAAAAAGAAGAAAUUAAAACAAAAAAAAAAAAAAAAAAAA'
p42
aF0.9591836734693877
aa(lp43
S'Small and Easy 6'
p44
aS'GUCCCGAAAAGAAAAUAAAAAAAAGACCGC'
p45
aF0.8666666666666667
aa(lp46
S'Fractile'
p47
aS'AAAAAAAAAAAAGCAAAAGCAAAGGAAAGCAAAAGCAAGCAAAGCAAAAGCAAAGCAAGCGAAAGCAAACCAACCAAAAGGAAAAAAAAAAAAAAAAAAAAAAAA'
p48
aF1.0
aa(lp49
S'Six legd Turtle'
p50
aS'AAAAAAUGAAAUUGAAAAGAAAACCAAAAGGUAAUGCUAACCCUAAAGCGAAAAUAAAACUAAAAAGCAAAGGUAAUCGAAAAACAAAAAAAAAAAAAAAAAAAA'
p51
aF0.9619047619047619
aa(lp52
S'snoRNA SNORD64'
p53
aS'GACACCAAAAAGACAAAAGACAAAGACACAAAAAAAAAAAAAGUGUCAAAAGUCAAGUCAAGGUGUC'
p54
aF1.0
aa(lp55
S'Chalk Outline'
p56
aS'AAAAAGACCAGGCACAAAAGUAGCCAGACAGACAAAAGUCGUCAGACACCAAAAGGAUGUCAGCCACAAAAGUGAGCGGUCAAAAAAAAAAAAAAAAAAAAAAA'
p57
aF1.0
aa(lp58
S'InfoRNA bulge test 9'
p59
aS'GUCAUAUAGAGAGUGUCCCACUAAUGUGGGACCCCAUAUGAC'
p60
aF1.0
aa(lp61
S'Tilted Russian Cross'
p62
aS'AAAAGAUCGGGGCUAAUGUCCGGCCAGACCCAAGGGUCGACACAAAAGUGUCACACCAAAUGGUGGGCCCACUGAAAAGUGCGAUAAAAAAAAAAAAAAAAAAAA'
p63
aF1.0
aa(lp64
S'This is ACTUALLY Small And Easy 6'
p65
aS'AAAAAAAAAAAAAAAAAAAAAAAAAAAAAAAAAAAAAAAAAAAAAAAAAAAAAAAAAAAAAAAAAAAAAAAAAAAAAAAAAAAAAAAAAAAAAAAAAAAAAAAAAAAAAAAAAAAAAAAAAAAAAAAAAAAAAAAAAAAAAAAAAAAAAAAAAAAAAAAAAAAAAAAAAAAAAAAAAAAAAAAAAAAAAAAAAAAAAAAAAAAAAAAAAAAAAAAAAAAAAAAAAAAAAAAAAAAAAAAAAAAAAAAAAAAAAAAAAAAAAAAAAAAAAAAAAAAAAAAAAAAAAAAAAAAAAAAAAAAAAAAAAAAAAAAAAAAAAAAAAAAAAAAAAAAAAAAAAAAAAAAAAAAAAAAAAAAAAAAAAAAAAAAAAAAAAAAAAAAAAAAAAAAAAAAAAAAAAAAA'
p66
aF1.0
aa(lp67
S'Shortie 4'
p68
aS'CAGAAAUGAAGGAAACU'
p69
aF1.0
aa(lp70
S'Shape Test'
p71
aS'AAAAACUGGCCAAGACACAAAAAAAAGUGUCAAGACAGACAGACUCAAAAAGGGUCAGACCAAAAGGUCAGUCGUCAAGGCCUGGAAAAAAAAAAAAAAAAAAA'
p72
aF1.0
aa(lp73
S'The Minitsry'
p74
aS'GCCGAUCAGAGGAAAAGUCAAAAAAUCAAAAAGGCAAAAAAAGGCCGGGUGGACGCUCAGGC'
p75
aF1.0
aa(lp76
S'stickshift'
p77
aS'AAGACACCCCAAAAAGGAGGUGUCAA'
p78
aF1.0
aa(lp79
S'U'
p80
aS'AAAAAGACACAGAGAGCAGAGACACACACAAAAGUGUGUGUCCGCCCGUGUCAAAAA'
p81
aF1.0
aa(lp82
S'Still Life (Sunflower In A Vase)'
p83
aS'AAGGAGAAGGGCUGUAAAACUGUCAACGCCUGAAAGGCGAACUCACAAAAAGUGAGGUUGCGGAAAUUGUAUACAAUCUAAAAGAUUGGAGUCGCAAAAAGUGGCGGACAUACACACACGUACACAGACGACACAAAAAGGUGUCAGAGAGAAAAAAAAAAAAGGACAUAAAAAAAAAAAAAAAAAAAAAAAAAAAAAAAAAAAAAAAUUGUCAAAAAAAAAAAAACUCUCGAACCAAAGGGUUCAGUUUGUGUACGUGUGUGUGUGUCAAUCCAGAAAAACUGGGAAGGGGCGAAAAGCUCCGAGAUACGAAAAGUAUCAAUACAGAAAAGCCGCAAAGACGGAAAACCGUCGUCACGUAAAAAACGUGCAUUCAAA'
p84
aF0.9735449735449735
aa(lp85
S'Quasispecies 2-2 Loop Challenge'
p86
aS'AAAAAGAUGGAACCCAACCAAAAGGUUUAGUUCAGACCACCGAAGAGGGUCAGACGCGCCCCACAAAAAGUGUAGUAUGUCCAUCAAAAAAAAAAAAAAAAAAAA'
p87
aF1.0
aa(lp88
S'Corner bulge training'
p89
aS'AGACACCGACACAAAGUGUCAAAAGGUGUCA'
p90
aF1.0
aa(lp91
S'Spiral'
p92
aS'AAAAAGACCAGACACCAGACAGACACAGACCAGACCAGCAGCAGCAGCAGCAGCAAAAAGCGCGCGCGCGCGGUCGGUCGUGUCGUCGGUGUCGGUCAAAAA'
p93
aF1.0
aa(lp94
S'InfoRNA bulge test'
p95
aS'AAAAAAAAAAAAAAAAAAAAAAAAAAAAAGAGGGAAAAAGGCCAAAAGAGAAAUGACCACCACCGUACCAAAAAGGAUAAGGAUGAGGGAUCUAGUCGUCAAAAAGGACCAAAAAACCAUCG'
p96
aF1.0
aa(lp97
S'Worm 1'
p98
aS'AAAAAAAUUGUGCCAGGUCCGCAGAAAACGGACGAAGGCCCAUAG'
p99
aF0.9555555555555556
aa(lp100
S'just down to 1 bulge'
p101
aS'AAAAAGACCAGACACAAAAGUGUCAGACAAAAGUCAGGAUCAAAAGACCAGACAAAAGUCAGACAAAAGUCAGGUCAAAAAAAAAAAAAAAAAAAA'
p102
aF1.0
aa(lp103
S'Iron Cross'
p104
aS'GGUAUGUCAAAGAAGGGCAAAGGCUGACAAAAAUCAGUCAAAGUCACUGAAAACGGAGACAAAAUCCGACAACGGCUCCUAAAAGGGAAACAAAGUUUACAUAGGCCUCACGAAGGAAGCCGA'
p105
aF0.9512195121951219
aa(lp106
S'loops and stems'
p107
aS'AAAAAGACACACAAGGACCAAAGACCAAGGUCCAAAAAAAAUGACACAAAAAAAAAAAAGUGUCUAAGGACAAAAGAGGAAAAAAAAAACUUCGAAGGUCAAUGACAAAAAAAAGUCUAAGGUCAAGCUAAAAUGCGAAGUGUGUCAAAAA'
p108
aF1.0
aa(lp109
S'Water Strider'
p110
aS'AAAAUUCGUGAUUCAUCAUGUUAAUGCGCCCGAAAGGAGUUGCUGAACGAAGGAAAUUUGACUAAUGUCAAGUGAUGCGAGAUAAAAAAAAAAAAAAAAAAAA'
p111
aF0.9611650485436893
aa(lp112
S'The Turtle(s) Move(s)'
p113
aS'AAAGGAAAACCAAAAGAGACACAAAAAAAAAAAUUGUGUCUCAAAAGACCAAAAAGGUCAAAAAGACAAAAGUCGGACUCAUGAAAAAAGUGGGAAAAUGCAAAGCAAAAGCAAAAACGCAAAAGCGAAAACACAUCAAAAAAAGAUGUGAAAACAGAAAACUGAAAAUCACCCCAAAGGACUAAAAACGUCAACGGGAAAAAAACUGGAACGCUGUAAAAUUGGUGGAACAGCAAAAUGCUGAAGGGGUGUAAAAAAAAGCGAAAGCAAAAAUGGAAACGAAAAAGCACACAAAAAAAAAAGUGUGAAAAAAGCA'
p114
aF1.0
aa(lp115
S'Adenine'
p116
aS'GACACAGACACCAGACACCAGACACCAGACACCAGACACCAAAAGACACCAAAAAAGGUGUCAGGUGUCAGACACAAAGACACACAAAGUGUGUCGUGUCAGGUGUCAGACACACACACCAAAGGUGUGUAAAGUGUCAGGUGUCAAAAGGUGUCAAAAGGUGUCAAAAGUGUC'
p117
aF1.0
aa(lp118
S'Tripod5'
p119
aS'AAGACCGACCAAAAAGGUCGAGCAAAAAGUUCGGUCAA'
p120
aF1.0
aa(lp121
S'Shortie 6'
p122
aS'GCAAAAGCAGCGAAAGCACCAAAAGGAGCGAAAGC'
p123
aF1.0
aa(lp124
S'Runner'
p125
aS'AAAAAGACUAGACCAAAAAUACCAAAGGUAGGGUCAAAGACAAGACACCAAAGGUAAAGUCGGCCCCAAAGGGAAAGCCAGUCAAAGACAAGGACAAAAGUCAGUCAGGUCAAAAA'
p126
aF1.0
aa(lp127
S'Recoil'
p128
aS'AAAAAGACACAAGCAAGCAAGACAAGACAAGCAAGCAAAGCAGCAGUCAGUCAGCAGCAGUGUCAAAAAAAAAAAAAAAAAAAAA'
p129
aF1.0
aa(lp130
S'[CloudBeta] An Arm and a Leg 1.0'
p131
aS'AAAAAGACAGACACAAAAGUAGUCGACAGCAAAAGCGUCAGUCAAAAAAAAAAAAAAAAAAAA'
p132
aF1.0
aa(lp133
S'[CloudBeta] 5 Adjacent Stack Multi-Branch Loop'
p134
aS'GACGCCCGUUAAUGCGGGCCAUGAAAGUGGCGGCGCAAAGGCGCCGUUCGAAAGAGCGCGUCA'
p135
aF1.0
aa(lp136
S'Triple Y'
p137
aS'AAAAAGUUGGGCCGACCAAAGAGUCUAACAAAAGAUUACCCGAAAGGACUAAUGUUCGCUAUAAUUAGCGUUAUAACAAAAAAAAAAAAAAAAAAAA'
p138
aF0.9072164948453608
aa(lp139
S'Misfolded Aptamer'
p140
aS'GACCAAAAAAGGGACAAAGUCAGCAAAGGCAAAAAAAAACCAAAAGGGUC'
p141
aF1.0
aa(lp142
S'Flower power'
p143
aS'AAAAAGUCUAUUUAAGGGAUAUACAGCUUGAACGGUCUCAGUGAAGAUCUCGACGGAAAGGUGGGUUCCUCAAGCAGGCGACGAAAAAAAAAAAAAAAAAAA'
p144
aF0.8823529411764706
aa(lp145
S'Kudzu'
p146
aS'AAAAGGGUAAUAGAUCUGCAUGGCACGUAUUGGUAAAGCGAGCCGAAAUAUGCUUAAGACGAAGUUAAAGGAGUCUUGACCAAAAAAAAAAAAAAAAAAAA'
p147
aF0.9603960396039604
aa(lp148
S'"1,2,3and4bulges"'
p149
aS'AAAAUGCGGGCUUGCUAAUGCGAAAAAGGGCCAAAAGACAUAAGGUAAAGAGCGUAGGAAAUAAAUAUUGUAAAAGCAACCAACCAAAAAAAAAAAAAAAAAAAA'
p150
aF0.9809523809523809
aa(lp151
S'medallion'
p152
aS'GAGACCACACUCCAAAAGGAGUGGCCUAAAAAAUAACGAAAACAAGCACGGCAAAAGCCGUGACUUAAAACUGACUCACUAAAAGGUGGGGCAAUAAUCUGGUACAAAAGGAACAGAGUAAAAACUUUGGCGAAAAGGUGACCCACCGAAAGGUGGGACGCAAAAGCGAAUUAAAAGAGAGAGACUAAAAAGUCUCACGGAAAAACGACAUACCAAAAGGUAUGACAUAAAAAUGACGAUAAGAUGACCGACCAAAAGGUCGGACCCAAAAGGGAUACAUCAAAAGAUGUAUCACAAAAGGCUCACAAAAGCGGCACACCUAAUGGUGUGAGGUCUC'
p153
aF0.887240356083086
aa(lp154
S'[RNA] Repetitious Sequences 8/10'
p155
aS'AGGAAAAAAGCAAAAAAGCAAAAAAGCAAAAAAGCAAAAAAGCAAAAAAGCAAAAAAGCAAAAAAGCAAAAAACCAAAAA'
p156
aF1.0
aa(lp157
S'Documenting repetitious behavior'
p158
aS'AAAAAAAGGAAAAAAAAAGGAAAAAAAAAGGAAAAAAAAAGGAAAAAAAAAGGAAAAAAAAAGGAAAAAAAAAGGAAAAAAAAAGGAAAAAAAAAGGAAAAAAAAAGGAAAAAAAAAGGAAAAAAAAAGGAAAAAAAAAGGAAAAAAAAAGGAAAAAAAAAGGAAAAAAAAAGGAAAAAAAAAGGAAAAAAAAAGCAAAAAAAAAGCAAAAAAAAACCAAAAAAAAACCAAAAAAAAACCAAAAAAAAACCAAAAAAAAACCAAAAAAAAACCAAAAAAAAACCAAAAAAAAACCAAAAAAAAACCAAAAAAAAACCAAAAAAAAACCAAAAAAAAACCAAAAAAAAACCAAAAAAAAACCAAAAAAAAACCAAAAAAAAACCAAAAAAAAACCAAAAAA'
p159
aF1.0
aa(lp160
S'7 multiloop'
p161
aS'CUAUUGCCUUUAUAGGCAGCAGGGAAACUUGUUUAGCUAAUGUUGAGUAUAAAAAUGUAAAUAAUUAAUCUGAAGUGUCAAAGGAUACAGAG'
p162
aF0.9782608695652174
aa(lp163
S'Kyurem 7'
p164
aS'AAAAAGGUACAGGGUUAAUACGGACAAAAUUCAGCGUUAAAUGUGAGUGCGCUAAAAUGCGAAAGGCAGCGGUCCUGAGCACGAAAAAAAAAAAAAAAAAAA'
p165
aF0.9411764705882353
aa(lp166
S'JF1'
p167
aS'GACACACACACACACAUGAGACAUAAAUGACACCAAGACACAAAGACACUUGACACCACACAAACACACACCAAAAGGUGUGUGUUUGUGAAGACAAAAGUCGCACACACACAAAAGUGUGUGUGAACACGCAAAAGUGUGAGGUGUCUGUGUCAGUGUCGGGUGUCUAAUGGACACCAAAAAGGUAGUCCGGAGACAUACGCACACACACAAACACCAAAAGGUGUUUGUGUGUGAUGUGUAUGUCAAAGAUUCAAAAAGGAGUCCACACACGCUAAAAGGCGUGUGUGCAACAUUUAAUAGUGAAGUGUCGAAUGUGACUCCAGACAGCCAAAAGGCGUCGGGGAGACACACAUAAAGAUGUGAUGUCAGUGUAGUGAUGUCAAA'
p168
aF1.0
aa(lp169
S'multilooping fun'
p170
aS'UGGCGCUAGGAAAUGACAAAUGGAACACAAAAGACG'
p171
aF0.8333333333333334
aa(lp172
S'Multiloop...'
p173
aS'CAUGAGAUUAGCGAAAGCGCAUUCAAAGGAAGGGUAAAAGAUUGACAAAAGUCGAGAAAAGUCCAGUCGAAAGAUGAUUAAGAUAUAAAAAAAUGUCUUCGAAAGAGUGUG'
p174
aF0.9459459459459459
aa(lp175
S'hard Y'
p176
aS'AAAAGGGGGGACGACGCACCUAAUGGUGUGUCCACGGCACGCACUAAAGGGUGUGUGUCGACAAAAAA'
p177
aF0.9705882352941176
aa(lp178
S'Mat - Elements & Sections'
p179
aS'AAAAUCUUCACUAAGAUACGAACAAGCUGGAGAUGGCUGCACAAAAGUCAAACCGUACACAAUUUAACUGCGUGGCGAUGCGAAGUAAAAAAAAAAAAAAAAAAA'
p180
aF0.9619047619047619
aa(lp181
S'Chicken feet'
p182
aS'AAAAACCAGAUGCAAAGCGUGUAUUGAAUACCGGGGAGCGAUAAAACAGCGGAGCUAGGCCAAAAAA'
p183
aF0.8805970149253731
aa(lp184
S'Bug 18'
p185
aS'AUAAGCUACACCGAUCUCGGAGCUAUGCGAGCUCAUGGAAGUAUACAAAGGAA'
p186
aF0.9245283018867925
aa(lp187
S'Fractal star x5'
p188
aS'AAAAACUUCCCACAAUUUGGAAACGAGCAUCACAAAGGUGCUACUCCAAAAGGAGCAAACCAAAGGUGGAGGUGGGGAGAAAAUAACAGCCCAAAAGGGAAAUCUUAACGCGAAAACGCGGACUCGAAAAUGGGAAGAUGAAAGUAUUAAGGGUUGUUUAAAGUGGAUACCAACCGCAAAAGCCCAACGGAAAAGUCCGAUGUUCAAAAGAACUGCCCAAAAAUGGCAAGGUAUUUAAAAAAGCGACACGAACUGCAAAAGCGGAAUACGUAAUCGUGGACCUGAAAUCGGGAAGACCAAAAGGUCAGCGUGUCGUAAAAAGAAGUACUAGCUCCAAAAGGAGAGCAGGUAAUCGGGGGUGGUAAAAGUUGAUCAUUUAACACUGAGGGUGUUUCAAAAA'
p189
aF0.955
aa(lp190
S'Crop circle 2'
p191
aS'GGGAUAGAAAACUAAAAGGGAAAAAAAAACGUAAAAAAAAAAAAAAAAAAAAAAAAAAAAUCGAAAAAAAAAAAAAAGACAAAAAAAAGAGAAAAAAGCUUAAACUAAAA'
p192
aF0.9454545454545454
aa(lp193
S'Branching Loop'
p194
aS'ACGCUGGAAAAAAACGGUCUAAUGAUCAGAGCGAAAAAAA'
p195
aF1.0
aa(lp196
S'Bug 38'
p197
aS'AGGAUGAGGAAGCAUAAAAGGGCCUACAGAAAAUUG'
p198
aF0.9444444444444444
aa(lp199
S'Simple Single Bond'
p200
aS'AAAAAAGAAAAAAAAUGUGCAAAAAGUAUUAAAAAAAGCAAAAAAAAAAAAAAAAAAAAAA'
p201
aF1.0
aa(lp202
S'Taraxacum officinale'
p203
aS'GGCCAAAAGAGCCACACCGAAAGAGUGACACCAAAAGAGAGGCAGCGAAAGGAGGACACCAAAGGAGUGGAGCCAAAAGAGUCGCACACAUACACGACACACACACAAAGUGUCGUGUGUCAGACACAACACAGAUAGGAAGAAACACGAAGUGUUUCAUUUGUUUGUGGAUCAGACAGCGAAGCUGUCGGUCGUGUCAAAUUGUGUGUGGGAGAUCGAAAGAAUCGAACCAAAAGAGUCACACCUAAUGAUUGACACCGAAAGAGUGGCACGAAAAGAGUG'
p204
aF0.8723404255319149
aa(lp205
S'Headless Bug on Windshield'
p206
aS'AGUGGCUAAAAGACUGAAAACUGUGAAAAAAAAAAAAAAAAAAAAAAAAACACUGUAAAUGGACUCAUGAAACGCUCGAAAGAAGGAAAAAAGGCAAAGGCAAAAAAACCCUAAAAAAAAACAAAGUCGAAAAAGCACAAGCAACACCCUCAUACAAAAAAAAAAAAAAAGUAGAGAAAGUGUGACAGUGAAGAAAUUUA'
p207
aF0.955
aa(lp208
S'Pokeball'
p209
aS'AAAGACACCCAAAAUCGAGCAAGACGAGCUCGCGAACAAGACCGCAACCAAAGAAGCAAUCAGUAGUAUGCAGUCAGCAGAGGGUGUUGAAAAAAAUCCGCACCAAAGCGAGCCAGCGGAGCGCUCAACCAAGCACGGAAACAAAGUGGUAGACAGGAGAAAACGCGCAGCGGCGUGCGGGAAA'
p210
aF0.967391304347826
aa(lp211
S'Variation of a crop circle'
p212
aS'AAAAACAAAGGGGCAAGAUAAGGCAACCACGCUAUGCAAGCAAAAUCAAAAAUGCAAAAAACCCAAAAAAAAAGUAAAAAAAAAAAAA'
p213
aF0.9545454545454546
aa(lp214
S'Loop next to a Multiloop'
p215
aS'AUGAGACACGAAAAAAAGGGACAGCAAAGGUUGUCAGAUCCAGAAAGUUGGGUCACAAAAAAACGUGUUUCUA'
p216
aF0.9726027397260274
aa(lp217
S'Snowflake 4'
p218
aS'GGCCAAAGGCGCACAGCAGAAAGGGACUCAAGGCAGGUAAAAGCCUUAGACCCAAUGGGUUACGUCAAAGAUGCUAGGGCAAAAGGUUGCCGAGAUACCUUAAUAAUAAACGAAGGACUGUGAAGACCAAAAGUUGUGUAGUUAAUGGGUGUCGAGCCAGCCAAAAGGCAGUCCACCAAAGGUGAACAGGAAGUUUAGACUGCCAAAAGGUUGGCAAGACAGCGGAAAUGCACGCACCAAAUCGGGAACGCAAACUGUGGCGUGUCAAAAGACUGUCAAGAUACACAAAGGUUGUACGAGCAAAGCUUAAUACAAAAUGUAGUACACCAAAGCGCUAUCAUGAGUCGCAAAAGCUUGUGAGCCAAAGGCC'
p219
aF0.8351351351351352
aa(lp220
S'Mat - Cuboid'
p221
aS'GAGGGAAAAGCAAGCAAAAGGAAGCAAAAGAAGCAAGCAAAAGUAAGGGAGUAAAAGAAGGAAGAAAGCAAAAGGGAGGAAGGAAGCAAAAGCAAGGAAGGAAGCAUUCAAAAGUUCCCGCCCCCCCCCCCAAAAGCCGCGCCCCCACCCACCCCGCAAAAGGCCCCCCACCCCCCCCCCCCCAAAAGCAUCCCCCCCCUGCCCCCCCGAAAAAAUGAAGGAACGAAGGAAGGUGGCGGAAGGAAGGAAGGAAGGAAUCGCAAGAGAGGAAGGAAUGAAGCGGAAGGAAGGAAGGAAGAGCUAGCCAGCCAGCCAGCGCGAGCCAGCCAGAACCAGUCAGACAGGCGAUCCAGCGCCAGCGACGCCACCGCCAGCCAAAU'
p222
aF0.8789473684210526
aa(lp223
S'Misfolded Aptamer 6'
p224
aS'AAAAAAGGCAAAAAAUACCUGCAAAGGACAAAAAAAAGUCAAAGGAAAAUGGUGGAAAAAAGUCGAAAAAAAAAA'
p225
aF1.0
aa(lp226
S'Snowflake 3'
p227
aS'GACGCAAAAGCAGACCACAAAAGUGAAGUACAAUCCAAGGCAAAAGCCCACACCAAAAGGGACGAAGUUCCAAAAGGAGUGCACAAAAAUGAAGUACAGACCAAGACAAAGGUUCACAGUAAAAACCAGCAAUGGUCAAAAGGAGUGGUCAAAAGGCAAGGUCACACCAAGACGAAGGUCCACAGCAAAAGUCACAAAGUGGCAAAAGCAGUGCACUAAUCUGAAGGUCAGAUCAAUACAAAAGUACGCAACAAAAAUCGGAAACUGUCAAAAGGAGCGCACAAAAGUGAAGAUCGGACCAAGACAAAAGUCCUUAUCAAAAGACGCAAAGCGCCAAAGGGAAGGCAUAAAAAUGAAGGUUAGGGCAAGAUAAAGAUCGUCGCGAAAAUGGUC'
p228
aF0.821882951653944
aa(lp229
S'Hard Y and a bit more'
p230
aS'AAAAAGAGCACAAAACACGAAAGUGUACCGGACACGGCUGGACGAAAAUGUCAAGGCAAAAAAAGUUGUCGUGCAGUGUAUGGUCAAAAAAAAAAAAAAAAAAAAA'
p231
aF0.9716981132075472
aa(lp232
S'Mat - Lot 2-2 B'
p233
aS'GAAGAGCCCACCUCGCAAAAGCGACUCGAAAACGAAAAGGGAGCGGAUGGAAAAUGCACACGAGGGAAGACCCCCCCCGGAAAACCCUGACCCCGCAAAAAGAAAAUCGUAAGGAAAAUCAAGGAGAAGAGCCCGGAACCAAAAGAUCUCCAGCCCCCAAAAACACGAUCGAAAGAAAAAUUAGCUGGAAGCAAAAUGAUGAUCAAGUAAGUAAUCCCCCCCAAAACCCCCACCCCCCAAAAGAAAAAGUGCAAGGAAAAUCGAGCGGAAGGCCCAGGAACCAU'
p234
aF0.8415492957746479
aa(lp235
S'Shapes and Energy'
p236
aS'AAAAAAGUUAACGGUCCAUAAGGAAGCCGGCGAAAGACGGCGAACGGACAAGGAAAAUUCACGAAUGCGUGCCGGUUAUCGAAAAAAAAAAAAAAAAAAAA'
p237
aF1.0
aa(lp238
S"Spiral of 5's"
p239
aS'GAAAAGACACAAAGACACAAAGACACAAAUGACAGAAAGACUCAAAGACACAAGACAGAAAUGACACAAAGACAUAAAGACACAAGACACAAAGACGCAAAGACACUAGACACAAAGACACAAGACAUAAGACACAAGUCACAAGACACAGACACAGACAGUGCCCAAAAAGGGCAGGGGGCUGUAAAAAAGUGUCAAAAAGUGACAAAAAGUCAAAAAAAGUCUCCAAAAAUGUCAAAAAGUGUCAAAAAGUGUCAAAAUGUGUCAAAAAGUGUCAAAAAGUGUCAAAAAGUGUCAAAAAAUGUCAAAAAGCGUCUAAAACUGUCAAAAAGUGUCAAAAAGGGUCAAAAAUUGUCUAAAAGUGUCGAAAAGUGUCGAAAAGUGUCGAAAACAAAAA'
p240
aF0.9949622166246851
aa(lp241
S'Campfire'
p242
aS'AAAAGACCACGACACAAGCCCAACAGAAAAAGUUAGGACACAUAAUGUAGUCGGGCCUCACCAAGAGCAGAGCUAAAAGGACAUGCGUGAGACGUGACCAGCUAAUGCAAUAUAUGAGUCGAAAGGGGCAGUCAAAGAUUUGGUCGGGGUGUUCUAAGUCAGGCAGUCCUAAUGGGCGCGGACGACUAAACAAGAGUAUGAGUCAUAGGGUU'
p243
aF0.9292452830188679
aa(lp244
S'Anemone'
p245
aS'AAACCCAGCAAAGGUUGGGCUGACGAAAGUCAGGCUUGCAAAAGUAAGUGCUAUAAAGAUAGUUACGGCAAAAGCUGUGGACAGGAAACUGUCGAAACGAAAGUUUCGACUCCAAAGGGAGUCAUAUACGAAAGUAUAGAGAGCAAAAGUUCUCCAAUCAAAGGAUUGGUCACCAAAGGGUGACGACACGAAAGUGUCGACACUGAAAAGUGUC'
p246
aF1.0
aa(lp247
S'Fractal 3'
p248
aS'AAAAUGAUUAGUAACCUAAUGGAGGAAACAGGAUAGACAACAAAGGUGGAAAGCCGGCCAGCCGGGAAAACGCCGAAAGGUUGCGGUCAAGAAAACUUUGAAAGAAGUCAAGUAUAAAA'
p249
aF0.9327731092436975
aa(lp250
S'Kyurem 5'
p251
aS'AAAAAGAGGGUGGGCAAAUGUCUGGAAAAGACGGAUCAAAGUGUAAAUUGCGAUCGACUAAAAUUUCACGUACCCCACAACAUUGAAAAAAAAAAAAAAAAAAA'
p252
aF0.9807692307692307
aa(lp253
S'Snowflake Necklace ( or v2.0 )'
p254
aS'GGCACACAGACGCACAGACUAACCAAAAAGUGGCAAAAAGCAUCAAAAAGGAGCUAAAUGUACGAAAAACGAUAAUCUGAGAAAAACUCUGAGGCACCAAAAAGAAACAAAAAGUACGAAAAACGACGAAAAACGACCAAAAAGGAGUGUCAUCUAAAAAAGAAUACCCAUUUAAAUGAACUAAAAAGGAGCAAAAAGUAUCAAAAAGGACCAAAAACCAGGAAGAGGCAAAAGGCCACUCACACCAAAAAGGAUGAAAAACAACCAAAAAGGAACAAAAAGUACCAAAAAGGGGUGGCAGACAAAAAGUCACCCGAACGAAAAAUGAACAAAAAGGUCCAAAAACGACCAAAAAGGAGGAAAAGCCAUUGGGAGUGUGUCUGUGUGUC'
p255
aF0.8817480719794345
aa(lp256
S'Methaqualone C16H14N2O Structural Representation'
p257
aS'AAAAAAAGAUCAGACCGGACAGGCAAAAGCCAGACAAACAAAGGUCGGCCAAACAAAAGUGGGGCGCACAAAAGUGACACGAAAAAAGUGAGUCAGGCAGUCAGGCAGAAACAGGUCAGCCCAAAGCACACAAACCAAAGGAAAAAAAAGUGAGAGACACAAAAAAGCACAAAAGUGCGCAAAAGUGAUCAGCAAACAGUACAAAGAGUCAGCCGCACAUACACGCAAAAGACAAAAGUCGGUGAGAUGAAAAUUAGUAAGCCAAAAGGCGGUGAGACUAAUGUCAGGCAUGAUAAAAAAUGACGCGAAAGUGAUGUAAAAGUAUUGAGGCAGCGCAAAGGUCAGAUCAAAAAAA'
p258
aF0.9211267605633803
aa(lp259
S"Cat's Toy 2"
p260
aS'AAAAGACCCAUCAAAAGGUAGUAAAAAAAAAAAAAAAAAUUAGGCGAAUCUAAUGAAAACAGAAAUGAAAAAAAAGAAAAAAUGCGGUGGGUCAAAA'
p261
aF0.9587628865979382
aa(lp262
S'Zigzag Semicircle'
p263
aS'AAAACUCACGCCAUAAAAUCAGUCAGUGAGGUAA'
p264
aF0.9411764705882353
aa(lp265
S'Short String 4'
p266
aS'AAAAAAGAACAAUGCAGCUAGUUACAAGAAAAUAAAUAAAAACACGUUCAGAAAUGAUAGCAGAAUCGGUUACUUCAAAAAAAAAAAAAAAAAAAAA'
p267
aF0.9381443298969072
aa(lp268
S'Gladius'
p269
aS'GGAAACAAGGAAACAAGCGAAGGAAAUAAGACAGACAAAAAUCAAAAGAUUGGACACGAUAGACAACAGACCAAAAUACCAAGAGACACACCAGAGACCAGACAAGGGCCAGACCAAUACCAAAGGUAAGGUACGGUCUAUGUCGAGUCUCGAGUGUGUCAACAGGUGAAUAGGUCAAGAGUCAAAAGUGUCGGUCAAAGAUAGCGCCACAAGACAGGAGACCAGUAGACCAAAUAACACACACAACACGGACUCGAACAAUAGACAGACACCGAAAGGUGUCAAGUCGAUUGUAAGGGUAAGUGUUAGGUGUGUUUUAAGGUCAUAAGGUCACGCGUCGCAAGGCGCAGCCCAAAAGGGCAAAGUCAGUCAACUAACAUAAGAAAGCAAACAAGAAAAC'
p270
aF0.895
aa(lp271
S'Thunderbolt'
p272
aS'AAAAGAUUCAAAAAAAUGUGGAAUAAUCUGCACGAAAGGGACGCUCCGAAAGUAAACUAAAAAGGAUCAAAAAGAUCAAAAAAAGAAAGCCCGCAAAAAAAGGAGAAAAAAUGAUAAGACCCGGAAAAGAAAAUAGACUAAAAUGAGAAAAACCACCUUAAAAUGAGAGAAAAAUUCUGGCGAAAGAAAAAAACAGCAGCAAAGCGGCAGGAAAAAACAAACGCCAAAAAAAGAGUCAAGGGUUCACCAAAGGUGAAACGAAGCAAAAAAAAAAAGCAAGCAUAAAAAAAACCGAAAAAGCACUCCAAAAGGGAAAAAAACAAAAAGGAGUGAAUAAUAAAGCAGUGUCAAAAAAAUAGUGCACCUCUAAAACAAAAAAAGAGAGUCGAUUA'
p273
aF0.951530612244898
aa(lp274
S'Mutated chicken feet'
p275
aS'AAAAAAUUAGGCGACUAUGGAGUAAGAUAAAGCUAAGAACUAUUAAACCAAAGAAUCAAACGGCUGUAGAAGCAAGGCGUCAAAGAAAGUCAAUAAAAAA'
p276
aF0.76
aa(lp277
S'Chicken Tracks'
p278
aS'AAAAAAAAGACCCACCACCAAAAGGUGAAGACCGAAAGGUCAAGACCAAAAGGUCGUGGGUCAAGGCCGACAAAGUCGAAGACCUAUGGUCGAGCCCGAAGGGCGCCGAAUAAAAA'
p279
aF1.0
aa(lp280
S'Looking Back Again'
p281
aS'CUCGAGAACAUAAAAAAGACACCAAAGGUGUCAUGUCAAGGCCACAAGACAAGGACGUGUGACACAAAGCCCAAAAGGGCAAAAGUGUCUAGUCAAGUCACCACUGACGGAAGGACAGAAAGUUGUCAAAAAAGGCUACAGGACCUUAUAUGUCAAUACAAAGUGUUGAAAUCCGUAGCGCAAACGCAAGCCCACCAAAAGGUGUACAGAAUGAACUGGGACAAAAGUCAAGAUUUAAAAUGUUAGGUCACAGACAACAUAAAAAAGACACACAAAAAAAAUGCCAAAAAGGUAGUGUAAAGUCAGUGGGAUGAAAAAAGGCACACUAAAAGGUGUGAAGGCCCUAUGGGCACUCAAAGAGUGAAGCCCCGAAGUAUUGUUUGAAAGGG'
p282
aF0.8508997429305912
aa(lp283
S'Multilooping 6'
p284
aS'AGGCCAUCGCCUUGCAAAGAUAGGUUGGAGAAAUCUAAUGGACCCUCACGAAAGUGGGGGCGUAAAGGCGCCAGGGUGGCAA'
p285
aF0.926829268292683
aa(lp286
S'Cesspool'
p287
aS'GAAGUAUGAAAGAACAGACCGAAGAAAAAUUAAACAAGAACUAAACCCUGAAAAAAGACGCCAAAAGAAGAAAAACAAAAGAACCAAAACCCCAAGAAAACAACAACGAAGGGAAAAAUGCAACAAUAACUGAACCGUAAAAGAAAACCCCAAAAGAAGAAAAACAAAAGAAGAAGAAGCCCCAAGAAAACAAUAGCCCAGAGACAAACUCAACAAGAACUAAACCCCAAAAUAAGACCCUAAAAGAAGAAAAACGAAAGGAGAAUCAACCAACAAGAAAACAGCAGCCCACAGAAAAAGUCGAGAAGAAGUGAACCCCAAAAGAAGACACUGAAAGAGGAAAAACAAAAGAAGAGGG'
p288
aF0.7737430167597765
aa(lp289
S'Hoglafractal'
p290
aS'AGAAGCGAUGCCUAAAAGUCACAAAAAGGUGGCGGGCAAACCAAAGGCAGAAAAUGCCGGUUUUCAAGGCAAAAGCCGGAAGACAAAGACCAAAGCCCGAAAAAGGGCGGUCGUCAAGACAAAAGGUUGAUGCCGCGAAAGCGUAUUCCGAAAGCCAAGACGAAAAAGUCGACCAAGCAAAAAGCUUGACAAAAGGUUCGUACAAAAAUAAGGGAAAAAUCUGCACGAAAAGUGCAAAAGUGAGACACGAAAAAAGACUAAAAUGUCCCAAAAAGGUAUCAGACAGAAACUGUCUGUAAAAAAUGUGUCAAAAAGGUGGGUAAAAGGAGGAAAGUCAAUUCGAUAAAGAGCAGAGCUAAAGCAAAGUUGUAAAAGUAAAAUCGAGGGAGUAUGAUCGCGC'
p291
aF0.85
aa(lp292
S'Bullseye'
p293
aS'AAACAUGUCAGAAGGGCAAGACCAAAGGUUAAGCCCUUAGGGCGUCAAAAAAAAUUCGGCCGAAAGUGAAGACCAAAGGUCAAUAUUAAAGAUGGUAAAAAAAAUUACGAAGAAACUUCAAGAGAAAAUUUCAAGACCAAAGGUUGUGUAAAAAAAGUUGCCCGAAGGUUAAGAACAAAGUUCAAAAACAAAGGUUUAUGAA'
p294
aF0.8514851485148515
aa(lp295
S'Shooting Star'
p296
aS'GUGAUCUGCCGGUACACAAUGAGCUGUUAUCAAACAACAAAAGAUGUAUGGUUAACUACUUGGUGUGUCAGGUACGCAAAAAUGGUACAGAAAUAAGCAUGGUUUGGAAACCAGCCUAGUUAAUUUUCGUAACAAAAUUAAGAGAAAGAGUGCUGGCCCGCACUAAGUGCGACAGACGGAGUUAGCGUAAAAUAGAGUACAGAUAAUGCGACAGGAAGUCAUCUGAAACAGAUGAACACAGAAGCUGAGUGUGGUCUCACAAAGUUAGGCAGUCCCAAGGUAGUCGCGCCGCAACUAAAGAUCGAGGUCCGGGGAAUUUCAAGGAAAAGACUGGAGUUCACAAGAUCACAUUGCGCCGAUUGCA'
p297
aF0.7692307692307693
aa(lp298
S'Teslagon'
p299
aS'AAAAAAGGAAAAAAAACAGGAAAAAAGUCACCAAAAAAAAAAAAAAAGGAAAAAAAAAGCAAAAAAAAAAAAAAAGCAGCAAAAAAACCAGAAAAAAAACCAAAAAAAAAAAAAAAGGAAAAAAACAAAGAAAAAAAGCAUCAAAAAAAAAAAAAAAGGAAAAAAAAAGCAAAAAAAAAAAAAAAGCAUCAAAAAAACUUCAAAAAAAGUCAAAAAAAAAAAAAAAGGAAAAAAAUCAUGAAAAAAACCGGCAAAAAAAAAAAAAAACGAAAAAAAAAACAAAAAAAAAAAAAAAGUAGCAAAAAAACGAUAAAAAAAACAAAAAAAAAAAAACAAAAAAAAAAAAAAAAAGAGGGAAAAAAUAAGGAAAAAAACAAAAAAA'
p300
aF0.93717277486911
aa.