(lp0
(lp1
S'Simple Hairpin'
p2
aS'GAUACAAAAAAGUAUC'
p3
aF1.0
aa(lp4
S'Arabidopsis Thaliana 6 RNA - Difficulty Level 0'
p5
aS'GAUAUACAAAAGACAAAAAAAAAAAGUCGAUAUAUCUAGAUAUAUAUAUAUAUAUACAAAGAUACAAAAAAGUAUCAGUAUAUAGUAUAUAUAUAUCACGAUAUAUCAGGUAUAUC'
p6
aF1.0
aa(lp7
S'Prion Pseudoknot - Difficulty Level 0'
p8
aS'GAUAUCAGAUCAAAAGAUCGAUAGUCAAAAAAAAAA'
p9
aF1.0
aa(lp10
S'Human Integrated Adenovirus - Difficulty Level 0'
p11
aS'GAUAUACAUCAAUCAGAUAUCGAAAAAAAAAUGCUCGCUAGACCGGGGGUCCAGAUCAAAAGACAUAUAUAUACAAAAAAAGGUAUAUAUAUCAAAGUCGAUCUUUAAGGAGGUACAACUAGCAAAGUUAUCAAAAAAGGAUAACGAGCUAAAAAAAAAAAGAUAUCGGAUUAAAAGAUGUAAAAUAUCAAA'
p12
aF1.0
aa(lp13
S'The Gammaretrovirus Signal - Difficulty Level 0'
p14
aS'AAGAGGUCACAUCAAAAGAUGUGUUCGCGAAAAAGAUGAAGCCAGAUAAAUACAAAAGUAUUGAAAUAUCGGCCAUCAAGAUAUUUCAAAAGAGAUAUCAA'
p15
aF1.0
aa(lp16
S'Saccharomyces Cerevisiae - Difficulty Level 0'
p17
aS'GAUAUACGGGCGAAAAACAUCCCGGCAACGAUUAAAAAAAAGUAAAAGGUAGGAAAAAACUAUUGUAUAUCAAAAGACAGACAAGCGAGAAAAAAAUUGCGGCUAAAAAAAAAAAUGCCAAAACGUUCAAAAAAGGGAUGGUCUGUCGAAAGUCAGGUAGUCUCAAAAAAAGGAGAGAAAACUAAAAAUGUUUUCGAAAGAUGUUAAAAAUGCAUCGCCUGACGAAAGAGAUAUAAGCUUUAAAAAAUAAGCGAAAGCUAAAAAUGUUUUCAAAAUAUACGAAAAAAGUAUAAUAUCUCGAAUAGUAAAGAAGUUCAAAAAAAGGAGCUAUAUCUAAAAAUGAUAUAAAAAGAGGCAAAAAAAGUUUCCUUUACUUAAA'
p18
aF0.9894459102902374
aa(lp19
S'Fractal 2'
p20
aS'AAAAAGAUAUAACUAAGAUAUGUUUCUAGAGCGAAAAAAAAAGCUCAAGAGCAAAAAAAAAAGCUCGAGAUCGAAAAAAAAAGAUCGUGAGAUAUAUCGAAGUUACAUAUCUAACCUAAAAAAAAAAAGGUAUGAGCAAAAAAAAAAGCUCUAGGUCAAAAAAAAAAGACCGUGAUAUGUAACGAAGAUAGAUAAAUACAAGAAAAAAAAAACUUGAACUGUAAAAAAAAAGACGGAGGAUCAAAAAAAAAGGAUCAUUUUAUUUAUCAAUGUUAUAUCAAAAA'
p21
aF1.0
aa(lp22
S'G-C Placement'
p23
aS'GAUCAAAGAUCG'
p24
aF1.0
aa(lp25
S'The Sun'
p26
aS'UGCAGGUAAACAAAGUUUAAACCGCAAAAGGUACAGAUACAAGGAAUACCUGAACGAAACUAGACGUAUGAAAGACAAGUCAGUAAUGUCAGAUCGACAAGGUCGAAAUCGGCUAGGAGACCUUUACAAGGUAGAUGUGGUCAAGCACAGAAGGACAAAGUCCAAUUCGUGAAAGGCAGAGACACAAAGUAUAAUACCCAGAAUGCACCGCUACAAAGUAGAACGGGUGAAAGGCAGGGAUAAUAUUUAUAAUCCGCC'
p27
aF0.875968992248062
aa(lp28
S'Frog Foot'
p29
aS'AAAAAAAAAAUGCCAAAGGGUAGUAGUAAUCUACGGGCAAGGCCC'
p30
aF1.0
aa(lp31
S'InfoRNA test 16'
p32
aS'GUUAUCGCACUUUGCUAAUGCAAAUGUAGAGGUAGC'
p33
aF1.0
aa(lp34
S'Mat - Martian 2'
p35
aS'GAUGAAAACAUCAAAGAUAUACAAGAUAUACUAAAAAUGUAUAUCGUAUAUCAAUGCAUAUACAAAAAAGAUAUACAGAUAUACAAAAAAAGUAUAUCGUAUAUCAAAGAUAUAUAUAUAUCAAAAAAAGAUAUAUAGUAUAUCAAAAAAGUAUAUGCUAAGAAUAUAUAUAUACAAAAAAAGUAUAUAAAUAUAUUCAAAGAUCAAAAGAUC'
p36
aF1.0
aa(lp37
S'square'
p38
aS'GAUAUACGAGAUCGAUAUACGAUAUCAAAGAUAUCAAAAGUAUAUCAAAAGAUCUCAAAAGUAUAUC'
p39
aF1.0
aa(lp40
S'Six legd turtle 2'
p41
aS'AAAAUCAAAAGCAAAACCAAAUUAAAAGAAAACCAAAAGUAAAGAAAAGCAAAGAGAAAAUCAAGUCUAAUGGAAGUCUAAAAAAAAAAAAAAAAAAA'
p42
aF0.9387755102040817
aa(lp43
S'Small and Easy 6'
p44
aS'UUGGAAAAAGUUAAACGAAAAAAAAGAUGG'
p45
aF0.8666666666666667
aa(lp46
S'Fractile'
p47
aS'AAAAAAAAAAAAGAAAAACAACAGUUAAGAUAAUUCAAGUAAACGGAAACGAAAGUAAGUAAAAUCAAAACGACGAAAAGAGAAAUAAAAAAAAAAAAAAAAAAA'
p48
aF0.9619047619047619
aa(lp49
S'Six legd Turtle'
p50
aS'AAAAGGUAAAAGUUAAUGUAAAAUCUAAUGAAAAAUUAAAGAGGAAUUCAAAACGUAAAGGGAAACUAAAAUCAAAAGAAAAAGGAAAAAAAAAAAAAAAAAAAA'
p51
aF0.9619047619047619
aa(lp52
S'snoRNA SNORD64'
p53
aS'GAUAUCAAAAAGACAAAAGACAAAGAUACAAAAAAAAAAAAAGUAUCGAAAGUCAAGUCAAGAUAUC'
p54
aF1.0
aa(lp55
S'Chalk Outline'
p56
aS'AAAAAGCUCAGAGACAAAAGUACUCAAUCAGAGGAAAUUCGAUGGAUAUCAAAAGAUUAUCACGGGCAAAAGCCACGGAGCAAAAAAAAAAAAAAAAAAAAAAA'
p57
aF1.0
aa(lp58
S'InfoRNA bulge test 9'
p59
aS'GAUAGUUAGAGAGAGAUACACUAAUGUGUGUCCCCGACUAUU'
p60
aF1.0
aa(lp61
S'Tilted Russian Cross'
p62
aS'AAAAGAGUGGUAUAAAGAUACCUCUAUCUCAAAAGAGAGGUUAGAAAUAACUAGGGCUAAUGUCUGGUGGAGCGAAAGCUCCACUAAAAAAAAAAAAAAAAAAAA'
p63
aF0.9238095238095239
aa(lp64
S'This is ACTUALLY Small And Easy 6'
p65
aS'AAAAAAAAAAAAAAAAAAAAAAAAAAAAAAAAAAAAAAAAAAAAAAAAAAAAAAAAAAAAAAAAAAAAAAAAAAAAAAAAAAAAAAAAAAAAAAAAAAAAAAAAAAAAAAAAAAAAAAAAAAAAAAAAAAAAAAAAAAAAAAAAAAAAAAAAAAAAAAAAAAAAAAAAAAAAAAAAAAAAAAAAAAAAAAAAAAAAAAAAAAAAAAAAAAAAAAAAAAAAAAAAAAAAAAAAAAAAAAAAAAAAAAAAAAAAAAAAAAAAAAAAAAAAAAAAAAAAAAAAAAAAAAAAAAAAAAAAAAAAAAAAAAAAAAAAAAAAAAAAAAAAAAAAAAAAAAAAAAAAAAAAAAAAAAAAAAAAAAAAAAAAAAAAAAAAAAAAAAAAAAAAAAAAAAAAAAAAAAAA'
p66
aF1.0
aa(lp67
S'Shortie 4'
p68
aS'GCUAAUGCAGCGAAAGU'
p69
aF1.0
aa(lp70
S'Shape Test'
p71
aS'AAAAAGAGAUCAAGAUACAAAAAAAAGUAUCGAUACAGACAGAUACAAAAAGUAUCAGUAUGAAAAUACAGUCGUGAAGAUCGCAAAAAAAAAAAAAAAAAAAA'
p72
aF1.0
aa(lp73
S'The Minitsry'
p74
aS'GCGGAAAGUGGAAAAAUGUGAAAAGAGGAAAACCAAAAAAAAAUGGACUCAGCGGCCGACGC'
p75
aF1.0
aa(lp76
S'stickshift'
p77
aS'AAGAUAUCGCAAAAAGCAGAUAUCAA'
p78
aF1.0
aa(lp79
S'U'
p80
aS'AAAAAGAUACAGAGAGCAGAGAUAUAUACAAAAGUAUAUAUCCGCCCGUAUCAAAAA'
p81
aF1.0
aa(lp82
S'Still Life (Sunflower In A Vase)'
p83
aS'AAGGAACAUGAAACAAAAAGUUUCUAGUUGGAAAUAAACGAUAGACAAAACGUUUCAAGAGUCAAAAGCUCGAGAGGCUAAAAGUCUGGAGGUACGAAAAGUACCAGGUUUGUAUAUUUACCAAUGUACGAUACAAAAAGGUAUCAGAUAAGAAAAAAAAAAAAGUUCAAAAAAAAAAAAAAAAAAAAAAAAAAAAAAAAAAAAAAAAGGAACGAAAAAAAAAAAAUUAUCGUAUCGAAAGAUACAGUACAUUGGUAGAUAUACAGACCGAUAUAUGAAAAGGGGCAAAAGCCAAAAAGGUUCGAGAUACAAAAAGUAUUAAGCGACUAAAUGUUGCAAGGUAUAAAGGUACCGGUGAGCAAAAAGCGUAAGAUCAAA'
p84
aF0.9576719576719577
aa(lp85
S'Quasispecies 2-2 Loop Challenge'
p86
aS'AAAAGGACCGGGGGCUCUGUAAUCAGGAACUCCAGAUGGACUAUGGAUAUCAGUUUAACGAGGCUAAAUGCCGAGGGGAGCGGUUAAAAAAAAAAAAAAAAAAAA'
p87
aF1.0
aa(lp88
S'Corner bulge training'
p89
aS'AGAUAUCGAUACAAAGUAUCAAAAGAUAUCA'
p90
aF1.0
aa(lp91
S'Spiral'
p92
aS'AAAAAGAUCAGAUAUCAGACAGAUACAGAUCAGAUCAGCAGCAGCAGCAGCAGCAAAAAGCGCGCGCGCGCGAUCGAUCGUAUCGUCGAUAUCGAUCAAAAA'
p93
aF1.0
aa(lp94
S'InfoRNA bulge test'
p95
aS'AAAAAAAAAAAAAAAAAAAAAAAAAAAAACGGCAAAAAAGACUAAAUCGGCGAAGAGCGGUAACGGAGCGAAAAGCAUCAGUAUGAAGCAUCGAGGCACGUAAAGGGAUCAAAAAGGCACGA'
p96
aF1.0
aa(lp97
S'Worm 1'
p98
aS'AAAAAAAGUGUUGGGGUUCACAUGAAACUUUGGGAUCAUAGUCUU'
p99
aF0.9111111111111111
aa(lp100
S'just down to 1 bulge'
p101
aS'AAAAAGAGCAGAUACAAAAGUAUCAGACAAAAGUCAGCAUCAAAAGAUCAGACAAAAGUCAGACAAAAGUCAGAUCAAAAAAAAAAAAAAAAAAAA'
p102
aF1.0
aa(lp103
S'Iron Cross'
p104
aS'AGAUAGAGGAAGGGAGCCAAAGGCGGUCAAAAGACACCCGAAGCUAGACAAAAGUCAGACAAAGUCAGGCAAACGCAGACAAAAGUCGGGCAAAGCCAGCGAAACUCAGAUAAAGUCAAUCGA'
p105
aF1.0
aa(lp106
S'loops and stems'
p107
aS'AAAAAGAUAUACAAAGAUCAAAGAUCAAAGCUCAAAAAAAAAGAUACAAAAAAAAAAAAGUAUCAAAGAGCGAAAGAUCAAAAAAAAAAGAUCAAAGAUCAAAGACAAAAAAAAGUCAAAGAUCAAGCAAAAAAGCGAAGUAUAUCAAAAA'
p108
aF1.0
aa(lp109
S'Water Strider'
p110
aS'AAAAGAGGGGAAGCGAGAUGGAAAAUCACUAUAAUGAAAUCGGGUACUCGAGAAAACUCGAUAAAGAUUAGGGGCGACCAUUAAAAAAAAAAAAAAAAAAAAA'
p111
aF0.9029126213592233
aa(lp112
S'The Turtle(s) Move(s)'
p113
aS'AAAGGGAAAUUAAAAAAGGUAUAUAAAAAAAAAAUAUAUCUUAAAAGGUCAAAAAGACCAAAAAGCGAAAACGAGGAAACACAAAAAAAGCGUUGAAAUACAAACCAAAGGGAAAAUGUCAAAAGACUAAAGGUGCCUAAAAAUGGUACCAAAAGACAAAAGUCAAAAGUAUAUCAAAAGACAAAAAAACUCGUGAUCAAAAAAUAUCAAAGUUGGUAAAAUCCAGCGAGGAUCAAAAAUAUCAGGAUAUGAAAAAAAAAUCAAAAACGAAAAGCGAAAGCAAAAAAUUUAUAAAAAAAAAAGUAAAAAAAAAGCA'
p114
aF0.9746835443037974
aa(lp115
S'Adenine'
p116
aS'GAUACAGAUAUCAGAUAUCAGUUAUCAGAUAUAAGAUACCAAAAGAUAUGAAAAAACAUAUCAGGUAUCGGAUACAAAGAUAUACAAAGUAUAUCGUAUCAUAUAUCAGAUAUAUAUAUCGAAGAUAUAUCAAGUAUCAGAUAACAAAAGAUAUCAAAAGAUAUCAAAGGUAUC'
p117
aF1.0
aa(lp118
S'Tripod5'
p119
aS'AAGAGCGUAGAAAACCUACGGUCUAAAUGACCGCUCGA'
p120
aF1.0
aa(lp121
S'Shortie 6'
p122
aS'GCGAAAGCGGCAAAAGCAGCAAAAGCUUCGAAAGA'
p123
aF1.0
aa(lp124
S'Runner'
p125
aS'AAAAAAGGCGGAGGAAAAAGACGAAGCGUUAUCUCAAAUCCUACAGCGCGAAGAGAUAUUGGAUAUUAAAAAUAAACUUUGUGAAGGGCGAGGUCAAAAGACAGUUAGCUUAAAAA'
p126
aF0.9137931034482759
aa(lp127
S'Recoil'
p128
aS'AAAAAGAUACAAGCAAGCAAGACAAGACAAGCAAGCAAAGCAGCAGUCAGUCAGCAGCAGUAUCAAAAAAAAAAAAAAAAAAAAA'
p129
aF1.0
aa(lp130
S'[CloudBeta] An Arm and a Leg 1.0'
p131
aS'AAAAACACAGGUACAAAAGUAACCGACAGCAAAAGCGUCAGUGAAAAAAAAAAAAAAAAAAAA'
p132
aF1.0
aa(lp133
S'[CloudBeta] 5 Adjacent Stack Multi-Branch Loop'
p134
aS'GAUCCGACCGAAAGGUCGUAGCGAAAGUUACGUUCGUAAUCGAACCACGAAAGCGUGGGAUCA'
p135
aF1.0
aa(lp136
S'Triple Y'
p137
aS'AAAAAUUUCGACGGAAUAAAGAGUAUAAAUAAUUUUAUAUUGAGCGAUCUAAAGAUAGAGCUAAUGCUCGAUCGAGGACAAAAAAAAAAAAAAAAAA'
p138
aF0.9175257731958762
aa(lp139
S'Misfolded Aptamer'
p140
aS'GAUCAAAAAAGGGACAAAGUCAGCAAAAGCAAAAAAAAACCAAAAGGAUC'
p141
aF1.0
aa(lp142
S'Flower power'
p143
aS'AAAAGGAGCGUUUUAUAAACAGAUCUAUCGAUGAGGAAAGUGGAACGCUAACAAUGAAAUUGGACCAGAUUGAAAAUCUCUCAAAAAAAAAAAAAAAAAAAA'
p144
aF0.9019607843137255
aa(lp145
S'Kudzu'
p146
aS'AAAAAGAGAGUGGACACCAAAAAGAGCAAAGCCUAUUUGGUAAACAAGGUGUAGCAAGAUAAAGUCAAAGUCGCAGCGCUCAAAAAAAAAAAAAAAAAAAA'
p147
aF0.9603960396039604
aa(lp148
S'"1,2,3and4bulges"'
p149
aS'AAAAAUCAAAUCGUCGAAAGGGAAACGCGGAAAAAGUUCUUCCCAAAAAGCGUGGCGAAAACAAAGUAGGAAAAAGUUAGCAACCGAAAAAAAAAAAAAAAAAAA'
p150
aF0.9619047619047619
aa(lp151
S'medallion'
p152
aS'UAAUUCUGGUCGAAAAAUCGAUCUGAGAAAAUCGAGUCGAAAGAUGGAUAUCAAAAGAUAUCGUGUAAAAAUGAGGUAGAAAAAUUUAUCAGGAAAAAUCCAGGCGAAAGCCGGCCAUCGAAAGAUGGCGGAAAAAGGUAAGAGAGUAAAGAUUUUCAGGUGAAAGCCGAACAAAAGUCGGGUGGAAAAGUCUAUCAGUCGAAAGGCAGGUAUUGAAAGAUAUGUUGAAAAAUUCAUUCAAAAGUUUAGUGUUAAAAAAUACUUAUCAAAAGGCAGAGGUGGAAAUAUCUCGGGCAAAAGCCAGACGAAAGUCGGAUAGCAAAAGCUAUCAGAGUUA'
p153
aF0.9080118694362018
aa(lp154
S'[RNA] Repetitious Sequences 8/10'
p155
aS'AGCAAAAAAGCAAAAAAGCAAAAAAGCAAAAAAGCAAAAAAGCAAAAAAGCAAAAAAGCAAAAAAGCAAAAAAGCAAAAA'
p156
aF1.0
aa(lp157
S'Documenting repetitious behavior'
p158
aS'AAAAAAACCAAAUCCGAAGCAAAUCUGAGGAGAAUUUGAAGUAAAUCUCAAGCAAAUCUAAUGAAAAUCUGUAGCAAAACUGAAGCAAAUCUGAAGCAAAAAAAAAGGGAAAAAUCUAUAAAAAAUCUGUGAAAAAUCCUCAAAAAAUCGGCAAAAAAUCUGCAAAAAAUCUGCAAAAAAUCAGUAAAAAAUCUGUAAAAAAAAAGCAAAUCUGAAACAAAUCUGAAGCAAAUCUGAAUCAAAUCUGAAGCAAAUCUGAAGGUAAUCUGAAACAAAUCUGAAAUAAAUCUCAAUCGAAAAAAAGCAAAAAAAUCGGCAAAAAAUCUGCGAAAAAUCUUUUAAAAAUCGGCCAAAAAUCUGCAAAAAAUCAUGAAAAAAUCAGCAAAAAAUCAGGAAAAAA'
p159
aF0.8675
aa(lp160
S'7 multiloop'
p161
aS'AAGCAUUCGGAAAAGCGCGUGACAAAGGUCAUAUAGCGAAAGACAUAACCAGAAAUGGUUUCGGCGAAAGUUGAUAUAAAAAAUUAUAGUUU'
p162
aF0.8913043478260869
aa(lp163
S'Kyurem 7'
p164
aS'AAAAAUAUAGAGUACGAAAGUAGCGAAAAGGUCAGUGUAAAUCACGGGCUAGAAAACGCUAAACGCCGACCCGCCUCAUAUAAAAAAAAAAAAAAAAAAAAA'
p165
aF1.0
aa(lp166
S'JF1'
p167
aS'GAGAACUGUAUAGAGGGGGGUUAGAAAAGAUAUCAACACAUAAAGAUAUACUUUAUCAGAGAUAUAUAUAUCAAAAGAUAUAUAUAUCUCAAGACUAAUGUCGGAAAUAUACGAAAGUAUGUUUCGAGAUACGAAAGUAUCGGAUAGAAGUAUCAGUGUGGGAUAUCAAAGCCCUAUAGAAAAUAUAAGGGCAAGAUAACUUUAAAUAUAUAUAUAUCAAAAGAUAUAUAUAUAUUAUAAGGUUAUCAACGGAUCUAAAAUGAUUUGAUAAUAUACAAAAGUAUAUUAUCGUGGAAUAAAAAUUCAAUUAACAACUCUCGGAUUAGACAUAUAAAAGUAGUCAAUCGGUGAUAUUCGAAAGAAUACUCACAAUACAAGUAUUUCAAA'
p168
aF1.0
aa(lp169
S'multilooping fun'
p170
aS'CAAGAAUAAAAAAUAUGAAAAGAGAAUGAACCCGUA'
p171
aF0.8333333333333334
aa(lp172
S'Multiloop...'
p173
aS'GAGCAGAUCAGUCGAAAGGCAGGUAAAAACCAGGUGAAAACCACUCGAAAGAGGGACGAAAGUUAGCAAAAUUGCGGAUCAAGUACGAAAAAGUAUUGCCAAAAGGCGCUC'
p174
aF1.0
aa(lp175
S'hard Y'
p176
aS'AAAAGGGUGCUCGAUCCAUCUAAUGAUGGAUAUGUUAUAUACGUCGAAAGACGUAUAUACACCAAAAA'
p177
aF0.9705882352941176
aa(lp178
S'Mat - Elements & Sections'
p179
aS'AAAAAGUGCAGGAGUUGAUAAUAGAGCAGGCGAUUGAGAGUCAAAGGGCGCAGAAUCCAGGCUCCAAGGAUAUCUAAAACGGUACGAAAAAAAAAAAAAAAAAAA'
p180
aF0.9619047619047619
aa(lp181
S'Chicken feet'
p182
aS'AAAAAGUACCACUGAAACGACAAGCCGAGGGGGGUAGGGUGCAAAGCUGCGAUUCAAACUUGAAAAA'
p183
aF0.8208955223880597
aa(lp184
S'Bug 18'
p185
aS'ACCGGCUGUAGUGAGAACGAAUCAAGCAGGGGAAGAAUAAACACGCAAAAAGA'
p186
aF0.9622641509433962
aa(lp187
S'Fractal star x5'
p188
aS'AAAAGUUAUUAGGAAUAUCGAAAGAUAGGAAUCGAAAGAUUAGUAUCGAAAGAUGAGGCUAGAAAUGGCAACCUAAUGAAAAAAUCUGGGCCAAGUUCAAAAGAGCAGCAUGUAAUCAUGAGCGCCAAAUGGCGAUGGGACAAAUCCUUGGGUUCAGGACUAGGUUAUGUAAAGCUCGUAAGAGCACGGUAUAAUUACCAUGGUCAAAAGACCCACACAUAAUUGUGAAUACAUAGCAAAAAGAUUUAGCGUGAGUUAAUGCUCUAGACCAAAGGGUCAACUUCGAAAGAGGAAGCCAAAAGUGGCGAGUUAAAUCAAAAAGAUGGAGCAAUAUCAAAUGAUAGGUCCGUAAGCGGAAACAUCGAAAGAUGAUGACUAAAAGGUCUAGCUUCAUCAAAAA'
p189
aF1.0
aa(lp190
S'Crop circle 2'
p191
aS'GCGAAGGAAAAUCAAAAAUCAAAAAAAAUUUAAAAAAAAAAAAAAAAAAAAAAAAAAAAAAAAUAAAAAAAAAAAAAAUGAAAAAAAACGAAAAAAAAUAGAAAGCAAAA'
p192
aF0.9454545454545454
aa(lp193
S'Branching Loop'
p194
aS'UGACCCAAAAAAAGGAAGGGAAAUCUUAAGGUCUAAAAAA'
p195
aF0.95
aa(lp196
S'Bug 38'
p197
aS'AUGUUCUUCACGCGGAAAUAGUUGAGUGAUCAGUAG'
p198
aF0.9444444444444444
aa(lp199
S'Simple Single Bond'
p200
aS'AAAAAAGAAAAAAAAUGGUCUAAAUGACUUAAAAAAAGCGAAAAAAAAAAAAAAAAAAAAA'
p201
aF1.0
aa(lp202
S'Taraxacum officinale'
p203
aS'GAACUAAGGAUUCAGAGGAAAACAUUGAGUGCAAAAAACACGGAUAAAAAAAGAAAGCGCAAAAGCGUUGACUCAAAAGAGCAAGAUCUAUAUACGGGAUAUAACUGAAAGUUAGUAUCCCAGAUGCAAGACAUUUAUCAUGAGAUACAAAGUAUCUCUGAUAGAUGUCGAUAAGCUAUUAAAGAUAGCUGUCGUAUCGAAGUAUAUAGAUCUGAUCAAAAGCGACGGAGUAAAAGGCUCAUAUCAAAGUUGUAGAAACAAAAGAUUCAGAGCAAAAACCCC'
p204
aF0.8475177304964538
aa(lp205
S'Headless Bug on Windshield'
p206
aS'AGUACCAAAAGGUGACAAAGCGUAGAAAAAAAAAAAAAAAAAAAAAAAAAGUGAGCAAAGGCUAUAAAGCAGCAGUCAAUAGAAACAAAAAAAUAAAAAUGGAAAAAGGUGUCGAAAAAGGCUGAUAGAAAAAACAACAAGUGUGACAAGCAGACAAAAAAAAAAAAAAAGUCAGUUAGGUCCAGAAGUUAAUUAAGUUU'
p207
aF0.95
aa(lp208
S'Pokeball'
p209
aS'AAAGGUAUGCCAAAGUCGGAAAGACAAGCAUCGAGUAAAAAGUGUCAUUAAAAGGGUAAUCAAGACGUAGCUGUCAUCCGCGUAUACCGAAAAAAUGCCAAUCAAAAGAUAGCAGUAUAAUCAGGUGAGCUAACGAACAAUCAAAGGGGAGACUGGCAACAGGAGAUGAGCUUCGAAUGGCUAA'
p210
aF0.9239130434782609
aa(lp211
S'Variation of a crop circle'
p212
aS'AAAGGCUGAUAAAAAAUGAAAAUAGACUAGGAAAACUAAACAAAUUAAAAAAGCAAAAAAAACCUAAAAAAAUGUAAAAAAAAAAAAA'
p213
aF0.9545454545454546
aa(lp214
S'Loop next to a Multiloop'
p215
aS'AAGAUAUAUUAAAAAAUUAGAAAUGAAAACAUUUCAGAUGUACAAAGGUAUGUCGGUAAAAAGGAUAUAUCAA'
p216
aF0.9726027397260274
aa(lp217
S'Snowflake 4'
p218
aS'GCUCAAGGGGCGAUACGCAAAGGCUGCACAGCACACGCAAAGGUGGUACGUUCAAGGAGCAAUAGCUAUGUCGGUACCUCAAAGGGUUGGCAGGAGACGGGAAAUCAAUACUAUAAAAUAAAAAUAUAAAGGAUGGUGUUCGGAAACGGUCUGAGUAUACGCAAAAACGAUUCGAGCAAAGCUCAAGACCGAAGGUCGGGUCCAAAAAGGGUAUGAAAGUAUCCUAAUGGGAGAUGAUUAGGGAUCAAGGUCGAAUAUAAUUUCGCGAAAGCUUAUAAAGAGCCGCAAAAACGAAACGCACUAUGUGCAAGAAGGAAUUUCGUUUCGGAAAAGCGGUUCGAGUGCGGCGAAAGCGUAUCGAUCAAGGGUC'
p219
aF0.8108108108108109
aa(lp220
S'Mat - Cuboid'
p221
aS'AAAUCAAAAGAAAGUAAAAGGAAUCAAAAUAAGGAACUAAAACGACGGAAGUAAAUGAAGCAAGGAAGCAAAAUGAAGGAUAGAAGAAAAAGGAAGGAGGGAAGUUACCAAAAUUUUGCUAGGCUGCGUACAAAAGGUCUCUUUUAAUUGUGCUGGCAAAAUCUCCCUGACUGUUACACAUGUAAAAACCUGUGGGCUGGGUUGGGAGCAAAAAAGCCGUCUACCAUUCGGGCAUGUACUAGUAGACGAGAGAGGAAGAGUAUGCAGAGGGGGAAGAAUCCGUUAGCUUCCGAGCAAAAGGAUGCGACCAACCGACUGCUAUCAGCCGACGGCUGCCGAGUUACGCUACACACGAGUACCUGAGAGGUCACUGUCGAUAU'
p222
aF0.8789473684210526
aa(lp223
S'Misfolded Aptamer 6'
p224
aS'AAAAAUGAUAAAAAUGAACGAGAAAUGACAAAAAAAAGUUUAAGCGAAAAGUUCUAAAAAAGUCUAAAAAAAAAA'
p225
aF1.0
aa(lp226
S'Snowflake 3'
p227
aS'GAAGCAAAAGCAGGCGAGUAAUGUCAAGAAGAGAUCAAGACGAAAGUUGCUAGCAAAAGCGAGAAAUUCUGAAACUGGAGCGCCAAAAGGCAAGAUCAGCGCAAUAAAAAACUAUAUAGCAAAAGCUAUAAAAUGGCAAAGGAGAUGGAAAAAGGAGAAGCGCAGAUGAAUUAAAAAUUGAUUAGCAAAGGCAAAAAAAUUACGAAAGUAACUUGCGAAAGCGAGUAUCUGAACAAGGCUAAUGCCGAGCGGAAAACCGGGGAAUUCGGAAAACCUCUCGGCUAAUGUCAAAUUCUUUCCAAGGCAAAAGCCGUAACAUAAUUGGAUAAAGUCGGAAAAUCAUACUACAAAAGUCAAGGGAACUUCAACACAAAAAUCGUCAGCAAAAGCUUU'
p228
aF0.8422391857506362
aa(lp229
S'Hard Y and a bit more'
p230
aS'AAAAUAAUUCCGAAUUACUAAUUUAGCCCGGGUAUAGUGAGAAUAAAGGAUUGGCAUGGAAAAAACCAUGUAACGGUAUGGAAUCUAAAAAAAAAAAAAAAAAAAA'
p231
aF0.9716981132075472
aa(lp232
S'Mat - Lot 2-2 B'
p233
aS'AAGGACUGGAGCUUCCAAAAGUUGGAGCAAAAGCAAAAUCAAGUGGAAGCAAAAUCAAGUGGAGGUAAUCCUGCGCUUGCAAAAGGUAGCCCUGGCAAAAGGAAAACCGCAACGAAAAGCGAGCCCUUGCGUAGGGAAUAAAAAGAGCGGUAGGUUUGAAAAGCUAGAGUAAAAACAAAAUUGAGCCGAACCAAAAUAAAGUUUAAGCAAGCUACCGCUGGCAAAAGCGGCAGCGUGUAAAAGCGAAAGCACAAGCAAAAUGAAGCCCACGUACAGCCAACAAU'
p234
aF0.823943661971831
aa(lp235
S'Shapes and Energy'
p236
aS'AAAAAAGGUAUCAGAGUAAAAGAAAGACUGGGAAACAAGUCAAGCGCUCAAGGCAAAAUGUUCAAAGGAAUCCAGAUGACAAAAAAAAAAAAAAAAAAAAA'
p237
aF1.0
aa(lp238
S"Spiral of 5's"
p239
aS'UUAAGGUUAGAAAGAUAAAAAGAUACGAAAGGUACAAAGAUACAAAGAUACAAGAGACAAAAGAUGCAAAGAUGCAAAGAUACAAGAUACAAUGAUACUAUUAUUCAAGAAUCAAAGAUACAAGAUACAGGGUACAAGAUACAGUAAACACAUUCGGAUCUCUAUCAAAAAGAUAGGGGGCAGAUCAAAAAGAAUGAAAAAGUUUGAAAAAGUAUCAAAAAGUACCAAAAAGUAUCAAAAAGUAUCAAAAAGAUUCAAAAAGAAUGUAAAUGUAUCUAAAAGUAUCGAAAAGUAUCAAAAAGUAUCAAAAAGCAUCAAAAAGUUUCAAAAAGUAUCAAAAAGUAUCAAAAAGUAUCAAAAAGUAUCAAAAAUUAUCAAAAAUUAGCAAAAUGAAAAA'
p240
aF0.9949622166246851
aa(lp241
S'Campfire'
p242
aS'AAAAGAGCAAUAUACAAGUUAAAAAUUAAAAGAACUCCGAACAAGGUUGCGGGUAGACGAUCAUGAGCAAACAGGAAACUAGUUGCCCCUUUCAUGAGGAUCAAAGGGCCUUGAUCAGGUGAAAGCACGAGUCAGGGAAGGGAUACCCGUAUGGACUGGCAGUGAUCGGUAAUUCGGUGCGCCGCGUGUUCUAUGAGAAAACGCUAUCGUUU'
p243
aF0.8726415094339622
aa(lp244
S'Anemone'
p245
aS'AAAGGAUUUUCAUAAGCUCGAAGCGAAAGCUUCGCAACCUAAUGGUUGCUUUGUAAAGAUAGGCUUGUCAAAGGAUAAGGCUAGGAAAUUAGCCAUACUAAUGUGUGCUGUUCGAAAGAAUGGAGCUAUAAAAGUACCGAUAUUAAAGAAUAUCCUUCCAAAAGGAGGGAUGGCUAAUGCCAUCAAUAAAAAAGGAAUCAUAUAAAAGUAUAUG'
p246
aF0.8878504672897196
aa(lp247
S'Fractal 3'
p248
aS'AAAAGACUGUAGCUGCGAAAGCGCGAAAGCUGUAUGAAAGCAAAAGCGUAAAGACAUUCGGACGGCAAAGACCCGAAAGCAGGCAGCUGAAGAAACUGCAAAAUAAAGUUCAGUAAAAA'
p249
aF0.9243697478991597
aa(lp250
S'Kyurem 5'
p251
aS'AAAAAUGUAUUGUUGUAAUUGCGCCAAAAGAAGCGACAAAGCUAAAAGAGCGCACUAUGAAAAAGUGAGAAUACUCAAAAUAUAAAAAAAAAAAAAAAAAAAAA'
p252
aF0.9230769230769231
aa(lp253
S'Snowflake Necklace ( or v2.0 )'
p254
aS'GAUAGCUGUUUAUACAGAAAUAGUAAAAAGAAGGAAAAACCAGCAAAAAGAAGCAAAAAGCAACAAAAAGUGAUUUCAGGCAAAAAGCCAUAUAUAUCAAAAAGCAGCAAAAAACAUCAAAAAGAAGGAAAAACCAGCAAAAAGCAAUAUUUUACAAAAAAUGUGACGUAACAAAAAGUGACAAAAAGAAGCAAAAGGCAACAAAAAGUAACAAAAAGUAAGAUCUGCCAAAAAGGCUCAUAUGGCAAAAAGCAGCAAAAAGCAUCAAAAAGAAAGAAAAGCUAGUAAAAAACAACAAGAGACAAAAAGAUGGAGGGAGAAAAAAUUAUGAAAAACAAGCAAAAAGCAGCUAAAUGCAUCAAAAAGAAUUUUCAGUAUAAACAGCUGUC'
p255
aF0.897172236503856
aa(lp256
S'Methaqualone C16H14N2O Structural Representation'
p257
aS'AAAAAAAGAGCAGAUCAGACAGGCAAAAGCCAGACAGACAAAAGUCAGGCAGGCAAAAGCCAGACUUGCAAAAGCAUGACAAAAAAGGUCAGUCAGUGAGUCAGUCAGAAACAGAUCGAAUCAAAGAGGCCAAAGUAAAGCAAAAAAAAGGCAGUUAUAAAAAAUUGGACAAAGGUCGACUAAUCUCAUAUUUAAAGAUCAGAAACAGACAGACAGACAGAGAAUCAAAAGACAAAAGUCAGGCAGCCAAAAGGCACUCAGACAAAAAACAGGCUGACAAAAGUGUGUCAUAAUACAAAAGUCAUCAAAAGACAGGCAAAAGUCGUAAGUCAGAUUAAAGGUCAGUUCAAAAAAA'
p258
aF0.9042253521126761
aa(lp259
S"Cat's Toy 2"
p260
aS'AAAAGAAUUAUCCAAAACGACUAAAAAAAAAAAAAAAAAUGAACCUAAGUAAACGCGAAGAAAAGCAGAAAAAAUCGGGAAAAGUCAUGGUUCGAAA'
p261
aF0.9587628865979382
aa(lp262
S'Zigzag Semicircle'
p263
aS'AAAUUAGGCCUACGAAAAUUCUAAAGCUUAUAAA'
p264
aF0.9411764705882353
aa(lp265
S'Short String 4'
p266
aS'AAAAAAGAAGGGCAUUAUUAAUACCACCAAAAGGGGGAAGAACGUUAUGUGAAAGCUAAAAUAAAUAAGUCACCUCAAAAAAAAAAAAAAAAAAAAA'
p267
aF0.9484536082474226
aa(lp268
S'Gladius'
p269
aS'GGAAACAAGAAAUGGAAGGGGGAAAGAAGAUCAGAGAAGGACGAAAAUGUCAGAUACAAAUGACAACAGCUCAAUAGAUCUAGAGGUAUAAAAGAUAUGAUAUAGAGGUCCGAUGUUGAUCAAAGAUCUUAUACGAUCCAUAUGGGGUAUCUAUUAUACCAACUGAUCGAAAGAGCUGGGGUUUAUGGUGUCACUCAAAGACAGAAUCGUAAGACGGAAGUUCAUAUGAUAAGUUGACGUACCACUAUCACAUACAGAUAUCAGACCGAUAGUAAAAACUAUCUCGUCGCGUAUACGUAUCGGGUAGAAGUACGUCUCUAUAUCUGAGGGACACAAGUCAGAAGAUUCAGAUGAAAACAUCAAAGUCAGAUAAAGUAUACGACGAACUGAGCAAGAAAAU'
p270
aF0.905
aa(lp271
S'Thunderbolt'
p272
aS'GGAGGAUACAAAAAAAAUGGUAAGCGGAAAAUUAAAAAAGAUAUAUGAAAAAAAAAUUAUACAAGAUCAAAAAGAUCAAAAAAAGAAAACUCGUAAAAAAAGUGUAAAAAGAGACGAGUUCGCAAAAAGGAAACAUCUUAAAAUGGCAAAAGAUUGCUGAAGCUGCCACAAAAAGUCUGAUUAAUGAAAAAAAGUAUAGCAAAGCGGGACAAAAAAACUAAGAUCAAAAAAAAGUGAAAAAGGAUAUCAAAGAUAUUGGCUAACAAAAAAAAAAGGCCUGUAAAAAAAAGAUACACAAAGUGUGAUAAAAAGGAAAAAAACAAAAAAUCAUAGACGAUAAACGUAUAUCAAAAAAAACGGCUAGCAAAAAAGCAAAAAAAGGGUAUCGACCA'
p273
aF0.9107142857142857
aa(lp274
S'Mutated chicken feet'
p275
aS'AAAAAAAUCAGCUCUAAAAGUGAAAAUCUAAGCAAGGUAGCAACGAAGUAGAAAAGCAAAACGCAGCAGGAUCUAUGCACCAAGUCAAGGAGUAAAAAAA'
p276
aF0.86
aa(lp277
S'Chicken Tracks'
p278
aS'AAAAAAAUGAUAUAGUAUCAAAAGAUAAAGAUCAAAGGAUCAAGUUUGAAAGAACCUAUAUCUUGGCGGUGAAACACCAAGCUCAAAGAGCAAGCUAAAAUAGCGCCUAAAAAAAA'
p279
aF1.0
aa(lp280
S'Looking Back Again'
p281
aS'GACAAAUGGAUCGGAAUGGGAUCAAAGAUCUCUGAUAAGGAUGACAAGACAUAGACCACGGAUUCAAAGGUCAAAAGGUCAAAAGGAUCAAGUCACCCCAAGGAAGGCAAAAAUAUUCGAAAGAAUGAAAAAAGUUGAUCCGAUAAAAAUCAUCGAUACAUAGUAUCGUUAGCGCAAGUUUAAGUUUUAAUGGUCAAAAAUGACAAUUAUACGUAUGGCGACUAAUGUCAAGUUAACAAAGUAUUGUCCAAAUGAUUAUCAAAAAAGAUACAUAAAAAAAAGUUCAAAAAGAACAUAUAACAUUAGAUGGAUCAAAAAAGCGACAUUUAAUAAUGUCAACUCUCAAAGAAGAUACGAAGUAUCGAGGGGCAAAAGAUCUCAUUAAAGUU'
p282
aF0.8149100257069408
aa(lp283
S'Multilooping 6'
p284
aS'AGUCUCUCGAAAUAGAAAGCUGUGUUUAUUAAUGUAAAGCCGUGACUACUAAUGUAGUAAAAAGAAAUUUUUCGCAGAGCAA'
p285
aF0.9146341463414634
aa(lp286
S'Cesspool'
p287
aS'GAAGAAAAAAAUAAGAGAUCGGAGGCAAAGUCAACAAAAACCCGAGUUGAAAAUAACAGUGUGCAAGAGUAAAAAGAAAACAACCACAAGUUAUAUAAAAAAAGAGGAGAUAAUCAAAGGCAAAAAUGACACAAGCAGAAAACGCCAGUGUAAAAGAACAAAAAGAAAACAUUAACAAGCUUUAUGAAAACAAGACAUCAGAGAAUAUGUCAACAAGAACUCAAGUAGAAAACAACAGUAUGAAAGCUCAAAAAGAAAACAAAAAGCAAGAUGUAAGGAAAUAAGAGUAUAGAGACAAAGUUAACACCUACGGAAGUUAAAAAAAACAGUUCGAAAGAACAAAAAUAAAAAAAAAAUC'
p288
aF0.7206703910614525
aa(lp289
S'Hoglafractal'
p290
aS'AAUACAAAGUGACAAAAGAUGCAAAAAGGUAUCGUCGCAGUCAAAUAUCAAAAGGAUAGACAGGGAAUAUAAAACGCCUCAGGCAAAGAUCGAAGUUCGAAAAAGGGUCAGGCACAAGACAAAAGGUCGUGGGAGCAAAGGCUCGGAUCAAAAGCCAAUGCAAAAAAGUAGUUGAAGCAAAAAGCUCGACAAAAGACAGAUAGAAAAAGCAGCUAAAAUGCGUGAUAAAAAAUCGCAAAAGCAGAUAUCAAAAAAGACAAAAAAGUCGCUAAAUGCAAGGAUAUGGUAUCCAUAUCAAAAAAAGAUAUCAAAAAACUAUCAAAAAGAUCAAAAGACGAAUGCUGGAAGAGCAGAUCUAAAGUAAAAGCGGAAAGCCGCAAUCUAUGAUUGCGGAUCGCAC'
p291
aF0.885
aa(lp292
S'Bullseye'
p293
aS'AAAGAAGACGUAUCCUCAAGAUCUAUGUUCAAUGUCGAAGACUGUCAAAAAAAUGAGAAUAAAGGACCAAGACCAAAGAUCGAGCACUAUAUUCCUCUAAAAAAAUAGGAUCGAAGAUCAAGAUAUAUUAUCAAGAUCAAAGAUCUUGGAAAAAAAGUCGAUGAAAGGUCACGAUCAAGGAUCAAGAUUAAAGAUCAGCAAA'
p294
aF0.8811881188118812
aa(lp295
S'Shooting Star'
p296
aS'GUUAUCCCUUGAUAUAGUAAAAGUGGCAGACACUUAUCAAAGUAGAAAGGUCGGACAACUAUUUCUAUCAGAAACAGGAGUUGCAGACAGAUAGAUACAGAUCAGUAAAGAACGAUACGUACAUAUACGUCAGACAAUCAGCGAAAGCAGUUUCGGCCGAUGCUAUGGAUCAGAAGGAAACCUUCGAUGAAAAACAGGCCAAAGGAGAUCAGUACAAAGAUAUACAAAGUAUGUCGGUUACAAAGUAACGUACGAGACUCAAAGAGUUUCAGACACAAGGAGUCGAUCGUGGAAGGAAACGAAUGACCAUGGGAAGAGAUCAGCAAAAGACGAUCCUUAACAAUGUCAGGGUACACAGAUAACA'
p297
aF0.8791208791208791
aa(lp298
S'Teslagon'
p299
aS'AAAAAAUGAAAAAAAUCAGCAAAAAAACGGGCAAAAAAAAAAAAAAGGAAAACAAUAUAGGAAAAAAAAAAAAAACUCGUAAAAAAACCACCGAAAAAUUAAAAAAAAAAAAAAAAGGAAAAAAAGCAUCAAAAAAAGUAGUAAAAAAAAAAAAAAAGCAAACAAUAAGGAAAAAAAAAAAAAAACUGGCAAAAAAAGCGUAAAAAAAAUCAAAAAAAAAAAAAAAAAAAAAAAAUGAGCAAAAAAGCCGGCAAAAAAAAAAAAAAAGUCAACAAUAAUCAAAAAAAAAAAAAAAGAGGCAAAAAAAGAAAGAAAAAAAGGGAAAAAAAAAAAACUAAAAAAAAAAAAAUCCACGGAAAAAACUAGGAAAAAAACAAAAAAA'
p300
aF0.9136125654450262
aa.