(lp0
(lp1
S'Simple Hairpin'
p2
aS'GAUACAAAAAAGUAUC'
p3
aF1.0
aa(lp4
S'Arabidopsis Thaliana 6 RNA - Difficulty Level 0'
p5
aS'GAUAUAGAAAAGAGAAAAAAAAAAACUCGAUAUAUCAGGAUAUAUAUAUAGAUAUACAAAGAUACAAAAAAGUAUCAGUAUAUACUAUAUAUAUAUCAGGAUAUAUCAACUAUAUC'
p6
aF1.0
aa(lp7
S'Prion Pseudoknot - Difficulty Level 0'
p8
aS'ACAAACAGUUCUAAUGAGCGUUCUGUAAAAAAAAAA'
p9
aF1.0
aa(lp10
S'Human Integrated Adenovirus - Difficulty Level 0'
p11
aS'GAGAGGGAUCCGCCGCACAUGUAAAAAAAAAGGGGCCUAUCCAGAAAAACCCCUGUCAAAAGCGAUAGAUAUACAAAAAAAGGUAUAUCUAUAAAACGCGACAGAAAAGGGCUGAAAAGAUAGAAAAUUAUCUAAAAAUGAUAAUGUCCAAAAAAAAAAAUUAUGUGAGGUGAAAAGAUUCCUGGUCUCAAA'
p12
aF1.0
aa(lp13
S'The Gammaretrovirus Signal - Difficulty Level 0'
p14
aS'AAGAGAGGUUAUCAAAGGAUAACAACGCAAAAAAGAUCAAGACAGAUCCUGUCAAAGGACGGAAAAGAUCGUCGGUCAAGAUAUAUCAAAAGAUAUAUCAA'
p15
aF1.0
aa(lp16
S'Saccharomyces Cerevisiae - Difficulty Level 0'
p17
aS'CAUUUACGAUCAAAAAAAGGAUCAGGGAAAAAAAAAAAAAACCAAAAGAUACAAAAAAAGUAUCGUAAAUGAAAACAUCUAGACGGACAAAAAAAGGUCCCCGUAAAAAAAAAAAUCGGAAAAGAUCCUAAAAAUGGAUCCUAGAUGGAAUGUUAUAGAAAAUCGAAAAAAAGAUUAAUACCAAAAAAGGGUGUUCAAAGAUACAAAAAAGGUAUCCUAUAACUAAAGAUAUAGAAGCGCAAAAAAAAGCGCGAUAUCGAAAAAAGAUAUCAAAAGGUACAAAAAAAGUACCCUAUGUCAAAAUAUAUAGAAGAUCGAAAAAAAGAUCGAUAUCUAAAAAUGAUAUCAAAAGAUACAAAAAAAGUAUCCUAUAUGAAAA'
p18
aF1.0
aa(lp19
S'Fractal 2'
p20
aS'AAAAAGAUAUAUCAAAGAUAUAUAUUUAGAUCAAAAAAAAAAGAUCAAGGUCAAAAAAAAAAGACCAAGACCAAAAAAAAAAGGUCAUGAUAUAUAUCAAAGAAAUAUAUCAAGAUCAAAAAAAAAAGAUCAAGAUCAAAAAAAAAAGAUCAAGAGCAAAAAAAAAAGCUCAAGAUAUAUUUCAAGGUUAUAUAUCAAUCUGAAAAAAAAAACAGAAAGAUCUAAAAAAAAUGAUCAAGCUUAAAAAAAAAAGGGCAAGAUAUAUAGCAAAGAUAUAUCAAAAA'
p21
aF1.0
aa(lp22
S'G-C Placement'
p23
aS'CUACAAGGUAGA'
p24
aF1.0
aa(lp25
S'The Sun'
p26
aS'GUCAGGGAUUAUAUUAGUAACUCGACAAAGUGAGCAAGGCAAGGUAUCAUGCUACAAAGAUAGAGAUUCGAAGGAUAACUUAUCAAAAACAGAGAUUCGAAGUAUAAGUCGCCAAGAGCAGGGACUGUAUCAGUAACCCGGUAAGAACAGAGAGCUUAUAGCUAACUCGUUAAAGACAGAGAGACGAAGUUUAACUCGUCAAUUAAAGACAUUCGAAGCAUCACUGUCGUAAGACAGAGACACAAGGUGUAAUUUGUC'
p27
aF0.8604651162790697
aa(lp28
S'Frog Foot'
p29
aS'AAAAAAAAAAGGUUUAAUAACCCAUCAAAGGAUGCGACGAAGUCG'
p30
aF1.0
aa(lp31
S'InfoRNA test 16'
p32
aS'GCUAUCUCAGAUAGCAAAAGUUAUACUAGUGAUAGC'
p33
aF1.0
aa(lp34
S'Mat - Martian 2'
p35
aS'GACUAAAAGGUCAAAGAUAUACAAGAUAUACAAAAAAAGUAUAUCGUAUAUCAAAGAUAUAUCAAAAAAAAUAUACAGAUAUACAAAAAAAGUAUAUCGUAUAUUAAAGAUAUAGAUAUAUCAAAAAAAGAUAUAUACUAUAUCAAAAAAGAUAUAUCGAAGAUAUAGAUAUAUCAAAAAAAGAUAUAUAACUAUAUCAAAGAUCAAAAGAUC'
p36
aF1.0
aa(lp37
S'square'
p38
aS'GAUAUACCUAUACCUAUAUCCUAUACAAAGUAUAGAAAAGAUAUAGAAAAGUAUAGAAAAGUAUAUC'
p39
aF1.0
aa(lp40
S'Six legd turtle 2'
p41
aS'AAAAACUUAACGAAAACGAAACCCAAAGGUAAGAGAAAUCGAAGAGAAAUCGAAAAGAAAUUAAAGCAAAGCCGAUUGUAAAAAAAAAAAAAAAAAAA'
p42
aF0.9591836734693877
aa(lp43
S'Small and Easy 6'
p44
aS'GCCAUGAAAAACUAACGAAAAAAAAGAGGC'
p45
aF0.8666666666666667
aa(lp46
S'Fractile'
p47
aS'AAAAAAAAAAAUAUUAAUGUCCGUCUAAACAAAAAUGAACAAACCGAAAGGAAAGAAAGUCAAUACGAUGCAGCCAAAAUGAAAAAAAAAAAAAAAAAAAAAAAA'
p48
aF0.9619047619047619
aa(lp49
S'Six legd Turtle'
p50
aS'AAAAAGCGAAAACGAAAGUGAAUAGGAAACUUAAGCCUAAUGGAAAACUGAAAGGAAAAGCGAAAGCAAAAGAGAAAUCGAAAGCAAAAAAAAAAAAAAAAAAAA'
p51
aF1.0
aa(lp52
S'snoRNA SNORD64'
p53
aS'GAUAUCAAAAAGAGAAAAGAGAAAGAUAGAAAAAAAAAAAAACUAUCAAAACUCAACUCAAGAUAUC'
p54
aF1.0
aa(lp55
S'Chalk Outline'
p56
aS'AAAAAGAUCAGAGACAAAAGUACUCAGACAGACAAAAGUCGUCAGAUAUCAAAAGACUAUCAGGAUCAAAAGAUACCGAUCAAAAAAAAAAAAAAAAAAAAAAA'
p57
aF1.0
aa(lp58
S'InfoRNA bulge test 9'
p59
aS'GAUAUACAGAGAGAGAUAUACAAAAGUAUAUCCCCGUAUAUC'
p60
aF1.0
aa(lp61
S'Tilted Russian Cross'
p62
aS'AAAAAUAUCCUACGAAAGUUGAGACAGAGCGAAAUCUCGAGGGAAAGCCUUCAGUUAUAAUUAGCGAGAGACAAAAAUACCGAUUGAAAAAAAAAAAAAAAAAAA'
p63
aF0.9238095238095239
aa(lp64
S'This is ACTUALLY Small And Easy 6'
p65
aS'AAAAAAAAAAAAAAAAAAAAAAAAAAAAAAAAAAAAAAAAAAAAAAAAAAAAAAAAAAAAAAAAAAAAAAAAAAAAAAAAAAAAAAAAAAAAAAAAAAAAAAAAAAAAAAAAAAAAAAAAAAAAAAAAAAAAAAAAAAAAAAAAAAAAAAAAAAAAAAAAAAAAAAAAAAAAAAAAAAAAAAAAAAAAAAAAAAAAAAAAAAAAAAAAAAAAAAAAAAAAAAAAAAAAAAAAAAAAAAAAAAAAAAAAAAAAAAAAAAAAAAAAAAAAAAAAAAAAAAAAAAAAAAAAAAAAAAAAAAAAAAAAAAAAAAAAAAAAAAAAAAAAAAAAAAAAAAAAAAAAAAAAAAAAAAAAAAAAAAAAAAAAAAAAAAAAAAAAAAAAAAAAAAAAAAAAAAAAAAAA'
p66
aF1.0
aa(lp67
S'Shortie 4'
p68
aS'UGGAAACAAGGGAAACC'
p69
aF1.0
aa(lp70
S'Shape Test'
p71
aS'AAAAAGAUAGCAACAUACAAAAAAAAGUAUGGAGUUAGACUGCUACAAAAAGUAGCAGAUCAAAAGAUCUGUCGACAAGCUAACAAAAAAAAAAAAAAAAAAAA'
p72
aF1.0
aa(lp73
S'The Minitsry'
p74
aS'GGGGAACGGAGGAAAAGUAAAAAAGUAGAAAAUGUGACAAAAAACGAUACGUACACUCACCC'
p75
aF1.0
aa(lp76
S'stickshift'
p77
aS'AAGAUAUCCCAAAAAGGAGAUAUCAA'
p78
aF1.0
aa(lp79
S'U'
p80
aS'AAAAAGAUACAGAGAGCAGAGAUAUAUACAAAAGUAUAUAUCCGCCCGUAUCAAAAA'
p81
aF1.0
aa(lp82
S'Still Life (Sunflower In A Vase)'
p83
aS'AAUGAUCUCCAUUCAAAAGGAAUGUAUAUACAAGGUGUCAAGAAACAAAAGGUUUGAAGUUACAAGGUAACAAGUUACGAAAAGUAACAGAACGCGAAAAGCGUUAGAAAUAUAUUUAUAAAUAUGUACGAUUCAAAAAAGGAUCAGGCGGAAAAAAAAAAAAAGAUAGCCCCCCCCCCCCCCCCCCCCCCCCCCCCCCCCCCCCAAAAUAUCAAAAAAAAAAAAACCGUCGAUGCAAAAGCAUUAGUACAUAUUUAUAAAUAUAUUUCAAAAAACAAAAGGUAUAAAGAUGCAAAAAGUAUCAGUAAAUAAAAGGUCCCAAGAGACAAAAAGUCUUAAGCUGGAAAACGGUCAAUAUCGAAAAACGAUAUGAUCUAA'
p84
aF0.9576719576719577
aa(lp85
S'Quasispecies 2-2 Loop Challenge'
p86
aS'AAAAAGACGAAUCGAUAACAAAAGUUGGGGAUUAACAGGGCGAAGAACUGUACAUUGAGGGGACGAAAAGUCAGCAAAAUGCGUCAAAAAAAAAAAAAAAAAAAA'
p87
aF1.0
aa(lp88
S'Corner bulge training'
p89
aS'AGAUAUCGAUACAAAGUAUCAAAAGAUAUCA'
p90
aF1.0
aa(lp91
S'Spiral'
p92
aS'AAAAAGAUCAGAUAUCAGACAGAUACAGAUCAGAUCAGCAGCAGCAGCAGCAGCAAAAAGCGCGCGCGCGCGAUCGAUCGUAUCGUCGAUAUCGAUCAAAAA'
p93
aF1.0
aa(lp94
S'InfoRNA bulge test'
p95
aS'AAAAAAAAAAAAAAAAAAAAAAAAAAAACGCGCAAAAAAUGAUGAAUGACCGAAGGAGAGGGCCGGCACAAAAAGUAGCAGGACUAGCUACCAAAGGAUCUAAAAGUACAGAAAAAGCUGCU'
p96
aF1.0
aa(lp97
S'Worm 1'
p98
aS'AAAAAAACGUAUUGCUAAGCCACGAAAGAAUGUCUGAUCUGAGAG'
p99
aF0.9555555555555556
aa(lp100
S'just down to 1 bulge'
p101
aS'AAAAAGGAGAGAUACAAAAGUAUCAGACAAAAGUCACUACCAAAAGAUCAGACAAAAGUCAGACAAAAGUCAGAUCAAAAAAAAAAAAAAAAAAAA'
p102
aF1.0
aa(lp103
S'Iron Cross'
p104
aS'AGACAGAGAAAGAGACUGAAACAGAGACAAAAGUCACUCAAAGAGACUCGAAAGAGAGACAAAGUCACUCAAUGCGAAUCAAAAGAUAGACAAAGUCACGCUAACUCACUCAAAGAGAGUCAA'
p105
aF1.0
aa(lp106
S'loops and stems'
p107
aS'AAAAAGAUAUACAAAGAUCAAAGAUCAAAGCGUUAAAAAAAAGUUUGAAAAAAAAAAAGCAAGCAAUGCGCAAAAGUUCAAAAAAAAAAGAGCAAAGAUCAAACAUAAAAAAAAAUGAAAGAUCAUCCAAAAAAGGUAAGUAUAUCAAAAA'
p108
aF1.0
aa(lp109
S'Water Strider'
p110
aS'AAAACGAAUCGAUCGUAAGUCGAAACACAAAUAAUUUUGAGAAAAAGGCUUAAAAAGGAGGUAAAAAUUAGUGGCGAGUGUCAAAAAAAAAAAAAAAAAAAAA'
p111
aF0.941747572815534
aa(lp112
S'The Turtle(s) Move(s)'
p113
aS'AAAGCGAAAGUAAAAGAUUGAUAGUAAAAAAAUCUAUUGAUUAAAGGAACGAAAAGUUCAAAAAGAGAAAGCUCAAAGAUACUAAAAAUGUAUCGAAAGGGGAAGAAAAAUCAAAAAAUGGAAACGUGAAACUGAUCAAAAAAAGAUCGGAAAGCUCCAAAGAUAAAAACAAAUGAAAAGACAAAAAAAGUCAAGUCGAAAAAAAGACAAGGCUAAAAAAAGUUAGCAAAGAUGUAAAUCAUCGAUAUUUGAAAAAAAAGGAAAAAGGAAAAAGCGAAAGUAAAAAACACAAAAAAAAAAAGUGGCGAAAAAACCC'
p114
aF0.9873417721518988
aa(lp115
S'Adenine'
p116
aS'GAUACAGAUAUCAGAUAUCAGAUAUCAGAUAUCAGAUACCAAAAGAUAUCAAAAAAGAUAUCAGGUAUCAGAUACAAAGAUAUACAAAGUAUAUCGUAUCAGAUAUCAGAUAGAUAUAUCAAAGAUAUAUAAACUAUCAGAUAUCAAAAGAUAUCAAAAGAUAUCAAAAGUAUC'
p117
aF1.0
aa(lp118
S'Tripod5'
p119
aS'AAGAGCCCACUAAAUGUGGCUACGAAAAGUAGGCUCGA'
p120
aF1.0
aa(lp121
S'Shortie 6'
p122
aS'AGGAAACUGCUGAAAAGAGGGAAACCGAGGAAACU'
p123
aF1.0
aa(lp124
S'Runner'
p125
aS'AAAAAGGUCUGUAGGAAAUGGUAAAACACGACUACUAAGUGUACUUAACGAAGUUAAAACGGGCACCAAGUGUCAAGCCUUGCAAAGCUAAAGCGUAACCUCCGGCAGACCAAAAA'
p126
aF0.9482758620689655
aa(lp127
S'Recoil'
p128
aS'AAAAAGAUACAAGCAAGCAAGACAAGACAAGCAAGCAAAGCAGCAGUCAGUCAGCAGCAGUAUCAAAAAAAAAAAAAAAAAAAAA'
p129
aF1.0
aa(lp130
S'[CloudBeta] An Arm and a Leg 1.0'
p131
aS'AAAAAGACAGAGACAAAAGUACUCGACAGCAAAAGCGUCAGUCAAAAAAAAAAAAAAAAAAAA'
p132
aF1.0
aa(lp133
S'[CloudBeta] 5 Adjacent Stack Multi-Branch Loop'
p134
aS'ACUUGACUUGAAAGGGUGGAAGGAAAUUACGGCCUAUAAUUAGGCGGGUGAAAGCCCUAAGUA'
p135
aF0.9682539682539683
aa(lp136
S'Triple Y'
p137
aS'AAAAGGUUCGCUCGCUCAAAGGAGCCUAGGAAACUAGGAGUCCGCACUCGAAAGAGUCUUCUAAAGAGCGCGGGGGCAAAAAAAAAAAAAAAAAAAA'
p138
aF0.9175257731958762
aa(lp139
S'Misfolded Aptamer'
p140
aS'GAGCGAAAAAGCCUCGAAGAGAGCGAAAGCAAAAAAAAAGCGAAAAGCUC'
p141
aF1.0
aa(lp142
S'Flower power'
p143
aS'AAAAAGAGAGGUCAAAGGCUCUAACAAGGACGCUGUAAGUGUUAUAAAAAAGCUUUAUUAGUGUAAAACGCAAAGCAUGUUCGGAAAAAAAAAAAAAAAAAA'
p144
aF0.9215686274509803
aa(lp145
S'Kudzu'
p146
aS'AAAAAGACAGAUGGGACAUAUUGUAACAAAGUACACAGUCGAGUCGAAGAGUACCAAGUCAAAGGCGAAGGCACUACGGACAAAAAAAAAAAAAAAAAAAA'
p147
aF0.9603960396039604
aa(lp148
S'"1,2,3and4bulges"'
p149
aS'AAAAGAUGGGGACGAGAAAUCAAAAGUGUCAGGAAAUUGAUCGUCAAAGACCCAAAUGAAAGGAGGUAAGAUAAUUGUGGGAAAGAAAAAAAAAAAAAAAAAAAA'
p150
aF0.9047619047619048
aa(lp151
S'medallion'
p152
aS'AAGAUCACUAUACAAAAGUAUAGAGUCAAAAGAUGCCGAAAAGGGAUAGUCCAAAGGGACUAGGUCAAAGCACGCUAUCGAAAAUGAUAGAGUGAAAAUAUACUCAAAAGGGACUAUAUAAAAGUAUAGAGGCAAAAGUUACGAUAUAAAAGUAUCGGGUCAAAAGACUGUAAAAAUACUCAAUACGAAAGUAUUGGGCGUAAUGAUACCUUACAAAAGUAGGGACUCGAAAGAGGCACAAAAUAUCCUAUACAAAAGUAUAGGCUUAAAAGAGACUAUAGAAAAUUGUAGGCUCAAAAGCGAUUCAAAAGAGAUUAUUCAAAAGGAUAGAGAUUUU'
p153
aF0.8753709198813057
aa(lp154
S'[RNA] Repetitious Sequences 8/10'
p155
aS'AGCAAAAAAGCAAAAAAGCAAAAAAGCAAAAAAGCAAAAAAGCAAAAAAGCAAAAAAGCAAAAAAGCAAAAAAGCAAAAA'
p156
aF1.0
aa(lp157
S'Documenting repetitious behavior'
p158
aS'AAAAAAUAGAAAAAAAAAGUUAAAAAAAAGCAAAAAAAAAGUAAAAAAAAAUCAAAAAAAAAUAAAAAAAAAAGCGAAAAAAAGGCAAAAAAAAAGAAAAAAAAAAGCUAAAAAAAAGGAAAAAAAAAGCAAAAAAAAAGAAAAAAAAAUUCAAAAAAAAAGGAAAAAAAAUACAAAAAAAAAGCAAAAAAAAAUCUAAAAAAAUGGAAAAAAAAAGCAAAAAAAAAGCUAAAAAAAAGCAAAAAAAAAAAUAAAAAAAAGCAAAAAAAAAGCAAAAAAAAGUGAAAAAAAAUGGAAAAAAAAAUCAAAAAAAAAGCAAAAAAAAAGCAAAAAAAAAUAGAAAAAAAAGCGAAAAAAAACCGAAAAAAAGUCAAAAAAAAUACAAAAAAAAACUUAAAAA'
p159
aF0.96
aa(lp160
S'7 multiloop'
p161
aS'CGCCGCCCGGAAACGGGCCCUUCGAAAGAAGGCUUUCUAAUGAAAGGAAUCUAAUGAUUCGAGACGCAAGUUUCGUGACGAAAGUUACGGCG'
p162
aF1.0
aa(lp163
S'Kyurem 7'
p164
aS'AAAAACUUAUACGUCGAAAGACACGAAAUGCUCAAGACAAAAUAUGGGCUUGAAAAAAUAGAAAGUCGAGCCCUGUACUAGGAAAAAAAAAAAAAAAAAAAA'
p165
aF0.9803921568627451
aa(lp166
S'JF1'
p167
aS'UAUAUAGAGAGAGUUUCAAGAUAGAAAAGAUAUCAAGAUACAAAGAUACAAGAUAUCAGAUAUAUAUAUAUCAAAAGAUAUAUAUAUAUCAAGACAAAAGUCAGAUAUAUACAAAAGUAUAUAUCGAGAUACAAAAGUAUCAGAUAUCAGUAUCAGUAUCAGAUAUCAAAGAUAGAUCAAAAAGAUACUAUCAAGAUAUAUAUAGAUAUAUAUACAUCAAAAGAUGUAUAUAUAUCAUAUAUAUAUCAAAGAUACGAAAAAGUAUCGAUAUAUAUCAAAAGAUAUAUAUCAAAGAUCAAAAGAUCAACUAUCAAGGAAUAGAUCAGACAGACAAAGGUCGUCGAUCAGAUAUAUACAAAAGUAUACUAUCACUCUACUAUUAUAAAA'
p168
aF1.0
aa(lp169
S'multilooping fun'
p170
aS'ACGCAACUUUAAUAGAAAAACUCAGGAGAAAACAUC'
p171
aF0.8333333333333334
aa(lp172
S'Multiloop...'
p173
aS'UAGCAGAUCAGGAGAAAUCCAGACAAAAGUCAGUCAAACGACGGGCAAAGGCCAGGCAAAAGCCAUAGGAAACUAAGAUCAUAUACAAAAAAGUGUGGGCAAAAGCCGCUA'
p174
aF1.0
aa(lp175
S'hard Y'
p176
aS'AAAAUGAUGCGAGAUAUAUCUAAUGGUAUAUACCCGAUAUUUAUGAAAAUAUAGAUAUCCGUCUAAAA'
p177
aF0.9705882352941176
aa(lp178
S'Mat - Elements & Sections'
p179
aS'AAAAAGAUUUCGAGGACAGCAGGUAGCAGUAGAUGAGGAGGCUAAUGUCACACCAUCGACGCUGAAAACGGCUGGCAAAGUGAUCAAAAAAAAAAAAAAAAAAAA'
p180
aF0.9619047619047619
aa(lp181
S'Chicken feet'
p182
aS'AAAAAGGAGUACCUAUGGUGAAAGGCUAAACUCGAGAGCGCUAAGUCUCAGAAUGUAAUCCUAAAAA'
p183
aF0.9104477611940298
aa(lp184
S'Bug 18'
p185
aS'AGGGCCAUCGUGGACCGGACAGCAAAGCAGGUAGGACAAGGAGAGGAAAAUCG'
p186
aF1.0
aa(lp187
S'Fractal star x5'
p188
aS'AAAAAGAUCUUCGAAGCUGAAAACAGUAAGGUGGAAACAUCACCAUGAAAACGUGUACAUCGAAAGAUGAAUGGAGAUCGAAAUGAUAGUUCAACAGUAAAAGCUGAAGAUUUAAUAGUCAAGAUGAAAAUAUCAGUAUCAUAAGAUGAAGAACUAUCUAAAUGAUUUAUCAGGUUCAAAAGAGCAAUAUGAAAGCAUAAUGAUCAAAAGAUCUAGGAUAAAAGUCCAAGAUGGAUCUAAAACAUAUCUCAAGAGCGAAAGCUCGAGAGCAAAGGUUCAUUAUCAAAAGAUGUAGAUCAAAAGAUCGAGAGAUAUGAAAAGGAGCUGUGAAACUCCAAAGAGUAUGAUCAAAAGAUCUAGAUCAAAAGAUUAAGAGUAAAAGCUCAACAUAGCUCAAAAA'
p189
aF1.0
aa(lp190
S'Crop circle 2'
p191
aS'AGGAAAUGAAUGUAAAACCCUAAAAAAAAGCAAAAAAAAAAAAAAAAAAAAAAAAAAAAAAGCAAAAAAAAAAAAAAUGGAAAAAAAAGGUUAAAAAAGCAAAAUCAAAA'
p192
aF0.9636363636363636
aa(lp193
S'Branching Loop'
p194
aS'GUUAGUUAAAAGAUCGUUCGAAAGAACACUGGGAAAAAAA'
p195
aF0.95
aa(lp196
S'Bug 38'
p197
aS'AGAAUCUCCAGAGAGAAACGGUGGUUAGAAAAGUUA'
p198
aF0.9444444444444444
aa(lp199
S'Simple Single Bond'
p200
aS'AAAAAAGGAAAAAAAUGACCAAAAGGGUUUAAAAAAAACAAAAAAAAAAAAAAAAAAAAAA'
p201
aF1.0
aa(lp202
S'Taraxacum officinale'
p203
aS'GUGGGAAACAUACGAGGGGAAACACCUAGGGCGAAAGACUCUGAGGAGAGCACUCUGACCAAAGGAGUCAGAGGGAAACACUCUGUUAUAUAGACCAUAGAGAUACAAAGUAUACUUUAUGAGGUAGAAGAUAUAUUGCAAGGUAUCCAAAGGAUAUCAGUAAUAUAUCCAUCAGGUAUGAAACGUACCGAUGCUAUCAAAGUCUAUAUAACUGUGGAAAACACACAGACAAAAAAAGUCAGAGGUAAACACUCGGGGGGAAACACCCAUGGCAAAAGACCG'
p204
aF0.9787234042553191
aa(lp205
S'Headless Bug on Windshield'
p206
aS'AGUUGAAAAAAAGCCCAAAGCAUUUAAAAAAAAAAAAAAAAAAAAAAAAAAGGCGCAAAGAGACCAAAGCUGAGGCCUAGACACAGAAAAAAAUGAAAAUAAAAAAAAAGAUCAAAAAUGGCUGGGUGAAAAAAACCAAAGCAUGACCGGCGGCGAAAAAAAAAAAAAAACGCAAGCAAAUCUAGCAUUGAACAAACCCU'
p207
aF0.97
aa(lp208
S'Pokeball'
p209
aS'AAAGAUUAACAAAAGCUUAUAAGACAGGCAGACGAGCAGGCGGGGUAUCAAAGAACUAGGGAGUAGCACCCAGUCAGAUGCGUUAAUAGAAAAAAAGCAAUAUAAAAGGGAGCAAGACAGGGAUGUUGACAAGUAAGCACUUAAAGAAGCGGACGGUUGCUAGCAGUCCGCACCGUAUCGCGAA'
p210
aF0.967391304347826
aa(lp211
S'Variation of a crop circle'
p212
aS'AAAAGUGAAAUCAAAAGCAAAGACAAAGAGGUAAAGAAGGUGAAAGGAAAAAGGUAAAAAAGGGGAAAAAAAAGCAAAAAAAAAAAAA'
p213
aF0.9545454545454546
aa(lp214
S'Loop next to a Multiloop'
p215
aS'AAGAUAGAUUUAAAAAACGGAGCCCGAAAGGGUUCAGAUAUAAGAAAUUAUAUCGGGAAAAAUGAUCUAUCAA'
p216
aF1.0
aa(lp217
S'Snowflake 4'
p218
aS'GAUCUAUGUUGCUUUCGCAAAAGCUAUAGUAGAUGGGCUAAUCAGAUACGAGCAAAGCUCAAGACCAAAGGUUGUAUUGUAAAAGCCCAUCGGAAUACGCAAAGGUAAUACUUACAAAGUAGAAGCCCAAAGGGCGUAAUAUUAAUAUGUAUUAAGUUACGUAAAAACCAUACUGACAAAGUCAAAGAUCGAAGAUCGUAUGAUAAAAAUGUAGCGUGAUGCGCAAAAGCUUUUCCAACAAAGUUGAAUGUCAAAGAUAGGAAAGGGAAACCGCAUCUAGCUUGGUGAAAACGAUAGUAUCUAUGAUAAAGACCAAAGAUCCUAUCGCUAAGGCCGAGCAUCUAUGGCGAAAGCGAAGGAACCGAAGAUC'
p219
aF0.8918918918918919
aa(lp220
S'Mat - Cuboid'
p221
aS'AAAACAAAAGCAAGCAAAAGCAAGCAAAAGAAGGAAGCAAAAGCAAACAAGCAAAAGAAGUAAGCAACCAAAAGCAAGCAAGCAAGCAAAAGCAAGCAAGCAAGCUAGCAAAAUGUGGCUGGCAGGCAGUGCGACGUUGUCUGGCUGGUUGGCGUGCAAAAGCUGGCUGGCUGGUUGGCGGGCAAAAUCUGGCUGGCUGGCUGGCUGGCAAAAAAGCAAGCAAGCAAGCAAGCAAGAGCAAGCAAACAAGCAAGCAAGCGCUAGCAAGCAAGCAAGAAAGCUCAAGCAGGCAAGCAAAGGCAUGCAAGCAAGCAAGCGCAAGCAAGCAAGCGCAAGCAAGCCACGCAAGGAAGCGUAAUCGACGCAGGCGCAAGCGCAAG'
p222
aF0.8078947368421052
aa(lp223
S'Misfolded Aptamer 6'
p224
aS'AAAAAAGAGAAAAAAGCUCGAGUAAAGACAAAAAAAAGUCAAAUCGAAAAGAGCAAAAAAACUCAAAAAAAAAAA'
p225
aF1.0
aa(lp226
S'Snowflake 3'
p227
aS'GUGGCAAAAGUGGAGGACAAAAGUUAAGCUCGGAUCAAGACGAAAGUCCAGGGCAAAAGCCUCAAAGGGCCAAAAGGACGGUACAAAGGUAAAUAUCAGAGCACGUGGAAAUACUAGAGGAAAACCCAUAAAGAGCCAAAAGGACUAGGCAAAAGUCAAGAUCGGAUCGAGAUGAAAGUCGAGCGCAAAAGCGCCAAAGAUCCAAAAGGACUCGAGAAAACUCAAGAUCAGAUCAAGUCAAAAGACCAGAGCAAAAGCCUUAAAGAGCCAAAGGGAGUCAGUAAAAACCAAGAUCAGAUCAAGACAAAAGUCGAGAGCAAAAGCGUCAAAGACCCAAAGGGACUCGGCAAAAGUCAAGAUCAGAGCAAGACAAAGGUCCUCAGCAAAAGCCGC'
p228
aF0.8193384223918575
aa(lp229
S'Hard Y and a bit more'
p230
aS'AAAAGGACACGCAGCUUCGAAAGAAGACGUCUAUCAGCAGGGUCGAAAGGUCAAGAUGCGAAAAAGCAUCGGGCGGAUAGGUGUCAAAAAAAAAAAAAAAAAAAAA'
p231
aF0.9716981132075472
aa(lp232
S'Mat - Lot 2-2 B'
p233
aS'AAAUGGGAGGACUGCCAAAAGUAGAGACAAAGGGAAAUGCAGGCGCAAGGAAAACCGAUCAUAAACAAUCCUGUGCAGGGAAAAACUGGGCAUGGUAAAAACAAAAGUCCAAUGAAAACCAUGACUAAGCGCUGCUAACCAAAGGGCCUAAGAAGGCAAAAACCUGAGGGAAAACCAAAACCAUGGGGAAUUAAAACUGAGGACAACCAACCUAGAGCAUGCAAAAUCUGGGACUGCUAAAAGUAAAAAAAGAAGAAAAACGAAGGGCUCGCGCAAGUAACGGG'
p234
aF0.7605633802816901
aa(lp235
S'Shapes and Energy'
p236
aS'AAAAAAGUGGUCACUGCAAAAGAAGGAUAACUAAUGGUGUCAAGCGCAGAAGGCAAAAAAAUGGAAACAUUCCAGAUCUCAAAAAAAAAAAAAAAAAAAAA'
p237
aF1.0
aa(lp238
S"Spiral of 5's"
p239
aS'CAAAAGAUAGGAAGAUAGAAAGAUAGAAAAGAUAGGAAGAUAGAAAGACAGGAGAUAGAAAAGAUAGAAAGAUAGAAAGAUAGAAGAUAGUAAGAUAGAAAGAUAGAAGAGAGAAAGAUAGAACAUACGAGAUACAUGAUACAAGAUAUAGAUUCAGAUAGAUAUCAAAAAGAUAUAAAAACUAUCAAAAAGAAUCAAAAAAUAUCAAAAAGUAUCUAAAAGUAUCAAAAAGUAUGAAAAACUAUCAAAAACUUUCAAAAACUAUCAAAAACUAUCGAAAUCUAUCAAAAACUAUCAAAAACUAUCGAAAACUAUCAAAAACUAUCAAAAACUGUCAAAAAUUAUCAAAAACUAUCAAAAACUAUCAAAAACUAUCAAAAACUAUCAAAAAGAAAAA'
p240
aF0.9949622166246851
aa(lp241
S'Campfire'
p242
aS'AAAAGAACAAGAUAGAAUGUCAAGAAGUAAAUGAUCGAGAGUAAAACUACUCGACAGAGACCAGCAACAGAUAUGAAAAUAGUCGUGCGAGACAAUACCAGCAAAGGCGGAUGAGGAGAGGAAAUUACCCCUCAAGUACUCGAUACUCCCGUAGACAGACAUUCAGAUCGAAAGAUCGAAGUCGAAAGCCCAAAGGGACUAUUCAGUCGUUC'
p243
aF0.9009433962264151
aa(lp244
S'Anemone'
p245
aS'AAAGGGAUCGAAAGAUUUUGAGACGAAAGUCUCCAUAGGUAAUUUUAUCGAUAUGAAAGUGUCGGGAUCGAAAGGUCUCGUGUUUAAAGGCGCCUUAUGAAAACAAUGAGAAUGAAAGUUCUCCCUAGAGAAAUUUAGACACGAAACGGCGUGAGAUUUGAAAGAAUCAGCAAUAAAGGUUGUAGAUUCGAAAGAAUCCAUAUAGAAAUGUAUG'
p246
aF0.9906542056074766
aa(lp247
S'Fractal 3'
p248
aS'AAAAAGUUUAGGCCGCAAAACCCGAAAACGUUACGGGAAUAAAAAUAGGAAAGCCCGUCAGUAAGCGAAAGUAUUAAUACAUGAAGACAGCUAACGCGCAAAAGCCGGCAGAGCAAAAA'
p249
aF0.907563025210084
aa(lp250
S'Kyurem 5'
p251
aS'AAAAAACCAGAGGUAAAAAGACAAAAAUAGGCAGAUCAAAGGCAAAAAGCCGAUCUACUAAAAUGUGAGGUCUCCUUAAGUGGUAAAAAAAAAAAAAAAAAAAA'
p252
aF0.9230769230769231
aa(lp253
S'Snowflake Necklace ( or v2.0 )'
p254
aS'GAUUUAGACAUAUAGAGUUGUAUCAAAAAGGACAAAAAAUGAACAAAAAAGAAUAAAAAGUACUAAAAAGUGGCAACUGACAAAAAAUCAGAGCCAGCAAAAAGCACAAAAAAGUACCAAAAAGGAUUAAAAGCAAUCGAAAAGAGCGUACAGUCAAAAAGGCAGAACGAGGAAAAACCAGGCAAAAUGACCAAAAAGGACCUAAAUGGACCAAAAAGGAAGAUUGGAAAAAAAGUUGGAUGGAGCAAAAAGCACCGAAAAGGACUAAAAAAGAUUAAAAAGAACCAAAAAGGACUACCAUACAAAAAGUCAGAUAGAGUUAAAAGCAGCAAAAAGCUCUCAAAUAGACCAAAAAGGGCCAAAAUGGACUAUCACUAUAUGUCUAGAUC'
p255
aF0.8920308483290489
aa(lp256
S'Methaqualone C16H14N2O Structural Representation'
p257
aS'AAAAAAGGAUCAGAUCAGAAAGAGAAAACUCAGAGAAACUAGUGUUAGGUAGAAAAAAUUCAGAGAGUCAAAAGACAGACAAAAAAAGUCACUCAAGCGCUCAUUCAGAAACGGAUCAGUAGGCAGCGCUAAAGCCAAAGCAAAAAAAAGAGAGAGAGACAAAAGUCCUCAAAAGAGCUCAAAAGAGCUCAGCAAAGAUCAGAAACAGACGUAGAGAGGUUGGGACAAAAGACAAAAGUCGGUCGGACAAAAGUCACAGUGACAACAGCCUGUCAGAGAAAACUUAAUUAGAGCUCAAAAAUCUUCGAAAGAGAGAGAAAAGUCCUCAGUCGGGUCAAACUACAGAUCAAAAAAA'
p258
aF0.8676056338028169
aa(lp259
S"Cat's Toy 2"
p260
aS'AAAACAUGUGUUAAAAGCGACUAAAAAAAAAAAAAAAAAUGGAGGUAAGUUAAAACGAUUCGAAAGGCAAAAAAUCUAAUAAAGCGAUAUAUGAAAA'
p261
aF0.979381443298969
aa(lp262
S'Zigzag Semicircle'
p263
aS'AAAAGUUGACCAAGAAAUGGAUAAUUAAGUGAAA'
p264
aF0.9411764705882353
aa(lp265
S'Short String 4'
p266
aS'AAAAAAGCAGCAGCCAUUAAGCGUCAUAAAAAUCGCGAGAAAGACGGUGUGAAAGCAAUGAGCGAAAGGCAAGCGUAAAAAAAAAAAAAAAAAAAAA'
p267
aF0.9381443298969072
aa(lp268
S'Gladius'
p269
aS'GGAAACAAGAAAUCAAAGAGGAGAAGGAAGAGAUCCAAACUUCAAAAGAUAAGAUACGGAAGUCAAGGGUUCAAGUGAUGUAGAGCUAUAGGAGAUAGGCGGAAGAGAUCACGUCAAGAUCAAAGAUCGGAUAGGAUCUAUUUCCACUAUCCACUAUAGCAACGCAUCUACGGAACAACAGACGAUAGUAUCGGGAAAACGCACUAUCUUAAUACGCAAGAUCAAAACAUGAGAACGUGUACAAAUAUCAGAGGCAGAUACCAGACAGUUAUGAAAACAUAACAAGUCGAGUAUACGCCUACGAUAUAUGUACAUGAUAACAUGAUAAGAUCACAAGUGAAAUGAUAGGGAAUAAAAAACCAAAGAGGCUCGAACGACGCAACAAAGUAAACAAGAAAAC'
p270
aF0.91
aa(lp271
S'Thunderbolt'
p272
aS'GCAAUAUAUAAAAAAAACAGCAAGGCCAAAAAGAAAUCAGAUAUAUCAAAAAAAAAGCAAAAAAAGUCAAAAAGAUUAAAAAAGCAAAGCGGGCAAAAAAAACGGGAAAAACAAUAAUCAGGCAAAAAGAAAACGGGUCAAAAAGAGAAAAAGAAGCAGAAACAGCGGCAAAAACUCAGAUCAAACAAAAAACUUGGAGCUAUUCACGAAAAAAAAAGCAAGAUCAAAAAAAAGACCAAAAAGAUGUCAAAGACAUCAGCAGGAAAAAAAAAAAAGCAAGCAAAAAAAAGAUGGAAAAAGGAUACCAAAAAAGAAAAAAAUAAAAAGGUAUCAACAAUAAAGAUGUGUCAAAAAAAAGACCAAGCGUAAAAAGAAAAAAACAGUAUAAAGCA'
p273
aF0.9642857142857143
aa(lp274
S'Mutated chicken feet'
p275
aS'AAAAAAACGAUUUGUAAAACUGGAAACCUAAGACGAGCAUCGGAAAGUCGACGAAGCAAAGGGCAGAAUCAGCGAAGCAUCACGAAGAAAGCUAAAAAAA'
p276
aF0.83
aa(lp277
S'Chicken Tracks'
p278
aS'AAAAAAAACAUAUCCGUUCAAAGGAAGAUGUCUUAAUGGACUACUUCAAAGGAAGGGAUAUGAGUAAUUUAGAAGGGAAAAAUUAAAAAUUGAGAACAAAGUUCUUAAAAAAAAAA'
p279
aF0.9482758620689655
aa(lp280
S'Looking Back Again'
p281
aS'GAGAAGACGAUCAAAAAGCUCUUGAAGAGAGCAGAUCAAGACGGCAACAUAAAGUGGUGAGGUAGUAAUUCCGAAAGGGGAAAUUUAUCAAGACAAGUCAAGUUCGAGAAAAUGAUAUGAAAGUAUCUUAAAACUCAUUAGAAUACAAAGUAUCGAUGCAAAGUAUUACUAUCCCACGUGGAAGAGUUAGCAGAUUGAAAAAUCGACUGGACAAACAGGGACAAAGGUCGAGAUAGUAAAGUAUGGAACAUGUAGAGAUCGAAAAAGCCACAGAAAAAAAAGAUCAAAAAGAUCCUGUAAAGGCGGAUCGCUGAAAAAAGCGAUAUCAAAAGAUAUCAAGACGCAAAGAGCUAUCUAGGAUAGAGGUCACAAAUCGAACUAUGGAACUC'
p282
aF0.8483290488431876
aa(lp283
S'Multilooping 6'
p284
aS'AAGAAAGAUCCCGCAUAAUUGCGCUGGGCUACGGUCUUCGAGUCGGCAGAAAGAUACUGUGGAGAAAUUCACGACCUUUUGA'
p285
aF0.926829268292683
aa(lp286
S'Cesspool'
p287
aS'UCGGAAGGAAACAUGCUAGGAGAGACAAAGUCAACAACAGAGCUAACGAAAAAUAACAGAAUAAAAACGCAAAAAGAAAACAACAAGAAGUGGGAUGAAAAAAGCGGGUUGAGACAAAGGUAACGUCAAUGCAGGCGGAAAUCAACAGCAGGAAGCGACAAAAAUAAAAAAACAUCAAGCAGGAGGAAAAUUAGACAGGACAGAGGAACUCAAGAACAAGUUAACGGGGAAACAAGAGUGGAAAAGAAUGAAAAGAAAACAUCAGGCAAGCAUAUAGAAAGCAGAGAUGGAGGCACUACGUGAACAGCAAGGCAGAAGGAAAACAACGCAGGGAAACAAGAAAAAGAAAACAUUUGGU'
p288
aF0.7513966480446927
aa(lp289
S'Hoglafractal'
p290
aS'AAUAGGAACUACCAAAAGCUAAAAAAAAUUGACGAUAGAAGGAAAGCUCUAAAUGAGACCUCGACAAGACUAAUGUCGUCAUAGAAACCUCAAAGAUCAAAAAAGAUCGAACGACAAGACAAAAAGACGUCGCAUCUAAAGGGCACUCGAAAAACCAAGACGUAAAAGUCGUUGGAGCAAAAAGCGCCACAAAGGACAGAUGGGAAAAGCAGCAAAAAAGCUCGACAAAAGGAACCAAAAGGGGUUGUGGAAAAAUACUAAAAUGUGCGAAAAGCGAAAGAUAGACAAAGUUUAUCAAAAAAAUACAAUAAAAAACCAUCAAAAACGAGAAAACUCAAACCAACAAAGAGCAGAUAAAAAGCAAAAGCCUAAAAGACGAAAGGAAGUUUAGAUAUCGCAC'
p291
aF0.915
aa(lp292
S'Bullseye'
p293
aS'AAGGAGGAGCAAGGCUCAAGACCGAAGGUCAAGCUCAAAGAGCCUCAAAAAAAAGUUGAUGAACGCUGAAGAUCAAGGUCCAAUUCGGUACAAAACCAAAAAAAGGAGGGUCAAAGCUUAAGAGCAAAGUUCAACACCUAGGAUCCUCAAAAAAAAGUCGAUCUAUGAUAAAGCUGAAAUAGCAAGAUCGAAGAUCGACAAA'
p294
aF0.8811881188118812
aa(lp295
S'Shooting Star'
p296
aS'GGAUACGGUCCUAUAUUAAAGAGGGGGCGACAGGGAGGAAAACACCCACGUCACACAACUAGAAUAUAGAGGUAAGGGAGCAGAGGAGAGACAGAGACAGAUCAUUAAAGAAGGAUACGUCCAUGUACCUUAGUGGAUCAACGAAAACAAUAUCCGUCGGAACAAAGUACCAGAAACAAAGUUUCGGGGAAACAAAGACGAGCUCAGAUCAGCAGAAAGGUAUACAAAGUAUACCGGAUAUUAUAUAUCCUGCGAUUUGAUAUUUAGGUCAGUUCCGAAGGAGCGAUCAAGCAAUUAAUGGUAUAGCCUGAGGGAGAGAGCAAAAAAAGGGGAUACCUCACAACAACAAAACGUUUAGUAUUUA'
p297
aF0.8598901098901099
aa(lp298
S'Teslagon'
p299
aS'AAAAAGAGAAAAAAAUCAGCGAAAAAAGCACCGAAAAAAAAAAAAAAGGGAAAAAAAAGCAAAAAAAAAAAAAAAGCAUCAAAAAAAGAAUCAAAAAAAGGAAAAAAAAAAAAAAAUCAAAAAAAGGGAGGAAAAACUAGUCAAAAAAAAAAAAAAGGAAAAAAAAAAGCAAAAAAAAAAAAAAAGCACAAAAAAAACCAGUAAAAAAGGUAAAAAAAAAAAAAAAUCAAAAAAAGCAGAAAAAAAGGCGGCAAAAAAAAAAAAAAAGUAAAAAAAAGGCAAAAAAAAAAAAAAAGCAGUAAAAAAAGGAGCAAAAAAAGGAAAAAAAAAAAAGUAAAAAAAAAAAAAAAGCACCAAAAAAAGCAGAGAAAAAGUUAAAAAA'
p300
aF0.8952879581151832
aa.