(lp0
(lp1
S'Simple Hairpin'
p2
aS'AUAUCAAAAAAGAUAU'
p3
aF1.0
aa(lp4
S'Arabidopsis Thaliana 6 RNA - Difficulty Level 0'
p5
aS'AUAUAUCAAAUGACAAAAAAAAAAAGUCGGGGGGGCAAGGGGGGGGGGGGGGGGGGCAAAGAUACAAAAAAGUAUCAGCCCCCACCCCCCCCCCCCCGAGCCCCCCCAAGAUAUAU'
p6
aF1.0
aa(lp7
S'Prion Pseudoknot - Difficulty Level 0'
p8
aS'GAUAUCAGAUCAAAAGAUCGAUAAUCAAAAAAAAAA'
p9
aF1.0
aa(lp10
S'Human Integrated Adenovirus - Difficulty Level 0'
p11
aS'GGGGGGGGGGGGUCGGUAUACAAAAAAAAAAGGAUGCGGGUGGCAAAAAGGACAUAUAAAAGGUUAUAUAUUUCGAAAAAAAGAAAUAUAUAUCGCGCCAUAUGAAACUCCGCCAAAAGCCCGAACGGUUACAAAAAAAGUAGCCCAUCAAAAAAAAAAAGGUAUACAGACCAAAACCCCCCAAACCCCAAA'
p12
aF1.0
aa(lp13
S'The Gammaretrovirus Signal - Difficulty Level 0'
p14
aS'AAGUCAGGGAUACAAAAGUAUCCAAGUCAAAAAUGAACAAUACAGAGGCAUACAAAAGUAUGAAAACCUCGUAGUUCUAGGGGGGGCUAAUGCCCCUCCAA'
p15
aF1.0
aa(lp16
S'Saccharomyces Cerevisiae - Difficulty Level 0'
p17
aS'CCGAGACGGUUAAAAAAAAAACCAUCAAAAAAAAAAAAAAGGGGAGUGAGACCAAAAAAGUCUCGUCUCGGAAAUAGGAGACAAGAGCAAAAAAAGGUUCCGCAAAAAAAAAAAAGGCGAAAUGUGACAAAAAAAGUCACGUCUCCUUAAAGGGAAUAAAGAUCAAAAAAAGGAUCCGUCACUAAAAAUGUGGCGAAAUGGUACGAAAAAAGUAUCUAUUCCCGAAAGAUGGUCAAGAUCGAAAAAAAGAUCGGAUCAGAAAAAAUGAUCCAAAUGAUACUAAAAAUGUAUCGACUGUUGAAGGUAAUCCAUUAUCGAAAAAAAGAUACCAUACGAAAAAAGUAUGGAAAUCCAUCAAAAAAGGAUGGGGAUUACAAAA'
p18
aF0.9894459102902374
aa(lp19
S'Fractal 2'
p20
aS'AAAAAGGGGGGGCUAAGGGGGGUUGUGAACCGAAAAAAAAAAUGGUAACAGCAAAAAAAAAAGCUGGAGGCAUAAAAAAAACUGCCAAGCGGCCCCCCAAGAGUACGGGGCUGACUGAAAAAAAAAGCAGUAAUGUCGAAAAAAAAAGACGGAUACCAAAAAAAAAAGGUAGUGCCCCGUGCUAAAAGCUGGGAGCUACAUCGAAAAAAAAAGGUGAAGACCAAAAAAAAAGGGUCAAGAACAAAAAAAAAGGUUCAUGCUUCCAGCUAAUGCCCCCCUGAAAA'
p21
aF1.0
aa(lp22
S'G-C Placement'
p23
aS'GAUCAAAGAUCA'
p24
aF1.0
aa(lp25
S'The Sun'
p26
aS'GAUAGGUGUAGAAACUAUAAGCAGUCAAACACAGGCAGACUAUGUUUAAGCCGGGGUUCAAGUGGAUGCGAAGCAUAAGCCUUGUAGCGCACGCAGUCUAUGAAUAAGCCGUGAGUCAAAGGGGCACGAAGUGUAACCCUUGUAAUAUAGGUCUAGAAGCUAGAAGCCGUGAAAAACUGUGGUUCCAAGGCCAAGGAGUCAAACACAAGAAUACGAAGCAUAUCCCGUGAAACAUAGCCAGAGAAGCUCUAAGGCAUG'
p27
aF0.8992248062015504
aa(lp28
S'Frog Foot'
p29
aS'AAAAAAAAAAUACCGAAAGGUAGGACGAAAGUCCGGUCAAGGACC'
p30
aF1.0
aa(lp31
S'InfoRNA test 16'
p32
aS'AUUUACUCAUAUAUCAAAGGAUAUCAUAGUGUAAAU'
p33
aF1.0
aa(lp34
S'Mat - Martian 2'
p35
aS'GAACUAAUGUUCAAGGGCAUACAAGGGGUACAAAAAAAGUAUCCCGUAUGCCAAUGGUAUGGCAAAAAAGGGAUACAGGGAUACUAAAAAUGUAUCCCGUAUCCCGAAGGGGGGGGGGGGGCUAAAAAUGCCCCCCACCCCCCCAAAAAAGUCAUACCUAGGGUUUAUAUAUAUCAAAAAAAGAUAUAUUAAUAAACUAAAGACGUAAUUGUC'
p36
aF1.0
aa(lp37
S'square'
p38
aS'AUAUAUCCGGGGCCGGGGGCCGAGGCAAAGCCUCGAAAAGCCCCCGAAAAGCCCCGAAAAGAUAUAU'
p39
aF1.0
aa(lp40
S'Six legd turtle 2'
p41
aS'AAAAAGGAAGGCUAAUGUAAGAGAAAAUUAAUCCGAAAGGUAUCUAAAAGGUAGGAAAAAUCAAAAUAAAAGUAAACCAAAAAAAAAAAAAAAAAAAA'
p42
aF0.9591836734693877
aa(lp43
S'Small and Easy 6'
p44
aS'UUCAUAAAAGACAACGUAAAAAAAUCAGAA'
p45
aF0.8666666666666667
aa(lp46
S'Fractile'
p47
aS'AAAAAAAAAAAAUUAAAAGAAAUGAGAAUAAAAAUGGAACAAUGCAAAAUCUCGGUGAGAAAAAUUAAAUCAAUCAAAACGGAAAAAAAAAAAAAAAAAAAAAAA'
p48
aF0.9619047619047619
aa(lp49
S'Six legd Turtle'
p50
aS'AAAAGCGAAACGUAAAAACGAAACUAAACGGAAAACGAAAAUGAAAAGGGAAACCAAAAGCAAAGGUGAAAAGAAAACUAAAAGCAAAAAAAAAAAAAAAAAAAA'
p51
aF0.9619047619047619
aa(lp52
S'snoRNA SNORD64'
p53
aS'AUAUACAAAAAGACAAAAGACAAAGAUACAAAAAAAAAAAAAGUAUCAAAAGUCAAGUCAAGUAUAU'
p54
aF1.0
aa(lp55
S'Chalk Outline'
p56
aS'AAAAUUGGCGGAGAGUAAUCUACUCACGCAGACGAAAGUCGUGGAGCUACAAAAGUAAGCCAUAUUGAAAACGAAAGGCCAUAAAAAAAAAAAAAAAAAAAAAA'
p57
aF0.9807692307692307
aa(lp58
S'InfoRNA bulge test 9'
p59
aS'AAAUAUCAGAGAGAGGGAUACAAAGGUAUCCCCCCGAUAUUU'
p60
aF1.0
aa(lp61
S'Tilted Russian Cross'
p62
aS'AAAAUCGCAUUUCUAAUGAAAUAGAAAGGGUAAUCCCGGGGGGAAAGUUUUCGGAGGUUCUCCUGUGCAUCACGAAAGUGGGUGAUAAAAAAAAAAAAAAAAAAA'
p63
aF0.9238095238095239
aa(lp64
S'This is ACTUALLY Small And Easy 6'
p65
aS'AAAAAAAAAAAAAAAAAAAAAAAAAAAAAAAAAAAAAAAAAAAAAAAAAAAAAAAAAAAAAAAAAAAAAAAAAAAAAAAAAAAAAAAAAAAAAAAAAAAAAAAAAAAAAAAAAAAAAAAAAAAAAAAAAAAAAAAAAAAAAAAAAAAAAAAAAAAAAAAAAAAAAAAAAAAAAAAAAAAAAAAAAAAAAAAAAAAAAAAAAAAAAAAAAAAAAAAAAAAAAAAAAAAAAAAAAAAAAAAAAAAAAAAAAAAAAAAAAAAAAAAAAAAAAAAAAAAAAAAAAAAAAAAAAAAAAAAAAAAAAAAAAAAAAAAAAAAAAAAAAAAAAAAAAAAAAAAAAAAAAAAAAAAAAAAAAAAAAAAAAAAAAAAAAAAAAAAAAAAAAAAAAAAAAAAAAAAAAAAA'
p66
aF1.0
aa(lp67
S'Shortie 4'
p68
aS'CCUAAUGGAGCGAAAGC'
p69
aF1.0
aa(lp70
S'Shape Test'
p71
aS'AAAAUCUCAUCAAGGUACUAAAAAAUGUAUCAAGACAGACAGAUGCAAAAAGUGUCAGAAUAAAAAUUCAGUCGUCAAGAUGUGUAAAAAAAAAAAAAAAAAAA'
p72
aF1.0
aa(lp73
S'The Minitsry'
p74
aS'GUCAAAAAGAUAAAAAGUAAAAAACAGAAAACGAGGAAAAAAACUUACUGGUGCGAUCGGGC'
p75
aF1.0
aa(lp76
S'stickshift'
p77
aS'AAGGGAUCCCAAAAAGGAGAUCCCAA'
p78
aF1.0
aa(lp79
S'U'
p80
aS'AAAAAGAUACAGAGAGCAGAGGGGGGGGCAAAAGCCCCCCCCCGCCCGUAUCAAAAA'
p81
aF1.0
aa(lp82
S'Still Life (Sunflower In A Vase)'
p83
aS'AAGGAUGAAGAUGGAAAAAUCAUCAUGAUUCCAAGAAUUUGCACGCAAAAGGCGUGAACAUGCUAUGCGUGAUCAUUCAAAAAGCAUGUACAUUCUAAAUCUACGGGGGGGGGGGGAGGGGGUGUGGGCGAAGAGAAAAAUUUUCAGCUCCAAAAAAAAAAAAUGGUGUAAAAAAAAAAAAAAAAAAAAAAAAAAAAAAAAAAAAAAAUCAUCUAAAAAAAAAAAAGGGGCCAUACGAAAGUGUGAGCCCGCGCCUCUUCCCCCCCCCCAAUAGACUAAAUGGCUGAAGGUACAAAAAGUAUUAGCAAACAAAAAUUUUGAACUUACAAAAAGUAGGAAUAUAUAAAAGCAUAGACCUGCAAAAAGCGGGACAUCUAA'
p84
aF0.9735449735449735
aa(lp85
S'Quasispecies 2-2 Loop Challenge'
p86
aS'AAAAAGAUCGACCAAGAUCAAAAGAUCAAGGUCACAUAAACAAAGGGUAUGGGAACAAGAAGACAAAAAGUUGACGAGUUCGAUCAAAAAAAAAAAAAAAAAAAA'
p87
aF1.0
aa(lp88
S'Corner bulge training'
p89
aS'AGGAUACGAUACAAAGUAUCAAAAGUAUCCA'
p90
aF1.0
aa(lp91
S'Spiral'
p92
aS'AAAAAGAUCAGGAUACAGACAGAUACAGAUCAGAUCAGCAGCAGCAGCAGCAGCAAAAAGCGCGCGCGCGCGAUCGAUCGUAUCGUCGUAUCCGAUCAAAAA'
p93
aF1.0
aa(lp94
S'InfoRNA bulge test'
p95
aS'AAAAAAAAAAAAAAAAAAAAAAAAAAAAAACCCUAAAAAGGACAAAGGGCCGAACCCCAAGAGCUUACCUAAAUGGAUGUGUGUCAGGGAGGAAAGGACCAAAAAGUACCGAAAAUGGAGUG'
p96
aF1.0
aa(lp97
S'Worm 1'
p98
aS'AAAAAAACCGACUUAGUCUUUUUGAAAAAUAAUGAGCGUUGGCGG'
p99
aF0.9111111111111111
aa(lp100
S'just down to 1 bulge'
p101
aS'AAAAAGAGCAGAUACAAAAGUAUCAGACAAAAGUCAGCAUCAAAAGAUCAGACAAAAGUCAGACAAAAGUCAGAUCAAAAAAAAAAAAAAAAAAAA'
p102
aF1.0
aa(lp103
S'Iron Cross'
p104
aS'AGCUAAAAAAUUUAAUACUCUGUAUGAAAAAAUUCCCGGUAGCCCACGCGAAAGUGGGACAAAGUCAGGGAAAGAUAUGAUAAUACAUGCCCAACGUUGUCAAAAUCAGAAAAAUUCAAGCAA'
p105
aF0.943089430894309
aa(lp106
S'loops and stems'
p107
aS'AAAAAGGGAUACAAAGAUCAAAGAUCAAAGACCAAAAAAAAAAAUACAAAAAAAAAAAAGUAUUAAAGGUCAAAAGAUCAAAAAAAAAAGAUCAAAGAUCAAAGACAAAAAAAAGUCAAAGAUCAAGCAAAAAAGCAAAGUAUCCCAAAAA'
p108
aF1.0
aa(lp109
S'Water Strider'
p110
aS'AAAAAGCUUCUAGCAGCAUGCAAAAGCAUAGAAAAGAACUGAAAAACCGCUCAAAGCAGGAGAAAGCGCAGUAGCAUGGUGUGAAAAAAAAAAAAAAAAAAAA'
p111
aF0.9223300970873787
aa(lp112
S'The Turtle(s) Move(s)'
p113
aS'AAUACAACGAAUAAAUGGUGGGGCAAAAAAAAAGCCCCGCCGGAAUGAUCAAAAAGAUCUAAAUGAUAAAAGUCUAAAAUAGAAAAAAAUUAUUAAAAAACAAAUCAAAAGAAAAAAGGAAAACUCCAAAUGUAUAAAAAAAAAUUAUCCAAAACACAAAAGUGAAAAACGAUACAAAAGAGGAAAAAACUCAGCACAAAAAAAAGUGAAACAGACAAAAAGGUUUGAAAGAUCAAAAAGAUUAAGUAUCGAAAAAAAAAGGAAAAUCAAAAAGCGAAAGCCAAAUAGAGACAAAAAAAAAAGUCUCGAAAAAGUC'
p114
aF0.9746835443037974
aa(lp115
S'Adenine'
p116
aS'AUAUCAGGAUACAGGAUACAGGAUACAGGAUACAGGAUACAAAAGGAUACAAAAAAGUAUCCAGUAUCCAGAUACAAAGGGAUACAAAGUAUCCCGUAUCAGUAUCCAGGGGGGGGGGGCAAAGCCCCCCAAACCCCCAGUAUCCAAAAGUAUCCAAAAGUAUCCAAAAGAUAU'
p117
aF1.0
aa(lp118
S'Tripod5'
p119
aS'AAGACCGCCUAAAAGAGGCGAGUAAAAGGCUCGGUCGA'
p120
aF1.0
aa(lp121
S'Shortie 6'
p122
aS'GUGAAAACACGGAAACGAACGAAAGUGACGAAAGU'
p123
aF1.0
aa(lp124
S'Runner'
p125
aS'AAAAGGGGCGGGUGUAAAGGUACUAUGAGCUUACCAAAGCCGACGCCGCAUAGUGAAAGCCACUUUAGAAGAAAAAAGUAGGCAAUGACAAUGACGAAAGUUUGUCUGUCCAAAAA'
p126
aF0.9482758620689655
aa(lp127
S'Recoil'
p128
aS'AAAAAGAUACAAGCAAGCAAGACAAGACAAGCAAGCAAAGCAGCAGUCAGUCAGCAGCAGUAUCAAAAAAAAAAAAAAAAAAAAA'
p129
aF1.0
aa(lp130
S'[CloudBeta] An Arm and a Leg 1.0'
p131
aS'AAAAAGGCAGCUACAAAAGUAAGCGCCAGUAAAAACGGUAGCCAAAAAAAAAAAAAAAAAAAA'
p132
aF1.0
aa(lp133
S'[CloudBeta] 5 Adjacent Stack Multi-Branch Loop'
p134
aS'GCGUUCGGCGAAAGUCGCUAUCAAAGGAUGGUCAAUAGAGGUUGAUCCCGAAAGGGAAACGCA'
p135
aF1.0
aa(lp136
S'Triple Y'
p137
aS'AAAAAUUUGUAUCCAUGAAAACAUGGUUCUAAUGAACGAGCUGGGUACCGAAAGGUAUAACUAAUGUUCUUUCCAAGAAAAAAAAAAAAAAAAAAAA'
p138
aF0.9175257731958762
aa(lp139
S'Misfolded Aptamer'
p140
aS'GUCUUAAAAAGCGGCUAUGCCUCAGAAAUGUAAAAAAAAGCGAAAUGGAC'
p141
aF1.0
aa(lp142
S'Flower power'
p143
aS'AAAAAGAUUACCCAAAGGAUUAAACAAACUAUUGUGCUUAUCAAAGAUGUAGCGCGAAGCAUGGUUUCAUCAAAGAUGUAGCAAAAAAAAAAAAAAAAAAAA'
p144
aF0.9215686274509803
aa(lp145
S'Kudzu'
p146
aS'AAAAGGUGGAAACAUAUGCAAAACAUUAAAGAGUAUCGUGAACUCAAAGGAGUUCAGCACUAUGUGAAAAUAGCAGUACACAAAAAAAAAAAAAAAAAAAA'
p147
aF0.9801980198019802
aa(lp148
S'"1,2,3and4bulges"'
p149
aS'AAAAAGACCAAAAGCAAAGGUAAAAUUUGGCUAAAGGUAACGAUCAAAUUCGCAAAUGAAAGAAAGUGGAGGAAAUUAAACGCCAUAAAAAAAAAAAAAAAAAAA'
p150
aF0.9619047619047619
aa(lp151
S'medallion'
p152
aS'CUGGACACAGCACUAAUGUGCUGACACAAAAGUCAUCGAAAGGGGACGCCACAAAAGUGGCGACUCUAAUGGGGCUAUACAAAAGUAUAGGGGGGAAAUCCAUAAGAACUGCAGUAGACAAAUGUUUGUAGGCAAAAGCGAGGGUAUGAAAGUAUCUAAACGAAAGUCGGAUAAAAGGCACGAUACGAAAGUAUCGACUAAAAAGAGACCAUGCAAAAGCAUGGGGUAAAAGAUCGCACAAAAGUGACGAAGCAAAAGCUUUGAGACAAAAGUCACGAUAUAAAAAUAUCGACCAAAAAAUACGAGUAAAAUGGCGUUACAAAGGUAGCGAGUUCAG'
p153
aF0.8961424332344213
aa(lp154
S'[RNA] Repetitious Sequences 8/10'
p155
aS'AGCAAAAAAGCAAAAAAGCAAAAAAGCAAAAAAGCAAAAAAGCAAAAAAGCAAAAAAGCAAAAAAGCAAAAAAGCAAAAA'
p156
aF1.0
aa(lp157
S'Documenting repetitious behavior'
p158
aS'AAAAAAAGGAAAAAAAAGGUAAAAAAAAACCAAAAAAAAAGCAAAAAAAAAGCGAAAAAAAAUGAAAAAAAAAGCAAAAAAAAAGCAAAAAAAAAACAAAAAAAAAGCAAAAAAAAUGGAAAAAAAAAGCAAAAAAAAAGCAAAAAAAAAGCAAAAAAAAAGCAAAAAAAAAGCAAAAAAAAAGAAAAAAAAAACGAAAAAAAAACCAAAAAAAAAUCAAAAAAAAAGCAAAAAAAAAGCCAAAAAAAGGCAAAAAAAAAGGAAAAAAAAAGUAAAAAAAAACCUAAAAAAAAGCAAAAAAAAAGUAAAAAAAAAUCAAAAAAAAAGCAAAAAAAAACGCAAAAAAAAGCAAAAAAAAAUCGAAAAAAAAGCAAAAAAAAAACAAAAAAAAGUCAAAAAA'
p159
aF0.96
aa(lp160
S'7 multiloop'
p161
aS'AGUGUAUAUUAAUAUGUAUUUCAAAAGUUAAGGGCAGUAACACGCGGUUCCAAAGGGGAUUACCGUAAAUGGUAAAGACAAAGGCCUUGCGU'
p162
aF0.9782608695652174
aa(lp163
S'Kyurem 7'
p164
aS'AAAAAUACUAAACUUGAAAAAGGCCACAACAGCGGUUUAAAAAACAGGGGACAAAAAGGUCAAACCCGAUGGCCUUUCAGUGAAAAAAAAAAAAAAAAAAAA'
p165
aF0.9803921568627451
aa(lp166
S'JF1'
p167
aS'GGGGGGGGGGGACAUACAAGAUACAAAAGGAUACAAGAUACAAAGAUACAAGGAUACAGGGGGGGGGGGGGCAAAAGCCCCCCCCCCCCCAAGACAAAAGUCACGGGGGGGCAAAAGCCCCCCCGAACAUACAAAAGUAUGAGUAUCCAGUAUCAGUAUCAGUAUCCAAAGGGGGGGCAAAAAGCCACCCCCAAGGGGGGGGGGGGGGGGGGGGGGGCAAAAGCCCCCCCCCCCCCACCCCCCCCCCAAAGAUACAAAAAAGUAUCGGGGUAUAUCAAAAGAUAUACCCCAAACAUCAAAAGAUGAAGUAUCAAGUAUGAGAUCAGACAGACAAAAGUCGUCGAUCAGGGGGGGGCAAAAGCCCCACCCCACCCCACCCACCCCAAA'
p168
aF1.0
aa(lp169
S'multilooping fun'
p170
aS'CGUAAGUGUGCACGAUGAAAGGAAGUUGGAAAUAUG'
p171
aF0.8888888888888888
aa(lp172
S'Multiloop...'
p173
aS'CUGCGGAUAUGGAAAAGGACGUACUAAUGUAAGUCAAAACUUAGACAAAAGUCUGAUGAAAAUCUCGUAAAAAUGGGAUCAGUUCCAAAAAGGGAGCGGCAAAAACAUCAG'
p174
aF0.9459459459459459
aa(lp175
S'hard Y'
p176
aS'AAAAUUAUAUCAUGGGGGGCGAAAGCCCCCCAGGGGUAGGUGGACAAAGGUCCGCCUAUUGUGUAAAA'
p177
aF0.9705882352941176
aa(lp178
S'Mat - Elements & Sections'
p179
aS'AAAAUGUGUGCAAACGGUAGAGUUUGUCGCCGAUCAUUGAUAAAAAUACAACGGAUCCAUGUGAGAAAUGUAACCGGAGGAGCACUAAAAAAAAAAAAAAAAAAA'
p180
aF0.9619047619047619
aa(lp181
S'Chicken feet'
p182
aS'AAAAGGCACAGUUAAAAAAUCGAAGGGAAAGGGGGCAUGAUGAAAGAAACGAAGUAAACGGCGAAAA'
p183
aF0.8507462686567164
aa(lp184
S'Bug 18'
p185
aS'AAGGGCAAGAUUAAACGGCCGGUGAAACAAGGAGUGGGGGCUUGGUAAGAUUG'
p186
aF0.9622641509433962
aa(lp187
S'Fractal star x5'
p188
aS'AAAAGUGGCUUGUGACAGCUAAUGCUGGGCCUCGAAAGAGGAACAUCAAAGGAUGAGAAUCAAAAGAUUAAACGAGUCGAAAAACUGGGGGUUGUGUCGAAAGACGAGCCACAAAGGUGGAAGAGCAAAAGUUCAGCCCGUAAUCGGGAUGCCCCUAGAAAAACGGGAGGCAGGGUGUAAUCACCAAGGUCAAAGGACCGAACUUAAAAGAGUAACAAGUAAUCUUGAGGUCUUCCGAAAAACAGGUAUCAAAGCCAAAGGGUUAACAGUUAAUACUGAGGAGCGAAAGCUCAACGUGAAAGCACGAAGAUGCCUGGAAAAUGCGGACCAGUAUCAAACGAUAAAAUGCUAAUGUAUAAGCUCUAAUGAGCGUCGGCGAAAGCUGUAGGUCCGUAAAAAA'
p189
aF1.0
aa(lp190
S'Crop circle 2'
p191
aS'ACUAUGUAAAAGGGAAAGCAAAAAAAAAGGAAAAAAAAAAAAAAAAAAAAAAAAAAAAAAAUGUAAAAAAAAAAAAAACGAAAAAAAAACAAAAAAAGGUUAAUGUAAAA'
p192
aF0.9636363636363636
aa(lp193
S'Branching Loop'
p194
aS'GAUUGUGAAAAGAAAGUUCUAAUGAACAACAAUAAAAAAA'
p195
aF0.95
aa(lp196
S'Bug 38'
p197
aS'GAGAUCAUCAUAGUGCAAUUCUUUGCUUGAAACUUA'
p198
aF0.8888888888888888
aa(lp199
S'Simple Single Bond'
p200
aS'AAAAAAGGAAAAAAAUGCUCUAAAUGAGUUAAAAAAAACGAAAAAAAAAAAAAAAAAAAAA'
p201
aF1.0
aa(lp202
S'Taraxacum officinale'
p203
aS'GUUUAAAAGAAACAAUUUAAAAAAAGGACAGCGAAAGACUGACAUCGAAAGAAUGGCAUAAAAGUAAUGAUAUCUAAUCAAGAGGGGCGGGGGGUGUGGGGGGGGCAAAGCCCACCCCCACUGAUCCAAGGGGACAUGAAGCAAAUAUGAAAUAUUUGAUCAUGUCCCCGGUCACGAGAGAAGUUUUCGGAUCGGAUCUAAGCCCCCUUUGCGGACUUAAUGAGGCUGGCCAAUAGAAUACCCCUAAAAAAACGUCGUGAAAGGAGAGGCAUGAAAAUCACG'
p204
aF0.8794326241134752
aa(lp205
S'Headless Bug on Windshield'
p206
aS'AGCACCAAAAAGAGACGAACCUGACAAAAAAAAAAAAAAAAAAAAAAAAAGUCUGGAAAUUCAUCAAAGGAGCAGAUAGGAGAAGGAAAAAAAGCGAAAGCAAAAAAACCCUCAAAAAAAUCACAUAAAAAAAAUGCCAGGCAAGUCAAGCAGACAAAAAAAAAAAAAAAGUCAAGCGAGGCGAGCAGGCUGUUAAAGGA'
p207
aF0.95
aa(lp208
S'Pokeball'
p209
aS'AAUUGUGUAGAAAAGCAAGUAAAACUAAGUAGGUACCAAGUAAUCGCCCGAAGCAGGAAACCCCGACAUGUUGUAAUCGGCCUACACGUAAAAAAACUAUCCCAAAAGCGUGAAAUUGGAGGAAGCAGGCAAGUUAGUUACCAAAAGUACAUACAGCAGCGAGCAUAGAUAGGCGGGGUAGAAA'
p210
aF0.9130434782608695
aa(lp211
S'Variation of a crop circle'
p212
aS'AAAAGGAAAAGUUAAGGAAAAAGGGAGCAAUCGACCAGAGAAAAUAUAAAAAAUUAAAAAAUAAAAAAAAAAACCAAAAAAAAAAAAA'
p213
aF0.9545454545454546
aa(lp214
S'Loop next to a Multiloop'
p215
aS'AAGGCGUGGUUAAAAAACGGAAUACAAAGGUAUUCAGGUAAAUUAAUGUUUACCAGGAAAAAUGCCGCGCCAA'
p216
aF1.0
aa(lp217
S'Snowflake 4'
p218
aS'UUACAAAGUAGCAUAGGCAAAAAUCAUUCUAGAAACCCUAAUGAGAUAGGGGCAAAGCCCAACAUCAAGGAUGCUAUCACUAACGAGUCUCAAGAUAUCAGAAAGGAUAUGCAUAUAUUAUGGACGGAAAAUGGAUAUGUCGAAAAUGGUAUCGAUAUGCAUAAAGAGGGAUCAUUCAAGGAGUAAAAACGAAUAGUGAUCCAAAAAACGGUGUAAGGAAGCCUGAAAACCGAGCCCUUGAAGAGGAACGAGAAGCUCGGUUCGCCAAAGGGGCUUCAGGUUACACAAAAUUCGUGCGGUAAAGUACCAAGAUACAUGGUCAAAUGGUUAAUGGGUGACAUGAAUGUGAAAGGCUUAUGGAAUUAUAGUC'
p219
aF0.8540540540540541
aa(lp220
S'Mat - Cuboid'
p221
aS'GAAGCAAAAGAAAGUAAAAGCGGGCAAAAGAGGCAAGGAAAAUCAAGGAAACAAAAGAACUAAACAAGGAAAAGCAAGCAAGCAAUCAAAAGCAAGCACGCAAGCAAGCAAAAGCAAGCAAACAAGUAAGCAAAAGCAAGCAAGGAAACAAGCAAGUAAAAGUAACCAAGCAAUCAAGUAAACAAAACGAGGGAAGCAAACAAUAAAGCAAAAAAGCAAUGAAGUAAGCAACCAACGGCAAGAAAGAAAGCAGGCAUGCGCAAGCAAGUGAGGAAGCAAGAGCAAACAAGCAAGCAAGCGCAAGCAAGCAAACAAGCGCAAGCAAGCAAGCUCAAGUAAAGAACGUAACCAAGCCCAAGCAACGGAAGCACAAUCACAAC'
p222
aF0.8657894736842106
aa(lp223
S'Misfolded Aptamer 6'
p224
aS'AAAAAAGAGGAAAAAGAUUGGCUAAUCGCUAAAAAAUGUGUAAUGAAAAAAAUCGAAAAAACUCAAAAAAAAAAA'
p225
aF1.0
aa(lp226
S'Snowflake 3'
p227
aS'GUGAUAAAAAGUUACGACAAAAGUCAUGAUCAGUUCAAUACAAAAGUCGUCAGAGAAAUCGUGAAACGUGCAAAAGCAGGCGACAAAAGUCAAGAACAGAUCAAGAAAAAAUAGGACAGGUAAUGCGAGAAAUUCCGAAAAUGGGAGGACGAAAGUUAGGAAAAUUUCUAGACAAAAGUCGACAGCAAAAGCGAAGAAGUCGUAAAAGCAGUCGACAAAAGUCAUGAGAGCGUCAAGUCAAAAGACAACAGUAAAAACGGCGAACUCGUAAAAACGGUCGGCAAAAGUCAAUACCGGAUAAAGACAAAAGUCGACAGCAAAAGCGACAAACUCGCAAAAGCAGUCGACAAAAGUCAAGAUCAGGUCUAGUGAAAAUUCGUGUGCAAAAGCCAU'
p228
aF0.7989821882951654
aa(lp229
S'Hard Y and a bit more'
p230
aS'AAAAAGUUAGUCAGGUACAAAAGUACAAGGGAUACGCCGAAUUCUAAUGAGUAACAUACAAAAAAGUAUGAAGGAGUAUCCAGGCGAAAAAAAAAAAAAAAAAAAA'
p231
aF0.9716981132075472
aa(lp232
S'Mat - Lot 2-2 B'
p233
aS'GGAGUCGACAUCAAGCAAAAGCAACAUUAAAAAAAAAAUGAGGCGGAGGAAAAAUGGAGCCCAAUCAACCAACCUCAGGGAAAAGCAGGAUCAGGUAAAAGCAAAAGGACAAAAAAAAUCAAGGUCAGGGGCAAGUAAGCAAAAGCACAAUAAUGAGCAAAAGGAAGAUAAAAAUAAAAAUUAACCGCAAAAAAACUAAAGUGCAAGCAAGGAAGGGCAAUCAAAAGCAAGAUCAAGCAAAAGAAAAGUAGCAACAAAAAUCAAGCGCAAGCGGGAGGAACAAC'
p234
aF0.795774647887324
aa(lp235
S'Shapes and Energy'
p236
aS'AAAAAUAUCGGCCGAUGAAAAGUAAUUCUACCGAAAAAAAAAAUCUAGCAAGGAAAAAAGUACAAAAGUUUGCUGCAGUAUAAAAAAAAAAAAAAAAAAAA'
p237
aF0.9801980198019802
aa(lp238
S"Spiral of 5's"
p239
aS'UAAAAGAUACAAAGAUUCGAAGAUACAAAUGAUACAAAGAUACAAAGAUACGAGAUACGAAAUAUACAAAGAUAUAAAGAUACAAGAUACAAAGACACAAAGAUACAAUAUACAAAGAUACAAGAUACAAGGUACAAGAUCCAAGAUACAGAUACAGGGGGGGGGCAAAAAGCCCCAAAAACCCCCAAAAAGUAUCAAAAUGUAUCAAAAAGGAUCAAAAAGUACCAAAAAGUAUCAAAAAGUAUCAAAAAGUAUAAAAAAGUGUCGAAAAGUGUCAAAAAGUAUCAAAAAGUAUCAAAAAGUAUCAAAAAGUAUAAAAAAGUAUCAAAAAGUAUCAAAAAGUAUCAAAAAGUAUCUAAAAGUAUCAAAAAGAAUCAAAAAGUAUCAAAAAGAAAAA'
p240
aF0.9949622166246851
aa(lp241
S'Campfire'
p242
aS'AAAAAGUAAAGGUCUAAGGUCAAGAUAAAAAAUAUCGGACGCAAGGCGAUCUGAUCGUGGAUAGAAGUAGAAACAAAAGUAUUCGCUCGGUCCGGCAGCAGUGAAAACGCGCGUUCAGACAAAGGUACGAAUCAAGCAACCGUUCACCAGAACCACAGACAGAGAGAUCAAAGGGUCCUCGUCAGGGAUGAGAAUCGAUCAUCCGGUGGCUC'
p243
aF0.8867924528301887
aa(lp244
S'Anemone'
p245
aS'AACGAAUAGUUAUUUAUUCCCAUGGAAAUAUGGAUAUUCGAAAGAAUGUGGUCCUAAUGGAUCUGAAUGGAAACAUUCAUGAGUUAAUGUUUAGAUAUAAAGAUAUCUUAUUCGAAAGAAUGGACUCUGUAAUCGGAGCCUCGCAAACAUCGGCGUACGAAAAUUUGCUGAAAGAAAGUGUUCGGGUAUGAAAGUACCGGUGAAUCAUUUAACC'
p246
aF0.9439252336448598
aa(lp247
S'Fractal 3'
p248
aS'AAAAUCAUGAGCCACCAAAAGUGCAAAAGCAGUCAGACACCGAAAGGGCAAAAGCGGAUACAUACGAAAAUGCGUAAGCGAACCAGACAGGGAAAUCCCUAAUGCAGCCGCGUGUAAAA'
p249
aF0.8991596638655462
aa(lp250
S'Kyurem 5'
p251
aS'AAAAAAGUACCCGAUGAAAAUCCCGAAAAGCCUGAUCUAAGUCAAAAGGAUGAUCGUCAAAAACGACAAGGCCGGGGGAAUACUGAAAAAAAAAAAAAAAAAAA'
p252
aF1.0
aa(lp253
S'Snowflake Necklace ( or v2.0 )'
p254
aS'AUGUAUAUUUAUAUCAGAAACAGCAAAAAGCACCAAAAAGGAACAAAAAGUACCAAAAAGGACAAAAAAUGAGGUCCACUCAAAAAGAGAGAUACAACAAAAAGUACCAAAAAGGAGCAAAAAUGAACAAAAAGCACCAAAAAGGAGUAUCGGGCAAAAAGACAUCUGUAGUAAAAAACAGCAAAAAACUUCAAAAAGGACCUAAAUGGAUCAAAAAGAAACAGAAGACAAAAAGUCAGAUGGAGCAAAAAGCAGCAAAAAGCACCAAAAAGGACUAAAAAGGGGCAAAAAACAUUGUCUCACAAAAAGUCUGGAACAUGAAAAACAACAAAAAAGGACCAAAAAGUGCCAAAAAGGAUCAAAAGGGAGUUUCAGAUAUAAAUAUACAU'
p255
aF0.8431876606683805
aa(lp256
S'Methaqualone C16H14N2O Structural Representation'
p257
aS'AAAAAAAGACCAGUUCAGACAGACAAAAGUCAGACACACUAAUGUGAGACGUACAAAAGUAACUCAGACAAAAGUCAGACAAAAAAGGUUAGACAGUCAGUCAGUCGGAAACAGAACAGGGCAAAGCACUCAAAGCAAAGCAAAAAAAAGGGAGACAGACAAAAAUGUACAAAAGUAAACAAAAGUCGUCAGCAAAGAUCAGGAAUGGAGAGACGCACAUUCAGCCAAAAGAGAAAACUCGCGAACACAAAAAUCAGUAUGAGUAAUCUCUAUGACACUAAUGUCAAUCAAAUGACAAAAGUAUAAAAAAUUAAGGCGAAAGCUAUUACUCGGAUCAAAGCCCAGGUUAAAAAAA'
p258
aF0.9267605633802817
aa(lp259
S"Cat's Toy 2"
p260
aS'AAAUGGGAGGGUAAAAGCGAGUAAAAAAAAAAAAAAAAAUUAAUGAAAUAAAAAUAAAACGGAAACGGAAAAAAACGAAAUAAGCGUCUUCCCUAAA'
p261
aF0.979381443298969
aa(lp262
S'Zigzag Semicircle'
p263
aS'AAAAGUUCCCUAAUAAAAGGAGAAAGGGGCGAAA'
p264
aF0.9411764705882353
aa(lp265
S'Short String 4'
p266
aS'AAAAAAUGAAGGCGAGACAAUGUGGACCAAAAGAUUAUAUAAGAACAAUAAAAAUAAAGCUAAAAAGAUUAAAUUAGAAAAAAAAAAAAAAAAAAAA'
p267
aF0.8969072164948454
aa(lp268
S'Gladius'
p269
aS'AGAAACAAUAAAAGAAAGAAACGUAUUAGGCAUGAGACAUAUCAAAAGAUGAGUUGUAUGAGGCAAAAGAACAAUAGUACAACAGGGGGGGCAGCACACAGAUACAGGUAAGACCAAGAUCAAAGAUCGGGUACUAUCGAUAUUGAUGUGCGACCCCCCCGAGGGUACAGAGGUUCAAUAGCCAGCCCUAGAACUCAACCACAGAAAACUAGGACAGAAGGGCGGAAUUUCGGAAGGCUUUUACGAAACAGAUUCACUAUACAGACAUUAUACAAAAGUAUAAAAGUCGAUAUAAGGGAUACGUUUCAGAGAGGCCACAAGAAGACUAGUCUACAAGUCAAAAUUUUCAGUUGAAAACAACAAAGUCCUGUAAUACCCCCGGCAAAUGAAAUAACAAAAG'
p270
aF0.9
aa(lp271
S'Thunderbolt'
p272
aS'UCUGGAUACAAAAAAAUUAGCAAACAUAAAAAGGAAACAGUGGGGUGAAAAAAAAAGCAAAAAUGAUCUAAAUGAUCUAAAAAGCAAAGCAAUCAAAAAAAGAAGAAAAAACUACAAGAAAACAAAAAGAAAACGGACAAAAAUGAUUAAAAUAAUCAUUAUAAGGACGAAAAUGUCUGAUGAAAGAAAAAAAUAAGAGCAAAGAGGAAGAAAAAACCAAGGAUCAAAAAAAAUGAUAAAAAAGAUACAAAGUGUCUAGCAAUCAAAAAAAAAAAGGGAGCAAAAAAAAGCAGAUAAAAGCGAUUCAAAAAUAAAAAAAAGAAAAAGGAUCGAACACGAAACACCCCGCAAAAAAAAGAGUAAGCAAUAAAACAAAAAAAGAGUAUCAUGAA'
p273
aF0.9489795918367347
aa(lp274
S'Mutated chicken feet'
p275
aS'AAAAAAAGUACCAGUAAAGCGGCAAAGGAAAACAAAGGAGCACCAAAGGUAUAAAACAAAGCCUAGAACCAACAAGUUGGCAAGGUAAAACACGAAAAAA'
p276
aF0.86
aa(lp277
S'Chicken Tracks'
p278
aS'AAAAAAAGGGGAUACGAUCGAAAGAUCAUUAUCGAAAGAUGUACCUUGAAAAAGGGUAUCCCAAGGGUUCCGAAGGGGAGUAGGUAUUCUAAAGGUGGAUCAUCCCCAAAAAAAAA'
p279
aF0.9827586206896551
aa(lp280
S'Looking Back Again'
p281
aS'CCCAAGAUGACCAAAAUGGACACAAAGUGUCCUGCUAAAGACCGCAAGCCAAAGUCGGGAGACACAAGGUCCGAAAGGAUAAAAGUGUCGAGUCAAGUCAAGAUCCACAAAAAGAUGCAAAAGCAUCAAAAAAGUCAAUACGAUAUAAAGAAUUGAUACGAAGUAUCGGGGGCUCAAUAAGAAGAUGAAGUAGCUCAAAAGAGCAUCACUACCGAGAGGGACAAAGGUCAUGCCCCCAAAGUAUCGAUCAGUGACAGAUUAAAAAAGCGAUACAAAAAAAAUGACAAAAAGACGGUAUAAACCCAACACGUUCUAAAAAGGCGAUACAAAAGUAUCGAAGAUCAAAACGGCAUACAAAGUAUGAAGUCCAAAAUGAACGUAACAAAGAG'
p282
aF0.8637532133676092
aa(lp283
S'Multilooping 6'
p284
aS'AGGAUUCUGCAUUCAGAAAGGAACGUUCUUAAUAGAACUUGAUGGAAUGAAAAUAUGCAAAAAUAAUUUGUUCUCGAAUCAA'
p285
aF0.8780487804878049
aa(lp286
S'Cesspool'
p287
aS'AAAGAAGCAAACAAGCGAGUAGAUACAAAGUAAACAAAAACGCAAGAAGAAAACAACAGAAGAAAACAACAAAAUGAAAACAACAAUAAGAAGAAGAAAACAACUGAUGAGAUCCAAAGGCAGGAACUACAGGAGAAGAAAACAGCAGAAGAAAAAGACAAAAUGAAAACAACAACAAGCAAGAAGAAAACAACACAAUAGAGACAAAGUCAACAACAAGUUGAGAAGUAAUGAACAGAGGAAAGCAACAAAAUGAAAACAACAAGCAACAAAGUACAAAAGAACACAAGAUAGAUAAAAUCAAAAACAAGGGAAGAAGAAAACAACAGAAAGAAAUGACAAAAUAAAAAUAACAAGG'
p288
aF0.7681564245810056
aa(lp289
S'Hoglafractal'
p290
aS'AAGACAAAGAUACAAAAUAUCCAAAAAGGGAUGGUAUCAUUCAAAGCUUAAAAAAACCGAGUGACAAGACGAAAGUCGUCAGACGAAGAUUAAAGAUGGAAAAAUAUCAAUCAGCAAACCUAAAUGGUACUGGAACAAAAGCCCACAUUAAAAGAGAUGGGAAAAAGUUCAUCGGAGCAAAAAGCGCGGCAAGACUCAGAUACGAAAAGCAGCAAAAAAGCGCGACUAAAUGUCGUAAAAGGGGGAUACAAAAAAGUCAAAAAAGACGCGAAAAGCAAACGGUGACGAAGUCACCGAAAAAAAGUAUCUAAAAAAGUAUCAAAAAAAUGAAAAGUCGAAUCGAAGAACAGGAGAUGUAAAGAAAAAGCCCAAAAGGCGGUACAAGGUGUCGUUAUCGCAG'
p291
aF0.9125
aa(lp292
S'Bullseye'
p293
aS'AAGUCCGAUCAAUAGUAAUAUUGUAUUAAGGAGACCGAAGGUCGGAAAAAAAAUCACGUUCAAAGGACAGUGUCAACGAUGAAGUGUAAGACUCGUGAAAAAAAACAGCGUCAAAGCCCAGGCUCAAGGAGCAAGCUCAAAGAGAGUGGAAAAAAUGACGAUGAAACGUCAAGAUGAAACAUCAACUUAAAAGAGGAUGUAA'
p294
aF0.8663366336633663
aa(lp295
S'Shooting Star'
p296
aS'AGAUAUGAUAGGCGUAGAAGGAGAGUCAGAUAGCAAUCGAAAGCAUGACAUCAGAAAACUAAUUAUGCCAGAAACAAGACUAUCACCCAAGUCCACUCAGGGCAGUAAAAAACGUCACGAGGAGAUAUGGGGGAAAUGCGGAUAAAGGAAUGUCAAGCCAUGCAAAGUAUGACAUGUAAAGAAUGGUGGAAACUCAGUUCAAAUGAGAUGAGUCGAAAGGGGUACAAAGUACCCCGCAGAGAAGUUCUGCAGAUGGUUUCAAAGAAGCCAAAAUAGUAUUCAUUCAUCGCACAAGGAAACGAAGGAGUUGAGAGACAGUUGAGUAAAAGUCUAAACGUCACGACAUAACAACGUGCAAUAUCUA'
p297
aF0.8571428571428571
aa(lp298
S'Teslagon'
p299
aS'AAAAAAGCAAAAAAAGGACUAAAAAAAUCAGCAAAAAAAAAAAAAAGGCUAAAAAUAGGCAAAAAAAAAAAAAAACCUGGAAAAAAAACAGCAAAAAAUUCGAAAAAAAAAAAAAAGGUAAAAAAGCGGUACAAAAAGGAGCGAAAAAAAAAAAAAAGUAAAAAAUAGUAAAAAAAAAAAAAAAAGGAUCAAAAAAAACAUCAAAAAAAUUUAAAAAAAAAAAAAAUGAAAAAAGGGAUCAAAAAAAUUGUUAAAAAAAAAAAAAAAGUAAAAAAUAGGCGAUAAAAAAAAAAAAGCAAAAAAAAAAGAAUUAAAAAAAGUAAAAAAAAAAAAGAUAAAAAAAAAAAAAUUAAGAAAAAAAAGGACUCAAAAAAGUAAAAAA'
p300
aF0.8691099476439791
aa.