(lp0
(lp1
S'Simple Hairpin'
p2
aS'AUAUCAAAAAAGAUAU'
p3
aF1.0
aa(lp4
S'Arabidopsis Thaliana 6 RNA - Difficulty Level 0'
p5
aS'AUAUAUCAAAUCACGAAAAAAAAAAGUGCUAUAUACAAGUAUGUAUGUAUGGAUGUCAAAGAUACAAAAAAGUAUCAGACAUCACAUACAUACAUACGAGUAUAUAGAAGAUAUAU'
p6
aF1.0
aa(lp7
S'Prion Pseudoknot - Difficulty Level 0'
p8
aS'GAUAUCAGAUCAAAAGAUCGAUAAUCAAAAAAAAAA'
p9
aF1.0
aa(lp10
S'Human Integrated Adenovirus - Difficulty Level 0'
p11
aS'UCUAAAUGUAUAUAUGUAUAUUAAAAAAAAAGGGACCUAGACCUAAAAAGCAUGUACAAAAGGAGGUAUGUAUCGAAAAAAAGAUACAUGCCAAAAUCCGUACAAAAAUGCAGGACACUCUAGCAAGUAGGUAAAAAAGACCUACGUCCAAAAAAAAAAAUGUAUACUUAUAAAAAUACAUUGAAUGGAAAA'
p12
aF1.0
aa(lp13
S'The Gammaretrovirus Signal - Difficulty Level 0'
p14
aS'AGGUCAAAUAUGCGAAAGCAUAUGAGUCAAAAAUUGGCAAGACAGUUCGUUAGUAAUUUAGCAAAAGAACGUCGCUAUAGUAGGGUCUAAUGGCCCUAUAA'
p15
aF1.0
aa(lp16
S'Saccharomyces Cerevisiae - Difficulty Level 0'
p17
aS'AUAUAUCGUUAAAAAAAAAUAACAGUAAAAAAAAAAAAAAAGUAAAUGAGUUAAAAAAAAGCUCGAUAUAUAAAAGUAUGUGAAGGUCAAAAAAAGGAUCGCCAAAAAAAAAAAAAGGCAAAUCGUGUAAAAAAAACAUGUACAUACAAAAGUAUCUCAUGAUCAAAAAAAAGAUCAGAAUCGAAAAAAGAUUCUAAAUGUUGUAAAAAAAACAACGGGAUACGAAGUUAUGUCAAGAUCAAAAAAAGGAUCUAUAUCAAAAAAAGAUAUAAAAUCGGGUUAAAAAUAUGAGGACGUAGAAAAGUGAGUCAAGAUCAAAAAAAGGAUCUAUAUCUAAAAAUGAUAUAAAAUCAAAUGAAAAAAAUUUGGACUCAUAAAA'
p18
aF0.9894459102902374
aa(lp19
S'Fractal 2'
p20
aS'AAAAAAUAUCUACAAAUUAUGUUUGCAAGAUCAAAAAAAAAAGAUCAGGAUCAAAAAAAAAAGAUCAAGUGGAAAAAAAAAAUCACAGGCAGACAUAGAAAGUAGGUAUGAGAGUUCAAAAAAAAAAGAGCAAGGCGAAAAAAAAAGUGCCAAGAUCAAAAAAAAAAGAUCAAUCAUACCUACAAAGUAUGGAUGCAAGAUCAAAAAAAAAAGAUCAAGAGCUAAAAAAAAUGCUCAAGUUCAAAAAAAAAAGAACAGGCGUUCAUAUAAAGUAGAUAUAAAAA'
p21
aF1.0
aa(lp22
S'G-C Placement'
p23
aS'GAUCAAAGAUCG'
p24
aF1.0
aa(lp25
S'The Sun'
p26
aS'GAUACGAUGUCAAAGAUAAAUCGAUCAAUCACAGUAUAGAAAAGUCAAAUACGUGUAUCAGACUUUUGUAAGGUACAAUAGUUCUAACAAAGCAUUGCAAAGAAAAAUGCUUGGAAUUUAGAACAUCAAGGACAAAUACACGAAGCUCAGUAUGACUAUGUCAAAUACGAGAAAGGGAUUCAGUUUAUAACUAAGAUUUUGAACACAUUGUCUCGAAGAGAAAUCUUUGGAACACACUACGCGGAACACGAAUACCGG'
p27
aF0.8527131782945736
aa(lp28
S'Frog Foot'
p29
aS'AAAAAAAAAACUACGAAAGUAGGAUCAAAAGAUCGGUCAAGGACC'
p30
aF1.0
aa(lp31
S'InfoRNA test 16'
p32
aS'AUAGACUGAGAUGUGAAAACAUAUGCUGCUGUUUAU'
p33
aF1.0
aa(lp34
S'Mat - Martian 2'
p35
aS'GAUCAAAAGAUCAAAGUAUGUCAAGUAUGUCAAAAAAAGACAUACGACAUACAAAGUAUGUACAAAAAAGUAUGUCAGUAUGUCAAAAAAAGACAUACGACAUACAAAGUAGGUAAGUAUGCAAAAAAAGCAUACUAUACUUACAAAAAAGUACAUACAAAGUAUGUAUGUAUGCAAAAAAAGCAUACAAAUACAUACAAACAUCAAAAGAUG'
p36
aF1.0
aa(lp37
S'square'
p38
aS'AUAUAUCCUAUACCUAUAUCCUAUACAAAGUAUAGAAAAGAUAUAGAAAAGUAUAGAAAAGAUAUAU'
p39
aF1.0
aa(lp40
S'Six legd turtle 2'
p41
aS'AAAACGGAACAGGAAACUAAAUUGAAAAGAAGGGGAAACUAAAGCGAAAGCGAAUAAAAACGCAACCGAAAGGAAACCAAAAAAAAAAAAAAAAAAAA'
p42
aF0.9591836734693877
aa(lp43
S'Small and Easy 6'
p44
aS'ACCACAAACGGAAAGCAAAAAAAACCCGGU'
p45
aF0.9333333333333333
aa(lp46
S'Fractile'
p47
aS'AAAAAAAAAAAACCAAAAGGAAAGCAAAGCAAAAGCAAGGAAAGCAAAAGCAAACCAACCAAAAGGAAAGCAAGCAAAAGCAAAAAAAAAAAAAAAAAAAAAAAA'
p48
aF1.0
aa(lp49
S'Six legd Turtle'
p50
aS'AAAAAACAAAACAAAAAGGAAAAUUAAAGAUGAAGAUAAAAGAAAAAACGAAAGUAAAGUGUAAUUGAAAAUGGAAACAAAAGCUAAAAAAAAAAAAAAAAAAAA'
p51
aF0.9238095238095239
aa(lp52
S'snoRNA SNORD64'
p53
aS'AUAUACAAAAAGACAAAAGACAAAGAUACAAAAAAAAAAAAAGUAUCAAAAGUCAAGUCAAGUAUAU'
p54
aF1.0
aa(lp55
S'Chalk Outline'
p56
aS'AAAAAGUACGGAGCUAAAAGGACUCAGACAGCCGAAAGGCGUCAUGAUGCAAAAGCAAUCAACCCUGAAAUCAGCGGGUACAAAAAAAAAAAAAAAAAAAAAAA'
p57
aF1.0
aa(lp58
S'InfoRNA bulge test 9'
p59
aS'AUAUAUCAGAGAGAGUAUGUCAAAAGACAUACCCCGAUAUAU'
p60
aF1.0
aa(lp61
S'Tilted Russian Cross'
p62
aS'AAAAAUUUGUCUCAAAAGGUCGAUUAAGUCUAAUGGCUGUUUCAAACGAGGUAGAUUUAAUAUUCGAUCAAUCGAAAGAACUAAAAAAAAAAAAAAAAAAAAAAA'
p63
aF0.9238095238095239
aa(lp64
S'This is ACTUALLY Small And Easy 6'
p65
aS'AAAAAAAAAAAAAAAAAAAAAAAAAAAAAAAAAAAAAAAAAAAAAAAAAAAAAAAAAAAAAAAAAAAAAAAAAAAAAAAAAAAAAAAAAAAAAAAAAAAAAAAAAAAAAAAAAAAAAAAAAAAAAAAAAAAAAAAAAAAAAAAAAAAAAAAAAAAAAAAAAAAAAAAAAAAAAAAAAAAAAAAAAAAAAAAAAAAAAAAAAAAAAAAAAAAAAAAAAAAAAAAAAAAAAAAAAAAAAAAAAAAAAAAAAAAAAAAAAAAAAAAAAAAAAAAAAAAAAAAAAAAAAAAAAAAAAAAAAAAAAAAAAAAAAAAAAAAAAAAAAAAAAAAAAAAAAAAAAAAAAAAAAAAAAAAAAAAAAAAAAAAAAAAAAAAAAAAAAAAAAAAAAAAAAAAAAAAAAAAA'
p66
aF1.0
aa(lp67
S'Shortie 4'
p68
aS'ACGAAAGUACCGAAAGG'
p69
aF1.0
aa(lp70
S'Shape Test'
p71
aS'AAAAAGAGAGGAAGAUACAAAAAAAGGUAUCAGGACAGACUGAUACGAAAAGUAUCUGCUCUAAUGAGCUGUCGUCAACCUCGCAAAAAAAAAAAAAAAAAAAA'
p72
aF1.0
aa(lp73
S'The Minitsry'
p74
aS'CGCAAAAAGAGGAAACAGCUAAAUGACAAUAAGACAAAAAAAGGUCGGUCUGCUACUCGGUG'
p75
aF1.0
aa(lp76
S'stickshift'
p77
aS'AAGUAUGCCCAAAAAGGAGCAUACAA'
p78
aF1.0
aa(lp79
S'U'
p80
aS'AAAAAGAUACAGAGAGCAGAGUAUGUAUCAAAAGAUACAUACCGCCCGUAUCAAAAA'
p81
aF1.0
aa(lp82
S'Still Life (Sunflower In A Vase)'
p83
aS'AAAGAACAGAUGGUAAAAAGCCAUAACCCUGCACCGGGGAGCAUACAAAAAGUAUGAAGGUACAAUGUACCAACAGACAAAAGGUCUGAACAGAGAAAAACUUUGGGUAUGUAUAUAUGUAUAUUUGUUGAUACAAAAAAGUAUCAGUUACGAAAAAAAAAAAAGAUCUAAAAAAAAAAAAAAAAAAAAAAAAAAAAAAAAAAAAACCUGAUCGAAAAAAAAAAAAGUAGCGAUUUGAAAGAAUCAGACAAAUAUACAUAUAUACAUACAAGUUACUAAAUGUAGCAGCAUUCUAAAUGAAUGAAUAUAUAAAAAGUAUAAACCUAAGAAAAUUAGGAACUUACAAAAGUAAGAAGAUCCAAAAAGGAUUAGUUCAAA'
p84
aF1.0
aa(lp85
S'Quasispecies 2-2 Loop Challenge'
p86
aS'AAAAAAUGCGCCGAAGUUCAAAAGAAUAACGGCAGUCUGACUAUGGAAGACAGGUCAUGAGUACGAAAAGUGAGCUAGACCGCAUAAAAAAAAAAAAAAAAAAAA'
p87
aF1.0
aa(lp88
S'Corner bulge training'
p89
aS'AGUAUGCGAUACAAAGUAUCAAAAGCAUACA'
p90
aF1.0
aa(lp91
S'Spiral'
p92
aS'AAAAAGAUCAGUAUGCAGACAGAUACAGAUCAGAUCAGCAGCAGCAGCAGCAGCAAAAAGCGCGCGCGCGCGAUCGAUCGUAUCGUCGCAUACGAUCAAAAA'
p93
aF1.0
aa(lp94
S'InfoRNA bulge test'
p95
aS'AAAAAAAAAAAAAAAAAAAAAAAAAAAAACGGCUAAAAUGGCGAAAUGGACAAAGUCGAGGCUGAGAGAUAAAUUCAUCGCACGCAGCGUACGAGGUACCUAAAGCGACCUAAAAUGUACGA'
p96
aF1.0
aa(lp97
S'Worm 1'
p98
aS'AAAAAAAAUUAGAUAGUGAAUAAGAAAAAAUGGAUUCGAAGAAUU'
p99
aF0.8666666666666667
aa(lp100
S'just down to 1 bulge'
p101
aS'AAAAAGACCAGAUACAAAAGUAUCAGACAAAAGUCAGGAUCAAAAGAUCAGACAAAAGUCAGACAAAAGUCAGAUCAAAAAAAAAAAAAAAAAAAA'
p102
aF1.0
aa(lp103
S'Iron Cross'
p104
aS'AGUAAAGCAAAGACAUACAAACUGAGACAAAAGUCAGUCAAUGCUAAAAAAAAUGUUAACAAAAUUUGGCUAACAUGUGCGAAAGCGAUACAAAGUAAGUAAAGGAGACUGGAAGGAAUACAA'
p105
aF0.926829268292683
aa(lp106
S'loops and stems'
p107
aS'AAAAAGUGUGUCAAAGAUCAAAGAUCAAAGAUCAAAAAAAAAGAUACAAAAAAAAAAAAGUAUCAAAGAUCAAAAGCUCAAAAAAAAAAGAGCAAAGAUCAAAGACAAAAAAAAGUCAAAGAUCAAGCAAAAAAGCAAAGACAUACAAAAA'
p108
aF1.0
aa(lp109
S'Water Strider'
p110
aS'AAAAUACAGUAAGAGUUAGACACAAGUGUACUAAUGUAGAUAAAAAAGCACCAAAGGAGAUUAAAAAGUUGAUGUCAAAAGUUAAAAAAAAAAAAAAAAAAAA'
p111
aF0.941747572815534
aa(lp112
S'The Turtle(s) Move(s)'
p113
aS'AAAGAGAAAGCGAAUCGAUUUAUCAAAAAAAAGGAUAAAUUGUAAAAAUCGAAAAGAUUGAAAACUCGAAAGAGGAACAAACAAAAAAGGGUUGAAAAGUCAACGGAAAAUUAAAAACUAAAAGGCGCAAUGUGUCCAAAAAAGGAGUACUAGACGCAAAAGCGAAAAACUAUAUAAAAGUCGAAAAAAGACAGCACAAAAAAAAGUGAAAAAUACAAAAAAGUAUUAAACAUCAAAAGGGUGGAAUAUAGAAAAAAAAAGGAAAACUAAAAGCCAAAAGGAAAAAGCGUAUAAAAAAAAAAAAAUGAAAAAAGGC'
p114
aF0.9873417721518988
aa(lp115
S'Adenine'
p116
aS'AUAUCAGUAUGUAGUAUGCGGUAUGCGGUAUGCAGUAUGCAAAAGUAUGCAAAAAAGCAUACAGCAUACAGAUACAAAGUAUGUCAAAGACAUACGUAUCAGCAUACAGUAUGGAUGUACAAAGUACAUUAAUCAUACAGUAUACAAAAGCAUACAAAAACAUACAAAAGAUAU'
p117
aF1.0
aa(lp118
S'Tripod5'
p119
aS'AAGGUGGCUCAAAAGGAGCGAUCGAAAAGAUCCACCAA'
p120
aF1.0
aa(lp121
S'Shortie 6'
p122
aS'GGAAUGCCGGCAAAAGCAGCGAAAGCGACGAAAGU'
p123
aF1.0
aa(lp124
S'Runner'
p125
aS'AAAAGGCUUAGAUCAAAAUGAUCAAAGAACUUAUGAAGGACAAUAACUCAAAGGGAAACUAUACAUCUAUACGCAAAUAAGUUAAAGUAGAACCCAAAAUGGUUGCGAAGCAAAAA'
p126
aF0.9482758620689655
aa(lp127
S'Recoil'
p128
aS'AAAAAGAUACAAGCAAGCAAGACAAGACAAGCAAGCAAAGCAGCAGUCAGUCAGCAGCAGUAUCAAAAAAAAAAAAAAAAAAAAA'
p129
aF1.0
aa(lp130
S'[CloudBeta] An Arm and a Leg 1.0'
p131
aS'AAAAAGACAGGUACAAAAGUAACCGUCAGCAAAAGCGACAGUCAAAAAAAAAAAAAAAAAAAA'
p132
aF1.0
aa(lp133
S'[CloudBeta] 5 Adjacent Stack Multi-Branch Loop'
p134
aS'GAUACCCACAAAAGUGGGACACGAAAGUGUCGGUACGAAAGUAUCGUGUGAAAACACGUAUCA'
p135
aF1.0
aa(lp136
S'Triple Y'
p137
aS'AAAAGGAACGAUUGUUCAAAGGGUUGAUCGAAAGAUCGGUCGAAUUAUCAAAGGAUAGCUCUAAAGACCAUGCGUUUAAAAAAAAAAAAAAAAAAAA'
p138
aF0.9175257731958762
aa(lp139
S'Misfolded Aptamer'
p140
aS'AUUGGAAAAGGCGAGAAACUCAGCGAAAGCAAAAAAAAAGCAAAAACAAU'
p141
aF1.0
aa(lp142
S'Flower power'
p143
aS'AAAAUGAGCGUUUAAAGGGCAGUACACGUAAUAUGAAAGUUGAAGCAGUGGGACGUAUGCGUGGACACAACAAGUUUGGCUCUAAAAAAAAAAAAAAAAAAA'
p144
aF0.9215686274509803
aa(lp145
S'Kudzu'
p146
aS'AAAAAGAGUUAUGGGACGAACCUGAACAAAGUCAUAGGCAGGCCCUAUGGAGAUUAUUACACGUACUAAGUCAUUGGUCUCAAAAAAAAAAAAAAAAAAAA'
p147
aF0.9801980198019802
aa(lp148
S'"1,2,3and4bulges"'
p149
aS'AAAAGGAGAGUAGAGUAAUCUAAAAAUCAUGCGAAACAAAUCAUCAAAACCGCACGUUAAAGAAAUGGGCCCAAUGUCAGUAAGGAAAAAAAAAAAAAAAAAAAA'
p150
aF0.9619047619047619
aa(lp151
S'medallion'
p152
aS'ACUUACGUUAUUCAAAAGGAUAAACACAAAAGCGGCACAAAAGUAGCUGUACAAAAGUAUAGACUCAACAGUAACUACACCAAUGUAUAGGCGCAAAAGUGAGCGAAAAAGGACCAUGCAAAAGUAUGGACACAAAAGUGACUAUAGAAAAUUAUAGACUCAAAAGAGACCGGAAACGGACUAUUCAAAAGAAUGGAUACAAAAGGAAGUCUACUAAUGUAGACACAAAAAAUCGACACGAAAGUGGAUAUAGAAAAUUAUAUAUACGAAAGUGACUAUGCAAAAGUUUAGACGCAAAAGCGGCCCAAAAGGGACUAAAGAAAGUAUUAGAGUAGAU'
p153
aF0.9020771513353115
aa(lp154
S'[RNA] Repetitious Sequences 8/10'
p155
aS'AGCAAAAAAGCAAAAAAGCAAAAAAGCAAAAAAGCAAAAAAGCAAAAAAGCAAAAAAGCAAAAAAGCAAAAAAGCAAAAA'
p156
aF1.0
aa(lp157
S'Documenting repetitious behavior'
p158
aS'AAAAAAAGGAAAAAAAAAGCAAAAAAAAAGCAAAAAAAAAGAUAAAAAAAACAUAAAAAAAAGCAAAAAAAAAGCAAAAAAAAAUCAAAAAAAAUGGUAAAAAAAAGCAAAAAAAAGACAAAAAAAAAGCAAAAAAAAAGCAAAAAAAAAGUAAAAAAAAAGCGAAAAAAAGGCGAAAAAAAAGCUAAAAAAAAUGAAAAAAAAACGAAAAAAAAUGCAAAAAAAAAGCAAAAAAAAAGGAAAAAAAAGACAAAAAAAAAGCAAAAAAAAAUCAAAAAAAAAGUAAAAAAAAAGUAAAAAAAAUACUAAAAAAAAGAAAAAAAAAAGCAAAAAAAAAGUAAAAAAAAUGCAAAAAAAAUGCGAAAAAAAAGCGAAAAAAAAUCAAAAAAAAACUAAAAAA'
p159
aF0.95
aa(lp160
S'7 multiloop'
p161
aS'GCGGGGUUCGAAAGGACCCUCUAGAAAUAGAGCAUAGAAAGCUAUGGGAGUUAAUACUCCGUGUCGAAAGACGCGACCCAAAGGGGUCCCGC'
p162
aF1.0
aa(lp163
S'Kyurem 7'
p164
aS'AAAAUGUGCGCGCUAGAUACAGCUGAAAAGAACAGUUGAAAAGGCGUGCUACAAAAAAGUGAAAGCGGUGCCUCCAUAGCGCUAAAAAAAAAAAAAAAAAAA'
p165
aF0.9803921568627451
aa(lp166
S'JF1'
p167
aS'UAGAGGCUUACCCAUUUAAGAUACAAAUGUAUGCAAGGUACUAUGGUAGUUGUAUGCUGUAUGUAUGUAUGCAAAAGCAUACAUGCAUACUAGACAAAAGUCAGUAUAUAUCAAAAGAUAUAUACAUCGUACAAAAGUAUGUGCAUACCCUAUCUGUAUCAGCAUACUAAGGAUGUACGAAAAGUACCAUUCAAGUAUGUAUGUAUGGAUGUAUGUACGAAAGUACAUACAUCCAUAACAUACAUACAACGAUACGAAAAAGUAUCUAUAUAUAUCUAAUGAUAUAUAUAAAGCAUCAAAAGAUGAAGUAUCAAAGGUGAGAUCAGACAGACUAAUGUCGUCGAUCGGUAUGUAUCAAAAGAUACAAUACAGUAAUGUCAUCUAAAA'
p168
aF1.0
aa(lp169
S'multilooping fun'
p170
aS'ACUUUAUUUGAAAAACGUCAGGCGUAUGAAAACUCU'
p171
aF0.8611111111111112
aa(lp172
S'Multiloop...'
p173
aS'AUCCAGCUCAGGGAAAGCCCAGACAAAAGUCAGACAAAAGUCACCCAAAAGGGAGUCGAAAGAUAGGCAAAAGCCGGAGCAGGCAGUAAAAUCUGUCGGCAAAAGCCGGAU'
p174
aF1.0
aa(lp175
S'hard Y'
p176
aS'AAAAAUCUCGGAGUACGUACAAAGGUACGUAACCAGUUUGGAUGGAAAGUCAUUCAAACGAGAGAAAA'
p177
aF0.9705882352941176
aa(lp178
S'Mat - Elements & Sections'
p179
aS'AAAAACUACGCUAAGAGGUUUGUAUUGACGAAGUGCGUGAAGAAAGCUUAUACUACACAGCACUCAAUUUAACCGCAAUGAGUGGAAAAAAAAAAAAAAAAAAAA'
p180
aF0.9809523809523809
aa(lp181
S'Chicken feet'
p182
aS'AAAAGGGAGUACCAAACCACAUAUGGGAGGUGCAGAAACAGAUAUACGGUAAAGCAAGGCGCAAAAA'
p183
aF0.8805970149253731
aa(lp184
S'Bug 18'
p185
aS'UAGACCUAUAGUGAAUAAAGAUAAAAGAAGUCGGUAUCAAAGUAAGAAAGUUU'
p186
aF0.9622641509433962
aa(lp187
S'Fractal star x5'
p188
aS'AAAAACUAUUUCUGAUAUCAAAAGAUAAACGGCAAAAGCCGAACUUGAAAGCAAGAACCUCUAAAGAGGAAGGAAAUAGAAAAGCUGCAUCUAAGUUCAAAAGAGCAACUUCUAAUGAGGAUCAUGAAAACAUGUACCGCAAAAGCGGAAAGAUGUAGAAAAACUAAAUUUAAGAUCAAAAGAUCGACAUUAAAAAAUGAACAUCAAAAGAUGAACGUCAAAAGACGAAAGAUUUAGAAAAAGGAGGUCUGACAUCGAAAGGUGAAAAGAAAAAUCUUAACUGCAAAAGCAGAACAGCAAAAGUUGGAGGAUCUCCGAAAAUUAUGUAUAAGGUGAAAAUACCAAGAUCAAAAGAUUAACUUCAAAAGAGGAAUACCAAAAGGUGAAAUACAUAAAAAAA'
p189
aF1.0
aa(lp190
S'Crop circle 2'
p191
aS'GUAAGACGAAGGCGAAAUAAGAAAAAAAAUUGAAAAAAAAAAAAAAAAAAAAAAAAAAAAAGGGAAAAAAAAAAAAAAGGUAAAAAAAAACGAAAAAAGAAAAGGAAAAA'
p192
aF0.9272727272727272
aa(lp193
S'Branching Loop'
p194
aS'AGACUGGAAAAAAACGUGCAAAAGCGCAGAGUCAAAAAAA'
p195
aF1.0
aa(lp196
S'Bug 38'
p197
aS'AGCAGUUGAAUACACGAAUAGAUAAUAACGAAUCCG'
p198
aF0.9444444444444444
aa(lp199
S'Simple Single Bond'
p200
aS'AAAAAACUAAAAAAAAGAUUGAAAAAAUCAAAAAAAAUGGAAAAAAAAAAAAAAAAAAAAA'
p201
aF0.9672131147540983
aa(lp202
S'Taraxacum officinale'
p203
aS'AUAUGAAACAUAUAAUCCAAAAGCUGUACAUCGAAAGAAUGCCCGCAAAAGAUUGUCGUCAAAAGAAAGUCCUCAAAAGAAGGAGUAAGGGUGCCGCGUGUAUGUCUAUGACAUUACACGCUGAGACAAGAAUGGAUGCAGGUUUUUCUAUGAGAAACAGUAUCCAUUCGAUCAGUAUGCAAAGCAUACGAUCGUUUCUAAGGCACUCUUACGGAUGAAAACAAACACACAAAAACAGCGACACGUAAGGCCAGGGAAAAAACGGUUUACAUCAAAAGCAGG'
p204
aF0.8439716312056738
aa(lp205
S'Headless Bug on Windshield'
p206
aS'AGCAGCAAAAACGCCCAAAGCAGACUAAAAAAAAAAAAAAAAAAAAAAAUGUCAGCAAAGGGACGAAAGCAGCAGACAUGACAAGCAAAAAAAGUAAAAACAAAAAAAGCGUCUAAAAAGUCAGGACCAAAAAAAGGCAAGCAAGACGAGCAGACAAAAAAAAAAAAAAAGUCAAGCAAGUCAAGCAGCCCAGGACUCCA'
p207
aF1.0
aa(lp208
S'Pokeball'
p209
aS'AAAUUAUCUCAAAAUUCAACAGACCAAUCAAGAAAGUAAACAACAAAUAAAAGGAGAGGAGAGCAUCAGGAAGGUCAUAACGAGAUAAAAAAAAAAGUUUGGCAAAAGAGAGCAAGGCUACUGAGCGGGCAAGGGAGACAUCAAAGCAUAAAUCAGCAGCAAGGUGCCGGCAUCGCCAGACAAA'
p210
aF0.9130434782608695
aa(lp211
S'Variation of a crop circle'
p212
aS'AAAAGUAAAAUGGAAAUCAAAACCUACUCAGUAAAGAUUGGAAAUGGAAAAAACGAAAAAAACCCAAAAAAAAACAAAAAAAAAAAAA'
p213
aF0.9545454545454546
aa(lp214
S'Loop next to a Multiloop'
p215
aS'AAGUACGUAAAAAAAAUCACGAGGAAAAAUCAUCGUGGAUGUCAAAGGACAUUCGGUAAAAAAUUAUGUACGA'
p216
aF0.9726027397260274
aa(lp217
S'Snowflake 4'
p218
aS'AGCAUAUAGAUCAUAUCCAAAGGGCUAUUGUUAUACGUAACGGUUAGGCGAGUUAUUCUCAACAUCAAAGAUGGUCUAGAAAAACCGUGUAUGGCUCCCGGAAUUUGUAUCCAUCAAGGAUGAACUGCAAAAGGGGAUACCGGAAGUGGGAGCAGGAUUUCCUAAAGGUUGGCACAUGAAAGUGGAUAUCUAUCAUUGAUAGCCGAACGGAUGUCAAGUGGCUGAAAGUGCUAUAAAUCAAAGAUUAACACCAAAGGUGUAUAGUUGAAAAAAUCGCGUGCAGCGCAAAAGCUAUACUAUUUAUAAUGAGCAUCAAGGGUGGUAUAACGAAACUGCUGCUAAAUAGAUGAAAGGAUAUGCACCAAGGGUG'
p219
aF0.8648648648648649
aa(lp220
S'Mat - Cuboid'
p221
aS'GAUGCAAAACCAAGAAAAAACAAACAAAAUAACUUAUCAAAACGAAGGGAGUAAAAGUAGCAAUCAAUCAAAAGCGGGGAAGCAAGAAAAAGGAAGCAAGCAGGUAAGGAAAAGCAAGGGACCAAGCAUUCAAAAACAAUCAAGAGAGAAAGAAAGCAAAAGUGAGCAAGCAAGCAAGCAACGAAAAGCAAGCAAGCAAGUAAGCAAGGAAAAAACCAAGCAAACAAGCAAGCAAGACGAAGCAAGCAAGAAAGUAAGCGCAAUCAAUCAAUCAACGAAGCGAUAUCAAGGAACCAAGCCCAAACAAGCAAAUAACCAAAAGCAAUCAACCGGAAGCAAGCGUCACAAUGAAGGGGAUGGAAAGCAAGCGCAACCGCUAC'
p222
aF0.9052631578947369
aa(lp223
S'Misfolded Aptamer 6'
p224
aS'AAAAAACACAAAAAGGAUCAACGAAUGAGGAAAAAAACUCUAAAGGAAAGGAUCAAAAAAGGUGAAAAAAAAAAA'
p225
aF1.0
aa(lp226
S'Snowflake 3'
p227
aS'UUCUAAAAAUAAGUCGAGGAAACUUAAUCUCGCAUCAAUACAAAAGUGUACAGGAAAACCUACAAGGUGUUUAAUGGAGUACACAAAAGUGAAGAUCAUAUCUAGACAAAAGUCCACACCAAAAGGUACAACGUACCAAAAGUACCACACAAAAGUGAUGAUAAGAUCAAGCUAAAAAGCGGCAUCAAAAGAGACGAAGUCGCAAAAGCAGCACACAAAAGUGAGGAUCCGAUCUAGACAAAAGUCGACCGCGAAAGCAACAAAGUAGCAAAAGCAUUCCGCAAAAGUGAUGAUCAGAUCACCUCAAAAGGGUACAGUAAAAGCUACAAGUUACGAAAAUGAGUACAUAAAAGUGAAGAUGAGAGGAAGGCAAAAGUCGUCGUGAAAGCGGAG'
p228
aF0.7760814249363868
aa(lp229
S'Hard Y and a bit more'
p230
aS'AAAAUGAGACGAACAUACUAAUGUAUAAUUGAUUCUGCGAGAGUAAAAGCUCAAGAAACUAAAAUGUUUCAAGCUGGAUCGUCUCUAAAAAAAAAAAAAAAAAAAA'
p231
aF0.9716981132075472
aa(lp232
S'Mat - Lot 2-2 B'
p233
aS'GAAGGCAAGAACAAGCAAAAGUAAGAGCGAAAGUAAAAUCGAACGCAGGUAAAAUCGAGCCGAAGCAAGUAAGCUCAUUCAAAACAAAGAUAAGGCAAAAGCAAAAGCCCAAGCAAAAUCAAUUGAUAGUGAUAAAAAUGGAAAUGGCGUGCUCAAGCAAAAGCGAGGCCAAAAGGAAAAUCAAGCUCAAGAAAAAUCUAGAUUAUACAAGCAGGCUCAUCCAAAAGUAAGCUGGAGCAAAAGCAAAAGCGCGACAAAAAACGAACGCUAGAGCAAUGAACAAC'
p234
aF0.8556338028169014
aa(lp235
S'Shapes and Energy'
p236
aS'AAAAAGGUGAUCGGAUCAAAAGGAUGGUCUCGAAAGUGACCUAACGAUCAAGGCAAAAAAACCAAAGGGUUCCAGAUCUCAAAAAAAAAAAAAAAAAAAAA'
p237
aF1.0
aa(lp238
S"Spiral of 5's"
p239
aS'UAAAAGAUACAAGGAUACAAAGAUACUAAAGAUACUAAGAUACGAAGAUACAGGAUACAAAAGAUACAAAGGUACUAAGAUACAAGAUACAAAGAUACAAAGAUACAAGAUACAAAGAUACAGGAUACUGGAGACAAGAUACAACAUACAGAUACAUUAUGUCUUCAAAAAGGAGAAAAACCAUAGAAAAAGUAUCAAAAAGUAUGAAAAAGUAUCAAAAGGUUUCAAAAUGUAUCAAAAAGUAUCAAAAAGUAUCAAAAAGUAUCAAAAAGUAUCGAAAAGUAUCAAAAAGUAUCAAAAUGUACCAAAAGGUAUCAAAAAGUAUCAAAAAGUAUCAAAAAGUAUCAAAAUGUAUCAAAAUGUAUCAAAAAGUAUCAAAAAGUAUCAAAAAAAAAAA'
p240
aF0.9949622166246851
aa(lp241
S'Campfire'
p242
aS'AAAAGGACAAUAGUCAAAAUGCAGCGCUAAAUGCUACCAUGGAAAUCACUCCCACUGGAUGCAGUAUUGGGUAUAAAGGUAAUAGAACAGUCGAGCACCAGCAAAGGCGGGCGGUCAGGCGAAAGCACGAAUCAGGGCACAGUUUCACGACUACACUGACAGACAGCCGAAAGCGGCGUCGUCGGACGUACAAGGUAUCGAUCCUGUGGUCC'
p243
aF0.9433962264150944
aa(lp244
S'Anemone'
p245
aS'AAUGUUAGGGAAACCUGACCAUCCAAAGGGAUGGUAUACGAAAGUAUACGAUACAAAGGUAUCGCUGGUAAAGGCCGGCCAUCAUAAUUGAUGGAUACGAAAGUAUCGGUAGCGAAAGCUGCCACCCACUAAUGUGGGUCAUAGUAAUCUAUGAGGAUCGAAAGAUUCCUGGUCGAAAGGCUAGUCGACGAAAGUCGACUAUACAAAGGUGUAG'
p246
aF1.0
aa(lp247
S'Fractal 3'
p248
aS'AAAAAUCCGAUACAAUGAAAAUCCUAAUCGGGUAUGAAGGCGAAAGCUCAAAAACAGACAGCCAGCAAAAGCGUAAAAACAGGCAGAGAGAAAAGCCUUUAAUAGACUCACGGAAAAAA'
p249
aF0.865546218487395
aa(lp250
S'Kyurem 5'
p251
aS'AAAAAUAAUGUCGAGUAAUUGAGUAAAAACUUCCAGGAAAUACGAAAAAUUCAUUAACAAAAAGGUUUGAGAUGCGACCAGUUGAAAAAAAAAAAAAAAAAAAA'
p252
aF0.9230769230769231
aa(lp253
S'Snowflake Necklace ( or v2.0 )'
p254
aS'AUAUUUAUAUGUAUCAGCUACAGGAAAAACCGCCAAAAAUAUCCGAAAAGGACCAAAAAGGGACAAAAAGGGGUAGCAUACAAAAAGUAAGACACUGGAAAAACCUCGUAAAUCAACAAAAAAGGCGCAAAAAGGCCGAAAAACGGGUGUCGGCCAAAAAGGGAGUUUUAGCAAAAAGCACAGAAAAGGUCCAAAAAGGCCCGAAAAAGAUUAAAAAGAAAUAUCAGACAAAAGAUCAGUUACAGCAAAAAGCGCGAAAAAUAACCAAAAAGGAGCGAAAAGCACCAAAAAGGAGUACCAGUAAAAAAGACAGUGACAGCAAAAAACGUUAAAAGAGAACAAAAAGUGGCAAAAAGGAGGAAAAACGAGUUACAGAUAUAUAUAAAUAU'
p255
aF0.8637532133676092
aa(lp256
S'Methaqualone C16H14N2O Structural Representation'
p257
aS'AAAAAAUGUUCUGAGCAGAAAAAGCAAAUUUAGACACACAAAAGUGGCCGAAACAAAAGUUAGAUAGACAAAAGUCAAACAAAAAAAGUUAGUCACGGAGUCGUACAUUAUCAGCUCGGCACAAAGCACACAAAGGGAAUCUCAAAAAGGAGAGAUAGAGAAAACCCUGCAAAAGCAGCCAAAAGUCAACAGCAAGGGUCUGAAACAGACAGACAAACAUCCACACAAAAAAAGAAAUUUAACGACACAAAAAUGAGGAAGAAAAAAUUCAGCUAGAGAAAAUUCAGUCAGCCUAUAAAAGUGUACAAAAGUAAUAAUAAUUUAGGCGGUCAGACCAAGGUGCAGAGCUAAAAAA'
p258
aF0.9154929577464789
aa(lp259
S"Cat's Toy 2"
p260
aS'AAAUGUAGGCCCAAAAUCAUUAAAAAAAAAAAAAAAAAAAGUUGGGAGUCAAAAGAAAACUGAAUAGAAAAAAAAUAAAAACCGAGGGCUUACUAAA'
p261
aF0.9381443298969072
aa(lp262
S'Zigzag Semicircle'
p263
aS'AAAUGAAACAGAAGAAAAAUCCAUCGUUUCUAAA'
p264
aF0.9411764705882353
aa(lp265
S'Short String 4'
p266
aS'AAAAAAAUCAGUAGCAUGCAAUUUCAUCGAAAGCGAAUAAAAGAUUGACCCAAUGGAAAGAGGGAUCAGAAAUUAUAAAAAAAAAAAAAAAAAAAAA'
p267
aF0.9587628865979382
aa(lp268
S'Gladius'
p269
aS'UGAAAAAUGCAAAGAACGACGACGACAAAAACAGCCAAAGAUCAAAAGAUCGGAUAGAAGAGCCAAAAGAAGGAGAGGACUAGGAUGAGUAGGAUACGCAGAUGCAGAUCCAAGCAAUGUCAAAGAUGAGCUAUGAUCGAUAUCGACGUAUAAUAUUCGUAACUGUCCGACAUUUCAGGGGGCAACAUUAUCAGGCAAAGAUGCAAUCAUAAGACGGUAGAUCUGAAGACCGGGAGUAUGGGAUUAAGCUGGCACACUUUUUAGACAGUGUGCAAAGGCAUACAGGUCAAAAGAAGGUGUACGCUUAAAUUUAUACAAAAGGUCGCAUGAUCAUAAGUCAAAAGAUUGAGAUCAAAAGAUCAAAAUCAGUUAAGGGACAUUAUUAACAAAAUUAAAAAAU'
p270
aF0.895
aa(lp271
S'Thunderbolt'
p272
aS'CCAAGAAUCAAAAAAAAUAGCAAAAAUAAAAAGAAAACAGUAUGUACUAAAAAAAAGUAAAAAAGUACAAAAGGUACGAAAAAACGAUUUAGGGAAAAAAAGAAGGAAAAAUGACAUGUAAGCAAAAAGGAAACGUGACAAAAACGGUAAUUGUAGCAUAAACGGCACCUAAAUCCGGGACCGAAGAAAAAAAAAGACGAAAAUUACAGGAAAAAAAAAAAGGUCAAAAAAAAGUGAAAAAAGUUAGCAAAGCUGACAGCAAACUAAAAAAAAAACCAAGAAAAAAAAAAGGGGCAAAAGCUCUAUAAAAGUGAAAAAAAAAAAAAGAACGGAACACUGAUGUACAUACAAAAAAAAAAGUAAGUAAAAAAAAAAAAAAAUAGGUUCAAGGA'
p273
aF0.9642857142857143
aa(lp274
S'Mutated chicken feet'
p275
aS'AAAAAAAGCAUCAUAAAAUAAACAAAGCAAAGUUCGCUAGUGGAAAAGCAACAAAGUAAAGCGCUUCAGAAGCUAUGCAGUAAAGCAAGUCUCUAAAAAA'
p276
aF0.86
aa(lp277
S'Chicken Tracks'
p278
aS'AAAAAAAAAGUUGUCGGGCAAAAGUCCAUGAUCAAAAGAUCUAGAUGGAAACAUCGACAACUAUGGGGCACAAAGUGCAACAUCAAAGAUGAAGACCAAAGGUCCCCUAAGAAAAA'
p279
aF1.0
aa(lp280
S'Looking Back Again'
p281
aS'UCCAAUACACAUAGAAAGUAUGCAAAGUAUACAGAGCAAUAGCAAAAGACUAUGUCUAGAGAUCGAAAGAGGUAAUUUUCGAAAUUACCAAUGCAAGUGAAGAGCUCCGAAAAGAUGGGAAACUAUCGAACAAGGUGAUAGAAUACGAAGUAUUGAUAUAAAGUACAAUAGGCCCGAAAGGAAGCGGAAGGAGUUGGAAACAGCAACGCAACCAGCAGGUACGAAAGUGAAGCAUAUAAACGAUUGCUCAGACCCAGAUCAAAAAGGUAUACGAAAAAAAAGAGUAAAAAAUUCAGUAAAAUACAGGUCGUACAAAAAAGCUUCGCAGAAAUGUGAGAAAUCGCAAGGGACAUACUAUGUAUGGAGAGCUAAAAGUACGGGUCAAAGGA'
p282
aF0.884318766066838
aa(lp283
S'Multilooping 6'
p284
aS'AAGAUAUCACUUUGUAGAACCAUGGGUUGAAAGCAACCAUGCCCAAUAUUAAUGUAGAUGAACUAAUGGUUUAGCGUAUUAA'
p285
aF0.926829268292683
aa(lp286
S'Cesspool'
p287
aS'AAAGAAGGAAAGGACACAAGAGAGAAAAAUUCAACAGCAAGUGAAGAAGAAAAAAACAGAAUAAAAGGAUAAAAAAGAAAUAACAAUAAUAAGAAUAAAAGAACACAAGAGGGUCAAAGGCAACGAUAGGUGAAUAUUAAAAGAAGCAAAGAAAACAAGAAAAUUAAAAAAGUUAAAUACAAUAAGUAAUCAAUGGAAUAGAGCCAAAGGGAACAGAAUUCGAAGAACAAAGCGACAGAAGAAAACAACAAAAACGAAAACCGAAGUUAGAAAGAAUGAAAGAACCAAUUAGAGAUAAACUCAAAAGCUAUGUAAAAAGAAAACAACAGGAGGAAACAAUAAAAACAAAAGAGCAAGC'
p288
aF0.7625698324022346
aa(lp289
S'Hoglafractal'
p290
aS'AAGAGAAACAUAUAAAAGAGACAAAAAAGUCUCAUAUGCCUCCAAGUCCAAAAAGGUCGAUGAACAAGACAAACCUCGAUAGAUAAGGAUCAAAGAUGAAAAAGCAACGACCGACAAGACAAAAAGUCAUACCAGCAAAAUCGGACAUUAAAAGGGAAGACAAAAAAGUCCCCGCACCAAAAAGGGACACAAAAGUGAGAUACAAAACGAAUCAAAAAAGGUGCACAAAAGGUACCAAAAGGAGUAUACAAAAAAGACAAAAAGGUUCCAAAAAGAAAAAUUUAUUAAGGAUAAAUAAAAAAAGUAUACGAAAAAGUAUCAAAAAAAUGAAAGAUCAAAACAACAAAGGGCAGUUCUAAAGCAAAAUCGGAAAAUUCUAUACAAAGUAUAGUGAAAGCAC'
p291
aF0.8975
aa(lp292
S'Bullseye'
p293
aS'AAGCACGAUUAAGGAUGACGCUCAAAGAGCAAGAUCAAGGAAGGUGAAAAAAAGCAUGAGGGAAUUUCGAAUUUUCUGAGCAAGGAUAAAGAUCGUGAAAAAAAUAUCGGUAUAUAACCAAAAUCAAAGAUCAAUCUCAAAGGAGGAGUGAAAAAACAUGAAGAAGCAUCGGUCGGGAAUCUAAAUAGAAAAUUUCGUGAAA'
p294
aF0.8415841584158416
aa(lp295
S'Shooting Star'
p296
aS'UCAUUCGAGUGUAUCUCGAGGACAAGCGGACAGAAAGCGAAGGACUUACGUCAGACGAGCAAGAGAUACAGUUCGUACAGGUGCGGACAGCUACAGACACAUCAAUAAAAGCCGAUCGGUCGAUAGACGACAGACUGCCAAUGAAAGUAAAGAUUACCCACCAAAGAUACGAGGUGCUAUACCCAUAGAAAAUGGAGGUAAAUGCAAAUCACGUUAAAGCUAUUAAAAUAAUGGCGGAAACAAGGUUUCGACGGUGUGGUUAUGUCACACACCUAGAAGCUUGGCAUUUUCCAAGAACACAGUCUAGUGAAGAGACAUACUAGGAAAAGACAGUAAGUCACAGGAACUUUACGAACAGGAUGGA'
p297
aF0.782967032967033
aa(lp298
S'Teslagon'
p299
aS'AAAAAAACAAAAAAACGGUCAAAAAAAGCAUCAAAAAAAAAAAAAAAGAAAAAAAGCGUGAAAAAAAAAAAAAAACGGGCAAAAAAAAAAAUAAAAAAAGGAAAAAAAAAAAAAAACUAAAAAAAAUUUUUAAAAAGGCUUCAAAAAAAAAAAAAAAGAGCAAAAUAAGUUAAAAAAAAAAAAAUACGGCAAAAAAAUGAAGAAAAAAAGCUAAAAAAAAAAAAAUGCAAAAAAAUCAACGAAAAAAGCAUAAAAAAAAAAAAAAAAGUGAAAAAUUCCUAAAAAAAAAAAAAAAAGGGCAAAAAAAGUAGCGAAAAAAAUAAAAAAAAAAAAGUAAAAAAAAAAAAAAAACGAUAAAAAAAGAAUGAAAAAAAGUAAAAAA'
p300
aF0.8900523560209425
aa.