(lp0
(lp1
S'Simple Hairpin'
p2
aS'GAUACAAAAAAGUAUC'
p3
aF1.0
aa(lp4
S'Arabidopsis Thaliana 6 RNA - Difficulty Level 0'
p5
aS'GAUAUACAAAAGGCAAAAAAAAAAAGCCGAUAUAUCAAGAUAUAUAUAUAUAUAUACAAAGAUACAAAAAAGUAUCAGUAUAUAAUAUAUAUAUAUCAAGAUAUAUCAAGUAUAUC'
p6
aF1.0
aa(lp7
S'Prion Pseudoknot - Difficulty Level 0'
p8
aS'GAUAUCAGAUCAAAAGAUCGAUAAUCAAAAAAAAAA'
p9
aF1.0
aa(lp10
S'Human Integrated Adenovirus - Difficulty Level 0'
p11
aS'UAGAUAUGUGGAUUACUUAUGAAAAAAAAAAGGCUCACGGGGAAGAAAGUGUAUCAGUAACGUUUGUAAUACACAAAAAAAGAUGUCAAACAAAAAAACCGCAUAAAGGUAUCGAAAAACCGCAAAGUAGGCAAAAAAGGCUUGCGAGCAAAAAAAAAAAGCAUAAGGGGUCAAAACACAUAAAAUCUGAAA'
p12
aF0.96875
aa(lp13
S'The Gammaretrovirus Signal - Difficulty Level 0'
p14
aS'AAGAGAGGUUAUCAAAAGAUAACAACGCAAAAAAGACGAAGACAGAUCCUAUCUAAUGAUAGAAAAGAUCGUCCGUUAAGAUAUAUCAAAAGAUAUAUCAA'
p15
aF1.0
aa(lp16
S'Saccharomyces Cerevisiae - Difficulty Level 0'
p17
aS'GAGAUGCGACCAAAAAAAAGGUCAGGGAAAAAAAAAAAAAACCGAAAGCUUUUAAAAUUAGAGCGCAUUUCAAAUUAUAUACAAGAACAAAAAAAAGUUCGGCAAAAAAAAAAAAGGCCAAAAUACUCUAAAAAUGAGUGGUAUAUAUAAUGACAUACAAGAUCAAAAAAAGGAUCGAGAUCAAAAAAAGAUCUCAAAAGGUAGGAAAAAACUAUCGUGUGUCUAAAGAUAUACAAGUUCAAAAAAAAGAGCGUGGUCUAAAAAUGACCACAAAACAUAAUAAAAAUUUAUGGUGUAUCAAAAGAUAUACUAUGCCGAAAAAAAGGUACAUUCUUAAAAAUAGGAUGAAAAAAACGAAAAAAACGUUUGUAUAUCAAAA'
p18
aF1.0
aa(lp19
S'Fractal 2'
p20
aS'AAAAAGAUAUAUGAAGUAUAGAUUUGGAGAUCAAAAAAAAAAGAUCAAGCUCAAAAAAAAAAGAGCGAGAUGAAAAAAAAAACAUCAACAAAUUUAUGAAGUAUAUAUAUCAAGAUCAAAAAAAAAGGAUCGGGAUCAAAAAAAAAAGAUCAGUACGAAAAAAAAAACGUGAAGAUAUAUAUAAAAGAUAUAUUUGAAGGACAAAAAAAAAAGUUCAAGACCAAAAAAAAAAGGUCAAGAUCAAAAAAAAAAGGUCAACAAAUAUAUCAAACAUAUAUCAAAAA'
p21
aF1.0
aa(lp22
S'G-C Placement'
p23
aS'GAUCAAAGAUCA'
p24
aF1.0
aa(lp25
S'The Sun'
p26
aS'GGCCAAGCGGGAAAUUCGAAUCCGCCAAAUGCAGAUAUACAAAGCUUAAAUACACAACCGCAGUUGAGGGAACCUUAAAACGGCAAUGACAAAUGCCCAAGGGGCAAAUGGUCUAAGGCAGAUAAAGAAGGUAUAAACCACAAAGGACAGAUAUCCAAGGUAUAAGUUGUCAACGGCAGUUAUUCGAAGGAUAAGGCGCCAAACGGUGAUACUCGAAAGGUCAAUCGCCAAAGGCAGUCCAACAAAGUAUAAGACGCC'
p27
aF0.7829457364341085
aa(lp28
S'Frog Foot'
p29
aS'AAAAAAAAAAGAUGGAAACAUUGAGCAAAAGUUCGGGCAAAGCCC'
p30
aF1.0
aa(lp31
S'InfoRNA test 16'
p32
aS'CAUAACAGGUGGAUCGAAAGAUCCUGCGCGGUUAUG'
p33
aF1.0
aa(lp34
S'Mat - Martian 2'
p35
aS'GAUCAAAAGAUCAAAGAUAUACAAGAUAUACAAAAAAAGUAUAUCGUAUAUCAAAGAUAUAUGAAAAAAGAUAUACAGAUAUACAAAAAAAGUAUAUCGUAUAUCAAAGAUAUAUAUAUAUCAAAAAAAGAUAUAUAAUAUAUCAAAAAACAUAUAUCAAAGAUAUCUAUAGAUCAAAAAAAGAUCUAUAAAGAUAUCAAAUAUCAAAAGAUG'
p36
aF1.0
aa(lp37
S'square'
p38
aS'GAUAUACCUAUACCUAUAUCCUAUACAAAGUAUAGAAAAGAUAUAGAAAAGUAUAGAAAAGUAUAUC'
p39
aF1.0
aa(lp40
S'Six legd turtle 2'
p41
aS'AAAAAGCAAAAGUAAUCCAAUGGAAACCUUAGUGAAAAACAAUCGAAAAUGUAGCGAAAAUCAAAUUAAAAAGAAAACAAAAAAAAAAAAAAAAAAAA'
p42
aF0.9591836734693877
aa(lp43
S'Small and Easy 6'
p44
aS'UACAUGAAAAAGAAUCAAAAAAAAGCGGUA'
p45
aF0.9333333333333333
aa(lp46
S'Fractile'
p47
aS'AAAAAAAAAAAAUGAAAACGAAAACUAAAGUAAUCUAAAGACCGUUAAUACAAACUGAUCGAAAGAAAUGGAAGAGAAACCAAAAAAAAAAAAAAAAAAAAAAAA'
p48
aF0.9619047619047619
aa(lp49
S'Six legd Turtle'
p50
aS'AAAACACUAAAUGAAAGUCAAAAGGGAAACCAAAAGCAAAAGCAAAAGCAAAACCAAAAUUGAAAAAAAAUGUGAAAACUAAUGUAAAAAAAAAAAAAAAAAAAA'
p51
aF0.9619047619047619
aa(lp52
S'snoRNA SNORD64'
p53
aS'GAUAUCAAAAAGGCAAAAGGCAAAGAUACAAAAAAAAAAAAAGUAUCAAAAGCCAAGCCAAGAUAUC'
p54
aF1.0
aa(lp55
S'Chalk Outline'
p56
aS'AAAAAGGUGACCGUCAAAGGAUCGGGGACAGGGUAAUCCCGUCGGAUAUGUAAUCAUUAUCAGCAGCGAAAGUUCGCCACCGAAAAAAAAAAAAAAAAAAAAAA'
p57
aF1.0
aa(lp58
S'InfoRNA bulge test 9'
p59
aS'GAUAUACAGAGAGAGAUAUACAAAAGUAUAUCCCCGUAUAUC'
p60
aF1.0
aa(lp61
S'Tilted Russian Cross'
p62
aS'AAAAAGAUCUAUAAAAAUAUCGAUUACCUCAAAGAAUGUUGGCAAAGGUUAGACCUAAAAGGGGGGAUCGAUGAAAAUGUCGGUCGAAAAAAAAAAAAAAAAAAA'
p63
aF0.9238095238095239
aa(lp64
S'This is ACTUALLY Small And Easy 6'
p65
aS'AAAAAAAAAAAAAAAAAAAAAAAAAAAAAAAAAAAAAAAAAAAAAAAAAAAAAAAAAAAAAAAAAAAAAAAAAAAAAAAAAAAAAAAAAAAAAAAAAAAAAAAAAAAAAAAAAAAAAAAAAAAAAAAAAAAAAAAAAAAAAAAAAAAAAAAAAAAAAAAAAAAAAAAAAAAAAAAAAAAAAAAAAAAAAAAAAAAAAAAAAAAAAAAAAAAAAAAAAAAAAAAAAAAAAAAAAAAAAAAAAAAAAAAAAAAAAAAAAAAAAAAAAAAAAAAAAAAAAAAAAAAAAAAAAAAAAAAAAAAAAAAAAAAAAAAAAAAAAAAAAAAAAAAAAAAAAAAAAAAAAAAAAAAAAAAAAAAAAAAAAAAAAAAAAAAAAAAAAAAAAAAAAAAAAAAAAAAAAAAA'
p66
aF1.0
aa(lp67
S'Shortie 4'
p68
aS'GUGAAAGCAUCGAAAGA'
p69
aF1.0
aa(lp70
S'Shape Test'
p71
aS'AAAAAGAAAUGAAGAUACAAAAAAAGGUAUCAAGGCAGGCAGAUACAAAAAGUAUCAGAUCAAAAGAUCAGCCGCCAACAUUACAAAAAAAAAAAAAAAAAAAA'
p72
aF1.0
aa(lp73
S'The Minitsry'
p74
aS'GGCAAAAAGGCAAAAAGGCAAAAAGGGAAAAAGGCAAAAAAAAGCCACCCAGCCAGCCGGCC'
p75
aF1.0
aa(lp76
S'stickshift'
p77
aS'AAGAUAUCCCAAAAAGGAGAUAUCAA'
p78
aF1.0
aa(lp79
S'U'
p80
aS'AAAAAGAUACAGAGAGGAGAGAUAUAUACAAAAGUAUAUAUCCCCCCGUAUCAAAAA'
p81
aF1.0
aa(lp82
S'Still Life (Sunflower In A Vase)'
p83
aS'AAGGAUGAUACUCGAAAACCGGGCUGGCAACAUUGGGCUAAGAUACAAAAAGUAUCAAUGGGUAAAAUGUGGAGACAAAAAAUGUGUCAAUUUACAAAACGUAGAAGAUAAAUAUAUACAAAUUUAUACCCGUCAAAAAAGACGGAGACACAAAAAAAAAAAAAGAUGAAAAAAAAAAAAAAAAAAAAAAAAAAAAAAAAAAAAAAAAACAUCAAAAAAAAAAAAGGUGUCCUGUCGAAAGACAGAGUAUAGAUUUGUAUAUAUUUAUCAUGGUAUGAAAACUACCUUUUUACAAAAAGUAAAUAGACACAAAAAGUGUCGAUAUACUAAACUUACGAAGAGACAAAAGUCUCAAUUCACUAAAAAUGAUGCAUCAAA'
p84
aF0.9735449735449735
aa(lp85
S'Quasispecies 2-2 Loop Challenge'
p86
aS'AAGAUAGCCUCUGAAGAUCAAAGGAUUGGUAAAUGAAGUUGAAUCUUCUUCAAAUCAGGGGGUCGAAAAGACAACAAGAUGGGUUUAAAAAAAAAAAAAAAAAAA'
p87
aF0.9809523809523809
aa(lp88
S'Corner bulge training'
p89
aS'AGAUAUCGAUACAAAGUAUCAAAAGAUAUCA'
p90
aF1.0
aa(lp91
S'Spiral'
p92
aS'AAAAAGAUCAGAUAUCAGGCAGAUACAGAUCAGAUCAGGAGGAGGAGGAGGAGGAAAAACCCCCCCCCCCCGAUCGAUCGUAUCGCCGAUAUCGAUCAAAAA'
p93
aF1.0
aa(lp94
S'InfoRNA bulge test'
p95
aS'AAAAAAAAAAAAAAAAAAAAAAAAAAAAAGCCGAAAAAGAGCGUAAUUUUCAAAGAGCAGACACAGUAAUCAAUUUAGCGGCUGUAGGGAUCUAGGGAGGUAAAUUGACUAAAAAAAGAGCG'
p96
aF0.9672131147540983
aa(lp97
S'Worm 1'
p98
aS'AAAAAAAUAUUAUGAGGCAGUGAGAAAAGACGAUAACACUCUGGA'
p99
aF0.9111111111111111
aa(lp100
S'just down to 1 bulge'
p101
aS'AAAAAGUUCAGAUACAAAAGUAUCAGGCAAAAGCCAGACGCAAAAGAUGAGGCAAAAGCCAGGCAAAAGCCACAUCAAAAAAAAAAAAAAAAAAAA'
p102
aF1.0
aa(lp103
S'Iron Cross'
p104
aS'AGGCGGGCAAGCUCAGGCGAAGCCGGGGAAAACCCAGAGAAAGGCAGGCGAAAGCCAGCGAAACGCAGCCAAAGUCAGUAGAAAUGCGGGCAAGGCCAGACAAAGCCACUGAAAUAGAGCCAA'
p105
aF1.0
aa(lp106
S'loops and stems'
p107
aS'AAAAGGAUAAACAAAGAUCAAAGCUCAAAGGUGAAAAAAAAAGAUACAAAAAAAAAAAAGUAUCAAACACCAAAAGAACAAAAAAAAAAGUUCAAAGAGCAAAGGCAAAAAAAAGCCAAAGAUCGAGGAAAAAACCAAAGUUUAUCAAAAA'
p108
aF1.0
aa(lp109
S'Water Strider'
p110
aS'AAAAUGCUGGGGAUCGAAUUGGAAAUAAAAGACAACUUGCAAAAAACAAGGCAAAAGCCCAGAAAACCGAUCAAGAACCUGCUAAAAAAAAAAAAAAAAAAAA'
p111
aF0.941747572815534
aa(lp112
S'The Turtle(s) Move(s)'
p113
aS'AAAGGAAAACCAAAAGAUAUAUACAAAAAAAAAGUAUAUAUCAAAAGGUCAAAAAGAUCAAAAAGGGAAAACCCAAAGAUGCAAAAAAAGCAUCAAAAGGCAAAGGGAAACCAAAAAGCCAAAAGGCAAAAGAUAACAAAAAAAGUUAUCAAAAGGCAAAAGCCAAAAAGAUAUGGAAACGCAAAAAAAGCGGAGGCAAAAAAAAGCCAAAGAUACAAAAAAGUAUCAAAGAUCAAAAAGAUCAACAUAUCAAAAAAAAAGCAAAAGCAAAAAGGGAAACCAAAAAAGAUACAAAAAAAAAAGUAUCAAAAAAGCC'
p114
aF1.0
aa(lp115
S'Adenine'
p116
aS'GAUACGGAUAUCGGAUAUCAGAUAACGGAUAUGAGACAUCAAAAGAUAUCAAAAAAGAUAUCGGAUGUCAGAUACAAAGAUAUACAAAGUAUAUCGUAUCACAUAUCAGAUAUAUAUAUCAAAGAUAUAUAAAGUAUCAGUUAUCAAAAGAUAUCAAAUGAUAUUAAAAGUAUC'
p117
aF1.0
aa(lp118
S'Tripod5'
p119
aS'AAGGUCCCGAAAAAAUCGGGGGUAUAAGACUCGACCGA'
p120
aF1.0
aa(lp121
S'Shortie 6'
p122
aS'GGGAAACCAGCAAAAGCAGGAAAACCGACGAAAGU'
p123
aF1.0
aa(lp124
S'Runner'
p125
aS'AAAAAGAAGAGAUCAAAAACAUCAAAGAUGAGAUCAAAGUCAACACGUCAAAGACCAAGUGCGAUCCAAAGGAAAAUCGAGGCAAAGGCGAAGGCAAAAGCCAGCCACUUCAAAAA'
p126
aF1.0
aa(lp127
S'Recoil'
p128
aS'AAAAAGAUACAAGGAAGGAAGGCAGGGCAAGGAAGCAAAGCACCAGCCAGCCACCACCAGUAUCAAAAAAAAAAAAAAAAAAAAA'
p129
aF1.0
aa(lp130
S'[CloudBeta] An Arm and a Leg 1.0'
p131
aS'AAAAAGGCACAUACAAAAGUCAUGGGCAGGAAAACCGCCAGCCAAAAAAAAAAAAAAAAAAAA'
p132
aF1.0
aa(lp133
S'[CloudBeta] 5 Adjacent Stack Multi-Branch Loop'
p134
aS'GAUACGAUGGAAACAUCGAAUCGAAAGAUUCCCUACUAAUGUAGGCAGCAAAGGCUGGUAUCA'
p135
aF1.0
aa(lp136
S'Triple Y'
p137
aS'AAAUAGGGGCGCCGUUAAAAGUGACAUAGGCUACUAUUGCCAAUUGUUGUAAUCAGCUUUCAAAGGGAGAAUUUCCCGAAAAAAAAAAAAAAAAAAA'
p138
aF0.9072164948453608
aa(lp139
S'Misfolded Aptamer'
p140
aS'GGUGGAAAAAGGGGCAAAGCCAGGAAAACCAAAAAAAAACCAAAAACACC'
p141
aF1.0
aa(lp142
S'Flower power'
p143
aS'AAAAGGACCCAACAAGCUUGAGGUCACACAAAGUGAAUAUUCAAAGGAUUAUGACGAAGUCAGACCCGGCGCAAUAUCGGUCAAAAAAAAAAAAAAAAAAAA'
p144
aF0.9019607843137255
aa(lp145
S'Kudzu'
p146
aS'AAAAAUGAGUAAGUUGGUCCCCGAAGUUAUGCGGCGUGCGGUGUCGAAGACUGCCAAUGCAAGCUCGAACCAUCGGAAGAGGAAAAAAAAAAAAAAAAAAA'
p147
aF0.9603960396039604
aa(lp148
S'"1,2,3and4bulges"'
p149
aS'AAAAAGCAAAUAGUCAAAAGGAAAACUGGGACAAAAACCAUUGUUAAAAGAUGUUGUAAAGUAAACAAAGCAAAAGUUUUAAACCGAAAAAAAAAAAAAAAAAAA'
p150
aF0.9619047619047619
aa(lp151
S'medallion'
p152
aS'CGUAUGGGAUUUCAAAAGAGAUCAUUCAAAAGGGACACGAAAGUCAGAUGUCAAAGGACAUCAGGGAAAACGCGCAGACCUAAUGGUCUGGAUCAAAAGAGACGGGAAACCGAGGUAUGAAAGUAUAUCAGUCAAAAGGAAGGAAUCGAAAGAUUUCGCGUAAACCUGAGGGAAAACCCAGAUAUCGAAAGAUAUCACGUAAAAGCGAUAUACCAAAAGGUAUGAUACGAAAGACUGACUAAAGCCUUAGAUGAAAACAUUUAAGUCAAAACAAGGAUAUCUAAAGAUAUCAGGAAAAAUCCACCCAAAACGGAGCUCGUAAAAGCGAGCACAUAUG'
p153
aF0.913946587537092
aa(lp154
S'[RNA] Repetitious Sequences 8/10'
p155
aS'AGGAAAAAAGGAAAAAACCAAAAAAGGAAAAAAGGAAAAAACCAAAAAAGGAAAAAACCAAAAAACCAAAAAACCAAAAA'
p156
aF1.0
aa(lp157
S'Documenting repetitious behavior'
p158
aS'AAAAAAAGGAAAAAAAAAGGAAAAAAAAAGGAAAAAAAAAGGAAAAAAAAAGGAAAAAAAAAGGAAAAAAAAAGGAAAAAAAAAGGAAAAAAAAAGGAAAAAAAAAGGAAAAAAAAAGGAAAAAAAAAGGAAAAAAAAAGGAAAAAAAAAGGAAAAAAAAAGGAAAAAAAAAGGAAAAAAAAAGGAAAAAAAAAGGAAAAAAAAACCAAAAAAAAACCAAAAAAAAACCAAAAAAAAACCAAAAAAAAACCAAAAAAAAACCAAAAAAAAACCAAAAAAAAACCAAAAAAAAACCAAAAAAAAACCAAAAAAAAACCAAAAAAAAACCAAAAAAAAACCAAAAAAAAACCAAAAAAAAACCAAAAAAAAACCAAAAAAAAACCAAAAAAAAACCAAAAAA'
p159
aF1.0
aa(lp160
S'7 multiloop'
p161
aS'GCCCGAGUCGAAAGACUCGUCUUGAAAAAGACGGUACGAAAGUGCCCUGCAAACGUGCAGGCAGCGAAAGCUGCGGACGGAAACGUCCGGGC'
p162
aF1.0
aa(lp163
S'Kyurem 7'
p164
aS'AAAAAACUCUUCGUCAACGGACCGGCACAAGAGACGCGCAAAGUUGGAGGUUUAAAAUAGUAAGUCCAUCCACGGGAAGGGUGAAAAAAAAAAAAAAAAAAA'
p165
aF0.9607843137254902
aa(lp166
S'JF1'
p167
aS'UGUAGCUAUGUAGAUACAAGAUACAAAAGAUGUCAAGUUACAAAGAAUCAAGAUAUGGGGUAUAUAUAUAUCUAAUGAUAUAUAUAUAUCAGGGCUCAUGCCAGAUAUAUACUAAUGUAUAUAUCGGGGACGUAAUUGUUCACAUAUCAGAUUUAGUAACAGAUAUCAAAGAUAUAUCAAAAGGAUAAUAUCAAGAUAUAUAUAGAUACAUAAAUAUGAAAAUAUAUUUAUGUAUUAUAUAUAUAUCAAAGAUACAAAAAAGUAUCGAUAUAUAUCAAAAGAUAUAUAUCAAUGAUCAAAAGAUCUAGUAUCAAGUAUCAUGUCAGGCACGCAAAAGCGGCCGACAACUAUAUAUCAAAAGAUAUAAUAGGAUAUAAGUAUACAAAA'
p168
aF1.0
aa(lp169
S'multilooping fun'
p170
aS'GCGGCAUAUGAAAGGAGAAAGAAUAUGUAAAAGAGU'
p171
aF0.8333333333333334
aa(lp172
S'Multiloop...'
p173
aS'CACGAGACAUGUUAAAGGACACGUAAACACGGAUCAAAGUAUAUCCAAAAAGAGGGGCAAAUCCAGCGUAAAUCUAAAUCGCGCACAAAAAGGUGCGUUGAAAGCGACGUG'
p174
aF0.9459459459459459
aa(lp175
S'hard Y'
p176
aS'AAAAAGGAUGAAUGUAGUCCGAAAGGGCUAUUAUUCUCUGAGGACGAAAGUUUUCAGAGACUCCAAAA'
p177
aF0.9705882352941176
aa(lp178
S'Mat - Elements & Sections'
p179
aS'AAAAAUCAGCGUAAUGAGCAUCGGCACAGGCUAACGUGUACCAAAGGGUUUAGGAUAAACGUGCAAAAGUUGCUAAGAUCACUGAAAAAAAAAAAAAAAAAAAAA'
p180
aF0.9619047619047619
aa(lp181
S'Chicken feet'
p182
aS'AAAAUUUAAGUUGGAAUCUGCAACUCAAACUGAUUGAGUAUAAAAUGGCGAAAACGAGACCAAAAAA'
p183
aF0.9402985074626866
aa(lp184
S'Bug 18'
p185
aS'AGGGCGGAAAGAAAGCAGCUGGGAAACCAAAGGGCAUCGAACGGCGUAAACGA'
p186
aF0.8867924528301887
aa(lp187
S'Fractal star x5'
p188
aS'AAAAAUAUAUCUGUUUCCUAAAGAGGGUAUUUCAAAAGAGAAAGGGCUAAUGCCCAAGUUGUAAACGGCAUCAGGUAUGAAAAAGCUAGAUGAAGUUUGAAAAAGCGUGCCUUAAUAGGCUAGGUCGAAAGAUCAAUCUGAAAGCAGAGACAUCUAGCAAAAUGACAAAUGAAAAUGUAAUCAUUGAGAACAAAGGUUCGAGAUCAAAAGAUCAAUAGAAAAAUCUGGGCAUUUGUUUAAAAGCUGUAUGGAGACAGAAAUGUCAAGAGCAAAGGUUCAAGAUCUAAUGAUCGACGACGAAAGUUGGACGUAUGGCAAAAACAUUAACGAGUAUCAAAAGAUAAAUGGUGAAAACCGAAGGUAGAAAUACCGGGAUAAAAGUAUCAACGUUGAUGGAAAA'
p189
aF1.0
aa(lp190
S'Crop circle 2'
p191
aS'GCUAUGUGAAGAGAAAAGCCCAAAAAAAACGGAAAAAAAAAAAAAAAAAAAAAAAAAAAAAUAGAAAAAAAAAAAAAAGUAAAAAAAAGCCAAAAAAAACUAAUAUAUAA'
p192
aF0.9636363636363636
aa(lp193
S'Branching Loop'
p194
aS'GGGGUGGAAAAAAACGUCCGAAAGGGCAGGCCUAAAAAAA'
p195
aF1.0
aa(lp196
S'Bug 38'
p197
aS'AGUAGGACGGAGAGCAAAGAAGGGGGGUAAAAGGCA'
p198
aF0.9444444444444444
aa(lp199
S'Simple Single Bond'
p200
aS'AAAAAAGGAAAAAAAUGAUCAAAAAGAUUUAAAAAAAACAAAAAAAAAAAAAAAAAAAAAA'
p201
aF1.0
aa(lp202
S'Taraxacum officinale'
p203
aS'GAUAGAAAGAACCACAUCAAAAGAAUCAAUUCAAAAGAAGUAACUCAAAAGAAGUAGAUCAAAAAAAUAAGACCAAAGGAGUCAGGUAUAUAUACCUAUAUAGAUCAAGGAUCAUAUAUAGAGAUAUAAGACAUCUAUCAAUAUAUACAAAGUAUAUGGGAUAGAUGUCUUGCAUAUAGCUAUGUUAUGGCAGAUAUCGAAGUAUAUAUACCGGAUAUAAUUAAUCAGACCAAAGGAAUAAGAGCAAAGGACUCUCAUCGAAAGAAUCUCUUCAAAAAAAUC'
p204
aF0.8475177304964538
aa(lp205
S'Headless Bug on Windshield'
p206
aS'UUGGGGAAAAAGAAGCAAAGGAGGCAAAAAAAAAAAAAAAAAAAAAAAAAGCCACCAAAGCUAUCAAAGCACCUUGGAAGGAAAGGAAAAAAAGAUAAUCCAAAAAAACCACCAAAAACUCAAGUCAAUAAAAAAGACAAGGAAGGUAAGGAGACAAAAAAAAAAAAAAAGUUGGCCAAACCAACCGGUCAUGUACGGCA'
p207
aF0.96
aa(lp208
S'Pokeball'
p209
aS'AAGUAUGUACAAAAGGAAGGAAGGCAAGGAAGGGAGGAAGGAAGGAAGCAAAGCACCAACCACCACCAACCAGCCACCACCGUAUAUAAAAAAAAAGAUAUACAAAAGGAAGGAACUCAAGUAAGGAAGGAAGGAAGGAAGCAAAGCACCAACCACCACCAAACAGAGACCGCCGUAUGUCAAA'
p210
aF1.0
aa(lp211
S'Variation of a crop circle'
p212
aS'AAAUGGAAAAGGGAAACAAAAAGAAAGUUAGUGAAGUAUGCAAAAACGAAAAAUGAAAAAAAUCAAAAAAAAGUCUAAAAAAAAAAAA'
p213
aF0.9545454545454546
aa(lp214
S'Loop next to a Multiloop'
p215
aS'AAUAUAUAUGUAAAAAAAAGCUAUUGAAAAAUAGCGGAUAUACAAAGGUAUAUCUUGAAAAAUCAUAUAUGAA'
p216
aF0.9726027397260274
aa(lp217
S'Snowflake 4'
p218
aS'GGUCGAAGACACUAUGGGAAAACCGAUACAAAACACGGAAAAACGAUACCACCGAAGGUGAAUCGCAAAGUGGGUGUCAGAAAACUGUGUUAAGGUACGAAAAAACGGUGUCGACAAAGUCGAACAUCUAUGAUGAUAUCGGAAAGCCGUACCAAGUUACGGAAAACCUAUAACUACAAGGUAGACGAUAAAAUGUCAUAUGGGAAAGCCGUAGGAGGAAACUGAAAACGGGGACCUACAAAGUAGAAGAUCAAAGAUCGUCUCGGAAAACCGUUUCAAGAAACGGAAAACGGAUGGGGUCAAGGAUCAAGAGCAAAGCUCCUAUCAGAAAGCCGUUUCAAGUGUCGGUAAUCCCAUAGCCCCUAUGGUC'
p219
aF0.9081081081081082
aa(lp220
S'Mat - Cuboid'
p221
aS'UAGGGAAAAGGAAGGAAAAGGAAAGAAAAGAAGGAAGUAAAAGGUGGGAAGGAAAAGAAGGAAGUAAGGAAAAGGAAGGAAGGAAGGAAAAGGAAGGAAGUAAGGAAGGAAAAGGAAGGAAGGAAGGAAGGAAAAGGAAGGAAGGAAGGAAGGAAGGAAAAGUAAAGGAGGAAGGAAGGAAGGAAAAGGAACUAAGGAGGGAAGGAAGGAAAAAACCAACCAAACGGCUUUACAACCUCAACCAACCGACCAACUAAACCCAACCAACCAACCAACCAGCCCCAACCAACCAACCAACCCCAACCAAACAACCGACCCCAAUCAACUAACCCCAAGCAACCAACCCAAUGAUUCACAACCGACCCAACCCCAAACCCAAA'
p222
aF0.9947368421052631
aa(lp223
S'Misfolded Aptamer 6'
p224
aS'AAAAAAGGCAAAAAAGACCUAGAAAAUGCGAAAAAAAGCAGAAGCGAAAUGGUCGAAAAAAGCCGAAAAAAAAAA'
p225
aF1.0
aa(lp226
S'Snowflake 3'
p227
aS'GUCUGAAAGCGGUGGGGCAAAAGUUAACACUGGGUGAAGGCAAAAGCCUGUAUGAAAGCAGUGGAACAUGGAAAACGAGCGGGUGAAAGCCAGCAUCAGUUGAACGCAAAGGCGGGCACGAAAGUCCCCAAAGGGGUAAAGCUAACGGACAAAAGUCAACAGUGGGUGAAUUCGAAAGGAGGGAGGGAAAUUUCGAAACAACAGAAAUGAAGGGCCUAAUGGCGGCACUAGAUCGAGCUAAAACGCGACAGGAAAACCCGGUAUCUGAGCAAACUAUCCGGUAAAAACCAAGAUCUGAUGAAUUCAAAACGGGGCAUGAAAACACGAAAAUCGCGAAAACUGGCCUGAGAAAGCCAACGACUAGAGGACCCAAAGGCCCCUAAUGAAAAUAGU'
p228
aF0.816793893129771
aa(lp229
S'Hard Y and a bit more'
p230
aS'AAAAAGUUAUUUUGAAACGAAAGUUUACAGGGGCCAUUAAAUUUAAAAAAAUAUGACAGUAAAAUCUGUCUCAAGGGAUUAUAGGGAAAAAAAAAAAAAAAAAAAA'
p231
aF0.9716981132075472
aa(lp232
S'Mat - Lot 2-2 B'
p233
aS'UGAAGAUAGUUUUACUAAAAGGAAUAUCGAAAGAAAAAUGAACCACAUAGAAAAACGUUCACAAGGAAGGAAGGGGAAUGAAAAGCAAGAAUAAGCAAAAGAGAAAUCGCAAGAAAAACUAAGCCCAACCGGUAACAAGUAAAGGCAGAACUGCAUCGAAAAGGAAGAGGUAAUCCAAAAUCAACCCGUGGCAAAAGCGACGGCAACCAACCAACGGUGGUUAUACGGGUGCACAAUGAAAACUCAAACGCGAAAUAAAAGAUACCAGAAGGCCAAGUAACAAA'
p234
aF0.8485915492957746
aa(lp235
S'Shapes and Energy'
p236
aS'AAAAAAUUGGGCGUGAGCAAAGAAAACUUUCGAAAGUGGGUGAGGUCCCCUCGCAAAAAAGUAAAAGUGUACCAGCCUUGGAAAAAAAAAAAAAAAAAAAA'
p237
aF0.9603960396039604
aa(lp238
S"Spiral of 5's"
p239
aS'CAAAAUAUACAAAAAUACAAAGAGACAAAGGAUACAAAGAUACAAAGAUACAAGAUUCGAAAGAGACAAAGAUACAAAGAUACAAGAGCCAAUGCUAAAAAGACCUGAGAUACAAAGAUACAAGAUACAAGAUACUAGGUACAAGAUACAGAUACAGAUAUCGAUCAAAAAGAUUGUAAACAUAUCAAAAAGUAUCAAAAAGUAUCAAAAAGUACCAAAAUGUAUCAAAAAGUAUCAAAAAGUAUCAAAAAGUGCCAAAAAGUAUCCAAAAGUAUCUAAAAGUAUCAAAAAGUAUCAAAAAGUAUCAAAAAGUUUCAAAAAGGAUCAAAAAGUAUCGAAAAGUAUCAAAAAGUGUCAAAAAGUAUCAAAAAGUAUUAAAAAGUAUAAAAAGGAAAAA'
p240
aF0.9949622166246851
aa(lp241
S'Campfire'
p242
aS'AAAAGAUCACGAUACAAGGUUAAUCUUAAAAAAAGAGACACAGAAUAGACUCGAUUGUCGGCAUGAGGAGAAUCUAAUGGCGUCCCCAGGUACAAGAGGAGGUAAGCCCCCGCAUUAGACAAAAGUACACAUGAGGCAAUCGACAGACGGAUCGGCAGAGAGACAGACAAAAGUGUCGUCCUCCUUUAUUCACAGGAAUACAAGAGCCGAUC'
p243
aF0.8726415094339622
aa(lp244
S'Anemone'
p245
aS'AAAAUAAUGGAAAUACUAUGUGAUAAAGAUCACGAUCUGUAAUUAUCGGGGUACAAAGGUCCCGAGCGCGAAAGCGUUCGUCGCUAAGGCAGCUAUCCUAAUGGAUGCUUAACUAAUGUUGAGAGGUACAAAAGUACCACUAGCAAAAGCUAGCCAAGCUAAUGCUUGGAUACCAAAGGGUAUCGGUGAGAAAUUAUUCAUGUCGAAAGACAUG'
p246
aF0.9439252336448598
aa(lp247
S'Fractal 3'
p248
aS'AAAAGCAUGAGGUAGUAAAAACUGGAAACGAUCUUUACAGAGAAUGCUAUAAUUGUCACUGUGAUGAAAGCGGUAAAAACACCGGAACGUCAAAAGAGGGAAACUAGUUGGAAGAAAAA'
p249
aF0.9495798319327731
aa(lp250
S'Kyurem 5'
p251
aS'AAAAGGGUCGAGGCCGAAAGGCACCAAAACUUUCAAUAAAGUGGGAAAUGCGUGCGCGAAAACGUGCAGACGGUACCAAGGGUCAAAAAAAAAAAAAAAAAAAA'
p252
aF0.9230769230769231
aa(lp253
S'Snowflake Necklace ( or v2.0 )'
p254
aS'GAGAUAUAUUCAUACAGACACAGUAAAAAACGUUAAAAAAGAGGUAAAUAUAUGAAAAGCAGGCAAAAACGGGCGUCAGGUGAAAAGUCAGAUACAGGUAAAUCGAGGAAAAACCAAUAAAAACCACGAAAAUACAGGAAAAACAAGUACUUGGAGAAAAUCCUGAAACAGCAAAAGGUAAGAAAAACCAGGAAAAACCAGGAAAAACAAGCAAAAACCGGUUUCGGAAAAAAAUUCGGGUAGAUGAAAAACGAUGAAAAACAAGGAAAAACCACGAAAAACGAGGAAAAACCACUCCCGGUCAAAAAGCCAGAAAAAUCAAAAAGGUGCAAAAACUUGAAAAAAUCAGUAAAAAUCAGGAAAAACCAUUUUCAGUAUGGAUAUAUUUC'
p255
aF0.8508997429305912
aa(lp256
S'Methaqualone C16H14N2O Structural Representation'
p257
aS'AAAAAAAGAUGAGCUCAGGUAGGCAAAAGCCAGGCAGUCUAAUGACAGGGGUGCAAAGGCAACGGACGGAAAAUCGAGACAAAAAAAGUCACCGACCCGGCCAACCAGAACCAGAUCAGACGAAAGGAGGUAAAGGGAACCAAAAAAAAACCAAGGAGGGAAAACCCCGGGAAACCGCAGAAAAACGCUGACCAAAGAUCAGAAACAGGCAGACAGCCUGGGAUGCAAAGUGAAAAAUCAAGGGAGGCAAAAGCCAUUCACGCAAAAGCGUGGCAGACAAAGGUCAGCCGCGCAGGAAAACUCCUAAAAAUAGCCGCAAAAGCGGACAGCCAGAUCAAACGUCUCAUCAAAAAAA'
p258
aF0.9408450704225352
aa(lp259
S"Cat's Toy 2"
p260
aS'AAAUUAUUUAUGAAAAGCAUUAAAAAAAAAAAAAAAAAAGGUAAUGAAAGAAAAUUAAUGGGAAACUUAAAAAAAACCAAAAAGCCAUAAAUAUAAA'
p261
aF0.9587628865979382
aa(lp262
S'Zigzag Semicircle'
p263
aS'AAAAGAAUAGCAAUAAAAAGAGAUAUAUUCGAAA'
p264
aF0.9411764705882353
aa(lp265
S'Short String 4'
p266
aS'AAAAAAGGCGGAAAGAAGAAGGUCGAAGAAAACCUAAACGAAGAUUAACGAAAACGAAGAAAUAAACGUUAACGGAAAAAAAAAAAAAAAAAAAAAA'
p267
aF0.9381443298969072
aa(lp268
S'Gladius'
p269
aS'UAAAAGAUGGAAACUAAGGAGUAAAGGAAGGCAGGCGAAUAUCUAAAGAUAAGGUAGCCGUGGCAAGGGUGAAACAGUUAAAGAGUUAUAUAAGUUAUUAGAUAUAGACGAGCUCAGCGAUAAAGUUGGGAGACUGUCGCUAUCAAAUAGCGAAUAUAACAAGAUAGCAUCAUUACAACAGACUAUAUUAUUAGCUAAAGUCGGGUGUGCGAAUCAAAGCAGCGGAAGUUAAAAAGGUUCACAGGUAACAGAGGAAGAUAUCAGACAGAUAUCUAAUGAUAUCAAGUCGAAUAUACUUGUACGUUACACGUGAAUUGGGUUAGCAUAAGCUGAUAGGGUAGAGGCAUCAGAAUAAAAGUUCAAAGACAGCUUAACAAUGCAACAAUCGAAAAUAGAAAAU'
p270
aF0.905
aa(lp271
S'Thunderbolt'
p272
aS'GGAACUUACAAAAAAAACAGGAACGAGAAAAACAAAAGGGGGUAGUAAAAAAAAAAAAUAAAAUGAUGAAAAGUAUCUAAAAUUAGAAGGAGUCGAAAAAAGAAUAAAAAGAGACAAGGAAGGGAAAAGGAAACAGAUGAAAAAGGAAAAAGGAAGGAAUAUUACCAACAAAAAUCCAGAUCAAACAAAAAAGGGAUAGCAAAGCGGAACAAAAAAAGAAGGAUCAAAAAAAACAUCAAAAAGAGCUCGAAGAGUUCACCAACCAAAAAAAAAAACGAACCAAAAAAAAAGUAGGAAAACGACAUGAAAAGGAAAAAAAACAAAAACGUGUCAAUAUCAAAUACAGAUCAAAAAAAACGCAAGCCACAAAAACAAAAAAAGAGUAAGAACCA'
p273
aF0.9693877551020408
aa(lp274
S'Mutated chicken feet'
p275
aS'AAAAAAAAGACCAUCAAAUAGGUAAAACAAGACCAAAUAUGAGGAAACCAUCAAAGAAAACCAUAGUAGUUACAAACUUUGAAACAAAGCCCUAAAAAAA'
p276
aF0.92
aa(lp277
S'Chicken Tracks'
p278
aS'AAAAAAAGGACCUGCAUUCAAAAGAAUAACAUUAAAGGAUGAACAUCUAAUGAUGGUAGGUUAUGUGAGAUACGUAUUAUGUAGUAUAUAUUAUUCUGAAGGAGGGCUAAAAAAAA'
p279
aF0.9482758620689655
aa(lp280
S'Looking Back Again'
p281
aS'GUGAUGGCCAUCAAAAUAAUAUCAAAGAUAGUAGACGAAGGACGCGACUCAAAGGGGUGAGAUGCAAAGAUAUAAUUAUCGAAAGUAUCAAUCCGAUUCUAGACGGCCAAAAAGAUGCAACAGCAUUAAAAAAGCCGAUAUGUAUUUAUGAUUCCUUAGAAACUAGCUGAUACCCAAAAUGAAGAUGAUGGAGCUCUAAUGAGCGACUCUACCUAUGGGGGCAAAGGCCAAGUAUCAAAAGUAUCAGUCAGGUACAAAUCGAAAAAGGAAGACAAAAAAAAUAGCAAAAAGUUAGUCUAAAUCUAGUGUUAGCAAAAAGUGUUUCGCGAAAGCGAAAAAGAGCUAAAAGAGUGACAAAGUCACGAGGCUCAAAAGCAGGUAUCAAACAC'
p282
aF0.9074550128534704
aa(lp283
S'Multilooping 6'
p284
aS'AUGAGCCAAAUUUACGAAAGUGGGGGUACAAAGGAACUCUAUAUGCGACAAAGGUCGCUAUCGAAAAUAGGCCUGGGCUCUA'
p285
aF0.926829268292683
aa(lp286
S'Cesspool'
p287
aS'GAAGAAGAAAACAAGGAAAGAGACACAAAGCGAACAACAAUCCAAGAAGAAAACAACAUAAGAAAACGAAAAAAAUAAAAGAACAACAACAAGAAAGAAAUAAGGCAAUAGAGGGAAAUGCAACAAAAAGCGAAGAAGAAAACAACAGAAGAAAACAACAAAAGGGAAAUAACAAGAAGGGAGAAGAAAACAAAUAAUGUGAGCCAAAGGCAACUGCUAUACAAGAAGAAAGCAAGGGAAAAAAACAACAAAAAGAAAACAAUAAUCAAGGAAGAGGAAAACAAGCAAAGAGAGACAAAGCAAACAACAACGCAAGAAGGAAUCAAGGGAAGAAAACAACUAAAAGAAAACAACAACC'
p288
aF0.776536312849162
aa(lp289
S'Hoglafractal'
p290
aS'AAGACGGAGAGACAAAAGAUACAAAAAAGUAUCGUUUCGAUCAAAGGUCAAAAAGACCGAUUGGCAAGGCAAAAGCUGCCAGGCAAAUAUGAAAGAUCAAAAAAGAUCCAUCCACAAGGCAAAAAGUCGUCGGAGGAAAACCCGUGAUGAAGAUGUAAGUCUAAAAAGACCCAGGAGCAAAAAGCCCCGCGAAAGCGGGAUACAAAAAGGAGUGAAAAACCCCGGCAAAAGGCUCUAAAAAGAUUAUUCAAAAAAGGCAAAAAAGCCCGAAAAAUGAAAGAUAUACUAUGUAUAUCAAAAAAAGGAUAGAAAAAAGUAUCAAAAACAUAUAAAGCCAAACGAACGAAGAGGAGACGAAAAGCAAAGCACCAAAACGCGAUACAAAGUAGUGACAGCCCGC'
p291
aF0.9175
aa(lp292
S'Bullseye'
p293
aS'AAGGACGAGCAAGAUACAAGAGUGAACAUUUAGAUUAAGGACCUUCAAAAAAAGGAUGAAGAAGGGUGAGGAUAAAAUACGAAGGGAGAAUUCCUUCAAAAAAAGCCCGACGAAAGGUUAAAAUGGAAUAGUAAAAUAUAUUAUCGCCAAAAAAAACAACACGAAACGUGAAAAGAAAGAAUUAAGAAGACGAUUCGUAGAA'
p294
aF0.7277227722772277
aa(lp295
S'Shooting Star'
p296
aS'GAUAUCGAAGGGCAUACUAAGCGAAGGAGUCAUGCAUGUAAUCAGGCAGGGCACACGGUCAUGUAUGCCAGCUUCUGGAGGAGGGGGCAGAUACACGUAGAGGAAGAAAAUACCUUACACGGAUAUACCCCACACAACCAUGGAAAACAAGAGCGAUAGAGAAAAAAUCUCAUUGGAAAAGCUAACGGAAAACACAGAUCACACAAGACAACAUGAAAUAUAAACGAAGUUUAUAAGUGGUAAAGCUACCAUGGUUAUACAAAGUAUAACAAAAAAUAUGUUGUCGCCGAUGAAGGAAACGAAGGGGAAGCGAGGCAGUGCAGGAAAAUACGCAACGCCGCAUCAACACAACCAUCAGAUGUCA'
p297
aF0.8269230769230769
aa(lp298
S'Teslagon'
p299
aS'AAAAAAGUAAAAAAAGGAGCAAAAAAAGGUAGAAAAAAAAAAAAAAAUUUAAAAAAAAAGGAAAAAAAAAAAAAACUACCAAAAAAAACAAGAAAAAAAGUAAAAAAAAAAAAAAAACAAAAAAACUACGGAAAAAAGUAGUAAAAAAAAAAAAAAAACAAAAAAAAUUGGAAAAAAAAAAAAAACCGAAAAAAAAAACAGGAAAAAAACGAAAAAAAAAAAAAAACGAAAAAAAUCAGAAAAAAAAAGAGUAAAAAAAAAAAAAAACCAAAAAAAAAGCAAAAAAAAAAAAAAAGCACAGAAAAAACCAGCAAAAAAACGAAAAAAAAAAAACGAAAAAAAAAAAAAAACGACGAAAAAAACUACUAAAAAAAGCAAAAAA'
p300
aF0.9162303664921466
aa.