(lp0
(lp1
S'Simple Hairpin'
p2
aS'GGGGCAAAAAAGCUCC'
p3
aF1.0
aa(lp4
S'Arabidopsis Thaliana 6 RNA - Difficulty Level 0'
p5
aS'GGGGGGCAAAAGGCAAAAAAAAAAAGCCGGGGGGGCACUAUAUAUAUAUAUAUUUACAAACGGGCAAAAAAGCUCGGGUAGAUAAUAUAUAUAUAUAAAGCUCUCUCAAGCUCUCC'
p6
aF1.0
aa(lp7
S'Prion Pseudoknot - Difficulty Level 0'
p8
aS'GGGGGCACGGCAAAAGCUGGCCACUCAAAAAAAAAA'
p9
aF1.0
aa(lp10
S'Human Integrated Adenovirus - Difficulty Level 0'
p11
aS'AGGAUAUAUAUAUCGGAGGGCAAAAAAAAAAUGGGCCGGAGAGGAAAAAGGUAUAUCAAAAUGCGGGGGGGGGCAAAAAAAAGCUCUCUCUCAAAAGCAGAUAUUAAAGCCCCUAAAACUCUGAAAUAUAUCGAAAAAAGAUAUAGCUCUAAAAAAAAAAAGCUCUCAGAUAAAAAUAUAUAAAAUCUUAAA'
p12
aF1.0
aa(lp13
S'The Gammaretrovirus Signal - Difficulty Level 0'
p14
aS'AAGAGGAGAUAUCAAAAGAUAUUGACGCAAAAAAGGGCAACGCACGGCCGGGCAAAGGCUCGAAAAGCUGGCGGCUCAUCGGGGGGCUAAUGCUCUCUGUA'
p15
aF1.0
aa(lp16
S'Saccharomyces Cerevisiae - Difficulty Level 0'
p17
aS'GUUUGGCCUGCAAAAAAAAGCGGAUAAAAAAAAAAAAAAAAUGAAAAGGGGAAAAAAAAACUUCGCUACGGAAAAGGUUUCCAACGCCAAAAAAAAGGUGCGCUAAAAAAAAAAAUGCGAAAAGGUAGGAAAAAAUUACCGCAGGCCGAAUUGGGGGCAAGGGCAAAAAAAGGCUCCGUGGUCAAAAAAGCCAUGAAAAGGUGCCAAAAAAGCACCGCUCUCGUAAAUGGUCGGAAAGACAAAAAAAGGCCUACCGGUGAAAAAAAGUAGUAAAAUGGGCCAAAAAAGCCCACCGAUCGGAAAGGGGAGUAACUGAAAAAAAAAUCAGCGUGGUCAAAAAAGCUACGAAAUAUGGACAAAAAAUCCAUACUCUCCGAAA'
p18
aF0.9894459102902374
aa(lp19
S'Fractal 2'
p20
aS'AAAAACGGGGGGUAAAUAUAUAUAGUAAUGGCUAAAAAAAAUGUCGAAGGAGAAAAAAAAAAUUCCAACGUGAAAAAAAAAAUACGAAAUUAUAUAUAAAAGUGAGGGGGCAGGGCCAAAAAAAAAAGGUCAAGGGCAAAAAAAAAAGCUCAAGGACAAAAAAAAAAGUUCAAGCUCUCUCGCAAAGGGGGGGGGUGAGAGCAAAAAAAAAAGCUCAGGGCCAAAAAAAAAAGGUCAAUGGGGAAAAAAAAACUCAAAACUCUCUCUCAAAGCUCUCUGAAAAA'
p21
aF1.0
aa(lp22
S'G-C Placement'
p23
aS'GGGCAAAGCUCA'
p24
aF1.0
aa(lp25
S'The Sun'
p26
aS'GUGACGGGGCGAAACGUCAACUGCACAACUGCACGGCGGAAAGUCUGAAUUGGCAAAAUGUACCAGGACGACGUUCAAUGGACGGAGCGCAUGGGCGUAAUGCGCAAAUAAAAAAGCAUACUUAAAUUAUAUUUAAAGUGUGAACCACAACGGAGCAAGGCUCAACCAACGAAAGGCAUAGGGGCGAGGUCCAACUAGCCAAAUUCCAUAGUCCGAAGGUCAAUGUGGAGAAGGCACAGUGUCAAGGGUCAACUGGCC'
p27
aF0.9069767441860465
aa(lp28
S'Frog Foot'
p29
aS'AAAAAAAAAGUAUCAAAAGAUAGUGCUAAUGCACCCGCUAUGCGG'
p30
aF1.0
aa(lp31
S'InfoRNA test 16'
p32
aS'GGGGGCACGGGGGGCAAAAGCUCCACCAGAGCUCUC'
p33
aF1.0
aa(lp34
S'Mat - Martian 2'
p35
aS'GUGCAAAAGCGCAAAGGGGGGCAACGGGGGCCAAAAAAGCUCUCGGCUCUCCAAACGAUAUACAAAAAAGGGGGGCACGGGGGCCAAAAAAGCUCUCGGCUCUCCAAAGGGGGGGGGGGGGCCAAAAAAGCUCUCCACUCUCUCGAAAAAGUAUAUCGAAACGAUAUAUAUAUACAAAAAAAGUAUAUAAAUAUAUCGAAAGGGCAAAAGCUC'
p36
aF1.0
aa(lp37
S'square'
p38
aS'GGGGGGCCGGGGCCGGGGGCCGGGGCAAAGCUCUGAAAAGCUCUCGAAAAGCUCUGAAAAGCUCUCC'
p39
aF1.0
aa(lp40
S'Six legd turtle 2'
p41
aS'AAAAACGGAUUGAAAGUAUAACUGAAAAGGAACCCAAGAAGAGUUAAAAAGAAACCAAAAGGAAGGGGAAACAAAAUGAAAAAAAAAAAAAAAAAAAA'
p42
aF0.9387755102040817
aa(lp43
S'Small and Easy 6'
p44
aS'AUGCGUAAAUUGAACGAAAAAAAAGUAUAU'
p45
aF0.9333333333333333
aa(lp46
S'Fractile'
p47
aS'AAAAAAAAAAAACCAAAAGGAAAGCAAACCAAAAGGAAGCGAAACAAAAGUAAAGCAAGCAAAAGCAAAGCAAGCAAAAGCAAAAAAAAAAAAAAAAAAAAAAAA'
p48
aF1.0
aa(lp49
S'Six legd Turtle'
p50
aS'AAAAAGGAAAAGCAAAAGCGAAACUAAAGAGAAAACUAAAAAGAAAAGCAAAAGUAAAAUGAAAACGAAAAGUAAAAACAAAGUCUCAAAAAAAAAAAAAAAAAA'
p51
aF0.9238095238095239
aa(lp52
S'snoRNA SNORD64'
p53
aS'GGGGGCAAAAAGGCAAAACGCAAACGGGCAAAAAAAAAAAAAGCUCGAAAAGCGAAGCCAAGCUCUC'
p54
aF1.0
aa(lp55
S'Chalk Outline'
p56
aS'AAAAAGGGCAGGGCCAAAAGGACUCACGCACGCAAAAGCGGCGACGGGGCAAAGGCACUCGAGGGGCAAAAGCCACCGCUCGAAAAAAAAAAAAAAAAAAAAAA'
p57
aF1.0
aa(lp58
S'InfoRNA bulge test 9'
p59
aS'GGGGUUCAGAGAGACGUCGACAAAGGUUGACGCCCGAGCUCC'
p60
aF1.0
aa(lp61
S'Tilted Russian Cross'
p62
aS'AAAAUUCACGCCUAAACAACGGCAGAGGGGUAAUUCUUAGUGCACAGGUUCGAGUGCAAAGGCGCGGGUGUGUAAAGAUAUGUCAUAAAAAAAAAAAAAAAAAAA'
p63
aF0.9047619047619048
aa(lp64
S'This is ACTUALLY Small And Easy 6'
p65
aS'AAAAAAAAAAAAAAAAAAAAAAAAAAAAAAAAAAAAAAAAAAAAAAAAAAAAAAAAAAAAAAAAAAAAAAAAAAAAAAAAAAAAAAAAAAAAAAAAAAAAAAAAAAAAAAAAAAAAAAAAAAAAAAAAAAAAAAAAAAAAAAAAAAAAAAAAAAAAAAAAAAAAAAAAAAAAAAAAAAAAAAAAAAAAAAAAAAAAAAAAAAAAAAAAAAAAAAAAAAAAAAAAAAAAAAAAAAAAAAAAAAAAAAAAAAAAAAAAAAAAAAAAAAAAAAAAAAAAAAAAAAAAAAAAAAAAAAAAAAAAAAAAAAAAAAAAAAAAAAAAAAAAAAAAAAAAAAAAAAAAAAAAAAAAAAAAAAAAAAAAAAAAAAAAAAAAAAAAAAAAAAAAAAAAAAAAAAAAAAAA'
p66
aF1.0
aa(lp67
S'Shortie 4'
p68
aS'GCAAAGGCACCGAAAGG'
p69
aF1.0
aa(lp70
S'Shape Test'
p71
aS'AAAAAGUCGGCGAGGGGCAAAAAAAAGCUUCAUGGCACGCACGGGCAAAAAGCUCGACGGCAAAAGCUGAGCGGCCUAGCUGUCAAAAAAAAAAAAAAAAAAAA'
p72
aF1.0
aa(lp73
S'The Minitsry'
p74
aS'GGCAAAAACGCAAAAACGCAAAAAGGCAAAAAGGCAAAAAAAAGCCAGCCGGCGAGCGAGCC'
p75
aF1.0
aa(lp76
S'stickshift'
p77
aS'AACGGGGCCCAAAAAGGAGCUCUGAA'
p78
aF1.0
aa(lp79
S'U'
p80
aS'AAAAACGGGCAGAGAGCAGACGGGGGGGCAAAAGCUCUCUCGCGCCCGCUCGAAAAA'
p81
aF1.0
aa(lp82
S'Still Life (Sunflower In A Vase)'
p83
aS'AAGAGGGUAACUCAAAAAGGCACUAACGCAAUAUGUACGGACGUGCAAAAAGCUCGGAAGACUAAAAAUAAAACUUGGAAAAAUCAGGAACUGGCAAAAAGCCGGAUAUAUAUAGAUAGAUAUAUAUUCCUGGGGAAAAACUUAGACAGUAAAAAAAAAAAAAGGGGCGAAAAAAAAAAAAAAAAAAAAAAAAAAAAAAAAAAAAAAAAGCUCAAAAAAAAAAAAGUACUGCGACCAAAAGGUCGAGGAUAUAUAUUUAUCUAUAUAUAGGGGGGCAAAAAGCUCCAACGGGCAAAAGGUUCGAAGGCGGAAAAGUCGCUAUGGUUAAAAAAGGCACUGUGCGCAAAGGGUUGAAUUGGCUAAAUGUUAGUCCUGAAA'
p84
aF0.955026455026455
aa(lp85
S'Quasispecies 2-2 Loop Challenge'
p86
aS'AAAAAGAGACGGAAGGGAGAAAAUAUCAGAUACGCGCGCUUGAAGUACGUGAAAGCUCUAAUGUAAAAGGCAGGAAUACUAUCUCAAAAAAAAAAAAAAAAAAAA'
p87
aF0.9809523809523809
aa(lp88
S'Corner bulge training'
p89
aS'AGGGGGCGGGGCAAAGCUCCAAAAGCUCUCA'
p90
aF1.0
aa(lp91
S'Spiral'
p92
aS'AAAAAAGGCAGGGGGCUGAUAGGGGUAGGGAUGGGCACCACCACCACCACCACUAAAAGAGGGGGGGGGGGGCCCUCUCGCUCCGUCGCUCUCGCUUGAAAA'
p93
aF1.0
aa(lp94
S'InfoRNA bulge test'
p95
aS'AAAAAAAAAAAAAAAAAAAAAAAAAAAAAGGGGAAAAAACGGCAAAUGGGCAAAGAGCACGAGCAUGGGUAAAUUCACAAGUAUCAAGCAUCAAAGCACCUAAAAGCACGAAAAAACCACCG'
p96
aF1.0
aa(lp97
S'Worm 1'
p98
aS'AAAAAAAAUGAAGAAUCCCAGAAGAAACUAUUAGGAAUUACGGAU'
p99
aF0.9111111111111111
aa(lp100
S'just down to 1 bulge'
p101
aS'AAAAAGGGCAUAUACAAAAGUAUAACGCAAAAGCGAGCACCAAAAGGGCAGGCAAAAGCCAGGCAAAAGCCAGCUCAAAAAAAAAAAAAAAAAAAA'
p102
aF1.0
aa(lp103
S'Iron Cross'
p104
aS'GGGCACUGAAAGGCACGCAAAGCGAGGCAAAAGCCAGCCAAAGGCAGGCAAAAGCCAGGCAAAGUCAGCCAAACGCACGCAAAAGCGAGUCAAAGACAGCGAAACAGAUGCAAAGCAAGCCAA'
p105
aF1.0
aa(lp106
S'loops and stems'
p107
aS'AAAAACGGGGGCUAAGGGCAAAGGGCAAAGUGCAAAAAAAAAGGGGCAAAAAAAAAAAAGCUCCAAAGCACAAAAGGGCAAAAAAAAAAGCUCAAAGCUCAAACGCAAAAAAAAGCGAAAGCUCAACCAAAAAAGGAAUGCUUCUGAAAAA'
p108
aF1.0
aa(lp109
S'Water Strider'
p110
aS'AAAAAGAACCGACCGGCACGCAAAAGCGGGCAAAAGCCGCCAAAAACAGCGCGAAAGCGGGCAAAAGCCACUGGGAAGGAUCAAAAAAAAAAAAAAAAAAAAA'
p111
aF1.0
aa(lp112
S'The Turtle(s) Move(s)'
p113
aS'AAUCCAAAAGGUAAUGGUGGCAGCAAAAAAAAAGCUGUUACCUAAAGUGCAAAAAGCACAAAAGUCUGAAAAGGAAACGGGCCAAAAAAGCUCGAAAACGCAAGGAGAAAUCAAAAAAGGAAAACCUGAAUUGUGUCUAAAAAUGAUAUAUAAACGCAAAAGCGGAAAACGGUGCGAAGCACAAAAAACGUGAACUCAAAAAAAGGGGAAUCGGGGAAAAAGCCUUGUAACCACGAAAAGUUGAAGCACUGAAAAAAAAAGUCAAAGCAAAAAGGAAAAUCAAAAAAGUGGCAAAAAAAAAGGCUACAAAAAGGUG'
p114
aF0.9746835443037974
aa(lp115
S'Adenine'
p116
aS'GGGGCACGGGGCACGGGGCACGGGGCACGGGGCACGGGGCAAAACGGGGCAAAAAAGCUCUGAGCUCUGAGGGGCAAACGGGGGCAAAGCUCUCGGCUCCAGCUCUGACGGGGGGGGGGCAAAGCUCUCCAAACUCUGAGCUCUGAAAAGCUCUGAAAAGCUCUGAAAAGCUCC'
p117
aF1.0
aa(lp118
S'Tripod5'
p119
aS'AGCUGCCGGGGAAAACUUGGGUCGAAAAGAUCGCAGAA'
p120
aF1.0
aa(lp121
S'Shortie 6'
p122
aS'GCUAAUGCAGCAAAAGCAGGGAAACCACCGAAAGG'
p123
aF1.0
aa(lp124
S'Runner'
p125
aS'AAAAACUGCUCCGCUAAAAUGUCGAAGAUAGUCGGUAAUCCGACGGGGCUAUGCCAAACCUUCUUAAUAUUUGAAAAGAAGCGAAACACUGACUGAAAAGAGUCUAAAUGGGAAAA'
p126
aF0.9482758620689655
aa(lp127
S'Recoil'
p128
aS'AAAAAGGGGCAACCAACCAACGCAACGCAACCAGCCAAAGGAGGAGCGAGCGAGGAGGAGCUCCAAAAAAAAAAAAAAAAAAAAA'
p129
aF1.0
aa(lp130
S'[CloudBeta] An Arm and a Leg 1.0'
p131
aS'AAAAAGGCACGGGCAAAAGCACUGCGCACCAAAAGGGCGAGCCAAAAAAAAAAAAAAAAAAAA'
p132
aF1.0
aa(lp133
S'[CloudBeta] 5 Adjacent Stack Multi-Branch Loop'
p134
aS'GUAACCCGAGAAAUCGGCGAUUUAAUAAUCGGUACCAAAGGGUGCGGCUGAAAAGCCGUUGCA'
p135
aF1.0
aa(lp136
S'Triple Y'
p137
aS'AAAAUAUGGGUAAGGACGAAAGUCCUUGAGAAAGUGGCCGAGGAUUGGGAAAGCCUACUCGAAAACGGGUCGUACGCGACAAAAAAAAAAAAAAAAA'
p138
aF0.9278350515463918
aa(lp139
S'Misfolded Aptamer'
p140
aS'GGGCUAAAAUCCGGCAAAGCCAUCAAAAGAAAAAAAAAAGGUAAAUGCUC'
p141
aF1.0
aa(lp142
S'Flower power'
p143
aS'AAAAACUCGCCGAAAGUUAAGCCGCACACAAGGUUGGCCGGGGAACCUGGAUAAUAAGAUAAGAGGAUACCUAUGCUAAGAGGAAAAAAAAAAAAAAAAAAA'
p144
aF0.9019607843137255
aa(lp145
S'Kudzu'
p146
aS'AAAAGUAUAUACGAGAGCCAGGGUACGGAAUGGCACGGGCGAAUAUAUAAUAUGGAGAGCGAAGUCAAAUCAGAGAAGGCCAAAAAAAAAAAAAAAAAAAA'
p147
aF0.8613861386138614
aa(lp148
S'"1,2,3and4bulges"'
p149
aS'AAAAGAGCUGUACCCAAAAGGAAAAGCGGACGUAAUUGUACCAGUAAAUGCGAAGAAUAAUUAAAAAUGGGAAAACCCGUGAAACUAAAAAAAAAAAAAAAAAAA'
p150
aF0.9047619047619048
aa(lp151
S'medallion'
p152
aS'GCGUUGAAUGGGCAAAAGCUCGUUGGCAACCCAAACGUAAAAACGGCGGGGCAAAGGCUCUGAUUCAAAAGCAACGUGGCAAAAGCCAUGAUACGAAAGUGAUGGAAAACCGACCGGCAAAAAUGCCGGGAAAAAAAUAGACGGGCUAAAGAGUCUGAUAUAAAAGCAAGCCAAAGGACCAGGGGCAAAAGCCUUUUGGCGAAAGCCUCACGGCAAAGGCCGUGAGUCAAAGGGCGAUGAAAAGAGGCAGGUCAAAGGAUCUGACGCAAAAACGGCGGUGCUAAUGCACUGACCCAAACGGGAGGACAAGGUCAGGUAGGGAAACUUAUCACAACGC'
p153
aF0.8961424332344213
aa(lp154
S'[RNA] Repetitious Sequences 8/10'
p155
aS'ACGAAAAAAGCAAAAAAGCAAAAAAGCAAAAAAGCAAAAAAGCAAAAAAGCAAAAAAGCAAAAAAGCAAAAAACGAAAAA'
p156
aF1.0
aa(lp157
S'Documenting repetitious behavior'
p158
aS'AAAAAAACGAAAAAAAAAGGAAAAAAAAAGGAAAAAAAAAGGAAAAAAAAAGGAAAAAAAAAGGAAAAAAAAAGGAAAAAAAAAGGAAAAAAAAAGGAAAAAAAAAGGAAAAAAAAAGGAAAAAAAAAGGAAAAAAAAAGGAAAAAAAAAGGAAAAAAAAAGGAAAAAAAAAGGAAAAAAAAAGGAAAAAAAAAGCAAAAAAAAAGCAAAAAAAAACCAAAAAAAAACCAAAAAAAAACCAAAAAAAAACCAAAAAAAAACCAAAAAAAAACCAAAAAAAAACCAAAAAAAAACCAAAAAAAAACCAAAAAAAAACCAAAAAAAAACCAAAAAAAAACCAAAAAAAAACCAAAAAAAAACCAAAAAAAAACCAAAAAAAAACCGAAAAAAAACGAAAAAA'
p159
aF1.0
aa(lp160
S'7 multiloop'
p161
aS'GCAGCGCGCAAAGGUGCGGUUUCGAAAGAAGCGUUCUUAAUGGAACGGCUUUAAUAGGCCGGGGGGAAACUCCCGGGGAGAAAUCCCCCUGC'
p162
aF1.0
aa(lp163
S'Kyurem 7'
p164
aS'AAAAAUGGGGGUUUCAAAGGGGUGCAAAAACUCGGUAUAAAUGGCCGUACGCAAAAAUGUGAAAUACGGGUGUGACCAUCCGCAAAAAAAAAAAAAAAAAAA'
p165
aF0.9019607843137255
aa(lp166
S'JF1'
p167
aS'GGGAGCGGUAUGCGGGCCACAGGCAAAAGGGUAUAACGGGCAAGAGUGCAACUGGGCACGGGGGGGGGGGGUAAAAGCUCUCUCUCUCUGGUGGCAAAGGCCCCGGGGGGGCGAAAGCUCUCUCGAAUGGGUUAAUACUCAAGCUCAGGGCGCUAGCUCGCGUGCUCAAAUGAGGGCUAAAAGAGCACUUCGGAUGGGGGGGGGGGGGGGGGGGGGGUAAAAACUCUCUCUCUCUCACUCUCUCUCGAAAGUAUCGAAAAAGGUACCGGGGGGGGCGAAAGCUCUCUCUGAAGCGGCAAAAGCUGAAGCUUGGAGCUCGAUGUCACGCACGGAAAACCGGCGGACAAGGUGGGGGCAAAAGCUCCACACCAAUACACGUAUCCCAAA'
p168
aF1.0
aa(lp169
S'multilooping fun'
p170
aS'AUUUAGAGGAAAGCACAAUAUUGAGACGAAAACUGU'
p171
aF0.8333333333333334
aa(lp172
S'Multiloop...'
p173
aS'GAUCACGAUGCACGAAACGCAGCCGAAAGCCAAGUAAAAACGGCGAAAAAUUGAUGUUAAUGUAGGGAGAAAUCCAGCAGUCAGACAAAAAAGUUUGAGGUAACUCUGAUC'
p174
aF0.9009009009009009
aa(lp175
S'hard Y'
p176
aS'AAAAACUUCCCGGGUGGUUCUAAUGGACUACAUGGGGACUGGUACGAAAGUACUAGUUCAAGGAUAAA'
p177
aF0.9705882352941176
aa(lp178
S'Mat - Elements & Sections'
p179
aS'AAAAAGGUCAGUAAAAGGCCACUAGCCAGCACAGCACAAGGCAAAGGCCGGAGGCUGGGGACUGCAAUGAGGCCGUGAUCAGGUCGAAAAAAAAAAAAAAAAAAA'
p180
aF0.9619047619047619
aa(lp181
S'Chicken feet'
p182
aS'AAAAACUCCCGCCUAUGAGUUAAAGGAAAUGAAUUGAGCAACAAGGUCUUAAGGGUAAGGCGUAAAA'
p183
aF0.8805970149253731
aa(lp184
S'Bug 18'
p185
aS'AGCACCAGCAGCAACCAACGACCAAAGGAACGAGGAGCAAGCAAGGAAAGGCA'
p186
aF1.0
aa(lp187
S'Fractal star x5'
p188
aS'AAAAUAGCAGGGCAAUAGCAAAAACUAAGUAGUUAAUACUAAACGGCAAAAGUUGAACUGCAAAUUGAGCAGCUUCGAUUAAAAGUGUGGGCGACGGUAAAGACAGAGUAAAAAAGAUUAAUGUGAAAAAUCGCUGCCUCUAAUGAGGAAGUUCAUGCAAAAUUCGGGGUCAGGGCCAAAAGGUCAACCGCGAAAGUGGAACGGCAAAAGUUGAACGGUAAAGACUAAAGAACCCUGUAAAAUGCUAACCUACAGCAAAAGCUGAACGGUUACUGAUAAACUAUUAAUGCAGAAUGGUUAAUACCAAUUCGUAGUGAAAAAAAAUUGGCAAUGGCAAAAGUUAGAAGGCGAAAGCUUAACGGAAAAGUCCAUGCCGAAAAGUCGGAAGUAAGUUAAAAAA'
p189
aF0.87
aa(lp190
S'Crop circle 2'
p191
aS'UUUAUCCAAAAGGUAAAACAAAAAAAAAUACAAAAAAAAAAAAAAAAAAAAAAAAAAAAAGGUUAAAAAAAAAAAAAAGGAAAAAAAACUCGAAAAAAGGUAAUUAAAAA'
p192
aF0.9636363636363636
aa(lp193
S'Branching Loop'
p194
aS'AGUGUGGAAAAAAACGGGCUAAUGCCCAGGCACGAAAAAA'
p195
aF1.0
aa(lp196
S'Bug 38'
p197
aS'GGCUACGAUAACCAGAAAUUGGAGUAAGUUAAUGUA'
p198
aF0.8888888888888888
aa(lp199
S'Simple Single Bond'
p200
aS'AAAAAAGAAAAAAAAUGGUCUAAAUGACUUAAAAAAAGCGAAAAAAAAAAAAAAAAAAAAA'
p201
aF1.0
aa(lp202
S'Taraxacum officinale'
p203
aS'GUGAAAAGGACACAUUACAAAAGACAAAAGGCCAAUGAGACACCGCGAAAGACGGAAGCCAAAAGAUUUACGGGAAAAGACUGAUAUAUAUAUACCGGGGGGGGUUGAAGGUCACUCGUUGGGGGUCAACGGGGGGGGCGGCGGUGACAAAGUUAUCGAGCUCUCUCUGGCGCACGGGGCAAAGCUCUGGCGCGAUCCAAAGUAUAUAUAUAAGGGCGAAAGCCUAACUGCAAAGGACAUGCGCUAAAAAAGUGAUAGCAAAAGACUGAUGCAAAAAGGCUA'
p204
aF0.8829787234042553
aa(lp205
S'Headless Bug on Windshield'
p206
aS'AGGUGGAAAAUGGGUCAAACCAAGCAAAAAAAAAAAAAAAAAAAAAAAAAGUUGCGAAAGCCACCUAACCGGCAAGCAUCACAAGGAAAAAAAGUAAAAGUAAAAAAACUGAGUAAAAAGCUACCGUCAAAAAAACGGAAUCCCUUCACUCAGGCAAAAAAAAAAAAAAAUCUUGGAACGAACAGAAAAGAAGAACUAGA'
p207
aF0.96
aa(lp208
S'Pokeball'
p209
aS'AAAUAGCGAAAAAAGGAACUAGCGCACCCUUCUAACCAAUCGUCUUACCAAAGGUGGUAGGGGUGAGUAGGAGCGAAGUCUUUCGCUGAAAAAAAAAAAGACCAAAAUAUAGCAUCGGGGUGAAUCUGUCGACGGAAUAACUAAAAGGGUGAUGAGGAGAGGCAACAGUCUAUAGGUUUUUAAA'
p210
aF0.8804347826086957
aa(lp211
S'Variation of a crop circle'
p212
aS'AAAAGUAAAACCUAAAAUAAAUCAAUGUCCGAAAGUAAAGGUAAGUUCAAAAAUUCAAAAAUGGAAAAAAAAAACAAAAAAAAAAAAA'
p213
aF0.9545454545454546
aa(lp214
S'Loop next to a Multiloop'
p215
aS'AACGGGGGAGAAAAAAAUUGGGGUCAAAAGGUCUCUGGGAGGCAAAAGCUUUCCGGAAAAAAACUCUCUCGGA'
p216
aF0.9726027397260274
aa(lp217
S'Snowflake 4'
p218
aS'GGCUGAGGGUCUUGGCCCAAAAGGUGGGCAAGCGUUUCAAAGGGGGGGCGUGCAAAGCGCAACGGCAAAGCUGGCUCCCAAAAAUGAAUGCGUGGUGGCCAAAAGGCCUGCCGGCAAGGCCGAACUUCAAGGCAGGCGGGGGAAAAGCGCACUUAGCAGUCCAAAUGGCUGGACCGCAAAGCGGAACGGCUAUGCUGUCUAGCAAAAGGGACUGCAAGGAUUCCAAAAGACGGGCGGUAGAAAACCAACAGCUAUGCUGGCUCGACGAAAAGGGUCCAAGGCGCCCGAAAGGGGGUCGUGAAAAUCUGAAGCGCUAUGCGUGAUCUACGAAAGUGCGCCAGGCUUGUCAAAAGGGCUAGGUGCGAAUAGC'
p219
aF0.8702702702702703
aa(lp220
S'Mat - Cuboid'
p221
aS'CAAUUAAAAGAAAGGAAAAGCAACCAAAAGAACCAACCAAAAGCAACCAACCAAAAGAGCCAACCAACCAAAAGCAACCGACCAACUAAAAGGAACCAUGUAAACAACCAAAACCACUCUCUCACCCUAUCAAAACCACGCACUCGCUGGCUCUCACAAAACCACUCACUCUCUCGCCCCAUCAAAAGCUCGCCCUCUCGCACUGCCUCAAAAAGGAAAUAAAGAAAUAAAGCAGGCGAGUGGAAGAAUGAAGGAAGGGGUAAGAAACAAAGAAAGGACGGGAGAGGCGGAAAGAAUGGGGAAGUAAGUUAGGAAUCGGAAGGAAGGAAGCGGAAGGAAGGAACGGAGGGAAGCGGAAGGUACGAACGACUAAUUUCAAG'
p222
aF0.9315789473684211
aa(lp223
S'Misfolded Aptamer 6'
p224
aS'AAAAAAGGCGAAAAACAGGAACAAAAGUCAAAAAAAAGACAAAGGGAAAAUCUGAAAAAAAGCCAAAAAAAAAAA'
p225
aF1.0
aa(lp226
S'Snowflake 3'
p227
aS'AUCCAAAAAAGAGGCCGCAAAAGCGAAGGGCGGGGAGCCGCGAAAGCGCGCUCUAAAAGGCGCAAAGCGCCAAAAGGUGCGUGCAAAAGCGAAGUCCAGGGCAAAGCAAAAGCGCGCACCAAAAGCAGCAAAGCUGGAAAACUAGCGCGAAAAAUCGAAGCUGAAGGCAACUCAAAAGAGUGCGCCAAAAGGAUUAAAGGUCCAAAAGGAGCAUGCAAAAGCGAAUCCCAGGGGAACGUAAAACCGCGCACCAAAAGGCGCAAAGCGCCAAAAUGAGCGCGUAAAAGCGAAGCUCAGGUCAAGAGAAAAUCACGCGCCAAAAGGCGCAAAGCGUUGAAAGAAGCGCUCGAAAGGAAAGCUGAGCUCAAGGUAAAAGCCGUCACCAAAAGGGAU'
p228
aF0.8320610687022901
aa(lp229
S'Hard Y and a bit more'
p230
aS'AAAAGUCGACCAAACGGCGAAAGUUGAUUGCGGGGGACAACAUCAAAAGGUGGAGGGAUAAAAAAAUUCUAAGUAGCUCGGUUGAAAAAAAAAAAAAAAAAAAAAA'
p231
aF0.9716981132075472
aa(lp232
S'Mat - Lot 2-2 B'
p233
aS'GAAUCCUUAGUUGCUCAAAACAUCUACGAAAGUGAAAAUAAUGGAGAAGAAAAAUAUAUGUCAAACAAACACUUUCUCUCAAAACCUCUAUCGGCCAAAACCAAAAGGGGAAGAAAAAUGAAGGGAAAGACCAGUAAACCAAAAGGGGGCGAUCUGUCAAAAAGUGUACAAAAAUGAAAAUAAAUUGAAGCUAAAAUAAACCUAAGGGAAAAAGGCUUGUCCAAAACCACUAUGACUCAAAAAAAAAAUUAAAGGAAAAAUAAGGGUGUAGGGAAAUGAAAGAU'
p234
aF0.7570422535211268
aa(lp235
S'Shapes and Energy'
p236
aS'AAAAAAAUGGGCGCGGCAAAGUAAAUUGUAGAAAGCGACAGAGGAGCUGAUUUAAAAACUAUCAAAGGGUGGGUGCUCUUGAAAAAAAAAAAAAAAAAAAA'
p237
aF0.9603960396039604
aa(lp238
S"Spiral of 5's"
p239
aS'UAAAAGGGGCUAAUGGGCAAACGGGCAAAAGGGGCAAGCGGGCAAACGGGCAACGGGCAAAAGGGGCAAACGGGCAAGCGGGCAACGGGCAAACGGGCAAACGGGGAAGGGGCAAACUGGCAACGGGCAACGGGCAACGGGCAAGGGGCGCGGACACGGGGGGGGCAAAAAGUCCCAAAAACUCUGAAAAAGUUCGAAAAAGCUCUAAAAAGCUCGAAAAAGCCCGAAAAAGCUCGAAAAGGCUAGGAAAGGCUCUAAAAACCUCGAAAAAGCUCGAAAAAGCUCGAAAAAGCUCGAAAAAGCUCGAAAAAGCUCCAAAAAGCUCGAAAAAGCUCGAAAAAGCUCGAAAAAGCUCCAAAAAGCUCGAAAAAGCUCGAAAAUGCUCCAAAAAGAAAAA'
p240
aF0.9949622166246851
aa(lp241
S'Campfire'
p242
aS'AAAACAGCAAUACCCAAGGGCAACGGCAAAAAGCUGGGGGGCGAAGCCACUCGCGAAGGGGCAUCACCACGAGCUAAUGCAUUCGGGAUGGGCGCAACAACCAAAAGGUGUCGAUGAGUCAAAAGAAUUAGUCAAGCACACAACAGUUAGGUACGCUCGCCUGCACGGCAAAAGCAGGCAGCGGGGGGGCCUAUGGCACCACUCUGCGGCUG'
p243
aF0.9150943396226415
aa(lp244
S'Anemone'
p245
aS'AAAGAACUGUAAUUAGUUCGAUGGGAAACCAUCCUGGCCGAAAGGUUAGCGCGCUAAUGCGCGGCGAACGAAAGUUCGUGUUCCUAAUGGAAUCGGGGUAAUUCCUGGGUUGCUAAUGCGACCAUCUGGUAAUCUAGAGGCGGCUAAUGCCGCCGGGCCGAAAGGCCCGGAUCGGAAACGGUCCGGCGGGAAACCGCCGUGGCGGAAAUGUUAC'
p246
aF1.0
aa(lp247
S'Fractal 3'
p248
aS'AAAAAUGACAAUCAGAAAAGUUGGAAAGGCAGAUACGCAGCAAAGGCGCGAAAGUAGCGGCUUGGCAAAAUCGCAAAAGGAGGGACGUAGUGAAAGCGGUAAUCCAGCGAGCAGAAAAA'
p249
aF0.8823529411764706
aa(lp250
S'Kyurem 5'
p251
aS'AAAAUGGCUAGCCGGAAGGUGGCGAAAAAAGCAAACGAAAUCUUAAAUGAGCGUUUAGGAAAAAUUAAGGUGGCGGCUAAAGCCUAAAAAAAAAAAAAAAAAAA'
p252
aF0.9038461538461539
aa(lp253
S'Snowflake Necklace ( or v2.0 )'
p254
aS'GGGGCGGGGGGGGGCAGGCUCACCAAAAAGGGCACAAAUCGACCGAAAAGGACAAAAACAGACCAAAAAGGAGGGCCAGUCUAAAUGGCAGGGGCGACAAAAAGAACAAAAAAGGAGAAAAAACUACCGAAAAGGACUAAAAAGGAGCUCCAGGCAAAAGGCCAGGGGCUCCAAAAAGGAACAAAAAAUCCCAAAACGGCCCAAAAAGGAACAAAAAGUUGCUCCAUGCAAAAAACGAGAGGUACCAAAAAGGACCAAAAAGGAACAAAAAGGAGCAAAAAGGACCAAAAAGGAGCUUCUGGCAAAAAGUCUAGGGAACCAAAAGGGACCUAAAUGGAUUAAAAAGGACCAAAAAGGACCAAAAAGGAUCUCUAGCUCCCUCCCGUUCC'
p255
aF0.8740359897172236
aa(lp256
S'Methaqualone C16H14N2O Structural Representation'
p257
aS'AAAAAAAGGUGAGGGCAGGCAGGCAAAAGCCAGGCAGUAGAAAUAUAGGCAAACAAAAGUUAUGCACCGAAAACGGACGCCAAAAACGCGAGCAAGCCAGCCGGCCAGAAAUAGCCUAGCUCAAGCCGUGCAAAGCAAAGCAAAAAAAAGCAAGGGACGGCAAAACGCGCUAAUGCGCUCUAAUGCUCUCGGGAAACAGCACAAAGAGGCACGCUCGCGUACAUGGAAAACGCAAAAGCGACCGACGCAAAAGCGAGUAAGGCAAAAGCUAGCGUGGAGAAAUCUUGCGACGCGGCUAAUGCUAGCAAAAGCGACGAAAAAUCGGCGAGCCAGCUGAAGGCUCGUGUCAAAAAAA'
p258
aF0.9098591549295775
aa(lp259
S"Cat's Toy 2"
p260
aS'AAAAGAACGGGUUAAGGGAAUGCAAAAAAAAAAAAAGAAUGUACCAAGGUUAAGCCAAAUGCAAUACGAAAAAAACGGAAAAACCACCCUUCCAAAA'
p261
aF0.9587628865979382
aa(lp262
S'Zigzag Semicircle'
p263
aS'AAAAGACAUAAAGGAAAAUUAUAUAAUGUCGAAA'
p264
aF0.9411764705882353
aa(lp265
S'Short String 4'
p266
aS'AAAAAAACAGGAAACUUUAAAUACUACCAAAAGCAGAAAGAACGCUCUGCAAAGACUAGGAAGAAAAUUGAGAUGUAAAAAAAAAAAAAAAAAAAAA'
p267
aF0.9381443298969072
aa(lp268
S'Gladius'
p269
aS'GGAAACAAGAAAAUGAACAAGGAACGAAUCGCACGCAAAGUGCAAAAGCACAGGGGCAACAUGCAAUAGGCGUGUAGGGCAACAGGGGGGGCACGGGGUACGGUCACGGCAUGAGAAUGCCAAAGGUAACUCUAGCUGGAGUCGGACUCUGGACUCUCUCAAGAGCUCGAAACGUCAAAAGCAAAGGGCUCCAGCGUAAGACACUAUCACAACGCAGAGCGGCAGAACGGCAGAACCGGGGCACGGGGCACGGGCAUGGGGGACUCAGAGGGCAAAAGCUCUCAAGAGUACUUGUGGCUCAGGCUCCAGGCUCUGGACAAGCUGACAAGCUGACGAGCGAGAAGAUGGAGGGCAAAAGCUCAAAGUCGGCGUAACAAUACUAGAAAAAAAACGAAAAAAU'
p270
aF0.89
aa(lp271
S'Thunderbolt'
p272
aS'GUAUCGGGCAAAAAAAAGACUUACCAGAAAAUCGAAAGUUAGGGGGGAAAAAAAAACUUAAAAACUACGAAAAGUGGAAAAAUGGAAUGAACGCAAAAAAACCUCAAAAAGAUAGCAUCACUCAAAAAAAAAAUACGGAAAAAUGUCAAAAAUCGCCUGAAAUAGGAAAGAAAGGACUGGGUAAAUAAAAAAAUUUUUGGAAACUAACUAAAAAAAAAAAAGCUCAAAAAAAAUCUGAAAAGGGUGUUAAAAGUCUCAGAAGGAAAAAAAAAAAAGCAAUCUAAAAAAAACCUCCAAAAGCGGUGCAAAAUAUAAAAAAUUUAAAAGUAUCGAAGAAAAAAGCUCUCUGAAAAAAAACAGGAUGCGCAAAAAGAAAAAAACAGCUCGUAACA'
p273
aF0.9081632653061225
aa(lp274
S'Mutated chicken feet'
p275
aS'AAAAAAAGUAUCAGUGAAUUCGCAAAGCAAAGACGAUAACAUGAGAAGUGGCAAAACAAUGGUAGUUGCGAGGAAACCAGCAAAUCCAGUCGUAAAAAAA'
p276
aF0.82
aa(lp277
S'Chicken Tracks'
p278
aS'AAAAAAAGAGGAGGCCGUCAAAAGACCAAGGGUGAAAACUUGAGUGCAAAAGCGCGCCUCUUAAUGCAUGGAAAUCGAAGGGGCGAAGCUUAACCGUAAAACCGGCAGAAAAAAAA'
p279
aF0.9827586206896551
aa(lp280
S'Looking Back Again'
p281
aS'GUCAAUGCCUGCAAAAGGGGGAAAAAUCUCUCAGCAGAAGGACGCAACGCAAAGCGGCGAUUAUGAAACGCCAAAAGGCGAAAACAUAAGAGCUGAGCGAAGCGCCGCUAAAUCUGGGAAAAUCCGGUAAAAUGCGGGGGCGAGGUAAAACUCACAUCCAAAGGGUGCGGGGCCCAACGCUAACUUUGACUCUUCGAAAGCGAAAUGAGUAGAAAGCGGGUCAAAAGGCAAGCUCUCAAAGAUCCUCGCACGGGCACGGCAAAAAAGUGGGGGCAAAAAAAUAUCAAAAGGAUACCCCAAACGCGGCUGGGUCAAAAAGACGGAGGCAAAAGCUUUCAAGCGCUAAAGGACGGACGAAGCUCGAAGGCGAAAAAGCGCGCUUGAAAGGC'
p282
aF0.8508997429305912
aa(lp283
S'Multilooping 6'
p284
aS'AUAACACGAAGAUUAAAAUUAGUCUGGAGAAAGUUCCAUUCUAAGCAGGUUUUUCUGCUGUGUUAAGUCGUAGUAGGGUUUA'
p285
aF0.9024390243902439
aa(lp286
S'Cesspool'
p287
aS'GAAGAAAGAAAUAAAGUGCCAGAUUGAAAACAAACGAGAAACUAGAUAUAAAAUAAGCGCAUAAAAGAACAAAAAUAAAAAAAAUAUAACUUAAACAAAGGAAUAUAUUAGAUUCAAUGAGAAUAAAUAGUAUGACAUACAAGAAUAUAUUAAACAAAAAAAAAUAAAAAAAAAUAAAUCUGUAACAAAAAAAUUCUGUGAAUCCAAAGGAAACAAAAAGGGAAUCAUAAAAGAAGAUAUUAAAAGAAAAAAAAUUAAUAGAAAAGAAACAUCAAACAAAACAACUCCAGAAAUACAAAGUGAACAGCGACGGAAUAUUAAAAGAAAAGGUGAAAGUAACAAAAAUAAAAAAAAAAGG'
p288
aF0.729050279329609
aa(lp289
S'Hoglafractal'
p290
aS'AUCAGGAACGGGCAAAACGGGCAAAAAAGCUCGGCUCGGCCAAAAGGGCUAAAUGCUCAAACUCCAAGGCGAAAGCUGGAAAACAAAGGGCAAACGGUAAAAAAACUGGCUCGGUAACGCGAAAAGCGACUCCACCUAACGGGGUCUGCAAAAUGCAACACAAAAAAGUGGCAACACCAAAAAGGGUAACAACAGCCGUAUGCAAAAACAACAAAAAAAUGGCCGCAAAAAGCGCCAAAGCGAGGGGGCAAAAAACGCAAAAAAGCGCCGAAAAGGAAUCCUGGGCAAGGUUCAGGUAAAAAAGCUCUCAAAAAAGUAUAAAAAAGCAGUAAAGCGAAAGCAAGCAACAGCACUACGAAGGUAAAAGCAGGAAACUCGGCGCAAAGCGCUGAGUAGAUAG'
p291
aF0.9125
aa(lp292
S'Bullseye'
p293
aS'AAAUCAGGGUAAGACUAAGGGAUCAUAUGCAAGGGGGAAGCUCUGAAAAAAAAACAUGGCUAAGAACCAUGGGCAAGGUUCUAGGGUCAAGUUCACGACAAAAAUAAGGAAGAUGUUCCAAGGUUAAAGAUCAAUGGGAAACCGACUGUAAAAAAAUGUCAUCAAACAUGAGGUUCAAGAGGUAAUGUUUAGGACGACGAAA'
p294
aF0.8415841584158416
aa(lp295
S'Shooting Star'
p296
aS'GGGGGCCCGCGGGGGGAAAACACACUUAGGAACAAACCAAAAGAGUUAGCCCAGAGAGGGGAUCUCUCCACUACCUUUACUCACAGGUACGCGCACGCACCACACUGAAAGAGCGCAGGUGGCCGCAGACCGGAGAAGAAAGCGAAAGAAGUAGGUGCGGGGAAACGCUCGACCAGCAAGGGUGGGGGGAAACAUAGGCCAACGGAGGGCAAGGCAAACGGAGGCAAAGCUUUCGGCGGACAAAGCUCUGCUUGGGGUGGAAACCUCUCCACGGUCCAUGAUCGCCCCCUGUAAGAAAGCCUAGAUCGCUAGAGAAACGGGAAAAAAACGUUGUAGUUCGCAAAAAGUGAACGCAGAUCUCUUA'
p297
aF0.782967032967033
aa(lp298
S'Teslagon'
p299
aS'AAAAAACCAAAAAAAUCAGGAAAAAAAGUUUCAAAAAAAAAAAAAAAGAUAAAAAAACCCAAAAAAAAAAAAAAAGCACCAAAAAAAACAUCAAAAAAAGUGAAAAAAAAAAAAAAGAAAAAAAAGGAGAAAAAAAAGUAUCAAAAAAAAAAAAAAAGAAAAAAAAAACUAAAAAAAAAAAAAAAGCAGUAAAAAAAUCAGUAAAAAAUGGAAAAAAAAAAAAAAGGCAAAAAAAACAGGAAAAAAAGCAUCAAAAAAAAAAAAAAAGAAAAAAAAACGUAAAAAAAAAAAAAAAACAUCAAAAAAACUAGGAAAAAAAAGAAAAAAAAAAAAUCAAAAAAAAAAAAAAAGAAGCAAAAAAACCAGGAAAAAAAGGAAAAAA'
p300
aF0.9109947643979057
aa.