(lp0
(lp1
S'Simple Hairpin'
p2
aS'GAUACAAAAAAGUAUC'
p3
aF1.0
aa(lp4
S'Arabidopsis Thaliana 6 RNA - Difficulty Level 0'
p5
aS'GCGAUGCAAAAGUCAAAAAAAAAAAGACCAGAUCAGUUGAUAUUAUAAUAUGCUCUGAAAGAUACAAAAAAGUAUCACAGAGCAAUAUUAUAAUAUCUUCUGAUCUGAAGCAUCGC'
p6
aF1.0
aa(lp7
S'Prion Pseudoknot - Difficulty Level 0'
p8
aS'AGAGGCAGAUCAAAAGAUCGCCAUCUAAAAAAAAAA'
p9
aF1.0
aa(lp10
S'Human Integrated Adenovirus - Difficulty Level 0'
p11
aS'GAUAGUCUUUGCGAUGCUACUUAAAAAAAAGGACUCUGCGUUGUCGUCGCUGAUAAGAGAAUCACUUGAGUGCCGAAAAAGAGGCGUUCGAGCAAAUGAAUUAUAAAACAAUCGAAAACCGCUUAGCACACUUAAAAAUAGUGUGGGCAACAAAAAAAAAUAGUAGCUUCGCCAAAAGAGACAAAUAUCAAA'
p12
aF0.9791666666666666
aa(lp13
S'The Gammaretrovirus Signal - Difficulty Level 0'
p14
aS'UAGUGUUGCUACCAAAAGGUAGCUUCUCAAAAAAGAUCAAGUCAGAUCCAUAGAAAGCUAUGUAAAGGUCGACGAUCGAGGGAUGUCAAAAGACAUCUCAA'
p15
aF1.0
aa(lp16
S'Saccharomyces Cerevisiae - Difficulty Level 0'
p17
aS'AGCGGAGAGACGAAAAAUAGUCCCGGACCUUCAACCCCCAGUCUAAAGCUUCUAAAAAUGAAGCCUCCGCUAAAAGGGUUGUAAGUUGAAAAAAAACAGCGGCAAAAAAAAAAAAAGCCAAAACUAUUAAAAAAAGAUAGGCAGCUCAAAAUCGUUGCAACGUUAAAAAAAGGACGAGUUUUAAAAAAAAGAGCUAAAACUAUCAAAAAAAGGUAGGCAACGAAAAGGUGAUGUAAGAGCAAAAAAAGGCUCUACGGCUAAAAAUGCCGUAAAAACUAUCGAAAAAAGAUAGACAUCAUAAAGGCGAAGUAAGAUCGAAAAAAAGAUCGUCGGGAAAAAAACUCGGCAAAACUUUCAAAAAAAGAGAGGCUUCGCAAAA'
p18
aF0.9894459102902374
aa(lp19
S'Fractal 2'
p20
aS'AAAAAGCGGUUUCUAAGAGUAUCAUAAAAUGCUAAAAAAAAUGUAUAAGUUCAAAAAAAAAGGGACAAGAACAAAAAAAAAGGUUCAAUGUGAUACUCAAAGUGAUUCAAAUUAGUCAAAAGAAAAAGACUUAUGCCGAAAAAAAAAGGCGGUGCCCAAAAAAAAAAGGGUUUUUUGAGUCGCAAAGAGGAUCAAAAUCGUCAAAAAAAAAGGAUGUAGAUCUAAAAAAAAUGAUCAAGAUCGAAAAAAAAAGAUCAGUUUGAUCCUCAAUGAAAUCGCAAAAA'
p21
aF1.0
aa(lp22
S'G-C Placement'
p23
aS'AGACAAAGUCUA'
p24
aF1.0
aa(lp25
S'The Sun'
p26
aS'CGUAGCCGUCUUAUGCACAAGGCGCGAAAGUCAGUCAUGUAAAGCACAACGCCACGAAGCGAGCGAUGGGAACCAUAACGCCGCAAGGCCAGAGAUGCUAUUCAUAACGCGGUAAAAUCAGCGUUGCUAUGCAUAACGCGAUAAAGUUAUAGACGUAAAGCGUAACUAAACGAGGGCACCGAUUCAAGGCAUAACGGUACAAGGUUAGCGACGUAAAACGUAACGCGUCAAAGGCAGUGUUUCUAUCAAAAACACGCC'
p27
aF0.8527131782945736
aa(lp28
S'Frog Foot'
p29
aS'AAAAAAAAAAAGGCGAAAGCCUGAACAAAAGUUCCCGCUAUGCGG'
p30
aF1.0
aa(lp31
S'InfoRNA test 16'
p32
aS'GCUACGACUAGACUCAAAAGAGUCAUAUGACGUAGC'
p33
aF1.0
aa(lp34
S'Mat - Martian 2'
p35
aS'AGACAAAAGUCUAAAGCAAUGCAAGCGAUGCAAAAAAAGCAUCGCGCAUUGCAAAGCGAUGUCAAAAAAGCGAUGCAGCGAUGCAAAAAAAGCAUCGCGCAUCGCAAAGAUAUUAUAAUAUCAAAAAAAGAUAUUACUAGUAUCAAAAAAGAUAUCGCAAAGAUAUUAUAAUAUCGAAAAAAGAUAUUAAAUAGUAUCAAAGAUCAAAAGAUC'
p36
aF1.0
aa(lp37
S'square'
p38
aS'GCGAUGCGAGGAGCGAUGUCGAUGUCAAAGACAUCAAAAGACAUCGAAAACUCCUCAAAAGCAUCGC'
p39
aF1.0
aa(lp40
S'Six legd turtle 2'
p41
aS'AAAAAGGAAAAGGAAACUAAGGCGAAAGUAAAUCGAAAGAAAAACGAAAGUAAAGCAAAAGCAAACCAAAAGGGAACCGAAAAAAAAAAAAAAAAAAA'
p42
aF1.0
aa(lp43
S'Small and Easy 6'
p44
aS'CUUCGAAAAGCGAAGUGAAAAAAAAGCAAU'
p45
aF0.8666666666666667
aa(lp46
S'Fractile'
p47
aS'AAAAAAAAAAAACCAAAGGCAAAAGAAAUAAAAUUAAAACAAAUGUAAUUGAAGGUAAUAUAACUGAAAUUAAUAGAAAUAGCAAAAAAAAAAAAAAAAAAAAAA'
p48
aF0.9619047619047619
aa(lp49
S'Six legd Turtle'
p50
aS'AAAAACGUAAAAAAAAGAUGAAAGUGAAAACAAAAUUAAAGGGAAAAGUUAAAGUAAAAGAAAAAACGAAACCAAAAACAAAUUUGAAAAAAAAAAAAAAAAAAA'
p51
aF0.9428571428571428
aa(lp52
S'snoRNA SNORD64'
p53
aS'GCUACCAAAAAGUCAAAAGUCAAAGAUACAAAAAAAAAAAAAGUAUCAAAAGACAAGACAAGGUAGC'
p54
aF1.0
aa(lp55
S'Chalk Outline'
p56
aS'AAAAUGAUCGCAUAUAAAGGUAAUGGUAGAGUCGAAAGACGAAAGGGACCGAAAGGAUCUCCGAUAGAAAGUUAGCUGAUUUAAGUAAAAAAAAAAAAAAAAAA'
p57
aF0.9807692307692307
aa(lp58
S'InfoRNA bulge test 9'
p59
aS'GCGAUGCAGAGAGAGCGAUGCAAAAGCAUCGCCCCGCAUCGC'
p60
aF1.0
aa(lp61
S'Tilted Russian Cross'
p62
aS'AAAAUGGUCUCUUAAAGGCAGCCUCAUAUCAAAGGAUAGAACCGAAAGGAUCUUUUGUAAUCAGAGAUGAUGGGAAAGCAUGAUUUCAAAAAAAAAAAAAAAAAA'
p63
aF0.9238095238095239
aa(lp64
S'This is ACTUALLY Small And Easy 6'
p65
aS'AAUAAUAAUAAUAAUAAUAAUAAUAAUAAUAAUAAUAAUAAUAAUAAUAAUAAUAAUAAUAAUAAUAAUAAUAAUAAUAAUAAUAAUAAUAAUAAUAAUAAUAAUAAUAAUAAUAAUAAUAAUAAUAAUAAUAAUAAUAAUAAUAAUAAUAAUAAUAAUAAUAAUAAUAAUAAUAAUAAUAAUAAUAAUAAUAAUAAUAAUAAUAAUAAUAAUAAUAAUAAUAAUAAUAAUAAUAAUAAUAAUAAUAAUAAUAAUAAUAAUAAUAAUAAUAAUAAUAAUAAUAAUAAUAAUAAUAAUAAUAAUAAUAAUAAUAAUAAUAAUAAUAAUAAUAAUAAUAAUAAUAAUAAUAAUAAUAAUAAUAAUAAUAAUAAUAAUAAUAAUAAUAAUAAUAAUAAUAAAA'
p66
aF1.0
aa(lp67
S'Shortie 4'
p68
aS'UCGAAAGAAGGGAAACU'
p69
aF1.0
aa(lp70
S'Shape Test'
p71
aS'AAAAAGGUAUCAAGAUACAAAAAAAAGUAUCAAGUCAGUCAGAUACAAAAAGUAUCAGAUCAAAAGAUCAGACGACAGGAUAACAAAAAAAAAAAAAAAAAAAA'
p72
aF1.0
aa(lp73
S'The Minitsry'
p74
aS'UCGAAAAAGCCAAAAAGUCAAAAGGUAAAAAGCUCAAAAAAAGGAGAUACAGACAGGCGCGA'
p75
aF1.0
aa(lp76
S'stickshift'
p77
aS'AAGCGAUCCUGAAAAAGAGAUCGCAA'
p78
aF1.0
aa(lp79
S'U'
p80
aS'AAAAAGAUACAGAGAGCAGAGCGAUGUAGAAAACUGCAUCGCCGCCCGUAUCAAAAA'
p81
aF1.0
aa(lp82
S'Still Life (Sunflower In A Vase)'
p83
aS'AAAGAUCGAGAACAAAAAGUGUUCAGGAUAGAACUUAUCAGGAUGGAAAACCUAUCAAGUUAUAAUAUAACAAGACAGGAAAAUUGUCGACAGACAAAAAGUCUGGCAGAUCUCAUAUUCUAUGCUAUCGGUCCAAAAAAGGGCCAGUUAAAAAAAAAAAAAAUGAUCUAAAAAAAAAAAAAAAAAAAAAAAAAAAAAAAAAAAAAAAUGAUCUAAAAAAAAAAAGUUAGCGAUGGUAAUUCGUCAGGUGGUAUAGGAUAUGAGAUUUGAAGAUUCGAAAAGAAUCAAGGAGCAAAAAGCUCUAGGUGUGGAAAUCAUACAAUGUAGAAAAGCUACGAAGCUACAAAGGUGGCACGAAGCAAAAGGCUUCAGAUCAAA'
p84
aF1.0
aa(lp85
S'Quasispecies 2-2 Loop Challenge'
p86
aS'AAAAAGCUCCUAUUUGUUCAAAAGAGCUUAUAGUGAUGGACAAAGGAUAUCAGGGCUUGUUGUCAAAAAGACUUCUUGCCCGAGCGAAAAAAAAAAAAAAAAAAA'
p87
aF1.0
aa(lp88
S'Corner bulge training'
p89
aS'AGCUACCCUAUCAAAGAUAGAAAAGGUAGCA'
p90
aF1.0
aa(lp91
S'Spiral'
p92
aS'AAAAAGAUCAGCUACCAGUCAGAUACAGAUCAGAUCAGCAGCAGCAGCAGCAGCAAAAAGCGCGCGCGCGCGAUCGAUCGUAUCGACGGUAGCGAUCAAAAA'
p93
aF1.0
aa(lp94
S'InfoRNA bulge test'
p95
aS'AAAAAAAAAAAAAAAAAAAAAAAAAAAAAACCGAAAAAACUGGGAAGUGGAAAAGUACUUGGGCCGUAGAAAAGCUGACAGCACCUCGUAGCGAGUCACAAAAGACCAAGGAAAAGCGAGUG'
p96
aF1.0
aa(lp97
S'Worm 1'
p98
aS'AAAAAAAUAGUUGUAGUGGAGCAGAAAAUAGGGUGUUGAAGUGAG'
p99
aF0.8666666666666667
aa(lp100
S'just down to 1 bulge'
p101
aS'AAAAAGAGCAGAUACAAAAGUAUCAGUCAAAAGACAGUGUCAAAAGAUCAGUAAAAAUACAGUCGAAAGACAGAUCAAAAAAAAAAAAAAAAAAAA'
p102
aF1.0
aa(lp103
S'Iron Cross'
p104
aS'GGUGAUACGAAGACGGUCGAAAACACUCGAAAGAGGCUAAAGGUGAGUCAAAAGGAGGUGAAAUACUCGCAAAGAGUUUUAAAAGACUGCUAAACAUAAUAAAAAUGAGUGGAAGACGUGCAA'
p105
aF0.9024390243902439
aa(lp106
S'loops and stems'
p107
aS'AAAAAGCGAUGCAAAGAUCAAAGAUCAAAGCUCAAAAAAAAAGAUACAAAAAAAAAAAAGUAUCAAAGAGCAAAAGAUCAAAAAAAAAAGAUCGAAGAUCAAAGUCAAAAAAAAGACAAAGAUCAAGCUAAAAUGCAAAGCAUCGCAAAAA'
p108
aF1.0
aa(lp109
S'Water Strider'
p110
aS'UAAAUCCAGCGAGGCUUAGCGUAAGUGCAUGGAAACGUACCCAGCAGUUAACGAAAGUUGACCAAGUGUAGAUUUGAGCGGGUAAAAAAAAAAAAAAAAAAAA'
p111
aF0.912621359223301
aa(lp112
S'The Turtle(s) Move(s)'
p113
aS'AAAGGAAAAUCAGGGGAGCUCGGAAAAAAAAAGUCCGAGCUCAAAACUAUGAAAAAUAGACACAGCCGAAAUUCAAAGAUACAAAAAAAGUAUCAAAAGCCUAAAUGAAAGUAGGCAGUCAAAAGACAAAAGAUACCAAAAAAAGGUAUCAAAAGGCAAAAGACAAAAAGUUUCUAAAAGUUGAAAAAAGACAAGUCGAAAAAAAGACGAAGAUAGAAAAAACUAUCAAAGAUCAAAAAGAUCAAGGUAGCAAAAAAAAAACAAAAGCAGACAGCAAAGGCAAUAGCGAUACGAAAAAAAAAGUAUCAAAAAUGAC'
p114
aF0.9715189873417721
aa(lp115
S'Adenine'
p116
aS'GAUACAGCUACCAGCUACCAGCUACCAGCUACAAGCUACCAAAAGCUACCAAAAAAGGUAGCAGGUAGCAGAUACAAAGCGAUGCAAAGCAUCGCGUAUCAUGUAGCAGAUAGACUAUGCAAAGCAUAGUAAACUAUCAGGUAGCAAGAGGUAGCAAGAGGUAGCAAGAGUAUC'
p117
aF1.0
aa(lp118
S'Tripod5'
p119
aS'AACAGGCGACUAAAUGUCGGCUCGAAAAGAGCCCUGAA'
p120
aF1.0
aa(lp121
S'Shortie 6'
p122
aS'UCGAAAGAAGAGAAAUCUGGGAAACCUGCGAAAGC'
p123
aF1.0
aa(lp124
S'Runner'
p125
aS'AAAAAGCACAGACAGAAAAUAGCAAGCCCGAUGUCGAUGUGAAUUUAAUGAAAUUAAAGGGGGGUAUGAAAUAAAUCCCACACUAAUUUAAAGUGAAAAUACGGAAGGUUCAAAAA'
p126
aF0.8620689655172413
aa(lp127
S'Recoil'
p128
aS'AAAAAGAUACAAGCAAGCAAGUCAAGUCAAGCAAGCAAAGCAGCAGACAGACAGCAGCAGUAUCGAAAAAAAAAAAAAAAAAAAA'
p129
aF1.0
aa(lp130
S'[CloudBeta] An Arm and a Leg 1.0'
p131
aS'AAAAAGUCACUCACAAAAGUAGAGCAGAGCAAAGGCCUGAGACGAAAAAAAAAAAAAAAAAAA'
p132
aF1.0
aa(lp133
S'[CloudBeta] 5 Adjacent Stack Multi-Branch Loop'
p134
aS'CGAGUAUCCAAAGGGGUGUUCCAAACGGAAUCUUAUGAAAAUAGGCGGUGAAAGCCGACUCGA'
p135
aF1.0
aa(lp136
S'Triple Y'
p137
aS'AAAAUUAUAAUGCGCCUGAAAGGCUCUGCGAAAGUAUGAGCAGUGGCACUAAUGUGUACGGAAAGGCCUUACUUAUAUAAAAAAAAAAAAAAAAAAA'
p138
aF0.8556701030927835
aa(lp139
S'Misfolded Aptamer'
p140
aS'AACUAAAAAAGGGCGAAACGCACGUAAACGAAACCAAAACCGAAAAAGUU'
p141
aF1.0
aa(lp142
S'Flower power'
p143
aS'AAAAGGAACCAAUUAUAUGGGGGUCGGCCAAGGUUCAAGCGCUAUACCCGAUGUGUUCCUUUGAUCAUUGCGAAGCCGGUUCAAAAAAAAAAAAAAAAAAAA'
p144
aF0.9215686274509803
aa(lp145
S'Kudzu'
p146
aS'AAAAACUUAGAAGGAUCGUGUAUUAAUUAUGAGAAUGACAACCCUAAGAAAGUAUCGGGGAAACUAAAAGACAGGCCGAAGGAAAAAAAAAAAAAAAAAAA'
p147
aF0.9207920792079208
aa(lp148
S'"1,2,3and4bulges"'
p149
aS'AAAAGUUCCAGACUCGAAAGAUAAAGACAGUUAAAAAACAGACGAAAAACGGUAAAGUAAACAAACUGCGAUAAUGUCGACAAUCGAAAAAAAAAAAAAAAAAAA'
p150
aF0.9809523809523809
aa(lp151
S'medallion'
p152
aS'GCUACGUCAUCCUAAAAAGGAUGUGCCGAAAGGCGGGUAAAAAUAAGGGACCAAAAGGUUUCAACCAAAAGCUCGAUACAGAAAUGUAUCAGUGGAAACACGGUGAAAAAAAAGCUAGGAAAACCUAGCGGCGAAAACGCACGUACGUAAUUGUACGAACCGAAAGGCACUCAAAGGGGAGCUACAAAAAUGUAGCAGGUAAAAGAAGGCGACCUAAUGGUUGCGGGGAAAACUUAGGCAAAGGUCACCAUCCGAAAGGAUGGAGGAAAAAUCCAUCUGGUAAAAGUCAGAAAACAAAAGUCAUUGUAAACAGAGCUACGAAAACGUAGCACGUGGC'
p153
aF0.9376854599406528
aa(lp154
S'[RNA] Repetitious Sequences 8/10'
p155
aS'AGGAAAAAAGCAAAAAAGCAAAAAAGGAAAAAAGUAAAAAAACAAAAAAGCAAAAAAGCAAAAAACCAAAAAACCAAAAA'
p156
aF1.0
aa(lp157
S'Documenting repetitious behavior'
p158
aS'AAAAAAAGGAAAAAAAAAGGAAAAAAAAAGGAAAAAAAAAGGAAAAAAAAAGGAAAAAAAAAGGAAAAAAAAAGGAAAAAAAAAGGAAAAAAAAAGGAAAAAAAAAGGAAAAAAAAAGGAAAAAAAAAGGAAAAAAAAAGGAAAAAAAAAGGAAAAAAAAAGGAAAAAAAAAGGAAAAAAAAAGGAAAAAAAAAGCAAAAAAAAAGCGAAAAAAAACCGAAAAAAAACCGAAAAAAAACCGAAAAAAAACCGAAAAAAAACCGAAAAAAAACCGAAAAAAAACCGAAAAAAAACCGAAAAAAAACCGAAAAAAAACCGAAAAAAAACCGAAAAAAAACCGAAAAAAAACCGAAAAAAAACCGAAAAAAAACCGAAAAAAAACCGAAAAAAAACCAAAAAA'
p159
aF1.0
aa(lp160
S'7 multiloop'
p161
aS'GGAGGUUAGGAAACUGACGAUACAAAGGUAUCCAGCCUAAUGGCUGCACAGUAAUCUGUGACCAUGAAAGUGGUGCUUCAAAGGGAGCCUCC'
p162
aF1.0
aa(lp163
S'Kyurem 7'
p164
aS'AAAAGGUGUUGUUUGGAAACGAACCCAAAACGGAGGAUAAAUUCCGACCCCUGAAAAAGGGAAAGAUUCCUCGGAUAAACACAAAAAAAAAAAAAAAAAAAA'
p165
aF0.9803921568627451
aa(lp166
S'JF1'
p167
aS'GAUAGACAAUGAGAUACAAGAUACAAAAGCUACCAAGAUACAAAGAUACAAGCUACUGCAGAUCAUAUCAUCAAAAGAUGGUAUGAUCUGAAGUCAAAAGACAGCGAUGUAGAAAGCUACAUCGCAAGAUACAAAAGUAUCAGGUAGCAGUAUCAGUAUCAGGUAGCAAAACGAUGUCAAAAAGACAAUCGUAAGAUAUUAUAAGAUGCUCUGCUAUCAAAAGAUAGUAGAGCAUUAUUAUAAUAUCAAUGAUACAAAAAAGUAUCCAUGUACAUGAAAGCAUGUACAUGAAACUAUGAAAGUAGGAGUAUCAAGUAUCAGAUCACUCAGUCAAAAGACGAGGAUCAGCGACGUAGAAAACUACGUUCGCACAUUAGUCAUAUCAAA'
p168
aF1.0
aa(lp169
S'multilooping fun'
p170
aS'UAGAGUGGUGAAAAAGAAAGCACUAUAGAAAACAUC'
p171
aF0.8888888888888888
aa(lp172
S'Multiloop...'
p173
aS'GCUCAGAUCAGGGAAAACUCAGCGAAAACGCAGACGAAAGUCAGUCAAAAGACAGUCAAAAGGCAGACGAAAGUUAGAUCAGAUACAAAAAAGUAUCGCCAAAAGGCGAGC'
p174
aF1.0
aa(lp175
S'hard Y'
p176
aS'AAAAAGAACAUCGCGAUUUCUAAUGAGAUCGCCAUCUUUGCAUAGGAAAUUAUGUAAAGUCUCGAAAA'
p177
aF0.9705882352941176
aa(lp178
S'Mat - Elements & Sections'
p179
aS'AAAAAGUUCUGUAAAUAACGAGAGGUGAGCAUAGCAGCAGUCAAAGGACGGACGCUAGACCGUCAAAAUGCGUUUUGAUGUGAGCGAAAAAAAAAAAAAAAAAAA'
p180
aF0.9619047619047619
aa(lp181
S'Chicken feet'
p182
aS'AAAAAUAAAGUGCGAAUGUUGAAGUCAAGAGUCAGGAACACUAAAAGAUCGAAGAGAAGCUCCAAAA'
p183
aF0.8805970149253731
aa(lp184
S'Bug 18'
p185
aS'GUAGCCUCUAUAUAUUUACGGGGAAACCAGUGUAUUUUGAAGUAUGAAAAUAA'
p186
aF0.9622641509433962
aa(lp187
S'Fractal star x5'
p188
aS'AAAAAGUGAUUUCAAGAGCAAAGGUUUAAGAUCAAAAGAUCGAGAUCAAAAGAUCAAGCUGUAAUUAGCAAGAGAUCGCAAAAAGAGUUGUCAAUAUGUAAUCAUAAAGAUCAAAGGAUCGAGCUUGAAAGAGCAACACGAAAUUGUGAAGACAGCUCAAAAAGUUACGUCAAGGCCAAAAGGUCAAGAGCUAAUGUUCAAGACGAAACUGUCAAGAGAAAAAUUUCACGACGUAACAAAAAGUAAAGUCAUGAGUGAAAGCUCUAAAUCAAAAGAUUAAGAUCAAAAGAUCAUGCCUGAAAAGGCUGGACUUUACAAAAAGAAAUGUCAAGAUUCAACGAUCAAGAUUAAAAAAUCGAAACUAAAAGGUUAACAUAAAAGUAUGAGGACAUUUCAAAAA'
p189
aF1.0
aa(lp190
S'Crop circle 2'
p191
aS'AAUAAUCAAAUUGAAAAAGCUAAAAAAAAGAGAAAAAAAAAAAAAAAAAAAAAAAAAAAAAUCAAAAAAAAAAAAAAUGUGGAAAAAAGUGGAGAAAGUAGAAUUCGGAA'
p192
aF0.8909090909090909
aa(lp193
S'Branching Loop'
p194
aS'AGUGGCUAAAAAAUCGACGAAAGCGUCAACUGUGAAAAAA'
p195
aF0.95
aa(lp196
S'Bug 38'
p197
aS'GCAAGCAGAUGCACUAAAGAUGUCCGAGUUCGGACA'
p198
aF0.9444444444444444
aa(lp199
S'Simple Single Bond'
p200
aS'AAAAAAGGAAAAAAAUACCGAAAAACGGUUAAAAAAAACAAAAAAAAAAAAAAAAAAAAAA'
p201
aF1.0
aa(lp202
S'Taraxacum officinale'
p203
aS'GAUCAAAGGAAUCAGAGCAAAAGACCCUGAACUAAUGAUUCAGAUCAAAGGAAACUGCUGAAAACAAGCAGGUCAAAAGGAACGCAUAGACUAUUGAUAGACGCACAAAGUGCAGUCUAUCAAAUUCAAGAGGGUCAUAAAUCUAUGCUAUGCAUAGAGUAUGACCUUCGAUCACCUAGCAAGGCUAGGGAUCGAAUUAAAAAUAGUCUAUGAGGGCAAAAUACCCAGGUAGAAAGGAUAAGCUGAAAAGGAGCGGGGCAAAGGAACCAGAUAAAAAUGAGC'
p204
aF0.900709219858156
aa(lp205
S'Headless Bug on Windshield'
p206
aS'AGUAAAAAAAGGAUACAAAUCUCUCGAAAGCAAAAAAAAAAAAAAAAAAAGAGUGGAAAGUGUUCAACCCGACACGCAUAUCAAUGUAAAAAAUUAAAAGAGAAAUAUCGCAUUAAAAAGUCUCAUCGAAAAAUAGGCAGGUGAUUCUUGCUAUCUCACCCCCCCCCCAAGAUUAGUAUGAAGAGCAGCUACGGCAAUCU'
p207
aF0.9
aa(lp208
S'Pokeball'
p209
aS'AAAUAGAAUCAAAAGGGACUAUGGCAAGCUCAUAAUCGACGAUGUUAUUAGAGAUACAUCCGCCGAUAUGCGGCCUAAACCGGUUCUAAAAAAAAAGCGGCGGAAAACUUACCAUUAUGAGGUGGGAAGCAAGAUUUGAGUGUAUAGGCCUUUCGGCACCAUUCAGUAUGGUGCCCGCUGUAAA'
p210
aF0.9130434782608695
aa(lp211
S'Variation of a crop circle'
p212
aS'AAAAGGAAAUGAAAAAUUUAAAGAAAGCGUCUGAAAGUAACAAAAGAAAAAAUAAAAAAAAGACUAAAAAAAGACAAAAAAAAAAAAA'
p213
aF0.9090909090909091
aa(lp214
S'Loop next to a Multiloop'
p215
aS'AUGCGAUAUGGAAAUAUGGGCUACCUAAUGGUAGCAGCGAUGUAAAAGCAUCGCGCUAAAAAACAUAUCGCUA'
p216
aF0.9726027397260274
aa(lp217
S'Snowflake 4'
p218
aS'GAUUAAAAAUGUUUUGGCAAAAGCAGUCUAAGAUUGCCUAAUGGACUGAGUUCAAACAACAAGAUAAAAGAACUCAGUUGGAAACGCGGUCGAGAUAAAGAAAGUACCAUCGUCUAAAAGACAAUUUGAAGUAGAGACCCAGAAAGCUCUCUCGUGAGACUGAAAACAGCAUGGUCCAAAGGACAAUAGCGAAGUUACUUGUAGAAACCAGUCUUUAGAUCUAGGAAUCUGCUUCCUUAGAAUGACAAGAUAGAAUAUCGAUGCUGCAAGUUGUAUUGAGAUGGCCGAAACGGGGGGGGUUAAAAACCCACCACGAAGUAGCCCUCCAGAAACUCUAUCAAAGGCUGCAAAAGCCGAGACAAUAAGAUUG'
p219
aF0.8243243243243243
aa(lp220
S'Mat - Cuboid'
p221
aS'GAUGGAAAAGGAAGCAAAGGGAAGCAAAAGAAGGAAGCAAAAGGAAGGAAGGAAAAGUAGGUUGGAAGCAAAAGGAAGGAUGGAAGCAAAAGUAAGGAUGGAAGAAUGCAAAAGCUUCCUUGAUUGCUUGCAAAAGAUUGCUUGCUUGCUUGCUUCCAAAAUCUACCUUCCUUCCGUGCUUGCAAAACCUUGUUUGUUUCCUUUGUUGCGAAAAAGCUUCGCUGGUUACUGACUUGGGCUUGCUAGGUUGGUUGGGUGGGGUUGCUUGCUUGCUUGCUUGCGCUUGCUUUCUUACUUGCGCUAGCUACCUACCAAACGCGACCUACCUAUCGCUACCUUCCUUCGCUACCGGCCGCUACCAACGCUACCGUUACCUCUAC'
p222
aF0.8526315789473684
aa(lp223
S'Misfolded Aptamer 6'
p224
aS'AAAAAAGAAAAAAAUUCUAGGGACCUGCCGCAAAAAAGGUUAAGCAAAAAUAGAUAAAAAAUUCGAAAAAAAAAA'
p225
aF1.0
aa(lp226
S'Snowflake 3'
p227
aS'GUCGGAAAGACUCCUCUCAAAGGAGCAGAUGACAGCAAGUCAAAAGACACUGGCAAAAGUUUCAAAGAAACUAAUGCAAGUGGCAAAGGACAGGUUGGGGUCAAGUUGAAAGACCUCGGCGAAAGCUACGAAGUAGCAAAAGUAGAGGUGAAAGGACAAGAUCUUUCCAAGCCUAAUGGACUGGGCAAAAGCUGCAAGCCGGCAAAAGCAUAGGUCGAAAGACAAGGAGUGAGGAAGUUGAAAAACGUUAGCAAAAGCCUGUAUCAGGCAAAAGCAAAUGUAUAAUGGUAAUUUCGGGUCGAGUGAAAGCACAUAAGCAAAAGCUACAAAGUAGCAAAAGCAUAUAUAAAAAUAUAAGAUCACAUCAAUUCAAAAGAAAGGUGCAAAAGCGAC'
p228
aF0.8473282442748091
aa(lp229
S'Hard Y and a bit more'
p230
aS'AAAAUUAUCCCGGGAUACAAAAGUAUACAGAGUGCAGCAACAUGAAAAUAUGGAGAUUCAAAAAGGGAUCGAGCGGCACUGGAUGUAAAAAAAAAAAAAAAAAAAA'
p231
aF0.9716981132075472
aa(lp232
S'Mat - Lot 2-2 B'
p233
aS'GAAGGCUUGAUCUUAAAAGAGCUUGAUCUAAUGGAGAAUCUUGCGUAUGGAAAAGGGUCCUGAAGAAACCUGGGGUUUGUAAAAGAUUGAUGUAGCAAAAGCAAAAGCGCAUCAAAAAUCUUUCACUUGCCUUGUGAAGCUAUCGCGCUAAAUCUUGCAAAAGCUAGAUGUAAUAAAAAAUCGCGUGCUUGAAAAAUCGAUCCAAUGGAACCAGACGCUUGGAAAAGGUCCGUCUUUAUAAAGAAAAAGCUAUUAAAAAAGGUUUCCCUUGCGGUGCAAACAGC'
p234
aF0.7183098591549296
aa(lp235
S'Shapes and Energy'
p236
aS'AAAAAAGUUGGUACGCCAUAAUGAAACUCAAGAAAUGAGGUGAAAGUCGAUGGAAAAACUGCAGAAAUACAUGAGCUAUCGAAAAAAAAAAAAAAAAAAAA'
p237
aF0.9603960396039604
aa(lp238
S"Spiral of 5's"
p239
aS'CAAAACGUACAAAGAUAGAAAGAUAGAAAAGAUACAAAGAUAGAAAGAGAGAAGAUACGAAAUAUACAAAGGCAGAAGGGUAGUAGAUACAAUGAUAGAAAGAUAGAGUAUACAAUGAUAGAAGCUUCAAGCUACAAGAUACAGGAUACAGAUACAGACGAGAGACAAAAAGUCUUGGGGGUCGUCGAAAAGUAUCAAAAGGUAUCAAAAAGUAUCAAAAAGUAGCAAAAGGAAGCAAAAACUAUCUAAAAGUAUAAAAAACUAUCAAAAACUAUCUAAAAGUAUCAAAAUCUACUAAAAGUUGUCAAAAAGUAUAAAAAAGUAUCAAAAACUCUCAAAAACUAUCAAAAAGUAUUAAAAACUAUCAAAAACUAUCAAAAAGUAUGGAAAAGAAAAA'
p240
aF0.9949622166246851
aa(lp241
S'Campfire'
p242
aS'AAAAGGCGACGAAAGAAGGGUAAUGCUAAAAGAGCGGUCUUUAAGAAAAGGGGUUAGGAUUUAGGAGGAUAAGAGAAAUCAUUGCCCCGGUCGAUUCACAUUGAAAAAGAAAUGUGAGAAGAAAUUACUAACGAGGUAGCCAUCCUCUGUUUCAACAGACAGAAAGGACUAAUGAUCAUCGACGUGCAAUCGAAGAUCUGGCACAGCUUGCC'
p243
aF0.8679245283018868
aa(lp244
S'Anemone'
p245
aS'AAAGCUGCCAAAGGGUAGCGCUUCGAAAGAGGCCACGGAGAAAUUCGUGGUGACUAAUGUCACCCACACAAAGGUGUGGUCAUCGAAAGAUGACUAUCGAAAGAUAGGAAUAUGAAAAUAUUCAAUAUGGAAACAUAUCUAAUAUACUUAUUAGCAACCAAAGGGUUGCCACAGGAAACUGUGGGCGGCUAAUGCCGUCAUGAAGAAAUUCGUG'
p246
aF1.0
aa(lp247
S'Fractal 3'
p248
aS'AAAAACAUAAGCGGUCGAAUCAGGAAAGCUAGGAAGCGUACGAAAACCAGAAAUGUCGUGGGAAAAUAAAGCAGGAAAUUGCACAUUCUUCAAAGGAAGAAAGCGAUAAUUGUGUAAAA'
p249
aF0.8151260504201681
aa(lp250
S'Kyurem 5'
p251
aS'AAAAUGCGACACUUCGAAAGAACCAAAACAGACGGCCAAACCUUAAUUAGGGGUCCACAAAAAGGAACGUUUACGGUGCAUCGCUAAAAAAAAAAAAAAAAAAA'
p252
aF0.9615384615384616
aa(lp253
S'Snowflake Necklace ( or v2.0 )'
p254
aS'GAUAUUAUCAUAUGAAGCUAGAGUAAAAAGAGGCAAAAAGCAGCAAAAAGCAGCAAAAAGCCGUAAAAGAUAUUAGCGGUAAAAAAUACUGGAGUAAGAAAAAGAAUCAAAAAGGGGCGAAAAAUGCUGAAAAAGACUGAAAAACGGCACUUGUCGAAAAGACUUAAGCAGGAAAAAUCACGUAAAUGGAGUGAAAAACUCAGAAAAUGAAUGAAAAAGAGCAGAUGGUCAAAAGCUUAGUUUGUUAAAAGGAAGCAAAAAGCUCUGAAAAAGUAUCAAAAAAACCGAAAAAAAGCUCUGGUCAAAAAGACAAGAGCGGUAAAAGCUAUUGAAAAAGACUGAAAAAGAUUGAAAAAGUCUGAAAAACCGCUCUAUCAUGUGAUAAUAUC'
p255
aF0.7969151670951157
aa(lp256
S'Methaqualone C16H14N2O Structural Representation'
p257
aS'AUCCCAAGAGCAGAUCAGUGAGACAAAAGUCGGUCACAGUAAUCUGACAGUGUCAAAAGACAGCCACCGAAAACGGGGUCGAAAAAAGAUAGAUACUGAGGCACACAGCAACAGAUCAGAUCAAUCAAGUCAAAGCAAAGCGAAAAAAGGACGAUCAGCCAAAGGUCUACGAAAGUAGCCGAAAGACAACAUGUAAGAUCUGAAACACACAUUGACAGGGUCAGUCAAAAAUCAAAAGAUAGACGGUCAAAAAAAACACACUCAAAAUAUGCUGACAGGAAACUGACAAAGUCAUCAAAAGAACGCAAAAGCGGGACAAAAGAUGACAGUGGAAUCAAAGAUCAGCUCCCCCAGA'
p258
aF0.8788732394366198
aa(lp259
S"Cat's Toy 2"
p260
aS'AAAAGCGCGUUUUAAAGGGGUCAAAAAAAAAAAAAAAAAACAAGCAAACGGAAACGAAACCACAUAGAAAAAAAGUUGCAAAACCAAACGCGCAAAA'
p261
aF0.979381443298969
aa(lp262
S'Zigzag Semicircle'
p263
aS'AAAACUUUUCAGAGUGACAUAUGAAGCAAGAAAA'
p264
aF0.9411764705882353
aa(lp265
S'Short String 4'
p266
aS'AAAAAAGAAUGGAGUAAUAAAGAGCAGAAAAAUCGUGACCAGGUGUUUACAAUAGUUUGCGUCAAAAAAUCACGUAGAAAAAAAAAAAAAAAAAAAA'
p267
aF0.9381443298969072
aa(lp268
S'Gladius'
p269
aS'GGUAACACAGGCCCAAAGUAAGAUAGAGAGUCAGUUGAAGACCAAAAGGUCAGAGUCUAUAGGCGAGGGAACCUGGGGUCAAGAGGUAUUACAGCAUGUAGAAUUAAAUUAACUCAAGAUCAAAGAUCAGAGGGAAUUGAAUUCAAUAUGCGAUAGUACCGACAGACCAACUGUUCAACAGCCAAGUGGAGCUAACAAAGUCAGAUACAGAAAUCUAGUUAUCGAAAGAUUGUUCGUGAUCAAGUUGCCAGUGAAACCUGUCAGUGACCUAUCAAAAGGUAGGAACACGAACAGUAUUCAACGGCGAACUGGUCGCUUUAAAUCAUAGGAUGAUAUGAUACAAGUAUCAGGUGAAAACAUCAAAGACAGCCAAACGUUACCCCAAACACAAUAAUAAAAA'
p270
aF0.885
aa(lp271
S'Thunderbolt'
p272
aS'GGAAUAUACAAAAAAAAGUAGGGGGGGUAAAAGGAAACAUCGACGUGGAUUAAAAAGUAAAAAACUGUGAAAAAUAGAAAAAAACAGACCACUUAAAAAAGAACAAAAUAAUUUAAAGCAGGGAAAAAUAAAAAUGCGCAAAAAGAUCGAAAUUGGGAGAAAGUCAUGGAAAGCGCCAGGUUGAAGGAAAAGGCGAAAUUGAAAAGUUAGAAAAUAACAAAGACCAAAAAAAAGCGCUAAAAUGUGCCAAAGGUACAGCCAAGCAAAAAAAAAAAACUAGGAAAAAAAAUUCGUAAAAAGCCAAGCAAAAACAAAAAAAAGGAAAGGCUUGGAAUAUAUAAUAUGUAGGAAAAAAAUUGUCAACUUCAAAAACAAAAAAAGAGUAUGGACUA'
p273
aF0.9336734693877551
aa(lp274
S'Mutated chicken feet'
p275
aS'AAAAAAAUUACGUGAAAAUCUGGAAACUUAACCGGGGGAGGAUCAAAGAAUCAAGGGGAACCUCUGGAAGACUAAAAGGUCAAAGAACAUUCCUACAAAA'
p276
aF0.82
aa(lp277
S'Chicken Tracks'
p278
aS'AAAAAAAACUCGGUGCUGCGAAAGUAGAACAAUAAAGGUUGGGGUAGGAAACUAUCACCGAGAAGUGGAGGGAACCUCAAGAUCAAAGAUCAAGGACUAUGUCCCACAAAAAAAAA'
p279
aF1.0
aa(lp280
S'Looking Back Again'
p281
aS'CUCAACUGUUACAAAAACCUCGCGAAGCGGGGGGUAGAACACAUCAAGUAAAAGACGAUAGACAAGAAGAUCAAAAGGUCAAAAUUGUCAAGUUGUUACAGGAUAGUUUAAAAGACACAAAAGUGUCAAAAAAAACAGAGCGGUAGUAUCAACCAGAGUAAACCUCUUGCAGGGGAACGUUAAGUUGAAACUGAUAAAAAUGUCUUUAAUUCGUAUGUCCAGAAAACUGAACCUGCAAAGGAUUAUAUCAGAUAAGGAUUUAAAAAGCGAUGCAAAAAAAACGACGAAAAGUUGGCAUAAACGCUAAUCCGACAAAAAAGCACUAACAAAAGUUAGUAACAGCUGAAAGUCGAUCAAAGAUUGAAUAGGCAAAGUUUGUUAUCAAAAAC'
p282
aF0.8200514138817481
aa(lp283
S'Multilooping 6'
p284
aS'AGUAAUAGCAGCGCAGAAAUGUGUCGUUCUAAUGGACAUGAAGAUUAUCGAAAGAUAAUACGAUAAUUCGUAAUUUGUAGAA'
p285
aF0.926829268292683
aa(lp286
S'Cesspool'
p287
aS'AAAUAUGGAAAUUAGUCUUUAUUGUCGAACACAUGAAAUUGUCAAGUGUAAAAAAGUAGGUGAAAGCAACAAACUGAAAACUAGAAUAACAUGUUAAAAAUUGCUAUUGACGGCCAUAGGAAACAACUUGACAAGAUGGAAAUUGCAGAACAAAAGGGCACACAAGAAAUAUUUGCAAAUUUGAACAAAGAAAAACGUAGUAGACAAGGACAAGAACUAGUUAAGGUAAAAAUUUCAUGAGAAAACGCGACACAAUAAUUAAUUUGUAAGUAUGAAUAAAAAAAGUUUUGAGUAUGAAUAAUAUUAGCUUAACAAGUUUAAAACUUCAGUGUAAAAGAAUAGACAUAAAACAAUUGGC'
p288
aF0.6675977653631285
aa(lp289
S'Hoglafractal'
p290
aS'AAGAGAUAGAAACAAAAGAUACAAAAAAGUAUCGUUUCCCAUAAAAGACGAAAAGUCUAUUAGUCAAGUCGAAAGACGACAGUCAAAGAUCAAAGAUCAAAAAAGAUCGAUCAUUAACCGGAAAAUGCAACGUAACAAAAGCGCCUUACAAAAGUCAAAGUAAAAAGGAUGGCUUAGCAAAAGGCUGCAGAAAACUGACAUACAAAAAGCACCAAAAAAGCGCAUUAAAAAAGUCUGAAAGGUCAAGUCAAAAAAGUCAAAACAGACGGAAAAACUAGGUCGAUGCAAAGCAUCGGAAAAAAGGACUUGUAAAAAGUAUGAAAAAGUAAGAAAGACAAUGCAACAAAGACCCUAGAAAAAAUGAACGGUUGAAAAGCACAACGAAAGUUUGAGAACGCAC'
p291
aF0.895
aa(lp292
S'Bullseye'
p293
aS'AAAAUCAGACAAAUUCUAAGAUUGAAGGUCAAGAGCAAAGCUCGACAAAAAAAUGUGUUAUGAGGUAGAACUAGGAAUUAGGACAUUAAGAGAGCACUAAAAAAGGAAUGGCAAAGCUAAAGGCCAAGGACCAAGAUCGAAGAUCUUUAAAAAAAACUGCAAUGAAAAUGAGCGUUGAAAUUGAACUAUAAGAUAGCAGAAA'
p294
aF0.8217821782178217
aa(lp295
S'Shooting Star'
p296
aS'AGCGGUGAGCGGUCGCGGAUGUGUCUAACACAGAGAACAAAGGUUUUACGUGUUUGUUGCCACGCGGCCAUAGAAUGGAGGAGAUCUCAACUGCAAUCAGUUAAUCUAAUGAAUAGACGAUGACAGAUGAGUCGAGAACAUGAACAAGAUUAUCAGCCAAGGCGAAGCCUUAGCAUCUAUGAUGCGAGAAAGAGCAGGCUGCUACAGACGACAUCAAUGAGAGGCUAUGCUUCUUUGAUAAGAAGUAUCCGUGCAGGUACAAAGUACCUGAGACCGAAGCGGUUCGCCCGAAAAGAAAGCUUGGCAGUAAAGGGACAGAUCAGCAAAAGAUGAUACGUCACGUUGUCGCAAGCUAGAGCCGCUA'
p297
aF0.7857142857142857
aa(lp298
S'Teslagon'
p299
aS'AAAAAAGGAAAAUAACGUGGAAAAGAAUGAAGUCCCCAUCCCCCCGCUUUUACACAUGACUCCCCGCCCCCCCAUAUACAAAAAUAACCUGGAAAAAAAUGUCCACCCCCCCCCAACAAAAAUAACCUCGAAAAGAAUGAUGUCUCCCCCCCCCCAUCGUUACACAGCCUGCCCCCCCCCCCCAAGGACGAAAAUAACUGGGAAAAAAAUGUCACCCCCCCUCCAACAAAAAUAAGCCGAAAAAAAGUGAAAUACCCCCCCCCCCACUUUUACACAAGGUGACCCCCCCCCCCAAGCGUAAAAAUAACCUAAAAAAAAAUAAAAAAAAAAAAAGAGCCCCCCCCCCCCAAACGUAAAAAUAGUUUUGAAAAGAACCAAAAAA'
p300
aF0.8403141361256544
aa.