(lp0
(lp1
S'Simple Hairpin'
p2
aS'GAUACAAAAAAGUAUC'
p3
aF1.0
aa(lp4
S'Arabidopsis Thaliana 6 RNA - Difficulty Level 0'
p5
aS'GGGUAUGAAAAGUCAAAAAAAAAAAGACGAUAGUCCGGUAUAAUAAUAUAACACUAAAAAGAUACAAAAAAGUAUCAUUAGUGAUUGUAUUAUUAUAAAGGACUAUCAACAUACCC'
p6
aF1.0
aa(lp7
S'Prion Pseudoknot - Difficulty Level 0'
p8
aS'GAGAUCAGAUGAAAACAUCGAUACUCAAAAAAAAAA'
p9
aF1.0
aa(lp10
S'Human Integrated Adenovirus - Difficulty Level 0'
p11
aS'GAUAAUACUAGGCCGGGGUGGUAAAAAAAAGUGUCCCUAUCCUGAAAAAGGAGAGUCAAAAGGACUUCUAUUCUGAAAAAAAAGAGUAGAAGAAAAUCCGACUCAAACUCCCAGUAUUGAUAGACAGGUGUCGAAAAAAGACACCGGGCUAAAAAAAAAAUCCACCCAGGUUAAAGUAGUAUAAAUAUCAAA'
p12
aF1.0
aa(lp13
S'The Gammaretrovirus Signal - Difficulty Level 0'
p14
aS'AAGAGAGUGGACAUUAUUGUUCGUACGCAAAAAAUAGGAAGUGAGAUGCGACAAAAAUGUCGAAAACAUCCACCCUGAGGGGGUAGGAAAACUUACCCCAA'
p15
aF1.0
aa(lp16
S'Saccharomyces Cerevisiae - Difficulty Level 0'
p17
aS'UGGUAUGGCAGUAAAAAAUCUGCGGCGGUCUUGUUUUGUAGGCAAAUUCGGGGUAAACACUCGACAUAUCAAAAAGCUUGGUAAGCUCUAAAAAAUGAGCGCGGAAAAAAAAAAAACGCAAACCAUGGAAAAAAACCAUGAUCAAGCGAAGGGAGAUUAGGAUCAAAAAAAGGGUCGGUCUCGAAAAAAGGGACCAAAAGAUACUAAAAAUGUAUCGAUCUCCAAAAGGGUACGAAGAUCGAAAAAAAGAUCGGUCUAAAAAAAGUAGACCAAAAGAUUCAAAAAAAGAAUCCGUAUCCGAAAUGGUCUGAAGAUCGAAAAAAAGAUCGGUCACGAAAAAAGUGACCAAAAGAUACUAAAAAUGUAUCCAGACCGGAAA'
p18
aF0.9947229551451188
aa(lp19
S'Fractal 2'
p20
aS'AAAAAGCGGUUCGAAUUCUGAGGCUGAAGGUCAAAAAAAAAAGGCCAACAACAAAAAAAAAAGUUGAAGAGCAAAAAAAAAGGCUCAACGGCCUCAGAUAUGAUUGUCCUUAAGAGCAAAAAAAAAAGCUCAAGUGCUAAAAAAAAUGCGCAAGAUCGAAAAAAAAAGAUCAAGGGGACAAUCUAGGAUAGUCUAUAGCAACAAAAAAAAAAGUUGAAGAGCAAAAAAAAAAGCUCGAGGUCUAAAAAAAAUGAUCGAAUAGACUAUCAAAUGGACCGCAAAAA'
p21
aF1.0
aa(lp22
S'G-C Placement'
p23
aS'AGAGAAACUCUA'
p24
aF1.0
aa(lp25
S'The Sun'
p26
aS'AGGACAAUAGCGAAGUUAAAUUCUAUAAAGUCAGCAAAGGUAUCCUUAAUUCGAUAAGGACAGGGUAGCAAGACUAAAUUCGACAAUUUGAGCAUAGCGAAGCUAAAUGCCAAUAAGCCACGAUAUUUAUGCUAAAUUGGAUAAAGUGCGCGGAGUGAAGCUUAAUCUCAUGAACCCAGCAUAGUGAAGCUAAACCCGGCAAAAUCAUGUUUUCGAAGAGAAAAUGUAUAAAGUCAGAAUAUCUAUGAUAAAUUCGAC'
p27
aF0.8798449612403101
aa(lp28
S'Frog Foot'
p29
aS'AAAAAAAAAAGACGUAAUCGUCCAGUGAAAGCUGGGGGUCUCCCC'
p30
aF1.0
aa(lp31
S'InfoRNA test 16'
p32
aS'GGUCUCGCAGAUUACGAAAGUAGUACUAGAGAGACC'
p33
aF1.0
aa(lp34
S'Mat - Martian 2'
p35
aS'GAUGAAAACGUCAAAGGGUAUGAAGGGUAUGAAAAAAACGUAUCCCAUACCCAAAGGUAUAUCAAAAAAGGGUAUGAGGGUAUGAAAAAAACGUAUCCCAUACCCAAAGAUAUUACAUGUAGAAAAAAACUACAUGAUGAUAUCAAAAAAGAUAUACCAAAGAUAUUACAUGUAGAAAAAAACUACAUGAAUGAUAUCAAAAGAGAAAACUCU'
p36
aF1.0
aa(lp37
S'square'
p38
aS'GGGGUACGAGUCCGAGUCUCGAUGUCAAAGACAUCAAAAGAGACUCAAAAGGACUCAAAAGUACCCC'
p39
aF1.0
aa(lp40
S'Six legd turtle 2'
p41
aS'AAAAACAAAAAGGAAAUUAAAGUAAAAACAAGGGAAAAGUAAAGUAAAAACAAAUGAAAACGAAACAAAAAUGGAGUGAAAAAAAAAAAAAAAAAAAA'
p42
aF0.9183673469387755
aa(lp43
S'Small and Easy 6'
p44
aS'GCAGGGAAAAAUAAGUAAAAAAAAAGUGGC'
p45
aF0.9333333333333333
aa(lp46
S'Fractile'
p47
aS'AAAAAAAAAAAACGGAAAUAAACCGGACGUAAAAUCAUGAUAAAAAAAAUUGAUUUUAGCGAAAGCAAAUAAGGGGAAAGUAAAAAAAAAAAAAAAAAAAAAAAA'
p48
aF0.9619047619047619
aa(lp49
S'Six legd Turtle'
p50
aS'AAAAAGCAAAAUGCAAACGAAAACAAAACCCAAAUGCAAAACGUAAAGUAAAAGCAAAAAAAAAAUUAAAGGCAAAAGCAAAAGCAAAAAAAAAAAAAAAAAAAA'
p51
aF0.9238095238095239
aa(lp52
S'snoRNA SNORD64'
p53
aS'GGUCUCAAAAAGUCAAAAGUCAAAGAUACAAAAAAAAAAAAAGUAUCGAAAGACAAGACAAGAGACC'
p54
aF1.0
aa(lp55
S'Chalk Outline'
p56
aS'AAAAACUAGGGAGACUAAUGUACUCAAGCAGUGGAAACACGCUAGGUGGCGAAAGCGCACCAGCUGCGAAAGCACGUUUAGAAAAAAAAAAAAAAAAAAAAAAA'
p57
aF1.0
aa(lp58
S'InfoRNA bulge test 9'
p59
aS'GGGUUUGAGAGAGAGAGUAUGUAAUCAUACUCCCCCAAACCC'
p60
aF1.0
aa(lp61
S'Tilted Russian Cross'
p62
aS'AAAAAAUGCGGGUGAAAACCCCUCGAGCCCGAAAGGGCGUUUUGAAAGAAGCAGUUGGAAACGACCGAGUCCAGAAAUGGAGCAUGAAAAAAAAAAAAAAAAAAA'
p63
aF1.0
aa(lp64
S'This is ACTUALLY Small And Easy 6'
p65
aS'GAGAAAAAAAAAAAAAAAAAAAAAAAAAAAAAAAAAAAAAAAAAAAAAAAAAAAAAAAAAAAAAAAAAAAAAAAAAAAAAAAAAAAAAAAAAAAAAAAAAAAAAAAAAAAAAAAAAAAAAAAAAAAAAAAAAAAAAAAAAAAAAAAAAAAAAAAAAAAAAAAAAAAAAAAAAAAAAAAAAAAAAAAAAAAAAAAAAAAAAAAAAAAAAAAAAAAAAAAAAAAAAAAAAAAAAAAAAAAAAAAAAAAAAAAAAAAAAAAAAAAAAAAAAAAAAAAAAAAAAAAAAAAAAAAAAAAAAAAAAAAAAAAAAAAAAAAAAAAAAAAAAAAAAAAAAAAAAAAAAAAAAAAAAAAAAAAAAAAAAAAAAAAAAAAAAAAAAAAAAAAAAAAAAAAAAAAAAAAAA'
p66
aF1.0
aa(lp67
S'Shortie 4'
p68
aS'GGGAAACUAGGGAAACU'
p69
aF1.0
aa(lp70
S'Shape Test'
p71
aS'AAAAAGUGAUCAAGAUACAAAAAAAAGUAUCAAGUCACUCAGAUACAAAAAGUAUCAGCGGAGAACCGCAGAGGACAAGAUCUCAAAAAAAAAAAAAAAAAAAA'
p72
aF1.0
aa(lp73
S'The Minitsry'
p74
aS'GGUGAAAGGUCAAAAAGUGAAAAAAUCAAAAGCGCUAAAAAAUGUGAGAUGUACGGACAACC'
p75
aF1.0
aa(lp76
S'stickshift'
p77
aS'AAGGGUACCCAAAAAGGAGUACCCAA'
p78
aF1.0
aa(lp79
S'U'
p80
aS'AAAAGGAUUCAGAGAGGAGAGGGGUAUAGAAAAUUGUACCCCCCCCCGAAUCAAAAA'
p81
aF1.0
aa(lp82
S'Still Life (Sunflower In A Vase)'
p83
aS'AACGAUCCAGAAGCAAAAAGUUUCGAGUGACAAGGUCACGGGUUGCAAAAAGCAGCAACAUACUAUGCUUGAACGUGUAAAAUACAUCCAAAUACAAAAGGUGUUUAUAGUUUGAUAAUAUGUAUAAAGACUUCGAAAAAGAAGUAGGCACAAAAAAAAAAAAACGAUAAAAAAAAAAAAAAAAAAAAAAAAAAAAAAAAAAAAAAACGGUCGGAAAAAAAAAAAAGUGCCCAAUCAAAGGAUUGACUUUAUAUAUAUUAUCAAACUGUUGAAGGUAAAAUUCAUCAAGAAGCAAAAAGUUUCGAGAUGAAAAAAGGAUCAAAACCAAAAAAUGGUUGGGGUACAAAGGUACUAUGAUCCAAAAAGUAUUUGAUCAAA'
p84
aF0.9735449735449735
aa(lp85
S'Quasispecies 2-2 Loop Challenge'
p86
aS'AAAAACUACGAUAGGGGGCAAAGGCCCGAUAUCUGCUGGGCAAAGAACAGCAAGAGGGAGAUGCAAAAAGCAAAUAACUCUGUAGGAAAAAAAAAAAAAAAAAAA'
p87
aF1.0
aa(lp88
S'Corner bulge training'
p89
aS'AGGUCUCGAUACAAAGUAUCAAAAGAGACCA'
p90
aF1.0
aa(lp91
S'Spiral'
p92
aS'AAAAUCAUGAGGUCUCACAGAGAUCCAGAUGAGAUGAUGAGGAGGAGGAGGAGGAAAAGCCCCCCCCCCCGCAUCCAUCGGAUCCUGGAGACCCAUGUAAAA'
p93
aF1.0
aa(lp94
S'InfoRNA bulge test'
p95
aS'AAAAAAAAAAAAAAAAAAAAAAAAAAAAAGCGCGAAAAUGGGCAAAAGCACGAACAAAGGUCAGAGAGCAAAAGGUAUCACUAGAAAUUAUGGAAGUCGCAAAAAGCACCUAAAAAGUAGCA'
p96
aF1.0
aa(lp97
S'Worm 1'
p98
aS'AAAAAAAUACUGAGGGAGGCGCAGAAAAGGCCAUGGCAUGUGGGC'
p99
aF0.8666666666666667
aa(lp100
S'just down to 1 bulge'
p101
aS'AAAAAGCUCAGAUGCGAAAGUAUCAGUCGAAAGACAGAUGUAAAAGAUCAGUCGAAAGACAGUCGAAAGACAGAUCAAAAAAAAAAAAAAAAAAAA'
p102
aF1.0
aa(lp103
S'Iron Cross'
p104
aS'ACUCAGUGAAAUGCACUCAAAGAGAGUCGAAAGACAGCAAAAAGCGCUCGAAAGAGACGGAAACCGAGCUAAAUGGACUUGAAAGAGAAGCAAAGCUACCAAAACACACUCAAAGAGAGAGGA'
p105
aF1.0
aa(lp106
S'loops and stems'
p107
aS'AAAAAAGGUAUGAAAGAUGAAACAUCAAAGAUCAAAAAAAAAGAUACUAAAAAAAAAAUGUAUCAAAGAUCGAAAGAGCAAAAAAAAAAGCUCGAAGAUGAAAGUCAAAAAAAAGACAAACGUCAAGGAAAAAACCAAACAUGCCUAAAAA'
p108
aF1.0
aa(lp109
S'Water Strider'
p110
aS'AAAAACCGGGAGGCGGAAGUCGAAAGAUGUCGAAAGAUUCCAAAAACCGGCGGAAACGCGUUGAAAGACACGGGCAGCCAGGAAAAAAAAAAAAAAAAAAAAA'
p111
aF1.0
aa(lp112
S'The Turtle(s) Move(s)'
p113
aS'AAAGGAAAACCAAAAUGGGUAUAAAAAAAAAAAUUAUACCCAAAAAGAUGAAAAACGUCAAAAAGUCGAAAGACAAAGAUACUAAAAAUGUAUCAAAACGCAAAGCAAAAGCAAAAAGUCGAAAGACGAAACUGUUCAAAAAAAGAACAGAAAAGUCGAAAGACAAAAAGGUCUCAAAAGUCAAAAAAAGACAAGUCGAAAAAAAGACAAGGAUGCAAAAAAGCAUCAAGGAUGAAAAACGUCAAGAGACCAAAAAAAAAGGAAAACCACACACCAAAAGGAAGAAACAGAGGAAAAAAAAACUCUGAAAAAAGCG'
p114
aF1.0
aa(lp115
S'Adenine'
p116
aS'GAUACAGGUCUAAGGUCUCAGGUCUCAGGUCUAGGGUCUCGAAAGGUCUCAAAAAAGAGACCAGGGACCAGAUACAAAGGGUAUGAAACGUACCCGUAUCAUAGACCAGAUACAACAUGCAAAGCAUGUUAAAGUAUCGGAGACCAAAAGAGACCAAAAUAGACCGAAAGUAUC'
p117
aF1.0
aa(lp118
S'Tripod5'
p119
aS'AAGCUCCUAGAAAAGCUGGGUCCAAAAGGGACGAGCGA'
p120
aF1.0
aa(lp121
S'Shortie 6'
p122
aS'UCAAAGGGGAGAAAGCUAAGUAAUUCAUGAAAGUA'
p123
aF0.8857142857142857
aa(lp124
S'Runner'
p125
aS'AAAAAGAUCAGAGCGGAAAGACGAAACGUCAGUUCAAAGUCAAGGCCUCAAAGAGAAAGCCGACAGGAAGCCUAAAGUCAGACAAAGUCAAAGUCGAAAGACGGACAGAUCAAAAA'
p126
aF1.0
aa(lp127
S'Recoil'
p128
aS'AAAAACUGAGAAGGAAGGAAGUCAAGUCAAGGAAGCAAAGCACCAGACAGACACCACCACUCAGAAAAAAAAAAAAAAAAAAAAA'
p129
aF1.0
aa(lp130
S'[CloudBeta] An Arm and a Leg 1.0'
p131
aS'AAAAACUCAGAGACGAAAGUACUCGACAGGAAAACCGUCAGAGAAAAAAAAAAAAAAAAAAAA'
p132
aF1.0
aa(lp133
S'[CloudBeta] 5 Adjacent Stack Multi-Branch Loop'
p134
aS'UCGGGGCAUGAAAGUGCGUUUGGCAACAAACGGAACUAAGGUUCCGGGCGAAAGUCCCUCGAA'
p135
aF1.0
aa(lp136
S'Triple Y'
p137
aS'AAAAGCGUCUUAGGUCAACAGUGAUCCAUAAAACAAGCCGACCUUCCGUGAAAACGGUCGUGGAAAUGACGGCGCUGAAAAAAAAAAAAAAAAAAAA'
p138
aF0.9175257731958762
aa(lp139
S'Misfolded Aptamer'
p140
aS'GUCCGAAAAUGAAGGUAUUCGUUGAAUGUAUACCCCCCCUUUAAAAAGGC'
p141
aF0.96
aa(lp142
S'Flower power'
p143
aS'AAAAACUGGCCGUAAAACGAGGCUUGGGGAAAUUCAAAAUAGACCCUACGAUACGAAAACGCCGACACCUCAAAGAGGUCAGAAAAAAAAAAAAAAAAAAAA'
p144
aF0.9215686274509803
aa(lp145
S'Kudzu'
p146
aS'AAAAGCGGUAGGGAGUUGGAUAAGAUUGAAAGCUAUAUCGUGAAGGAACCAUCAAAUCGCAAAGAAUAAGACCCAAUUUCGAAAAAAAAAAAAAAAAAAAA'
p147
aF0.9801980198019802
aa(lp148
S'"1,2,3and4bulges"'
p149
aS'AAAAAGGAUGGGCUCUAAUGAAAAAGUCAGUGGAAAUACGACGUUCUAAUAUCACGGAAAGUAAACGAGUUGAAAGACAGAAAUCAAAAAAAAAAAAAAAAAAAA'
p150
aF0.9428571428571428
aa(lp151
S'medallion'
p152
aS'GGUCUCACUGUUCGAAAGAACAGAAGCGAAAGCUACUCGAAAGAGACUGUUCGAAAGAACAGACUCGAAAGAGACUGUUCGAAAGAACAGACUCGAAAGAGACUCGAAAGAGACUGUUCGAAAGAACAGACUCGAAAGAGACUGUUCGAAAGAACAGACUCGAAAGAGACUCGAAAGAGACUGUUCGAAAGAACAGACUCGAAAGAGACUGUUCGAAAGAACAGACUCGAAAGAGACUCGAAAGAGACUGUUCGAAAGAACAGACUCGAAAGAGACUGUUCGAAAGAACAGACUCGAAAGAGACUCGAAAGAGACUGUUCGAAAGAACAGAGAGACC'
p153
aF1.0
aa(lp154
S'[RNA] Repetitious Sequences 8/10'
p155
aS'AGGAAAAAAGGAAAAAACCAAAAAAGGAAAAAAGAAAAAAAUCAAAGAAGGAAAAAACCAAAAAACCAAAAAACCAAAAA'
p156
aF1.0
aa(lp157
S'Documenting repetitious behavior'
p158
aS'AAAAAAACUAAAGAGAAUUAAAAUAGAAGUGGAAGAGAAACUCAAGAGAAAGCAAACUGAAAAGAAAGAGAAACUAAACAGAAAACGAAGAGAAAGGAAAAAAAAACGAAAAAAGAGUGUAAAAAGAGGUAAAAAAGAGGCAAAAAAGAGGGAAAAAAGAAGGAAAAAAGAGCGAAAAAAGACUCAAAAAAGAGUCGAAAAAAAAGAAAAAGAAAAGAAAAGAGAAACCAAAGAGAAAUCAAAGAGAAAUCAAAGAGAAAGCAAAGAGAAGACAAAGAGAAUCAAAAGAGAAAUGAAAAAAAAGCCGAAAAAGAAGGAAAAAAGAAAGAAAAAAGAGGUAAAAAAGAACCAAAAAAGAGGAUAAAAAGAAAAAAAAAAGAGUGUAAAAAGAGAGAAAAAA'
p159
aF0.955
aa(lp160
S'7 multiloop'
p161
aS'GCCUGGUCGAAAGCGAUCGCGCAUAAUGGCGCCCAUCGAGCGGUGAUCUUGGAAACAAGUACUCUAAAGGGAGCUGUCGACAGUGAUACGGU'
p162
aF0.9782608695652174
aa(lp163
S'Kyurem 7'
p164
aS'AAAAUGUUCAUUGGCGAAAUGGUUCAAAAGUUAUGACGAAAAGUCUCCAGGCGAAAAAGUCAAACGCUCGCGGCGAUAGAGUUAAAAAAAAAAAAAAAAAAA'
p165
aF0.9803921568627451
aa(lp166
S'JF1'
p167
aS'AAACCUGCAUGAGAUACUAGAUCCAAAAGGUCUCGAGAUACUAUGAGUCAAGUCUCGACCUAUAUAAUACUAAAAGUAGUAUUAUAUAGGAACUCGAAAGAGACUAGACUUCAAAAGGAGUCUAGAACAGAGAAAACUCUGACGAGACGGACUCUGUAUCAGAGACCAAAGGGUUAUGAAAAACAUAAACCCGGGAUAUUAUAAAUGGUAUAGAGAUGAAAACGUCUCUAUAUCAUGUUAUAAUAUCAAAGAUAUAAAAAAAUAUCGAUAAUACUAUAAUUAGUAUUAUCAGAGUGAAAAAUCGCAGGGAUCAUGUGUCAGAUGAGUCAGUCGAAAGACGACCAUCAUGGACUUGUUUAAGCAAGAUCCAACGUGUUAGAGUUUAGA'
p168
aF1.0
aa(lp169
S'multilooping fun'
p170
aS'GCAUGAUUGUAAUCUGGAAAUUAGAGGGAAAAUGGA'
p171
aF0.8611111111111112
aa(lp172
S'Multiloop...'
p173
aS'GAUGAGAUCAGUCGAAAGACAGUCGAAAGACAGUCGAAAGACAGUCGAAAGACAGUCGAAAGACAGUCGAAAGACAGAUCAGAUACAAAAAAGUAUCGUCGAAAGACCGUC'
p174
aF1.0
aa(lp175
S'hard Y'
p176
aS'AAAAGGGUCGCUGAUUGGCCGAAAGGUCAAUAAUCGACCGUCUGUGUAAAUAGACGGUCGACCAAAAA'
p177
aF0.9705882352941176
aa(lp178
S'Mat - Elements & Sections'
p179
aS'AAAAACCCCAUAAUAUGAAAGCAUUUUAAUCCAAAUGCUGUAGAAAGACUGACUUAGAACAAGAGAAAGGUUUCUUACGGGGGGGAAAAAAAAAAAAAAAAAAAA'
p180
aF0.9619047619047619
aa(lp181
S'Chicken feet'
p182
aS'AAAAAAGAGAAGAAAGUCACGAAAACAAGUCCCGGUAGGAGGAAAUCCAGAAACGAAGCCGCAAAAA'
p183
aF0.9402985074626866
aa(lp184
S'Bug 18'
p185
aS'AUGUCUUGAUUGAGAUAAGGAGGGAACAAAUCCGAACGUGCCUGAGAAAAUGA'
p186
aF0.9245283018867925
aa(lp187
S'Fractal star x5'
p188
aS'AAAAAAGUGUAUGAGUGGCGAAAGUCGAAGAGGAAAGCCUCGUUUGGUAAACCAGUUUACAGAAAUGUAUACAUAUACUGAAAAUCGCGGGGGAGGGUAAAGGCCCGACGAGGAAACUUGGAUGUUGAAAAGCGAAGAUAUAAUUAUCGACUCCGCGGAAAAAGGUCAGGGACCGUAGAAAUAUGUAGAGUAAAAGCUCAAGACGGAAACGUCGAGAUAAAAAUAUCGACCUUGACCAAAAGGGAGUUAAUAGAGGAAAACCUCGACAUUGAAAGGUGAAGAUGAAAACGUCAAGAUGAAAAUAUCAUUUGACUCCAAAAAGUUGCCCGAAGUCGGAAACGGCAACGCGGAAUCGCGAAAAUGGAAACGUUACGGUGUAAUCACCUACGGGCAACAAAAA'
p189
aF1.0
aa(lp190
S'Crop circle 2'
p191
aS'UGAAAGGAAAAGGAAAAAGUUAAAAAAAAGUUAAAAAAAAAAAAAAAAAAAAAAAAAAAAUCCAAAAAAAAAAAAAAUCCGAAAAAAAUUUAAAAAAGAUAACGCGAAAA'
p192
aF0.9636363636363636
aa(lp193
S'Branching Loop'
p194
aS'GAACGAUAAAAAAUAGAAGAAAGUGUAAACCUUAAAAAAA'
p195
aF0.95
aa(lp196
S'Bug 38'
p197
aS'AACAGGAGUAACGAAAACUAUAGGCGAGGGAAAGUA'
p198
aF0.9444444444444444
aa(lp199
S'Simple Single Bond'
p200
aS'AAAAAAGGAAAAAAAAAGAUAAAAAGUCUAAAAAAAAAUGAAAAAAAAAAAAAAAAAAAAA'
p201
aF0.9672131147540983
aa(lp202
S'Taraxacum officinale'
p203
aS'GAGCGAAAGACUCAGAGCGAAAGACUCAGAGCGAAAGACUCAGAGCGAAAGACUCAGAGCGAAAGACUCAGAGCGAAAGACUCAGAUAGUCUAUCGAUAGUCGAUCAAAGAUCGGACUAUCAGAUACAAGAUAGUCUAUAAGAUAGUCAAAGACUAUCAGUAGACUAUCGAUGAGGUCUCAAAGAGACCCAUCGUAUCUAAGAUAGACUAUCAGAGCGAAAGACUCAGAGCGAAAGACUCAGAGCGAAAGACUCAGAGCGAAAGACUCAGAGCGAAAGACUC'
p204
aF1.0
aa(lp205
S'Headless Bug on Windshield'
p206
aS'GUGGGGGAAAGUAAGUGUGGGUCUGAAAAAAAAAAAAAAAAAAAAAAAAACAGUCCAAAGUUAUGAAACCACGAGUGAUUUUUAGGAAAACAUUGUAAUCAUAAAUAACCAAGUAAAAACACUAGUUCAAAAAAAGACACGUGGUGCGGGGAGUGAUUCUUUUUUUCUUCCACAACCAAGUGAAACUGUCAAGGAAACUG'
p207
aF0.95
aa(lp208
S'Pokeball'
p209
aS'AAUGGUUGUGAAAAGGUUAAAUUCCAACAGACGGACAGACAGGGAAUCGUAUCGGUCAAUGGUGACGGAUGGGGAUUUUCCCGUAGCCUAAAAAAUCGAGCUAAAAAGAAGCGAAGGCACCGAGGAGACGGGUAGUUGCGUUAAAGCAGAAAGGACGAUCACUAUGAAGUGAUAUAGCUCGUAA'
p210
aF0.9456521739130435
aa(lp211
S'Variation of a crop circle'
p212
aS'AAAACCAAAACUAAAUUUAAAGAAAGGUCAUGAAGCGGAGCAAAGUUUAAAAGGAUAAAAAGGCGAAAAAAAGAGGAAAAAAAAAAAA'
p213
aF0.9318181818181818
aa(lp214
S'Loop next to a Multiloop'
p215
aS'AAAGCGUAGUUAAAUAACGGGUUUCGAAAGAGACCGGGGUAUGGAAACAUACCCAGGAAAAAUACUACGCUAA'
p216
aF1.0
aa(lp217
S'Snowflake 4'
p218
aS'GCUGAAACGGCCGCUUGGAAAACCGUUGCAAGUUGCGUGAAAGAGAUUUACAUGAAGUGCAAGUAGUAUCUAGGUGUCGUGAAAACGCAGCGAAAGAGGUGAAACCGGUGCGCGGAAGCCGCAAGAGGAAACCUCGUACCGAAAAAUCCUCUUAGCGGUGGGAAAAACGGUCGCGGCAAGACAGACGACGCAACGUCCGACCGAGAAACUCGCUGAAAUGAGCGAAAACAGGUAUUGGAAAAUCUAAAGUUGGAACGACCUACCCGGAAACUCUCAUAACGGUUGUAAAAACGAUGCCUACAAAGUAGAACCUAAAGCUGGGCAUCAAAAAACUAACCGGGGCAGAAGUAAUCCAAGUGCCAGAAACUGG'
p219
aF0.8810810810810811
aa(lp220
S'Mat - Cuboid'
p221
aS'CAACGAAAAGUGAGGAAAAGGUGAGAAAAGAAUGAAGGAAACGGAAAGAGUGAAAAGAAGGAUGGAAUGAAAAGGAAGGAAGGGGGGAAAAGUAAGCAGAGAAGGAAAGAAAAGCGGAGCGGCAGCUAAGGAAAAAGGGUGAGUGAGUGGGUGAAUGAAAAGGCGUUCUCAGGUGGGUGGGUGAAAAGGGGUGGGCUGGGGGGUGGGUCAAAAAAGAAACAAACCAAAGAAUAAACCCAAACAAACAAAUGUAAAAACCCAAACAAACAAGUAAACAAAGCAAGCCGAAGAACCAAACCCUAACCGACUAAGUGAACUAAGACUGUCUAUCCGUGUGUGACUGUCGAGGCGAUCCUGGUAUGCCCAAUUCCCAACCGAAG'
p222
aF0.8631578947368421
aa(lp223
S'Misfolded Aptamer 6'
p224
aS'AAAAAAUGCAAAAAAGAUCAGGGAAAUUCAAAAAAAAGAACCAACAAAAAGAUCAAAAAAAGCAGAAAAAAAAAA'
p225
aF1.0
aa(lp226
S'Snowflake 3'
p227
aS'GUCGAAAAAUAAGUCAUCGAAAGACAAGAUCAGGUCGAGUCGAAAGAAGUGACUGAAAAGGUCAAGGAUCUAAAGAAGUACGUGGAAACACAAGACCGAGAGAAGUCGAAAGCCGUGAGGAAAACUUGCAAAGCAGAAAAAUCACACGCCGAAAGUGAACUCUGUGGCAAGGCAAAAGUCCUCGAGGAAACCUCCAAAGGAGAAAAAAUAGAGUUCGAAAGAAAAGACCAUGGUAAAUCAAAAAAUGUUUGGAAAACUUGAAAAUCAGAAAAAUCUAACAUCUAAUGAUAGGCCAAUUGCAAGUCGAAAGACCUCAGGUAAUUUUGCAAAGCAUGAAAACAGGACGUCGAAAGACAACCCAAGAUCGAAAGGAAACUUGACGGAAAAAUCGAC'
p228
aF0.8575063613231552
aa(lp229
S'Hard Y and a bit more'
p230
aS'AAAAAGUGAGUUAUAUACGAAAGUAUAAGAGUAACAGUAGGUUGAAAGCGACAAGUUACGAAAAAGUAACAAACGGUUACCUCGCAAAAAAAAAAAAAAAAAAAAA'
p231
aF0.9716981132075472
aa(lp232
S'Mat - Lot 2-2 B'
p233
aS'AAUAUAGGUCAUCGUGAAAAGGGUUUAGAAAAUUAAAAAAUAGUUAAACUAAAAGAAAAGCAAAGGAAGGGGUAUGAUUGAAAAGAGACCUGAAUGAAAAGCGAAAGCAAGGCGAAAAGGGAUCCAUGUGGCUGUCAAUUAAAAAACGGGCGAGGGUUAAAAGGAGUUAUAAAGGUAAAAGCAGCCGGAACUAAAACGAACGUAAUGGAACGACCCACGAAUAAAAGCUGGGAGUGAGAAAAAUAAAAGUUACUCUAAAAUCUUCGUUAAGGGCAAGGAAUUGU'
p234
aF0.7711267605633803
aa(lp235
S'Shapes and Energy'
p236
aS'AAAAAGUUCAGUUUUGGAAAACGCGAAAAAGGAAACGUUUUAAAGCCAAAAAAAAAAAAUACGGAAACGUACGCGCUGGGAAAAAAAAAAAAAAAAAAAAA'
p237
aF0.9603960396039604
aa(lp238
S"Spiral of 5's"
p239
aS'CAAAGGAUACAAAGAUGAAAAGAUAGAAAAGAUACAAAGAUAAAAAGAUAAAUGAUACGAAAAAUACAAAGAUAAAAGGAUAAAAGAUACAAAGAUAUAAAAAUUAAAGAUACAAAGAUAAAAGAUUCGAGAUACAAGAUACAAGAUACAGAUACAGAGACCACAGAAAAACUGUGAAAACGUCUCAAAAAGUAUCAAAAAGUAUCAAAAAGUAUCAAAAAGUAUCAAAAAGAAUCAAAAAUUAUCAAAAAGUAUCAAAAAUAAUUAAAAAAUAUCAAAAAGUAUCGAAAAUUAUCAAAAAUUAUCAAAAAGUAUUAAAAAGUAUCUAAAAUUAUCAAAAAUUAUCAAAAAGUAUCAAAAACUAUCAAAAAUCAUCAAAAAGUAUCAAAAAGAAAAA'
p240
aF0.9949622166246851
aa(lp241
S'Campfire'
p242
aS'AAAAGAUGAAGGUACAAGAACAAGGCGUAAAAUGCGACCGGGGAACCCAGGUGUUAUAACAUACGAAGAGAUAGAAAGUUAAUCUUCGCAUGGAGGACAAGGAAAGCCUGUUAAGAAGCGGAAAUGACUAUUUAGCCAGUAGUAAUCCGUACCGUUAAUCAGCUAGCUGAAAACGGCAGCGACUGGGUCUCAAAGAGAGUAUCAAGACCGUC'
p243
aF0.8867924528301887
aa(lp244
S'Anemone'
p245
aS'AACUGUCUCGAAAGAGAUACAUUCGAAAGAAUGGGGUUCGAAAGAGCUCGACGUGAAAAUGUCGGUCGCUAAUGUGACCGAUGCAAAGGCAUCGAUACGAAAGUAUCGUGCCCGAAAGGGCACCCAUAGGAAACUAUGCGUCUUGAAAGAGACGCAUACGAAAGUAUGCCGCUUGAAAAGGCGGGUAACGAAAGUUACGCUGUCGAAAGAUAGC'
p246
aF1.0
aa(lp247
S'Fractal 3'
p248
aS'AAAAGGAUUACGGAAGAAAACUAAAAAACCGCUGGCGUAGCAAAACCUCGAAAUGGGCCAGCCGUGUAAACCGGGAAACCAGACGUGCAGGAAAACCAGAAAACCGGAGAGAUUAAAAA'
p249
aF0.8907563025210085
aa(lp250
S'Kyurem 5'
p251
aS'AAAAUCUACCCGUUAUAAUUAGGCUAAAAGGACGGCAUACGCCUAAAUGUCCGCCUCCGAAAAACGGAGACUAGUCGGAACUAGUAAAAAAAAAAAAAAAAAAA'
p252
aF0.9423076923076923
aa(lp253
S'Snowflake Necklace ( or v2.0 )'
p254
aS'UGUAUUGAAAUAUGGAGAGACAGGAAAAACUAUCUAAAUCAAUGAAAAACAACGAAAAACAUAGAAAAACUAGUUUCAGUUAAAAGGCCAACCUCAACGAAAACUUCCAAAAAGGUAGAAAAAACAGGAAAAACGACGAAAAACGCGGGGUAGCCGAAAAGGCAAAUGCUGGAAAAACCUUCAAAAAGAAAGAAAAACUCGGGAAAACUAGGAAAAACCUGCAUUAAACAAAAUUAUAACGUCAGGAAAAGCACUAAAAAAUAUAGAAAAACUUCAAAAAAUGGGGGAAGACCAGAGGUAGGAAAAAAGACAAGUUCAGUAAAAAAUACGAAAAACGUGGAAAAACUUUGAAAAACAUAGAAAAACUAGAACUACCAUAUUUUAAUACG'
p255
aF0.8457583547557841
aa(lp256
S'Methaqualone C16H14N2O Structural Representation'
p257
aS'AUUUUAAUAUCGGAUCGGUCAUGCGAAAGCAAGUCAGUCGAAAGACAUGCACUCUAAUGAGGGUCACUCGAAAGAGACUGGAAAAAACAGAGACAGCAAGACAGACAGAAACAGAUCAGUUUAAAGCACUCAAAGUGAAACAAAAAAAAGAGAGAAAGUGGAAAUUCGGCGAAAGCCGUCGAAAGAUUUCGGCAAAGAUGACCAGGAGCAAGUAAGCCACUGAGUCAAAAGUCGAAAGACAGACAAUCGAAAGAUACAGAGUCGAAAGACAGAUAUGCGAAAGCAAUACGGUUCAUGAAAACGCGCGAAAGCGAUCUGAAAACGGACAUGCACGUCAAGGAACAGAUCAUUUAAA'
p258
aF0.9492957746478873
aa(lp259
S"Cat's Toy 2"
p260
aS'AAAAGGGUUUGUAAAAUGUGUUAAAAAAAAAAAAAAAAAUGAAUGUAAGAUAAUGGAAAACGAAAGUGAAAAAAUCGAAAAAUUAGCAAACCCAAAA'
p261
aF0.979381443298969
aa(lp262
S'Zigzag Semicircle'
p263
aS'AAAGAUUGGUGCGACAACAGACAGCCUAAUAAAA'
p264
aF0.9411764705882353
aa(lp265
S'Short String 4'
p266
aS'AAAAAAGAAAUGGGUAGAUAGGACUACUGAAAGGAGAGCAAGUUGUAAGCUAAUGUAGGCUAGAAUAAGCAAACUCAAAAAAAAAAAAAAAAAAAAA'
p267
aF0.9381443298969072
aa(lp268
S'Gladius'
p269
aS'GGAAACAAGAAAAUAAAGAAGAGAGGAAAGACUCUCAAAUAUGAAAACGUAAGCUAGUAUGGUCUACAGAUGAAAAAAUAAAGAUAUAGUCGAUAUAGCAGAAGGGGAUGACAUCUAUAUGGAACGUAUGAUCGCGUCGACUUCGACUGUGCAGGUUAUAAGAAUAUUAAUAUAUCAGGUGACAAAUCUAGCGGAGAAAUUCUCAAGUACAACACAUAAGAUGUGAUGAUGAGAAGAUAUACAUGUCAGAGAGCGAGAAACCAGUCAGGUCUCUAAUGAGACCGAGACGAGUUUACUCUUACCUGAUAAGUAUGUCACAACGUCUCAUCGUCGAAAGUGAGAAACUUGUGAGCGAAAGCUCAAAGAAUGUCAAGCAGUUCGUCGGCAAGAACAAAAAAAU'
p270
aF0.905
aa(lp271
S'Thunderbolt'
p272
aS'AGAAGAGACAAAAAAAGGGGGAAACGGAUGACAAAAAUAGGGGGAUGAUGAGAACUUAAAAAAAUUGCAAAAAGCGAAAAAAAUAAAUGGCUUAAAAAAAAGGAUAAAAAAGAAGAAGGGGUGAAAAAUAAAAGACUGCAAAAAAGCAAAAAGGAGGAGUAUCAUAGACGAAAAGCUAGAUCAAGAAACAAAAGGAGAGGAAACUACAACGAAAUAAUAGAGAUCAAAAAAAAGCAGGCGAGCUGUACAAAGUGUAGACAAACCAGAAAAAAAAACAAACCUUAAAAAAAGACAGAAAACGGUGUCAAAAAUAAAAAAAAAGAAAAGGCACCAAUAGAAAGCAUUCCCCAAAAAAAACACCAGCCACAAAAAGAAAAAAACAGUUUCGGUUA'
p273
aF0.9183673469387755
aa(lp274
S'Mutated chicken feet'
p275
aS'AAAAAAAAGAGGAGGAAGCUAGAAAACCAAACCGUGGGAAGUGGUACCAAGGAAACCAAAUCUAGGAAGCGAGAAACUCGCAAAGUAAAGCCCAAAAAAA'
p276
aF0.86
aa(lp277
S'Chicken Tracks'
p278
aS'AAAAAAAUUUGUGUUGCUGGAAACGGCAAGACGAAAACGUCGAGAUGAAAACAUCGACACAGUGUUCAUAUAAGAAAGACGAUGAAGCGUAAAAUCAAAGUGACCACAAAUAAAAA'
p279
aF0.9310344827586207
aa(lp280
S'Looking Back Again'
p281
aS'GUAAUGUCGAUGGAAAAGGUCUCGAAGAGACCAGAUCAAGUCAUCAAGUCAAAGAGGACAUCGAUAAGGAUGAAAACGUCAAAGGUCGAGAGACAAGACUACGUCGGGGAAAAGGUACGAAAGUGCCAAAAAAUUCCAGAGGAGACAAAGUAUCGGAAAAAAUUUACGGGGUUUUAAGGAGAAGGGUUAUGUGGGAGAAAUUCUUAGUGAACCGACAAAUGUGAAAGCAAAAAUCCCAAACUCGGAACGGUAGAAAAAGGAAAAACGUAUAAAUGGGCGUGAGCGGAAAACGCUUCCAAAAUACAGUUUGUACAAAAAGGGAGGCUCGAAAGAGCCUAAUACUCGAAGAAACUUGAAUCAAGUGAGUGCUAAACGUAAUUUUAAAGUAC'
p282
aF0.8637532133676092
aa(lp283
S'Multilooping 6'
p284
aS'AUCUUGACUCGUGACUAAUGUUACCGGAGAAAGCUCUCGAGUCCGUAUCAAAGGAUACAAGCUAAUGGGCUUUGAAUAGGUA'
p285
aF0.926829268292683
aa(lp286
S'Cesspool'
p287
aS'AUAGGAGAAAACAAAAGGUUAUAGUAAAAUACAAAAAAUACACAAGGAGAAAAGAACGGGAUUUAAAAACAAAAAUAAAAGAAAGUUAACUAUAAGAAAACAGGUUGGUAGAGUGAAACACAAUAAAAAAAGAGGGGGAAAACAAUUGGGUUAAUAAAUUAAAAGGAAAUACACACAAGGGGGAAGGAAAUAAAUCGGGAAAGUUAAAAACAAUAACAAGAUAAGGGGAAAAGAACAUGCUUUAAAAAGAAAAAAAAAGGAACAACCGAGGGGGUAGAAAACAAGCAGGGAGAAGCAAAGCUAUCAAUAAUGCAAGGGGAAAAAAACAGGGUUUAAGAACGAAAAGAGAACAUCGGCC'
p288
aF0.7458100558659218
aa(lp289
S'Hoglafractal'
p290
aS'AAUAAGGAUCUUGAAAAUAUACAAAAAAGUAUGCAAGGAGGGAAAAGAGGAAAACUCUUCCGGUGGAGUCUAAUGACUGCAGCCUCUGCUGAAAGAUCAAAAAAGAUCCAGCCGCAAGUCAAAAAGACGAAGGAGGAAAACCCCGCUAGAAAACUCGAGUCAAAAAAGACGAGACAGGCACAUCUGUCCCCACAGGCAGAUACAAAAAGGAGGAAAAAACCCCGUCUAAAUGACUGAAAACAAGGUAUGAAAAAAGUCAAAAGAGACCGAAAAACAAAGCUAUGUCAAAGACAUAGAAAAAAACGUGCCGAAAAGGUAUCAAAAACUAGAAAUGGUAAAGCGCCGGUUUGGAGAGUUAAAGGACAACCUUAAAAAGCUUUAUUAUGUGAAGUACUCCCUG'
p291
aF0.91
aa(lp292
S'Bullseye'
p293
aS'AAAGUGGAUGAAACGUUAAGUCAAAACGGAGACACGAAGGGUCCACAAAAAAAACUUCGUUGAAGACCAUGAUGAAACGUCUAGGGGAAGCUUCAAGAAAAAAAAGUAGAUGGAACGUCAAUACGAAACGUAAAGAUGUAUUAUCUACAAAAAAAAAUCGAUGGAAUGUCAUGGUGGAACACCUAGAUUAAGGGUCGAUAAA'
p294
aF0.8514851485148515
aa(lp295
S'Shooting Star'
p296
aS'AGUUUUAAUCCUUGGUAAAAGAAAGCCGGACAGAUAUCGAAAGAAGUACGUCAGAGAAUCAGUACCGAGAGAUGUGGGACGCCUAGGUCGUAGCAGUCAUAUGAGCUAAUGACCAUAAGACGAUUAAUGCCGGUGAAGUAAGAAAAGUAACCCCGUUGGGCACAAGGUGCCAGACACAAAGUGUCGAGAAAACAUAGUAGAGUGCAGUGUAGAUGAAUGGGGAUGGAACAUCCUCUGAGUGAAACGAUCGCUCGUGUAUGAAACAUACGCCGAUACGACGCGUUACGCCACCAACGAAAGAGGUGAGUGCGGAGCCACAUGCUCGAAAGAACAUCCCGCCUAAGAUCAGAAUGAUCAGGAAUUA'
p297
aF0.8076923076923077
aa(lp298
S'Teslagon'
p299
aS'ACAAAACGGAAAUAUUGGCUGAAAACUGGAAAUUUUUAUCUUUUUAAUUGAUCAAGUAGGCAUUUUAUCAUUUAAUCGCAUAAAUCAAGCGGAAUAAAAUUAUUUUUUUUCUUUAAGGGAAACAGCCAUAAAUAAAAUGAGGACCUCUUCCUUUUCGUGGAUCAAGUAUGCAUUUUUUUUUUUAUAAUGCAAUAUAGUAUCCACAAAAAUCUAUUCUUCUUUUUAAGACAAAUAAGGAUGAACAAAAUUAUUGUUUUCUACUUUUAAGAUAUCAAGUUCGAAUCCAUAUAUUAAGCGGGAAAAAUUGCACGCGAAAAAAGGACAAAUAAAAAAGAAUUUAAUGAUUCAAGUUGCCAAAAUAACCACGUCAAAAACGAGAAAA'
p300
aF0.6727748691099477
aa.