(lp0
(lp1
S'Simple Hairpin'
p2
aS'GAUACAAAAAAGUAUC'
p3
aF1.0
aa(lp4
S'Arabidopsis Thaliana 6 RNA - Difficulty Level 0'
p5
aS'GAUAGACAAAAGACAAAAAAAAAAAGUCGAUAGAUCAAGAUAUAUAUAUAUAUAUACAAAGAUACAAAAAAGUAUCAGUAUAUAAUAUAUAUAUAUCAAGAUCUAUCAAGUCUAUC'
p6
aF1.0
aa(lp7
S'Prion Pseudoknot - Difficulty Level 0'
p8
aS'GAUAGCAGAUCGAAAGAUCGCUAAUCAAAAAAAAAA'
p9
aF1.0
aa(lp10
S'Human Integrated Adenovirus - Difficulty Level 0'
p11
aS'GAUUGAGAUGUAUCUGAUAGCUAAAAAAAAAGGAGCUAGAGAUUCAGGAUGGAGAACAAAAGACAGUGAAACCCUAAAAAAUGGGUUUCGCUCAAAGUCGAUCUUAAAUAAAAUAAAAGUCUGGGGCAAUACAAAAAAGGUAUGUCUUCAAAAAAAAAAAUGCUGUCUGAUAAAACCAUCUCAAAGAUCAAA'
p12
aF0.96875
aa(lp13
S'The Gammaretrovirus Signal - Difficulty Level 0'
p14
aS'AACUCGGGAUGGAAAAGUCCGUCAAGUGAAAAAAGAUCAAGAUAGUGUCAUACUAAUGUAUGUAAAACACGUCGAUCGGUAAAGGUUAAAGAACCUUUAAA'
p15
aF1.0
aa(lp16
S'Saccharomyces Cerevisiae - Difficulty Level 0'
p17
aS'GAUUUAGCGACAAAAAAAGGUCGGGGGAGAAAAAAAAAAAACCAAAAGAGUCGAAAAAAGGCUCCUAGAUCAAAUGAGAGACAAAAGCGAAAAAAAGCUUGACGAAAAAAAAAAAAGUCAAAAGCUACAAAAAAAGUAGCGUCUUUCUAAAGAUGGACAAUGUCGAAAAAAAGGCAUAGAACAAAAAAGGUUCUAAAAAGGUACUAAAAAUGUGCCGUUCAUCGAAAUAUAGACAAGGGCAAAAAAAAGUCUGACACCUAAAAAUGGUGUCAAAAUGUACUAAAAAUGUACAGUUUAUGGAAGGCUACGUAAUAUCGAAAAAAAGAUGGAGGGUAAAAAAGGCCCUCAAAAGUGUUAGAAAAGAACGCGCGUAGCAAAA'
p18
aF1.0
aa(lp19
S'Fractal 2'
p20
aS'AAAAAGAACGAUCAAAGAGAGAUACCUUGAGGGAAAAAAAAACCUCUUCAGAGAAAAAAAAAUCUGUGGAUCAAAAAAAAAGGAUCAUGGUAUCUUUCGAAGAUUUCUAUAAUGAGCAAAAAAAAAAGCUCUGGCGAAAAAAAAAAAUCGUAAACGCAAAAAAAAAAGCGUGGUAUAGGAGUCGAGGAUUUGUGCGAAGAACGAAAAAAAAAGUUCAUGAGGAAAAAAAAAACCUCUAGAUGUAAAAAAAAUCAUCGAUGUACGGAUCAAAGAUCGUUUAAAAA'
p21
aF1.0
aa(lp22
S'G-C Placement'
p23
aS'ACACAAAGUGUA'
p24
aF1.0
aa(lp25
S'The Sun'
p26
aS'AAAAGGUGGUGUAUCACUAAACCUUUAAUCACAACUGGAUGAAAUCCAAAGAGGGUAGCUCAGGGCGAGGAAUUGGAACCUGAGAAACAUAGGUUGACGAAGUCAAAAUCGUGAAACGCAGAUGGACGAAGUCCAAAUCGCGAAAAUCAAAUGGAGGAACUCCAAAUUUGGGAACAUAAAUCGAUUAUAUCUUAAUCGUGGAACACACAUACGCUAUACGUAAAUGGUGGACCCACGGUGGACAAGGUCUAAGGCACG'
p27
aF0.8294573643410853
aa(lp28
S'Frog Foot'
p29
aS'GAAAAAAAAAUAUCAAAGGAUAGAUCGAAAGAUCGGGCAAAGCCC'
p30
aF1.0
aa(lp31
S'InfoRNA test 16'
p32
aS'GAUAGCACCGAGAUCGAAAGAUCUACGUGGGUUAUC'
p33
aF1.0
aa(lp34
S'Mat - Martian 2'
p35
aS'GAUCGAAAGAUCAAAGAUAGACAAGAUAGACAAAAAAAGUCUAUCGUCUAUCAAAGAUAGAUCAAAAAAGAUAGACAGAUAGACAAAAAAAGUCUAUCGUCUAUCGAAGAUAUAGAUAUAUAAAAAAAAUAUAUAUACUAUAUCAAAAAGGAUCUAUCAAAGAUAUAGAUAUUUAAAAAAAAUAGGUAUAACUAUAUCAAAGAUCGAAAGAUC'
p36
aF1.0
aa(lp37
S'square'
p38
aS'GAUAGACCAGAUCCAUAGACCAUAGCAAAGCUAUGAAAAGUCUAUGAAAAGAUCUGAAAAGUCUAUC'
p39
aF1.0
aa(lp40
S'Six legd turtle 2'
p41
aS'AAAAAGCAAAGCGAAAGCAAACCGAAAGGAAACCGAAAGGAAACCGAAAGGAAACCGAAAGGAAACCGAAAGGAAAGCAAAAAAAAAAAAAAAAAAAA'
p42
aF1.0
aa(lp43
S'Small and Easy 6'
p44
aS'GCCGGAAAAUCCAACCAAAAAAAAAGGGGC'
p45
aF1.0
aa(lp46
S'Fractile'
p47
aS'AAAAAAAAAAAAGCGAAAGCAAAGCAAAGCGAAAGCAAGCAAAGCGAAAGCGAAGCAAGCGAAAGCAAAGCAAGCGAAAGCAAAAAAAAAAAAAAAAAAAAAAAA'
p48
aF1.0
aa(lp49
S'Six legd Turtle'
p50
aS'AAAAUGUAAAUAUCAAUGUUAAACAAAAGGAAAAAGCGAAAGUAAAGGAAAAGUCAAACCGUCAUUAAAAUACUCGUGUUAAGGCAAAAAAAAAAAAAAAAAAAA'
p51
aF0.9428571428571428
aa(lp52
S'snoRNA SNORD64'
p53
aS'GAUAGCAAAAAGACAAAAGACAAAGAUACAAAAAAAAAAAAAGUAUCGAAAGUCAAGUCAAGCUAUC'
p54
aF1.0
aa(lp55
S'Chalk Outline'
p56
aS'AAAAAGAUCAGAUACGAAAGUAAUCAGACAGACGAAAGUCGUCAGAUAGCGAAAGCAUAUCAGGGACGAAAGUCACCGAUCACAAAAAAAAAAAAAAAAAAAAA'
p57
aF1.0
aa(lp58
S'InfoRNA bulge test 9'
p59
aS'GAUAGACAGAGAGAGAUAGACGAAAGUCUAUCCCCGUCUAUC'
p60
aF1.0
aa(lp61
S'Tilted Russian Cross'
p62
aS'AAAAGCCAGCGUUGAAAGACGUCUCAGUUCGAAAGGAUCACCCUAAUGGGUGAGAGCGAAAGCUCGAGAGAUCGAAAGAUCCUGGAAAAAAAAAAAAAAAAAAAA'
p63
aF1.0
aa(lp64
S'This is ACTUALLY Small And Easy 6'
p65
aS'AAAAAAAAAAAAAAAAAAAAAAAAAAAAAAAAAAAAAAAAAAAAAAAAAAAAAAAAAAAAAAAAAAAAAAAAAAAAAAAAAAAAAAAAAAAAAAAAAAAAAAAAAAAAAAAAAAAAAAAAAAAAAAAAAAAAAAAAAAAAAAAAAAAAAAAAAAAAAAAAAAAAAAAAAAAAAAAAAAAAAAAAAAAAAAAAAAAAAAAAAAAAAAAAAAAAAAAAAAAAAAAAAAAAAAAAAAAAAAAAAAAAAAAAAAAAAAAAAAAAAAAAAAAAAAAAAAAAAAAAAAAAAAAAAAAAAAAAAAAAAAAAAAAAAAAAAAAAAAAAAAAAAAAAAAAAAAAAAAAAAAAAAAAAAAAAAAAAAAAAAAAAAAAAAAAAAAAAAAAAAAAAAAAAAAAAAAAAAAAA'
p66
aF1.0
aa(lp67
S'Shortie 4'
p68
aS'GCGAAAGCAGCGAAAGC'
p69
aF1.0
aa(lp70
S'Shape Test'
p71
aS'AAAAAGGGAUCAAGAUACAAAAAAAAGUAUCAAGACAGACAGAUACAAAAAGUAUCGGAUCGAAAGAUCAGUCGUCAAGAUCGCAAAAAAAAAAAAAAAAAAAA'
p72
aF1.0
aa(lp73
S'The Minitsry'
p74
aS'GGCAAAAAGGCAAAAAGAUGAAAAGACAAAAGGAUAAAAAAAGAUCAGUCAGUCGGCCGGUC'
p75
aF1.0
aa(lp76
S'stickshift'
p77
aS'AAGAUAGCCCAAAAAGGAGCUAUCAA'
p78
aF1.0
aa(lp79
S'U'
p80
aS'AAAAAGAUACAGAGAGCAGAGAUAGAUACGAAAGUAUCUAUCCGCCCGUAUCAAAAA'
p81
aF1.0
aa(lp82
S'Still Life (Sunflower In A Vase)'
p83
aS'AAAGAUCAAGAGGCAAAAAGUCUCAAUAUGCAAAGCAUGAAGAUACGAAAAGUAUUAACAUCCAAAGGAUGAACAUACAAAAGGUAUGAACAUACAAAAAGUAUGAAUAUAUAUAUAUAUAUACAUAUCGUUACAAAAAAGUAACAGGUACAAAAAAAAAAAAGGAUCAAAAAAAAAAAAAAAAAAAAAAAAAAAAAAAAAAAAAACCCGAUCACAAAAAAAAAAAGUACCGAAACUAAUGUUUCAGAUAUGUAUAUGUAUAUAUAUAUAAGGGACAAAAGGUUCCAACAGGCAAAAAGUUUGGACGUCCAAAAAGGACGAAUUUCCUAAAUGGAGAAACAUAGGAAACUAUGAACACGCAAAAAGUGUGAGAUCGAA'
p84
aF1.0
aa(lp85
S'Quasispecies 2-2 Loop Challenge'
p86
aS'AAAAUGGGCGAUUAAGAGAGAAAUCUUGGAAUCAGAGAGGCAAGGAAUCUCAAGAGUAGCACACAAAAGGUGGACGUCUCUGCUCUAAAAAAAAAAAAAAAAAAA'
p87
aF1.0
aa(lp88
S'Corner bulge training'
p89
aS'AGAUAGCGAUACAAAGUAUCAAAAGCUAUCA'
p90
aF1.0
aa(lp91
S'Spiral'
p92
aS'AAAAAGAUCAGAUAGCAGACAGAUACAGAUCAGAUCAGCAGCAGCAGCAGCAGCAAAAAGCGCGCGCGCGCGAUCGAUCGUAUCGUCGCUAUCGAUCAAAAA'
p93
aF1.0
aa(lp94
S'InfoRNA bulge test'
p95
aS'AAAAAAAAAAAAAAAAAAAAAAAAAAAAAGAGCAAAAAAGGGGAAAAGAGCGAAGAGCAAGAGCAGAGCAAAAAGCAUCAGCAUCAAGCAUCGGAGCAUCAAAAACCACCAAAAAAGCAUCA'
p96
aF1.0
aa(lp97
S'Worm 1'
p98
aS'AAAAAAAGGGGGGGAGAGCAGGACAAAAGAUCAGCACACGCGCGC'
p99
aF1.0
aa(lp100
S'just down to 1 bulge'
p101
aS'AAAAAGAGCAGAUACGAAAGUAUCAGACGAAAGUCAGCAUCAAAAGAUCAGACGAAAGUCAGACGAAAGUCAGAUCAAAAAAAAAAAAAAAAAAAA'
p102
aF1.0
aa(lp103
S'Iron Cross'
p104
aS'AUACAGACGAAGGCACACAAAGUGAGACGAAAGUCAGCCAAGGCCACACGAAAGUGACGCAAAGCGAGGCAAAUGCACACGAAAGUGGGAUUAUAUCAGCAAAAGUCACACAAAGUGAGUAGA'
p105
aF1.0
aa(lp106
S'loops and stems'
p107
aS'AAAAAUAUAGACAAAGAUUAAAAAUCAAAGCUCGAAAAAAAAGAUACAAAAAAAAAAAAGUAUCAAAGAGCGAAAGAACAAAAAAAAAAGUUCAAAGAUUAAAGACAAAAAAAAGUCAAAAAUCAAGCAAAAAAGCGAAGUCUAUGGAAAA'
p108
aF1.0
aa(lp109
S'Water Strider'
p110
aS'AAAAACCGAGAAGGUUCAGGCAAAGGUCAGCGAAAGCUGCGCGGCGUGACCCAAAAGAGCACGAAAUUGAGCACCAGCUAGGGAAAAAAAAAAAAAAAAAAAA'
p111
aF0.9611650485436893
aa(lp112
S'The Turtle(s) Move(s)'
p113
aS'AAAGGGAAACCAAAUAAGAUAGCCAAAAAAAAAGGCUAUCUUUAAAGAUCAAAAAGAUCACAAGCACGAAAGUGAGUCGUACAAAAAAAGUACGUAAAGCGGAUGGGAAACCUUAAACGGGAAACUGAAAGACCUACAAAAAAAGUAGGUAAAAUACGAAAGUGAAAAACACAGCAAAAGUCAAAAAAAGGCAACGCAAAAAAAAGUGAAACAUGCAAAAAAGCAUGAAACAAGAAAAACUUGAAGCUGUGAAAAAAAAAGCGAAAGCCCAAAGGGAAACUGAAAAAGAUACAAAAAAAAAAGUAUCAAAAAACGC'
p114
aF1.0
aa(lp115
S'Adenine'
p116
aS'GAUACAGAUAGCAGAUAGCAGAUAGCAGAUAGAAGAUAGCAAAAGAUAGCAAAAAAGCUAUCAGCUAUCGGAUACAAAGAUAGACAAAGUCUAUCGUAUCAUCUAUCAGAUAGAUAUAUCAAAGAUAUAUAAACUAUCAGCUAUCAAAAGCUAUCAAAAGCUAUCAAAAGUAUC'
p117
aF1.0
aa(lp118
S'Tripod5'
p119
aS'AACAUCCUGUGAAAAACGGUAGCGAAAAGCUAGGUGGA'
p120
aF1.0
aa(lp121
S'Shortie 6'
p122
aS'GCGAAAGCAGCGAAAGCAGCGAAAGCAGCGAAAGC'
p123
aF1.0
aa(lp124
S'Runner'
p125
aS'AAAAUCAUCAGAACUAAAAGUUAGGAUAGCUGAUCAAACGGUUGCGAGGAAAUCUUAAGGCUAUGACAAAGCCAAAAAGGCAGAAAUGAUAUGUGGAAACACUUCAUGGGCUAAAA'
p126
aF0.9310344827586207
aa(lp127
S'Recoil'
p128
aS'AAAAAGAUACAAGCAAGCAAGACAAGACAAGCAAGCAAAGCAGCAGUCAGUCAGCAGCAGUAUCAAAAAAAAAAAAAAAAAAAAA'
p129
aF1.0
aa(lp130
S'[CloudBeta] An Arm and a Leg 1.0'
p131
aS'AAAAAGACAUAGACGAAAGUACUAGACAGCGAAAGCGUCAGUCAAAAAAAAAAAAAAAAAAAA'
p132
aF1.0
aa(lp133
S'[CloudBeta] 5 Adjacent Stack Multi-Branch Loop'
p134
aS'CCAUCGCGCGAAAGCGCGUUACUAAUGUAGCGAGGCCAAGGUCUCGAUCGAAAGAUCGAUGGA'
p135
aF1.0
aa(lp136
S'Triple Y'
p137
aS'AAAAUGAGGAAGACGUCGAAAGAUGGGUCGAAAGAUCUCUGCAUACUUUUAAGAAACGAUCAAAGGAUCCAACCCUCUAAAAAAAAAAAAAAAAAAA'
p138
aF0.9175257731958762
aa(lp139
S'Misfolded Aptamer'
p140
aS'GCAAUAAAAUGUAAGAAGCUUUGUUAAUCUGAAAAAAAAGUUAAAUUCGC'
p141
aF0.96
aa(lp142
S'Flower power'
p143
aS'AAAAAGAUCGGUCAAAGACCAGCUCCGCCAAAGGCGAAGAUCAAGGAUCGAUAGCGAAGCUAGAGCAGAGGGAACCUCGAUCAAAAAAAAAAAAAAAAAAAA'
p144
aF1.0
aa(lp145
S'Kudzu'
p146
aS'AAAAGGAGUUAAAGUAUGGAGCGAAGCAAGAUGUAGCUCGUUGGAUAUUCAUAGCAGUGGUAUGCCAAAAUGUGGAUUUUCAAAAAAAAAAAAAAAAAAAA'
p147
aF0.9405940594059405
aa(lp148
S'"1,2,3and4bulges"'
p149
aS'AAAAGAGACGUAAACGAAAGUGAAAUUAUGACGAAAGUUUGGACUAAAGCGAAAGGUAAAAAAAAUAGGGUGAAAACCGUCAAUGAAAAAAAAAAAAAAAAAAAA'
p150
aF0.9238095238095239
aa(lp151
S'medallion'
p152
aS'GAGAGCGCAUAGAAAAGUCUAUGGCACGAAAGUGACACGAAAGUGACAUAGCGAAAGCUAUGACACGAAAGUGACAUAGCGAAAGCUAUGACACGAAAGUGACACGAAAGUGACAUAGCGAAAGCUAUGACACGAAAGUGACAUAGCGAAAGCUAUGACCCUAAUGGGACACGAAAGUGACAUAGGGAAACCUAUGACACGAAAGUGACAUAGCGAAAGCUAUGACACGAAAGUGACACGAAAGUGGCAUAGCGAAAGCUAUGACACGAAAGUGACAUAGCGAAAGCUAUGACACGAAAGUGACAUGAAAAUGAGAUAGCGAAAGCUAUUUGCUCUC'
p153
aF1.0
aa(lp154
S'[RNA] Repetitious Sequences 8/10'
p155
aS'AGCAAAAAAGCAAAAAAGCAAAAAAGCAAAAAAGUAAAAAAACAAAAAAGAAAAAAAUCAAAAAAGCAAAAAAGCAAAAA'
p156
aF1.0
aa(lp157
S'Documenting repetitious behavior'
p158
aS'AAAAAAUGAAAAAAAAAAUUAAAAAAAAAGCAAAAAAAAAAUGAAAAAAAAGCGAAAAAAAAGGAAAAAAAAAGGAAAAAAAAAGAAAAAAAAAGGGAAAAAAAAGGAAAAAAAAAACGGAAAAAAAAAGAAAAAAAAAGUAAAAAAAAAUGUAAAAAAAACCAAAAAAAAAUCAAAAAAAAAUGGAAAAAAAAUGUAAAAAAAUCAGAAAAAAAACAAAAAAAAAAGAAAAAAAAAAGAAAAAAAAAACAAAAAAAAAAAUAAAAAAAAACGAAAAAAAAAACUAAAAAAAAUCAAAAAAAAAUCAAAAAAAAAUCAAAAAAAAAUCAAAAAAAAAGCAAAAAAAAAGCAAAAAAAAAGUAAAAAAAAAACAAAAAAAAAGAAAAAAAAAAGCUAAAAA'
p159
aF0.925
aa(lp160
S'7 multiloop'
p161
aS'ACCCGGGUGAAUGCACCCCUGCCGAAAGGUAGCUGAUUAAUGUCAGGCUCCGAAAGGAGUAUAGUGAAAACUGUCGUUCGCAAGGGCGGGGU'
p162
aF1.0
aa(lp163
S'Kyurem 7'
p164
aS'AAAAAGUGAGAUGUGGAAACCUUACAAAAUGGAGUCAUAAAUGCGAGUACCCUAAAAUGAAAAAUGAUGCAGCCGUCAUCACGAAAAAAAAAAAAAAAAAAA'
p165
aF0.9411764705882353
aa(lp166
S'JF1'
p167
aS'GAAGAAAAUCAAAGUACAAGAUUCAAAAGAUACCAAGAUACAAAGAAACUCGAUAGCAAUAUAUGGAUAUACUAAUGUAUAUCUAUGUAUAAGACGAAAGUCACAUAGAUACGAAAGUAUCUAUGAACAUACGAAAGUAUGAGCUAUCUGUUUCGGUAUCGGGUGUCAAAGAUAGCUCAAAAAGAGACUGUCAGGAUAUAUAUAUAUAUAUAUAUCUCAAAGGAGAUAUAUAUAUACUAUAUAUAUCAAAGGUACAAAAAAGUAUCGUUAGAUAUCGAAAGAUAUCUAGCAGACAUAGAAAUAUGAAGAAUCAGGUAUUAACACAGGCAUACGAAAGUGGCCGUGUAGUUGGAUAGUAAUCUAUUGUAACAUGAUAUUUACUUUAGA'
p168
aF1.0
aa(lp169
S'multilooping fun'
p170
aS'GUGAAUAAGAAAGUGUUAAUAUUUGAAGGAAAAAGC'
p171
aF0.7777777777777778
aa(lp172
S'Multiloop...'
p173
aS'GAUCAGAUCAGACGAAAGUCAGACGAAAGUCAGACGAAAGUCAGACGAAAGUCAGACGAAAGUCAGACGAAAGUCAGAUCAUAUACAAAAAAGUAUAGACGAAAGUCGAUC'
p174
aF1.0
aa(lp175
S'hard Y'
p176
aS'AAAAUGUAAGGAGAUAGAUGUAAUUAUCUAUCUCCGACAGGUAUUGAAAAAUAUCUGUCUCUGUAAAA'
p177
aF0.9705882352941176
aa(lp178
S'Mat - Elements & Sections'
p179
aS'AAAAAGAGCGGGAACGAAUCUGGUACCAGGAGUUCCAGGGCUGAAAGGCACAUGAACCACGGUGAAAACUGAUUGGGAACGGCUCAAAAAAAAAAAAAAAAAAAA'
p180
aF0.9619047619047619
aa(lp181
S'Chicken feet'
p182
aS'AAAAUGGAGGUGCAAGCCUGGAAAACAAACCCUAUAAACGCGGAAUCAGGAAGACAAGAACCAAAAA'
p183
aF0.8805970149253731
aa(lp184
S'Bug 18'
p185
aS'AGGAACUAUUGCAACCCAACGCGGAACCAAGUGGCAUUUUAACUGUAAAAACG'
p186
aF0.9245283018867925
aa(lp187
S'Fractal star x5'
p188
aS'AAAAACAUAGGUCAAACACGAAAGUGUAACAUCGAAAGAUGAACAUCGAAAGAUGAACAUCAAAAGAUGAAGAUCUAUGAAAAACAUAGAUCAAACACGAAAGUGUAACUUCGAAAGAAGAACAUCGAAAGAUGAACAUUAAAAAAUGAAGAUCUAUGAAAAACAUAGAUCAAACACGAAAGUGUAACAUCGAAAGAUGAACAUCGAAAGAUGAACAUAAAAAUAUGAAGAUCUAUGAAAAACAUAGUUCAGACACGAAAGUGUAACAUGGAAAUAUGAACAUCGAAAGAUGAACACCAAAAGGUGAAGAACUAUGAAAAACAUAGUUCGAACACGAAAGUGUGACAUCGAAAGAUGAACAUCUAAUGAUGAACAUCGAAAGAUGAAGAGCUAUGAAAAA'
p189
aF1.0
aa(lp190
S'Crop circle 2'
p191
aS'UCUAAUGUAAUUUAAAAACGGAAAAAAAUGAUGAAAAAAAAAAAAAAAAAAAAAAAAAAAAUAUAAAAAAAAAAAAAACGGAAAAAAAGGAUAAAAAUGGAAAUGGAAAA'
p192
aF0.9636363636363636
aa(lp193
S'Branching Loop'
p194
aS'AGUCGAAAAAAAAGUGAGUUCAAUUCCUACGACAAAAAAA'
p195
aF0.95
aa(lp196
S'Bug 38'
p197
aS'AGGAGCUGAGAACCUAACGAGCAGGUAGUGAAAUUG'
p198
aF0.9444444444444444
aa(lp199
S'Simple Single Bond'
p200
aS'AAAAAAGAAAAAAAAUAAUCUAAAUGAUUUAAAAAAAGCAAAAAAAAAAAAAAAAAAAAAA'
p201
aF1.0
aa(lp202
S'Taraxacum officinale'
p203
aS'GAUCGAAAGAAUCAAUGCGAAAGACAUGGGCCGAAAGCGUCACGUCGAAAGAACGAAACCGAAAGAGUUACAGCGAAAGACUGAACAGAUAGAUCGAUAGAGAUACUAUGUAUACUCUAUCAGAUACAAGAUGGCUAUAAAGAUAGACAAGGUCUAUCAUAUAGCUAUCGGUCAGGUUGCUAUGCGAUCGACCGUAUCGAAGGUUUAUCUGUGGAUCGAAAGAAUCGCAGCGAAAGACUGAUCGCGAAAGACGAACAUCGAAAGUAUGAUACCGAAAGAGUG'
p204
aF1.0
aa(lp205
S'Headless Bug on Windshield'
p206
aS'UAUAACGAAAAGAGUUAAAACAUACAAAAAAAAAAAAAAAAAAAAAAAAAGUCAGCGAAGAUAUCAAACCAGGAGGCGAGACAAGGAAAAAAUUAGAAAUGUAAAAAAUCGUCCAAAAAGCCAGCCUCAAAAAAGGACAAGAUUGACAACAAGACAAAAAAAAAAAAAAAGUCGGUGAAGUCUUUCAGUCAGGGAAGGCG'
p207
aF0.94
aa(lp208
S'Pokeball'
p209
aS'AAACUUAUAAAAAGGCAUCGAGGUCAAGUAAGAGAGGCACAAAGCAACGGAACGAGCCAUGUCCGUCAGGCGGAAACGUGCUUGUGAGACAAAAAAAACCGUUAAAAGCAAGAAAGACAAGAAACCAAGAGAGGAAGCAAUGUAUCCACCAGCCGACGGGAAUCAGUUAUCAGCGGCGGUUAAA'
p210
aF0.967391304347826
aa(lp211
S'Variation of a crop circle'
p212
aS'AAAGUGAAAUAAGAAAGUAAAGUCGAGGAACAUAUUGAAUUAAAAGAAAAAAAACAAAAAAAGGUAAAAAAAAGAAAAAAAAAAAAAA'
p213
aF0.9545454545454546
aa(lp214
S'Loop next to a Multiloop'
p215
aS'AAUAUAGAUCAAAAAAAUAGUUUGCGAAAGCGAACGGAUAGACUAAUGUCUAUCGGGAAAAAGGAUCUAUAGA'
p216
aF0.9726027397260274
aa(lp217
S'Snowflake 4'
p218
aS'GUUCGAAUAACCAUAUCCGAAAGGCUGACUUGAUCCAUAAAGACGAUAGAAGCGAAGAUUAACACCAAAGGUGCUAUCGCUAAUGCGGAUCUAGAUUCGGGAAACCCAUAGCAUCGAACAUGAACAUGAAAGAUGCUAUGUCGAAAGAGGAUCGAAAUACCAAAAGUGCAUCGCCUCUAUGAGGAAAAUCAAAGAUUCGAUGCAGAAAUGGUAUUAAGAUACCCGAAAUGCAUACCUUUAAAGAUGAACAUUAAGGACGGUAUGAUAAAGGUGUAUCAGGUUACGCAAAGGCGAUAUUAUCAAAGAUGAACUGGAAAUCGGAUAUCGGGAAACCGUGACGUGUUAGGCGAAAGCAUAUGGAUAUAUCAUC'
p219
aF0.8594594594594595
aa(lp220
S'Mat - Cuboid'
p221
aS'AGAGGAAAAGGAAUCAAAAGUAAGGAAAAGAAGGAAGAAAAAGGAAGAAAUCAAAAGAAGGAGGGGAGCAAAAGAAAGGAAGGAACCAAAAGGAAGGAAGCAAGGAAGCAAAAUCAAGCAAGCAACCAAGCAAAAUAAGGCAAGCAUCCAAGUAAGUAAAAGCAAGCAAGUAAGCAAGUGAGCAAAAGGAAGGAAGCGAGCGAGCAAGCAAAAAAGCGAGCAAGCAAGCAACCAACUGAAAGCAAACAAGCAAGCAAGUGCGAACAAGCUAGCAAGCAAGGGGAAGGAAGCAACCAAAGGCGACCGAGCAACCAACCGGAACCAACCAAUCGCAACCAACCAAUAAAAUCAACGGGAACCAACCCGAACGAAACCCCAAU'
p222
aF0.9526315789473684
aa(lp223
S'Misfolded Aptamer 6'
p224
aS'AAAAAAGACAAAAAAGAUCAGGAAAAGACGAAAAAAAGUCGACGCAAAAAGAUCAAAAAAAGUCAAAAAAAAAAA'
p225
aF1.0
aa(lp226
S'Snowflake 3'
p227
aS'GGUCCCAAUGGAGACGGCGAAAGCCAAGCUCAGAACAUGACGAAAGUCUACAGCGAAAGUUACAAAGUGUCUAAUGCAGAGUACGAAAGUGAAGAGCGGAUGAAUACGAAAGUGGCCAGCGAAAGCCACAAAGUGCCGAAAGGAGGCGAAGAAAUUCAAUAUUCGGUUUAGAUGAAAGGCGACACCAAAGGGCGCAAAGUGCCGAAAGGAGUCUGCGAAAGUGAUGACCAGUCCAAGACAAAAGAUGACAGCGAAAGCCAUGAAGCGGCGAAAGCAGUCGGCGAAAGUCAAGGGCACUCAAACACGAAAGUGGAUUCCGAAAGGUCUAAAAUAUCGAAAGGAAUCGACGAAAGUCAAUAGCGGACCAAGGCGAAAGUCGUUAGCGAAAGCACC'
p228
aF0.8498727735368957
aa(lp229
S'Hard Y and a bit more'
p230
aS'AAAAUGAUUAAGCGAUAGGAAAUUAUGCUUUAUAGGGUAAGACCGAAAGGUCGAGAUAUAAAAAAGUGUCAGGCACUAUAGGAUCUAAAAAAAAAAAAAAAAAAAA'
p231
aF0.9716981132075472
aa(lp232
S'Mat - Lot 2-2 B'
p233
aS'AUAGGAAAUGGGGAUCAAAAAGACGAGCGAAAGUAAAAUCUACUGUAACCAAAAUGAACUCGUAACAAACAAGGGCAAACAAAAGCAAGGGCAAGCAAAAGCUAAUGCGUAAGCAAAAUCAACUAUAAGUGAAAGGAAGCUAAAGCGCAAUACCGAGCAAAAGGAAGAGAAAAGUCAAAAUCAACAGUAACUAAAAUAAAGCUCAAGCAACCAAGGGCAAGAAAAAGCUAGGGCAAGGAAAAGAGAAAGAGCGACCAAAAUCCUCCGCAAGUGAUUCGAACAUU'
p234
aF0.8028169014084507
aa(lp235
S'Shapes and Energy'
p236
aS'AAAAAAGUGGUCAGUUCAAAAGAAUAAGAAUGAAAAAUCUUUAGCGGACAAGGAAAAACUUUAGAAAUAAACCAGACUUCAAAAAAAAAAAAAAAAAAAAA'
p237
aF1.0
aa(lp238
S"Spiral of 5's"
p239
aS'AAAAAGAUACUAAGAUACAAAGAUACAAAACAUACAAAGAUUCAAUGAUACGAGAUACGAAAGAUACAAAGAUACAAAGAUACGAGUUACAAAGAUACAAAGAUACAGGAUACAAGGAGAUAAGAUACAAUAUACAAGAGACAAGAUACGAAUACACAUAGAGACCAAAAAGGUCUGAGGGCUAUGAAAAAGUAUUAAAAAGUAUCAAAAAGUCUCAAAAAGUAUAAAAAAGUAUCAAAAAAUUUCAAAAAGUAUCAAAAAGUAUCGAAAAGUAUCAAAAAGUAACGAAAAGUAUCAAAAAGUAUCAAAAAGUAUCAAAAAGUAUCAAAAAGUAUCUAAAAGGAUCAAAAAGUAUGAAAAAGUAUCAAAAAGUAUCGAAAUGUAUCGAAAAUAAAAA'
p240
aF0.9949622166246851
aa(lp241
S'Campfire'
p242
aS'AAAAGUUCGAGCUUCAAGGUCAAAAUCAAAAAAAUUGAUAGCGAAGCUAAUCAAACAAUAACAGCAGCAGAUAGUAAUCUAAUCGCGCACUACAGUACCAGAGAAAUCGGACGCUGACACGAAAGUAUGUCUCAGGAAAGUACUAAGUGAAGCCACAGACAGACAGAUCGAAAGAUCGUCGUCGAGAGAUCAAGGAUACUACUCCGUGGGAC'
p243
aF0.8820754716981132
aa(lp244
S'Anemone'
p245
aS'AAAGUUAGUUAAUACUGACGGAAGGAAACUUCCCAUGGCUAAUGCCAUGGAUCCAAAGGGAUCGAGGGCGAAAGCUCUCGGUAUGAAAGUACCGUUGCGAAAGUAACGAUAGAAAAGUCUAUCAGAUACGAAAGUGUCGAUAGCGAAAGCUAUCGAAGCGAAAGUUUCGACAGUAAAGGCUGUCGUUUCGAAAGGAGCCAGAUCAAAGGAUCUG'
p246
aF1.0
aa(lp247
S'Fractal 3'
p248
aS'AAAAAGAUCAGAAAGCGAAAGCGCGAAAGCAUUCAGCCAGCGAAAGCGUGAAAGCAGGCAGACAGCGAAAGCGCGAAAGCAGUCAGGCAGCGAAAGCGCGAAAGCAGUCAGAUCAAAAA'
p249
aF1.0
aa(lp250
S'Kyurem 5'
p251
aS'AAAAGGGUAAACGGUCAAAGUGGUCCAAACAUAUGUCAAAGAUUAAAUGUCGGCAUUGGAAAAACAAAUAGAGGCCUUAAUGCCAAAAAAAAAAAAAAAAAAAA'
p252
aF0.9230769230769231
aa(lp253
S'Snowflake Necklace ( or v2.0 )'
p254
aS'GGAAUAUAUAUCUAUACCUACAGCAAAAAGCGGUAAAAAAUACUAAAAGGCGCCAAAAAGGAAGAAAAAGUGGUAGGACACAAAAAGUGAGGGACAGCAAAAAGCAUCGAAAAGGAGCAAAAAAGACCAAAAAGGACCAAAAAGAAGUCCUAGGCAAAAAGCCACUUCCACCAAAAAGCACCAAAAAGGACAAAAAAGGAAGAAAAAUGCCCGAAAAGGAGGAGGAGGGAAAAAUCCAGAUACAGGAAAAACCACCAAAAAGGGGUCAAAACUACCAAAAAGGGUAAAAAAGAACUAUCAGACAAAAAGUCAGAUAUAUCAAAAAGAACCAAAAGAGACCAAAAAGGGCCAAAAAGGACCAAAAAAGAGUAUCAAUAGAUAUAUAUUCC'
p255
aF0.8766066838046273
aa(lp256
S'Methaqualone C16H14N2O Structural Representation'
p257
aS'AAAAAAAGAUUAGAUCGGAUAGACGAAAGUCAUACACUCAAAGGGGAGUCACACGAAAGUGAGCCAAUCGAAAGGUACACAAAAAAAGUGAGGCAGACAGUAGAAUAGAAUGAGACCGGCUCAAGAAUCAGAAUGCAAGGAUAAAAAAACUGGGGUAGACUAAUGUCCACGAAAGUGUACGAAAGUAACCUUUAAAUAACGUAAGAAGAUACACACGCACAGAAGCAAAAGACGAAAGUCGGCUUCACGAAAGUGUAUCGGACGAAAGUCCGCGAGACAAAGGUCAGUCACACUACGAAAGUACUAGAAAUAGACUCGAAAGAGGUGAACCGCAAGUAAGAGCAAAUCAAAAAAA'
p258
aF0.9492957746478873
aa(lp259
S"Cat's Toy 2"
p260
aS'AAAAGAUAAAUGAAAACAUAAAAAAAAAAAAAAAAAAAAGUAAGGGGAUUGAAAAGGAGCGGAAAUGGAAAAAAAUCAAAAAUUCCAUUUAUCAAAA'
p261
aF0.979381443298969
aa(lp262
S'Zigzag Semicircle'
p263
aS'AAAUGGUACGGUAGAAAACAAGACAAUACCUAAA'
p264
aF0.9411764705882353
aa(lp265
S'Short String 4'
p266
aS'AAAAAAGGAUGGAGCAACGAAAAAUAUGCAAGCGCUAUUGAUAAGAGGUCGAAAGAAAUCGAGUAAGGGAAACGACAAAAAAAAAAAAAAAAAAAAA'
p267
aF0.9587628865979382
aa(lp268
S'Gladius'
p269
aS'GGAAACAAAAACAGGAGGGAGGGAAGGAAGACAGACAAAGAUCUAAUGAUCAGCUACGAGACAGAAAAGAUGGAGAGGUCAGCAGACAUAGCAAAUAUGAGAUACAGAUUUGAUCAAGUUCGAAGAGCAGAUACAAUCGAUAUCGGAUAUUGACUAUGUCAAGAGACCAACAUAUCAGGAUUGACCAGUAGCGGUCAAACACGGAAACAUCAGACGGCAGAUCAGAGAUUCUAAAGAUAUACAGAAUAUAUGUACAUAUAAAAGACAGGUAGCUAAUGCUAUCACGUCACUUAUUGGUACCGAUAUUACGUAUAUCGUUUGAAUACAAGAUCACAAGUCAUUUGUUUCAGACCGAAAGGUCAAAGUGGGUCAAACAACACAACAAACGAAAUAACGAAAG'
p270
aF0.915
aa(lp271
S'Thunderbolt'
p272
aS'AGGCAUUGCGAAAAAAAGGGGAGGCGGAGCAGGAAAAUAUAUAGAAUUAACGGAAAGGAAAAAUGAUCUAAAUGAUCUAAAAACCAAAGCAAGCAAAAAAAGAAAAAAAAGUAACGAGGAAGGAAAAAGGAAACACCUCAAAAAGACAAAAAGAAGCAAGAAUAGCGACAAAAAGUCAGAUGAGGUAAAAAAAGAAGAGCAAAGCACAACAAAAAAAAGGCCAUCAAAAAAAAGAGGGGGGGGAUAGCAAAGCUAUCAUCAAGCAGAAAAAAAAAGCGAGCAAAAAAAACGAAGAAAAAGGCUAUCUAAAAGAAAAAAAAUAAAAUGAUAGCAACAACAAUAUUCUAUGAAAAAAAACAGCAACCAUAAAAAAAAAAAAAGUGUGGCAACUA'
p273
aF0.9387755102040817
aa(lp274
S'Mutated chicken feet'
p275
aS'GAAAAAUGCAGCAACGAAGAAUCAAAGAAAGUCGGUUAAGCGACAAACUAUCAAAGAAAAGCUAAAGAUGAUCAAAGAAGAAAACUAAAGCCUAAAAAAA'
p276
aF0.8
aa(lp277
S'Chicken Tracks'
p278
aS'AAAAAAAGGAUAGUCACUCUAAUGAGUAAGAUCGAAAGAUCAAGAUUGAAAAAUCGACUAUCAAGGCGGCCAAGGGCCAGGAUGAAACAUCAACCACAAAGUGGGCCGAAAAAAAA'
p279
aF1.0
aa(lp280
S'Looking Back Again'
p281
aS'GACAAUACGAUCAAAAAUAUGGCUAUGCUAUAAGAUCAAGACGACAAGUCGAAGUUGUUAGAAACAAAGAUCGAAAGAUCAAAAGUUUCGAGUCGAGUCAAGAUAGUCAAAAAGAUAGGAAAUUAUCAAAGAAGUCAAUACGAUACAAAGUACCGGUAGAAACUACCGAUUGGCGAGGUAAAACGAAAUGAAGAUCGAAAGAUCAACUUAAGUAUCACGGACGAAAGUCAAGCGAUCAAAGGAUCGACCGAAUACAUAUCAAAAAAAUUAGACGGGGGGGGGAUCUAAAUGAUCGUCUAAAGGCAGAUAGCUAAAAAAAGCCACCGCGAAAGCGGUGAAGAUCCUAUGGAUAUACAAGGAAUAAAGUCGCAAAAGAGUGUAUUAAGGUC'
p282
aF0.8688946015424165
aa(lp283
S'Multilooping 6'
p284
aS'AGAUUACACUAUGGCUAAUCUAAUGAGUCGAAAGGCUCAGUCGCGAUACGAAAGUAUCCGGAAGAAAUUUACGAUGUAGCAA'
p285
aF0.926829268292683
aa(lp286
S'Cesspool'
p287
aS'GAAGAAGAAAACAACAGAAAACUGAUAAAGUCAUCGAUAACUCAACAAGAAAACAAGAGAAAAAAAAAAAACAAUGAAAACAACAACAAGAAAAAGAAAACAAGUGAAAAGAGCCAAAUUUACCAAUAACGCAAGAAGAAAACAAUAGAACAAAAGAAAACAAUGUAAACACUAAAAAGCGACAAGAAAACAAAUGAAGUGAUGGAAACUGACCGUCAACAUAAGAAGAAAACAACUGAAGAAAACAAUACAAUGAAAACACGAAGCAAGCGAAAAGAAAACAACAGAAAAGAUAUAAAAUCACCAGUAACUGAAGAAGAAAACAAUAAAAAAAAAAAAAACAAUGAAAACACUAAGC'
p288
aF0.7374301675977654
aa(lp289
S'Hoglafractal'
p290
aS'AAGCACAACAUACAAAAGAUACAAAAAAGUAUCGUAUGAAUCAAAUACCAAAAAGGUAGAUCGUGAAGGCGAAAGUCCACUGACAAAGAUCAAAGAAAAAAAAAUUUCGAUCCUGAAGAUUAAAUGUCGGGGGACCGAAAGGCCAGAUCAAAAGACGAGCCGAAAAAGGCGUCAGAGCGAAAAGCUCCACUAAUGUGAGAUAAAAAAACCAGCAAAAAAGCGAAGAAAAAAUUUACAAAAGGAGAUAGCAAAAACGACAAAAAGGUCUCAAAAACAAAACAUUGACUAUGUCAAUGAAAAAAAGCUAUCAAAAAAUUAUCAAAAAGAUCAAAAGUCAAAGUUAUGAAAGGCAGAUCAAAAGCGAAAGCCCGAAAGGCAUAGCAAAGCUAUGAGAUCACAC'
p291
aF0.95
aa(lp292
S'Bullseye'
p293
aS'AAGCACGAGCAAAGAUCAAGAGUAAACAACAGGAUCAAAGAUCAUGAAAAAAAACAGGAUCGAAGAUCAAACUGGCAGGUCAAUCUCAAAGAGUGUGUAAAAAAAGACGUGCGAUGUGCAAUGUCAAAGACGGAGAGGUAUGAUCGUCAAAAAAAAAACCAUCAAAGAUCAAAAUCAAAGAUUAACUUCUAUGAGGGUUAAA'
p294
aF0.8168316831683168
aa(lp295
S'Shooting Star'
p296
aS'ACUUACGGACGUGAGACAAGUAGUACCUGAGAGACAGCGAAAGACGUACUUCUGAGAUCAAAGUCUCGCAUAUACUAGAGAAGGGGACAGAUACAGCCAGAACAGGGAAAUACGUUACGGCGAUAUUCGUCAUACAGCCAUGGAAAACAGUAUAGGGCCUUACAAGGUAAGACAUAGAAACUAUGGAAAAAAUACAGCCCAGUCCAGAUCAAAUCAAAGAUAGACUAUGUCUAUCACAUAGAAAUAAUGGUUUGAUAGACAAAGUCUAUCACAUCCGAAGUAUGGAUCGAUGAAAGAAAUGAAAUAGUAGUGGAACAAAUCAGCGAAAGACGAUAUGUUACUACAUCUUGACGAUCAGUAGGUA'
p297
aF0.8434065934065934
aa(lp298
S'Teslagon'
p299
aS'AAAAAAUCAAAAAAAUGAACAAAAAAACAAGGAAAAAAAAAAAAAAACAAAACAAUAGUAAAAAAAAAAAAAAAAGGAACUAAAAAAGUGGCAAAAAAAUCAAAAAAAAAAAAAAAGAAAAAAAAAGUGCAAAAAAAGCUUCAAAAAAAAAAAAAAACAAAACAAUAUCUAAAAAAAAAAAAAAAGGGGAAAAAAAACCUGGAAAAAAAGUAAAAAAAAAAAAAAAACAAAAAAAUCUCUAAAAAAAUUAGCAAAAAAAAAAAAAAAGUAAACAAUAUCGAAAAAAAAAAAAAAACGAGGGAAAAAAACCGGAAAAAAAGAAAAAAAAAAAAAUCUAAAAAAAAAAAAAUGAAUCGAAAAAAGUACGAAAAAAAAGAGCAAA'
p300
aF0.900523560209424
aa.