(lp0
(lp1
S'Simple Hairpin'
p2
aS'GGGGCAAAAAAGCCCC'
p3
aF1.0
aa(lp4
S'Arabidopsis Thaliana 6 RNA - Difficulty Level 0'
p5
aS'GGGGGGCAGAAGGCAAAAAAAAAAAGCCCGGGGGGCAAGGGGGGGGGGGGGGGGGGCAAAGGGGCAAAAAAGCCCCAGCCCCCACCCCCCCCCCCCCAAGCCCCCCGAAGCCCCCC'
p6
aF1.0
aa(lp7
S'Prion Pseudoknot - Difficulty Level 0'
p8
aS'GGGGGCAGGGCAAAAGCCCGCCACCCAAAAAAAAAA'
p9
aF1.0
aa(lp10
S'Human Integrated Adenovirus - Difficulty Level 0'
p11
aS'GGGGGGGGGAGGUAGUGUGGCAAAAAAAAAAAGGGCCGGGGGGGAAAAAGUCGGGGCAAAAGGGGUGGGUGGGCUAAAAAAUGCCCGCCCACAAAACCCGCCCCAAAAGACCCCAAAACCCCGAAAGGCGGCAAAAAAAGCCGCCGCCCAAAAAAAAAAAGGCCGCAAUGCCAAAAUCCCCCAAACCCCAAA'
p12
aF1.0
aa(lp13
S'The Gammaretrovirus Signal - Difficulty Level 0'
p14
aS'AAGAGAAGGGGGUAAAAACCUCCGGCGCAAAAAAGGGCAAGGCGUGCCCGGGCAAAAGCCCGAAAAGGCGGCCGCCCGAGGUGGGGCGAAAGCCCCACCAA'
p15
aF1.0
aa(lp16
S'Saccharomyces Cerevisiae - Difficulty Level 0'
p17
aS'GCGGGGCCGGCGAAAAAAAGCCGAGGGAAAAAAAAAAAAAACCAGAAGGGGUGAAAAAAACCCCGCCCCGCAAAAGGGCGGCAACGGGGAAAAAAAUCCGGGCUAAAAAAAAAAAUGCCAGAAGGGGCGAAAAAAGCCCCGCCGCCCGAAAGGUGGGGAACGGAAAAAAAAGUCCGGUGGGCAAAAAAGGCCCGCAGACGUUGCAAAAAAAGCGGCCCCCACCGAAUGACUGGCAACUGCAAAAAAAGGCGGAGCGGCUAAAAAUGCUGUUAGAAGGGUUGAAAAAAGACCUGCCGGUCUAAAGGUGGUCAAGGGCAAAAAAAGGCUCGGGGGAUAAAAAUUCCCCCAGAAGGGGCAAAAAAGGUCCCGACCGCCGAAA'
p18
aF1.0
aa(lp19
S'Fractal 2'
p20
aS'AAAAAGGGAGGGUAAAAGGUGGGGGAGAGGGAAAAAAAAAAAUCUCGAUGUGGAAAAAAAAACACGGAUGCCGAAAAAAAAAGGCGAAUCCCCCAUCUGAGGGGGGUGCUGGGGAACGAAAAAAAAAGUUUAACGUGUAAAAAAAAUCAUGAUCGGUGAAAAAAAAAGCUGCACGGCGCCCCCAAUCGCGGGUGGCAAGGGCAAAAAAAAAAGCCCAAUGGUAAAAAAAAAAGCCAGAGACCAAAAAAAAAAGGUUAAGCCACCCGCGUAAACUCUUCCGAAAA'
p21
aF1.0
aa(lp22
S'G-C Placement'
p23
aS'GGGCAAAGCCCG'
p24
aF1.0
aa(lp25
S'The Sun'
p26
aS'GGCAUCGGAGCGAAGCUCAACGAGCCAAAAGUAUUAUGUCUAUGGCGAACCAACUAAAGGUAGUGGGUGAAGGCCCAACGCACCGAAUGCAGGGGAUCAAAGAUUAACCCGCAAAGGGCAGGAGUUGAAAUACUAAUCCGCCAAUGGCAGACGUUCAAAGGCCAAGUCCUCUAAGUCAGGGGUUCAAGGUACCACCCGACAAAGGUAUCGGGGGAAGCCCCAAGUCGCCAAAGUCAGGGCGGAGAAGCCGAACCCGCU'
p27
aF0.8798449612403101
aa(lp28
S'Frog Foot'
p29
aS'AAAAAAAAAAUGGCAAAGGCCACGGAGAAAUCCGCCGGUAUCCGG'
p30
aF1.0
aa(lp31
S'InfoRNA test 16'
p32
aS'GGGGGCACGGGGGGCAAAAGCCCCACCAGAGCCCCC'
p33
aF1.0
aa(lp34
S'Mat - Martian 2'
p35
aS'GGGCAAAAGCCCAAAGGGGGGCAAGGGGGGCAAAAAAAGCCCCCCGCCCCCCAAAGGGGGGGCAAAAAAGGGGGGCAGGGGGGCAAAAAAAGCCCCCCGCCCCCCAAAGGGGGGGGGGGGGCAAAAAAAGCCCCCCACCCCCCCAAAAAAGCCCCCCCAAAGGGGGGGGGGGGGCAAAAAAAGCCCCCCAACCCCCCCAAAGAGCAAAGGCUC'
p36
aF1.0
aa(lp37
S'square'
p38
aS'GGGGGGCCGGGGCCGGGGGCCGGGGCAAAGCCCCGAAAAGCCCCCGAAAAGCCCCGAAAAGCCCCCC'
p39
aF1.0
aa(lp40
S'Six legd turtle 2'
p41
aS'AAAAAGGGAAUCGAAAGGAAAUUAAAAUAAAAUUAAAAGAAAAGUAAAAAAAAGAAAAAAUUAAAGUAAAAGCGAACGGAAAAAAAAAAAAAAAAAAA'
p42
aF0.9591836734693877
aa(lp43
S'Small and Easy 6'
p44
aS'UUAAGAAAAGCUAAGCGAAAAAAAAACUGG'
p45
aF0.8666666666666667
aa(lp46
S'Fractile'
p47
aS'AAAAAAAAAAAAGCAAAAGCAAACCAAAGCAAAAGCAAGCGAGGCAAAAGCAAAGCAAGGAAAACCGAAGGAAGAGAAAUCAAAAAAAAAAAAAAAAAAAAAAAA'
p48
aF1.0
aa(lp49
S'Six legd Turtle'
p50
aS'AAAAACGAAAUGCAAAAUGUAAAGCAAAAUUGAAAUUUAAUGCAAAUGCGAAAGCUAAAGCAAAAGGGGAAUCAAAAGGGAAGACGAAAAAAAAAAAAAAAAAAA'
p51
aF0.9428571428571428
aa(lp52
S'snoRNA SNORD64'
p53
aS'GGAGCAUAAAAGGUAAAGGCCUAAGGGGCAAAAAAAAAAAAAGCCCCGAAUGGCAAGCCAUUGCUCC'
p54
aF1.0
aa(lp55
S'Chalk Outline'
p56
aS'AAAAAGGGGGGAGACGAAAGUACUCUUGUAGGCAAAAGCCACAAGGGGGCGAAAGCACCCCGGCCGUGAAAGCGAGUCCUCGAAAAAAAAAAAAAAAAAAAAAA'
p57
aF1.0
aa(lp58
S'InfoRNA bulge test 9'
p59
aS'GGGGGGCAGAGAGAGGGGGGCAAAAGCCCCCCCCCGCCCCCC'
p60
aF1.0
aa(lp61
S'Tilted Russian Cross'
p62
aS'AAAAAGGGCGGCCAAAAGGCCGGACAGGACUAAUGUCCGGGGCGAAAGCCUCAGAGCAAAAGCUCGUCCGCGCGAAAGCGCGCCCAAAAAAAAAAAAAAAAAAAA'
p63
aF1.0
aa(lp64
S'This is ACTUALLY Small And Easy 6'
p65
aS'AAAAAAAAAAAAAAAAAAAAAAAAAAAAAAAAAAAAAAAAAAAAAAAAAAAAAAAAAAAAAAAAAAAAAAAAAAAAAAAAAAAAAAAAAAAAAAAAAAAAAAAAAAAAAAAAAAAAAAAAAAAAAAAAAAAAAAAAAAAAAAAAAAAAAAAAAAAAAAAAAAAAAAAAAAAAAAAAAAAAAAAAAAAAAAAAAAAAAAAAAAAAAAAAAAAAAAAAAAAAAAAAAAAAAAAAAAAAAAAAAAAAAAAAAAAAAAAAAAAAAAAAAAAAAAAAAAAAAAAAAAAAAAAAAAAAAAAAAAAAAAAAAAAAAAAAAAAAAAAAAAAAAAAAAAAAAAAAAAAAAAAAAAAAAAAAAAAAAAAAAAAAAAAAAAAAAAAAAAAAAAAAAAAAAAAAAAAAAAAA'
p66
aF1.0
aa(lp67
S'Shortie 4'
p68
aS'GCAAAAGCAACGAAAGU'
p69
aF1.0
aa(lp70
S'Shape Test'
p71
aS'AAAAAGGCGGCAAGGGGCAAAAAAAAGCCCCAAGGCAGGCAGGGGCAAAAAGCCCCAGGGCAAAAGCCCAGCCGCCAAGCCGACAAAAAAAAAAAAAAAAAAAA'
p72
aF1.0
aa(lp73
S'The Minitsry'
p74
aS'GGCAAAAAGUUGAAAAGCCAAAAAAGCAAAAAGGCAAAAAAAGGUCAGCUGGGCAGACGGCC'
p75
aF1.0
aa(lp76
S'stickshift'
p77
aS'AAGGGGGCCCAAAAAGGAGCCCCCAA'
p78
aF1.0
aa(lp79
S'U'
p80
aS'AAAAAGGGGCAGAGAGCAGAGGGGGGGGCAAAAGCCCCCCCCCGCCCGCCCCAAAAA'
p81
aF1.0
aa(lp82
S'Still Life (Sunflower In A Vase)'
p83
aS'AAAGGGCAAGCUAAAAAAAUUAGCAACGGGGAAGCGCCGAGGGCGAAAAAGUCGCCAAGGUUGAAGCGACCGUGCGGGAAAAACCCGCUUUUGCUAAAAAAGCGAUGUUGGGUCGGUGCGGGUGGGGGCGGGGCAAAAAGGCUCCAGGGUAGAAAAAAAAAAAAGGGCGAAAAAAAAAAAAAAAAAAAAAAAAAAAAAAAAAAAAAAAAGUCCAAAAAAAAAAAAAUACCCGGACGAAAGUGUCCAGCCCCUGCCCGCACUGAUCCAGCGAUGGGUAAAAGGGGUGGGGCGGCAAAAGGCUGCAAGGAGUGAAAAACUCCAGUAACGUAAAUUCCCGAAGGGUCAAAAGGCCCAAGUGAUAAAAAAUCACGGCCCAAA'
p84
aF0.9735449735449735
aa(lp85
S'Quasispecies 2-2 Loop Challenge'
p86
aS'AAAAAAGGGGCGAAAUCGCAAAAGCGAAGUCGUAGGGUAACAAGGGAGCCCAGACUAAGAAGCGGAAAAUGCAGCAGGGUCCCCUAAAAAAAAAAAAAAAAAAAA'
p87
aF1.0
aa(lp88
S'Corner bulge training'
p89
aS'AGGGGGCCGGGCAAAGCCCGAAAAGCCCCCA'
p90
aF1.0
aa(lp91
S'Spiral'
p92
aS'AAAAAGGGCAGGGGGCAGGCAGGGGCAGGGCAGGGCAGCAGCAGCAGCAGCAGCAAAAAGCGCGCGCGCGCGCCCGCCCGCCCCGCCGCCCCCGCCCAAAAA'
p93
aF1.0
aa(lp94
S'InfoRNA bulge test'
p95
aS'AAAAAAAAAAAAAAAAAAAAAAAAAAAAAGGGCAAAAAAGGGCAAAAGGGCAAAGGGCAAGGGCACGGCAAAAAGCACGAGCACCAAGCACCAAAGCACCAAAAAGCACCAAAAAAGCACCA'
p96
aF1.0
aa(lp97
S'Worm 1'
p98
aS'AAAAAAAAACAUAGUUAUUACGAGAAAACGCGAGAGGUCGAGGAU'
p99
aF0.9111111111111111
aa(lp100
S'just down to 1 bulge'
p101
aS'AAAAAGGGCACGGGCAAAAGCCCGAGGCAAAAGCCAGCACCAAAAGGGCACGCAAAAGCGAGGCAAAAGCCAGCCCAAAAAAAAAAAAAAAAAAAA'
p102
aF1.0
aa(lp103
S'Iron Cross'
p104
aS'ACGCAGGCAAAGGCACGCAAAGCGAGGCAAAAGCCAGCCAAAGGCACGCAAAAGCGAGGCAAAGCCAGCCAAAGACACGCAAAAGCGAGGCAAAGCCAGUCAAAGCCACGCAAAGCGAGCGAA'
p105
aF1.0
aa(lp106
S'loops and stems'
p107
aS'AAAAAGGGGGGCAAAGGGCAAAGGGCAAAGGGGAAAAAAAAUGGGGCAAAAAAAAAAAAGCCCCUAACCCCAAAAGUGGAAAAAAAAAAUCACAAAGCCCAAUGGCAAAAAAAAGCCUAAGCCCAAGCAAAAAAGCAAAGCCCCCCAAAAA'
p108
aF1.0
aa(lp109
S'Water Strider'
p110
aS'AAAAAUGGCCGAGCGUCAGACAAAGAGCGGAAAAAUCCAACAAAAAUGCGGAAAAAUCGAACAAAGGUUAGUAGCAAGGAUAAAAAAAAAAAAAAAAAAAAAA'
p111
aF0.941747572815534
aa(lp112
S'The Turtle(s) Move(s)'
p113
aS'AAAGCAAAAGCAGAAGGGGGGGGCAAAAAAAAAGCCCCCCCCAGAAGUACAAAAAGGACAAAAAGGUAAAAACCAAAGGGUCAAAAAAAGGACCGAAAGGGAAAUCGAAAGAAAAAAUGGAAACCCAAAAAGGGGGCAAAAAAAGCCCCCAAAAGUGAAAACACAAAAAGUUGGCAAAAGGUAAAAAAAACCAAGGCAAAAAAAAGCCAAAGGGGCAAAAAAGCCCCAAAGGUCAAAAAGACCAAGCCAACAAAAAAAAUAGAAAAUCAAAAACGGAAAUGAGCGAAGGUGCAAAAAAAAAAGCACCAAAAAGCGC'
p114
aF0.9873417721518988
aa(lp115
S'Adenine'
p116
aS'GGGGCACGGGGCACGGGGCACGGGGCAGGGGGCAGGGGGCAAAAGGGGGCAAAAAAGCCCCCAGCCCCCAGGGGCAAAGGGGGGCAAAGCCCCCCGCCCCAGCCCCCAGGGGGGGGGGGCAAAGCCCCCCAAACCCCCAGCCCCGAAAAGCCCCGAAAAGCCCCGAAAAGCCCC'
p117
aF1.0
aa(lp118
S'Tripod5'
p119
aS'AUGGAGCUGCUAAAUGCAGGGGAAAAAGUCCCCUCCUA'
p120
aF1.0
aa(lp121
S'Shortie 6'
p122
aS'GGUAAUAAAUGAAAGUGACUUAAUCGGAGGCCGUA'
p123
aF0.8857142857142857
aa(lp124
S'Runner'
p125
aS'AAAAAGGGCAGGGCAAAAAGGGCAAAGCCCAGCCCAAAGGCAAGCGGGCAAAGCCAAACGCGGGCGCAAAGCGAAACCCAGCCAAAGGCAAAGGCAAAAGCCAGCCAGCCCAAAAA'
p126
aF1.0
aa(lp127
S'Recoil'
p128
aS'AAAAAGGGGCAAGCAAGCAAGGCAAGGCAAGCAAGCAAAGCAGCAGCCAGCCAGCAGCAGCCCCAAAAAAAAAAAAAAAAAAAAA'
p129
aF1.0
aa(lp130
S'[CloudBeta] An Arm and a Leg 1.0'
p131
aS'AAAAAGGCAGGGGCAAAAGCACCCCGCAGCAAAAGCGCGAGCCAAAAAAAAAAAAAAAAAAAA'
p132
aF1.0
aa(lp133
S'[CloudBeta] 5 Adjacent Stack Multi-Branch Loop'
p134
aS'GGACCCUACGAAAGUGGCUGGGGAAACCCAGGCUGCAAAGGCAGUGAGUAAAGGCUCGGUCCA'
p135
aF1.0
aa(lp136
S'Triple Y'
p137
aS'AAAAUGGACCGACGUGCGACACUGUGGGCGAAAGCUCUGAAGAUAAAGGAAAGUCUGGUACGAAAGUGCACUAGUCCUAAAAAAAAAAAAAAAAAAA'
p138
aF0.9072164948453608
aa(lp139
S'Misfolded Aptamer'
p140
aS'UCGUAAAAAAGGGGCAAAGCCAGUAAAGACCAAAAAAAGCCGAAAAGCGA'
p141
aF1.0
aa(lp142
S'Flower power'
p143
aS'AAAAAGCACUGGAAAAUCCAAACCAGCGAGAAUCGCAUGAGCGAACUCCUAAUGCUAUGCAUGACCAGAAAAAGGUCCGUGUAAAAAAAAAAAAAAAAAAAA'
p144
aF0.9607843137254902
aa(lp145
S'Kudzu'
p146
aS'AAAAUGGCUGAGAUCGGGAAGGUCAACAGAGUGAACGUACAUACAUAGUGAUCGGAAAGCGAAACCAAACGCUUAACUGCCUAAAAAAAAAAAAAAAAAAA'
p147
aF0.9801980198019802
aa(lp148
S'"1,2,3and4bulges"'
p149
aS'AAAAAGGGGGGGGCCAAAAAGAAAUACGUCGUUAAUGUGAUAACCAAAAUCAAGCCCUAAUGAAACGAAGUAAAAACCGUGAAGUGAAAAAAAAAAAAAAAAAAA'
p150
aF0.9809523809523809
aa(lp151
S'medallion'
p152
aS'GGGGGCGCGGUGAAAAAUCUCCGGGGCAAAAGCCGCGAAAAAGGCAAGGGGUAAAGACCCCUAGAUUAAUGCUAGCUGGCAAAGGCCAGUGGGCAAAACCCAGGUUAAUACCGGGUGGCAAAAGCCGCCAUGCUAAAAUGGGAAGGUAAAGAGUCUCAGGAGAAAGUAAGAGAAAACUCGGGUUGUAAAAGUGCCAACCCAAAGGGGAGUAGCAAAAAUGCUGCAGACAAAAUUCAGGAUAAUGACAUGGGGUAAAAGCCCCAAGAUGAUGCACAGGGGGCAAAAGCCUCCAGCCAAAAGUCGAGAAAAUUCCAUCGAGCAAAAGCGACAAGUCUCC'
p153
aF0.857566765578635
aa(lp154
S'[RNA] Repetitious Sequences 8/10'
p155
aS'AGCAAAAAAGCAAAAAAGCAAAAAAGCAAAAAAGCAAAAAAGCAAAAAAGCAAAAAAGCAAAAAAGCAAAAAAGCAAAAA'
p156
aF1.0
aa(lp157
S'Documenting repetitious behavior'
p158
aS'AAAAAAAUCAAAAAAAAAGUAAAAAAAAACCAAAAAAAAACCAAAAAAAAAGGAAAAAAAAUAGAAAAAAAAAACAAAAAAAAAUCAAAAAAAAAUCAAAAAAAAAGCAAAAAAAAAGAAAAAAAAAAUCAAAAAAAAAGCAAAAAAAAAUCAAAAAAAAAACAAAAAAAAAUGAAAAAAAAAGAAAAAAAAAAGAAAAAAAAAAUCAAAAAAAAAUCAAAAAAAAAUAAAAAAAAAAGCAAAAAAAAAGGAAAAAAAAACUAAAAAAAAAUGAAAAAAAAAUCAAAAAAAAAGCAAAAAAAAAGCAAAAAAAAAGAAAAAAAAAAGAAAAAAAAAAGUUAAAAAAAACCAAAAAAAAAUGAAAAAAAAGGGAAAAAAAAAACAAAAAAAAAGAAAAAAA'
p159
aF0.96
aa(lp160
S'7 multiloop'
p161
aS'GGUCGGGGCGAAAGCCCCGGUUCGAAAGGACCGGGUAAAAGUACCCGGCGUAAAGACGCCCUGGCUAAUGCCGGCCGGCUAAUGCCGGGACC'
p162
aF1.0
aa(lp163
S'Kyurem 7'
p164
aS'AAAAGUCGCGUUAUCAAAAGCAUGUAAACGUGCUAGCCAAAUGCUUUAGCGUAAAAAGGCGAAACCUGCAUACCGUCUUCCAAAAAAAAAAAAAAAAAAAAA'
p165
aF0.9803921568627451
aa(lp166
S'JF1'
p167
aS'GGGGGGGGGGGGGGGGCAAGGAGCAAAAGGGGGCACGGGGCAAAGGGGCAAGGGGGCACGGGGGGGGGGGGCAAAAGCCCCCCCCCCCCGAAGGCAAAAGCCAGGGGGGGGCAAAAGCCCCCCCCAAGGGGCAAAAGCCCCAGCCCCCAGCCCCAGCCCCCGCCCCCAAAGGGGGGGCAAAAAGCCACCCCCAAGGGGGGGGGGGGGGGGGGGGGGGCAAAAGCCCCCCCCCCCCCACCCCCCCCCCAAACGCGCAAAAAAGCGCGGGGGGGGGGCAAAAGCCCCCCCCCAAAGGGCAAAAGCCCAAGCUCCAAGCCCCAGGGCAGGCAGGCAAAAGCCGCCGCCCAGGGGGGGGCGAAAGCCCCACCCCACCCCACCCACCCCAAA'
p168
aF1.0
aa(lp169
S'multilooping fun'
p170
aS'AUUUUGAAGAACAUCCAAAGGAUCUAUCAAAAUUGG'
p171
aF0.8333333333333334
aa(lp172
S'Multiloop...'
p173
aS'GGGCAGCGCAGGGAAAACUCAAGCAAAAGCUAGUCUAAUGACACGCAAAAGCGAGGCAAAAGCCGGUGUAAUCACAGCGCAAGGUCUAAAAUGACCUGGCAAAAGCCGCCC'
p174
aF1.0
aa(lp175
S'hard Y'
p176
aS'AAAAUUGUUACAGGGGGGGCUAAUGCCUUCCGGAGGGAGGGCGUCGAAAGACGCCCUCCGACAUAAAA'
p177
aF0.9705882352941176
aa(lp178
S'Mat - Elements & Sections'
p179
aS'AAAAAGGGUUGUAUUAUGUCAAGUGGAACUAGCGGAACUCGUAAAAGCGUGCAUCUCACGAUCGAAAAUAAACGUGUAUCUAUCCAAAAAAAAAAAAAAAAAAAA'
p180
aF0.9809523809523809
aa(lp181
S'Chicken feet'
p182
aS'AAAAAGCAUCACGAAACGAGCUAAGUAAAUUAUGUCAGUAGAUAUUCUGCAAACAUAUGAGGAAAAA'
p183
aF0.8805970149253731
aa(lp184
S'Bug 18'
p185
aS'AGCGGCACCACCAAGCAAGCACCAAAGGAAGCAGCAGGACGGAAGCAAAAGCA'
p186
aF1.0
aa(lp187
S'Fractal star x5'
p188
aS'AAAAAGGAGGAGCAACGGCAAAAGCCGAAGAGCAAAAGCUCAAGGGCAAAAGCCCAAGCGCAAAAGCGCAAGCUCCUCCAAAAAGUGGCGGCGUCGACAAAAGUCGUAGGUCUAAUGACCAAGGGCAAAAGCCCAAUGGCAAAAGCCAAAGCCGUCGCAAAAAAGGAUUGCAGUUGCUAAUGCGAAAACUUAAAAAAGUAAUGGCAAAAGCCGAAGUGCAAAAGCACAAGCAAUCCUAAAAGGGUGGGGCAGCUGCAAAGGCGGAGGCGCAAAAGCGCAAGGGCAAAAGCCCAAGAGUGAAAGCUCAGGCCCCACCAAAAAGUAGGGGCAACGGCAAAAGCCGAGGGGAAAAGUCCCGAGGGCAAAAGUCCGAGGGCAAAAGCCCAAGCCCCUGCAAAAA'
p189
aF1.0
aa(lp190
S'Crop circle 2'
p191
aS'CUAAUGCAAAAUGAAAAAUCAAAAAAAAUGUAAAAAAAAAAAAAAAAAAAAAAAAAAAAAAACUAAAAAAAAAAAAAGGAGAAAAAAAAUAAAAAAAGGGUAAAGGAAAA'
p192
aF0.9636363636363636
aa(lp193
S'Branching Loop'
p194
aS'UCAUCUAAAAAAAGACACGGAAACGUGAAGGUGUAAAAAA'
p195
aF0.95
aa(lp196
S'Bug 38'
p197
aS'AUCAGCUCGAAGAAUAAAAAUCGUAGAAUAAAAGAA'
p198
aF0.9444444444444444
aa(lp199
S'Simple Single Bond'
p200
aS'AAAAAAGGAAAAAAAUAGUCGAAAAGACUUAAAAAAAACAAAAAAAAAAAAAAAAAAAAAA'
p201
aF1.0
aa(lp202
S'Taraxacum officinale'
p203
aS'GGGCAAAGGACCCAAGGCAAAAUAUCUGGUUGAAAAGAAGCAGGGCAAAGGACCCACGACAAAAGACCGGGCCGAAAACACGAAGGGGGGGGGGUGGGGGGGGGGCAAAGCCCACCCCUCCAGGGGUAACGGGGGGAGAAAGUGGCGCAAAGCGCCGCGUUCACCCCCGGGGCAGGGGGCGAAGCCCCCGCCCACCCCAAAGCCCCCCCCCCAUGUCUAAUGAAUAAGAGCAAAAGACUCGGUGUUAAGGACGUAGAGUAAAAGACUUAAGUCAAAAGACCU'
p204
aF0.9148936170212766
aa(lp205
S'Headless Bug on Windshield'
p206
aS'AGCACCAAAAAGGGGCAAAGCACGCAAAAAAAAAAAAAAAAAAAAAAAAAGCGAGCAAAGCCACCAAAGGAGCAGACAAGGCAAUCAAAAAAAGCAAAAGCGAAAAAAGAGCCGAAAAAGUCAGGGCCAAAAAAAGGCAAGCAAGGCAAGCACGCAAAAAAAAAAAAAAAGCGAAGCAAGCCAAGCAGCCAAGGAACCCA'
p207
aF1.0
aa(lp208
S'Pokeball'
p209
aS'AAAGGUCGGCAAAAGCAAGCGAGGCAAGGAAAUAUAGAACUACAGCAGGAAACCACUUGCGACUCACAGCCGGCUAGCAGCGCCGGUAAAAAAAAACGUUGUCAAAAUGGAGCAACGCAAACAAGGAAGAAACUGAACCCGGUAUCUAGUGAGGAUCAGUAAGAAGCCGGAACAGACAACGAAA'
p210
aF0.967391304347826
aa(lp211
S'Variation of a crop circle'
p212
aS'AAAGACAAAAGCGAAAACAAAUGUAGACAAGGAAAUCGAACAAACGAUAAAAACCAAAAAAACCAAAAAAAAGAGAAAAAAAAAAAAA'
p213
aF0.9545454545454546
aa(lp214
S'Loop next to a Multiloop'
p215
aS'AGUGAGGGGCAAAAAAAUAGGGGGCAAAAGCCCCCAGCCGCCUAAAGGGGCGGCAAAAAAAAAGCUCCUCAAA'
p216
aF0.9726027397260274
aa(lp217
S'Snowflake 4'
p218
aS'GGGCAAAGCCCCCGGCUUAAAAAGCGUUCGAGUUUUGUGAAAGAGGGUGAUCCAAGGGGCAAUGGAUAUCCGGCACCCACUAAGGCAGAACAACGGGACGAAAAGGCGAGCAGUCGAAGACCAAGCACGAAGUGCGCUUGACGAAAGCGCCCGGGGAGGCCGGAAAGGCGUGCCUCGGAACGGGAAGGGCUAUGUCCGCACGCCAAAAGGGCCUCAAGGGGUUAGAAAGACGUGCCUGGUAUCCAGAACCGUGAAACGGGCGCGUGGAAAUCGCCCCAGGUAGCCCAAAGACGGGGCAGCCAAGGGACAAUGUCUAUGACAGCCCCCGAAAAGAGCUGCAAGAGCGGGAAAAGGGCUGGGGGCGAAGCCC'
p219
aF0.9027027027027027
aa(lp220
S'Mat - Cuboid'
p221
aS'GAAGCAAAAGCAAGCAAAACAAAGCAAAAGAAGCAAGCAAAACCAAGCAAGCAAAAGAGACAAGCAAGCAAAACCAACCUAGUAAUAAAAACCAAUCAAGCAAGCAAGCAAAACGGAGCAAGCAAGCAAGCAAAAGCAAGCUAGCAAGCAACCAAGGAAAAGCAAGCUAGAAAGUAAGCCAGCAAAAGCAAGCAAGUAGGCAAGCAAGGAAAAAAUCAAGCAAGCAAAUAAGCAAGAGCAAGCAAGCAAGCAUGUAAGCACAAGGAAGCAACCAUGCAAUCGCAAGCAAGCAAGCAAUGGCAAGCAAGCAAGAAAGCGCAAACAUGCAAGGGCAAGCAAGUAACGCAACCAAGGGCAAGCAACGCAAGGGCAAGUGUAAC'
p222
aF0.9236842105263158
aa(lp223
S'Misfolded Aptamer 6'
p224
aS'AAAAAACGCAAAAAAAGGGAAGAAAGAGUAAAAAAAGGCUAAAGCGAAAACCCUGAAAAAGGCGAAAAAAAAAAA'
p225
aF1.0
aa(lp226
S'Snowflake 3'
p227
aS'UGCGUAAAAGCACGCGGCAAAAGCCAAGUGCAGGCAAAUGGAAAAUCAGCAACCAAAGGGGGCAAAGCCGCAAAGGCGGGCGUCAAAAGGCAAGCCCUGGGCAACGAAAAAUCGGGCGCCAAAGGGUACAAAGCUGCGAAAGCCGCCGUCGAAAGACAAGGCCUGGGCAAAGCAAAAGCCGACACAAAAAUGGGUGAAGCCGCAAAAGCAGUCGGCAAAAGAUAAGCCCAGGACGAAGCAAAAGCUGGGGCCAAAAGGGCAAAAGGCGUAAAAACAUCCGGCAAAAGCCAAGCCCAGCGCAAGUCAAAAGACUCAACCAAAAGGGGGAAACCCGAAAAAUCUGCGUGCAAAAGCGAACCGCGGCGCAAGGCAAAAGCCGCGACCAAAAGGGCA'
p228
aF0.8193384223918575
aa(lp229
S'Hard Y and a bit more'
p230
aS'AAAAAGGGAAGAACGGGCAAAGGCCCAGUCGGGGCGCGAAGGACAAAGGUCCGUGGGGCAAAAAGGCCCCUAUGAGCCCCCUCCCAAAAAAAAAAAAAAAAAAAAA'
p231
aF0.9716981132075472
aa(lp232
S'Mat - Lot 2-2 B'
p233
aS'UAAGGCAUGGGAUAGCAAAAGGUAUGUAGAAAUGAAAACAAUCCGCAUGCAAAACCUAGACAGAGCAAGCAAGCACAGGCAAAAGCAAAGGGAAGCAAAAGAAAAAGUGCAGGCAAAAGCGAGCGAAGACACAAGGAAGCAAAAGACCGGGGCCAUCGAAAAGCAAGGUCAAAAGGAAAACCAAGCCCUAGCAAAACCAAAGACAAGGAAGCAAGUAAAGGUAAAAUCAAAGGCGAGCAAAACCAAAGGGGCGAGCAAAACUGGAGACAAAUCUAAUGAACGUG'
p234
aF0.8450704225352113
aa(lp235
S'Shapes and Energy'
p236
aS'AAAAGAGUUGAGAGGAGAAAAGGAGGGCUUUGAAAGUAGCUAAACCUCCGAGUAAAAAGUACAGAAAUGUAACAUGCAUCAAAAAAAAAAAAAAAAAAAAA'
p237
aF0.9801980198019802
aa(lp238
S"Spiral of 5's"
p239
aS'GAAAAGGGGCAAAGGGGCAAAGGGGCAAAAGGGGCAAAGGGGCAAAGGGGCAAGGGGCAAAAGGGGCAAAGGGGCAAAGGGGCAUGGGGCUAAGGGGCAAAGAUGCAAGGGGUAAAUGGGCGAGGGGCAAGGCGCAAGGGGCAAGGGGUACGGGCAGGGGGGAGGCAAAAAGCCUCAAAAACCCCCAAAAAGCCCGAAAAAACCCCGAAAAGCCCCAAAAAGCGCCAAAAAGCCCCAAAAAGCCCAAAAAAGCCCCAAAAAGCGUCAAAAAGCCCCAAAAUGCCCCUAAAAGCCCCAAAAAGUCCCAAAAAGCCCCAAAAAGCCCCAAAAAGCCCCAAAAAGCCCCAAAAGGCCCCAAAAAGCCCCAAAAAGCCCCAAAAAGCCCCAAAAACAAAAA'
p240
aF0.9949622166246851
aa(lp241
S'Campfire'
p242
aS'AAAAGUGCAACAAGCAAGGUCAAGGGGGAAAAUCCCGUGGACAAAGUCACGCAACAGAGGGAUCCAGAAUUGGUAAAAACACGAUCGAAGCGGAGAAGCAGAGAAAUCGCAUGGGGACCCUAAUGGAGUACCCUUUCACCGCAGCUCCGCCUGCGGGGGCAGUCAGGCCUAAUGGCCGACGCUAGGAGAGCAAGGCUAUUAACUACCGGUGC'
p243
aF0.9528301886792453
aa(lp244
S'Anemone'
p245
aS'AAACGGAGAUAAUUCUUCGAGCCGGAAACGGCUGUACUCAUAGGGGUACGGUUGGAAAUAACGGGAGUUGAAAAGCUCCAGCUCUACUGGGCCAGGGAUCAUGUUGUGUUGGUGAAAGCCAGCCAGUUGGAAAUGCCUCACUGGAAAGUUGGCGCGGGAGAAAUCCUGGGUCCCGAAAGGGACCGAGCCGAAUGGUUCUGCGGAGAAAGAUCCA'
p246
aF0.9018691588785047
aa(lp247
S'Fractal 3'
p248
aS'AAAAACUGGUUACAUGGAAAUGAUUAAUAUACAAUCGCACUAAAAACCAAAAGCGAGUGGGGCAUGAAAAUACUGAAAAGGGCCAACGUUGAAAGCAGCAAAAGGUUGUAGUGCGAAAA'
p249
aF0.8739495798319328
aa(lp250
S'Kyurem 5'
p251
aS'AAAAUCGGGUGCCCCUAAUUCCGGGGAAAAGCACACCAAACGGAAAAGUCGGUUGUGUUAAAAUUCGAACCACGUCACACCCUCUAAAAAAAAAAAAAAAAAAA'
p252
aF0.9423076923076923
aa(lp253
S'Snowflake Necklace ( or v2.0 )'
p254
aS'GGGAGGCGCGGGGCAUGCUGUAGUAAAAAGCAGCGAAAAGCGGUAAAAAGCAGUAAAAAACACGAAAAAGGAGCGGCACGCAAAAAGCGAUGGGCACCAAAAAGAAGUAAAAAGCAGCAAAAAGUAUCAAAAAGAACCAAAAAGUAACCCAAGGCAAAAAGCCAGGGGAAGCAAAAAGCAGGAAAAACCAGCUAAAUGCAGCAAAAAGCAACAAAAAGCAGCCCCAAGCAAAAGGCUAGGGAUAGCAAAAAGCGGCAAAAAGCAGAAAAAAGCAGCAAAAAUCAACAAAAGGGAGACCUGGGGAAAAACCCAGGGCUGGGAAAAACCAGCGAAAAGCAGUAAAAAACAGCAAAAAGCAGUAAAAAGCAGGCCCUUGCCCCGCGCCUCCC'
p255
aF0.8303341902313625
aa(lp256
S'Methaqualone C16H14N2O Structural Representation'
p257
aS'AAAAAAAGCGAACGGCACGCACGCAAAAGCGAGGCACGCAAAAGCGAGGCAGGCAAAAGCCAGGCACGCAAAAGCGAGGAAAAAAAAUCCGGCCAGCCAGCCGACGGGAAAUAGCAUAGGCCAAAGCACGCAAAUGAAAUAAAAAAAAAGCGAAAGACGAAAAGAUCCGCAAAAGCCUUAAAAAGGACUCAGCAAAGGGCUGAAGCAGGAUGGUAUGCAGGCACCCAAAAGGCAAAAGCCAGGGAGGCAAAAGCCGGCCAUGAAAAAUCGAGCAACGCAAAGGCGAACCUGGCGUCUAAGGACAUCAAAAGAUAGGCGAAAGCCGCCGUCCUGCCCAAAGCCCAGUGCAAAAAAA'
p258
aF0.9436619718309859
aa(lp259
S"Cat's Toy 2"
p260
aS'AAAUUUCAUGCCAAAAGUGAGAAAAAAAAAAAAAAAAAAGUGGCUUAUAGGAAACUUAAGCAAAAGCAAAAAAAUAGAAAAAAUCGGUGUGAGUAAA'
p261
aF0.9587628865979382
aa(lp262
S'Zigzag Semicircle'
p263
aS'AAAUGUAUCCCAUUAAAAUACGAGAGAUACUAAA'
p264
aF0.9411764705882353
aa(lp265
S'Short String 4'
p266
aS'AAAAAACCACCAAGGAAAAACGAUAAAUUAAUGUUAUGAAAAGGCCAGUCAAAGGAAAGGAACAAAUACCAAGGGGAAAAAAAAAAAAAAAAAAAAA'
p267
aF0.9381443298969072
aa(lp268
S'Gladius'
p269
aS'UAAAAGAUCUAAAGAAAGAUGAGAAGAAUGCCAUGCAAAGGGCAAAGGUCUAGGGGCAAGACGCACGAAGGCAUUACGGCAAGUCGGGGGGGAGGGGCAAGGGGCAGGGCAUGGCAAGGGCAAAGCCCAGCCAAGCCCGACCCCGGGCCGCCACCCCCCGUCCAGCCGGUGGGUCUAAAAGCGAACAGCCCCGGCAAAAGUCAGGGGUGGAAGGCGCAGGGGCAGAAGGGCGGAAGGGGGUCAGGGGGCAUGGGCAAUAGGCAGGCACGGGGCAAAAGCCCCGAAGCCGACCUAAAGCCCAAGCCCCGCGGCCCCCACAAGCCCACAAGCCCAGAAGCCACAAACCCCAGGGCGAAAGCCCAAAGGCAGCCUAGCAAAGAUACGAACCAAUCUAGAAAAC'
p270
aF0.8925
aa(lp271
S'Thunderbolt'
p272
aS'GCGAGGGACAAAAAAAAAAUCAAGAAUAAAACGAAACCUGGUGGAGCGAAAAAAAAGGAAAAAAGGGUAAAAAACCCGAAAAACCGAAGUAAGCAAAAAAGCGAGAAAAAACAAGAACCGAGCAAAAAUAAAGAAGCGCAAAAAGGUAAAAAGAAGCUAAAAUUGCAACGAAAAACCAGGGCAAACGAAACAUAAACGCCAAAGGAGAAACAAAAAAAGAAGCCCAAAAAAAAGCGCAAAAAGGGGGCAAAGCCCCCAGUAAGGAAAAAAAAAAAUCAAGCAAAAAAAAAUGAGGGAAAGGGGGGGAAAAACUAAAAAAUGAAAAGCCCCCCAACAAGUAAGCUCCACCAAAAAAAAGAGCAAGAAUAAAAAGAAAAAAACAGUUCCAAGCA'
p273
aF0.9540816326530612
aa(lp274
S'Mutated chicken feet'
p275
aS'AAAAAAAAUAGUAGUAAAGCAGCGAAGCAAAGCCUAGCACUUACAAAGUUUCAAAGAAAAGGGCAGCAGUACAAAAGGAUUUAUGCGAGUGGCAAAAAAA'
p276
aF0.9
aa(lp277
S'Chicken Tracks'
p278
aS'AAAAAAAAAGGGGGCCGGCUAAUGCCGAAGAGCAAAAGUUCAAGCUAGAAAUGGCGCCCCCUAAGGGCGAGAAACUCGGACUGCAAAGCAGAUGGGCAAAGCCCCCCAAAAAAAAA'
p279
aF1.0
aa(lp280
S'Looking Back Again'
p281
aS'GUCGAGGACGGCAAAAGGUGGGCUAUGACCACAGCCGAAAGCGGCAAGUCAAAGCCGCCGGGGGCAAAGCACAAAAGUGCGAAGGCCCCAAGUCAAUCAGAGGGCGGCUAAAAGGGGCAAAGGCCCCAAAAAUGCGGGUGGGGGGCUAUGCCCUGGGGCGAAGCCCCUGGGGACCAAGAGGAAGAAGAGGAGGGGCAAAAGCCCAACGCAACCAACAGGCUAAAAAUAGAAGCCCCCAAACCCCCGCCCCUGAGCUCUGAGAAAAAUGGGGGUAAAAAAAAGGGCAAAAAGUUCACACAAACCAAUCGGUGCCAAAAAUGCCUGGGAAAAAUCCCGGAAGGCCAAAAGGUGUGGCAAAGCCGCUAGCCGCUAAAGGCCGCCCGAAAGCC'
p282
aF0.8791773778920309
aa(lp283
S'Multilooping 6'
p284
aS'AUGUGUCCGGUGGGGUAAUCCCUGUAUGCAAAGGCACGGCCGUCGGUGUUAAUACACUCGGUAUAAUAAUCGGAAGACGCUA'
p285
aF0.926829268292683
aa(lp286
S'Cesspool'
p287
aS'GAAGAAGAAAACAAGGAAAGAGACGCAAAGUGAAUAACAGCCUAAGAAGAAAACAACAGAAGAAAACAUCGUAAACAAAAGAACAACAAGAAGAAGAAAACAAGGGAAGAGAUGCAAAGCAAACAACAGCCCAAGAAUAAAGAAACAGAACAAAAGAACGAAAAGAAAACAACAACAAGCAAGAAUAAAAGAAGACAAGAGACGCAAACCGAACAACGAGUCAAGAAGAAAACAACGGGAUAAAGGAACACAAAGAAAACAACAAGAAAUUAAGAACAAAAGAAAGCAACACACCCAAAGGGAAGAAGAAGAUAGGAACAAAGGAACAGAAGAAAACAACGCAAAGAAAACAACAAGA'
p288
aF0.7877094972067039
aa(lp289
S'Hoglafractal'
p290
aS'AAAUCCAAGGGGCAAAAGGGGCAAAAAAGUCCCGCCCCGAUCAAAGGGCAAAAGGCCCGGUCCGCAAUGCAAAAGCGGCGAGUCAAAGAGCAAAGCGCAAAAAAGCGCACCCGGCAAGGCUAAAUGUCGCCGGAGGAAAAGCACAGGGCUAAAUGGAAGGCAAAAAGGCCCCAGCAGCAAAAAGCGCGGCAAAAGCCGGGGGGAAAAAGGAGCAAAAAGGCGCGACUAAAUGCCCCAAAAGGUCGGGGCAAAAAAGGCAAAAAAGCCGCAAAAAGCAACGGGGUGAAAGUCACCCCAAAAAAAGCCCCGUAAAAAUCCUCAAAAUGCCCAAAAGAAAAAGGCACGAAGCCCAGGGCAAAACCAAAAGGGCAAAAGCGGGUGCAAAGCGCCCAGCCCGGAC'
p291
aF0.93
aa(lp292
S'Bullseye'
p293
aS'AAUCGGGGUAAAAUACCGAUCGGGAAUCGAAAGGUCGAAUGCCUCGUAAAAAAGGGCCGCUGAAAUCGAACCUCAAAGACGGAGGGUAAGACUCGCCAAAAAAACAAUUGGCGAAGCCGAAGGGGAAACUCCAAUGGCUAUCCCGGUUAAAAAAAAGGACCGCAAAGCGGAAGGAUAAAGUCCAAUAUCUAUGAGCGCCAAA'
p294
aF0.8168316831683168
aa(lp295
S'Shooting Star'
p296
aS'GGAUCGGGGGCGAGGGCGAAGAAGAGGGUGCAGCCAGCUAAUGACGGACGCGCCAGGAUCAAGCCCUCGACGGGUAAGAAAAUCAUGCAUUGCCAGGAAGGGAAGCAAAAGAGCCCACUCCGACCAAAGCGGGGAAAUCAAAGAAAACAACCCGGGGCGCGACAAAGUCGCAUGAGGAAAUCCUAUAGGAAACACAGCCCCCACCAGGGUAGCGCAAACGGCGGCUAUGCCGCCGAUAGGCAAGGCCUAGACCGCGGCAGAAAUUGCCCCAGGGGCUAUGCCCCACGCGGGCACCAAAGGGUAGAAUAAAAGUCGCAUGGUAGUAAAAGACGACAGGCGUCAACAAGACAUCGCGCACGAGCCA'
p297
aF0.8434065934065934
aa(lp298
S'Teslagon'
p299
aS'AAAAAAAGAAAAAAAUCAGAAAAAAAAGCAGUAAAAAAAAAAAAAAAGCAGCCAAAAACAAAAAAAAAAAAAAAAUGAGCAAAAAAACCAGCAAAAAAAAGAAAAAAAAAAAAAAGCUAAAAAAAGAAGCGAAAAAUGCACCAAAAAAAAAAAAAAGGGAGUCAAAAACCAAAAAAAAAAAAAAACCGACUAAAAAAGAAGGAAAAAAGCGAAAAAAAAAAAAAAACGAAAAAAACGGACAAAAAAAGGAGCGAAAAAAAAAAAAAAGCAGGCAAAAAGCAAAAAAAAAAAAAAAGAACCAAAAAAAGAAACGAAAAAAGUAAAAAAAAAAAAGUAAAAAAAAAAAAAAAGCAACAAAAAAACCAGAAAAAAAACUAAAAAA'
p300
aF0.8795811518324608
aa.