(lp0
(lp1
S'Simple Hairpin'
p2
aS'GAUACAAAAAAGUAUC'
p3
aF1.0
aa(lp4
S'Arabidopsis Thaliana 6 RNA - Difficulty Level 0'
p5
aS'GAUAUAUAAAUGACAAAAAAAAAAAGUCUAUAUAUCAAGAUAUAUAUAUAUAUAUACGAAGAUACAAAAAAGUAUCGGUAUAUAAUAUAUAUAUAUCAAGAUAUAUAAAGUAUAUC'
p6
aF1.0
aa(lp7
S'Prion Pseudoknot - Difficulty Level 0'
p8
aS'GAUGACAGAUCAAAAGAUCGUCAAUCAAAAAAAAAA'
p9
aF1.0
aa(lp10
S'Human Integrated Adenovirus - Difficulty Level 0'
p11
aS'GCUAUAGUUCAAUCAGCUAACGAAAAAAAAAAAACCAUUUGUAGCAUUGCUUCAUACAAAAACAUUAUAUAUACAAAAAAAGGUAUAUAUGAAAAAUGUGUAUGACAAAGCUUCAAAAUUUAUAAAAGGCUAGAAAAAAUGGCCUGGUUGAAAAAAAAAAAGUUAGCGGAUAAAAGGAACUAAAAUAGCAAA'
p12
aF0.96875
aa(lp13
S'The Gammaretrovirus Signal - Difficulty Level 0'
p14
aS'UCGGGAAGAUAUCGAAAGAUAUCGGCGCUAAAAUGAGCAAGACAGGGCCGAUCAAAGGAUCGUUAAGCCCGUCGUUCUAGGCAUAGCAAAGGCUAUGUCAA'
p15
aF1.0
aa(lp16
S'Saccharomyces Cerevisiae - Difficulty Level 0'
p17
aS'GAGAUAGUUAUAAAAAAAGGUAAGUGUAAAAAAAAAAAAAUUAAAAAGUUGGCAAAAAACCGGCCUAUCUCAAAAGACUUACAACGCUUAAAAAAUAGUGCUCUAAAAAAAAAAAUGAGAAUCCGUAUUAAAAAUAUAUGGUAAGUCAAAUGAUAUGCGAUGUCAAAAAAACGAUUGGGGUCGAAAAAAGACCAUACAAGACCUAAAAAAAAUGUAGUAUAUCUAAAGUUAUACAAUUAUGAAAAAAAGUAGCGAUACGAAAAAAGUAUUGGCGAGACUAUAAAAAUUGGUCGUAUGGCAAAAGUUGUAGAAGCGUGAAAAAAAAUGCCGGUUAAAAAAAGUGAUCGACGCGUGACAAAAAAGGUCACCUACAACGAAA'
p18
aF0.9894459102902374
aa(lp19
S'Fractal 2'
p20
aS'AAAAAGAUAGAUCAAAGAUGUAUGUAAAAACGUAAAAAAAAUCGUUAAGCUGAAAAAAAAAACAGCAAGGUCAAAAAAAAAGGACCAAUACAUAUGUCAAUGAUAUACAAAAAGUGGAAAAAAAAAACCACAAGCUCAAAAAAAAAGGAGCGAGGUCAAAAAAAAACGACCAAUUUGUAUGUCUAAAAUAUAGAAGAAGAUCAAAAAAAAAGGAUCAGGUUCAAAAAAAAAAGAACAAGGUGAAAAAAAAAACGCCAGCUUUUAUAUUAAAGAUCUAUCGAAAA'
p21
aF1.0
aa(lp22
S'G-C Placement'
p23
aS'AUGCAAGGCAUA'
p24
aF1.0
aa(lp25
S'The Sun'
p26
aS'GGAAGACGACCAAUGAUCAAGUCUCUAAGCGUAGUUUACCGAAGGCGAAAACAUGAAACUUAGGUGCACUAUGUGCAAACCAACAAGCUCAGUGUGUUUAUAAUGAAAGCGAAAAGCGUAGAGGAUCAAAGGUCAACUCACGAAGCUCAGAUGAACUAUGUUUAAAUCGAGAAAAGCAGAAGAUCAAAGAUCUAAUCGUUAAAUUCAGAGGACCGAAGGUCCAGUCGAGAAACCCAGAAGAUCUAUGAUCAAAUUGGG'
p27
aF0.8643410852713178
aa(lp28
S'Frog Foot'
p29
aS'GAAAAAAAAAACGAAAAAUCGUGAUCUAAUGAUCGGACAAAGUCC'
p30
aF1.0
aa(lp31
S'InfoRNA test 16'
p32
aS'GUUAUGUGAUGAUACAAAGGUAUCGAUACUCAUAAC'
p33
aF1.0
aa(lp34
S'Mat - Martian 2'
p35
aS'GAUCGAAAGAUCAAAGAUAUACAAGAUAUACAAAAAAAGUAUAUCGUAUAUCAAAGAAUAUACAAAAAAGAUAUACAGAUAUACAAAAAAAGUAUAUCGUAUAUCAAAGAUAUAUGUAUAUGAAAAAAACAUAUACAAUAUAUCAAAAAAGUAUAUUCAAAGAAUAUAUAUAUACAAAAAAAGUAUAUAAAUAUAUUCAAAGAUCAAAAGAUC'
p36
aF1.0
aa(lp37
S'square'
p38
aS'GAUAUACCUAUACCUAUAUCCUAUACAAAGUAUAGAAAAGAUAUAGAAAAGUAUAGAAAAGUAUAUC'
p39
aF1.0
aa(lp40
S'Six legd turtle 2'
p41
aS'AAAAGCCAAUGUUAAUACAAAGCGAAAUUAAUUGUAAUUAAAAGGAAACUAAAAUUGAAAAAAAAUCGAAAGCGAAUCUAAAAAAAAAAAAAAAAAAA'
p42
aF0.9591836734693877
aa(lp43
S'Small and Easy 6'
p44
aS'UGAGUUCAAAACCAGUAAAAAAAAGGCGUA'
p45
aF0.9333333333333333
aa(lp46
S'Fractile'
p47
aS'AAAAAAAAAAAACUGAAAAGAAACGGAACCAAAAGGAAGUAAAGCAAAAGCGAAGCAGGCAAAAGCAAACGAGGCAAAAGCAAAAAAAAAAAAAAAAAAAAAAAA'
p48
aF1.0
aa(lp49
S'Six legd Turtle'
p50
aS'AAAAUGUAAAACCGAAAGGAAAACUAAAAGGCAAAAGGAAACUAAAAAUUAAUAUAAAAAUGAAAAUAAAUACUAAUGUUAAAACUAAAAAAAAAAAAAAAAAAA'
p51
aF0.9619047619047619
aa(lp52
S'snoRNA SNORD64'
p53
aS'GAUAUCAAAAAGACAAAAGACAAAGAUACAAAAAAAAAAAAAGUAUCAAAAGUCAAGUCAAGAUAUC'
p54
aF1.0
aa(lp55
S'Chalk Outline'
p56
aS'AAAAAUAUCGUGCGCGAAAGCAGUAAGACAGACAAAAGUCGUCGGCCAGCAAAAGCUUGGCACCUACGAAAGUAUGGGAUAAAAAAAAAAAAAAAAAAAAAAAA'
p57
aF1.0
aa(lp58
S'InfoRNA bulge test 9'
p59
aS'GAUAUACCGAGAGAGAUAUAAUAAUUUAUAUCCCCGUGUAUC'
p60
aF1.0
aa(lp61
S'Tilted Russian Cross'
p62
aS'AAAAAGUGGGUACGAAAGUACGGGAAGGGCAAAAGCUCGGUACAAAAGUACCAGAUCGAAAGAUCUCCCCAUCGAAAGAUGCCACAAAAAAAAAAAAAAAAAAAA'
p63
aF1.0
aa(lp64
S'This is ACTUALLY Small And Easy 6'
p65
aS'AAAAAAAAAAAAAAAAAAAAAAAAAAAAAAAAAAAAAAAAAAAAAAAAAAAAAAAAAAAAAAAAAAAAAAAAAAAAAAAAAAAAAAAAAAAAAAAAAAAAAAAAAAAAAAAAAAAAAAAAAAAAAAAAAAAAAAAAAAAAAAAAAAAAAAAAAAAAAAAAAAAAAAAAAAAAAAAAAAAAAAAAAAAAAAAAAAAAAAAAAAAAAAAAAAAAAAAAAAAAAAAAAAAAAAAAAAAAAAAAAAAAAAAAAAAAAAAAAAAAAAAAAAAAAAAAAAAAAAAAAAAAAAAAAAAAAAAAAAAAAAAAAAAAAAAAAAAAAAAAAAAAAAAAAAAAAAAAAAAAAAAAAAAAAAAAAAAAAAAAAAAAAAAAAAAAAAAAAAAAAAAAAAAAAAAAAAAAAAAA'
p66
aF1.0
aa(lp67
S'Shortie 4'
p68
aS'UCGAAAGAAGCGAAAGU'
p69
aF1.0
aa(lp70
S'Shape Test'
p71
aS'AAAAAGAGAUCAAGAUACAAAAAAAAGUAUCAAGACACUCAGAUACAAAAAGUAUCGGGGCAAAAGCUCAGAGGUCAAGAUCGCGAAAAAAAAAAAAAAAAAAA'
p72
aF1.0
aa(lp73
S'The Minitsry'
p74
aS'GGUUAAAUUGCUAACUGCGAAAAGGAAAAAAGGAGGAAAAAAACUCGUUCACGCUGCAUACC'
p75
aF1.0
aa(lp76
S'stickshift'
p77
aS'AAGAUAUCCCAAAAAGGAGAUAUCAA'
p78
aF1.0
aa(lp79
S'U'
p80
aS'AAAAUGACACAGAGAGCAGAGCUAUAUACGAAAGUAUAUAGCCGCCCGUGUCUAAAA'
p81
aF1.0
aa(lp82
S'Still Life (Sunflower In A Vase)'
p83
aS'AAAGACCAACGAGCGAAAAGCUUGAUGUAAUAAAAUUACUCCCCUGAAAAAUAGCGUAAUAUUGAACGUAGUUUUCUUAAAAAGAGAGUAGUGGGCAAAAUAUACGGUAUAUCUAGAUAUAUAUAGAUGGAUACAAAAAAGUAUCAGAUAGGAAAAAAAAAAAAGUUCUAAAAAAAAAAAAAAAAAAAAAAAAAAAAAAAAAAAAACCUGAACAAAAAAAAAAAAACUAUCGAAUCAAAAGAUUCACAUUUAUAUAUGUCUAGAUAUACAGGAUCCAAAAAGGAUCAAGUAGCAAAAAGCUAUAGAUAUCCAAAAGCUGUAGCUGUCAAAAAGACAGAACAAUCAAAGGCUUGGUCUUUAUAAAUGAAAGGUGUUAAA'
p84
aF0.9523809523809523
aa(lp85
S'Quasispecies 2-2 Loop Challenge'
p86
aS'AAAAUGGUCGAUCAAGAGCGAAAGUUCAAGAUCAGCUUAACAAAGGAAAGCAGCUCAUGAAGGCAAAAAGCCCGCUAGAGCGACCUAAAAAAAAAAAAAAAAAAA'
p87
aF1.0
aa(lp88
S'Corner bulge training'
p89
aS'AGAUAUCGAUACAAAGUAUCAAAAGAUAUCA'
p90
aF1.0
aa(lp91
S'Spiral'
p92
aS'AAAAAGAUCAGAUAUCAGACAGAUACAGAUCAGAUCAGCAGCAGCAGCAGCAGCAAAAAGCGCGCGCGCGCGAUCGAUCGUAUCGUCGAUAUCGAUCAAAAA'
p93
aF1.0
aa(lp94
S'InfoRNA bulge test'
p95
aS'AAAAAAAAAAAAAAAAAAAAAAAAAAAAUUGCGAAAAAACGAAGUAGGAGUGCUGCCAAAGUCCAACAUAAAAGGACUUGGGAGCAGUGGGCUAAGCAUCAAAAACUACCGAAAAGACACAU'
p96
aF0.9672131147540983
aa(lp97
S'Worm 1'
p98
aS'AAAAAAAUGUACGUAAUGCGGUCUAAAAAACCAGUUUUCAGAGAG'
p99
aF0.9111111111111111
aa(lp100
S'just down to 1 bulge'
p101
aS'AAAAAGACCACUAUCAAAGGAUAGAGACAAAAGUCAGGAUCAAAAGAUCAGACAAAAGUCAGACAAAAGUCAGAUCAAAAAAAAAAAAAAAAAAAA'
p102
aF1.0
aa(lp103
S'Iron Cross'
p104
aS'ACUCAGAGGAAGACAAUCGAAGAUAUAUAAAGGUAGAUCGAAGUCAGUCAAAAGCCGGCAAAAGAUGGACGAAGACAACGAAAACGUGGUCAAGGGUAGCCGAAUUAGUUCAAAGAGAGAAAA'
p105
aF0.9512195121951219
aa(lp106
S'loops and stems'
p107
aS'AAAAAGAUAUACAAGGAUCAAAGAUCAAAGGUCAAAAAAAAAGAUACAAAAAAAAAAAAGUAUCAAAGACCAAAAGAGCAAAAAAAAAAGCUCGAAGAUCAAAGGCAAAAAAAAGCCAAAGAUCAAGCAAAAAAGCGAAGUAUAUCAAAAA'
p108
aF1.0
aa(lp109
S'Water Strider'
p110
aS'AAAAUGUAGUAAUCGACAGUCGAAAGGUUGGAAAACGAAUAGGGGGGUAAUGGUAAUAGCAGGAAAUAGAUACACAGAGGAUUAAAAAAAAAAAAAAAAAAAA'
p111
aF0.941747572815534
aa(lp112
S'The Turtle(s) Move(s)'
p113
aS'AAACCUAAUGGAAAGGACAUGUACAAAAAAAAAGUAUAUGUCAAAUGAUCAAAAAGAUCUAAAGCCAAAAACCGAAAAGUGCAAAAAAAGUAUUGAAACGUGAACCGAAAGGAAAAGCUCUAAUCAGAAACUAUUUAAAAAAAGAGAGUAAAAAAGCAAAAGCUAAAAACUUUAAUAAUGAUCAAAAAAGUCUACUCAAAAAAAAGAGAAAGUGUCAAAAAAGACAUAAACUACGAAAAGUAGAUUUAGUGAAAAAAAAUGGGAAACCUAAAUCGAAACUGAAAAUCGAGUCAAAAAAAAAAGACUCUAAAAAGCU'
p114
aF0.9810126582278481
aa(lp115
S'Adenine'
p116
aS'GAUACCGAUAUCAGCUAUCAGAUAUCAGAUAUAAGAUAUCAAAAGAGAUCAAAAAAGAUUUCAGAUAUCAGAUACAAAGAAAUACAAAGUAUUUCGUAUCAUAUAUCAGAUAGGAUAUACAAAGUAUAUCAAACUAUCAGAUAUCAAAGGAUAGCAAAAGAUAUCCAAUGUAUC'
p117
aF1.0
aa(lp118
S'Tripod5'
p119
aS'AAGAUCCUUAGAAAAUGAGCCGCGAAAAGCGGGAUCGA'
p120
aF1.0
aa(lp121
S'Shortie 6'
p122
aS'UCGAAAGAAGCGAAAGCACAGAAAUGAGCGAAAGU'
p123
aF1.0
aa(lp124
S'Runner'
p125
aS'AAAAAGAUCAGAAAAAAAUGCUGUAUCAGCGGUUAGAGGACUACUUAAUUAUAUAAAAGAGUGGGACAAGGUCGAAACGUGUCAAGGACAAAGACAAAGGUUGGUCAGAUCAAAAA'
p126
aF0.9310344827586207
aa(lp127
S'Recoil'
p128
aS'AAAAAGAUACAAGCAAGCAAGACAAGACAAGCAAGCAAAGCAGCAGUCAGUCAGCAGCAGUAUCAAAAAAAAAAAAAAAAAAAAA'
p129
aF1.0
aa(lp130
S'[CloudBeta] An Arm and a Leg 1.0'
p131
aS'AAAAGGAGAGGUGCAAAGGCUACCGACAUCGAAAGGGUCGCUCAAAAAAAAAAAAAAAAAAAA'
p132
aF1.0
aa(lp133
S'[CloudBeta] 5 Adjacent Stack Multi-Branch Loop'
p134
aS'AGGUAGUUCGAAAGAGCGCAGAGAAAUUUGCCCAUUGAAAAAUGGCGUAGAAAUACGUACCUA'
p135
aF1.0
aa(lp136
S'Triple Y'
p137
aS'AAAAUGGUCUACCUUUGAAAGCAGCGAUUAAACAGUCGAUGGCUCCAUCAAAAGAUGGACCAAAAAGUGGUUAGAUCUAAAAAAAAAAAAAAAAAAA'
p138
aF0.9175257731958762
aa(lp139
S'Misfolded Aptamer'
p140
aS'UGUGAAAAAUGGGCCGAAGGCAGCAAAGGCAAAAAAAAACCUAAAGCAUA'
p141
aF1.0
aa(lp142
S'Flower power'
p143
aS'AAAAUGAGAUUAGUAUCUACGGUAACGCCGAGGGCCAUGGUUAAAAAUCUAGGAUUAGGUCCUUACAAGCCAAAGGUUUUUCUAAAAAAAAAAAAAAAAAAA'
p144
aF0.9215686274509803
aa(lp145
S'Kudzu'
p146
aS'AAAAUGACAGUAGGUUGGGACAUCAGGAAGUUGAUUUCCUAGGCGCAACGUUGUAAAAGUGAAGCUGAAAAAUCGUUAGUCUAAAAAAAAAAAAAAAAAAA'
p147
aF0.9207920792079208
aa(lp148
S'"1,2,3and4bulges"'
p149
aS'AAAAGAAACGGUCUGGAAACAAAAAGAAAUAAGAAAUUGAGUAUUAAAAGCACUGAAAAGAUAAAGGUGCGGAAAGGCUUCAAAGAAAAAAAAAAAAAAAAAAAA'
p150
aF0.9619047619047619
aa(lp151
S'medallion'
p152
aS'UAUAUCACACGUGAAAAUAUGUGAUUCAAAAGAAGGUAGAAAUACACUAUACAAAAGUAUAGUGCAGAAACAUACAAUACAAAAGUAUUGAGCCAAAAGAUAGGGAAAACCCGGUGGAUAAAAAUUUAUGAGUAACAGUCAGUCUUCAAAAGAAGAUGAUCAAAGGGUUCUCAAAAGAGACCGUAAGAAAUUAUGGUUGCGAAAGCGACUAGUCGAAAGGCUAGACUUAAAAUAGAGUCGAAAGGCACUACCCAAAAGGGUGGAGGUUAAGACUGCUUUGCAAAAGUAAAGAAACAAAGGAACGUAAAAGGACACAAAAAGAAAUUUUUGAGAUAUA'
p153
aF0.9228486646884273
aa(lp154
S'[RNA] Repetitious Sequences 8/10'
p155
aS'AGGAAAAAAGCAAAAAAGCAAAAAAGCAAAAAAGCAAAAAAGCAAAAAAGCAAAAAAGCAAAAAAGCAAAAAACCAAAAA'
p156
aF1.0
aa(lp157
S'Documenting repetitious behavior'
p158
aS'AAAAAAAGGAAAAAAAAAGGAAAAAAAAAGGAAAAAAAAAGGAAAAAAAAAGGAAAAAAAAAGGAAAAAAAAAGGAAAAAAAAAGGAAAAAAAAAGGAAAAAAAAAGGAAAAAAAAAGGAAAAAAAAAGGAAAAAAAAAGGAAAAAAAAAGGAAAAAAAAAGGAAAAAAAAAGGAAAAAAAAAGGAAAAAAAAAGCAAAAAAAAAGCAAAAAAAAACCAAAAAAAAACCAAAAAAAAACCAAAAAAAAACCAAAAAAAAACCAAAAAAAAACCAAAAAAAAACCAAAAAAAAACCAAAAAAAAACCAAAAAAAAACCAAAAAAAAACCAAAAAAAAACCAAAAAAAAACCAAAAAAAAACCAAAAAAAAACCAAAAAAAAACCAAAAAAAAACCAAAAAA'
p159
aF1.0
aa(lp160
S'7 multiloop'
p161
aS'GACCGAAGAGAAAUCUUCCUAUAGAAAUAUAGACGUUAAAGAACGUGAUACUAAUGUAUCCUCUUAAAAAAGAGCUAUCUAAUGAUAGGGUC'
p162
aF1.0
aa(lp163
S'Kyurem 7'
p164
aS'AAAAAGGUAAAGGAUAAAGGAAUGCAAAAGCCUCACAUAAAUUGUUGAGCACUAAAAUGUAAAACCCAGGCGCGCUAUUAUCGUCAAAAAAAAAAAAAAAAA'
p165
aF0.9803921568627451
aa(lp166
S'JF1'
p167
aS'GAUAGUAGACUACUUUCAUGAUACAAAAUAUAUCAAGAUACAAGGAGACAACAUAUCUAUAUAUAUCUAUAAAAAAUUAUAGAUAUAUAUACGACGAAAGUCUCUAGAUAUAAAAAUAUAUCUGGUACUAUCAAAAGAUAGGGAUAUGAGUCUCAGUAUUAGAUAUGGAAGGUAUGACAAAAAGUCAAUACCAAGAUAUAUAUAGAUAUAUAUAUAUUAAAGGGUAUAUAUAUAUUGUAUAUAUAUCAAAGUUACGAAAAAGUAACCUUAAUAUGCAAAAGCAUAUUAAGAAUCUUCAAAAGGGGUAGUAUCUAGAAAGAAUGCAGACAGACAAAAGUCGUCGCAUAGAUAGAUACAAAAGUAUUAUAUCAAGUCAUGCAUAUCAAA'
p168
aF1.0
aa(lp169
S'multilooping fun'
p170
aS'UCGCCGUUAGAAAUUCGACAUAGAUAGGAAAAAAGG'
p171
aF0.8333333333333334
aa(lp172
S'Multiloop...'
p173
aS'GGUCAGAGCAGGUAAAGACCGGACAAACGUCAGACGAAAGUCACCCAAAAGGGGGGGAAAGCCCAGCGGAAAUGCAGUUCAGAUACGAAAAAGUAUCGGUGAAAACCGACC'
p174
aF1.0
aa(lp175
S'hard Y'
p176
aS'AAAAGCAUAAAAUAUACUUCGAAAGAAGUAUAAUUCACGCUUUGCUAAUGUGAGGUGUGUAUGAAAAA'
p177
aF0.9705882352941176
aa(lp178
S'Mat - Elements & Sections'
p179
aS'AAAAGUAAAGGGAAGACUUUAUCCCUCAUUAGAUACCGGGGGGAAACUCGCUGUAUUAUGGAGGCAAAUGAAAGGCAAACAUUUAAAAAAAAAAAAAAAAAAAAA'
p180
aF0.9428571428571428
aa(lp181
S'Chicken feet'
p182
aS'AAAAACGGCGCCUAAAAGGGUAAUGCAAAGGGGUAACACACAAAGAAGGUCAUAUAAAAGGUUAAAA'
p183
aF0.8507462686567164
aa(lp184
S'Bug 18'
p185
aS'UGGUUUGUAUAUAAAUAAGCAACGAAGGUGAUGAUGAGAUGAAAGAUAAUCUU'
p186
aF0.9245283018867925
aa(lp187
S'Fractal star x5'
p188
aS'AAAAUCCUUUAGCAAUUACGAAAGUAGGACAGAUUAGUCUGAACAUCGAAAGGUGGACCAAAAAGUUGGGGGUUGAGGGUAAAACUAUAUACAUACACAAAAGUGUUACCAGAAAAUUGGAGGUUCAAAAGGAUAAUGUGGAAACGCGGGGUAUAUGGAAAAAGAAGGUGGAAAUGCACAAGAAUGACGACUAAUGUCGAACUACGAAAGUAGGAGUACAAAAGUACACUACUGGUUAAAAACUUUAUUGAAAAGCAAAGGCUUAACUCCGAAAGGAGGAAGACAAAAGUCUGAAGACAAAAGUCUAACAAUGGAGAAAAGCUGGGGCCAAAUACAAAGGUGUAACUAAGAAAUUAGAACUAUAAAAAUGGAACUCCAAAAGGAGGAGGCCUUAGAAAAA'
p189
aF0.965
aa(lp190
S'Crop circle 2'
p191
aS'GCAAACAAAAACAGAAAAGCAAAAAAAAACAUAAAAAAAAAAAAAAAAAAAAAAAAAAAAUGGAAAAAAAAAAAAAAAGGAAAAAAAAAUGGAAAAAGGCGAAACAAAAA'
p192
aF0.9636363636363636
aa(lp193
S'Branching Loop'
p194
aS'GCUUCGAAAAAUAGUUAACAAAGGGUGCUUAAGGUAAAAA'
p195
aF0.95
aa(lp196
S'Bug 38'
p197
aS'GCGGAUUGUAAACGAAAAUAGUGUCUCAGAAAACGU'
p198
aF0.9444444444444444
aa(lp199
S'Simple Single Bond'
p200
aS'AAAAAAGGAAAAAAAUGGUCGAAAAGAUUUAAAAAAAACGAAAAAAAAAAAAAAAAAAAAA'
p201
aF1.0
aa(lp202
S'Taraxacum officinale'
p203
aS'CUCGGAAACAGAGACCGGAAAACACAGACGGGAAAAUACUGGCUGGGAAAGAUAGAUCCCAAAAGGGAAGAAACAAAAGAUAGUAUUUAUAUUUGGAUAGAUAUACAAAGUAUAAUUUAUCAGAUAGAAAAACAUAUACAAGAUAUACAAAGUAUAUCAGUAUAUGUUUGAUCAGAUAUCGAAGAUAUCGAUCCUAUCGAACGGAUAUAAAUUGUUCUAAAGAAAUGUCGCCAAAGAACGAAGAAAAAAGAUUUACUUGGAAAUAUAGGAUGAAAAACGCCG'
p204
aF0.875886524822695
aa(lp205
S'Headless Bug on Windshield'
p206
aS'AUCAGUAAAAAGAAUCUAAGCGGAUAAAAAAAAAAAAAAAAAAAAAAAAUAUCAGCGAUGCGCUCAAAGUGGAACACAAGGCAAUAAAAAAAAGCAAAAGUGAAAAAAUGGUCAAAAAAGUCAGGUCCUAAAAAAGUGAAGGAAGACUAGGUGGCGAAAAAAAAAAAAAAGUCAUUUAUGUCCACCGUGCAUCAAAACCA'
p207
aF0.94
aa(lp208
S'Pokeball'
p209
aS'AAAGAUUUACAAAAGGAAGGUAGACAAGUAUGCAAAGAAGGAAGCAAAGAAAAUGGCAACCACUAGCUUAUAGCCUCCGCCGUAGAUCAAAAAAAUUCUAUACCAAAAAUAGCGACACAAGAAAGCGAGGAUGAAAGCAAGUAAAACAGCAAUCCCCAGCAAUCAGUGUGAAUUGUAUAGGUAA'
p210
aF0.967391304347826
aa(lp211
S'Variation of a crop circle'
p212
aS'AAAAAGAAAAAUAAAGGCAAAAAAAAAUUAGAAAGUGAUAUGAAAGUGAAAAGGCAAAAAAAGCAAAAAAAAACUGAAAAAAAAAAAA'
p213
aF0.9545454545454546
aa(lp214
S'Loop next to a Multiloop'
p215
aS'AAGAUACAUGUAAAAAAUAGAGAUCGAAAGAUCUCGGAUGUUCUAAUGGAUAUCGGGAAAAAUCAUGUAUCGA'
p216
aF0.9726027397260274
aa(lp217
S'Snowflake 4'
p218
aS'CUGCUAUGCAGUCAUUCCGAAAGGUUAUCAAGUAACGCAAAGACCUAUGAUUCGAGAAAUAACUUGCAACGAGCAUAGCCUAAUGGGUUACAUGUUUUCCAAAGAGCGUACCUGCAAAACGGAACUGGAAGGCACGUAUGCAGAAAGGGGGACUUGUUACUUAAAAAGGUAUCCUCCAAAGGAGAACUAGAAACUAGGAUACCUGAAAAGGUAGCUAGCUUCCCAAACCGCUAUGCUUCAAGGUGGAACAAUAAGGUAGUAUAGCCAAAAGGGGAGCAAUACAGGCUAAUGCGAACCUUAUAAAGUAGAACUACAAAGUAGGGUUUAAUAAAUGUUGUAGAGAUAGGCAAAAGCGAUGACGAUCCGGGGG'
p219
aF0.8108108108108109
aa(lp220
S'Mat - Cuboid'
p221
aS'GAAGCAAAAGCGAGGAAAAACAACCAAAAGAAGCAAGCAAAAGCAAGCAAGUAAAAGAGGCAAGUGAGCAAAAGCAAGAAACCAAGGAAAAUCAGGCAAGCAAGCAAUCAAAAACAAGCAAGCAAGAAAGCAAAAGCAACCGAGUAAGCAGCCAAGUAAAAUCAAGCAAGCAAACAAGCUACCAAAAUGGAGCAAGAAAGCAGUUAAGCAAAAAAGUAAGGAAGCAAUCAAGCAACAGGAUGCAAGUAAGCAAGCAAACGCAAGCAAGCAAGCAAGCAAGCGCAAUCAAGAAAGCAAGCGAAGGCAGGCAAGCAAGACCGAGCAAUCGAGCGCAAGCAAGCAACACAAGGAAGCGCAAGCAACGCAAGCCCAAGAGUAAC'
p222
aF0.8789473684210526
aa(lp223
S'Misfolded Aptamer 6'
p224
aS'AAAAAAGACUAAAAAGAUCAUGAAAUGACAAAAAAAAGUCUAAGCUAAAAGAUCAAAAAAUGUCGAAAAAAAAAA'
p225
aF1.0
aa(lp226
S'Snowflake 3'
p227
aS'GACGCCAAAGCAGACCUCAAAAGAGAAGAUCUGAUAAAGACAAAAGUCCUAAACAAAAGGGACAAAGUCGCAAAAGCAUAGGCCAAAAGGCAAGAUUUUCUCAAGAUGAAAAUCCUAAACAAAGGGGACAAAGUCCCAAAAACAUAGCUCGAAAGAGAAGAGCUGAUCAAGUCUAAUGGCAGAAAGUAAUUUACCAAAGUCUCAAAAGGAUCUCUCAAAGGAGAAGAUCGGAUCGAGACAAAAGUCCUAAACAAAAGUGACAAAGUCGCAAAAACAUAGCUCAAAAGAGAAGAUCGGAUCGAGAGAAAAGCCGUAAACAAAAGUGACAAAGUCGCAAAAGCAUAGCUCUAAUGAGAACAUCAGAUCAAGAAAAAAUUCGUCAACUAAUGUGUC'
p228
aF0.7709923664122137
aa(lp229
S'Hard Y and a bit more'
p230
aS'AAAAGGAUACAAACAUAGAAAACUAUUCUUUAUACAGCAUGUUCAAAAGAACUGUAGGCAAAAAAGUCUAAGGCGGUAUAGUAUCAAAAAAAAAAAAAAAAAAAAA'
p231
aF0.9716981132075472
aa(lp232
S'Mat - Lot 2-2 B'
p233
aS'GGAGGGAAAAUCAAGUAAAACAAAUAAUAAAGGUAAAAUGGAUGGCAAGGAAAACCAAUCCGAAUCAAGCUACAGCAACAAAAAGCAAGCACGAGCAAAAGGAAAGUUGUAAGUAAAAGCGAGCUCGAGAGCAAGGAAGCAAAAUCAUAAGAUCAUGCAAAAGCAAGUUGAAAAUAAAAAGCAGGUGCUAGAAAAAUAAGGUGCAACCAAUCAUGCUGUAGCAAAAACAAGAUCAAGCAAAAGCAAAAUCGCAGGAAAAAACAAGCUGAUCUGGAUCGAACAAC'
p234
aF0.7852112676056338
aa(lp235
S'Shapes and Energy'
p236
aS'AAAAAGGGCGCCUCGGGAAAAGAAAGACGGUGAAAAAUGUCGAGCCUCGUAAUAAAAACGAUUAAAAGAUCGUGGGCGAAAAAAAAAAAAAAAAAAAAAAA'
p237
aF0.9603960396039604
aa(lp238
S"Spiral of 5's"
p239
aS'GAAAAGAAAAGAAGAUUCGAAGAUACAAAAAAUAUAAGGAUACAAGGAUACAAGAAACGAAUGAUACUAUGAUUCAAAUAUACAAGAUAUAAAGAUACAAGGAUACAAGAUAAAAUGAAACUAGAUACAGGAUACAAGUUAUAGGUUACACUGUCGGUCAAUGGGGAAAAGCUCCAACGGAUUGACAAAAAGACAGGAAAAGUAACAAAAAAUAACAAAAGGUAUCAAAAAGUAUCAAAAUGUUUCUAAAAUUAUCAAAAAGUAUCAAAAAGUAUCAAAAAGUAUCGAAAAGUAUGAAAAAGAAUCUAAAUGUAUCUAAAAGUUUCGAAAAGUAUCAAAAAGUAUCAAAAAAUAUUAAAAGGUAUCAAAAAGAAUUAAAAAUUUUCAAAAACAAAAA'
p240
aF0.9949622166246851
aa(lp241
S'Campfire'
p242
aS'AAAAGAUCCAAUAUCAAGACCAAGGUCUAAAUGACCCUUGACUAUGUCAAGGGGUCGAUGACAGAAUCAGAAGCGAAAGCAUUUGGUUGGUGUGACAGCAGCAAAGGCGUUGGAUCAGACGAAAGUACAAAUCAAGCGGCCGUCAAUCGAUAUCCGAGACAGACACUCCUAAUGGGGGUUUUCGCGGCCGCGAAUAGAGCAUGCAGUGGAUC'
p243
aF0.9339622641509434
aa(lp244
S'Anemone'
p245
aS'AAAGACCGUAAAACAUCUCUAACAUAAUUGUUAGAUGUUGAAAAUCCUCUAUGUAAAGGCGUGGUUGGAGAAAUCCAGCAAAUCAAAAAUAUUGAGGGGAAACUCGCGAUAUAUAAUUAUAUUAGUAACAAAGGUUGCCACAUUGAAAAAGACAGUGACUAAUGUCACGGUAUAGAAAUAUACCUAUAGAAAUUUGUGAAUUUCGAAAGAGAUU'
p246
aF0.8411214953271028
aa(lp247
S'Fractal 3'
p248
aS'AAAAAGGUCGGCGAACAAAACCGGAAAGUCACGCAGACACCAAAACGGAAAAAUUCGUGACAAAGCAAAAGCGCAAAAGCAUUCAGACACCAAAAACGUAAAGGAAGUAAGAUUAAAAA'
p249
aF0.8823529411764706
aa(lp250
S'Kyurem 5'
p251
aS'AAAAGGGUAGCUUCCAAAGAGCGACAAAAGUCCCCUUAAAAGAAAAAAUGUAGGGUCGGUAAAAUUGAGAACGUCGUCAAUACCAAAAAAAAAAAAAAAAAAAA'
p252
aF0.9230769230769231
aa(lp253
S'Snowflake Necklace ( or v2.0 )'
p254
aS'GAUAUAUAUACAUAUAGAUCCAGCAAAAAGCACUAAAAAGGACUAAAAGGAACCAAAAAGGAGCAAAAAUGAGGGUCGCACAAAAGGUGAGAGACAGGAAAAAUCUCUAAAAAGGUGGAAAAACGUCCAAAAAGGACCAAAAAAGGGUCUCAGACAAAAAGUCAUAUCCAACAAAAAGUGCCAAAAAGGACCAAAAAGGACCAAAAAGGACCAAAAAGGAGGUUGAGACAAAAGGUUAGCCACAGCAAAAAGCACCAAAAAGGGCCAAAAAGGUCCAAAAAGGUCCGAAAAGGAGUAGCCGACAAAAAGUCCGAUACGGCAAAAAGCACGAAAAAAAAUCAAAAAGAGUCAAAAAGGACCAAAAAGGAGUAUCAAUAUGUAUAUAUGUC'
p255
aF0.8303341902313625
aa(lp256
S'Methaqualone C16H14N2O Structural Representation'
p257
aS'AAAAAAGGCUCAGUUCAGGCGGAUAAAUGGCAGAAGCGCAAAGGUGUGACAGAUAAAAGUCAGCCAUUCGAAAGAAGCUUUAAAAAUAAGAGGCAGUCUUUCAUUCAAGAAUGGAACUGUACGAAGAACCGGAAGAAAAUCAAAAAAAACGGAGCCAUUCGAAAGAGAGAUAAUGUAGACAAACGUCGGCAUGAAAGAUAAUUAUUAGAAAUACGAUCGGUGAAGAAAAAGACAAAAGUCAGGUAAUCAAAAGAUACGCGCGCAAAAGCGAGAUAGGCAAAAGUCAGUGAGACGUCAAAACACCUAAAAAUAGAUUAAAAAGACGUUAGUCAUAUCAAAGUAUUGAGCAAAAAAA'
p258
aF0.8985915492957747
aa(lp259
S"Cat's Toy 2"
p260
aS'AAAAAAUUUAGCAAAAUCGAGUAAAAAAAAAAAAAAAACUCAAGAAAUGCAAAGGACAUAGAAAACUAAAAAAAAUCAAAAAAGGGCUAGAUUAAAA'
p261
aF0.9587628865979382
aa(lp262
S'Zigzag Semicircle'
p263
aS'AAAGAACCCGUACUAAAAUUAAUUAGGGUUAAAA'
p264
aF0.9411764705882353
aa(lp265
S'Short String 4'
p266
aS'AAAAAAUCAUAGGGCAAUAAAAGCAAUUUAAUAGUGAUUAAGCUCCUUACAAAGGCUUGGUUGAAGCAGCACAAGAAAAAAAAAAAAAAAAAAAAAA'
p267
aF0.9381443298969072
aa(lp268
S'Gladius'
p269
aS'CGAAAGAUGGCAACGAAGAGCUGAAGUAACAUAUGCAAAGAUCAAAGGACCAUCUCCAUCAGACAAUCUGGGGAGGAAGUGAGGGAUAUAUCAGUUAUCACAGAGAUAUCACAUCAGGAUCAAGGAUCAGGUAGGAUGAGUCUGAUAUAACAAAUAUAUCAACAACUUAACACCUGAAAGGUAAACGGGAGGAGUGAAACUAGCUUUUUCAACGAGUAUAAGCAGUAGACGCAAAUAUAGACAGUAUACAGAUUCACAUUAAAGUUAUAUAUCGAAAGGUAUAAGAGCCAUGAUAGGGAUACGUAUAACGUUUAUAGCCCCGUCUUAAGUUAUCAAUUCAGAUGAAACAGUUAGAAAUAGCGUUUAGAAUGGAUCAACGGAACAAAAGAAACUACAAAAG'
p270
aF0.905
aa(lp271
S'Thunderbolt'
p272
aS'ACGAGAUACAAAAAAAAUAUCAAGCAUAGGGGGGAAACAGAUGUAUCAAAAAAAAUCCUAAAAAGUUCGAAAAGAGCGAAAACGGUAAACUAACAAAAAAUUAAUAAAAAAAAAAUAGGAAAAAAAAGUAAAACAGGGCAAAAUGACAAAAGAAACACUAAAGAUGAACAAAAAGUCUAUUCGAUAAAAAAAAGAGGGACAAAGGACAACGAAAAAGUUCAGAAUAAAAAAAGGUCCAGGGGGAUAAUAAAAUUAUCAGUAAUUAAAAAAAAAAAGUAAGUAAAAAAAAAUAAUCAAAAGGUACUGAAAAAGAAAAAAAACGAAAACAGUAUAAGAAGAAAGAUAUAUCAAAAAAAAGGGCAGGGCAAAAAAUGAAAAAAAAGUAUCAAGUA'
p273
aF0.9489795918367347
aa(lp274
S'Mutated chicken feet'
p275
aS'AAAAAAAGCAACAGUUAUAUAGCUAUGGAAAUUGCGAUAGGGUUAAGGAAUAAAAUAAAAUUGCAUUAGAACCAAAGGACGAAAUCGAAUCGAAAAAAAA'
p276
aF0.8
aa(lp277
S'Chicken Tracks'
p278
aS'AAAAAAAAGAGUAACGCGCGAAAGCGCAACACCAAAAGAAGAAGAUAUAAUUAUCGUUCUGCGGUGAGUUAUAAAAACAAGUAUAAGGUGGAAGCGUUAUGUGAACGAAAAAAAAA'
p279
aF0.9482758620689655
aa(lp280
S'Looking Back Again'
p281
aS'GACAGGAAUGUGAAAAAGAUAUCGAAGAUAUCGCAUAAAGACCUCAAGAUAAAGUCGAAACAUACAAAUAUCGAAAGAUAAAAAGUAUUGAGGAAAGACAAGCUCGAUAAAAAGAUACAAAAGGAUCAAAAAAAUUGUCACACUACAAAGUAGCCAAUCAAACAUGGCGUAUUCUAAGAAGAAGGAGAUGAGGAUCUAAUGAUCAAUUCGACGAAUAGGGACAAACGUCAACAUUGGAAAGUGGCGAAGAGAUACAGUCCAAAAAAGUUGAUUAAAAAAAAGCUCAAAAAGAGCAAUCAAAAACAGGACGUACAAAAAAACCUGUACGAAAGUAUAGAAGACCAAAGUAACCAUUAAAAAUGGGAGUCGUAAAAGUAUGUAUCCAGGUU'
p282
aF0.8380462724935732
aa(lp283
S'Multilooping 6'
p284
aS'AGUUUUAGAUGUUACGAAAGUAACGCCGCAAAGGUAGCGACCCUGGGUGUAAUUGCUUUACAGAAAGCUGUGGUCUAAAAAA'
p285
aF0.926829268292683
aa(lp286
S'Cesspool'
p287
aS'GAAGAAGGAAACAACGAAAGCGAGCCUAUGUCACCAACAAUUGAAAAAGAAAACAAUAAAACAAAAUAAUAAAAUUAAAAGAACAACAAGAAUAGGAAAACAACCCAAGUGAGAGAAAGUCAGCUACAAUAGAAGAAGGAAACAAUGUAAGAAAACAAAAAAAUCAAAAGAAGAACAAACAAUAAGAAAACAACUCAAGAGAGACAAACUCAGCAACAAGAGAAGGAGAAAACAACAAAACAAAAGAAUAAAAUAGAAAUAAAAAGUAAGAAAGAUGAAAACUACUCAACAGUGACAAGACCAGAAACAAGAGAAAAAUGAAAAAAUAAAAGAAAACGAUAAAAACAAAAGAAUAAUC'
p288
aF0.7513966480446927
aa(lp289
S'Hoglafractal'
p290
aS'AAGGCUAACAAUCAAAAGCUACAAAAAAGUAGCGAUUGGACUAAAUAUCAAAAAGAUGGACCCUCAACACAAAAGUCAAGAAAUAAAUACCAAAGAUCAAAAAGGAUCGAUACUCAAGACAAAAGGUCGAGCCAGCAAAAGCGGAGAUCAAAAGGCAAGACAAAAAAGUCGUCCCAUGAAAAACCGGCUCGAAAGAGAAAUACAAAAAGUAGCAAAAAAGCACGUAAAAAAGAGCUAAAGAGGGUUAUAAAAAAAGACAAAAAAGUCGUAAAAGACGAACUGUUUCAAAGAAAUAGGAAAAAAUAUAACAAAAAAGUAUCGAAAGGAUUAAAAAUCAAAACAACGGGCUGCAGCUCAAAACUAAAAGGCCAAAAGGCAUAUCAAAGAUAUGCGAUCGCUG'
p291
aF0.85
aa(lp292
S'Bullseye'
p293
aS'AAACUCAUUCAAAGAGUAGAUCCAAAGGAGAAGGUCAAGGACAGAGAAAAAAAGCUCAACCGAAGAGCAAGUGGUAUCCACAACGUGAAAGAUGAAGAAAAAAAGGAGGGUUAAACAUGAAGAUCAAAGAUCAAUAUAGAAGGUACUUAAAAAAAUAUAGUUCAAGGACCAAGGUCAAAGAUCGAAUUCAAAGAUCUAUUAA'
p294
aF0.8415841584158416
aa(lp295
S'Shooting Star'
p296
aS'AUAUGGGGACGUUAUACAAAGAUUUGUAUCCAGAAACCAAAAGACUUACAGGGGAAUUUCGGGUAUAACAGGCACAGGCAAUGUAUACAGAUACAGACAGAUUAGCAAAAGACAAUACGUCGAUAUACGUAGAACUAACAAGGGAAACAGUGUCGUACCAUACAAAAUCUGACUCUUAAGAAGAGAAGCAAACGUACAGCAGUUCAGAUAAGAUGAAAAUAUCUCAAAGAGAUAUGCUUCCAAAGGGAGCAUCGAUAUUAAAAUAAUACCAUUAUUAAGGAUAGGAUCGCUCAGUGAAAAAUAGAAAAGGAGGGUCAGAUCAGUAAAAGACGAUAGGACAUAACAAUACGUUGAGCACUGUAUA'
p297
aF0.8076923076923077
aa(lp298
S'Teslagon'
p299
aS'AAAAAAGAGAAAAAAUUAGGAAAAAAAGCGGCAAAAAAAAAAAAAAAGCAAAAAAUUAAUAAAAAAAAAAAAAAAAGACAAAAAAAACUACCAAAAAAAAAAAAAAAAAAAAAAAAUUGAAAAAAGGAGUAAAAAAAACAGAAAAAAAAAAAAAAAAUCGAAAAAAUAAUAAAAGAAAAAAAAAAAAGGCAAAAAAACCCGGAAAAAAACGAAAAAAAAAAAAAAAUCGAAAAAACCAGCAAAAAAAGUAGCUAAAAAAAAAAAAAUGCGAAAAAUUAACAAAAAAAAAAAAAAAGCGAAGAAAAAAGCAGGUAAAAAACCAAAAAAAAAAAAUCAAAAAAAAAAAAAAAGGAGCGAAAAAUCCAGAGAAAAAAUCAAAAAA'
p300
aF0.9057591623036649
aa.