(lp0
(lp1
S'Simple Hairpin'
p2
aS'GAUACAAAAAAGUAUC'
p3
aF1.0
aa(lp4
S'Arabidopsis Thaliana 6 RNA - Difficulty Level 0'
p5
aS'GAUAAUCAAAAGGCAAAAAAAAAAAGCCGAAAAUACUUGAUGAUAAUAAAAAUAUUCAAAGAUACAAAAAAGUAUCGGAAUAUAUUUUAUUAUUAUCUUGUAUUUUCAAGAUUAUC'
p6
aF1.0
aa(lp7
S'Prion Pseudoknot - Difficulty Level 0'
p8
aS'AGACACAGAUCGAAAGAUCGUGAUCUAAAAAAAAAA'
p9
aF1.0
aa(lp10
S'Human Integrated Adenovirus - Difficulty Level 0'
p11
aS'GGGAUUACGCUUAGUCGUAGUAAAAAAAAAAGCUUCCACUAAGCCCUGAAGCCGUGCAAAAGACAUCUUGCUAGGAAAAAAAUUAGCAGGAUAAAAGUCGCACGAAAAGCUGCUCUACUGGUGAAAGAUAACUAAAAAUGUUAUCGAAGAAAAAAAAAAAGGCUAUGUCUAGAAAUGCGUAGAACUCCCGAA'
p12
aF1.0
aa(lp13
S'The Gammaretrovirus Signal - Difficulty Level 0'
p14
aS'AAGUCAUUUCAAUGAAAGUUGAAUAGUCAAAAAAGAUCAAGGAAGAUCCAGAGAAAACUCUGUAAAGAUCUCCGAUCGAGAGAAUGCUAAUGUAUUCUCAA'
p15
aF1.0
aa(lp16
S'Saccharomyces Cerevisiae - Difficulty Level 0'
p17
aS'AGCUGGAAGUCGAAAAAAAGGCGACGUAAAAAAAAAAAAAUCGAAAAGAUACAAAAAAAGUAUCGUUAGCUAAAAGGCACUUAUGAACGAAAAAAAGUUCCCCUAAAAAAAAAAAUGGGAAAAGAUAUAAAAAAGGUAUCGAGUGUCAAAAGAUAUCCAAGAUCAAAAAAAGGAUCCAACAGGAAAAAACUGUUGAAACGCUACUAAAAAUGUAGCGGAUAUCGAAAUCCUAUGAAGACCAAAAAAAAGGUCCCAUACUAAAAAUGUAUGGAAAAGGUGGGAAAAAACCAUCCAUGGGAGAAAGAUGAUGAAGAUCUAAAAAAUGGUCCAAUAAUAAAAAUUUAUUGAAAAGAUACAAAAAAGGUAUCCAUCAUCGAAA'
p18
aF0.9894459102902374
aa(lp19
S'Fractal 2'
p20
aS'AAAAAUAUAAUAUAAUUGCGAUAAUCAAUAUCAAAAAAAAAAGAUAAAGACCAAAAAAAAAGGGUCAAGAUCAAAAAAAAAAGAUCAAGAUUAUUGCAUAAGAGAAUCAUCAAGGUCAAAAAAAAAAGAUCGAGAUCAAAAAAAAAAGAUCAAGGUGGAAAAAAAAACAUCAAGAUGAUUCUCAAAGAUAAGCAGCAAGCGCAAAAAAAAAAGCGCAGGAUCAAAAAAAAAAGAUCAGGUCGUAAAAAAAAUCGGCAAGUUGCUUAUCAAAAUAUUAUAAAAAA'
p21
aF1.0
aa(lp22
S'G-C Placement'
p23
aS'AGACAAGGUCUA'
p24
aF1.0
aa(lp25
S'The Sun'
p26
aS'AGCUUAGCUACAAGGUAGACUAGGCUAAACUCAGAGGUACGAAGAACAACUGGUAAAGGUCACUGGUGUAAGAUACAACGGGACAAAAGCAAAGCUAUGAAGUAAAACUCGAGAAACCUAGAGGCGCAAAGCGCAACUCGAGGAAGUCAGGUGAACAAAGUUCAACCCGGCAAGCUCAGGGGUAGAAACUACAACCCGAGAAAGUCAGCGGCACUAUGUGCAACGCGACAAACGCAGCGGUACAAAGUACAACGCGCG'
p27
aF0.8875968992248062
aa(lp28
S'Frog Foot'
p29
aS'AAAAAAAAAAGAUCGAAAGAUCCUAUGAAAGUAGCUCGAAGCGAG'
p30
aF1.0
aa(lp31
S'InfoRNA test 16'
p32
aS'GAUAAUGGGAGACACGAAAGUGUCAUCACGAUUAUC'
p33
aF1.0
aa(lp34
S'Mat - Martian 2'
p35
aS'GAUCGAAAGAUCAAAGAUAAUCAAGAUAAUCAAAAAAAGAUUAUCGAUUAUCAAAGAAUAAUCAAAAAAGAUAAUCAGAUAAUCAAAAAAAGAUUAUCGAUUAUCAAAGAUAAUAGUAUUAGAAAAAAGCUAAUAUAUAUUAUCAAAAAAGAUUAUUCAAAGAAUAAAUAAUUAUAAAAAAAAUGAUUAAAUUUAUUCAAAGAUCGAAAGAUC'
p36
aF1.0
aa(lp37
S'square'
p38
aS'GAUAAUCCAGACGCGAUAAGCGAUACAAGGUAUUGAAAACUUAUUGAAAAUGUCUGAAAAGAUUAUC'
p39
aF1.0
aa(lp40
S'Six legd turtle 2'
p41
aS'AAAACCCAAAUGGAAAUGAAUACAAAGGAUAAGUGAAUUUAAACCAAAAGGGACAUGAAAGUAAGAUGAAAAUAAAGGAAAAAAAAAAAAAAAAAAAA'
p42
aF0.9387755102040817
aa(lp43
S'Small and Easy 6'
p44
aS'GAUAAGAAAAUCAUGUAAAAAAAAGGCGUA'
p45
aF0.8666666666666667
aa(lp46
S'Fractile'
p47
aS'AAAAAAAAAAAUGAGAAAUCUAAGGAAAUGGAAACGAAGGGAAGGGAAACCGAAUCAAGGAAAGCCAAACCAGGGGAAACCAAAAAAAAAAAAAAAAAAAAAAAA'
p48
aF1.0
aa(lp49
S'Six legd Turtle'
p50
aS'AAAAAUAAAAAUGGAAAUAAAAAUCGAAAGAGAAUAAAAAAUAUAAAUAAAAGAAAAAUAAAAAGUUUUUAAGGAAAUUAAAGUUGAAAAAAAAAAAAAAAAAAA'
p51
aF0.9619047619047619
aa(lp52
S'snoRNA SNORD64'
p53
aS'GAUAAUAAAAAGGCAAAAGGCAAAGAUACAAAAAAAAAAAAAGUAUCAAAAGCCAAGCCAAAUUAUC'
p54
aF1.0
aa(lp55
S'Chalk Outline'
p56
aS'AAAAAUAUCAGAGGCGAAAGCACUCGGGCGAGCGAAAGUUGCCAGAUUUCGAAAGAUAAUCACGGAGAAAACUCACGGAUAGAAAAAAAAAAAAAAAAAAAAAA'
p57
aF1.0
aa(lp58
S'InfoRNA bulge test 9'
p59
aS'GAUAAUCAGAGAGAGAUAAUCGAAAGAUUAUCCCCGAUUAUC'
p60
aF1.0
aa(lp61
S'Tilted Russian Cross'
p62
aS'AAAAAGAUGCAGCGAAAGUUGUCGGAUCUCGAAAGAGAGCUGAUAAUUCAGCAGACUUAAUGGUCCCGAUACAGAAAUGUACAUCGAAAAAAAAAAAAAAAAAAA'
p63
aF1.0
aa(lp64
S'This is ACTUALLY Small And Easy 6'
p65
aS'AAAAAAAAAAAAAAAAAAAAAAAAAAAAAAAAAAAAAAAAAAAAAAAAAAAAAAAAAAAAAAAAAAAAAAAAAAAAAAAAAAAAAAAAAAAAAAAAAAAAAAAAAAAAAAAAAAAAAAAAAAAAAAAAAAAAAAAAAAAAAAAAAAAAAAAAAAAAAAAAAAAAAAAAAAAAAAAAAAAAAAAAAAAAAAAAAAAAAAAAAAAAAAAAAAAAAAAAAAAAAAAAAAAAAAAAAAAAAAAAAAAAAAAAAAAAAAAAAAAAAAAAAAAAAAAAAAAAAAAAAAAAAAAAAAAAAAAAAAAAAAAAAAAAAAAAAAAAAAAAAAAAAAAAAAAAAAAAAAAAAAAAAAAAAAAAAAAAAAAAAAAAAAAAAAAAAAAAAAAAAAAAAAAAAAAAAAAAAAAA'
p66
aF1.0
aa(lp67
S'Shortie 4'
p68
aS'GAGAAAUCGAGGAAACU'
p69
aF1.0
aa(lp70
S'Shape Test'
p71
aS'AAAAUGUGGACAAGAUACAAAAAAAAGUAUCAAGGCAGGCGGAUACAAAAGGUAUCAGAUCGAAAGAUCAGCCGCCAAGUUCUCUAAAAAAAAAAAAAAAAAAA'
p72
aF1.0
aa(lp73
S'The Minitsry'
p74
aS'GGCAAAAAGGCAAAAAGGCAAAAAGGCAAAAAGGCAAAAAAAAGCCGGCCGGCCGGCCGGCC'
p75
aF1.0
aa(lp76
S'stickshift'
p77
aS'AAGAUAAUCCAAAAAGGAAUUAUCAA'
p78
aF1.0
aa(lp79
S'U'
p80
aS'AAAAUGUUAUAGAGAGUUGAUAGAACAAUGAAAGUUGUUUUGCACCCGUAACUAAAA'
p81
aF1.0
aa(lp82
S'Still Life (Sunflower In A Vase)'
p83
aS'AAUAAUCGAGGUGCAAAAAGUACCAACAUGGGAACCGUAAACGUUCAAAAAGGGGGAACCUCCAAAGGGGGAAUAAACAAAAAGAAGGAUUAAUAAAAAGUGAUAAGAGAUCUGUAGUACUAAUAAUACGAUACAAAAAGGUAUCAGAUUCGAAAAAAAAAAAGGAUAUAAAAAAAAAAAAAAAAAAAAAAAAAAAAAAAAAAAAACCUUAUCAAAAAAAAAAAAAGAAUUCAAUCUAAUGAUUGAGUAUUAUUAGUAUUACAGGUCUCAAGAUCCAAAAGGGAUCAUCUUGCAAAAAGCAAGUACAUGCAAAAAGCAUGAAAUCCGAAAAGUGACUAAUGUGCGAAAGCACAAGGGCGCAAAAAGCGUCAGAUUUAA'
p84
aF0.9735449735449735
aa(lp85
S'Quasispecies 2-2 Loop Challenge'
p86
aS'AAAAAACGCCUAAUUGAUCUAAUGAUCUUUUAGAGAGCAACAAAGGGGUUCGAUUCUUGGAGGGAAAAACCCGACUUGGAUGCGUGUAAAAAAAAAAAAAAAAAA'
p87
aF1.0
aa(lp88
S'Corner bulge training'
p89
aS'AUAGGAUAAUACGAAGUAUUCAAAAUUCUAA'
p90
aF1.0
aa(lp91
S'Spiral'
p92
aS'AAAAAGCUCAGAUAAUGCUCAGAUACAGAUCAGAUCAGAAGAAGAAGAAGUAGAUAAAUUCACUCUCUCUCGAUCGAUCGUAUCGAGAUUAUCGAGCAAAAA'
p93
aF1.0
aa(lp94
S'InfoRNA bulge test'
p95
aS'AAAAAAAAAAAAAAAAAAAAAAAAAAAAAGAGCAAAAAGGAGUAAAAGAGCUAGGAGCUUGAGCGCAGGAAAAACCAUGAGCAUCUUGCAUCAAUGCAUCGAAAAGCAUCAAAAAAGCAUCA'
p96
aF1.0
aa(lp97
S'Worm 1'
p98
aS'AAAAAAAGUGGCAGAUAUCAGGAGAAAAGUCCGAAGAGAGAACGA'
p99
aF0.9111111111111111
aa(lp100
S'just down to 1 bulge'
p101
aS'AAAAAGAGCGAGACUGAAAGGUCUACUCGAAAGAGAGCAUCAAAAGAUCAGGCGAAAGCCACUCGAAAGAGAGAUCAAAAAAAAAAAAAAAAAAAA'
p102
aF1.0
aa(lp103
S'Iron Cross'
p104
aS'ACUCAGGCAAAGGGAGUCUAUGACAGGCGAAAGCCGCCCAAACGCACUCUAAUGAGACGCAAGGCGAGCGAAAAGCACUAGAAAUAGGGGCAAAGCCAGCUAAAGCCACUCAAAGAGGGAGAA'
p105
aF1.0
aa(lp106
S'loops and stems'
p107
aS'AAAAAUGCAAUCAAAGAACAAAGAUCAAAGUUCAAAAAAAAUGAUACAAAAAAAAAAAAGUAUCUAGGAGCAAAAGAAUAAAAAAAAAAAUUCAAAGAUCAAAGGCAAAAAAAAGCCAAAGUUCAAGAAAAAAAUCCAAGAUUGCAAAAAA'
p108
aF1.0
aa(lp109
S'Water Strider'
p110
aS'AAAAAAAUCGAAGUGACAGACGAAAGUCAUCAAAGGAACUCAUGACCACAUAUAAUUGAAUGAAAGCAUAGGGGAGACGUCUGAAAAAAAAAAAAAAAAAAAA'
p111
aF0.9611650485436893
aa(lp112
S'The Turtle(s) Move(s)'
p113
aS'AAAGGAAAACCAAAGGAUAAUUAUAAAAAAAAAAUAAUUAUCAAAAGAUCGAAAAGAUCGAAAACUCGAAAGAGGAACAUGCAAAAAAGGCAUGAAAAGGCGAACUGAAAAGAAAAACUCGAAAGAGAAAAGAUAAUAAAAAAAAUUAUCAAAACUGGAAACAGAAAAACAUUAGGAAAGGCAAAAAAAGCCAACACAAAAAAAGGUGGAACAGGCAAAAAGGCCUGGAACUAGAAAAACUAGAACUAGUGAAAAAAAAAGGAAAACCAAAAAGCAAAAGCAAAAAGAGACUAAAAAAAAAAAGUCUAAAAAAGCC'
p114
aF1.0
aa(lp115
S'Adenine'
p116
aS'GAUACGGAUAAUGGAUAAUGGAUAAUGGAUAAUGGAUAAUAAAAGAUAAUAAAAAAAUUAUCGGUUAUCAGAUACAAAGAUAAUCAAAGAUUAUCGUAUCAAUUAUCAGAUAGACAUGUCAAAGACAUGUAAACUAUCAAUUAUCAAAAAUUAUCAAAAAUUAUCAAAAGUAUC'
p117
aF1.0
aa(lp118
S'Tripod5'
p119
aS'AAUAGUCGGUAAAAAACCGUCUCAAAAAGAGAGCUGGA'
p120
aF1.0
aa(lp121
S'Shortie 6'
p122
aS'GCGAAAGUGAGGGAACUAGGUAAGCCACGGAAACG'
p123
aF1.0
aa(lp124
S'Runner'
p125
aS'AAAAUGAUCAUGUCAAAAUUCAUUAUGUGAUGACAGAUUUCUAGAGUCCAAAGACACAUUCUUCAAAAAGUUGAAUUAAAGGGUUAGGGGAUGGCAAAGGCCUUUCAGAUCUAAAA'
p126
aF0.9224137931034483
aa(lp127
S'Recoil'
p128
aS'AAAAAGUUACAGGAUUCGAGCACAAGGUUUUAGAGCAAAGCAUAUACCGGUGGCGUUCGGUAACGAAAAAAAAAAAAAAAAAAAA'
p129
aF1.0
aa(lp130
S'[CloudBeta] An Arm and a Leg 1.0'
p131
aS'AAAAAGGCGGAGCUGAAAAGACUCCCUAGAAAAGUCAGGAGCCGAAAAAAAAAAAAAAAAAAA'
p132
aF1.0
aa(lp133
S'[CloudBeta] 5 Adjacent Stack Multi-Branch Loop'
p134
aS'ACCUGGCUCUAAUGAGUGUGACUAAUGUCAUUCAGCAAAGGUUGAUAGCAAAGGCUACAGGUA'
p135
aF1.0
aa(lp136
S'Triple Y'
p137
aS'AAAAUUAGUCCGUGAUAUAAUUAUCUUAUAAAGGUAGGUGGCCAGCAGUAAAGAAAGAUGUACAGGCACGAGGGCAGUAAAAAAAAAAAAAAAAAAA'
p138
aF0.979381443298969
aa(lp139
S'Misfolded Aptamer'
p140
aS'GAUCUAAAAAGGGGCGAAGCCAGUUAAUGCGAAAAAAAACCAAAAUGAUC'
p141
aF1.0
aa(lp142
S'Flower power'
p143
aS'AAAAGCAACCACAAAGGGUGAGGUGAUCGGAUCGGCAAAUAUUAUAUAGAAAUCCAUGUGGCCAUCGGUGUUAUACAUGAUGAAAAAAAAAAAAAAAAAAAA'
p144
aF0.9215686274509803
aa(lp145
S'Kudzu'
p146
aS'AAAAUCGCAUGCAGGGGCAAACAAAGAAAGUCUCUUCCGGGACCCAAAGGAGUCCAACUGAAAAAGUAACCUGUAAGGAUCUAAAAAAAAAAAAAAAAAAA'
p147
aF0.9405940594059405
aa(lp148
S'"1,2,3and4bulges"'
p149
aS'AAAAACGGAGUUGUCGAAAGAAAAACAGUAAAGAAAUUGAGCACGAAAAAGGGAGCCUAAUAAAAGUAGUCGAAAGGCGCCAAUUGAAAAAAAAAAAAAAAAAAA'
p150
aF0.9428571428571428
aa(lp151
S'medallion'
p152
aS'GAAAUGACAAUACGAAAGUAUUGACCUGAAAGAAACUCGAAAGAGACCAUACGAAAGUAUGGGUUCGAAAGAAACAAUACGAAAGUAUUGACGCGAAAGCGACUGGAAACAGACAGUACGAAAGUACUGACACUAAUGUGACAACACGAAAGUGUUGACUCGAAAGAGACUCGAAAGAGACAAUACGAAAGUAUUGACUCGAAAGAGACAAUACGAAAGUAUUGACUCGAAAGAGACUGGAAAUAGACAAUACGAAAGUAUUGACUCCAAUAAGGAAAUACGAAAGUAUUUACUCGAACAAGGCGCGAAAGUGACAAUACGAAAGUGUUGAUUUUUC'
p153
aF0.9643916913946587
aa(lp154
S'[RNA] Repetitious Sequences 8/10'
p155
aS'AGGAAAAAAGAAAAAAAUCAAAAAAGGAAAAAAGAAAAAAAUCAAAAAAGAAAAAAAUCAAAAAACCAAAAAACCAAAAA'
p156
aF1.0
aa(lp157
S'Documenting repetitious behavior'
p158
aS'AAAAAAAGUAAAAAAAAAUUUAAAAAAAAGGAAAAAAAAAGAAAAAAAAAGGGAAAAAAAAAGGGAAAAAAAGGAAAAAAAAAGGGGAAAAAAAACUAAAAAAAAAAGAAAAAAAAACUUAAAAAAAUGGGAAAAAAAGAUAAAAAAAAGGAAAAAAAAAUAGAAAAAAAAAUGAAAAAAAAGGCAAAAAAAAAGGGAAAAAAAACUGAAAAAAAAGCAAAAAAAAGCAGAAAAAAAAUUAAAAAAAAAGAAAAAAAAAUUUAAAAAAAAAUACAAAAAAAGACAAAAAAAAGUGGUAAAAAAAGGCAAAAAAACGUAAAAAAAAAUGAAAAAAAAACUAAAAAAAAAGUAUAAAAAAACCGAAAAAAAAGCAAAAAAAAUAGCAAAAAAAGGGGAAAAA'
p159
aF0.895
aa(lp160
S'7 multiloop'
p161
aS'GCGCCUAGCGAAAGUUAGGGGGUGAAAGCUCCGGUGCGAAAGUACCGGUUCGAAAGGACCGGGCUGAAAGGCCCGGACUGAAAGGUCCGCGC'
p162
aF1.0
aa(lp163
S'Kyurem 7'
p164
aS'AAAAUGAGCUAUCAGUGAACUGAACAAAAGCUCAGCCUAAAUGGCAUUCGAGUAAAAUCUAAAGGAAGGGCGUUAAGAUGUCUAAAAAAAAAAAAAAAAAAA'
p165
aF0.9411764705882353
aa(lp166
S'JF1'
p167
aS'GGUAUCAAUACACAUGCAAGAUGCAAAAGAUAAUAAGAUACAAACAAUCAAGAGAAUGCAAUAAUAAUAAUCGAAAGAUUAUUAUUAUUGAAGUCUAAUGACACAAUAAUACGAAAGUAUUAUUGAACAUGCGAAAGCAUGAAUUCUCGGAUUGGGUAUCGAUUAUCAAAGAUAGACUGAAAAAGUGCUAUCAAGAUAAUAAUAUUAUUAUUAUUAUCGAAAGAUAAUAAUAAUAACUAUUAUUAUCAAAGAUACAAAAAAGUAUCCAAUAAUCAUGAAAGUGAUUAUUGAAACUUUGAAAGGAGAAGCAUCAAGCAUGAUGGCAGGCAGGCGAAAGCCGCCGCCAAUAGACAUGCGAAAGCAUGAUCUAAGUAUAUGAGUACCGAA'
p168
aF1.0
aa(lp169
S'multilooping fun'
p170
aS'UAAGGGGUUAAAAGGAGAAAUAUAACACAAGAGGUA'
p171
aF0.8333333333333334
aa(lp172
S'Multiloop...'
p173
aS'GAUCAGAUCAGGCGAAAGCCAGGCGAAAGCCAGGCGAAAGCCAGGCGAAAGCCAGGCGAAAGCCAGGCGAAAGCCAGAUCGGGUACAAAAAAGUACCCUCGAAAGAGGAUC'
p174
aF1.0
aa(lp175
S'hard Y'
p176
aS'AAAAGGAUCCUUUGUAUCAUGAAAGUGAUACUGAGGAAUAAGUAUGAAAGUACUUAUUCGAUCAAAAA'
p177
aF0.9705882352941176
aa(lp178
S'Mat - Elements & Sections'
p179
aS'AAAAAGUUAGAGAACACAUCACAGAUCUGUAGAGAACAGAUUGAAAAAUGUAGUUUCGCUGGUCAAAGGGGAUGGGGAAUAUGGCGCUAAAAAAAAAAAAAAAAA'
p180
aF0.9619047619047619
aa(lp181
S'Chicken feet'
p182
aS'AAAAAGAAUUUAGGAAACAGCGAAGACAUACUAAGGGUAAGGGAAUAAGUAUAGGUAAGACCAAAAA'
p183
aF0.7910447761194029
aa(lp184
S'Bug 18'
p185
aS'AGUCUUGGGUCGUGUGUAGCCGUAAAAAGACCACGUUGGUCUGAUGUAACACA'
p186
aF0.9245283018867925
aa(lp187
S'Fractal star x5'
p188
aS'AAAAACAAUAAUGAAGAUCGAAAGAUCAAGUAUGAAAGUAUAACUGUGAAAGCAGAACUAUGAAAGUAGAAUAUUAUUGAAAAACAAUCAUGAAGCUCGAAAGAGCAAUUAUGAAAGUAAAACUAUGAAAGUAGGACGGUGAAAGCUGAAUAUGAUUGAAAAACAAUAAUGAAGAUCGAAAGAUCAACUAUGAAAGUAGAACUAUGAAAGUAGAAGGAGGAAACUCCAAUAUUAUUGAAAAACAAUAAUGAAGAUCGAAAGAUCAACUAUGAAAGUAGAACUAUGAAAGUAGAACUAAGAAAUUAGAAUAUUAUUGAAAAACAAUAAAGAAGAUCGAAAGAUCAACUUUGAAAGGAGAACUAUGAAAGUAGAAGUAUGAAAGUACAAUUUUAUUGAAAAA'
p189
aF1.0
aa(lp190
S'Crop circle 2'
p191
aS'AUUAUGGAAAGGGGAAAUACCAAAAAAAAUCAAAAAAAAAAAAAAAAAAAAAAAAAAAAAGUGGAAAAAAAAAAAAAAACUAAAAAAAAGCAAAAAAAACUAGUAUGAAA'
p192
aF0.9636363636363636
aa(lp193
S'Branching Loop'
p194
aS'AGUCAGGACAAACACGUAAGAAAUUGUAACGGAUCAAAAA'
p195
aF0.95
aa(lp196
S'Bug 38'
p197
aS'CCGAGUGUUAACCAGAAACUGGCCCGAAUAAAUUGU'
p198
aF0.9444444444444444
aa(lp199
S'Simple Single Bond'
p200
aS'AAAAAAGAAAAAAAAAUUAGUAAGUCAAAGAAAAAAAACAAAAAAAAAAAAAAAAAAAAAA'
p201
aF0.9672131147540983
aa(lp202
S'Taraxacum officinale'
p203
aS'CUACGAAAGAUAGACUACGAAAGAUAGACUACGAAAGAUAGACUACGAAAGAUAGACUACGAAAGAUAGACUACGAAAGAUAGAGAUAAUAAUACGAUAAUACCGCAAAGUGGAUAUUAUCAGAUACAAGAUAAUAAUCAAGAUAAUCAAAGAUUAUCGGAUUAUUAUCCUAUGCAAUACAAAGUAUUGAUAGGUAUCAAAGUAUUAUUAUCGGAGCGAAAGACUCACUACGAAAGAUAGACUACGAAAGAUAGACUACGAAAGAUAGACUACGAAAGAUAG'
p204
aF1.0
aa(lp205
S'Headless Bug on Windshield'
p206
aS'AGAGGGAAGAAUCAUCAAAGGCAUGGAAAAAAAAAAAAAAAAAAAAAAAAUGUGUCAAAGAUCGAAAUCUAUUAUGCUAUGGAAAGGAAAAAAGGUAAUUCGAAAAAACUUCGGAAAGUGCCAGGCGAAAAAAAAUAAAGGCUUGUCCGUGAACCAAAAAAAAAAAAAAGGGUAAUGAAGACUCACAUUGGAGCGCGUUA'
p207
aF0.96
aa(lp208
S'Pokeball'
p209
aS'AAAUGAGUCGAAAAGGAGGAGGACUAACAAGCGGACUACUUUUACAAGCAGCGCGGAUUAUUAGACGGGAGGAGUAUCACCCGAUUCGGAAAAAAAGAUGGUUAAAAGCAGGAAAUGGAAUGAGUAGUGAGAGUGAGUGAGCAAGGCGGUGAACAUCAGAACCGGUCCAUCGGCGAACGUCAAA'
p210
aF0.9565217391304348
aa(lp211
S'Variation of a crop circle'
p212
aS'AAAAUGAAAAGGAAGAUGAAAAGGAACUUAGGGAAUCAUGGAAGACUGAAAAACGUAAAAAACAAAAAAAAAACAGAAAAAAAAAAAA'
p213
aF0.875
aa(lp214
S'Loop next to a Multiloop'
p215
aS'AAGAUUAGUCGAAAAAAUAGAUAAUAAAGGUUAUCAGAUGAUCGAAAGAUCAUCAAGAAAAAAGGUUGGUCAA'
p216
aF0.9726027397260274
aa(lp217
S'Snowflake 4'
p218
aS'CUAUAAAAGAACAUUCCAAAAGUGGAUCCAAGAAACCAAAAAUGCAAUCGAGCGAAGCUCAACUAUAAAAUAGGAUUGCAAAAAUGGUUUCGGGUUACGGAAAAUCCAAUCCAGAUAUGCAUAACUCUAAAGGAGGAUUGUAUAAUUGAAGUCAAAACAAGAGAAAGCUAAUCCUGGCAAGCAGAACUAGAAAUUAGGAUUAGGAAAAUGGUGUUGGGAUACUAAAAGUGAAAUCCUGCAAAGUAGAACUAUAAAAGCGGAUUUCAAAAAUUGUAUCAGGAGUUCAAAAAUGCAAUCGAUCGAAGAUCAACUAUAAAAUAGGAUUGAAAAAGUGGUAUCAAGGAUGGUAAAGAGGAAUGAUGGAAACCAG'
p219
aF0.7648648648648648
aa(lp220
S'Mat - Cuboid'
p221
aS'GAAGAAAAAGGAAGAAAAAAGUAGAAAAUGAUGGAUGAAAAAGUGAGGAAAGAAAAUAUGUGAGGAAAGAAUAAGGACGUAUUACGGCAAACUAUAUAAGGUUGUAAGGAAAAUGUUAAUCGGCUGAUUGAAAAAGAUAUUUUGAGAGUUUACUUGAAAAUGUUUGUUAGUUUGAUGCAUUGCAAAAGUUUAAUUGGUUAAAUCCUAGAAAAAAGUUGUGGAGUUUUCCUUUUUUACGCUCUGACUCAUGCGUAAUUGCCCUUUCUUGCUAUGUUGAGUUCAAUCUCUUCCAUUUUUCACUAAAUGCCUUAACUAAGUCUAAGUUUGGACUUCGACCGAGCUGCUCUACCGAACUCUGCCCUCACUUCUGCUGCUUCUAC'
p222
aF0.7842105263157895
aa(lp223
S'Misfolded Aptamer 6'
p224
aS'AAAAAAGGUUAAAAUGGUCAACAAAAUGCAAAAAAAAGCAGAAGGGAAAAGAUCUAAAAAUACCAAAAAAAAAAA'
p225
aF1.0
aa(lp226
S'Snowflake 3'
p227
aS'GGGUAAAAAUGACGCCUCAAAGGAGAAGCUCGGAUCAAUGCAAAGGCACUAAUAAAAAUGCUGAAACAGUAAAAAAAAGAGGUCGAAAGAUAAGCCCAUUUCAAGGCUAAUGCCCUUAGAAAAAUAACGAAACGUCAAAAGUAAGAGCUCGAAAGAGAAGAUAAGAUCAAUUGGAAACAACUUCGAAAAAUCUUCAAAGGGCAAAAAUGUGAGCUGGAAACAGAAGAUCGAUUGGAUUCGAAAGGGCCCAGAAAAGUCCAGAAGUUGCCGAAACGAAGGCUCGAAAGAGAACAGUAUAUGAAGGCGAAAGCCGUCAGAAAAAACCUCAAAGAGCAGAAAUGCGACCUCGAAACAGAAGAUGAGAGCAAGCGGAAACGCGCGAGUAAAAAUCCC'
p228
aF0.8346055979643766
aa(lp229
S'Hard Y and a bit more'
p230
aS'AAAAGGAGAACGAUUUAGAAAGUUAGCACCGUGACACUUUAAGCGAAAGCUUUGGAGGCAAAAAAGUUUUAUAGGGUAACUUUUCAAAAAAAAAAAAAAAAAAAAA'
p231
aF0.9716981132075472
aa(lp232
S'Mat - Lot 2-2 B'
p233
aS'CAGGCGAUUUGACGUAAAAAGAACGAGCGAAAGCAAAAUCUGUCUACUUCAAAAUAUUCGGAAGGAAAAAGUUUCAUUGUAAAAUCUGGCACUUGGAAAACUAAAAACCCUUGUAAAACCAAUGGCUUUGCAGCGGAAUAGAAACGGAUUAUGGUUGAAAAAGAUUGACUGAAAGGAAAAUCUCUCUCUUUCAAAAGUUUUCUUUAUGAAAAUAUUCAUUGAAUCAGUAUGAGCAGGCAAAAUGGAAACGCCAUGGGAAAUCUGUCUCUUUCUCAGUUAACAAG'
p234
aF0.6901408450704225
aa(lp235
S'Shapes and Energy'
p236
aS'AAAAAAGUGAACACGGGUAAAGAAUGAUCACGAAAGGGAUCUAGCCCCGGAGGAAAAACUAUCGAAAGGUGCCGGUUCUCAAAAAAAAAAAAAAAAAAAAA'
p237
aF1.0
aa(lp238
S"Spiral of 5's"
p239
aS'GAAAUGAUACAAUGAUCAAAAGAUAAAAAAGUUACAAAGAUAAAAAGAUAAAAGACACAAAAGAUACAAAUAUGUAAGGAUAAAAGAUACAAAGAUAAGAAGAUAAAAGAUGCUAAGAUAAAAGAUGCAAGAUACAAGAUACAAGAUACGGCUACGGAUAGACAUGAAAAACAUGUGUGUGUUAUCAAAAAGUAGCAAAAAGUAUCAAAAAGUAUCAAAAAGUAUCAAAAAGUAUCAAAAAUUAUCAAAAUGCAUCAAAAAUUAUCAAAAAUUAUCAAAAAGUAUCAAAAAUUAUCAAAGAUUAGACAAAAGUAUCAAAAGGUGUCAAAAAUUAUCAAAAAUUAUCAAAAGGUAACAAAAAUUAUCGAAAAUGAUCUAAAAGUAUCUAAAACAAAAA'
p240
aF0.9949622166246851
aa(lp241
S'Campfire'
p242
aS'AAAAUCUGAAUAUACAAUGUAACGGUUAAAAGAACCGUGGUCAAGGACACACGAUACACGAGAGAAGAAGACACUAAUGUAGUCUCUUAACGGAUCAGGUGAUAAUUCUCGAGAGCCAGCGAAAGCAUGACACAACUGGCAUUUACUGCCAUAAAAACACAGUCACGUCGAAAGACGGGGGCGAGACGCACUAUGUGACAAUUGGUCUCAGG'
p243
aF0.8915094339622641
aa(lp244
S'Anemone'
p245
aS'AAAUGUAAUAAAGGUUAUAGACGUAAAGACGUUUGUGGUAAAGGCCAUACAGUCGAAAGACUGGCUAUUGAAAGAUAGCCCUCCUAAUGGAGGGGGACGAAAGUUCCGAUAUUAAAGGAUAUCACUGGAUAAUUCCAGAAAAACUAAUCUAUUGUGGACACAAGUUUAUAAGAGUAAUUUUUUCGUCCGGAAACGGACGUUUGCAAAGGUCAGC'
p246
aF0.9906542056074766
aa(lp247
S'Fractal 3'
p248
aS'AAAAUGCUGACUGAGCGAAAGCGUUAAUACACAAGGGCAUAAAUCUGUGGAAACAAUUCAUCGAUAAAAAUGCCAAAGGCAGUGACUUAUCAAAAUAGGAAAACCAGCGACAGCUAAAA'
p249
aF0.9159663865546218
aa(lp250
S'Kyurem 5'
p251
aS'AAAAGGUUGCAAGCCGAAACUGGAAAAAAUGCCAUUCAAACGGGAAAAUUGGAGUGAUUAAAAUGCUAGCGUUGCUUGUUUGGUAAAAAAAAAAAAAAAAAAAA'
p252
aF0.9230769230769231
aa(lp253
S'Snowflake Necklace ( or v2.0 )'
p254
aS'GAUAAUGGAGGCACAGCAUGGAUUAAAAAAGGCAAAAAAUGAGAAAAAACCAUGGAAAAUGAAGAAAAACAAUAAUAAGACUAAAUGUUGGACAGAGUAAAAAGGACCAAAAAGGUCGAAAAGCGUCAAAAAAUGACAAAAAAUGAUUUUCAUGCCAAAAGCCAUAUAGAGAAAAAAUCGCAAAAAAUGUCGGAAAACGACCAAAAAUGUAAGAAGAUGGUUAUGAUGUAAAAAGCGAGAUAGUCGAAAAACGACAAAAAAUGAUAGAAAAUGACAAAAACUCGCAAAAAAUGACGAACAGUCUAAAUGACGGAUACACAAAAAAUGGCGAAAAACGACAAAAAAUGGUAAAAAAUGUUCAAAAAGGACUAUGAUGUGUUUUUAUUAUC'
p255
aF0.7686375321336761
aa(lp256
S'Methaqualone C16H14N2O Structural Representation'
p257
aS'AAAAAAAGAGCGUAUUUCUCGAUUAAAGGAUACUCAGGCGAAAGCCAGUCAUAAGAAAUUAAUACAGGCGAAAGCCACUUAAAAAAAAGGGGUAAGACGGGGAGAGUUAAAGAAAUAAGCAGAAAGGACACAAAGAAAAUGGAAAAAAAGUGAGGCGAUCGAAAGAUCUCGAAAGAGGUGGAAACAGGACAACAAAGGUUAAAAAUAUGUAAGAAGGCGGCGAUGCAAAACGGGAAAUCGGGCAACUCGAAAGAGAUGCAGGCGAAAGCCAGCUACUGUAAUUAGAUCCGGGAAUGGAAAUAACUCGAAAGGGACUCUAAUGAGGCCGACAGGAUCAAACUGCAGUUCAAAAAAA'
p258
aF0.9661971830985916
aa(lp259
S"Cat's Toy 2"
p260
aS'AAAAGUUUAUUGCAACGGAAUUAAAAAAAAAAAAAAAAAUGGAUGGACGUGAAAACAAAGAAAAAUCGAAAAAAACGAAAAAACCCAGUGGGCAAAA'
p261
aF0.979381443298969
aa(lp262
S'Zigzag Semicircle'
p263
aS'AAAGAAUAGGCCGGAAAAAACUAUACUAUUAAAA'
p264
aF0.9411764705882353
aa(lp265
S'Short String 4'
p266
aS'AAAAAAGAAUUUGGAAUGGAGAGUUAGUAAUAACUGAGUAAAGUCAGUCAGAAAUGCAUGUGCAAUUUUUCGGAUUGAAAAAAAAAAAAAAAAAAAA'
p267
aF0.9175257731958762
aa(lp268
S'Gladius'
p269
aS'CGAAAGAAUAAAAGAAAGGUGUGAAGAAAGGCAGCCUAAGAUCAAAGGAUCGGAUAUAAGAGAGGUGAGAUCAAGGGAUCAAUAGAUAACACAGAUGGCAAAUGGAGAUCAGGUAGAGAUCAAAGAUCAUACAAGAUCCACAUUGACUAUCGAUGUUAUCAGAGGAUCAACGGAUCAACGGCAAGCGGUAUCUGGCAAAGGCACAAUCGUAAGACAGAGGAUCGUAACUUCGUAAGAUGAUCAGAUGCCAGGUACAGGUAGCAGGCGUAUAAUGAAAGUUAUAAAGCCGACUACACGUACACGGUAUACGAUCAUCGAAAGAGGGAAAGAUCACAGGUCGAAAGAUUGAGAAUGAAAGUUCAAAGCCAGCUAAACAACUCGACAAAGGAAAAAACGAAAG'
p270
aF0.9125
aa(lp271
S'Thunderbolt'
p272
aS'AGGCGCAAGAAAAAAAUAACGAAUAAAAAAAAGGAAACAUAUCAUACAAUUGCGGGCGAAAAAAUACGAAAAAUGUAAAAAAAACAAAUGUGCGAAAAAAAAUUGAAAAACGUGUAGGAUUGGAACAGGAAAACAUGGCAAAUAGUCAAAAAGAAAGAUAAAAUUCGGAAAAAGGGCAGAUCUAAGGAAAAAGGAUCGCUAAAGUGCUGCACAAAAACAAAGAUCAAAAAAAAGCCAAAAAACAAGCUUAGAGUUUGGUCUAUCAAAAAAAAAAAUCACGAAAAAAAAAAAAUGUAAAAGCAAUAUAAAAAGGAAAAAAACAAAAAAUAUUGAAUUGUAAAGUAUGAUAAAAAAAAAUGUAUACGGUUAAAAGAAAAAAACACUUGCUACUA'
p273
aF0.8928571428571429
aa(lp274
S'Mutated chicken feet'
p275
aS'AAAAAAGAUGCCACCAAGGGGCCUUAGCAAAGGUGACCAGCUGCAAGACUUAAAAUACAGGUGCGGAAGUAUAAAGUGGUAAGGUGAAGAACUAAAAAAA'
p276
aF0.76
aa(lp277
S'Chicken Tracks'
p278
aS'AAAAAAAGUAUAUAGUAUCAAAGGAUGAUCCAUGAAAGUGGUAGAGCGAAAGUUCCUAUAUGAUGCUCGGGAAAGAUGACCUUAAAGAAAGCAGGUGGAACACCAGCUAAUAAAAA'
p279
aF0.9655172413793104
aa(lp280
S'Looking Back Again'
p281
aS'GGCUAGUCCUAGAAAAAGUUCGUAAAAUGAGCGCUAGAAGGCGGAAAGGCAAAGCCUCCAGGUACAAAGAUCGAAAGAUCAAAAGUAUCGAGCUUAGGCAACAUCGGGUAAAAGAAUCGAAAGAUUCAAAAAUUCCUGGAGCAUGCAAAGCAUGCAUGCAAGUCGCGCCGUACCCGAAUUCCAGGUCAAGUUGAAGAAAGCAUCUUAGGUACGUUUAGGCUCGAAAGAGAAGUACGGAAAUUCUAGAUGAGAGACAGAUGAAAAAGCGAUAAUAAAAAAAAGAUUAAAAAAAUUAUAGAAAUUGAUAUCUGGCAAAAAAGUGUUGAUGAAAGUUAGCAAGACCCAAAGGAUAUACGAAGUGUAAAGUCACGAAAGCCGGUCUCGAUGCC'
p282
aF0.8200514138817481
aa(lp283
S'Multilooping 6'
p284
aS'AGGGGACUGCAGUACUAAUACACGGUUUCGAAAGGAACGAGCUUGGUAUGAAAAUAUUGAAGUGAAAGGAUUCGGGUCCCAA'
p285
aF0.926829268292683
aa(lp286
S'Cesspool'
p287
aS'GAGGAGCAACACAAAUCGGCGCAGCCGAGGGUAACAAGUAGAUAAGUCUCAAUGAAUAGUUUAAAGAUACAAAAAGGAAACAACAUCAAUGUGAGGAAAGCAGCUCUUUCUAUAGAAACUAUGUAAAGAGAGAAGCACGACAGAUCAAAUCGAAAGUUUAAAAAAAAAAUACCAAGAAUGUGAGGGAAAACAAUGCGCCAGAUAUAAAGUAAUCAAGUUGUAGAGUGCGAAAGUUCAUUUGGAAACUUGAAAAAGAAAACAAUAUUAAAGAGUUAGGCAAACGCGCCUUAGAAGGGAAACCUAAUAAUUGGGUAAGUUUGAAAAUUCAGACCCAAAGUUCAAAAAUAAAAGAUAUUUC'
p288
aF0.7039106145251397
aa(lp289
S'Hoglafractal'
p290
aS'AAGGAAGACACGCAAAAGGUAUAAAAAGGUAUCGCGUGCGACAAAGAUAAAAAAUAUCGUCGGAGAAGGUAAAGACCCAUAGGCAAAAAUCAAAGAUAAAAAAGUGUCAAUCCUGAAGCCGAAAAGCCCAGAGAGAGAAAUCCUAUUAGUAACGGCAAGGCGAAAAAGCCGCCACCGAAAAAAUCGGCUCUAAUGAGAUAUAGAAAACGGGGAUAAAAUUCAUCACAAAAAGAGUAGAAAUAAGGUAAUAAAAAACGCAAAAAAGCGCCAAAAAGGGAGCGAUAAUAAAAUUAUCGAAAAAAGAUUAUCGAAAAACUAUAAAAAUCUAGAAAAGCCAAAUCAACAAAUUCAAUAUCAAAAGAAAAAUCAAAAAAUAAAAUACUAUAUAUUGGGAUAGGAG'
p291
aF0.9275
aa(lp292
S'Bullseye'
p293
aS'AAACUCUGACAAACCAAAGUGGCGAAGCCGAAGCGAAAGUACCGAGAAAAAAAAAUUGUCUAAAAAAUAUGUUUAAGAAGCUAGUUAAAAUAUCGAGGAAAAAAAUUUUGUCGAAGGCAAAUAGCAAAGCUAAAUGGGGAAUUCAGAAAAAAAAAAUUGUUAUGAAGUAGAUGAUCGAAGAUCUAGAUGAAGCAUCCAAGAA'
p294
aF0.8415841584158416
aa(lp295
S'Shooting Star'
p296
aS'AUGGAUGAUCCUGACACGAAGAGAUGUGCUGAGGCAUAGAAAUACGCACUAGAGACUGCUAAGUGUUAGAGCUACGCGAAAUGGACCAAGACACAGGGAAGUCAGUGAAAGACGACAUCCCGAUGUACUGGGCACUGUCUAGUGAAAGAGCAACGGGCCACACAAAGUGCCACGUAUAAAGAGCGGUGCAAUCUCAGCCAAGAUCAGAGCGCAAGAAUGAUCACCAAAGGUGAUCUUAUGCAAGGCGUGCUUGCUAACACAAAGUGUUAGACAAGUGAAGCUUGGAUCCAUUAACUAAUGGGACGAUUUCUGAGGUAGGCUAGUGAAAGUCAGCACGCCGCAUGUUAAGGACGCUGAAUUUCUA'
p297
aF0.7637362637362637
aa(lp298
S'Teslagon'
p299
aS'AAAAAAGUAAAAAAAGGACGAAAAAAUGAACGAAAAAAAAAAAAAAACUUAAUAAAUACUAAAAAAAAAAAAAAAGCAUCUAAAAAACGAGGAAAAAAGGUAAAAAAAAAAAAAAAGCAAAAAAACCAGUAAAAAAAGUUGGAAAAAAAAAAAAAAACCGAAUAAAAAGUAAAAAAAAAAAAAAACCUACAAAAAAAGCAGGAAAAAAAGGAAAAAAAAAAAAAAAACAAAAAAACCAGGAAAAAAAUUACUAAAAAAAAAAAAAAAGGUAAUAAAUUGGAAAAAAAAAAAAAAACCUAAAAAAAAAUCAGGAAAAAAAGAAAAAAAAAAAAAGGAAAAAAAAAAAAAAAACGCCAAAAAAACCGGCGAAAAAAGCAAAAAA'
p300
aF0.9109947643979057
aa.