(lp0
(lp1
S'Simple Hairpin'
p2
aS'GAUACAAAAAAGUAUC'
p3
aF1.0
aa(lp4
S'Arabidopsis Thaliana 6 RNA - Difficulty Level 0'
p5
aS'GAUAUACAAAUCACAAAAAAAAAAAGUGGUGUAUACAAGAUAUAUAUAUACAUAUACAAAGAUACAAAAAAGUAUCAGUAUAUAGUAUAUAUAUAUCAAGUAUACACAAGUAUAUC'
p6
aF1.0
aa(lp7
S'Prion Pseudoknot - Difficulty Level 0'
p8
aS'GAGAUCAGAUCAAAAGAUCGAUACUCAAAAAAAAAA'
p9
aF1.0
aa(lp10
S'Human Integrated Adenovirus - Difficulty Level 0'
p11
aS'GAUAGAUAUAUGUCGGAUAUCGAAAAAAAAAGGCUUGAUACCUGAAAAAGGAAGAUUAUAAGGCAUAAUAUAUCGAAAAAAAGAUGUAUUAUAAAAGUCGAUCUAAAAUCCCAGAAAAGUAUCUAAAUAUACAAAAAAAGUAUAUAAGUAAAAAAAAAAAAGAUAUCAGAUAAAAUUAUAUCAAAUAUCAAA'
p12
aF1.0
aa(lp13
S'The Gammaretrovirus Signal - Difficulty Level 0'
p14
aS'GAGAGGAGGUAUCAAAGGAUACUAACGCAAAAAAGAUCAAGACAGAUCGAUAGGAAACUGUCAAAUGAUCGUCGAUCAGGAUAUACGUAAUCGUAUAUCAA'
p15
aF1.0
aa(lp16
S'Saccharomyces Cerevisiae - Difficulty Level 0'
p17
aS'ACAGACGGGAGGAAAAAAACUCCGACAACAACAUGGGACAAGUAAAACAUUCAAAAAAAGGGUGCGACAGGAAAUGUGAGAUCUGAAAAAAAAAAAUUUCUGUGAAAAAAAAAAGAGCGAAAAAUUGUGAAAAAAGUAGGGUCUCAUUAAGGACAUACAACAUCUAAAAAAUGGUGGUGAGAAAAAAAGUCUCGCAAAUCUCUCAAAAAAAGAGAGGUAUGUCAAAGGAUUUCCAAGAUGUAAAAAAUCAUGGAGUGGUAAAAAUUCGCUCAAAACUUACAAAAAAGGUGAGAUAGGUAAAAGGAUAGUCAAGAUCUAAAAAAUGAUCGAUAUCAAAAAAGGAUAUCAAAUCUAUCGAAAAAAGAUAGGACUAUCAAAA'
p18
aF0.9736147757255936
aa(lp19
S'Fractal 2'
p20
aS'AAAAAGUGUGAUCGAAGAUAUUUAUAAAGAACAAAAAAAAAGGUUCAAGUUCGAAAAAAAAAGAAUAAGAUCAAAAAAAAAGGGUCGAUGUAGGUAUCGAGCUGAUUUAGAGGGCGCAAAAAAAAAAGCGUACGGUCAAAAAAAAAGGAUCAAGAACGAAAAAAAAAGUUCAAUCUAAGUCGGAAAAGUGGCUUCUAUGCACUAAAAAAAAUGUGCUGGUUCAAAAAAAAAAGAACAAAGUCGAAAAAAAAAGGCUAGGGGAGUUACUGAAGAUCGCGCAAAAA'
p21
aF1.0
aa(lp22
S'G-C Placement'
p23
aS'AGCCUAUGGUUA'
p24
aF1.0
aa(lp25
S'The Sun'
p26
aS'GCCAGAGAAACAAGGUUUAACUCGUCAAGGUGAGCGAUUCAAGGGAUAACGCUGCAAGCAUAGUGUUUCAAGGAAGAAGGCAUUAAACUAAGAGAUACGAAGUAUAACUGUAGGAACACAGGGAGGGAAGGUUUAACCCGUGGAUUACAGAAAUUUAAAGGAUAAAUCGUGUAGGAGAGUGCUUCUAUGGAGAACACCUCAAUCGCACAGAGUCAAAGGAUAACUGGUGGAACCCAAAGCUCCAAUGUGUAACUCGGG'
p27
aF0.8914728682170543
aa(lp28
S'Frog Foot'
p29
aS'AAAAAAAAAAAGCCGAAAGGCUACCUGAAAGGGUUAGCGAAGCUA'
p30
aF1.0
aa(lp31
S'InfoRNA test 16'
p32
aS'GAUAUCACAGAUUUCAAAAGAAAUACUAGAGAUAUC'
p33
aF1.0
aa(lp34
S'Mat - Martian 2'
p35
aS'GAAUAAAAAUUCAAAGAUACACAAGAUAUACAAAAAAAGUAUAUCGUGUAUCGAAGAUAUAUCUAAAAAGAUAUACAGAUAUACGAAAAAAGUAUAUCGUAUAUCAAGGAUAUACAUAGAUAAAAAAAAUAUCUAUAGUAUAUCAAAAAUGAUAUAUCAAGGUUAUACAGAUGAAAAAAAAAUUCAUCUAAGUAUAGCAAAGAUCGAAAGAUU'
p36
aF1.0
aa(lp37
S'square'
p38
aS'GAACUACCAUAUCAAUAGACAAUAGCAAGGUUAUUAAAAGUUUAUUAAAAGAUAUGAAACGUAGUUC'
p39
aF1.0
aa(lp40
S'Six legd turtle 2'
p41
aS'AAAAAUGUAACAAAAAUGAAAACAAAGGUAAAUGAAAGCAAAAGCAAAGGCAAAAGAAAAUUAAAGUAAAAGCAAUCAAAAAAAAAAAAAAAAAAAAA'
p42
aF0.9591836734693877
aa(lp43
S'Small and Easy 6'
p44
aS'UAGCCUAAAUGGAAGUGAAAAAAAAGUCUG'
p45
aF0.8666666666666667
aa(lp46
S'Fractile'
p47
aS'AAAAAAAAAAAAGCAAAAUGUCUUCAAAUUUAAAUCAUGUGAAAGAAAACUAAAGUAAGCUAAUGGGAAAAUGGCAAAGGCAAAAUAAAAAAAAAAAAAAAAAAA'
p48
aF0.9619047619047619
aa(lp49
S'Six legd Turtle'
p50
aS'AAAACUGAAAAAUAAAAAUAAAAACAAAAGAGAAAACAAAAUGGAAGAUGAAAUCAAAACUAAAAGGAAAAGUGAAAACGAAAAGAAAAAAAAAAAAAAAAAAAA'
p51
aF0.9619047619047619
aa(lp52
S'snoRNA SNORD64'
p53
aS'GAUAUCAAAAAGACAAAAGACAAAGAUACAAAAAAAAAAAAAGUAUCAAAAGUCAAGUCAAGAUAUC'
p54
aF1.0
aa(lp55
S'Chalk Outline'
p56
aS'AAAAAGAUCAGAGACAAAAGUACUCAGACAGACAAAAGUCGUCAGAUGCCAAAAGGACAUCAGCUACAAAAGUAUGCGAUCAGAAAAAAAAAAAAAAAAAAAAA'
p57
aF1.0
aa(lp58
S'InfoRNA bulge test 9'
p59
aS'GAUAUACAGAGAGAGAUAUACAAAAGUAUAUCCCCGUAUAUC'
p60
aF1.0
aa(lp61
S'Tilted Russian Cross'
p62
aS'AAAAUGAUUGCACAAAAUAUUGAGUAUUAGUAAUUUAAGGUUCAAAAGGAGUAGCUAAAAAUACCGUUCCAUGUAAUCAUCGGUCUAAAAAAAAAAAAAAAAAAA'
p63
aF0.9238095238095239
aa(lp64
S'This is ACTUALLY Small And Easy 6'
p65
aS'GAAAAAAAAAAAAAAAAAAAAAAAAAAAAAAAAAAAAAAAAAAAAAAAAAAAAAAAAAAAAAAAAAAAAAAAAAAAAAAAAAAAAAAAAAAAAAAAAAAAAAAAAAAAAAAAAAAAAAAAAAAAAAAAAAAAAAAAAAAAAAAAAAAAAAAAAAAAAAAAAAAAAAAAAAAAAAAAAAAAAAAAAAAAAAAAAAAAAAAAAAAAAAAAAAAAAAAAAAAAAAAAAAAAAAAAAAAAAAAAAAAAAAAAAAAAAAAAAAAAAAAAAAAAAAAAAAAAAAAAAAAAAAAAAAAAAAAAAAAAAAAAAAAAAAAAAAAAAAAAAAAAAAAAAAAAAAAAAAAAAAAAAAAAAAAAAAAAAAAAAAAAAAAAAAAAAAAAAAAAAAAAAAAAAAAAAAAAAAAA'
p66
aF1.0
aa(lp67
S'Shortie 4'
p68
aS'UCGAAAGAAGCGAAAGC'
p69
aF1.0
aa(lp70
S'Shape Test'
p71
aS'AAAAAGGAAUCAUGCUGGAAAAAAAGUUAGCUGGACCGCCUUAUGCAAAAAGCAUAUUUAUGAAAAUAAUGGCGUCACGAUUACGAAAAAAAAAAAAAAAAAAA'
p72
aF1.0
aa(lp73
S'The Minitsry'
p74
aS'GGCAAAAAGACUAAAUGAUAAAAAUACAAAAAUAGAAAAAAAACUAGGUGAAUCUGUCGGCC'
p75
aF1.0
aa(lp76
S'stickshift'
p77
aS'AAUAUGUCCCUAAAUGGAGACAUAAA'
p78
aF1.0
aa(lp79
S'U'
p80
aS'AAAAAGAUACAGAGAGCAGAGAUAUAUACAAAAGUAUAUAUCCGCCCGUAUCAAAAA'
p81
aF1.0
aa(lp82
S'Still Life (Sunflower In A Vase)'
p83
aS'AAAGAACUGGGAACAAAAAGUUUCACGAUACAAGCUAACUCGUUAUAAAACCUAGCUAACUAUAAAAUAGUCUCCGCGAAAAACCGGCUUGGUACAAAAAGAAUCUAAUAGAUAUAUAUAUCUAUAUAGGUUACUAAAAUGUAACAGCGAUGAAAAAAAAAAAGGAGUGAAAAAAAAAAAAAAAAAAAAAAAAAAAAAAAAAAAAACCAGCUCAGAAAAAAAAAAAAUCGCCAAUCAAAAGAUUGACUAUAUAGAUAUAUAUAUUUAUUGAGAUGUAAAAAAUAUCAUGAGUCAAAAAGAUUCUAGUCAGGAAAAUUGACAAUAUACAAAAAGUAUAAGAAUGUAAAAGCAUUAAGGAUCAAAAAGGUUCUGUUCAAA'
p84
aF0.955026455026455
aa(lp85
S'Quasispecies 2-2 Loop Challenge'
p86
aS'AAAAGGAUAGCGGAGUGUCGAAAGAUGAACUGCAGCGCAACUAUGGGGCGCAAAACAAGUAGACAAAAAGUCGUCGAGUUUUAUCAAAAAAAAAAAAAAAAAAAA'
p87
aF1.0
aa(lp88
S'Corner bulge training'
p89
aS'AGAUAUCGAUACAAAGUAUCAAAAGAUAUCA'
p90
aF1.0
aa(lp91
S'Spiral'
p92
aS'AAAAAGAUCAGAUAUCAGACAGAUACAGAUCAGAUCAGCAGCAGCAGCAGCAGCAAAAAGCGCGCGCGCGCGAUCGAUCGUAUCGUCGAUAUCGAUCAAAAA'
p93
aF1.0
aa(lp94
S'InfoRNA bulge test'
p95
aS'AAAAAAAAAAAAAAAAAAAAAAAAAAAAGGCCCUAAAAAACGCAAAAGCACAAACGGGAAGGGCAGCGCAAAAAGUAGCGGCACCGACCAUGGAGGUAGCAAAAGGCAGUGAAAAUGGAGCG'
p96
aF1.0
aa(lp97
S'Worm 1'
p98
aS'AAAAAAAGAAAGAGUGGGUUGUCAAAAAUAACUACGCUAGCGUCC'
p99
aF0.9555555555555556
aa(lp100
S'just down to 1 bulge'
p101
aS'AAAAAGCCGGGAUACUAAUGUAUCAGACAAAAGUCAUGAGCAAAAGAUCAGACAAAAGUCGGAUAAACGUCAGAUCAAAAAAAAAAAAAAAAAAAA'
p102
aF1.0
aa(lp103
S'Iron Cross'
p104
aS'GGAUAGUUAAAGCCAGUCAAAGAGUGGCAAAAGCCUGGGAAAGAAGAUCAAAAGAUACUUAAAAGAAUUUAAUGAAAUGCGAAAGUAGGACCAAGUCACUCAAAUGUAAACAAAUUUGGUUAA'
p105
aF0.943089430894309
aa(lp106
S'loops and stems'
p107
aS'AAAAAGAUAUACAAAGAUCAAAGAUCAAAGAUCAAAAAAAAAGAUACAAAAAAAAAAAAGUAUCAAAGAUCAAAAGAACAAAAAAAAAAGUUCAAAGAUCAAAGACAAAAAAAAGUCAAAGAUCAAGCAAAAAAGCAAAGUAUAUCAAAAA'
p108
aF1.0
aa(lp109
S'Water Strider'
p110
aS'AAAAUGUAUCUUUCACCAGGUAAAAAGCAUCAAAAGGUCGGAAAAAGUCGACUAAUGCCAGUUAAAGUCAGGAGGUUGUAACUAAAAAAAAAAAAAAAAAAAA'
p111
aF0.941747572815534
aa(lp112
S'The Turtle(s) Move(s)'
p113
aS'AAAGCAAAAGCAAAAGUAAAUUUCAAAAAAAAAGAAAUUUACGAAUAUGCAAAAGGAAUUCAGUCACAAAAGUGAAAGAUACAAAAAAAGUAUCAAAAGCCAAAGCAAAAGGACAGCGCCAAAAGCAAAAAGCUAUCAAAAAAGGAUAGCGAAUCAGAAAAUUGUAAAGGAUGUCAAAAUACGAAAAAAGUGAAUACAAAAAAAAGUGAAAGAUCCUAAAAUGGAUCAAAGAUCAAAAAGAUCAGGACAUCAAAAAAAAUGCAAAGGGUCAAACGUAAUCGAAAAAUGGCCGAAAAAAAAAACGGUCUAAAAAGGU'
p114
aF0.9620253164556962
aa(lp115
S'Adenine'
p116
aS'GAUACAGAUAUCAGAUAUAAGAUAUCAGAUAUAAAAUAUCAAAAGAUAUCAAAAAAGAUAUCAGAUAUUAGAUACAAAGUUAUACAAAGUAUAACGUAUCAUAUAUCAGAUACAUGUAUCAAAGAUACAUAAAGUAUCAGAUAUCAAAAUAUAUCAAAAGAUAUCAAAAGUAUC'
p117
aF1.0
aa(lp118
S'Tripod5'
p119
aS'AUCCUGCACCUAACUGGUGGUUCGAAAAGGACCAGGUA'
p120
aF1.0
aa(lp121
S'Shortie 6'
p122
aS'GCAAAAGCAGCAAAGGCAGCGAAAGCAGCGAAAGC'
p123
aF1.0
aa(lp124
S'Runner'
p125
aS'AAAAAGAUCAGAUCAAAAAGAUGAAGCAUCAGAUCGAAGAAAAGAGAGCAAAGCUACCCUCGGACUAAAAUAGAAAUCCAUUCAAAGACGAAUACAAAAGUAAGUCAGAUCAAAAA'
p126
aF1.0
aa(lp127
S'Recoil'
p128
aS'AAAAAGAUACAAGCAAGCAAGACAAGACAAGCAAGCAAAGCAGCAGUCAGUCAGCAGCAGUAUCAAAAAAAAAAAAAAAAAAAAA'
p129
aF1.0
aa(lp130
S'[CloudBeta] An Arm and a Leg 1.0'
p131
aS'AAAAAGACAGAGACAAAAGUACUCGACAGCAAAAGCGUCAGUCAAAAAAAAAAAAAAAAAAAA'
p132
aF1.0
aa(lp133
S'[CloudBeta] 5 Adjacent Stack Multi-Branch Loop'
p134
aS'AUGGGCGGUGAAAACCGACUUCGAAAGGAGUGGCCCGAAAGGGCCGUCCGAAAGGGCCCCAUA'
p135
aF1.0
aa(lp136
S'Triple Y'
p137
aS'AAAGGAUUAGGGCGACCUAAUGGUCGGUUGAAUGAAUGUCAGCUCGCCUGAAAGGGCUGCUUAAUAACCGUUCUGUAAAAACAAAAAAAAAAAAAAA'
p138
aF0.9175257731958762
aa(lp139
S'Misfolded Aptamer'
p140
aS'GAUGGAAAAACUUGGAACUCAACAAAAGCGGAGAGAGAAGAAAAAACAUC'
p141
aF0.92
aa(lp142
S'Flower power'
p143
aS'AAAACGCUCCCUUUAUAACCAGUGCUUUUAAACAAGAGGUUAUAUUAACAAGAUCAAAUAUCGCAUGACGCUAAUUGCGAGCUAAAAAAAAAAAAAAAAAAA'
p144
aF0.9215686274509803
aa(lp145
S'Kudzu'
p146
aS'AAAAAGUCGGAACGGACAGAGGAUAGGAAGCCGAACCUACAAGCGUGUGGACAUGAAGGGAAGCCCGAAGUCAGAGCAGACGAAAAAAAAAAAAAAAAAAA'
p147
aF0.9801980198019802
aa(lp148
S'"1,2,3and4bulges"'
p149
aS'AAAAAGCGGAGACUCGAAAGAAAAAGUCAGACAAAAGUCACCAGCAAAAGCGCAGGCGAAAGAAACCAGGCAAAAGUCAGCAAGCAAAAAAAAAAAAAAAAAAAA'
p150
aF1.0
aa(lp151
S'medallion'
p152
aS'GAUAUGAAUUUGCAAAAGCAAAUAAUCAAAAGAUGUUGAAAACAGAAUUUGCGAAAGCAAAUAAUCAAAAGAUAAUAUAAAAAAUUAUAUGGUCAAAAGACAAUCAAAAGUUAAGAUGUAAAAGCAUCUAAUUAAAAAAUAAUAUUCAAAAGGUAAUAAUCAAAAGAUAAUCAAAAGCUAAUAGAUUAAUAUUUAUAAACAAAAGAUAGUAUAUUAAUGUAUACGGGCAAAAGUCAAUCAAAAGAUAGUAUACAAAAGUAUGCGAUCAAAAGAUAUUCUGCAAAAGUAUAGUGUCAAAGGAUUAUCAAAGGAUAAUGUCCAAAAGGAAAUACAUAUC'
p153
aF0.8041543026706232
aa(lp154
S'[RNA] Repetitious Sequences 8/10'
p155
aS'AGCAAAAAAGCAAAAAAGCAAAAAAGCAAAAAAGCAAAAAAGCAAAAAAGAAAAAAAUCAAAAAAGCAAAAAAGCAAAAA'
p156
aF1.0
aa(lp157
S'Documenting repetitious behavior'
p158
aS'AAAAAAAUCAAAAAAAAAGCAAAAAAAAACCAAAAAAAAAGUAAAAAAAAAUUGAAAAAAAAUCAUAAAAAAACUAAAAAAAAAACGAAAAAAAAGGAAAAAAAAAGCAAAAAAAAAGCAAAAAAAAAUGAAAAAAAAGUUAAAAAAAAAUGAAAAAAAAAUCUAAAAAAAAUGAAAAAAAAAUGAAAAAAAAUAAAAAAAAAAAUUAAAAAAAAAUAAAAAAAAAAUAAAAAAAAAUGAAAAAAAAAAUAAAAAAAAAAGAAAAAAAAAAUAAAAAAAAAAGUAAAAAAAAGAAUAAAAAAAAUCAAAAAAAAAGUAAAAAAAAAAGAAAAAAAAAGCAAAAAAAAAGGAAAAAAAAACCAAAAAAAAAGCAAAAAAAAAGUAAAAAAAAAGAAAAAAA'
p159
aF0.895
aa(lp160
S'7 multiloop'
p161
aS'CGGUGUUAAGAAAUUAACGUUUGGAAACAAACCUCUCGAAAGAGAGCGGGCGAAAGUCCGUAAGGGAAACUUUAUCUGUGAAAACAGAACCG'
p162
aF1.0
aa(lp163
S'Kyurem 7'
p164
aS'AAAAACCUUUCCUUGAAAGCUAUAAAAAAUAUUGUACAAAAACUAAGACUGCUAAAAUGCACAAGUCGAUGGUAGGAUGAGGGAAAAAAAAAAAAAAAAAAA'
p165
aF0.9215686274509803
aa(lp166
S'JF1'
p167
aS'GAUAGACAUACAGAUACAAGAUACAAAAGAUAUCAAGAUACAAAGAAUCAAGAUAUCAGAUAUAUAUAUAUCAAAAGAUAUAUAUAUAUCAAGACAAAAGUCAGAUAUAUACAAAAGUAUAUAUCAAGAUACAAAAGUAUCAGAUAUCAGAUUCAGUAUCAGAUAUCAAAGAUACAUCAAAAAGAUAGUAUCAAGAUAUAUAUAAAUAUAUAUAUAUCAAAAGAUAUAUAUAUAUUAUAUAUAUAUCAAAGAUACAAAAAAGUAUCGAUAUAUAUCAAAAGAUAUAUAUCAAAGAUCAAAAGAUCAAGUAUCAAGUAUCGGAUCAGACAGACAAAAGUCGUCGAUCAGAUGUAUACAAAAGUAUGUCAUCAGUAUAGUUAUAUCAAA'
p168
aF1.0
aa(lp169
S'multilooping fun'
p170
aS'CGGGAACAGGAAAUGCUAAUGAGACUAGAAAAUGCG'
p171
aF0.8055555555555556
aa(lp172
S'Multiloop...'
p173
aS'GGUCAGGUGUAUCUAAUGAUUGACGAAAGUCUUCCUAAUAGAAUAUAAAGGUAACUCAAACGAGAGAUUAAUAUUUCAUCACAUGCGAAAAAGUAUGGUCUAAAGGCGACC'
p174
aF0.9459459459459459
aa(lp175
S'hard Y'
p176
aS'AAAAUGAUCACUGAUUAAUCUAAUGAUUGGUACCUCUUAUUUAGCGAAAGUUAGAUAAGGAUUUAAAA'
p177
aF0.9705882352941176
aa(lp178
S'Mat - Elements & Sections'
p179
aS'AAAAAGAUGACGAUAAGAAGAGAGUUCAGGAGGGCAGGAGCGUAAUCGCGUACGCUCCACGAACAAAACACUUCGCGAACACAUCAAAAAAAAAAAAAAAAAAAA'
p180
aF0.9619047619047619
aa(lp181
S'Chicken feet'
p182
aS'AAAAAGCAUCUCAAAGGAUGCAAAGUAAACCGUAAAAGCAGCAAAGGGAGAAAGAAAAGCUUAAAAA'
p183
aF0.8507462686567164
aa(lp184
S'Bug 18'
p185
aS'GGCAUCGUGUGAAUGCAAAGACCAAAGGAGCUGGCGUAAUCGAGGGGAAGGCA'
p186
aF0.9622641509433962
aa(lp187
S'Fractal star x5'
p188
aS'AAAAAGAUAUUUAAAAACCUAAUGGUUGUGACAAAAAUGUCUCGAUUGAAAAAUCAAGGAAAAAAUUCCACUGGAUGUCGAAACGUUAUUGCAAAAGCAAAGGCUUCGCUUGGAAACGGGAGGCUCUAACGAGUAAGCUAGAAAUAGCAGGUAAUAGCAAAAGGCUAUGGCAAUUGGGAAACCGAAAUAUGAAAACAUAAAGUUGAAAACAGCGAAAAAGAAAUUUUAAGUCAUAGCAAAAAGGUGUAUUAAUGGCAAAGGCUAAACAGAUCAUUCUGGAUGUCAAAGGACAAAUAUGGAAACAUAGGAAUAUACCAAAAAGAGAAAUCAAGAAUAAAAAUUCGUGGGGAAAACUCCUAGCACGAAAGUGCAACGUUAAAGGACGCGGGUUUCUCAAAAA'
p189
aF1.0
aa(lp190
S'Crop circle 2'
p191
aS'GCAAAAUAAAUUCAAAAAUCGAAAAAAAGACAAAAAAAAAAAAAAAAAAAAAAAAAAAAAGGUAAAAAAAAAAAAAAAGGAAAAAAAAGGGUAAAAAGAGGAAAGUAAAA'
p192
aF0.9636363636363636
aa(lp193
S'Branching Loop'
p194
aS'AUUUUAGAAAAAAAUGGGGGACAUUGUAAACAAGAAAAAA'
p195
aF0.95
aa(lp196
S'Bug 38'
p197
aS'GGGGCUCAAAAAAGGAAAGAAGGUUAGACAAAAUCA'
p198
aF0.9444444444444444
aa(lp199
S'Simple Single Bond'
p200
aS'AAAAAAGAAAAAAAAUGCCGUAAAUUGGUUAAAAAAAGCAAAAAAAAAAAAAAAAAAAAAA'
p201
aF1.0
aa(lp202
S'Taraxacum officinale'
p203
aS'CCGCGAAAGAGAUUGAACGAAAGAUUCGGAGUAAAGGAUUCAUAGCGAAAGACUGAGUGCAAAGUACACGGAGCGAAAGACCCAAAUCAAUAUACGAUUGGCAUACGAAGUAUAGCCAAUCGGAUACAAAUAGAAAUAGAAUAUGUGCAAGGUACAUAGUUAUUUUUAUGAUCAGAUAUGAAACAUAUCGAUCGUAUCAAAGUAUAUUGAUUGGCGCGAAAGACUAGCCGCAAAAGCCGGAUAACUAAUUUCUCAAAGAUAAUAACUUACGGUGAAAAUCCG'
p204
aF0.9184397163120568
aa(lp205
S'Headless Bug on Windshield'
p206
aS'AGCGUCAAAAUAGGCCAAUGCGGUGAAAAAAAAAAAAAAAAAAAAAAAAACACAGCUAAGACAAUUACUCAGCAGCUUAGACAAACAAAAAAACCAAAAGGGAAAGAGAUGUCAAAAAUGCCAGGGACAAAAAAAGGCAAGGAAGUUAAACGGACGGGGGGGGGGGGGAUGUUAGGUAAAUCAGUCGGCCAAGAAACCCA'
p207
aF0.99
aa(lp208
S'Pokeball'
p209
aS'AAAGGUCUACAAAAGCGCAGAAGGUAAGAGAGCAAUAAACGAUGAAAAUAAAAUAGCUACCAUAAGUAAGCAGUAGCCAGCGUAGAUCAGAAAAAAGCGAUUCAAAAGCAUAGAGGACUAGGAACGGAGGAGGGGAGCAAAGGAAUUAGCAACCACCAUGAGCCUGUCACUUGCGGAUCGCAAA'
p210
aF0.9782608695652174
aa(lp211
S'Variation of a crop circle'
p212
aS'AAAAGUUAAAUCGAAAUGAAAAGAAGAGAACGAAACGGGCUAAAAUCAAAAAAUGAAAAAAAGAAAAAAAAAUGAGAAAAAAAAAAAA'
p213
aF0.9545454545454546
aa(lp214
S'Loop next to a Multiloop'
p215
aS'AAGAUACAACAAAAGAAUGGCUCUCAAAAGAGAGCAGAUAGCGUAAUUGUUGUCAGGAAAAAAGUUGUAUCAA'
p216
aF0.9726027397260274
aa(lp217
S'Snowflake 4'
p218
aS'CAUCUAUGAUGCCAUGUGAAAGCCGUCACGGGAUUUGCAAAUGCUUUAGUGUCAAAGAUCAAGCACGAAGUGCCUAAACCGAAAGCGAGUCAAGAAAGGCGAAAGAGGUACUAUCAAGGAUAAAGAGCAAAGCUCGUACCGAAAAUGAUUCUCAUGGUAGGCAAAGACGAUGGGAUGAAUUAUAAAUACCAAACUUACCAUUGGAAAGUCGUACCUACAUGCGCAAAGGCAAUCUCGAUAAAGUCUAGGACAUAUGGUUGCAUGACAAAACUGCAUGAGGAAACGGAAAGUCGAUCUGGACAAGGUCCAAGUGGAAAGUGCAAAUUGGAAAGCCGUUUCAAGUAAGGGAAAAUCCAUGUGACCAAGCGUC'
p219
aF0.8486486486486486
aa(lp220
S'Mat - Cuboid'
p221
aS'GAAGGAAAAGCAAACAAAAGAGAGCAAAAGAAUGAAGCAAAAGGAAGCAAGCAAAAGACGUAAGCGAACAAAAUCUAGCAAGCAAUCAAAAGUAAGCAGGAAAUCAAGCAAAAGGAAGCAACUGAGCAACCAAAAUCAAGAAAGCAAGUAAGCAAAUAAAAGGAAGCAAACAAGCAAGCAAACAAAAGCAAGCAACCAAGCGAGGAAGGAAAAAAUUAACUAAGCAAGGGAGAAAGCGCAAGCAAGAAGGCAGGCAAGAGCAACCAAACAAGCAAGAAAGGGCAAGCAAGCAACCAACAGUAGGGAAGCAAGCAAGUGCAAGCAAGCAUGCGCAAGCAAGCAACGCAAGCAAGUGCAACGAAUGCAAUAGCAACCUCAAC'
p222
aF0.8578947368421053
aa(lp223
S'Misfolded Aptamer 6'
p224
aS'AAAAAACUCAAAAAGGCCUAGCGCAAAGCAAAAAAAAGCUGAAAGAAAACGGGCAAAAAAAGAGAAAAAAAAAAA'
p225
aF1.0
aa(lp226
S'Snowflake 3'
p227
aS'GAAGCGAAAGCAGACAUCAAAAGACAAGAGCAGUUCAAGACAAAAGUCGGCAACAAAAGUAUCAAAGACAGAAAAGUAGUCGUCAAAAGGCAAGAGCGGAUUAAGAUAAAAACCGAAAACAAAAGUUUAGAAUGUACAAAAGUAGGCAGCGAAAGUAAGAAUCAGAUCUAGACAAAAGUCCACAAAUAAUUUAUCAAAGAUUCUAAUGAGGUGCACAAAAGUGAUGAUCGGAUGAACACAAAAGUGGACAAGAAAAGUAGCAAGGUUAUGAAAGUAAUCGUCAAAAGUCAAUAUCAAAUCGAUACAAAAGUAAACAGCAAAAGUGUUAAAAAUACAAAAGUAGUUUACGAAAGUGAAGAUUAGUUCGAGUCAAAAGGCUUCAACAAAAGUUUC'
p228
aF0.8040712468193384
aa(lp229
S'Hard Y and a bit more'
p230
aS'AAAAAGAUACACAUAUCCAAAAGGAUCAGUGCAACGGCAUGAGCUAAUGCUCUAAAUACAAAAAAGUAUUAAGCAGUUGCGUAUCAAAAAAAAAAAAAAAAAAAAA'
p231
aF0.9716981132075472
aa(lp232
S'Mat - Lot 2-2 B'
p233
aS'GAGAGCAAGCGUAGACAAAAGCAAGCUCAAAAGAAAAAGCGGGCUUAAAAAAAAGAAAGCUCAAUCAAAAAAGCACAGGAAAAAGCGAGCGAAUCAAAAACCGAAAGCGAUGUUAAAAGGAAGCGCAAGCGUGAACAACCAAAAGAAAAGGGCUAAGCAAAAGCAAGCAUGAAAAUAAAAGCGAGCGCAAGGAAAAUCAAUUGUAAGCAAGCAAUGGUGAGCAAAAACUGGACCAAGCAAAAGCAAAACCGCAAGGAAAAUCAUGUGUGAGCGAGAGAAAUAAC'
p234
aF0.7570422535211268
aa(lp235
S'Shapes and Energy'
p236
aS'AAAAAAGAGAUCAGAUCAAAAGGAGAAUCACGAAAGAGAUUAAACGAUCGGGGCAAAAUAUACAAAAGUAUCCAGAUCGCAAAAAAAAAAAAAAAAAAAAA'
p237
aF1.0
aa(lp238
S"Spiral of 5's"
p239
aS'UAAAAGAUACAAAGAUAGAAAGAUACAAAAGAUACAAUGAUAGUAAGAUAGAAGAUACAAAAGAUGCAAAGAUAGAAAGAUAGAAGAUACAAAGAUAGAAAGAUAGAAGAUACAAAGAUAGAAGAUACAAGAUACAAGAUACAAGAUACAGAUUCAGAUACAUGUCAAAAAGACAUAAAAAGUAUCAAAAGGAAUCAAAAAGUGUCAAAAAGUAUCAAAAAGUAUCAAAAAGUAUCAAAAACUAUCAAAAAGUAUCAAAAACUAUCAAAAACUAUCAAAAAGUAUCAAAAACUAUCAAAAACUGUCAAAAGGUAUCGAAAAGUAUCAAAAACUAUCAAAAUCUAUCUAAAAGUAUUAAAAAGUAUCAAAAACUAUCAAAAAGUAUCAAAAAAAAAAA'
p240
aF0.9949622166246851
aa(lp241
S'Campfire'
p242
aS'AAAAACCGGCCGGUCGAGAGCAAGAUCUAAAGGAUCGGGUACAAGGUACUCCGCUUGGAAUUAACUGCAGAGCCAAAGGGACUCCCGUCUGACGAAACUAGCGAAAGUGGUCGAGCAAAUAAAGAUGGGACUCUAGUACAGAAACUCCCACUGAAAUGACAGUAUGAUCUAAUGAUUGACGUUGAGUCAUAUACUAAAGGCUUUUCCUUAGU'
p243
aF0.9009433962264151
aa(lp244
S'Anemone'
p245
aS'AAAGAGGUGGAAACAUUUCGAAUCAAAGGAUUCAACAAGAAAUUUUUAAGUUCCUAAUAUCACGAUAACAAAAGUUAUCUCUAGGAAACAAUGUGUAGGAAACUACAGAUGGCAAAGGGCGUCAACGACAAAGGCUAUCGCAUUCAAGAUUGCGCGUACAAAUGUACGCAUUUCAAAGGAGACGAAACAGAAAGGACCGAUAUCAAAGGAUAUC'
p246
aF0.9065420560747663
aa(lp247
S'Fractal 3'
p248
aS'AAAAGGAUAAUGGAACAAAGGCGGAAAGGCACCCGACCAACAAAAGUGCGAAAGCAUGUACACAGAAAAAGCGUAAAAACGGUCUUACAGCAAAAGCCGAAAACGUGUUAUUUUAAAAA'
p249
aF0.9327731092436975
aa(lp250
S'Kyurem 5'
p251
aS'AAAAUUAUGACCUGCGAAAGCCGAAAAAAAGUCGAUCAAAAGUGAAAAACUGAUCGAUAAAAAGAUCUCCCGGUUGGUAACAUAUAAAAAAAAAAAAAAAAAAA'
p252
aF0.9230769230769231
aa(lp253
S'Snowflake Necklace ( or v2.0 )'
p254
aS'UAUAGGUAUAUAUACAGAUCUAGCAAAAAGCAGUAAAAAACAGCAAAAAGCAGCGAAAAGCAGGGAAAACCAGGAUCAGACAAAAAGUCAUAUACGCCAAAAGGCAGCAAAAAGCAUCUAAAUGAACCAAAAAGGACCAAAAAGGAGAAUAAGACAAAAAGUCAUAUACAGCAAAAAACUUCAAAAAGAUAGAAAAAUUAUUUAAAUAAAACAAAAAGUAGUAUUUUACAAAAAGUAUCAUAUUGAAAAAAGCUGCUAAAUGCAUCGAAAAGAGAUAAAAAAUCUCAAAAAGCGAUAUAAGGCAAAAAGUCAUAUAGAGCAAAAGCGAUCAAAAAGGAACAAAAAAUAGCAAAAAGGGUCAAAAACAAUUAUAAGUAUAUAUACUUAUG'
p255
aF0.8329048843187661
aa(lp256
S'Methaqualone C16H14N2O Structural Representation'
p257
aS'AGGGGAAGAUCAAAUCAGCGAGCUAAAAAGUGAACAGACAAAAGUCACACAGACAAAAGUCACACAGACAAAAGUCAGACAAAAAAAGUCGGUCAGUUAGUCAUUAAGAAAUAGAUUAGUACAAAGCAAGGAAAGCUAAGCAAAAAAAACAUAGACAGAUAAAAAUCUACAAAAGUAUACAAAAGUAGUCAGCAAACGUUAGAAACAGACAGAAAGAUUCACAGAUAAAAGCCGAAAGGCAGUAAGACAAAAGUCAGUGUGACAAAACUCAGGCAGUGUAAUGUCGUUCAAACGACAAAAGUCAUCAAAAGAAACACAAAAGUGGUUAGUCAAAUGAAAGUACAGAUCGGGGAGA'
p258
aF0.8901408450704226
aa(lp259
S"Cat's Toy 2"
p260
aS'AAAAGGCUGGUGAAAUGCAUUAAAAAAAAAAAAAAAAAAUAUAGUAAAGAAAAGUUAAAACGAAAGUAAAAAAAAAGGAAAAAGCUACUAGUCGAAA'
p261
aF0.979381443298969
aa(lp262
S'Zigzag Semicircle'
p263
aS'AAAGAGAAGGGAAUAAAAGUACAUCCUUUAAAAA'
p264
aF0.9411764705882353
aa(lp265
S'Short String 4'
p266
aS'AAAAAAUCAAUAAAUAAUAAAUACGAUGGAAAGGGCAAGGACGAACAAUCUAAUGGGAGUAAUUAAAGGUAAAGGGAAAAAAAAAAAAAAAAAAAAA'
p267
aF0.9381443298969072
aa(lp268
S'Gladius'
p269
aS'GGAAACAAAAUCAAAAACAAGUUAAGAAACACAGACAAAGAUCAAAAGAUCAGAUACAAAAGACAAAAGAUCAAGUCAUCAAUAGAUAUACGAGUUACCAGAUACAGAUGAAAUCAAGUACAAAGUAUGGAUAUCAUCGAUAUCAAGUAACUAGUAUAUCAGAAGAUGUGCAGAUCAAGAGUCAGGAGUAUCAGUCGAAGAACUAACCAAAAGACACAAGGUCAGAAGUCCAAAAGAUAUACAAAUUUCAGAUACAGAUAUGCGAGAGGAAUCAAAAGAUUUCGGCUCCAAUAUACGUAUACGAAAUACGUAUAUCAUAAGGACACAGGACCAGAAGUCAGGAGGUUGAGAACAAAAGUUCUAAGUCAGCGGAACGGACCAACAAAGGCAGUAAGAAAAC'
p270
aF0.9
aa(lp271
S'Thunderbolt'
p272
aS'CCAAGAUACAAAAAAAAGAGCAAGCGGGGAUAGUAAUCAGGUAUAUCAAAAAAAACAAAAAAAAGAUCAAAAAGAUCAAAAAAUGAAACGAACCAAAAAAAUUAGAAAAAACAUAAAGCAAGCAAAAAGGAAACAGGUCUAAAAGACAAAAAGAAGCAGAAAUAGCAACAAAAAGUCAGAUCAAAGAAAAAAAGAAGAGGGAACCACAAUAAAAAAACAAAGAUCAAAAAAAUGACCAGAGAGAUAUCAAAGAUAUCAGCAAGCAAAAAAAAAAUGGAAUGGAAAAAAAAGAAUCAAAAGCGACACAAAAAGGAAAAAAACAAAAAGUGUUGAAAAGUAAAGAUAUACCAAAAAAAAUAGCAAGCAUAAAAAGAAAAAAACAGUAUCAAGGA'
p273
aF0.9540816326530612
aa(lp274
S'Mutated chicken feet'
p275
aS'GAAAAAAGGCCCGGCUAUGUAGAUAUUCAAUGGCCAGUAGGUCCGAAAGUUCAAAGAGAACCGCAGAAUCAACAAGGUGGUAAAGCAAAGAGCAAAAAAA'
p276
aF0.88
aa(lp277
S'Chicken Tracks'
p278
aS'AAAAAAAAGAUAUAGAAUCGAAAGAUUGACAUCUAAUGAUGAAGAACUAAUGUUCCUAUAUCAAGAGUAGGGAACCUAAAGAUCAAAGAUCAAGAGCAAAGCUCCUCAAAAAAAAA'
p279
aF1.0
aa(lp280
S'Looking Back Again'
p281
aS'GAAACGAUGGGCGAAAGAAUAUCGAAGAUAUCAGAUGAAGCCGCGAACAGAAGCUGUCGAGAUGCGAAGAUCAAAAGAUCAAAAGUAUCGAGUGAAGACCGUAAGGACAAAAGCAUAGUAAUUUAUGAAAGAAGUUAAUUUUCUACAAAGUCGGACUACCAAGUAGUGACAGGAUUAGAAGAAGGAGAGGAAGAUAAAAAUAUCGACACAACCGACUAAGGCUAAUGUCACCUUAUCAAAGAAUCUAUAAGAUACAAAUGAAAAAAGAGCUACAAAAAAAAGUUCAAAAAGAACGAGUAAACUCAUAUUAGACGAAAAAGCUAUAGAAAAAUUUAUAAAGCGCGAAACGGUGUACGAAGUACAAAUGCGCAAAAGUUCGUAUCAAAUUC'
p282
aF0.8457583547557841
aa(lp283
S'Multilooping 6'
p284
aS'AGUUCAGUCAGGAGGAAAGCUUUUCGUGUUAAUAUACGUUUCAGUAUGAAAAGUCGAGGGAGUUAAUGCUCCUUCAUGAAAA'
p285
aF0.926829268292683
aa(lp286
S'Cesspool'
p287
aS'GAAGAAGAAAACAAAUAAAGAUAGACAAAGUCAGGAACAAUAUAACAAUAAAAGAAGAAAAGAAAACAAUACAGUCAAAAGAAUAACAAGAAGAAGAAAACAAGACGAGAGAGAAAAAUUCGGCAACAAUUCAAGAAAAAAAUAAAGCAAGAAAACAAGACAGUAAAAAUACUAACAUGCAUGAAGAAAGCAAGGGAAGAGUGACAAAGUCAUCAACAACCCGAGAAAAAAAUAAAAAAAGAAAACAAUACAGUCAAAAUACUUGGUUAUCAAGAAGGAAACAACAGAAGAUGGUCAAAGACGAAAACAACUGAAGAAAAAAAUAACAGAAGAAAACAACACAGAGAAAAUACUAAGA'
p288
aF0.7513966480446927
aa(lp289
S'Hoglafractal'
p290
aS'AAUAGGAACAUACAAAAGAUUAAAAAAAUGAUCGAGUGGUCAAAAAGAGAAAAACUCUUAGCGACGAGGCAAAAGUCGUCAGAGAAGACCCAAAUGUGUAAAAUUACGGGGGGAGAAGACAAAAAGGCGAUGCACUGAAAGGGCAGCUCAAAAGGCAAGACGAAAAAGUCGUCGCAGCAAAAGGCGCCAAAAAGGUGAGAUACGAAAAGCAGCAAAAAAGCGCUACAAAAAGUAAGAAAAGUAAAUAUCAAAAAAGCCGAAAGAGCUCCAGAAAGGAAAGAGAUCCAAAGGACUUCGAAAAAGGAUAUUGAAAAAGUAUCAAAAAGAGCAAAAUUUAAACCAAGAAAGAGCAUAUGAAAAGCUAAUGCACAAAAGAUAAUUCAAGGAGUUACCAUAGCAC'
p291
aF0.89
aa(lp292
S'Bullseye'
p293
aS'AAGGGUACUCAAAGAGUAUGAACAAUGUUCUAGGUGGAAAACCACCAAAAAAAAGCGUACCAAAGGUAAAGACUAAAAUUCGAGUUCAAAGCGCUGUGAAAAAAAGAUGAUAAAAUAUCAAGUAUAAGGUGCGAUAUGGAACAUAGUCAAAAAAAAUGCGAUCAAAGAUCAAGAUCUAUGAUUAAGGACAAGGAUCGUAAAA'
p294
aF0.8415841584158416
aa(lp295
S'Shooting Star'
p296
aS'AUAAACGGUCUAUGUACUAUGCGUUGCUUACCUUCACCAAAAGCGGAAAAUAUGACUUCCUUGUGCAUAAUUGGCUAGUGUUGCUGACAUAGCGAGAGACAUGAAUGAAAAAUUAUAGUCGUAGUUAGGUCUGACAACCGUGGGAAACAAUAGAGGUAUCAACAAGAUAUCAUUUACAUGCUAGCUAUAAAGGGCAUAUCACAGAACAUCAGUGCAAAGCCCGAUAAAAUCGUGUAUAUAGGAAUUGUAGCGCGAAGUUGUAUUAAUUUCAGGUGCAAGGAACUGAUACAUGAACGAAAGAAAGAAGAGAUGAAAAAGAUCAGCAAAAGGCGAUACUUCGCUCUAACGAAGACGUGAGUUUAUA'
p297
aF0.7884615384615384
aa(lp298
S'Teslagon'
p299
aS'AAAAAACGAAAAGAAGCUCCAAAAAAAGCAACGGGGGAGGGGGGGAAGGAAACAGAUAAGGGGGGGGGGGGGGAACUGGGAAAAGAAACUGCAAAAAAAGCGGGGGGGGGGGGGAAGCAAAAGAAGCAUCAAAAAAAGUAGGGGGGGGGGGGGGGAACGAAACAGAGAUGGGGGGGGGGGGGGAACGAACAAAAGAAGGAGCAAAAAAAGCGGGGGGGGGGGGGAAGGGAAAGAAGUAGUAAAAAAAGCACCGGGGGGGGGGGGGAAGCAAACAGUUUGCGGGGGGGGGGGGGAACCAGCGAAAGAAACAGUAAAAAAGGGAAAAAAAAAAAAGUGGGGGGGGGGGGGAAGCGCCAAAAGAACCAGUAAAAAAUGGAAAAAA'
p300
aF0.8795811518324608
aa.