(lp0
(lp1
S'Simple Hairpin'
p2
aS'CAUACAAAAAAGUAUG'
p3
aF1.0
aa(lp4
S'Arabidopsis Thaliana 6 RNA - Difficulty Level 0'
p5
aS'CAGAUAGAAGUCACAAAAAAAAAAAGUGGCGGUGUGACUAUAUAUAUAUACAUAAAGAAAGAUACAAAAAAGUAUCACUUUAUAGUAUAUAUAUAUACCCACACCGCAAUUAUCUG'
p6
aF1.0
aa(lp7
S'Prion Pseudoknot - Difficulty Level 0'
p8
aS'GACAUCAGAUCAAAAGAUCGAUAGUCAAAAAAAAAA'
p9
aF1.0
aa(lp10
S'Human Integrated Adenovirus - Difficulty Level 0'
p11
aS'CAUAUAUAGGUGUCUGGCUGCGAAAAAAAAAGGUCCGCUUGGCCCUGGGGAUCGAGGAACAAGGGAUAUAGGAGAAAAAAAGCUUCUAUAUCAAAACACACCUAAAAAGUUGUACAAACACGGCAGGAGUUCUAAAAAUGAACCCGGACAAAAAAAAAAAAGCAGCCUGACAAAACCCUAUAAAAUAUGAAA'
p12
aF0.9895833333333334
aa(lp13
S'The Gammaretrovirus Signal - Difficulty Level 0'
p14
aS'AUGUCGGUAGGUCGAAAGAUCUGAAGUCUAAAAGGAUCCAGGCAGAUGGAUAAGAAAUUAUUAAAACAUCGCCGAUCAAGGGUUUUAAAAGUAGAACCCGA'
p15
aF1.0
aa(lp16
S'Saccharomyces Cerevisiae - Difficulty Level 0'
p17
aS'UGGGGCCGCUCUAAAAAAUGAGCAAUUAAAAAAAAAAAAAUGUGAGUUAUACAAAAAAAGUAUAGGCCCCAAAAGAGGGGCAAAGAGUUAAAAAAUGCUCGCCUAAAAAAAAAAAUGGCAAGUUUCACAAAAAAGGUGGAUGCUCUUAAAAGUGUGUCAAGAUCAAAAAAAGGAUCGGUUGCAAAAAAGGCAGCCAAGUCAGACAAAAAAGGUUUGGACGCACGAAUGCAGGUCAAGAUCUAAAAAAUGAUCGGUUGAGAAAAAAUCAACCAAGUGAUGCUAAAAAUGUAUCGACCUGCUAAAUGGUAUCAAGAUCGAAAAAAAGAUCGGGUGCUAAAAAUGCACCCAAGUCAUAGUAAAAAUCUAUGGAUACCGGAAA'
p18
aF0.9894459102902374
aa(lp19
S'Fractal 2'
p20
aS'AAAAAGGUGCGUUAAUGAGGUAUGAGUAGUAGAAAAAAAAAACUGCAAAUCCAAAAAAAAAGGGGUAUGAUCAAAAAAAAAAGAUCUUCUCAUAUCUCUAUGAUGUAUAGCAAGGUCAAAAAAAAAAGACUGAGCUCUAAAAAAAAUGAGCAGCCUAAAAAAAAAAAUAGGAGGCUAUGCAUCUAUGCUGGAUACUAGGUUCAAAAAAAAAAGAACAGGACGUAAAAAAAAUUGUCAAUCGAAAAAAAAAAGUCGGAAGGUGUCCAGCUAAGACGCACCAAAAA'
p21
aF1.0
aa(lp22
S'G-C Placement'
p23
aS'GAUCAAAGAUCU'
p24
aF1.0
aa(lp25
S'The Sun'
p26
aS'GCCAGGCACUCAAAGGGUAAGGCGUUAAGGAGAAGAUAGCAAAGCUGAAUCUCACAAAGACAGGUUACCGAAGGUAAAGGGGUGAAGUGCACUCGACCAAGGGUAAAGGGGUAAAAGACAGAUCCUCAAAGAGGAAAUCGUCAAAGAUAGGCUAACUAUGUUACAACCGUCAAAGUCAUGCAACCAAAGGUUAAGCAGACGAGGUCAUUAUUUGAAGUAAAUAGAGGACAAAGACAUAAUUCCAAAGUGAAAUCAGUC'
p27
aF0.9302325581395349
aa(lp28
S'Frog Foot'
p29
aS'AAAAAAAAAAGACGGAAACGUCGUUCGAAAGAGCGGUGAAACACC'
p30
aF1.0
aa(lp31
S'InfoRNA test 16'
p32
aS'CAUAUCGCACAUGUCAAAAGACAUAGUCGAGAUAUG'
p33
aF1.0
aa(lp34
S'Mat - Martian 2'
p35
aS'GAUCAAAAGAUCAAAGGGUGUCAAGGGUGUCGAAAAAAGACAUCCGACACUCAAAGGAUAUACAAAAAAGGGUGUCAGGGUGUCGAAAAAAGACAUCCGACACUCAAAGAUAUAGGAUUAUGAAAAAAACAUAAUCACUAUAUCAAAAAAGUAUAUCCAAAGAUAUAGGAUUAUGAAAAAAACAUAAUCAACUAUAUCAAAAGACAAAAGUCU'
p36
aF1.0
aa(lp37
S'square'
p38
aS'CAGAUACGAGAUCGAUAUACGAUAUCAAAGAUAUCAAAAGUAUAUCAAAAGAUCUCAAAAGUAUCUG'
p39
aF1.0
aa(lp40
S'Six legd turtle 2'
p41
aS'AAAAAGCUAGCCAAAAAUAACGGAAAACCAAAGGAAAACGAAAGCAAAAACAAGGAUACUCAAAACAAAAAUGUAUGCAAAAAAAAAAAAAAAAAAAA'
p42
aF0.9591836734693877
aa(lp43
S'Small and Easy 6'
p44
aS'GCGCUAAAAGACAAGAUAAAAAAAUUCCCC'
p45
aF0.9333333333333333
aa(lp46
S'Fractile'
p47
aS'AAAAAAAAAACGCGAAAAACAAGCUAAGUAAAAAUAAAUUAAAAAAAACUCGAAGGAAAUAAAAGCACGUGAAAUAAAGAAAAAAAAAAAAAAAAAAAAAAAAAA'
p48
aF0.9619047619047619
aa(lp49
S'Six legd Turtle'
p50
aS'AAAAUGUAAAACGUAAUCGAAAAGAAAAGUCGAAAGGAACACCGAAUGUAAAAACUAAUUGAAAACAUAAGGGGAAAUCAAAAACUAAAAAAAAAAAAAAAAAAA'
p51
aF0.9333333333333333
aa(lp52
S'snoRNA SNORD64'
p53
aS'CAUAUCAAAAAGACAAAAGACAAAGAUACAAAAAAAAAAAAAGUAUCGAAAGUCAAGUCAAGAUAUG'
p54
aF1.0
aa(lp55
S'Chalk Outline'
p56
aS'AAAAGGAGCAGACCCAAAAGGAGUCAAUCAGACAAAAGUCGAUGGGUGCCAAAAGGACGCCAGCUGCAAACGCACGCGCUCAAAAAAAAAAAAAAAAAAAAAAA'
p57
aF1.0
aa(lp58
S'InfoRNA bulge test 9'
p59
aS'CAGAUACAGAGAGAGGGUGUCAAAAGACACCCCCCGUAUCUG'
p60
aF1.0
aa(lp61
S'Tilted Russian Cross'
p62
aS'AAAAUCAGAGUGUGAAAGCAUGAGCAACGCGAAAGUGUGGUACAAAGGUAUCAGAUGAAAACAUCGCUCCACCGAAAGGUGUCUGUCAAAAAAAAAAAAAAAAAA'
p63
aF1.0
aa(lp64
S'This is ACTUALLY Small And Easy 6'
p65
aS'GGGGUGUGGGGUGUGGGGUGGAGGGUGAGGGGUGUGGUGAGCGAGUUUAGGGGUGUGGGGUGUGGGGAGUGGGAUGUGGGGUGUGGGGUGUGGGGUGUGGGGUGUUGGGUGGUGGUUGAGGGGGGUGGGGUGUGGGGUGUGGAGAGGGGGGGGUAGGGUGUGGGGUGCGGAGUGUUGGGUGUGGGGUGUGGGGUGUGGGGUGUUGAGUGUGGAGUGUGGGGUGUGCGGUGUGGGGUGUGGGGCGAGGGGUGGGGGGGGUGGGGUGUGGGGUGUGGGGUGAAGGGUGUCGGGUGUGGGGUGUGGGGUGUGGGGAGUGGGGUGUGGGGUGUGGGGUGUGGGGUGUGGGGGGUGCCGGGAUGGGUGUGGGGUGUGGGGUGAUGGGUGUAGGAGGUGGGUUGGG'
p66
aF0.975
aa(lp67
S'Shortie 4'
p68
aS'AGGAAACUACCGAAAGG'
p69
aF1.0
aa(lp70
S'Shape Test'
p71
aS'AAAAAGAGAUCAAGAUACAAAAAAAAGUAUCAAGACAGACAGAUACAAAAGGUAUCGGAUCAAAAGAUCAGUCGUCAAGAUCGCAAAAAAAAAAAAAAAAAAAA'
p72
aF1.0
aa(lp73
S'The Minitsry'
p74
aS'GAGAAAAAUACGAAAAGGCGAAAAUCCAAAAACGGAAAAAAAAUCGGGGAAGUCAGUAGCUC'
p75
aF1.0
aa(lp76
S'stickshift'
p77
aS'AAGGGUGCGCAAAAAGCAGCACCCAA'
p78
aF1.0
aa(lp79
S'U'
p80
aS'AAAAAGAUACAGAGAGGAGAGGGGUGUGCAAAAGCACACCCCCCCCCGUAUCAAAAA'
p81
aF1.0
aa(lp82
S'Still Life (Sunflower In A Vase)'
p83
aS'AAAUAUGACAUUCCAAAAAGGAAUAAUAUACAAAGGAUGAACAUACAAAAAGUAUGAACGUAUCAAAUACGGGCAGACAAAAAGUCUGAAGGACCAAAAAUAAGGAAUAUAGACAAAUAUAUAUAUAUGUAUCCAAAAAAGUAUGAGAUACAAAAAAAAAAAAAGUUGGAAAAAAAAAAAAAAAAAAAAAAAAAAAAAAAAAAAAAGCACAGCAAAAAAAAAAAAGGUAUCGAACAAAAAUGUUCACAUAUAUAUAUAUUUGUCUGUAUAAAAUACGAAAAGUAUAAACCUACAAAAAGUAGGGGCAUUUAAAAAGUAAGAUCACAUAAAAAGCAAGUACAUACAAAAGUAUGAGAUCACAAAAAGCGAUGUAUAAAA'
p84
aF0.9470899470899471
aa(lp85
S'Quasispecies 2-2 Loop Challenge'
p86
aS'AAAAACUUCCGGCGUUCUCAAAGGAGAUAGCUGAGACUAGGUAUCAGAGUCGUAUCAGGGGUACUAAAGGUAAACAGGGUAGAGGGAAAAAAAAAAAAAAAAAAA'
p87
aF1.0
aa(lp88
S'Corner bulge training'
p89
aS'AGGGUGCGAUACAAAGUAUCAAAAGCACCCA'
p90
aF1.0
aa(lp91
S'Spiral'
p92
aS'AAAAAGAUCAGGGUGCAGACAGAUACAGAUCAGAUCAGGAGGAGGAGGAGGAGGAAAAACCCCCCCCCCCCGAUCGAUCGUAUCGUCGCACUCGAUCAAAAA'
p93
aF1.0
aa(lp94
S'InfoRNA bulge test'
p95
aS'AAAAAAAAAAAAAAAAAAAAAAAAAAAAACACCAAAAAAGCGCAAAACCCCUAGCCGCGACCGAGGUUCGAAAAGAUACAUCAGGGAGCAGGAAUGGUGGAAAAAGCAGCAAAAAAGGAUGG'
p96
aF1.0
aa(lp97
S'Worm 1'
p98
aS'AAAAAAAGAGAGGCAAUAGGGCGAAAAAUAGCACUUACGAUGCUC'
p99
aF0.8666666666666667
aa(lp100
S'just down to 1 bulge'
p101
aS'AAAAAGCUCAUAUACAAAAGUAUAAGACAAAAGUCAGACGCAAAAGAUCAGACAAAAGUCAGACAAAAGUCAGAUCAAAAAAAAAAAAAAAAAAAA'
p102
aF1.0
aa(lp103
S'Iron Cross'
p104
aS'AUUGAUACAAAAAUAGCGAAGUUCAUACAAAAGCGCAAUUAAAUCAGUGUAAUCAUACACAAGAUGAGAUAAGGAAGAUCAAAAGGUAGAUUAUAACAUUCAAAGUUAUUCAAAGAGACAAGA'
p105
aF0.9024390243902439
aa(lp106
S'loops and stems'
p107
aS'AAAAAGGGUGUCAAACAGGAAAGUCCAAAGAUCAAAAAAAAAGAUACAAAAAAAAAAAAGUAUCGAAGAUCGAAAGAGCAAAAAAAAAAGCUCGAGGGACAAAGACAAAAAAAAGUCAAACUUGAAGGAAAAAACCAAAGACACCCAAAAA'
p108
aF1.0
aa(lp109
S'Water Strider'
p110
aS'AAAAUGAUGUAAUGUAGAGCCCAAAGGCUACGAAAGUGUUAGGGGGCAUGACAAACGUAUAAAAAGCAAAAUUAGUCACUUUUAAAAAAAAAAAAAAAAAAAA'
p111
aF0.941747572815534
aa(lp112
S'The Turtle(s) Move(s)'
p113
aS'AAUAGGAAAUUUACUAACGUGUGGAAAAAAAAGCCACACGUUUAGGGAUCAAAAAGAUCAGAGACACAAAAGUGGGACAGACAAAAAAAGUUUGGAAAGGCGACGUAAAAAUAGAGGAGGAAAAGAGUAAACGGUCGGAAAAAACGACCGAAAAGACAAAAGUCAAAAAGGCAGGAAAAGGGGAAAAAACCCGACACGAAAAAAGGUGAAACCUGCAAAAAAGCAGGAAACAUCAAAAGGAUGAAUCUUUCAAAAAAAAGUCUAAAGUAGAUAUAAAAAUGGAGGGCGUCAUAAAAAAAAAAGUGAUAAAAAAGUC'
p114
aF0.9810126582278481
aa(lp115
S'Adenine'
p116
aS'CAUACAGGGUGCAGGGUGCAGGGUGCUGGGUGCAGGGUGCCAAUGGGUGCAAAAAAGCACCCCGCACCCAGAUACAAAGGGUGUCAAAGACACCCGUAUCAGCACCCAGAUAGAUAGAUGUAUCAUCUAUAAAUUAUCUGCACCCAAAAGCACCCGAAAGCACCCAAAAGUAUG'
p117
aF1.0
aa(lp118
S'Tripod5'
p119
aS'AGGCCGGACCUAAAUGGUCCAACGAAAAGUUGCGGUAA'
p120
aF1.0
aa(lp121
S'Shortie 6'
p122
aS'GGAAAACCAUGAAAGUGAGUAAAAACAUAAAAUCA'
p123
aF0.8857142857142857
aa(lp124
S'Runner'
p125
aS'AAAAAGAUCAGAUCAAAAAGUUCAAAGAGCAGAUCAAUGAGAAGUCACCAAAGGUAAAGACGGCGACAAAGUCAAAGCCACUCUAAGACAAAGACAAAAGUCAGUCAGAUCAAAAA'
p126
aF1.0
aa(lp127
S'Recoil'
p128
aS'AAAAAGAUACAAGGAAGGAAGACAAGACAAGGAAGCAAAGCACCAGUCAGUCACCACCAGUAUCAAAAAAAAAAAAAAAAAAAAA'
p129
aF1.0
aa(lp130
S'[CloudBeta] An Arm and a Leg 1.0'
p131
aS'AAAAAGACAGACACAAAAGUAGUCGACAGGAAAACCGUCAGUCAAAAAAAAAAAAAAAAAAAA'
p132
aF1.0
aa(lp133
S'[CloudBeta] 5 Adjacent Stack Multi-Branch Loop'
p134
aS'GAUACGAGCAAAAGCUCGCUUCUAAUGAAGCCAUACAAAAGUAUGCCGUAAAAACGGGUGUCA'
p135
aF1.0
aa(lp136
S'Triple Y'
p137
aS'AAAAUGAACGAUUCUUCGAAAUAACCUACUAAUGUGGAAUCCUUCGAUCAAAGCAUCGAGCUAAUCUGCGAGGCACCUAAAAAAAAAAAAAAAAAAA'
p138
aF0.9175257731958762
aa(lp139
S'Misfolded Aptamer'
p140
aS'GAUCAAAAAACGGCCAAAGGCGGGGAAACUAGGGGAGAGCGGAAAGGGUC'
p141
aF1.0
aa(lp142
S'Flower power'
p143
aS'AAAAGCAUCACUAAAUCAAUAGAUCGAUCAACGAUCAAGUAUAAAAAACAAAGUGAAGCAUGGGUCGAGGUAAGAUACGAGGAAAAAAAAAAAAAAAAAAAA'
p144
aF0.9215686274509803
aa(lp145
S'Kudzu'
p146
aS'AAAAUUACAGGAGUGACGUAAUAUAUGAAAAAUAGGGCUGUAGAGGAAAAACUGCGGGUUAGGGGCAAAGUCUCGAUUGUGUAAAAAAAAAAAAAAAAAAA'
p147
aF0.900990099009901
aa(lp148
S'"1,2,3and4bulges"'
p149
aS'AAAAAGGUUUACGACUAAUGUGAAAUGGUUACAAAAGUGUGAUGCAAAAGACUAGCAAAAAUAAAGCGGACAAAAGUCAGGACCUGAAAAAAAAAAAAAAAAAAA'
p150
aF0.9809523809523809
aa(lp151
S'medallion'
p152
aS'CUAAUCAAGAUGCAAAAGCAUUUAGCCAAAAGGCGAUAAAAAUAUAACCGGGGAAACCGAGGAAUAAAAAUACGUCAUGCAAAAGCAUGAAAGCAAAAGUCGGUAAAAAUAUUGCAUUCAAAAGAAUGCUAGUAAAGGUUUGGAUGCAAAAGCAUUUGAUCAAAUGAUUACGGAAGUAAUUCAUGCAAAAGCAUGGACUCUAACAAUGAGAUGUAAAAACAUCUAAGUAAAAACUAUACAAAAUUUAGAAUGCUAAUGCAUUCGAUCAAAAGAUGACAUCCAAAAGGAAGUAAUCGAAAGUUAAUCGAAAGAUAAGAUGAAAAAUCAUUUAGAUUGG'
p153
aF0.827893175074184
aa(lp154
S'[RNA] Repetitious Sequences 8/10'
p155
aS'AGCAAAAAAGGAAAAAACCAAAAAAGCAAAAAAGAAAAAAAUCAAAAAAGGAAAAAACCAAAAAAGCAAAAAAGCAAAAA'
p156
aF1.0
aa(lp157
S'Documenting repetitious behavior'
p158
aS'AAAAAAUGUAAAAAAAAAGGAAAAAAAAAGCAAAAAAAAAGUAAAAAAAAAGCAAAAAAAAAGCAAAAAAAAAGUAAAAAAAAAGCAAAAAAAAGGCAAAAAAAAAGCUAAAAAAAAGUAAAAAAAAAGCAAAAAAAAAGCAAAAAAAAAUCAAAAAAAAAGCAAAAAAAAAGUAAAAAAAAAGCAAAAAAAAAUGAAAAAAAAACAAAAAAAAAAGCAAAAAAAAAGGAAAAAAAAAACAAAAAAAAAGAAAAAAAAAAGAAAAAAAAAAACAAAAAAAAAGCAAAAAAAAUGCAAAAAAAAAGUAAAAAAAAAGCAAAAAAAAAGCAAAAAAAAAGCAAAAAAAAGGCAAAAAAAAAGCAAAAAAAAACCAAAAAAAAAUCAAAAAAAAAACUAAAAA'
p159
aF0.95
aa(lp160
S'7 multiloop'
p161
aS'CUCUGAUGCGAAAGUAUCAUUUAAAAGUGGAUGGUCUUAAUGGACCGUGGAAAAGUCCACGUUGCAAAGGCAGCCUUAAGAAAUUAGGGGAG'
p162
aF0.9782608695652174
aa(lp163
S'Kyurem 7'
p164
aS'AAAAGGCUAGUGGAAUAAUUUAGGCAAAAGUUAUCAGAAAACCUCUGCCUAUGCAAAACCUAAAGGUUAGUGUGCGCAUAGCAAAAAAAAAAAAAAAAAAAA'
p165
aF0.9411764705882353
aa(lp166
S'JF1'
p167
aS'AUAGGUGUAUUAGAUACGAGAUACAAAAGGGUGCAAGAUACAAAGAGACAAGAUAUAAAUAUAUAUAUAUAGAAAACUAUAUAUAUAUAUAGCACAAAAGUGACAGAGAUAGAAAACUAUUUCUGAACAUACAAAAGUAUGAUAUAUCAGUCUCAGUAUCAGCACCCGAAGGGGUAGCAAAAAGCUAACCCCAAGAUAUAUAGGUAUAUAGUUAUAUGAAAACAUAUAGCUAUAUAUCCUAUAUAUCAAAGAUACAAAAAAGUAUCGAUAUAUAGCAAAAGCUAUAUAUCAGACAUAAAAAUAUGAAGUAUCAAGUAUCAGAUCAGACAGACAAAAGUCGUCGAUCGGGGCGAUAGAAAACUAUUAGCCCAGAUGUCACACUAUAGA'
p168
aF1.0
aa(lp169
S'multilooping fun'
p170
aS'GGAUAUGGAAAAGAAGGAGAUAUUGUAGAAAAUUCA'
p171
aF0.8333333333333334
aa(lp172
S'Multiloop...'
p173
aS'CAACAUGUCGGAUAAAAAGUACGCGAAAGGGGGACCAAACUAUAAUGAAAAUUCUGUUAAAAUAUGAGUAAUAUUAACUAACAUACAAAAAAGUAUGGGAGAAAUAUGUUG'
p174
aF0.8918918918918919
aa(lp175
S'hard Y'
p176
aS'AAAAGGAUCCGACGGGUUUCAAAGGAAACCCCACGGAGAUUUAGCGAAAGCUAAAUUUCGAUCAAAAA'
p177
aF0.9705882352941176
aa(lp178
S'Mat - Elements & Sections'
p179
aS'AAAAGCAUCGGUAUGCGAUGUGGCCAUACGAAUUCAGGUAACAAAAGUUUAGGGUAGUAAGAUCAAAACUCGUAUUUUUCAGAUGAAAAAAAAAAAAAAAAAAAA'
p180
aF0.9809523809523809
aa(lp181
S'Chicken feet'
p182
aS'AAAAACUAGCAGGGAAACAGUCAAGUGAAUCCCGCCAUAAGGAAAACUGAGAAAAUAGUAGAAAAAA'
p183
aF0.8805970149253731
aa(lp184
S'Bug 18'
p185
aS'ACGCCGACUAGGUAGGUAGGGUGUAUCGUAUUUCCUCCGGCGAACGUAAGUGG'
p186
aF0.9622641509433962
aa(lp187
S'Fractal star x5'
p188
aS'AAAAAAGUGUAAGGGGUGGAAAACUACAAGAUCAAAAGAUCGACAGCAAAAGUUGGACUUCGAAAGAAGAACUUACGCUGAAAACGGGUGGGUAAACCAAAGGGUUAAUCGUUAUGAUGAGAAAGUGAAAGCUUAAGACGUAAUUGUCAUUCUACUCGAAAAGGCGGAGACAAGACCGAAAGGUCAACAUCUAAUGGUGAGUAACGAAAGUUGAGUAGCAAAAGCUAAGGUCUCCGUAAAAGGGGGUUUGGAGUUCUAAUGAGCAGUACCUAAUGGUAAACCUGAAAAUAGGAACAUCAAAGGAUGGAUAAACCCCAAAAGGGGUUGUUAAGUUCUAAUGAACAAUAGCGAAAGCUGGUCACUGAAAAGUGUAUAUCAAAAGAUGAAAACAGCUCAAAAA'
p189
aF1.0
aa(lp190
S'Crop circle 2'
p191
aS'GGAAAGAAAAAGAGAAAAGCUAAAAAAAUGCAAAAAAAAAAAAAAAAAAAAAAAAAAAAAAGCUAAAAAAAAAAAAAUGUAAAAAAAAAUCAAAAAAAUCAAAACCAAAA'
p192
aF0.9272727272727272
aa(lp193
S'Branching Loop'
p194
aS'AUGGGUAAAAAAACGCAGCGAAAGGUGAAAUUAGAAAAAA'
p195
aF0.95
aa(lp196
S'Bug 38'
p197
aS'UUUAUAACAAAUAAAAAACAUAGUUGGAAUAAGAGU'
p198
aF0.9444444444444444
aa(lp199
S'Simple Single Bond'
p200
aS'AAAAAAGGAAAAAAAUAGUCAAAAAGAUUUAAAAAAAACGAAAAAAAAAAAAAAAAAAAAA'
p201
aF1.0
aa(lp202
S'Taraxacum officinale'
p203
aS'CACGGAAACAGUGACGAUAAAAAAGCAAGGGCGAAAGCAUAGAACCAAAAGAGCAAGAUUAAAAAAAUCGAUGCGAAAUAGGGAGCUCCAUAAAGGAUAUAGGGUGAAGCAUCACUAUAUCAGAGACAAGAUCUAUAGCAAGAUAUACAAAGUAUAUCAGCUAUAGAUCGUUCAGGGUGCUAUGCACCCGAGCGUUUCGAACUUUAUGGAGCGGACGGAAACAGUCAGGGGGAAACAAGAUGAGGAAAGUAAACACAGUGAAAAACUGACUCGAAAACAGAG'
p204
aF0.8936170212765957
aa(lp205
S'Headless Bug on Windshield'
p206
aS'UGGCGCAAAAAGCAUGAAAGGAGACGAAAAAAAAAAAAAAAAAAAAAAAAGUCACCGAGUAUAGCAAAGCGUCUGACGAGGUCAGCAAAAAAAUCGAAAGGAAAAAAAGCAUCAAAAAAGUCUACGUGAAAAAAAGUCAAGACCUAGGAUCAUUUUAAAAAAAAAAAAAUAAAAGGAGAUUAGCACGGUCAACGAACGUA'
p207
aF0.98
aa(lp208
S'Pokeball'
p209
aS'AAAGAGCGUGAAAAGGGAGCAAUAAGUGAGGUCAUGCAAGAAAUCAAUCGAAGCAGGAGUCAGCUGAAAUCUUUAGGCUCCCAUACUCGAAAAAAAUGGGGACAAAAUGUAUCAAGACGAGUGAUGAAGGAAGAGUACAACUAAAGGAGUUGUCACCAUAGAGCAGUCAGCUCCGUUUUCGAAA'
p210
aF0.9782608695652174
aa(lp211
S'Variation of a crop circle'
p212
aS'AAAUUAAAAACGAAAAUAAAAGAUUAUAAAGCGUAGCGGGCGAAUAUAAAAAGUAAAAAAAAGGAAAAAAAAGUCUAAAAAAAAAAAA'
p213
aF0.9545454545454546
aa(lp214
S'Loop next to a Multiloop'
p215
aS'AGGAGGUGUGAAAAAAAUAGGCCCCAAAAGGGGCCGGGAUGUCUAAUGACAUCCAGAAAAAAGCACAUCUCAA'
p216
aF0.9726027397260274
aa(lp217
S'Snowflake 4'
p218
aS'CAGCAAGUCUGGCAGGGGAAAACCCUGAGAGUAGGCGAUAAUCCUAUCAGAUAGAAUAUCAACCGAUAUGCGGUGGUAGGAAAGCCUUCUGAAGAGACGGUAAUCGUGUCGUAUCAAAGAUAAAUUUCAAAGAGGUAGCAUGAAAACUGUUUGAUCGGAGCGAAAAACGGGUCGAUCAAACAUUAACAUUAAAGAUAGACUCCAUAAUUGCUCCGUAUAUACGGGAAACCUGGUCUAACAAAGUUAAACCUCAAAGAGGGACCGGUGAAAGCGUAUAGAUAUCCGGAAAACCGGCUCGAGGAAAUAUAAACAUCAAAGAUGGAAUCGUAAAACAUAAUGGAUUCGGGGAAAGCCUCUGCGCUCAAGGAGC'
p219
aF0.8108108108108109
aa(lp220
S'Mat - Cuboid'
p221
aS'AAAUGAAAAGUAAAUAAAAUGAAUGAAAAGAAGGAAGUAAAAGGAAUGAAGGAAAAAAAGGAAGCAAGGAAAAACAAGCAAGCAAGGAAAACAAAGCGAGCGAGGAAGGAAAAGUGAGCAGUCAUUCGUUCAAAAGGUAUCUAUCUCUCGAUGAUGUAAAACGGUGCUUUAGCUCUUGCAGUUAAAAGGCUGCAAGCAUCGUAUCUAUUAAAAAAGAGUGAAAUGAAGUGGGGUUCCAAACGUUUGAAAUAAAGCUACGACUCGACAGAUAGGGAGAGUCCGAAAGAUAGAAGGCGAACCCAAUCAAGCAAGCGAGGCCAAACGAGCAAGUCCAAGCAAUGUGCCCAAUCGACCGCAGCCUACCAGACGAUAAGUCAGAU'
p222
aF0.9157894736842105
aa(lp223
S'Misfolded Aptamer 6'
p224
aS'AAAAAACGGUAAAAAGUCUAAGGAUUCUCAAAAAAAAGGGUGAACGAAAAAGAUAAAAAAUUCGGAAAAAAAAAA'
p225
aF1.0
aa(lp226
S'Snowflake 3'
p227
aS'UUCGGAAAACCGGCCGACAAAAGUGAACAUCAGAUCAAGACAAAAAUCGAAAGUAAAACCUUCAAAGGAGAAAAAUCAUUCGAGAAAAUUCAAGGUCAUAUCAAGACAAAAGUCAAAAGGAAAACCUACAAAGUAGGAAAACCGUUUGACAAAAAUCAAGCUGAAAUCAAGAUAAAAGUCGAGUGGAAAAACUACAAAGUUGCAAAACCUCUCGUCGAAAGACAAGGUCAGCUCAAGAAAAAAGUAGAUAGGAAAACCUACAAAGUAGGAAAACCGGUCAACGAAAGUUAAGGUCGCAUUAAGAUAAAAAUCGAAGAGGAAACCUGCAAAGCAGGAAAACGAUUUGACAAAAGUUAAAAUCAAAUCAAGACAAAAGUUGGCAGGAAAAUCGGA'
p228
aF0.8422391857506362
aa(lp229
S'Hard Y and a bit more'
p230
aS'AAAAAGAUCGGGAGCUUCAAAGGAAGACCCGUUAGUGGAUGUUCUAAUGAGCUUUAUACUAAAAUGUAUAUCCCUCCAGCCGAUCGAAAAAAAAAAAAAAAAAAAA'
p231
aF0.9716981132075472
aa(lp232
S'Mat - Lot 2-2 B'
p233
aS'GAUGAUUAACGAUUUCAAAAGGUAUGUCAAAAGAAAAAUGGACCGAACUCAAAAGAAUAGGCGAGCAAGUGUUGGGCGUCUAAAGGUUGAUAAAUUAAAAGGGAAACCGAGAUAACAAUUUUCCCAAAAUGCAUUGAAGUUAAUGCGAGUUUACUACCAAAAAGAAUCAGGAAAUGCAAAGAGGCUGAGAGAAAAAGAUACUCAAGGCAACGGCGCGGAAUGUAAAGGUUUGUCACUCAAAACGGAAAGGGAUGGACAAAUAAUCCCGGGUCCGGAGCAACUAC'
p234
aF0.7605633802816901
aa(lp235
S'Shapes and Energy'
p236
aS'AAAAAGGUGGGUUUUGGAACAGAAGGUUUAGGAAACGAAGCAUGUUCAAUAAUUUCCAGUUCUAAAAGGGGAUUGUCCUCAAAAAAAAAAAAAAAAAAAAA'
p237
aF0.9603960396039604
aa(lp238
S"Spiral of 5's"
p239
aS'UAAAAGAUACAAAGAUAUAAAGAUAGAAAAGAUACAAAGAUAGAAGGAUAGAAGAUACAAAAGAUAAAAGGAUGGUAAUAUAGUUGAUACAAAGAUAGGAAGUUAGAAGAUACAAUGAUAGAAGAUAAAAGAUACAUGUUACAACAUAAUCACGUAAAUAUAUAGCAAAAGGCUAUUGGGGAUAUUAAAAAACGUGUAAACUUAUGAAAAAGUAACUAAAAGUAUCAAAAAUUAUCAAAAACUAUCUAAAAGUAUCAAAAACUAAUAAAAACUAUCAAAAAGUAUCUAAAUCUAUGAAAAUCUAUCAAAAAUUAUCAAAAAGUAUCAAAAACUAUCAAAAACUAUCAAAAAGUAUCAAAAACUAUCGAAAAAUAUCGAAAAGUAUCAAAAAGAAAAA'
p240
aF0.9949622166246851
aa(lp241
S'Campfire'
p242
aS'AAAAGAUCUAGCCACAAGAUGAAUAUCUAAAUGAUAGCCCAGGAAACGAGGCCAUCGGCUCCAGGAAGAGCCACGAAAGUAGGCCUCCGACAUUGGAAGAGGAAAGCCCGCCUACAGGAGAAAACUACCAAUCAUGUAGUCGGACGCGGUGGCAAUAGACAGAUAGAUCUAAUGAUCGUCGUCGGCCGUACAAAGGGUCGAGCCAGUUGAUC'
p243
aF0.9622641509433962
aa(lp244
S'Anemone'
p245
aS'AAGGUGUACAAAGGUACACGACUGUAAUCAGUCGGGUGCGAAAGUACCCGGUAAGUAAUUACCGGGGUAGAAAUAUCCCGAGGAGAAAUCCUCGAUACUAAUGUGUCGUAUGCAAAAGCAUACAAAUUCUAAUGAAUUCAGUAGAAAGCUACUGGCCACUAAUGUGGCGGGUGUGAAAAUACCCGCGGCGAAAGCCGCCCGUGCUAAUGCGCGG'
p246
aF1.0
aa(lp247
S'Fractal 3'
p248
aS'AAAAAAAUUAGAUAGCAAAGGCGGAAAACCAGUCAUACAAGAAACCCAAAAAAUAAGUGGGACGUGAAAGCGGGAAAACAAGUCGGUCUUGGAAACAAGAAAACUUGGUAAAUUGAAAA'
p249
aF0.9327731092436975
aa(lp250
S'Kyurem 5'
p251
aS'AAAAGGGUUGUUCCCAAAGGUGCACAAAAGAUAGAUAAAAGACUAAAUGUCUAUCGGUUAAAAUGCCAUAUCGUAGGAAGAACCAAAAAAAAAAAAAAAAAAAA'
p252
aF0.9230769230769231
aa(lp253
S'Snowflake Necklace ( or v2.0 )'
p254
aS'CAGUUACAUAUUGCGAGAUUCAGCAAAAAGCAAGGAAAAUUACGAAAAACGAACAAAAAGUAGUAAAAACCAGAAUCAGACAAAAAGUCGAUUAGUGCAAAAAGCAGGAAAAACCACCAAAAAGGAGGAAAAACCAGAGAAAACCUUUAAUAGGCAAAAAGUCAUAUACAGGAAAAACCAGGAAAAGCCGGUAAAAAGAAUCUAAAACAAGGAAAAACCAAUAUGAGACAAAAAGUCAGAUACACGAAAAACCGGGAAAAACCAAUAAAAAAUAAGAAAAAUCCGGAAAAACCAGUGUCGGCUAAAAGGGCAUAUACAGGAAAAACCAGGAAAAACCAGGAAAAAGCAGGAAAAACCAGAAAAAACCAGUAUAGCGCGGUAUGUAAUUG'
p255
aF0.8663239074550129
aa(lp256
S'Methaqualone C16H14N2O Structural Representation'
p257
aS'AAAAAAAGAUCGGAUAAGGGAAUCAAAAGAUAGGCGCACAAAAGAGACAGGCUCGAAAGGAAUUAAAUGUAAUUAUACACCAAAAAUGUGAGAAGUUCAGUCACUCAGAAACAUAUCAUUGCAAAGCAAACUAAGGAAGCCAAAAAAAAGUUAGACAUACAAAAGUGUACAAAAGUGGACAAAAGUCGACAGCAAAGAUUAAAAACAGACAAACAGACAGGCAGACAAAACAUAAAAAUGAGUCCCACGAAAGUGAGUCAGAUAAAAAUCCGUCAGACAAAAGUCAGUCAGACGGCGAAAGUCUACAAAAGUAAGGAGAAAGUCGUCAGUAAAAUCAAAGCAAAGAUCGAAAAAA'
p258
aF0.9126760563380282
aa(lp259
S"Cat's Toy 2"
p260
aS'AAAAGUAAUUUCAAAGUAAGUUAAAAAAAAAAAAAAAAAGGAAGCGAGGAAAAUACAAAGGUAAUCCAAAAAAAAGUAAAAAAUGGAAAUUACGAAA'
p261
aF0.9587628865979382
aa(lp262
S'Zigzag Semicircle'
p263
aS'AAAAUAGAGGAUUAAAAAUAAAAGAUUCUAGAAA'
p264
aF0.9411764705882353
aa(lp265
S'Short String 4'
p266
aS'AAAAAUCGAGAAACGUCUUAAGUGGACGGAAACUCUAUUGAAGAGGUAUGAAAAUAAUCGAGUAAUAUAGAAUCCUUAAAAAAAAAAAAAAAAAAAA'
p267
aF0.9381443298969072
aa(lp268
S'Gladius'
p269
aS'CAAAGGAAGAGAAAGAAGAAUAGAACAAGUUCGGUCAAAGAGAGAAAUUUCGGAUACAGUUGACUAGAUUUGUAUAGAGCAAGUGAUAGGCCACAUAUCAGACCAUGAUCAAAUUGACAACAAAGUUGAAAUGGGAUCUGGGUCGAAUAUGAUGUCUAUCAUGGGCUCAAACCAGCGAUUGUCUAAAGUGUAGGACAAUGACAGGCUCGGAAGACACAGGAGUGAAAGUUCAGAAGUUAUUCCGAUCUCAGAGGUCGGUAUGCGCGGUGGUGCAAAAGCACCGAACGCCAAUGCGCACCUGUGAGAUACGAAUAGCACAGGAGCGGAAACUCAGAAGUCGUAAGAGCCAUAACGAAAGUUAAAAGUCUGAGAAAGGGCGAAAAAAAUAUUGGAAUAAAAC'
p270
aF0.905
aa(lp271
S'Thunderbolt'
p272
aS'GCAAGAUACUAAAAAAAUAGAAAGCGCAGGGGGGAAACAGGGGGGGAAAAAGGAAGUGUAAAAGGGUCAAAAAGAUCAAAAAUCGCAAGCUGACAAAAAAAGGGCAAAAAAGAGUAAGGGAUCAAAAGGUAAUCAUUGCAAAAAGACAAAAAAUGGCAAAAAUAGCAAUAAAAAGUCAGAUUCGGGAAAAAAACAAGGGGAAACCACGCGGAAAAAAAAGCGGUGAAAAAAAAGUGGAGGGGCAUAUUAAAAAUAUGAGAAAGCAAAAAAAAAAAGUAUGCGAAAAAAAAGGAACUAAAGCAAAUCAAAAAGAAAAAAAACAAAAAGAUUUGAAAAAGGAAUCCCCCCCAAAAAAAAGAGCAACCAGAAAAAGUAAAAAACUGUAUCAAGCA'
p273
aF0.9438775510204082
aa(lp274
S'Mutated chicken feet'
p275
aS'GAAAAAAAGAACAGUAAAGCACAAAGGCAAGGUACAGGAGUGGGAAACCAUCAAAGGAAAGUUCACCAUCAAGAACACGGCAAAGCAAGGCCGAAAAAAA'
p276
aF0.87
aa(lp277
S'Chicken Tracks'
p278
aS'AAAAAAAAGUGUCUCGAGCAAAAGUUCAAGAUCAAAAGAUCAAGUUCAAAAGAGCGAGACACAUGCGGAGGGAACCUCAAGUUCGAAGAACACCGUCAAAGACGCGCUAAAAAAAA'
p279
aF1.0
aa(lp280
S'Looking Back Again'
p281
aS'CACAAGACUAUAUAAAAGGGUACAAAGUACCCUAAUAAAGACGAGAAGACAAAGUCCUCAGAUACUAAGAUUUAAUGAUCAAAUGUACCGAAUCGAUUCGAGGUGCCCAAAAGCAUACUAAGGUAUCAAAAAACUAGAGAGGUUACAAGGUAUCCCUAGAAGCGAGGGGGGUUCAAAGAAUAAGUUGAAGGUUAUUAAAAAAUAUAUACAACAGAUAUGGACGAAAGUCAAAACCCCAAAAUCACCACCGAAUAGAGAUCUAAAAAGCCAAUGAAAAAAACGAUCAAAAAGAUCCAUUAAAGGCUGAUAGUACAAAAAAGCCGUGGCUAAUGCCACGAAGAAGCAAAGCUGAUACGAAGUAUCUAUUCGCGAAAGUACCGAUCAAAGUG'
p282
aF0.8457583547557841
aa(lp283
S'Multilooping 6'
p284
aS'AUGACCCCUGGGGAUAAUGGGUUUCGUAAGAAAUUACGCAGAAGUAUUCGAAAGAAUCGCUCCGAAAGGGGCUUCGGGUCUA'
p285
aF0.926829268292683
aa(lp286
S'Cesspool'
p287
aS'GGAAAAGGAAAUAACUCUGGGGAGACAAAGUCAAUAACAAGGGAAGUAGAAAACAAUAUCAAAAAAUAAAAGAGACAAAGGAGUUAGAAGUGAAAGAAAAGACGGAGUGGUAGGUAAAGCCAAAAACAGUUAAUGUGGAAAACAACAGAUAAAAAUAAUAGUGAGAAAAUGGGAAUAAGGUUGUAUGAAAAAACGCGGGAGACACAAAGUCAACAAGAAGAGAAUUUAAAAAUAAGACAUAAAAACGUGCAGGUUAAAAGAUCAACCAAGCUCGAAGAAAACAACACUUGAGAGAUAAAAUCAAUAACCAGUGAAGGAGAAAACAAUACGAGAAAACGAGAGAGGCAAAAGAGCAAGC'
p288
aF0.7569832402234636
aa(lp289
S'Hoglafractal'
p290
aS'AAGGGCCAGGUACAAAAGAUUUAAAAAAGAAUCGUUCCGGUCAAAGAGCAAAAAGUUCGACCGAGAAGGCUAAUGUCCUCGGACAAAGUUCAAAGAUCAAAAAAGAUCGGACUACAAGUGGAAAACACGUCGGAGAAAAAUCCAAAGAGAAAAGAGAAGACAAAAAAGUCCUCGCAUGAAAAACGGCAACAAAAGUAAGAUGUGAAAAGUAGGAAAAAAUCACGUGAAAAAUCCUGUAAUUAAGGGAUGAAAAAAGAUAAAAGGAUCUGGGAAACAAAGCAGAUGCAAGGUAUCUGAAAAAAACAUCCCAAAAAAACAUCAAAAACUCUAAACGUUAAGGCGAUUGAAAAGAGUAGAAAAGGAAAGCCGGGAAACCGAUAUCUAUGAUAUCGCUGCCUUU'
p291
aF0.905
aa(lp292
S'Bullseye'
p293
aS'AAUACGGAUCAAAUAUCAUGAUCUAAGAUCUAUAUAAAGGGUGCGUUAAAAAAAGACGGUGAAAAACCAAUAUCUAGAAUGAAGCUCGAAAAGCGUCAAAAAAAAGACGAUCAAAGGUCAAGGUAAAGUAUCAAUAUAAAAUAUAGUCAAAAAAAAGAUGAUUAAUAAUCAAGACCAAGGAUCGACAUUGAAAAUGAUCAAA'
p294
aF0.8415841584158416
aa(lp295
S'Shooting Star'
p296
aS'GGGUGAGAUCGGCUGUCGAAGAUUUACAGACAGACGGGGAAACACGUACGUCGGAUUACGCAGCCAGCCAGGCGUAUCAGUUCCAGGCAGAUGCAGUCAGAUCACGAAAACAGGAUACGACGACAUACGCCGGAGGACAUGAAAACGCAAAGCUGCACGUUACAAAGUAAAACACACAAAGUAUGGGAAAAAUACAAAUCAAGCCAGAGUAAAUGAAUGGUUGCCGAAGACCCAUUCAUACAAAGUCUGCAUCGGGAUUGAAAUAAUCCCACACACAAAGUGUGGAUCGCUGAAUAAAGAGUUAAAGUUCGGAGACAGAUCAUGAAAACAAAAUACGUUGGAACAAUGCAUUCAGCAUCACUCA'
p297
aF0.771978021978022
aa(lp298
S'Teslagon'
p299
aS'AAAAAAGUAAAAAAAGAUAGAAAAAAAGCAAGAAAAAAAAAAAAAAACUUGAGAGUAAGUAAAAAAAAAAAAAAAACAGCUAAAAAAUGUGGAAAAAAAUCAAAAAAAAAAAAAAAGAAAAAAAACCGGCAAAAAACGCGAGAAAAAAAAAAAAAAGCUAGAGCAGUCCUAAAAAAAAAAAAAAAAGAUCUAAAAAAUCAGGAAAAAAACUAAAAAAAAAAAAAAAAGAAAAAAAUCUAUAAAAAAAUCUUCAAAAAAAAAAAAAAAAGUGAGGUUCAUGAAAAAAAAAAAAAAAACGGCAAAAAAAGCAGUAAAAAAAUCAAAAAAAAAAAAGGAAAAAAAAAAAAAAAUCAGAGAAAAAAACGGCAAAAAAAACAAAAAA'
p300
aF0.8717277486910995
aa.