(lp0
(lp1
S'Simple Hairpin'
p2
aS'GAUAUAAAAAAAUAUC'
p3
aF1.0
aa(lp4
S'Arabidopsis Thaliana 6 RNA - Difficulty Level 0'
p5
aS'GAUAUAUAAAAUAUAAAAAAAAAAAAUAGAUAUAUCAGCUAUAUAUAUAUAGAUAUCAAACUAUCAAAAAAGAUAGAGAUAUUAUAUAUAUAUAUAGAAGAUAUAUCAAAUAUAUC'
p6
aF1.0
aa(lp7
S'Prion Pseudoknot - Difficulty Level 0'
p8
aS'GAUAUCACGAUAAAAAUCGGAUAAUCAAAAAAAAAA'
p9
aF1.0
aa(lp10
S'Human Integrated Adenovirus - Difficulty Level 0'
p11
aS'GUGAUCCAUUGAUGGCUUGGUAAAAAAAAAAGGUCCGGGAGCCGAAAUAGCUGAGCCGUAACGCGAGAUGUUCCAAAAAAUGGGAGCAUUUCCAAAGCGGGCUCCUACAGCCGGAAAUUUCCCAAAUUGAAAGAAAAAAUUUUAAGGGCAAAAAAAAAAAGAUUAAGAUAUUAAAAGAUGGAAAAUUACAAA'
p12
aF1.0
aa(lp13
S'The Gammaretrovirus Signal - Difficulty Level 0'
p14
aS'AGGCGAGCGAUAUAAAAAUAUUGAACACAAAAAGGGUGAAGACACUAACGUAUAAAAAUACGAAAAUUAGGUCCAUCAAGAUAUAUCUAAUGAUAUAUUAA'
p15
aF1.0
aa(lp16
S'Saccharomyces Cerevisiae - Difficulty Level 0'
p17
aS'GAGAUACCACCAAAAAAAAGGUGAGGGAAAAAAAAAAAAAACCAAAAGCUUUAAAAAAGAGAGCGUAUCUCAAAGGUUUUAGAUCGAUAAAAAAAAAUCGGGCAAAAAAAAAAAAGGCCAAAAGAUAUAAAAAAAAUAUCCUAGAACAAAGGGUGUAGAAGUACAAAAAAAAGUAUCUAUAAAAAAAAAUUAUAGUAAAGACAUAAAAAAGAUGUCCUAUACCAAAGGAUAUACAACGAAUAAAAAAUUUCGCUAUUUGAAAAAAAAAUAGAAAACAUGUAAAAAAAAUAUGGUAUAUCAAAAGAGACAUAACGAUAAAAAAAAAUCGGUUCAUAAAAAAAAUGAACAAAAACUACGAAAAAAGUGGUAUGUCUCAAAA'
p18
aF1.0
aa(lp19
S'Fractal 2'
p20
aS'AAAAAGAUAAAUCAAAGAGAGAUUUCAGGUUCAAAAAAAAAAGAGCAAGACCAAAAAAAAAAGGUCAAGAUCAAAAAAAAAAGAUCAGGAAAUCUUUCAAAGAUACGUAGCAAGAUUUAAAAAAAAUAAUCAACGAUACAAAAAAAAGUCGAGGUAGAAAAAAAAAACUACAAGCUAUGUAUCAAAGAUCCAUCUCGAGUUCAAAAAAAAAAGAACAAGGGGUAAAAAAAAUCCUCAUGGGCAAAAAAAAAAGCUCUAGAGAUGGAUCAAAGAUUUAUUGAAAA'
p21
aF1.0
aa(lp22
S'G-C Placement'
p23
aS'GAUCAAAGAUCA'
p24
aF1.0
aa(lp25
S'The Sun'
p26
aS'GAUACUAUGUAAAAUAAAAAUAGGUUAAAUACACUAGAUGGAAGAUUAAUAGGUAAAAUACAUGAUACGUAUGAUAAAUAGGCAAAAUAUAUGAUUUCAAGGAGAAACAGGUAGAAUACACUAAAUCAAAGAUUAAUAAGUAAAAUAGAUUUAAUCAAAGAAUAAUACCUGAAGUACACCGGAUCAAAGAUUAGCAGGUUACUUAUACUGUUUCAAAGAAAAACAGAUAUAAAAGAGAAUUUCGAAGAUAAAUUUUUA'
p27
aF0.872093023255814
aa(lp28
S'Frog Foot'
p29
aS'AAAAAAAAACACUCGCAAGGGUCUGUUAAUACAGCGCGUAACGCG'
p30
aF1.0
aa(lp31
S'InfoRNA test 16'
p32
aS'GAUCUCUCGCCAAAUAAAGAUUUGCGCAGUGAGAUC'
p33
aF1.0
aa(lp34
S'Mat - Martian 2'
p35
aS'GAUCAAAAGAUCAAGGAUAUAUAAGAUAUAUAAAAAAAAUAUAUCAUAUAUCAAAUAUAUAACAAAAAAGAUAUAGCAUAUAUCAAAAAAAGAUAUAUCUAUAUCGAAGAUUCAUAUAUAUCAAAAAAGGAUAUAUAAUGGAUCGAAAAAGUUAUAUAAAAUUUAUAUAUAUAUCUAAAAAUGAUAUAUAAGUAUAAAGAAGAGCUAAUGUUC'
p36
aF1.0
aa(lp37
S'square'
p38
aS'GAUAUACCUAUACCUAUAUCCUAUACAAAGUAUAGAAAAGAUAUAGAAAAGUAUAGAAAAGUAUAUC'
p39
aF1.0
aa(lp40
S'Six legd turtle 2'
p41
aS'AAAAUGUCAGUAGAAAUCAAUGCAAAAGCUAGGAAAAAUUAAAAUAAAAAUAAAUUAACAAAGAAGGAAAAUCGAUGUUAAAAAAAAAAAAAAAAAAA'
p42
aF0.9183673469387755
aa(lp43
S'Small and Easy 6'
p44
aS'UUUGCGAAAACAAAUUGAAAAAAAAGCAAG'
p45
aF0.9333333333333333
aa(lp46
S'Fractile'
p47
aS'AAAAAAAAAAAAUCGAAAGAAAACCAAAGCAAAAGCAAGCAAGGCGAAAGCAAAGCAACCGAAAGGAAAGGAAGCAAAAGCAAAAAAAAAAAAAAAAAAAAAAAA'
p48
aF1.0
aa(lp49
S'Six legd Turtle'
p50
aS'AAAAUGUUAAAGUUAAUACAAAUGGUAAUCUUAAAGCCUAAGAAAAAGUGAAAACGAAAGAGAAAUCGAAAUCGAAAUAGAAUACGAAAAAAAAAAAAAAAAAAA'
p51
aF0.9619047619047619
aa(lp52
S'snoRNA SNORD64'
p53
aS'AGCCCCGAAGGUUAGUAUACUCAGGAUCUAAAAAAAAAAAAGAGAUCAAAAAGUUAUAGAAGGGGCU'
p54
aF1.0
aa(lp55
S'Chalk Outline'
p56
aS'AAAGUGAUUGUGUUCUACUGGCGAAUAAAGCGGUAAUCUGGUUUUGUCGAAAAGUCAGAUGGCAUAUAAAGAUCAUGAAUGUAAAAAAAAAAAAAAAAAAAAAA'
p57
aF0.9038461538461539
aa(lp58
S'InfoRNA bulge test 9'
p59
aS'GAUAUAUAGAGAGACUAUAUCGAAAGAUAUAGCCCAUAUAUC'
p60
aF1.0
aa(lp61
S'Tilted Russian Cross'
p62
aS'AAAAUCUUCUGACAAAGGUUAUAGUACGUCAAAAGACGCUAUCAAAAGAUAGACACCAAAGGGUGACUAGACCUAAUUAGCGAACUAAAAAAAAAAAAAAAAAAA'
p63
aF0.9238095238095239
aa(lp64
S'This is ACTUALLY Small And Easy 6'
p65
aS'AAAGAGAGAGAGAGAGAGAGAGAGAGAGAGAGAGAGAGAGAGAGAGAGAGAGAGAGAGAGAGAGAGAGAGAGAGAGAGAGAGAGAGAGAGAGAGAGAGAGAGAGAGAGAGAGAGAGAGAGAGAGAGAGAGAGAGAGAGAGAGAGAGAGAGAGAGAGAGAGAGAGAGAGAGAGAGAGAGAGAGAGAGAGAGAGAGAGAGAGAGAGAGAGAGAGAGAGAGAGAGAGAGAGAGAGAGAGAGAGAGAGAGAGAGAGAGAGAGAGAGAGAGAGAGAGAGAGAGAGAGAGAGAGAGAGAGAGAGAGAGAGAGAGAGAGAGAGAGAGAGAGAGAGAGAGAGAGAGAGAGAGAGAGAGAGAGAGAGAGAGAGAGAGAGAGAGAGAGAGAGAGAGAGAGAGAGAGAGAA'
p66
aF1.0
aa(lp67
S'Shortie 4'
p68
aS'ACGAAAGUACCGAAAGG'
p69
aF1.0
aa(lp70
S'Shape Test'
p71
aS'AAAAAGGCGAUAAUAUAUAAAAAAAAAUAUAAAUACACGCACUAUCAAAAAGAUAGAUGUCAAAAGAUAAGCGGUAAAAUCGACAAAAAAAAAAAAAAAAAAAA'
p72
aF1.0
aa(lp73
S'The Minitsry'
p74
aS'GGCUAACUGGUUAAAUCGUAAACGUAGAAAAAUAGUAAAAAAUCUAGCUAAACGUACCUGCC'
p75
aF1.0
aa(lp76
S'stickshift'
p77
aS'AGCUAUACGAUAAAUUCAGUAUAGAA'
p78
aF1.0
aa(lp79
S'U'
p80
aS'AAAAAUAGAUAGAGAGCAGACGAUAUAUCAAAGGAUAUAUCGCGCCCAUUUAAAAAA'
p81
aF1.0
aa(lp82
S'Still Life (Sunflower In A Vase)'
p83
aS'AAAGAUCGAUGUUUGAAAGGAACAAGUAGGCAAGGCCUAAAGUUUGAAAAACAAACAACAAAGAAAGUAAGAACAUCAAAAAAAGAUGAAUAACUCAAAAAUAUAAUGUAUAUUUAUUUAGAGGAAUUUCUAUCGAAAAAGAUAGAGAUAGAAAAAAAAAAAAAGAUGAAAAAAAAAAAAAAAAAAAAAAAAAAAAAAAAAAAAAAAAAUAUCGAAAAAAAAAAAGCUAUCCGGAGGAAACUCUGAAAAUUCCUUUAAAUAGAUAUAUAGAGUUGGAACAAUCGGCAGUACAGAAAAUCUCUAAACCGAUUAAAAAUCGGCAGUUAUUAAAUAUAGCAAUGGUUAAAAAACCAAGUAACAAAAAAAGGGAAUAUCAAA'
p84
aF0.9682539682539683
aa(lp85
S'Quasispecies 2-2 Loop Challenge'
p86
aS'AAAAAGAUAAAUCGACGAUAAAAAUCGAAGAUUACGGUAACAAAGGAACCGAGGGCAACAACACAAAAAGUGAAGAAGUCUUAUCAAAAAAAAAAAAAAAAAAAA'
p87
aF1.0
aa(lp88
S'Corner bulge training'
p89
aS'AGAUAUCGAUACAAAGUAUCAAAAGAUAUCA'
p90
aF1.0
aa(lp91
S'Spiral'
p92
aS'AAAAAUAUCAGAUAUCAGACAGAUAUAGAUCAGAUCACUACUACUACUACUACUAAAAAAGAGAGAGAGAGGAUCGAUCAUAUCGUCGAUAUCGAUAAAAAA'
p93
aF1.0
aa(lp94
S'InfoRNA bulge test'
p95
aS'AAAAAAAAAAAAAAAAAAAAAAAAAAAAGGGCUGAAAAUUCGAUAAAACUGAAAGGGAAUUACGGUAGCGAAAAAAGCGAUGUGGUGUCGAUGAAUAUGGGAAAUUCAGAAAAAAAGCAUUA'
p96
aF0.9672131147540983
aa(lp97
S'Worm 1'
p98
aS'AAAAAAAUGCUGGUGUAUAAAUGGAAAAUAGUGUAGAUAAACCAA'
p99
aF0.9111111111111111
aa(lp100
S'just down to 1 bulge'
p101
aS'AAAAAGAACAGAUAUAAAAAUAUCAUACGAAAGUAAGUAUCAAAAGAUCAGACAAAAGUCAGACAAAAGUCAGAUCAAAAAAAAAAAAAAAAAAAA'
p102
aF1.0
aa(lp103
S'Iron Cross'
p104
aS'AACCACCUAAAGGCAGACAAAAAGGAAUUAAUAUUAGCCAAGUAGGGUGAAAAUACAAAAAAAGCCAUUGAAAGCUACGGAAAAUCGAGGCAAAGUCGAGCAAAGAGCCUUAAUGGGGGGUAA'
p105
aF0.9024390243902439
aa(lp106
S'loops and stems'
p107
aS'AAAAAUACAUAUAAAGAUCAAAUUUCAAAUGACGAAAAAAAGGAUAUAAAAAAAAAAAAGUAUCAAAGUCAAAAAGAUCAAAAAAAAAAGAUCAAAGAGAAAAGGAGAAAAAAAUUCAAAGAUCAACUAAAAAAAGAAAAUAUGUAAAAAA'
p108
aF1.0
aa(lp109
S'Water Strider'
p110
aS'AAAAGGGUUUGGGGCUUAUGCUAAUGCGGAAAAAGUUCGAGCAAAAUAGCCGAAAAUAGCUGGAAACAGAGUCUAACAGUUCAAAAAAAAAAAAAAAAAAAAA'
p111
aF0.9029126213592233
aa(lp112
S'The Turtle(s) Move(s)'
p113
aS'AACUCGAAAGGCUAAAAUAUAUAUAAAAAAAAAAUAUAUAUUAAAAUGUCAAAAGGACAAAAAUCGGACUGUCGUAAUCUAUGAAAAAAAUAGAAAAAUCUAAACCAAAAGCAAAAAUUGAAAACCAAAAUAAGUCCGAAAAAAGGAUUUAAAAUAGGAAACUAGAAAAUUUAGCAAAAAGCAAAAAAGGCUGUGCGAAAAAAAACGCUCGUAUAGAAAAAAUUAUAAAAUAUGGAAAACAUAAAGUUAAAAAAAAAAACCCGAAAACUAAAAGCUAAUGUAAAAAAGAAAAAAAAAAAAAAUUUUCAAAAAAGGA'
p114
aF0.9620253164556962
aa(lp115
S'Adenine'
p116
aS'GAUAUACUAUAUACUAUAUGCUCUAUGCUAUAUACUAUAUUAAUGAUAUCAAAAAAGAUAUCCAUAUAGAUAGUAAAUGAUAUACAAAGUAUAUCUGCUAAAUAUAGAGAUAAAUAUAUCAAAGAUAUAUAAAUUAUCAAUAGAGAAAAAUAUAGAAAAAUAUAGAAAAAUAUC'
p117
aF1.0
aa(lp118
S'Tripod5'
p119
aS'AACGAGCGUUGAAAAAACGCCAUAAAAAAUGGCUCGGA'
p120
aF1.0
aa(lp121
S'Shortie 6'
p122
aS'GAGAAAUCAGCAAAAGCGUCGAAAGAACCGAAAGG'
p123
aF1.0
aa(lp124
S'Runner'
p125
aS'AAAAAUCUAGUAACGAAAAGAUCAAGGUUUAGAUAAAUGGUUACGAUACAGAGUAUAAUCCAUACAGGAUCUGAAAUGGUAACUAAGCAAAAUGUAAAAACAAUGAAGAGGGAAAA'
p126
aF0.9224137931034483
aa(lp127
S'Recoil'
p128
aS'AAAAAGAUAGAACGAACCGACGCAACGCAACUGCCGAAACGAAGAGCGAGUGAGGACGAUUAUCAAAAAAAAAAAAAAAAAAAAA'
p129
aF1.0
aa(lp130
S'[CloudBeta] An Arm and a Leg 1.0'
p131
aS'AAAUGGAUAGACCCGAAAGGAGUCGAGUGCAAAUGCCUCGGUCAAAAAAAAAAAAAAAAAAAA'
p132
aF1.0
aa(lp133
S'[CloudBeta] 5 Adjacent Stack Multi-Branch Loop'
p134
aS'CAUAGCGAUGGAAGUCGGGUCUAAAAAGACCGGUUUGAAAAGACCGAGCGAAAGUUCCUAUGA'
p135
aF1.0
aa(lp136
S'Triple Y'
p137
aS'AAAAGUGUUGAUCAACUGAAAGUAGUAUAGAAAUAUAUAGGGGUGGAAUUAAUGAUCUCUCGCAAGCGGCACGACUCAAAAAAAAAAAAAAAAAAAA'
p138
aF0.9175257731958762
aa(lp139
S'Misfolded Aptamer'
p140
aS'GUUUGAAAAAGGGCCGAAGGCAACUAAUGUACAAAAAAACCGAAAAAAGC'
p141
aF1.0
aa(lp142
S'Flower power'
p143
aS'AAAGAGUCGGUUAGAAAAUGUUCGCCCAUUAUAUGGAUUUUGUACCAAACACAUAGAAGAUAGUGGUUUGAAAGUGAGUGGCGAAAAAAAAAAAAAAAAAAA'
p144
aF0.8431372549019608
aa(lp145
S'Kudzu'
p146
aS'AAAAAGAUUUGAGAGCCUCACGCAACCAAAGGUGUUGGAUUCUUUAAGGAAAAAAAUCAGAAACUCUAAGGCACAAGCGUCGAAAAAAAAAAAAAAAAAAA'
p147
aF0.9405940594059405
aa(lp148
S'"1,2,3and4bulges"'
p149
aS'AAAAAGAGCUAUUCGAAAACGAAAUGACUUCGAAAAUGAUGUAUCAAAAGUGUAGGGAAAGUGAGUCGGGCAAAGGCCAGGAAGCGAAAAAAAAAAAAAAAAAAA'
p150
aF0.9142857142857143
aa(lp151
S'medallion'
p152
aS'GGUAUGUGACAUCAAAAGAUGUCUAACAAAAGUCAUGAAAAGGCAAUAGAUCAAAAGAUCUGAAGCAAAAGUUCCAUAUUAAAAGAUAUGAUAAUAAUUUAAUAGGAAACUAAUAUGUGAAAAUACAUAUUGAAAAGUGAAAUUAUUGAAAAGUAAUGGAUAAAAGUCAAAUAAAAAUAAUAUAUAGAAACAUAUAAUAGGAAACUAAUAAAUCAAAAGAUUUAAUAUAAAAGUAAUACAAAAAUAAUUUAUCAAAAAAUAGAAUAGAAAGGAGAUAUAUGAAAACAUAUAGGGCAAAAGCUACGGAAAAUUAAUGUAACAAAAGUUAUAGUAUAUC'
p153
aF0.857566765578635
aa(lp154
S'[RNA] Repetitious Sequences 8/10'
p155
aS'AGGAAAAAAGCAAAAAAGCAAAAAAGCAAAAAAGCAAAAAAGCAAAAAAGCAAAAAAGCAAAAAAGCAAAAAACCAAAAA'
p156
aF1.0
aa(lp157
S'Documenting repetitious behavior'
p158
aS'AAAAAAAGGAAAAAAAAAGGAAAAAAAAAGGAAAAAAAAAGGAAAAAAAAAGGAAAAAAAAAGGAAAAAAAAAGGAAAAAAAAAGGAAAAAAAAAGGAAAAAAAAAGGAAAAAAAAAGGAAAAAAAAAGGAAAAAAAAAGGAAAAAAAAAGGAAAAAAAAAGGAAAAAAAAAGGAAAAAAAAAGGAAAAAAAAAGCAAAAAAAAAGCAAAAAAAAACCAAAAAAAAACCAAAAAAAAACCAAAAAAAAACCAAAAAAAAACCAAAAAAAAACCAAAAAAAAACCAAAAAAAAACCAAAAAAAAACCAAAAAAAAACCAAAAAAAAACCAAAAAAAAACCAAAAAAAAACCAAAAAAAAACCAAAAAAAAACCAAAAAAAAACCAAAAAAAAACCAAAAAA'
p159
aF1.0
aa(lp160
S'7 multiloop'
p161
aS'AAUUGACCUUAAUAGGUCGAUAUAAGGGGCCCCGGUGUAAUGGUCGUGUGCUAAUGUGUGGAGAUGAAAAUCUCGGAUUAAAAACUCGGAUC'
p162
aF0.8695652173913043
aa(lp163
S'Kyurem 7'
p164
aS'AAAAUUUUCGGGAUGAAAGCAUCGCAAAACGAAGCGUAAAAAGCCAGACUUCAAAAAGGAAAACGUCUACGGUCCUUAGAAAUAAAAAAAAAAAAAAAAAAA'
p165
aF0.9411764705882353
aa(lp166
S'JF1'
p167
aS'UGUAUAGAUACUUUAAGAACUAUCGAAAGAUAUCGACUAUCUAUCUAUCAACUAUAUACUAUAUAUAUAUAUAAAAAUAUAUAUAUAUAGAAGACAAAGGUCAUAUAUAUAUAAAGAUAUAUAUAAAUAAGAAAAAUCUUAAAUAUAGAGAUAGUGAUAGAGAUAUCAAAGAAAUAUCAAAAAGAUAAUUUCAAGAUAGAUAUAUAUAUAUAUAUAUCUAAUGAUAUAUAUAUAUACUAUAUCUAUCAAACUAUCAAAAAAGAUAGCUAUAUAUAUAAAAAUAUAUAUAGAAAUUUCAAAAGAAAAAGAUAGAACUUGAUUAUCACGCACGCAAAGGCGGCGGAUAAGAUACAUAUUAAUAUAUGAUAUCGGUAUACUGUUACAAAA'
p168
aF1.0
aa(lp169
S'multilooping fun'
p170
aS'CCAUUAAGUAAAGGGAGAAAUAUAUAAGAAAUGAAG'
p171
aF0.8333333333333334
aa(lp172
S'Multiloop...'
p173
aS'GUUGAUAAGUCACAAAAGCGAAACAAAAGUCAGAAAAAAGUCGGCCUAAUGGGAGCCAAAAGUCAAACAAAGGUCUGUUGACUAUCAAAAAGGGUAAGGAAAAAUCCCAAC'
p174
aF0.9279279279279279
aa(lp175
S'hard Y'
p176
aS'AAAAAUGCCAUCGGAUUCAUUAAUAUGAGUACCACAAUAGAUAUUGAAAGAUAUCUAUUGGCAGAAAA'
p177
aF0.9705882352941176
aa(lp178
S'Mat - Elements & Sections'
p179
aS'AAAAAGUUCUGUAACUCGAGGCUGUGCCAGACGAUACAGCCAGAAAUGGAUAGAUCGCGAGCACUAAUGACUUGUGAAUCUGAGCAAAAAAAAAAAAAAAAAAAA'
p180
aF0.9619047619047619
aa(lp181
S'Chicken feet'
p182
aS'AAAAGGUGCUGGUUAUGUUUGAAGAGUAAAGACACGGGAAGAGGAGGUUUGAUAAAAAUUCGUAAAA'
p183
aF0.7313432835820896
aa(lp184
S'Bug 18'
p185
aS'UGGUCGACCGUCUAGUGAUUAACAAAGGUGAGAACUCAAAGGAGCGUAAGCUA'
p186
aF0.9245283018867925
aa(lp187
S'Fractal star x5'
p188
aS'AAAAAAAUAUAGUAACGAUAAAAAUCGAAUAGCAAAAGCUAAAUGUCAAAAGACAAGGUUCGAAAGGACAAACUAUAUAAAAAUUAUAACUCAGGGAUGAAAAUCCAGUAGCUAAUGCUGAUUAGCAAAAGCUAUAUGUCGAAAGAUAAAGAGUUGUGUAAAAUGUGGUUGAUCGUGAAAAAACGUAUAGCAAAAGCUAAAUCUCAAAAGAGAAAUAUCAAAAGAUAAACAGCUCUAAAAAUUAUAUAAAGACAAUAAAAAUUGGAUGUCAAAAGACAAAUAUCAAAAGAUAGAUUUCAAAGGAGAAAUAUAUAUAUAAAACUCUUGUGGUUCAUUGAUGACGUAUAUUAAAAGCUAAGUCUCAAAAUGUUAAUAUCAAAGGAUAAAGAUAAAAGGAAAA'
p189
aF0.955
aa(lp190
S'Crop circle 2'
p191
aS'GCCAUCGAAAAUCUAAACGCAAAAAAAAUUGAAAAAAAAAAAAAAAAAAAAAAAAAAAAAACCUAAAAAAAAAAAAAAUUAAAAAAAACUCAAAAAAAAGUAAUUCAAAA'
p192
aF0.9454545454545454
aa(lp193
S'Branching Loop'
p194
aS'UUUGCAGAAAAAAAACGUUGAAAGACGGAGCAAUAAAAAA'
p195
aF0.95
aa(lp196
S'Bug 38'
p197
aS'AGAGAAGGGCUUAACAAUGAGAUCCUGAAAUAGUCG'
p198
aF0.8888888888888888
aa(lp199
S'Simple Single Bond'
p200
aS'AAAAAAGGAAAAAAAUAAUCGAAAAGAUUUAAAAAAAACGAAAAAAAAAAAAAAAAAAAAA'
p201
aF1.0
aa(lp202
S'Taraxacum officinale'
p203
aS'GCUCAAAAGAACUAUGCGUAAUUAGUAAUUCCGAAAGAGAAAUUACGAAAGAAGUAUGGUUAAUAAAUAGUGCCGUAAGAGCAGUCUUUAUAUAACUAUAUGGAUCAAAGAUCUCAUAGAGGCACCCAACUAGGUAUUUGACUACCCCAAGGGGGUAGAAAAUAUCUAGGAGAACGGUGCAAGGUACUGUCUCGGGUGAAAUUGUAUAGAGAGGACCAAAGGAAAUGAGACAAAAGAACUAGUCUAAAAAAAAAUUGUGAAAACAACAUUUUUAAAAGUAAA'
p204
aF0.8439716312056738
aa(lp205
S'Headless Bug on Windshield'
p206
aS'GCAAGAAAAAACUGACUCGUCUCGCGAAAAAAAAAAAAAAAAAAAAAAAAGCGUGAAAUGUUAAGAAAACUGAAUUGAGCGCAACUAAAAAAAAGGAAACUGAAAAAGAUGCGAAAAAACAAAGAAAGUAAAAAAGAAAAAUUAGGCAGCGUCGCAAAAAAAAAAAAAAAGCGUCUGAAGCCAUAUGACAAUUUUAUCUA'
p207
aF0.92
aa(lp208
S'Pokeball'
p209
aS'CAUGGGCCUUAAAACCAACUAUCGCGAGUAAGAUAUGAGCUGGACAAUGGAAUAAGGAAGGGAGGACGAAGGGCUGAGGAGAUUGAGUUAAAAAAACCUGUCAAAAAUCAUUUAACUCUACCGAAUGACGAGUGUACUAAGUAAAGCAAGGUGGAUGAAUAAGAGGAGGAAGGGUGAUGGGGAA'
p210
aF0.8206521739130435
aa(lp211
S'Variation of a crop circle'
p212
aS'AAACAGGAAGUGCAAACCGAAUCUAAAGGACGAAGAGGACGGACAAGAAAAAACGAAAAAAAUGAAAAAAAAACAUAAAAAAAAAAAA'
p213
aF0.9090909090909091
aa(lp214
S'Loop next to a Multiloop'
p215
aS'AGCUGUAUAGAAAAAAACACUAUGUAAAGACAUAGAGUCAUAUGAAAAUAUGGUGGGAAAAAACUAUACAGAA'
p216
aF0.9726027397260274
aa(lp217
S'Snowflake 4'
p218
aS'GAUGAAACCUCUAUAUCUAAAGACCUAUGAAGGUGGUAAAAAUGCCAUCUAUCGAAGAUAAAUCUCAAGGAGGGAGGGCUAAAAAGUCACCAGGACAGUCAAAAGAUAUACGAUCAAGGAUAAAUAUCAAGGGUAGUAUAGCAAAAGUCUGUCAUGACACUCAAAAGAUAGAUUGUCAAAGCUGAAUACUAAGGAUAGUUUAUCUAAUGUGUGUCUGGAUGGUCAAAGCGUAUACUACGUAUUGUAAAAAUCAAGGAAUGUAUAGGAAAGGACUAUCAUGAUAUAUGAAAAGCUAUCGGUCAAAGGCCAAUAAGAAACUUUGAUAGAUGAAAAUUUAUCUAUAUAGCUAAAAAGAUAUAUAUCAAGGAUG'
p219
aF0.8324324324324325
aa(lp220
S'Mat - Cuboid'
p221
aS'UAACCAAAAUCAACUAAAACUAACAAAAAGAACUAAGAAAAAGCAACAAGUUAAAAUUACUAAAUAACUAAAACGAACUAGCCUACUAAAACGGUCAAGCUAGUGAACAAAAACUAAUUAACUAACUAACGAAAUGCGAGAAGUUGAUCAGCUAACGAAAUCUAACUAACUAUCUUACUAACGAAAAGUAAACAAAUGACUAAACAAUUGAAAAAAAAAGUAAAGAAAGAAGUAACUAGAAAGAAAGUAAGAGAGAAAGUGAAAGAAGAAAACAAAUAAGCAGAAAAAGAGAAAGGAAAUGAAAGAAACAAUGUAUUACAGGGAAAGGAAGAGAAAGAAAGAUAAGAGAGAAGUUUAUAGAACGGAAAGAGAAGGGGAAG'
p222
aF0.8394736842105263
aa(lp223
S'Misfolded Aptamer 6'
p224
aS'AAAAAAGAAGAAAAAUCAGAAGUAAGAACAAAAAAAGGUUAAAUCGAAAACUGGAAAAAAAUUCGAAAAAAAAAA'
p225
aF1.0
aa(lp226
S'Snowflake 3'
p227
aS'GGUCUAAAGAGAGAUUGCAAAAGGAAGGUUCUGCGCAACUCAAAGGAGCGCACUAAAGAGCCCAAGGGGCAAAAAAGGGCGCGCAAAAGGGAAGUGUGGAUCAACGCAAAAGCGGAUGCUAAAAAGUGGAAACCGCUAAAAAGAAUUGGCAAAAGCCAAGAUCAGAUCAAUGCAAAAGGGCGCGUUAAAGAACGCAACGCGCUAAAAAGACCGCUCAAAAGGGAAGGUCAGCUUAACCCUAAUGGGCUCGGUAAAAAUCGCAAAGCGCGAAAAUAAGGGGAAAAAUGCGAAAAGCAGGUCGACCCUAAUGGGCUAACUAAAGAGCGCUAGGCGCUAAAAACAGCGUACAAAAGCAAAGAUCUGAGCAAGAUAAAAAUCAUCACGAAAAAGACC'
p228
aF0.8142493638676844
aa(lp229
S'Hard Y and a bit more'
p230
aS'AAAAAGAACUGGACUUUCUAAUGAGACGUACUACUUCGAUUAGCGAAAGCUAUGAUUAGAAAAAACUGGUAACAUGGUAGGGUUCGAAAAAAAAAAAAAAAAAAAA'
p231
aF0.9716981132075472
aa(lp232
S'Mat - Lot 2-2 B'
p233
aS'GAUGCCAAGGAUACCUAAAAUUGACCGGAAAAUCAAAACGGAAGAGAAGUAAACCCAAGGCAGCGCAAGCAACCCAAAAUAAAACUAAGUACAGUGAAACCGGAAAAGCAAUGUAAAAAUGAAGAGAAAACUAAGGAACUGAAACGACAUCGAGAACGAAAACUGACGUUAAAGAGAAAAUGGAAGCGAGUUAAAACGUAAACCGGAGAAAGAAGCGCAACGAAAACCGAGCGUAACUAAAACCAAAAGGAGAAGUAAAAACGAACAGGAGAGAAAAGAAUUGC'
p234
aF0.7852112676056338
aa(lp235
S'Shapes and Energy'
p236
aS'AAAAAAGACGAGGCCGUUAAAAGAAUCGCACGAGAGUGCGAGAACGUGGGUCAAAAAAUCAUUGAAAGAUGUGAUUUGGUGAAAAAAAAAAAAAAAAAAAA'
p237
aF0.9603960396039604
aa(lp238
S"Spiral of 5's"
p239
aS'CAAAAUAUCAAAGGGGAUAAAGAUAGAAAUGGACUAAGGGUGUAAGACGAGAUGUAAUAAAAUGUAUAAUGAUGUAAAGAUAUAGGGAUCUAACAAUUAACAGUCUAACUAUCGAUGUUAUUGCUACCAACGGUCAAUGAGCUACGUACAGAUCUAGAUAUAGGUCAAAAAGACCUAAAAAGUAUCGAAAAAGAUCGAAAGGUAUGAAAAUGUUUGGAAAAGGCCGGAAAAGGUAGAAAAUAUAGCUAAAAGGUGGAAAAAAGACUAAAAAAGUUGAAAAUGAUCUAAAAAAUAUCGAAAAACAUCUAAAAAUAUAAAAAAAUUACUAAAACUCGUAAAAAAUAUCAAAAAAGUCUUAAAGCUAUUAAAAAAUCCCAAAAAUGAUAAAAAGGAAAAA'
p240
aF0.9949622166246851
aa(lp241
S'Campfire'
p242
aS'AAAAAUUCAAUUCAUAAGGCCAAAGCUUAAAUAGUUGACUCGUAUUGAAUUACACCGGUUUCAAAACUACGAUCUCAUGAAUCGGGUUAUGUGUCUACCAGUUAAUAUGGAGAUGCGCACGAAACCAGCACACAUGACCAGGAGACUUAUGGUCUCUCGAACGGAGGGCUAAUAUCCUCGUCGGUUACUUUAAGGAGAUGAAACUGCGGAGU'
p243
aF0.8160377358490566
aa(lp244
S'Anemone'
p245
aS'AAAUGUUACUAAUGUAAUAGACAUGAAGAUUCAGGGCUUUAAUAAGUUCCCUAUGAAGAUAGCGCAAUGGAAACAUUGCCACGAUCAAUAGUAAUGUCGAAAGGCGUGAAAUCUAAUGAUUUCAUAAUAGAAAGAAUACUGUUAAAGGUAGCAGGCUCUGAAAAGAGUGGCAGCUAAUGUUGCCAGAUUAAAGAGUCUGAUGCUGAAGAGUAUU'
p246
aF0.9345794392523364
aa(lp247
S'Fractal 3'
p248
aS'AAAAAAUCCAGCAAUCAAAUGGGCGAAAGUGCGAGUAUGGGAAAAGUUGAAAGUUAAUAGUAUAUAGAAAGGGGAAAACCGAUAAUUCGGAGAAAUUAGGAAGGAAAAAUGGAUAAAAA'
p249
aF0.865546218487395
aa(lp250
S'Kyurem 5'
p251
aS'AAAAUGAUUCUGGGCUAAUGCUGAUAAAACCACGAACUAAAGCUAAAUGCCGUUCAUUGAAAAAAGUAGUGGACUCAGCCAAUCUAAAAAAAAAAAAAAAAAAA'
p252
aF0.9807692307692307
aa(lp253
S'Snowflake Necklace ( or v2.0 )'
p254
aS'GUUCUAUUUGCAUAGAGAUAUGCGAAAAAAGGUGAAAAAUAAUCGAAAAGGAUCGAAAAGAGGCAAAAAGAAAUAGCGCAAGAAAAUUGAGAUAUGUUAAAAAGGGACAAAAAGUUUCAAAAAGAACGAAAAAAUAUCAAAAGGACAUAUCAAACAAAAAGUUAGAUAAACUAAAAGAGGUCAAAAAAAAUUAAAAAGAACAAAAAAGGGUCAAAAAGGUAUCUAAGAUAAAAAGUCAGAUCGUCGUAAAACAUGCAAAAAGCAUAAAAAAGAAGGAAAAAGCAUCGAAAAGAACGAUCAGACGAAAAGUCAGGUGUGCCGAAAACUUUCCAAAACAAUCAAAAAGAAUUAAAAAGAACUAAAAAGAGAUACCACUAUGUAAAUAGAGC'
p255
aF0.8020565552699229
aa(lp256
S'Methaqualone C16H14N2O Structural Representation'
p257
aS'AAAAAAAGAUCAUAUUAUUUAGACAAAAGCCAGUUACGCAAAAGCGAGAUAUACGAAAGUAAGUCACGCUAAUGCGAUUGAAAAAAACAAAGUCAAUCAAACAAAGAGAAACAAAUAAGAUCAAAUCACGCAAAUCAAAGAAAAAAAAAGCGAGAUAUGCAAAACCGUGCAAAAGCAUGUAAAAGCAAUCAGAAAUUGUCAGAAACACACACGCACGUAUUUAGGAAAAAAACAAAGGUUAGCGAUGCAAACGCAAAGAACCCAAAAGGGGACGAUACAAAAGUGAGCGAUAAGCUAAACAUCCGCAAAAGCGAUCAAAAAAGGAUAAGUAUGACAAAAGAUCAGAUUAAAAAAA'
p258
aF0.8873239436619719
aa(lp259
S"Cat's Toy 2"
p260
aS'AAAGUGUGGUUUAAAAUAAACGAAAAAAAAAAAAAAAAAAGGGCAGAGGCAAGGGCAAAUAUAAAGACAAAAAAAAAAAAAAGUAAAAUCACGAAAA'
p261
aF0.979381443298969
aa(lp262
S'Zigzag Semicircle'
p263
aS'AAAGCUGACGCAGAUAAAAAAGCCACUUCGAGAA'
p264
aF0.9411764705882353
aa(lp265
S'Short String 4'
p266
aS'AAAAAAGUACGAAUUUAUAAUAGGGAUGAAAACGUCAAUUAAUACAAUGAAAAAGAUAAGCCAAAGGUAUAAUGGUAAAAAAAAAAAAAAAAAAAAA'
p267
aF0.9381443298969072
aa(lp268
S'Gladius'
p269
aS'UAAAAAAAAAAAUAAAACAGAAGUAGGAAGAUAGGUAAAAUUCAAAAGAAUAUAGAGAAUACGCAUGACGAUCAUACGAUAAUACUAUGUAGCCUAUACACUAUCACGACUAGAUAACGAUUAUAUCGAAUCACGUCGGAAUAGGAUAUAGCAUAUAUAGGAAAAUCGAAACAUCGAGCUGCGAAAGCUCUAGACCAAAUCCAGAAGGGCAACGCACAACGAUAUAAUGAUUGAACUAUAUCACUAUACAAUUUCAUUAUAAACGCACUAUAUAAAAAUAUAGGAGCGGGUAUAAAGAAAACGUAUAAGGAUAUAGAUAUAUCAAAGAAUCGGAAGGCGAGUACCUUCAUAUCAAAAGAUAAAAGGAAGUUGAACGUGGUAAGAAAUUAAAUAACAAAAG'
p270
aF0.885
aa(lp271
S'Thunderbolt'
p272
aS'GGAAUGGGGAAAAAAAACUGUAGUCAGAGUGGUUAAUAAUCUAUGUUAAAAAAAAACGAAAAAAUAUAAAAAGUGUAAAAAAACAAAAUCAACUAAAAAAGUAAAAAAAAAUAAGAAAGGACUAAAAACGCAAGAGCUUAAAAAGAAAAAAGAGAGUGUAAAAAACGAUAAAAGUUCAGGGCAAAGAAAAAAAUAGUAUUAAAAGAUAGAGAAAAAACAAAGCUCGAAAAAAAAACCAGGGCCUGCAGAAAUUAUAGUAGAACAGAAAAAAAAAAAGAAGGGAAAAAAAACAAUUAAAAGCUCUACAAAAUUAAAAAAAAAUAAAAGUAGAGAAAAAGCAAAAUGUAGAAAAAAAAAUAAUAAAUUGAAAAAUAAAAAAAAACUUUGAACCA'
p273
aF0.8979591836734694
aa(lp274
S'Mutated chicken feet'
p275
aS'AAAAAAAGGAUUAUCAAAGGAGAAAAUUGAAAUUAAGUAUUUCAGAAUGGGUGAAACAAUGUCAAGAACUGCGAAAGAAGUCAUGCAAAAGUUAAAAAAA'
p276
aF0.8
aa(lp277
S'Chicken Tracks'
p278
aS'AAAAAAAAUAUAUACCGUCGAAAGAUGAAUAUCAAAAGAUGAGGGUUAAAAGACCGUAUAUAGACGCGCACAAAGUGCAAGAUCAAAGAUCAAAGUGAAGCACUGCGAAAAAAAAA'
p279
aF1.0
aa(lp280
S'Looking Back Again'
p281
aS'GAGAAAACGAUCAAAAAUAUAUCAAAGAUAUGAGAUCAAAAAAAUAAGAAUAUUUAGUUACGUAGAAAGAGCAAAAGCUCAAAGCUACCAAGUGGACUCGAUAUCUGUAAAAAUACUUUUAGAGGUAAAAAAACUAUCGUAGAUACGAAGUAUCUAUUCUAUGUAGAGAUAUACCAAUAAAAAUAAUAAUAACGAUAAAGAUCGAGAAAAAAUAAAGGGCAGUAAUGUCAAGGUAUUAAAUUAUAGAUAAACAUGACGUGAAAAAAUAGAGAUAAAAAAAAGGUCAAAAAGAUCAUCUAAAUUAAAGAACUCUUAAAAUGGUCUAUUAAAAGAUAGGAAGCCUCUAUGAAUAUAUAAAGUAUAGAGGCGCUAAAGCAUCUUGUAAAUUG'
p282
aF0.8303341902313625
aa(lp283
S'Multilooping 6'
p284
aS'UUCUUUCCUUUUUUCGAAAGAGGGUAGCUGAAAAGCUAAGAGGCCGUAGGAAACUACGUAUCUAAAGAGAUAAUUGAGAGUA'
p285
aF0.926829268292683
aa(lp286
S'Cesspool'
p287
aS'GAAUAAGAAAAGGAAACAAAACAUGUAAAGCAAAAAAAAAGUAAGUAAUAAAAAAAAAUAAUAAAAAAAAAAAAAUAAAAAAAGAACAAUAAUAAAGAAAUAAUACAAGAUGAGAAACUCAAAAAGCAACCAAAUAGUAAAAAAAAAUAAUAAAAAGAAAAAAAUAAAAAAGAAAAAAUCAUUAAAAAAACAAUACAAUAUACGUAAAGCGAAAAAACAGAAAAAAAUAAAAAAAAGUAGUCAAAAAAAAAAAAGAAAACAAAUAGAAAUCAAUAACAAAACAAUACAAUAUACGGAAAGGGAAAAAAAAGUAAAUUAAAAAAUAUAAUAAUAAAGAAAAAAAAAUAAAAAAAAAAGA'
p288
aF0.7262569832402235
aa(lp289
S'Hoglafractal'
p290
aS'AAUUCGUACUAUCAAAACUAUCAAAAAAGAUAGGAUGGGAUCAAAGUCGAAAAAGAUCGAGCUCCAAGACAAAAGUCGGAAUAAAAAGAUCAAAGUUUAAAAAAGAACAACAUGCAAUGGAAAAACUAGCAUUACUUAAUAGAAAUAUCAAAACGCAAGCCAAAAAAGGCGCGCCACUUAAAUAGGGCGCAAAAGAGAUAUAUUAAAACCAGUAAAAAAAGGGCGCAAAAAGCGGAUAAUACUGAUAUCUAAAAACGCAAAAAAGCGCUAAAAAAGAAAUAUAUACAAAGUAUAUAAAAAAAUGAUAUCUAAAAUAUAUAAAAAAGAUAAAAAAUAAAUCGACAAAAGACGAUCAUAAAAGCAAAAGCAGAAAACUUAUAUCAAAGAUAUAAGUGGCGAC'
p291
aF0.875
aa(lp292
S'Bullseye'
p293
aS'AAAGAUCGAUAAAAUCGUUUUUUAAAAAGCUACCUCGAAGAGGAUUGAAAAAAAUAAUACAAAAUGUAGAGAUCAAAGAUCAAGAUCAAAGAUCUAAAAAAAAAUUAACACUAAAAGUGCAGUUCAAAGAGCAAGAUCAAGGAUCAUAUAAAAAAAUUCGAUUUAUUAUCAAGAUCAAAGAUCAAGAUAAAAGGUCGAAAAA'
p294
aF0.8217821782178217
aa(lp295
S'Shooting Star'
p296
aS'GAUCUGGAUCGAUAUUGGAGGAAAACUGCUGACGCACUAAAAAAGGGAGCAGAAAGGAUCAACUAUAUUAAAUACACUAUUCAUGCGGACUAUCACCCACGGUACCAAAGAAGACCAGGGGGAAUAAGCCGAGAGUAAAAAACGAAAGAAGACUUAUACUCUUUAUGAUAGCGUUUACAAGAAGAUGUAAAAAAAAUAAAAGAUCACGAUACCCCAAAUUAUAUCUAUGAUAUAAAUAUGGAAACCAUAGGGGGAUGUGCUACGUAUGUCAUAUACGUAAAAUAAUCGGCUCAAAGAAAUUAAUAAUAUGAUACGCUAGAUACGAAAACGGAUCACGCGAAACUUAAGAAAAGAGCACAGAUCA'
p297
aF0.8159340659340659
aa(lp298
S'Teslagon'
p299
aS'AAAAAAGGAAAAAAACGAGGAAAAAAGGCAGCAAAAAAAAAAAAAAAGUAAAAAAAAAUAGAAAAAAAAAAAAAAUGGGCAAAAAAGUCAGGAAAAAAAGUAAAAAAAAAAAAAAGGCAAAAAAACAAGAGAAAAAAACAUCAAAAAAAAAAAAAAAGAAAAAAAAAAGCAAAAAAAAAAAAAAAGUAGCAAAAAAAUCGGGAAAAAAAUCAAAAAAAAAAAAAAAGUAAAAAAACCAGGGAAAAAAGAAUGAAAAAAAAAAAAAAGGGAAAAAAAAGUUAAAAAAAAAAAAAAGGGAUCAAAAAAACCAAGAAAAAAACAAAAAAAAAAAAACUAAAAAAAAAAAAAAAAGAAGAAACAAACCACGAAAAAAACCAAAAAA'
p300
aF0.9214659685863874
aa.