(lp0
(lp1
S'Simple Hairpin'
p2
aS'GAUACAAAAAAGUAUC'
p3
aF1.0
aa(lp4
S'Arabidopsis Thaliana 6 RNA - Difficulty Level 0'
p5
aS'GACAUAGGAGCGACAAAAAAAAAAAGUCGACAGAUAAAGAUAUAUAUAUAUAUGACUUAAGAUACAAAAAGGUAUCCAGUCAUAAUAUAUAUAUAUCGGUAUUUGUCAACUAUGUC'
p6
aF1.0
aa(lp7
S'Prion Pseudoknot - Difficulty Level 0'
p8
aS'GAUAGCAGAUCAAAAGAUCGCUAAUCAAAAAAAAAA'
p9
aF1.0
aa(lp10
S'Human Integrated Adenovirus - Difficulty Level 0'
p11
aS'GAUAUAGAUAUACGGGAUAUUAAAAAAAAAAGACUACGAGAUCGAGAGGGCUAUUGAAAAAGAUAUAACUUUAUAAAAAAAGGUAAAGUUAUAAAAAGCUAAAUAAAAAGCAGAAAAAUCUCUAACCACAUCGAAAAAAGAUGUGUGAUAAAAAAAAAAAGGAUAUCAUGUAAAAAUAUCUAAAAUAUCAAA'
p12
aF0.96875
aa(lp13
S'The Gammaretrovirus Signal - Difficulty Level 0'
p14
aS'UAGAGAAGAUAGCAAAAGCUAUCGGCGCAAAAAAGAUCAAGACAGAUUCUAGGUAAUCCUAGCAAAGAUCGUCGAUCAAGACAUAUCAAAAGAUAUGUCGA'
p15
aF1.0
aa(lp16
S'Saccharomyces Cerevisiae - Difficulty Level 0'
p17
aS'GACCCAGGUUGGAAAAAAACGACUAUACUAUCCCCCCCCAGGAUACUAUGCGGAAAAAACGUAUCUGGGUCAAAUAGUGCAGAAUAGUAAAAAAAGGAUAGGAUAAAAAAAAAAAUUCCGACCCAUGCUAAAAAUGCGUGUUGUAUUUAAAGACUUAGAAGAGCUAAAAAAUGCUCCUAGAGCAAAAAUCUCUAGCCACCUGAAGAAAAAAUUCAGCUAAGUCGAAAUUCAUACAAAUUCAAAAAAAAGAGCCGCGAAUAAAAAUUUCGCGCAGCGUACUAAAAAAGAGUACGUAUGAGUAAUGCGGUGGAAGAUCGAAAAAAAGAUCCUACACAAAAAAGGUGUAGGAGCCUAGGUAAAAAUUCUAGCCAUCGCUAAA'
p18
aF0.9894459102902374
aa(lp19
S'Fractal 2'
p20
aS'AAAAAGACACAACAAAUUAAUAUAACAAGUUCAAAAAAAAAAGAACGAGACUGAAAAAAAAAAGUCGAGAACAAAAAAAAACGUUCAAGUUAUAUUGAGAAGAUACAUCUCGAGGUGAAAAAAAAAAUACCGAGAUCGAAAAAAAAAGAUCGGGAGUAAAAAAAAAGGCUCAAGGGGUGUAUCGAAGACGUCUGCAAGGCUCCAAAAAAAAAGAGCAAGAUCGAAAAAAAAAGAUCAGGGUCAAAAAAAAACGACCAAUGCAGACGUCGAAGUUGUGUUAAAAA'
p21
aF1.0
aa(lp22
S'G-C Placement'
p23
aS'GAUCAAAGAUCU'
p24
aF1.0
aa(lp25
S'The Sun'
p26
aS'GGCAGACACACGAAGUAUAAGUCGCCAAACAUAGACAUGAAAACUAUAAGUCAUGAAAGACAUAUAUGCGAAUGAGUAGUAAUCGAGUGGAGAGGGACAACGUCCAACUCUUUAAGGCCAUACAGGCUAUGCUUAAGUGGGUAGACACAGAAAUUUUCUGAAUAAGUCGUUAAUGAAAAGAAUAGGAAGUAUAAUCUUUCUAACGCAGCCGCAAUAUUUGCAAGGCGCGAAACUCAGUCAUCUAAGAGAUAAGACGAG'
p27
aF0.9108527131782945
aa(lp28
S'Frog Foot'
p29
aS'AAAAAAAAAACUUGGAAACAAGGUCCUAAUGGACGGAGUAUCUCC'
p30
aF1.0
aa(lp31
S'InfoRNA test 16'
p32
aS'GAAGACUCCUCGGCCAAAGGGCCGAAGAGUGUCUUC'
p33
aF1.0
aa(lp34
S'Mat - Martian 2'
p35
aS'GAUCAAAAGAUCAAAGACAUACAAGACAUAGAAAAAAACUAUGUCGUAUGUCAAAGAAGAUACAAAAAAGACAUACAGACAUAGAAAAAAACUAUGUCGUAUGUCAAAGAUAUAGAUAUAUCAAAAAAAGAUAUAUACUAUAUCAAAAAAGUAUCUUCAAAGAAAUAAGUAUAUCAAAAAAAGAUAUACCAUUAUUUCAAAACACAAAAGUGU'
p36
aF1.0
aa(lp37
S'square'
p38
aS'GACAUACCAGAUCCAGAUACCAGAUCAAAGAUCUGAAAAGUAUCUGAAAAGAUCUGAAAAGUAUGUC'
p39
aF1.0
aa(lp40
S'Six legd turtle 2'
p41
aS'AAAAAGCAAGGCUAAGGCAAACAAAAGGGGAAGGGAAACCAAACUAAAGAGAAAGGGAAACUAAAAUUAAUAGAAAGCAAAAAAAAAAAAAAAAAAAA'
p42
aF0.9591836734693877
aa(lp43
S'Small and Easy 6'
p44
aS'UCCGAAAAAGUCAAUCAAAAAAAAGGAGGA'
p45
aF0.9333333333333333
aa(lp46
S'Fractile'
p47
aS'AAAAAAAAAAAAUAAAAAUGCAAGUAAAUGAAAAUAAAUCAAAGUGAAACAAAAGGAAGAAAAGUUAAAUCAAACAAAGGUAAAAAAAAAAAAAAAAAAAAAAAA'
p48
aF0.9619047619047619
aa(lp49
S'Six legd Turtle'
p50
aS'AAAAAGGAAAUUUUAAGGCUAAACAAAAGGGAAAUAGAAAGGCUAAACGAAAAAGAAAACAAAAACCAAAAUCAAAAGGAAAACUAAAAAAAAAAAAAAAAAAAA'
p51
aF0.9428571428571428
aa(lp52
S'snoRNA SNORD64'
p53
aS'GAUAUCAAAAAGACAAAAGACAAAGAUACAAAAAAAAAAAAAGUAUCAAAAGUCAAGUCAAGAUAUC'
p54
aF1.0
aa(lp55
S'Chalk Outline'
p56
aS'AAAAGAAUCAUUUUCAAAGGGACUAAGCUAGACAAAAGUUAGCGUAAGACAAAGGACAUUGGCGUAUGAAAAUACUGGAUUAAAAAAAAAAAAAAAAAAAAAAA'
p57
aF0.9038461538461539
aa(lp58
S'InfoRNA bulge test 9'
p59
aS'GACACAGCGAGCGACACGUAUUAAUGUAUGUGCCCUUGUGUC'
p60
aF1.0
aa(lp61
S'Tilted Russian Cross'
p62
aS'AAAAAGAGGCGCCGAAAGGUGGGGCAAGCAGAAAUGCUGGAGAAAAGUUUCCAGAUCAAAAGAUCGCUCGAUGGAAACAUCCCUUGAAAAAAAAAAAAAAAAAAA'
p63
aF1.0
aa(lp64
S'This is ACTUALLY Small And Easy 6'
p65
aS'GAAAUAAAUUGAGAAAAACAGAGAACGAUAUAGAUACAGAUAAACAUAGCAGAAGAGAUUAAAAUAAGAAGAAAGAUAUAGAUACAGAAAAAGACAUAGAAAAAGACGAUUAAAUCAAUAAAGAUACAGAAGAAGAAAUAAAAAUAGAAAUAGAUACAGGUACAGAUUAAGACAUUGGGUCAGAUAUAGAUAAAGAAAUAGAAAGAGAAAUAGAUACAGGUAUUCAGUUAGAAUUAGAAAAAGUUGAAGACUUAGACAAAGAUAUAGACGGAGAGUUAGCACUAAGUACAAAUAAAGACAUGGAAAAAGAUAAAGAAAAAGAGCAUGCAAUAAAUAUGAAUACCGAUAAAGAAAUAGAUAUAAAUUAAGAAUUUGAAAAAGAUGAAGAUAAAGAUACAAU'
p66
aF0.885
aa(lp67
S'Shortie 4'
p68
aS'GCAAAAGCAGCGAAAGC'
p69
aF1.0
aa(lp70
S'Shape Test'
p71
aS'AAAAAGGGAUCAAGAUACAAAAAAAAGUAUCAAGACGUGCAGAUACAAAAAGUAUCAGAUCAAAAGAUCGGCGGUCAAGAUCGCAAAAAAAAAAAAAAAAAAAA'
p72
aF1.0
aa(lp73
S'The Minitsry'
p74
aS'CCUAAAAGGGCAAAAAGGUGAAAACGCGAAACGAUAAAAAAAAAUCAGCGAACCGGUCGAGG'
p75
aF1.0
aa(lp76
S'stickshift'
p77
aS'AAGACAUCGCAAAAAGCAGAUGUCAA'
p78
aF1.0
aa(lp79
S'U'
p80
aS'AAAAAGAUACAGAGAGCAGAGACAUAUACAAAAGUAUAUGUCCGCCCGUAUCAAAAA'
p81
aF1.0
aa(lp82
S'Still Life (Sunflower In A Vase)'
p83
aS'AAAGUGCGAUUUACUAAAUGUGAGAACUGGCAAAGCCGGAACUAGGAAAAAUCUGGAAGUCGCGAAGCGGCAACAAUCAAAAAGGUUGAAUUUGGGAAAACCAAAGGAUUUAUAUAUAGACAUAUAUAUGACACAAAAAGGUGUCAGAUACAAAAAAAAAAAAAGAUCAAAAAAAAAAAAAAAAAAAAAAAAAAAAAAAAAAAAAACCCGAUCAAAAAAAAAAAAGGUAUCGAUACGAAAGUAUCAAUAUAUAUGUUUAUAUAUAGAUCAGGUUUCUAAAUGAAACAACAAGAAAAAGUCUUGAUUAAGCGAAAAGCUUAUACUAGCAAAAGGCUAGAAACUGCAAAAGCGGUGGCUCGGUAAAUUCGAGAGUACAAA'
p84
aF1.0
aa(lp85
S'Quasispecies 2-2 Loop Challenge'
p86
aS'AACACCAUCGAAUUGGUUCUAAGGAACAUGUGCUGAGCAGAAAGUAGGCUCUGCUUUUUUUUCGAAAAACGAUCGUUGAGCAAAGAAAAAAAAAAAAAAAAAAAA'
p87
aF0.9809523809523809
aa(lp88
S'Corner bulge training'
p89
aS'AGAUAUCGAUACAAAGUAUCAAAAGAUAUCA'
p90
aF1.0
aa(lp91
S'Spiral'
p92
aS'AAAAGGAUCAGAUCUAAGUUAGAUACAGUUCAGAUGCGUAGCGCACGAAGGAGCUAAAUGCCCUCUGGCACCAUCGAGCGUAUCGGCUAGAUCGAUCAAAAA'
p93
aF1.0
aa(lp94
S'InfoRNA bulge test'
p95
aS'AAAAAAAAAAAAAAAAAAAAAAAAAAAAGGCGCAAAAAAGGGUAAAGAUGGAAGGUGGAGUUCUUGGACGAAAAGUAUCUAGAAGAGCAAACAAGGUAGCAAAAAGAACCGAAAAAGCUGUA'
p96
aF0.9672131147540983
aa(lp97
S'Worm 1'
p98
aS'AAAAAAAGGUGGGGUGUUCAUUCUAAAAAAGCGGGUUUGGCAGGC'
p99
aF0.9555555555555556
aa(lp100
S'just down to 1 bulge'
p101
aS'AAAAAGACCAGAGACAAAAGUUUCAGUCAAAAGACAGGAUCAAAAGAACAGACAAAAGUCGGACAAAAGUCAGUUCAAAAAAAAAAAAAAAAAAAA'
p102
aF1.0
aa(lp103
S'Iron Cross'
p104
aS'AGUGAGAUAAAGACAGGUUAUGCCCUACAAAAGUAAGUCAAAAUGAAGUCAAAACCAUAUAAAGAAACGCAAAGCGGCCUGAAAGGGAGACAAGGUUACUCAAAGUGAUACAAAUUCGUGCAA'
p105
aF0.9512195121951219
aa(lp106
S'loops and stems'
p107
aS'AAAAUGACAUAGAAAGAUCAAAGAUCAAAGAUCAAAAAAAAAGAUACAAAAAAAAAAAAGUAUCAAAGAUCAAAAGUUCAAAAAAAAAAGAGCAAAGAUCAAAGACAAAAAAAAGUCAAAGAUCAAGCAAAAAAGCGAACUAUGUCUAAAA'
p108
aF1.0
aa(lp109
S'Water Strider'
p110
aS'AAAAAUCAGGAAUCCGGAAGCAAACGCCGCCAAAAGGUGCAGCGGGUCUUAGAGAGGUACAGGAACUUGAAUGGCCGCAGGAAAAAAAAAAAAAAAAAAAAAA'
p111
aF0.9611650485436893
aa(lp112
S'The Turtle(s) Move(s)'
p113
aS'AAAGCAAAAGCGACUAACAUAUACAAAAAAAAAGUAUAUGUUCAAUGAUCAAAAAGAUCUAAGCCACGAAAGUGAAAGUAGCAAAAAAGGCUAUAAAACGGGAAGCGAAAGCGGAGAGGCAAAAGCCAAAAAUAUAGAAAAAAACUAUAUAAAACACAAAAGUGAAAAACUAGACAAAAGACCAAAAAAGUCGACACCAAAAAAUGUGAAACUUGCAAAAAAGUAAGAAACUAGAAAAACUAGAAGUCUAGAAAAAAAAAUGGAAACGACAGACCUAAUGGAAUAUCGAUACAAAAAAAAAGGUAUCAAAAAACCG'
p114
aF1.0
aa(lp115
S'Adenine'
p116
aS'GGUACAGGUAUCAGAUAUCAGCUAUCAGAUAUAAGAUAUCAAAAGAUAUCGAAAAAGAUAUCAGAUAUCAGAUACAAAUACAUACAAGGUAUGUAGUAUCAUAUAUCAGAUAGGGUACACAAAGUGUACCAAACUAUCAGAUAGCAAAAGAUAUCAAAAGAUAUCAAAAGUAUC'
p117
aF1.0
aa(lp118
S'Tripod5'
p119
aS'AUAGGAGUUCUACAUGAAUCACUUAAAUGGUGUCCUUA'
p120
aF1.0
aa(lp121
S'Shortie 6'
p122
aS'GCAAAGGCGGUGAAAACAGGAAAACCAUCGAAAGA'
p123
aF1.0
aa(lp124
S'Runner'
p125
aS'AAAAAGAGCAGAUAAAAAGGGUGAAGCACCAUAUCAAGGCCAAUGCACCAAAGGUAAAGCAGGACGCAAAGCGAAAUCCGGGCAAGGUCAAAGUCAAAAGACGGACAGUUCAAAAA'
p126
aF1.0
aa(lp127
S'Recoil'
p128
aS'AAAAAGAUACAAGCAAGCAAGACAAGACAAGCAAGCAAAGCAGCAGUCAGUCAGCAGCAGUAUCAAAAAAAAAAAAAAAAAAAAA'
p129
aF1.0
aa(lp130
S'[CloudBeta] An Arm and a Leg 1.0'
p131
aS'AAAAAGACAGGAACAAAAGUAUCCGACAGCAAAAGCGUCAGUCAAAAAAAAAAAAAAAAAAAA'
p132
aF1.0
aa(lp133
S'[CloudBeta] 5 Adjacent Stack Multi-Branch Loop'
p134
aS'CUUAGGGACGAAAGUCCGCAUCGAAAGAUGCGAUACGAAAGUAUCGUACGAAAGUACCUGAGA'
p135
aF1.0
aa(lp136
S'Triple Y'
p137
aS'AAAAGACACUUACGAGCGAAAGCUCGAUCGAAAAAACAUCGGCUUGGCCAAAGGGCCGGGCAAAAGUACGAGCGUGUAAAAAAAAAAAAAAAAAAAA'
p138
aF0.8865979381443299
aa(lp139
S'Misfolded Aptamer'
p140
aS'GACUUAAAAAGGGCCUAUGGAAGGGAAAUCGAGGAGGGGGCAAAAUGGCC'
p141
aF0.96
aa(lp142
S'Flower power'
p143
aS'AAAAUGAUCAUAAAAAUUACAGCCCGUAGAAGCACUGAGCAAAGAUUUCGAUGUAAAAUAUGGGGCAAAGUAAAACUUGAUCUAAAAAAAAAAAAAAAAAAA'
p144
aF0.9019607843137255
aa(lp145
S'Kudzu'
p146
aS'AAAAAGAGUCAUCGUACUAAGAGUAGCAAGGCACAUCAAGGGUCGAAGCCAGCUUAAUUAAAGUGAAAAGUGAGUGGUUUCAAAAAAAAAAAAAAAAAAAA'
p147
aF0.9207920792079208
aa(lp148
S'"1,2,3and4bulges"'
p149
aS'AAAAGGGCUAGGCGCGAAAGCAAAAGCCAGCCGAAAGGUGGGACCAAAACAGAAUAUGAAAAAAAUGGGGUAAAGAACAGCAAUCGAAAAAAAAAAAAAAAAAAA'
p150
aF0.9333333333333333
aa(lp151
S'medallion'
p152
aS'CAUAUCACUUGGCAAAAGCCGAGAAGCAAAAGCUACACUAAUGUCAGAUAUCAAAAGAUAUCAUAAAAUCGUAGUAUAUCAAAAGAUAUGAGCUAAAAUGACUUCAAAGGAAAGAUUUCAAAAGAGAUCAGACGAAAGUCGGAUAUAAAAAUAUAUCAUACAAAACUAAGACAAAAGUGGGUUGUAAAAAUACGGCAUACAAAAGGAGGGGCUUAAAACAGUAUAGCUAAAAGUCAGACAAAGGUCAAAUAGCAAAAGUUAUUAUAUAAAAACGAGCUAUCAAAAGAUAGCACACGAAAGCCAGUCAAAAGACAGAAAUGAAACUAUUUUAGAUAUG'
p153
aF0.9109792284866469
aa(lp154
S'[RNA] Repetitious Sequences 8/10'
p155
aS'AGCAAAAAAGCAAAAAAGCAAAAAAGCAAAAAAGCAAAAAAGCAAAAAAGCAAAAAAGCAAAAAAGCAAAAAAGCAAAAA'
p156
aF1.0
aa(lp157
S'Documenting repetitious behavior'
p158
aS'AAAAAAAGAAAAAAAAAUCAAAAAAAAAGGGAAAAAAAAAGCAAAAAAAAAACAAAAAAAAACGGAAAAAAAAACAAAAAAAAAGCAAAAAAAAAGGAAAAAAAAAGCAAAAAAAAAUGAAAAAAAAAUGAAAAAAAAACCAAAAAAAAAUUAAAAAAAAAUGAAAAAAAAAUGAAAAAAAAAUGAAAAAAAAACUAAAAAAAAAGGAAAAAAAAGCGAAAAAAAAACGAAAAAAAAACGAAAAAAAAGGGAAAAAAAAAGGGAAAAAAAACGAAAAAAAAACGAAAAAAAAAUCAAAAAAAAAACGAAAAAAAAGGAAAAAAAAAACAAAAAAAAAGGAAAAAAAAAGUAAAAAAAAGGUGAAAAAAAAGCAAAAAAAAAUGUAAAAAAAAUCAAAAAA'
p159
aF0.92
aa(lp160
S'7 multiloop'
p161
aS'GACGGGCUCGAAAGGGCCGCUCGUAUUCGAGCGUAGCAAAGGCUACGGGAAGAAAUUUCCGUUUGGAAACAAACCAGGCAAAGGCCUGCGUC'
p162
aF1.0
aa(lp163
S'Kyurem 7'
p164
aS'AAAAAGUUAGAUCAUGAAACUCCGCAAAAUAUCGGACAAAAAGUAAACCCGGAAAAAAGUGCAACCCGAUAGAGGCAAUACCCAAAAAAAAAAAAAAAAAAA'
p165
aF0.9803921568627451
aa(lp166
S'JF1'
p167
aS'GAUAGAGAUAUACUAGCGAGAUACAAAAGAUAUCAAGAUACAAAGAUACAAGAUAUCAAUAUAUAGAUAUACAAAAGUAUAUCUAUAUAUGAGACAAAAGUCACUAGAUAUCAAAAGAUAUCUAGAACUAGCAAAAGCUAGAGAUAUCAGUAUCAGUAUCAGAUAUCAAAGACAUAUCAAAAAGAUAAUGUCAAGAUAUAUAUAUAUAUAUAUAUAUCAAAAGAUAUAUAUAUAUAUUAUAUAUAUCAAAGAUACAAAAAAGUAUCCAUAACAUGCAAAAGCAUGUUAUGAAACUAGAAAACUAGAAGUAUCAAGCUAGAGAUCAGACAGACAAAAGUCGUCGAUCAGACAGAUACAAAAGUAUUAUGUCAGUAUACUCAUAUCAAA'
p168
aF1.0
aa(lp169
S'multilooping fun'
p170
aS'CAGUGGGUAUGGCUUAGAAAUGACAGAGAAAAUAUG'
p171
aF0.8611111111111112
aa(lp172
S'Multiloop...'
p173
aS'GAUUAGCACAACAAAAAAUCAGAAAAAAUUCAGAUGAAAUGUAGCCAAAGGCCUGACUAAUGUCUUGCAAAAGCCAUAUCGCUCUCAAAAAAGGGCCGUCAAAAGACGGUC'
p174
aF0.9459459459459459
aa(lp175
S'hard Y'
p176
aS'AAAAUGACGUAAGCUGUACCGAAAGGUACAGACCAGACAUAUCUCAAAGGAGAUGUGUCGGUCGAAAA'
p177
aF0.9705882352941176
aa(lp178
S'Mat - Elements & Sections'
p179
aS'AAAAGGAGAAGAAAGGAAGCGGAGGUCAACAGAUACACAGCUAAAAGUCGGAUUAUUGAUGACCGAAACGAUUUACAAAAAUCCCAAAAAAAAAAAAAAAAAAAA'
p180
aF0.9619047619047619
aa(lp181
S'Chicken feet'
p182
aS'AAAAAGGUAUGGUCAUGCGGCAAGUUGAAAGGUAACAUCAUGAAAUAGGAAAGGCAAUAUGUAAAAA'
p183
aF0.8805970149253731
aa(lp184
S'Bug 18'
p185
aS'ACUGGCUCGUGAUAAGAAUUACUAAGAGGGGCAUUUUUAAGGAUGCAAAACGU'
p186
aF0.9245283018867925
aa(lp187
S'Fractal star x5'
p188
aS'AAAAAAUAAAUCGAUGGUCUAAUGACUUACCUAAAAAUGGGAACUAGAAAGCUAGAACCAGGAAACUGGAACGGUUUAUAAAAUCCCGAUACUUAGUCAAAAGACUUACUAGGAAACUAGAACCAGAAAACUGGAAAUACAAAAGUAUAUGUAUCGGGUAAAACUAGGGAAAAGAUAGAAAUAUCGGGUAGUAAUUUGCAAGUCUAAAAAGACAGCCUGGAAACGGGAGUUCCCUAGAAAAACUGGAUUAAAUAACAAAAGUUGGACUCGAAAACGAGGAGUAGGAAACUAUAGCUGUUAAUGCAGAAUGAUCCAGAAAAACUAGAUAUUAGUCCAAAAGGACGUGGAGAAAACUUCUACUAGUAAUCUAGAACUGCAAAAGCAGAUAUAUCUAGAAAAA'
p189
aF1.0
aa(lp190
S'Crop circle 2'
p191
aS'GAUAAGCAAAAGAUAAAACGAAAAAAAAAGCUAAAAAAAAAAAAAAAAAAAAAAAAAAAAUGGAAAAAAAAAAAAAAGUGAAAAAAAAUUAAAAAAAUGCGAAUUUAAAA'
p192
aF0.9636363636363636
aa(lp193
S'Branching Loop'
p194
aS'AGUGAUUAAAAAAUAAAUUGAAAAAUUAAUCACGAAAAAA'
p195
aF0.95
aa(lp196
S'Bug 38'
p197
aS'UCCGUUUGGGACGAUAAAAACGACCUAAAAAAAGGU'
p198
aF0.9444444444444444
aa(lp199
S'Simple Single Bond'
p200
aS'AAAAAAGAAAAAAAAUAACCGAAAAGGUUUAAAAAAAGCAAAAAAAAAAAAAAAAAAAAAA'
p201
aF1.0
aa(lp202
S'Taraxacum officinale'
p203
aS'AUGAGAAAUAUACGCUAGAAAACAUAGACUAGAAAAGAGGGGCGGGGAAACACCGAGUGAAAACUAAAUAGGGGGAAACAUACGGCUACAGAUGAGAUGUAGAUUUAAAGUGUACUACAUCUGAAACAAGUCAUAUAUCGUGACAUGCGAAGCAUGUCUGAUAUAUGACGAUCAGACAUAUAUUAUGUCGAUCGUUUUUAAUCAUCUGUAGCAGAUUAAAAAAAUCAAUAUAAAACAUAAUUGAAAAAGAAUAGUUAAUGAAACAGAGACUGUAAAACUUAG'
p204
aF0.8297872340425532
aa(lp205
S'Headless Bug on Windshield'
p206
aS'UGAAUCAAAAUUUGGCAAAGCUCAAGCAAAAAAAAAAAAAAAAAAAAAAAUGUUGCAAAGUUAUAUAAGAGGCUUACGAUCCAACCAAAAAAAACGAAAGUAAAAUAAGGGGCAAAAAAGUAGGAUCUAAAAAACGACUGGCAAGACAGGGAGGCGCCCCCCCCCUCCAAGCCAAGCAGUACGGGCUGUCUAACAAAACA'
p207
aF0.94
aa(lp208
S'Pokeball'
p209
aS'AAAGUCGGCCAAAAAAAAGCAAUACGACCGGGGUAACGAUCUAUAUUGAAAAUUUUAUCAAAGUGGUCAGGAGUAUGUGUCGUUUGACAAAAAAAAGAAAAAUAAAAGAAAUAAAGGUAAACUAUCGUGCGAAUUUCCUAUCUAUGCUGGUAAUAGUAGCUCUGGGACCUGGCCCUUUUUCAAA'
p210
aF0.8804347826086957
aa(lp211
S'Variation of a crop circle'
p212
aS'AAAACGGAAAAAAAACCGGAAGGGGGGCAUACGAAGGUGCCAAAAUCAAAAAACGAAAAAAGCUGAAAAAAAAUGAAAAAAAAAAAAA'
p213
aF0.9090909090909091
aa(lp214
S'Loop next to a Multiloop'
p215
aS'AAGACAUAUUUAAAUAGCGGUUAUCAAAAGAUAACAGACAUAGAAAACUAUGUCAGAAAAAAUAAUAUGUCAA'
p216
aF1.0
aa(lp217
S'Snowflake 4'
p218
aS'CUGCAAGGUAACUGUGGAAAAAGCCUAGGAGCUUUCGCGAAAGUUUUGCCACCAAGGGUGGACUAGGAACUAGGCAAGACAAAAGUGGAGGAAUAUCCCCAAAAGUGUACCGUUGUAUAAACAAAAAAAACCAUUGGUACUCAAGGGGGGGUGAAGGUACCCGAAAGCCUAUCCUGUUAUCUAGAACUAGAAAGUAGGAUAACGUAAUCGGGAUCGAGAUAGCCAAAACGGUAUAAUAGAAGCGAGAACUAGAACCUGCGAUACCCAAAAGGUUAUCAAGACACGCAAAAGCUUAUUCCGGAAACCGGGAUUAUAAACUAGAGUAAGCAAAGGCGUAUCAACCUAGGCGAAAACUACAGGAUCAAGGAAG'
p219
aF0.8054054054054054
aa(lp220
S'Mat - Cuboid'
p221
aS'GAACAAAAAUGUGGAAAAAAUAUCAAAACGAAGCGAGGAAAACCGGUAAAGCUAAAUAUGGAACGAAGGAAAAGUGACCCAUAAGUCAAAAGCAAUUAAAGGAGUAAACAAAAAAAUGGAUCCAAUUUUGCAAAAUUAAUCUAUAUUCUUUGGGUGCACAAUAGUCCGAGCGUGCAUGCAAUUAAAAUUUUCCUCCUUGUCUUGUAGGAAAAAAGUCAGACUUGGUAGGUUGGUUGGGGGGGAUUGCUUGUAAUGUAGGGCCACCGUAGUUUGGUGCUCGGGCUGGAGGGCUGUCUGGAGUAAGCAAUUAGGCGGGCGGAUUGAUGCGAACGCAAGCAUCCUAAGCAAAAAAACCCGAGCAAGUGUGGUGCGGUGUGAAG'
p222
aF0.6684210526315789
aa(lp223
S'Misfolded Aptamer 6'
p224
aS'AAAAAUGACAAAAAAGAUAUACGCGGCCAAAAAAAAAUGGGGAAGGAAAUUAUCAAAAAAAGUCUAAAAAAAAAA'
p225
aF1.0
aa(lp226
S'Snowflake 3'
p227
aS'GGCGCAAAAGCAGACCACAAAAGUGAAGAGCACAUCAAGACAAAAGUCCAUAGCAAAAGGUACAAAGUAGCAAAAGCAAUGCACAAAAGUGAAGAUGAGAGCGAGAUGAAAAUCCCCAGCAAAAGUUCCAAAGGAUCAAAAGCAGGGCAUAAAAAUGAAGCUCAGAGCAAUACAAAAGUGCACAGGAAAAAUUACAAAGUAACAAAAGCAGUGCACAAAAGUGAAGAUCAGAUCUAAACAAAAGGUCGAAGAAAAAUCUAUAAAAUAGCAAAAACAUCGCUUUAAUCAGAUGAUCGGACCUAGACAAAGGUCCAUAGCAAAAGCGACAAAGUCGCAAAAGCAGUGCACAAAAGUGAUGGUCAGUUCAACACAAAAGUGGUCGUCGAAAGGGGC'
p228
aF0.8473282442748091
aa(lp229
S'Hard Y and a bit more'
p230
aS'AAAAAGAUAUGGACAAUCUAAUGAUUUACAGAUGCGGAUUCAUCAAAAGAUGUGGACACAAAAAGGUGUCAUUCAGCAUCGUAUCAAAAAAAAAAAAAAAAAAAAA'
p231
aF0.9716981132075472
aa(lp232
S'Mat - Lot 2-2 B'
p233
aS'GGAGCAUUGCACAUCCACAAGCUAGCUGGAAAUAAAAAGCUCGCGGAGGGAAAAUCUUUCCCUACUAAGUUUGCUCUUACAAAAUCUUGAACGAGCAAAAAAGAAAUUGCGAGUAAAAUCUUGGGCCUGAAGUUCCAAACAAAUGUGCUUCAUCUUGCAAAAGCUUGAUCAAAAGAAAAAUCUUGCGCUUGAAAAAAGUUGCGCUUCUAAUCUUGCGCUUGCAAAAGCUUGAUCAUGCAAAAGAAAAAUCGCUGGCAAAAUCUUGCGCCUGCAGAUGGAACAAC'
p234
aF0.75
aa(lp235
S'Shapes and Energy'
p236
aS'AAAAAAGUGAUAAGAGCUAAAGGAAUGUCUCUAAUGUGACAGAACGCUCAAGGAAAAAAGCUCAAAAGAGUCCGUAUCUCGAAAAAAAAAAAAAAAAAAAA'
p237
aF1.0
aa(lp238
S"Spiral of 5's"
p239
aS'CAAAAGAUACAAAGAUAUAAUGAUAGAAAAGAUACUAAGAUAGUAAGAUAAAAGAUACAAAAGAUACGAAGAUAGAAAGAUAGAAGAUACAAAGAUAGAAAGAUAGAAGAUCCAAUGAUAGAAGAUACAAGAUACAAGAUACAAGAUACAGAUACGUACAUAUAUCAUAAAGAUAUUGGGGAUGUGAAAAAGUAUCAAAAAGUAUCAAAAAGUAUCAAAAAGUAUCGAAAAGUAUCAAAAGCUAUCUAAAAGGAUCAAAAACUAUCAAAAGCUAUCAAAAAGUAUCAAAAACUAUCAAAAACUAUCAAAAAGUAUCAAAAAGUAUCGAAAAUUAUCAAAAUCUAUCAAAAUGUAUCAAAAACUAUCUAAAAGUAUCAAAAAGUAUCAAAAAGAAAAA'
p240
aF0.9949622166246851
aa(lp241
S'Campfire'
p242
aS'AAAAUAUCGCGAUACAAGUUCAAACACUAAAUGUGUGCUAUCAAGGAUAAGCGAGCUGGAGGAGGGGCAAAUCCAAAGGGAAUUGCACGAUGCAUCAGCAGCGAAAGCGCUGGAUCAAAUGAAAAUAUGAAUCAAGUAAUUUCUAUCAGUAUCAGCUGGAAGGCAGGUCAAAGGAUCGUCUCCGACCCAGCAAGGCUAAGAGUCUAUUGAUA'
p243
aF0.9150943396226415
aa(lp244
S'Anemone'
p245
aS'AAAGAUUACGAAAGUGAUCGAGACGAAAGUCUCUAGUUCGGAACGGGUAGUUUAUAACUGGAUGCCGGCAAAGGCUUGCACGAGUAAAUUCGUGUUAGUAAUAUGUCCGUAGCGAAAGAUACGAGAAACGAAAGUUUCGUUAUCUAAAGGUAACCAUACGAAAGUAUGCCGACGAAAGCGUCGGGACAUGAAAAUGUCGGGCUCGAAAGAGUUC'
p246
aF0.9439252336448598
aa(lp247
S'Fractal 3'
p248
aS'AAAAAGUUUGGACAGCAAAAGCGUAAAAACAGUCAGCCACGAAAAUGGUUAAUACACUCAUACAGGAAAGUCGUGAAAACGGUGAGAGAACAAAGGCAGAAAGUAACCCUGGAUAAAAA'
p249
aF0.9159663865546218
aa(lp250
S'Kyurem 5'
p251
aS'AAAAUGGCUUAGCUUGAAUGGGGCCAAAAUAGGGAUCAAAGACGAAAAGUCGAUUGUAGAAAAAUGCACCUGGUCCUGAAAGCCUAAAAAAAAAAAAAAAAAAA'
p252
aF0.9230769230769231
aa(lp253
S'Snowflake Necklace ( or v2.0 )'
p254
aS'GAGAUAGUUAUAUAGAGGAAGAAGAAAAACCACCAAAAAGGAGAAAAAAGUAGCAAAAAGCAUCAAAAAGCACUUCCAGAUUAAAUGUAAUAGUCAACAAAAUGUAGCAAAAGGCAGCAAAAGGCAGCAAAAAGCGGAAAAAGGUAGGCUAAGUCAAAAAAGUAGAUACAACGAAAAACGGCAAAAAGCAGAAAAAAACAGCAAAAAGCAGCAAAAAGCAGUGUCGCAUAAAAAAUCGUAGACACCAAAAAGGAGCAAAAAGCAGCAAAAAGCAGGAAAAAUUAGCAAAAAGCAGUCUAAGAGCAAAACUCGGCAAGAACAAAAAGUAGCAAAAAGCGGCAAAAAGCACCAAAAAGCACCAAAAAGGACUUGCAUUAUAUAGCUGUUUC'
p255
aF0.8637532133676092
aa(lp256
S'Methaqualone C16H14N2O Structural Representation'
p257
aS'AUCCCAAGAUCAGAUCGCACAAGUAAAAACUAGACACACAAAAGUGAGUGAGACAAAAGUCAGCCAUGCAAAAGCGACAGGAAAAAACUGUGUCAUACAGUCAGUGAGAAACAGAUCAGCGUAAGGAGGGCAAAGCAAGGCAAAAAAAAGCCAGAUAGAUGAAAGUAUAUAAAAAUAAAAAAAAGUCGUCAUCAAAGAUCAGAAACAGACAUAAAACGUUUCGGACAAAAGCCAAAAGGCAGUCAACUAAAAAGUAGUCGUACAGAACUCAGUGGGCCAAAACCAAUUAAUACUACAAAAGUACUCGAAAGAGACACAAAAGUGGUGAGUCAGUUCAAAGUGCAGAUCCCCCAAA'
p258
aF0.9070422535211268
aa(lp259
S"Cat's Toy 2"
p260
aS'AAAGUAUAGCUUAAAACAAUGUAAAAAAAAAAAAAAAAAUCUAGAAAUCAAAAGUGUAGUCUAAUGAUAAAAAAAUCAAAAAGUAGAGUUGUAAAAA'
p261
aF0.9587628865979382
aa(lp262
S'Zigzag Semicircle'
p263
aS'AAAGGAGUCCGGUUGAAAUAAGGAAGGUUAAAAA'
p264
aF0.9411764705882353
aa(lp265
S'Short String 4'
p266
aS'AAAAAGAAUGCCUCGAAUAAAGAGGAGUAAAAACUGGUCAACCUGGGACUAAAAGGGAUCCUCAAAAGUGUAGCUUAAAAAAAAAAAAAAAAAAAAA'
p267
aF0.9381443298969072
aa(lp268
S'Gladius'
p269
aS'CGAAAGAAGGGCGGAAGGAAGUGAAUAAAUUCAGACUAUGAUCAAAGGAUCUUAUAAGAAAAAAAACAGUAUGAGUUAUUUGUAGAUAUAGGCGAUUUCACAUGCCGGACUGAAUAGAUCCUAUGAAUGGUUAUGUUCGGAAUGAAAAAUGCAUUAUAUCGAGUGGUGUACAAUGCAAGACUCAAUAGUAUCAGUCAAACACACAUACAGAAGACACUCAGUGAAAAGAUGGGAAUAUAAACAAAUAGUCAAUGUACCUAUGAGGCGGAUAUUAAAGAAUAUCAGGUCGAAUAGCAAUAUCCGCUAUACGUUUAUGGCAACAUCAUUGCAUUAUAAGUCACAAGUAUGGGUUUUAAUAAGCAAAGUGGGGAGAAGAAGUUAAGAAGCGGGACAAGAAAAC'
p270
aF0.905
aa(lp271
S'Thunderbolt'
p272
aS'GCAAAAUACAAAAAAAACGGCAAUGAACGGGCCAAAAGAUAGAUUUCGAAGGGAACGCAAAAAAUGUCAAAAAGAUAAAAAAAGCAAACAGUGGAGGAAAAAUUUUAAAAUAUUUAAGUUUACUAAAGGAAAAUAGUACUAAAAGACAAAAACUUAAAAAUAUGUAUUUAAAGGGUCAGAGCAAAGAAAAAAUGUCGAUCAAAGGAUUUUUAAAUAACAAAGACGUAAAAAAAGAACGGGUUCUUUUCAAGGAGUAGUGUGCGCAAAAAAAAAAGGCUAUAAAAAAAAAAUUCUCAAAAGGUGUACAAAAAGAAAAAAAACAAAGAGUGCACAAAUGAAAAGAGAUUUAAAAAAAAUUGCAAAGUGGAAAAAGAAAAAAACAGUAUUAAGCA'
p273
aF0.8545918367346939
aa(lp274
S'Mutated chicken feet'
p275
aS'GAAAAAAGAAGCUGAGAAGAAAUAAAACAAUGGUCAGUACCAGUAAAGCAACGAAAGGAAGCGCUGCAGCAGCAAGGCUGCGGAGCUAAGCGCUAAAAAA'
p276
aF0.84
aa(lp277
S'Chicken Tracks'
p278
aS'AAAAAAAAGACAUAGGCGAUAAUUCGCGAGGUCGAAAGACCGAGAAGAAAGCUUCCUAUGUCAAGGGGACGAAACGUCGGGAUCAAAGAUCAAGGGCAAGGCCCCCCAAAAAAAAA'
p279
aF1.0
aa(lp280
S'Looking Back Again'
p281
aS'GACAAUAAGAACAAAAAGAUUUGAAGGAGAUCGCAUCAAGACCACAAGACAAAGUCGUGAGAUACGAAGAUCAAAAGAUCAAAAGUAUCAAGUCUAGUAAAGAUCGACGAAAAGAUACAAAGGUAUCAAAAAAGUCGAGAAGAUUGAAACGCUACUAGCAAAGCUAGGACAUGUCUAGAUUAAGUUUAUGUUGAUCAAAAGAUCAUCUAUUCAUACUGGGACAAAAGUCAACAUGUCAAACUUUCCAUCUGAUCCAUCUCAAAAAUUAUAUAGAAAAAAAAGAUCAAAAAGAUAUUGUAAAGUAUGAUGGCUCAAAAAUGCCUAGCCAAAGGGCUAGAACCACCAAAGGUUAUACAAAGUAUAUAUGGGCUAAAGAGCGGAUCUAGGUC'
p282
aF0.8740359897172236
aa(lp283
S'Multilooping 6'
p284
aS'AUUAUCAAGCGGGACGAAAGUCCCCAGACAAAAGUUUGACUUUGUUUAGGAAAUUAAGGCUAUAAAGGUAGCCGAGGAUCUA'
p285
aF0.926829268292683
aa(lp286
S'Cesspool'
p287
aS'GAAGGAUAAAAAGACAGUUGUGGCCCACAGGCCACAUCUUUUGAAGUCUAAAAAUAUAGUUUAAAAAUUCGCAGCUACAAAAACAAGAUAUUUUAGAAAAAGACACCUUCUUUGCAACGCAUAAAACUUGUCGAUGUAAACAAUCGAGCUGCAAAUAUCGCAGUGAAAGCUUAUUCUACUUUUGCAACAAUUACUCUAUUGAGCCUAUAGCAACAACGAGGGAAUAUACCAAAUGGAAAAUAAAAAGAUGCACCUAAAAAAAAUUAUACUCAGUAAAAAAAUGAGCCUUGAGAGAUAACUUUGGAAGCUUGGUGUACUUAGAAAUAUUAUUUAACAAAUUGCAAUGAAAACACACGGA'
p288
aF0.6284916201117319
aa(lp289
S'Hoglafractal'
p290
aS'AGGAGGAAGAUACAAAAGAUUCAAAAAAGGAUCGUAUCGGUCAAAGUUCUAAAUGAGCGGUCGCAAAGAUAAAAGCCGGCAGCCAAAGUUCAAAGGUUAAAAAAAACCGAGCCAGAAGAUGAAAAGUCGUGCCAUCUAAUGAGGAGAGCAAAAGAAAAGACAAAAAAAUCUCCCAAGCUAAAUGCUGCACAAAAAUGGUAUACGAAAAGCAGCAAAAAAGCGCCACAAAAAGAGCGAAAACGUCAUAACAAAAAACGCAAAAGGGCGACAAAAGGUAAACUUAUUUAAAGAAUAAGAAAAAAAGGUAUGUAAAAAGUAUGAAAAAGCCUAAAAGACAACUCGACAAAUAGCAGAUCAAAAGCAAAAGCCCAAAAGGCAGAUCAAGGAUUUGGGAUCGCAG'
p291
aF0.8825
aa(lp292
S'Bullseye'
p293
aS'AAAAACAGGUGAAAAGUAGUAGUAAAGAUAGAGCGCGAACGUCGUUAAAAAAAACAAGGUGGAAGAACGAUUUCAAAGAUAGAAAUAAAAUACUUUGAAAAAAAACACUUACAAAGUACGGGAUUAAGGAUCAACUCCAAGGAAUGUGAAAAAAAAUGCUGGUAAGACCGGAGGUCUACGACCGACAUCAAGGAAGGCGAAA'
p294
aF0.8316831683168316
aa(lp295
S'Shooting Star'
p296
aS'GAGGUUGUUCGACAAGGGAGGAGUAUCUAGCAUUGAGGAAAACACCGAGGCUUGUGGGCCAACCUUGUCAGACACAAGACAAACAGACAAGAUUAGACACCUCAGUAAAGGACGAGACGUCGAAUCAUGUAGGAGUGGGUGGGGAAACAAUAUUGAUCCACACUAUGUGUGACUUGCUAUGCAAGAAAAAAAUAUAGAUCAGGUCAUAGCAGGUCAAAGACAUACUAUGUAUGUCGCGUCCAAGGGACGGGUCGAGUACCAAAGGUACUCAGUAGCAAAGUUAUGCUACACCAAGAAAGCUGUGAGUGUCAGUGACAGAUUAUGAAAAGACAAUACGUCAUUGAGGAAAUAAGAUGAAAUCUCA'
p297
aF0.8351648351648352
aa(lp298
S'Teslagon'
p299
aS'AAAAAAGGUAAAUAAGCAACAAAAAAAGUAGCCCCCCAUCCCCCCAUGGAAACUGUUUACGCCCCCCCCCCCCAAGCAACAAAAUAAAGAUCAAAAAAAGCCCCCCCCCCCCCCAAGCAAAAUAAGAAUAAAAAAAAGCAGUCCCCCCCCCCCCCAAGAAAACAGCAUUCCCCCCCCCCCCCCAAGGGGCAAAAUAAUAUGCAAAAAAAUUCCCCCCCCCCCCCAAGAAAAAUAAGCUGAGAAAAAAGCAGCCCCCCCCCCCCCCAAGCAAACAGUAUACACCCCCCCCCCCCAAGCUGCAAAAUAAGCACCAAAAAAAGAUAAAAAAAAAAAACCCCCCCCCCCCCCAAGUUUCAAAAUAAGGGGCGAAAAAUCUAAAAAA'
p300
aF0.8979057591623036
aa.