(lp0
(lp1
S'Simple Hairpin'
p2
aS'GGGGGAAAAAACCCCC'
p3
aF1.0
aa(lp4
S'Arabidopsis Thaliana 6 RNA - Difficulty Level 0'
p5
aS'GGGGGGGAAAACGGAAAAAAAAAAACCGCGGGGGGGAAGGGGGGGGGGGGGGGGGGGAAAGGGGGAAAAAACCCCCACCCCCCACCCCCCCCCCCCCAACCCCCCCGAACCCCCCC'
p6
aF1.0
aa(lp7
S'Prion Pseudoknot - Difficulty Level 0'
p8
aS'GGGGGGAGGGGAAAACCCCCCCACCCAAAAAAAAAA'
p9
aF1.0
aa(lp10
S'Human Integrated Adenovirus - Difficulty Level 0'
p11
aS'GGGGGGGGGGGGGGUCGGUGCAAAAAAAAAAACGGGGGAGGGCGAAAAAGGGGGGGAAAAAGGGGGGUGGUGGUUAAAAAAUACCGCCGCCCAAAACCCUCCCCAAAACCCCGCAAAACCUCCAAAUGAGGGUAAAAAUCCCUCACCCGAAAAAAAAAAAGGCACCGUCCCCAAAACCCCCCAAACCCCAAA'
p12
aF1.0
aa(lp13
S'The Gammaretrovirus Signal - Difficulty Level 0'
p14
aS'AAGAGAGGGGUCGAAAACGGCCCAACGCAAAAAUCGGGAAGGGAGGGGAGGGGAAAACCCCUAAAACCCCCCCCCCGUAGGGGGGUGAAAACGCCCCCCAA'
p15
aF1.0
aa(lp16
S'Saccharomyces Cerevisiae - Difficulty Level 0'
p17
aS'GGGGGGAGGGAAAAAAAAGUCCCAGGGAAAAAAAAAAAAAACCAAACCGUGGAAAAAAGCCGCGUCCCCCCAAAACGAUCGGAAUUGCGAAAAAAAGUAAGGUUAAAAAAAAAAAUACCAAAACGAGGUAAAAAUCCUCGCCGAUCGAAAUGGGUUAGAAGUGGAAAAAAAACCAUUGGCGCAAAAAAAGCGCCAAAAACGGGAGAAAAAAUCCCGCUAGCCCUAAGCUUGUAGAAGGGGAAAAAAAGCCUCGGGGAUAAAAAAAAUCCCCAAAUCGGCGUAAAAAUCGCCGUUACGGGAAAGCGGGGGCCAUGGGAAAAAAAACUCAGAUGGGGAAAAAACCCAUCAAAAGCAUAAAAAAAGUAUGCGCUCCCGAAAA'
p18
aF1.0
aa(lp19
S'Fractal 2'
p20
aS'AAAAUUAGGUGGAAAACGGGCUUGGGAAAGGCUAAAAAAAAUGCCUAACGCUUAAAAAAAAUGGCGAAAAGGGAAAAAAAAACCUUGGUCCGAGCCUGGAUUGUGGGGGGGAGCCAUAAAAAAAAAGUUGAAGCGGGAAAAAAAAAACCCGAGCGCAAAAAAAAAAAUUUGAACCCCCCCGCGUAACGGGGGAGGGGGAUAUAAAAAAAAAAAUGAAAUCUAAAAAAAAAAAUGGGAAAGAGGAAAAAAAAAUUGAUACUUUCCCCCGGAGUCCACCUGUAAAA'
p21
aF0.971830985915493
aa(lp22
S'G-C Placement'
p23
aS'GGGGUAUCCCCA'
p24
aF1.0
aa(lp25
S'The Sun'
p26
aS'AGGAGGGGUUGAAACGACAACCACCCAAGGGGAGGGGGGGAAACCCCAAGCCCCCAAAUGGAGGGGGAAAAGUCACAACCCCCGGAUGGGAGGGGGGGAAACCCCAACGCCCCUAAGAGACUGGGAGGAACUCCAAUACCCCAAAGUCAUGGGCUGAAACGGCAACCAGACAAAGGGAGGUGGAGAAACUCCAACCCCCCAAUAGGAGAGGAGGAAGCGCCAACUCCGCUAAGGUAAGGGGGGAAACCCCAACCCCCC'
p27
aF0.8992248062015504
aa(lp28
S'Frog Foot'
p29
aS'AAAAAAAAACCCUGUAAUCGGGCUCGGAAACGGGGAGCAAAGCUC'
p30
aF1.0
aa(lp31
S'InfoRNA test 16'
p32
aS'GGGGGGUCGGGGGGGAAAACCCCCACCAGUCCCCCC'
p33
aF1.0
aa(lp34
S'Mat - Martian 2'
p35
aS'GGGGAAAACCCCAAACGGGGGGAAGGGGGUGAAAAAAACACCCCCCCCCCCGAAAGGGGGGGCGAAAAACACGGGGACGGGGGGAAAAAAGCCCCCCGCCUCGUGGAACGGACGGGGGGGGGUAAAAAUCCCCCCCACCGUCCGAAAAAAGCCCCCCCAAAGGGGGGCGGGUGGGAAAAAAGCCCACCCAAGCCCCCCGAACUGGAAAACUAG'
p36
aF1.0
aa(lp37
S'square'
p38
aS'GUGAUGGGGGGGGCGGGUGGGGGAGGUAUCCUCCCAAAACCACUCGAAAUCCCCCCAAAACCAUCGC'
p39
aF1.0
aa(lp40
S'Six legd turtle 2'
p41
aS'AAAAAGGAAACCAAAAGGAAUUUAAAGUAAAGCGAAAAUGAAAGACAAUUCAAUCUAAAAGCUCAUCAAAAGAAAAUUAAAAAAAAAAAAAAAAAAAA'
p42
aF0.9591836734693877
aa(lp43
S'Small and Easy 6'
p44
aS'CUCUGUAAAACAAAUCAAAAAAAAAGGGAG'
p45
aF0.9333333333333333
aa(lp46
S'Fractile'
p47
aS'AAAAAAAAAAAAUCGAAAGGGAGAAAAGUUAAAGAAAUGCAAACGAAAACGAAAGCAAUGAAAGUGGAGGUAUCGAAAACCUAAAAAAAAAAAAAAAAAAAAAAA'
p48
aF0.9619047619047619
aa(lp49
S'Six legd Turtle'
p50
aS'AAAAAUAAAAAGUAACAGUAAAAUCCAAAGGAAAAUGAAACCAAAAAGCAAAAGCAAAAUAGAAAUGAAAUAAAAAAUUCAAACAAAAAAAAAAAAAAAAAAAAA'
p51
aF0.9619047619047619
aa(lp52
S'snoRNA SNORD64'
p53
aS'GGGGGGAAAAACGGAAAAGGGAAAGGGGGAAAAAAAAAAAAACCCCCAAAACCCAACCGAACCCCCC'
p54
aF1.0
aa(lp55
S'Chalk Outline'
p56
aS'AAAAACGGCACGGGGAAAACCACCGAGGGAGGGAAAACCCCCCAGGGGGGAAAACCACCCCACGCGUAAAAACGACGGCCGAAAAAAAAAAAAAAAAAAAAAAA'
p57
aF1.0
aa(lp58
S'InfoRNA bulge test 9'
p59
aS'GGAGGGGAGUGUGAGGGGGAGUAAUCUCCCCCCCCCCCCUCC'
p60
aF1.0
aa(lp61
S'Tilted Russian Cross'
p62
aS'AAAAACGGUAAGAGAAAUCUUCGGGAGGUGGAAACACUGGGUGUAAUCGCCCACGGGUAAUCCCGCCCGCUGCAAAGGCAGGCCGGAAAAAAAAAAAAAAAAAAA'
p63
aF1.0
aa(lp64
S'This is ACTUALLY Small And Easy 6'
p65
aS'AAAAAAAAAAAAAAAAAAAAAAAAAAAAAAAAAAAAAAAAAAAAAAAAAAAAAAAAAAAAAAAAAAAAAAAAAAAAAAAAAAAAAAAAAAAAAAAAAAAAAAAAAAAAAAAAAAAAAAAAAAAAAAAAAAAAAAAAAAAAAAAAAAAAAAAAAAAAAAAAAAAAAAAAAAAAAAAAAAAAAAAAAAAAAAAAAAAAAAAAAAAAAAAAAAAAAAAAAAAAAAAAAAAAAAAAAAAAAAAAAAAAAAAAAAAAAAAAAAAAAAAAAAAAAAAAAAAAAAAAAAAAAAAAAAAAAAAAAAAAAAAAAAAAAAAAAAAAAAAAAAAAAAAAAAAAAAAAAAAAAAAAAAAAAAAAAAAAAAAAAAAAAAAAAAAAAAAAAAAAAAAAAAAAAAAAAAAAAAAA'
p66
aF1.0
aa(lp67
S'Shortie 4'
p68
aS'GAGAAAUCAACGAAAGU'
p69
aF1.0
aa(lp70
S'Shape Test'
p71
aS'AAAAACGCGGUAACGGGAAAAAAAAAUCCCGAACAGACGGAGGGGGAAAAACCCCCAAGGGAAAGCCCUACCGCUGAGGCCGAGAAAAAAAAAAAAAAAAAAAA'
p72
aF1.0
aa(lp73
S'The Minitsry'
p74
aS'GGGAAAAAGGGAAAAAGGGAAAAACGGAAAAACGGAAAAAAAACCGACCGACCCACCCACCC'
p75
aF1.0
aa(lp76
S'stickshift'
p77
aS'AAGGGGGGGGAAAAACCACCCCCCAA'
p78
aF1.0
aa(lp79
S'U'
p80
aS'AAAAGGGAGGAGAGACGAGAGGGGGGGGGAAAGCCCCUCCCCCCGCCCCUCCAAAAA'
p81
aF1.0
aa(lp82
S'Still Life (Sunflower In A Vase)'
p83
aS'AAACGGCUAGAGGGAAAAACGUGCGGGAGGGGAACUGGCAAAGGAGGAAAACCUGUGAGGGGCUAUGCCCUGAGGGAUAAAAAACCACGAGGGGGAAAAACCCCCGGGGGGGGGGUGGGGGGGGGGGGGGGUGGGAAAAACCGCCAGGUAGAAAAAAAAAAAAACGUCGAAAAAAAAAAAAAAAAAAAAAAAAAAAAAAAAAAAAAAAAGGCGAAAAAAAAAAAAACUGCCGGGAUUAAUGUCCCACCCCCCCCCCUCCACCCCCUCCCAGCUGGUUAAAUGCCGAAAGUAGAAAAAAUCCUCAGGGGAUGAAAAGUCCUAAUGGGUGAAAAACCCAAAGUGAUGAAAAUCGCGCGUGGGGAAAACUCGCUGCCGGAA'
p84
aF0.9735449735449735
aa(lp85
S'Quasispecies 2-2 Loop Challenge'
p86
aS'AAAAACAGGGGGCAGGCGGGAAACCGCAAGCCCAGGGGAACAAAGGACCCCGGUGGGAGAUGGUAAAAGACCUACGACCACCCUGAAAAAAAAAAAAAAAAAAAA'
p87
aF1.0
aa(lp88
S'Corner bulge training'
p89
aS'ACGGGGGCGGGGAAACCCCGAAAACCCCCGA'
p90
aF1.0
aa(lp91
S'Spiral'
p92
aS'AAAAAGGGGACGGGGGACGGACGGGGACGGGACGGGAGGAGGAGGAGGAGGAGGAAAAACCCCCCCCCCCCCCCGCCCGCCCCGCCGCCCCCGCCCCAAAAA'
p93
aF1.0
aa(lp94
S'InfoRNA bulge test'
p95
aS'AAAAAAAAAAAAAAAAAAAAAAAAAAAAACGGCAAAAAAGGGGAAAACGGGAAAGGGGAAGGGGACGGGAAAAACCACGGCCACCAACCACCAAACCACGGAAAACCACCAAAAAAGCACGA'
p96
aF1.0
aa(lp97
S'Worm 1'
p98
aS'AAAAAAAGAUACCAUUGUUGACGGAAAAUUGUAAAAAUUUGGGGC'
p99
aF0.8666666666666667
aa(lp100
S'just down to 1 bulge'
p101
aS'AAAAACGGGACGGGGAAAACCCCGAGGGAAAACCCACCACGAAAACGGGACGGAAAACCGACGGAAAACCGACCCGAAAAAAAAAAAAAAAAAAAA'
p102
aF1.0
aa(lp103
S'Iron Cross'
p104
aS'GUGGAGGGAAACGCACGCAAGGUGAGAGAAAACUCAGCGAAGCGAAGGGAAAACCCACCGGAACGGAUCGAAUUAGUUGUGGAAUUCAGCGUUUAGUACAGCAACCCAGGCAAGGUCACCGAA'
p105
aF0.983739837398374
aa(lp106
S'loops and stems'
p107
aS'AAAAAGGGGGGGAAACGGGAAACGGGAAACGGCAAAAAAAAACGGGGAAAAAAAAAAAACCCCGAAAGCCGAAAACGGGAAAAAAAAAACCCGAAACCCGAAAGGGAAAAAAAACCCAAACCCGAAGGAAAAAACCGAACCCCCCCAAAAA'
p108
aF1.0
aa(lp109
S'Water Strider'
p110
aS'AAAAACCGCGGAGGCUCAGGCAAAGGCCAUGGAAACAAGAGAAAAAGCAGGGGAAACCCGGUAAAAACCAGCACCAAUGAGGAAAAAAAAAAAAAAAAAAAAA'
p111
aF0.9611650485436893
aa(lp112
S'The Turtle(s) Move(s)'
p113
aS'AAAUGAAAACAGAAACUGGGGGGGAAAAAAAAACCCCCCCAGAAAACUGGAAAAACCGGAAAAAGGGAAAACCCGAAGGGGGAAAAAAACCCCCAAAAGGCGAACCAAAAAGAAAAAACGAAAACAAAAAAGAGGGCAAAAAAAGCCCUCAAAAGGGAAAACCCGAAAAGGGGGGAAAAGGAGAAAAAAUCCAAGGAUAAAAAAUUUUGAAGGGGGAAAAAACCCCCGAAGGGGAAAAACCCCAACCCCCCAAAAAAAAAUAAAAACUAAAAAUCAAAACAAAAAAACGGCGAAAAAAAAAACGCCGGAAAAAGCC'
p114
aF0.9873417721518988
aa(lp115
S'Adenine'
p116
aS'GGGGGAGGGGGUGGCGGGGAGGGGUGAGGGGGCAGGGGGGAAAAGGGAGGAAAAAACCUCCCACCCCCCGCGGGGAAAGGCGGGGAAGCCCCGCCCCCCGAGCCCCCAGGGGGGAGGGUGGAAUACCUUCAAACCCCCACACCCCAAAACCCCGCAAAAGCCCCCAAAACCCCC'
p117
aF1.0
aa(lp118
S'Tripod5'
p119
aS'AUCUGGCGGGUAAAUCCCGGGCGUAAAUUGCCCCAGUA'
p120
aF1.0
aa(lp121
S'Shortie 6'
p122
aS'GUGAAAACACCAAAAGGAGGGAAACCAAGGAAACU'
p123
aF1.0
aa(lp124
S'Runner'
p125
aS'AAAAACGGCUGGGGAAAAACUGGAAACCAGGUUCCAAAUGGAAUGCCGUUAUACGAAAGCGUUCCCCAAAUGGAAAGAAACCAAAUUGCAAAGGUAAAAGCCAGCCUGCUGAAAAA'
p126
aF0.9827586206896551
aa(lp127
S'Recoil'
p128
aS'AAAAACGGGGAAGGAAGGAAGGGAAGGGAAGGAAGCAAAGCACCACCCACCCACCACCACCCCGAAAAAAAAAAAAAAAAAAAAA'
p129
aF1.0
aa(lp130
S'[CloudBeta] An Arm and a Leg 1.0'
p131
aS'AAAAAUGGAGGUGGGAAACUAACCCGGAUGUAAUCACCGACCAAAAAAAAAAAAAAAAAAAAA'
p132
aF1.0
aa(lp133
S'[CloudBeta] 5 Adjacent Stack Multi-Branch Loop'
p134
aS'GCGGCGCUGGAAACAGCGCCCCAAAGGGGGCCGGGGGAAAUCCUGGAGGGAAACCUCGCUGUA'
p135
aF1.0
aa(lp136
S'Triple Y'
p137
aS'AAAAAGGCUGACGAAUGGAAAGGUUCGGUAAAGGCGGCGUCAUAGCGAGAAAACUCGUUCGAAAAUACACUCAGGCCGAAAAAAAAAAAAAAAAAAA'
p138
aF0.9072164948453608
aa(lp139
S'Misfolded Aptamer'
p140
aS'AGGGUAAAAGGCCCGAAACGGAGGAAAACCAAAAAAAAAGCAAAAUCCCU'
p141
aF1.0
aa(lp142
S'Flower power'
p143
aS'AAAAAGGGCGCGCGAAGCGUAGGAUGGCGACGAUGCAGGAGAUAUCCUCAUCACUAAUCCUCGUCCCCCUAUAUUAGGACCCAAAAAAAAAAAAAAAAAAAA'
p144
aF0.9607843137254902
aa(lp145
S'Kudzu'
p146
aS'AAAAAUGCACUAUGCGCUGACAGCAGCAAGCCCCAGGGCCGCGCGAAGCGACGCGAAGUGAAGCACGGAGUGAAAUGGGUGAAAAAAAAAAAAAAAAAAAA'
p147
aF0.9603960396039604
aa(lp148
S'"1,2,3and4bulges"'
p149
aS'AAAAACUCGAAAAGUAAAGCUAAAAUUUAUCUGAAAAUAGCCAAGUAAAGGUGUCUGAAAACAAAAGCGUAUAAUUGUUAAAACCAAAAAAAAAAAAAAAAAAAA'
p150
aF0.9428571428571428
aa(lp151
S'medallion'
p152
aS'GGGGGGAGUGGGGAAAACCCCCCUGGUAAACACUUGUGAAAUCACAGGGGGGUAAUCCCCCCUUGGGAAAUCAUGGGGAGAAAACUCCCCAGCGAAAACGCAGGUGAAAGCCAGGGGCGAAAACGCCUCAGUAAAAAUACGUGCGUCAAAAGACGCAAUGGGAAACCAAGAGAAAACUCAUGAAGGAAAACCUUCGAGACAAAACGCACGGUAGAAAACCAUCCGAGGGAAACCUACAGAAAACUGGUGGGGUUAAUAUUCUAGGGUAAAAGCUAGGUGGGAAAACCCGCCAGGGAAAAACCGGGGAAAACCCUGUAUGGAAAACCGCACUCCCUCC'
p153
aF0.9525222551928784
aa(lp154
S'[RNA] Repetitious Sequences 8/10'
p155
aS'AGGAAAAAACCAAAAAAGGAAAAAACGAAAAAACCAAAAAAGGAAAAAACCAAAAAAGGAAAAAACGAAAAAACCAAAAA'
p156
aF1.0
aa(lp157
S'Documenting repetitious behavior'
p158
aS'AAAAAAUGCGAAAAAAAGCUAAAAAAAAACUAAAAAAAAAUAAAAAAAAAUGGAAAAAAAAACUAAAAAAAACCGAAAAAAAAAGCAAAAAAAAAGGAAAAAAAAAUGAAAAAAAAAACAAAAAAAAAUAGAAAAAAAACGAAAAAAAAACGAAAAAAAAGCCAAAAAAAAAAGUAAAAAAAACGAAAAAAAAAAGAAAAAAAAGCCAAAAAAAAACGAAAAAAAAGCGAAAAAAAAAGGAAAAAAAAACGAAAAAAAAAUGAAAAAAAAAUAAAAAAAAAAGUGAAAAAAAGCGAAAAAAAAACUGAAAAAAAGCCAAAAAAAAAUGAAAAAAAAGCGGAAAAAAAACGUAAAAAAAACAAAAAAAAAAAGAAAAAAAAAGGAAAAAAAAAUUUAAAAA'
p159
aF0.9275
aa(lp160
S'7 multiloop'
p161
aS'GGGCGGAUUGAAAGGACCAGCGCGAAAGCGUUGAUGAAAAGUCAUCGGGCGGAAACGCCCUAACUUAAUAGUUAAGUAGAAAGCUACGGCCC'
p162
aF0.9782608695652174
aa(lp163
S'Kyurem 7'
p164
aS'AAAAAUGGGGUCCGAGAAAUCGUGGAAAACUAGCUGAAAAAGAUGACAGGGGUAAAAUGUCGAAGUGAUGCACAGGCGCCCAGAAAAAAAAAAAAAAAAAAA'
p165
aF0.9607843137254902
aa(lp166
S'JF1'
p167
aS'GGGGGGGGGGGCGGGGGAAGGGGCAAAACAUGAGCGAGGGGAAUGGGGUAAGGGGGGAGGGGGGGGGGGGGGAAAACCCCCCCCCCCCCCAACGGAAAACCGAGGGGGGGGGAAAACCCCCCCCCGAGGGGGAAAACCUCCACCCCCCAGCCCCGCCCCUACUCGUGAAACGGGUGGGAAAAACCCAACCCGAACGGGGGGGGGGGGGGGGGGGGUGGAAAACCGCCCCCCCCCCCACCCCCCCCCGAAACGCGUAAAAAAGCGCGCGGGGGGGGGAAAACCCCCCCCCGGAAAGGGGAAACCCUAAGCCCCAACCCCCAGGGGAGGGAGGGAAAACCCCCCCCCCUCGGGGGGGGAAAACCCCCACCCGUCCCCACCCACCCCAAA'
p168
aF1.0
aa(lp169
S'multilooping fun'
p170
aS'GGAUCCCUUAAAGAAGUAAACGGACGGGAAACUUCC'
p171
aF0.8888888888888888
aa(lp172
S'Multiloop...'
p173
aS'UGGAAAGGAGCAGUAAACUGUCGCUAAGCCAGCGGGAAACUGUGGAGAAAUCCUAGAGAAAUUUAUGGGAAACCGAUCCCACUUGGAAAAAGCCAAGCGGGAAACCGUUCA'
p174
aF0.9819819819819819
aa(lp175
S'hard Y'
p176
aS'AAAAAUGUCGUAGAGGGGUGUAAUCCCACCUACGUCGCGGGGUGGGAAACCGCCCCGUGGACGGAAAA'
p177
aF0.9705882352941176
aa(lp178
S'Mat - Elements & Sections'
p179
aS'AAAAGGGGAAGAAACAUGGGAAUGAGGAGUCGGGGACCACGGAAAGUCGGGAGCCUCAGCCCCGAAAUGGCCCGGGAAGCAUCCUAAAAAAAAAAAAAAAAAAAA'
p180
aF0.9619047619047619
aa(lp181
S'Chicken feet'
p182
aS'AAAAAAGACGAAGAAGGCAGCAAAGGAAAUGUCUGCAGAAGGAAACAGGGUAUCCAAAUUGGUAAAA'
p183
aF0.9402985074626866
aa(lp184
S'Bug 18'
p185
aS'ACUUGGACUGCGAUCGAAGCGUGAAGAGUAGCAUGGUGAAGGAGCUUAAUGGG'
p186
aF0.9245283018867925
aa(lp187
S'Fractal star x5'
p188
aS'AAAAAGGGCGGUUAAGAUGAAAACAUUAGGGAUACAAGUCCACGGUGGAAACACUAAUGCGAAAACGCGAAGGCCGCCCGAAAAGAGGGGGGAAGGGUAAAAGCCCAAGGGGAAAACCCCGAGGGGAAAACCCCAAGUGGAAAACCGCAACCUCCCUCAAAAAUGGCGUUGAAGUGGGAAACCGCAGGGGCGAAAGCCCAGAUGGAAAACCAUAACUGGAAAACCAGAACGACGCCGAAAAAGUGGGAGCAAGGUGAAAACAUCAAGGCGGAAACGCCAAUGGUAAAAACCAAAGGGGGAAACCCCAAGCUCCCGCAAAAGGUGUUACGAAAAGGAAAACCUUAAGGCGAAAGCGCCAUGGCCAAAGGGCCUAGGUUUAAUAACCAACGUGGCACAAAAA'
p189
aF1.0
aa(lp190
S'Crop circle 2'
p191
aS'AGUAAUGAAAUUAUAAAUAUAGAAAAAAAUGAAAAAAAAAAAAAAAAAAAAAAAAAAAAAGCAAAAAAAAAAAAAAAAAUAAAAAAAAUCAAAAAAAGCAGAAUCCAAAA'
p192
aF0.9454545454545454
aa(lp193
S'Branching Loop'
p194
aS'GACAAGAAAAAAAAAGGAGGAAAUUAGGAUUGUAAAAAAA'
p195
aF0.95
aa(lp196
S'Bug 38'
p197
aS'GUGCUAAUGGAUAACAAACCGAACAAGCGGAAUCAA'
p198
aF0.9444444444444444
aa(lp199
S'Simple Single Bond'
p200
aS'AAAAAAGAAAAAAAAUGGGGAAAAGCUCUUAAAAAAAGCGAAAAAAAAAAAAAAAAAAAAA'
p201
aF1.0
aa(lp202
S'Taraxacum officinale'
p203
aS'GCUGAAAACAAUCAGGGCGAAAGACCUAGAGGGAAACACUCGGUCAUAAACAGGAAGGGGGAAACACCUUAGCGAAAGCGGCUUGGGUGGGGUGGGGGGGGGGGAGAAAUUCCACCCCCCCACGGGUAAGGGGGUGGUGGGGGGUGGCAAAGCCGCUCACGCCACCCCUGUGGAGGGUGGGAACCACUCCCACGCCCGAAACCACCCCGCCCACGGGGAAACACCGAGGCUGAAAGAGCAUGACGGAAACAGUCUGGGGGAAUCACCCAAUGAAAAAGGCGU'
p204
aF0.9716312056737588
aa(lp205
S'Headless Bug on Windshield'
p206
aS'UCCCCGAAAAUCAGGUAAUAGUCGCUAAAAAAAAAAAAAAAAAAAAAAAUCUGUCUUAAACCAUGUAAUGAGCUAGGGGGUGAAGCAAAAAAACAGAAAUGAAAAAAAGCGCAAAAAAACCUGGGAGGAAAAAAAGAGAGGCAAGGACAGUAAUGAAAAAAAAAAAAAAACGGUAACAAUCUAAGUACUCGGUCAAGCAA'
p207
aF0.98
aa(lp208
S'Pokeball'
p209
aS'AAACUAGGGUAAAAUGAAGCAAGAGAAGGAAGGGAGGAGUGAAGGAACGGAACGGCCAACAACCACCGACCCCUCAGCGCAACCCUAGAAAAAAAACGUGUGGAAAAGGAAGGAAGGGAAGGAAGGAAGGAAGGAAGGGAGCAAAGCACCAACCACCGCCAACCACCCGCCACCCCGCAUGAAA'
p210
aF1.0
aa(lp211
S'Variation of a crop circle'
p212
aS'AAAAGAAAAUUCGAAUCCAAAAGUAUCGGUGGCAACCUAUCUAAAGCAAAAAAAGAAAAAAAGUUAAAAAAAACCGAAAAAAAAAAAA'
p213
aF0.9318181818181818
aa(lp214
S'Loop next to a Multiloop'
p215
aS'AAGGGUGAGGAAAAAAAGAGUAGGGAAAACCCUGCAUGGGUGGAAAACCACCCGUUGAAAAAGCCUCGUCCGA'
p216
aF0.9726027397260274
aa(lp217
S'Snowflake 4'
p218
aS'GUCGGAAGCGGGGGGUUCGAAAAGGGGGCAACGGGGCGGAAACGCUCGCUCUUUAUGAGAAAUGGGUAUCUACGCUAGCGAAAGGGUCUCGAAUGAUCGUUAAUGCGAGGUAGGGAAACCAGAACAUGGAACAUGACCUCGGUAAUGCGGUCAGAAGCGCAAGAAAAUCUUGAGCCGAAAAUCCAAGGGGUAUCCCCUCAGGGGUAAGUCGCGCUGACGGGGCAAAAGCGCGUGGAGGGAAGCCCCUAAGUUAAGGAUCCCGCCGUAAAGCCCCCCGAAGGGUCCCAAAAAGGUGGCCGUGGAACGCGAAGCUGGAACGGCGCCCUCAAAAAGGGGGCCAGGCCCCCCGAAAGGACUUCGGGAAAACCGU'
p219
aF0.8810810810810811
aa(lp220
S'Mat - Cuboid'
p221
aS'GAAGGAAAACUAAGAAAAAGCAAACAAAACGAGCAAGCAAAAACAAGGAAGGAAAACAACGUAUGAAGUAAAACGAAGGAAGUUAGGAAAACCAAUGAAAGUAGGAAUGAAAAGGAAGGUAGUAAGGAAUUAAAAGGAGCGAAGGAAGGGUGUAAGUAAAAUGAAUGAACGAAGGAAGGAAGGAAAAGUGUGGGAGGGAGGAAUGAACUAAAAAAGGAACGAACCAACCAACCUACUCCAACCAGCCAACGAACAAGCGACAAACUACCAACCAACCAACAAAAAUCAAUCAUCCGACCCGAACCAUCCGACAAAGGACAUCCAAUCAAUCGCAGCAAACGAAGCCAACGAAGUCCAAGCAAGUUAGAGCCAAAGCCAAC'
p222
aF0.9394736842105263
aa(lp223
S'Misfolded Aptamer 6'
p224
aS'AAAAAAGGCAAAAAAGGGUAGCUAAGCCGAAAAAAAACGGAAAUGAAAAAACCCAAAAAAGGCCAAAAAAAAAAA'
p225
aF1.0
aa(lp226
S'Snowflake 3'
p227
aS'GGGGGUAAUCCAGGCGGGAAAACCCAAAGGCAAGGCUAGGGAAAACCCGGCGGGCAAUCCCGGAAGCUGGGGAAACCAGCCGAGAAAACUCAUGCCUACUGCAAGGGAAAACCCGGCAGGUAAUCCGGGAAACCCGUAAAAGCAGCCGGGAAAACCCAGGCAGGUGGCAAACGAAAACGUGGCAGGGAAACCGCGUAUCGUGGAAACCCAGCCGGGUAAUCCCAAGCCAACUGCAAGGGAAAUCCCGCCAGGGAAACACAUAAAGUGCGUAAUCCAGGCGGCGAAACCCAAGCAGGAUGCAAGGGAAAACCCGUCGGGAAAGCCCGGGAACUCGGAAAACCAGGUGGUAAAAGCCAAGCGGAGCUUAACGAGAAAUCGGCCAUGGAAACCCCU'
p228
aF0.8091603053435115
aa(lp229
S'Hard Y and a bit more'
p230
aS'AAAAUCUGGGUGAGGGAGAAAACUCGGCCAAUGAGACCUACGGGAAAACCCGGACGGCGUAAAAUCGCCGAUGGCCUCAUCCCAGUAAAAAAAAAAAAAAAAAAAA'
p231
aF0.9905660377358491
aa(lp232
S'Mat - Lot 2-2 B'
p233
aS'GAAUGCGAUGGGAAGGAAAAGGAAGGGGAAAAUCAAAACCAACCCCAACCAAAACCAAGCGGAAGUAACCAAGGAGAAUGAAAAGAGAGGCUAACCAAAAGGAAAAGCGCGGAGAAAAAUAAUCCGGAUUCCAACGAAUGAAAACAGGAUGACUAGCUAAAAUGAAGGGGAAAAUCAAAAACAACCCCUAAUAAAAACUACCCGAAGGAACCAAGAGGUGGGAAAAUCAAGGGGAAGGAAAAGGAAAACCCCAAGCAAAACUAGCGACAUCCAUGACCAAAAAC'
p234
aF0.8556338028169014
aa(lp235
S'Shapes and Energy'
p236
aS'AAAAAAGGCUGUCUGCGAAAACCAAGUGUGGUAAUCAACAUGGUGCGUAAGUGCGAAACUGAUGAAAGACACGAACCGAUUAAAAAAAAAAAAAAAAAAAA'
p237
aF0.9603960396039604
aa(lp238
S"Spiral of 5's"
p239
aS'GAAAGCGGGGAAAGGGGUAAAGGGGGAAAACGGGGGAAGGGGGAAAGGGGGAAGGGGGAAAACGGGGAAAGGGAGAAAGGGGGAAGGGGGAAAGGGGGUAAGGGGGAAGGGGGGAAGGGGGAAGGGGUAAGGGGGUAGGGGGAAGCGGGAGGGGGAGGGGGGGUGGAAAAACCGCCAAAAACCCCCAAAAACCCCCAAAAACCCGCAAAAGCCCCCAAAAUCCCCCAAAAAACCCCAAAAACCCCCAAAAACCCCCGAAAACCCCCAAAAUCCCCCAAAAACCCUCAAAAACCCCCAAAAACUCCCAAAAACCCCGAAAAACCCCCAAAAACCCCCAAAAACCCCCAAAAACCCCGAAAAACCCCCAAAAAACCCCAAAAACCCCGAAAAAUAAAAA'
p240
aF0.9949622166246851
aa(lp241
S'Campfire'
p242
aS'AAAAAGCGAAGCGGGAACGGGAAGAUGUAAAUCGUUGGGCAGAAGCCCACGCCCCGGGUGGGACUAGGAGGGGUGAAAGUACCCCCACAGGGAGGCAAGACGGAACUGCCCCGGGGAGGGAAAGCUACUACCCAAUCACGGUCCAGCUCCCCCGCGUGGUAGUGAGGGGAAAGUCCCCGCGCGGGGGAGGGAAACCGACCACUCUACUCCCC'
p243
aF0.8820754716981132
aa(lp244
S'Anemone'
p245
aS'AAAAUGGGUAAAGGACCGUGAUUCGAAAGGGUUGGGCCCAAAGCGUCCAUAGUGAAAGCACUAGGUUAUAAAAAUCGCUUGGUGAAAGCGCCAUGGUAAAAGGCUUAAGUGGGAAAGCUUACUAUGGACAAAACGACAUUCCUGAAAGCGGCCAGGUAAUAAUUUACCUCACAGUAAACCGUAGGGGAGGAAACUUCCUGAUUCGAAAGAGUCG'
p246
aF0.8411214953271028
aa(lp247
S'Fractal 3'
p248
aS'AAAAUGUGGGGCAGCCUAAUAGGGAAAGCAAGGCAUUCACAAAAAGAUGGAAUACAACGGCGUACGCAAACGACAAAGGCGGACUUGGACUUAAUGGUAGAAAGGACCCACCACUAAAA'
p249
aF0.8403361344537815
aa(lp250
S'Kyurem 5'
p251
aS'AAAAAGGGGCUAGUGGAAACACGAAAAAAAGCUGGCUAAAUGAAAAAGUAAGGCCGGGGAAAAACCUAAGCUAUCAGGAAUUCCAAAAAAAAAAAAAAAAAAAA'
p252
aF0.9615384615384616
aa(lp253
S'Snowflake Necklace ( or v2.0 )'
p254
aS'GGGGGGAUGUGGUAUACGAGGAGGAAAAACGUGUUAAAUACUGGAAAAACCGGUCAAAAACAGGAAAAACCACUUCGAGAGUAAACCCGAAGUGGGGGAAAAAGGACGAAAAACGACAAAAAAUCAAGAAAAACUAGCGAAAAGCACCGUGAUGGUAAAUCCCACGUUGAGUAAAAAGAAGGAAAAGCCAGAAAAAAUCAGGAAAAAUCAGGGAAAACCACAGCCACGGAAAAAUCGGCGGGGAGGAAAAACAAGCAAAAAGCUUCAAAAACGUGGAAAAGCCAGUAAAAAUCACCCCGAGGUAAAAACCGAAUUGGACUGAAAAAGAGUAAAAAACAUCAAAAAGCGGGAAAAACCAGGAAAAACCGCGAGGAAUGCCGCGUCCCCCU'
p255
aF0.87146529562982
aa(lp256
S'Methaqualone C16H14N2O Structural Representation'
p257
aS'AAAAAAUUGGGACGGGACUCACGGGAAACCGAAGCAUGGAAAACCGACGCAGGGAAAACCCACGGAGGGAAAACCCAGGGGAAAAAACCCACCGAGCGAGCUAGAGUCAAAGUCCCGGGGGGAAAGGAGAGAAGUGAAAUUAAAAAAAACUCCCGGAGGGAAAACCCGUGAAAACGCCGGAAAACCCCCGGCCAAAGGUGAGAAGCACGGAGGGACGGAGGGAGUGGAAAUAGAAAACUGACGCAGGGAAAACCCACCCACGGAAAACCGACCGACGGAAAACCGGCCCAGGCGGGAAAACCCGUGAAAACACAGCGAAAACGCCCUAACGACGCUAAACCCCACCCAUAAAAAA'
p258
aF0.9380281690140845
aa(lp259
S"Cat's Toy 2"
p260
aS'AAAUCUGCUAUAAAAUCUAGUUAAAAAAAAAAAAAAAAAUAAGACGAGCGAAAGCGGUGCAGAAAUGAAAAAAAAGUAAAAAAAGUGGAGCACUAAA'
p261
aF0.979381443298969
aa(lp262
S'Zigzag Semicircle'
p263
aS'AAAGUGUAUGGGGGAAAAAUAAACAAUGCGAAAA'
p264
aF0.9411764705882353
aa(lp265
S'Short String 4'
p266
aS'AAAAAUCGACCAAUGAAGAAAUGACACUAAAAAAACAAGGAGGGCGAAGGAAAACUAUCUAACAAACACAAAGGCGUAAAAAAAAAAAAAAAAAAAA'
p267
aF0.9381443298969072
aa(lp268
S'Gladius'
p269
aS'CGAAAGAAGAAAAGAAAGGGAACAAGAAAGGGAGGGAAACUUGAAAACGAGACGGGGAAGACGUAAGACGGGAAGACGGGAAUACGGGGGGGAGGUGGGAACGCGAGGGGAGGGGAAGGCGAAACGCCACCCACCCCCCAGACAAACCACCCACUCCCCGAAAACCCGAACACCCGAACAACGAGCACCCCGACCCAAACGGAGGGGGACAAGGGACAAGGGGACAAGGGGACGAGGAGGGGAGUGGGGAUAGGGUGGGGGGAGGCACGGGGGAAAACCCCCGAAGCCCACCCCAUCCCUUACCCCGAUCCCGCCCAGAACCCCAGAACCCCAGAACCCAGAACCCCCACGGGAAAGCCCGAAACCGACCCAAAUAAGGUAACAAAUAAAACAAGAAAAC'
p270
aF0.9225
aa(lp271
S'Thunderbolt'
p272
aS'GGAGGGAAGUAAAAAAAGAGCAGUGUCAAGGACAAAGGACGGGUUGGAAAAAAAAAGGAAAAAACUGGAAAAACCAGAAAAAACCGAACCAACCAAAAAAAGAGGAAAAAACAAUAAUAAUGCUAAAAGAAAAUAGGGCAAAAACGUAAAAAGAAAGGCAAAGACUAACAAAAAGCGGGGGUGAAGUAAAAAAGAACGAUAAAAGACCAUAAAAAAUCAAAACCGAAAAAAAAGCCCAGGGGUCGGUGAAAUACCCAAGCUAUAAAAAAAAAAAAGGAAGGAAAAAAAAAGAAGAAAAAGCGGGGGAAAAAGAAAAAAAACGAAAACCCCCGAACAGAAAACCGAUCCGAAAAAAAAAUCCAAGCAAAAAAAAAAAAAAAUUCUUCCAACCA'
p273
aF0.9540816326530612
aa(lp274
S'Mutated chicken feet'
p275
aS'AAAAAAUGUAGAUUUAAGGAAUCAAAGGAAUCCGAUGGAAGAGGAAAAGAUCAAAGGAAACUCAGGGAACUCCUAUAGAGGGAACUAAUGCCUAAAAAAA'
p276
aF0.86
aa(lp277
S'Chicken Tracks'
p278
aS'AAAAAAAGGGCGCGCCGCUGAAAAGUGAAGGACUAAUGUCCGAACGGGAAAUCGUGUGCGCCAAGGGUAAUAAAGGAAAUCUCAGAAUGAGUAACGCGAACAUCCCCGAAAAAAAA'
p279
aF0.9310344827586207
aa(lp280
S'Looking Back Again'
p281
aS'AUCAACAGCGGGUAAAACUGCGGAAACCGCGGGCGCGAAUGGAGGAAGUGAAACACCCGACGGGGAAUGGGCAAAAGCCCUAAGCCCCGAACCAAACUGAAGGGGCGAUAAAAGGGGUAAAAACCCCAAAAAUUUGAGAGGGAGUCAAAGACCUUGGAUAAAUUCCAGGCGGGGAAUGAAGAAGGAGGAGAAGUAGGAAACUACGACACAACCAACUCCGUGGAAACGCAACUCCGCAAACACCGCUCUAGAUGCAGUGGAAAAAACGGGGCGAAAAAAAAGAGCAAAAAGAGCUGCCAAAGCGACCACGGGGAAAAAAGGGGGGACGAAAGCACCGAACGGGGAAACCAGGUGGGAACCGCCAACCGCCAAAACCCCGCAUCAAGGAU'
p282
aF0.8997429305912596
aa(lp283
S'Multilooping 6'
p284
aS'AUUUCCCUCCCAAUUUAAUAAGUGUGCGUUAAUACGUAGAGGCCGGUGGUAAUACACCCUUAAAAAGUUAGGGCCGGGAGUA'
p285
aF0.926829268292683
aa(lp286
S'Cesspool'
p287
aS'GAAGAACAAAAGGAGACAAGCCUAGAAAAUCUUAGAUCAAUGAAAGAAGAAAACAACAGAAGAAAACAACAAAAAGAAAACAACAGCAAUGACAACAAAAGAAUGUAAGCCAUGGAAAUCAAAGAACAAACAAAGAAAGAAGUAACAGAAGAAAACAACAAAAGGAAAACAAGAAAGAGGGAGAACAAAAGAAGUGAAGACGGAGAAAGCGAAGAACGACCUAAGAAGAAAACAACGGGAGAAAACAACAAAAGGAAAACAACAAUCAAAGAAGAACAAAAGAAGGAAAUGCUCGGAAAGCGUAGAAAAAUCCAAGAAGAAAACAACAGAAGAAAACAACAAAAAGAAAACAACAACC'
p288
aF0.770949720670391
aa(lp289
S'Hoglafractal'
p290
aS'AAGACGAAGUCGUAAAAAGUGGAAAAAACCACUCCCACUGGGAAAGGGGAAAAACACCCGCGGAGAAGGGGAAACUCUCUGCGAAAAAAGUAAAGGCGGAAAAACCCCGCACGGGAAGGGAAAAACCCCCCGGAGGUAAUGUCCAGCGCAAAAGGGAAUGGAAAAAACCACCCGCAGGAAAAACCGAGGCUAAUGCCAGGGGGAAAAAGACAGAAAAAACUUCGUGUAAAUCACGGUAACGCAAGGGGCAAAAAAGGGAAAAAACCCGGGAAAACCGAAGGGGGGGAAGCCCCCCCAAAAAAGGCCCCUAAAAAGCUCCCAAAAAGCGCAAAAUCGAAACGAACAAAUGCGAGGGGAAAACCAAAAGCGGAAAACCGGGGCUAAAGGCCCCACCCCCGAA'
p291
aF0.925
aa(lp292
S'Bullseye'
p293
aS'AAUGCGCCAAGAAUCGGAACUGGAAACCGGAACACGAAGCCUGUGCUAAAAAAAGGACGAUGAAGGCUAGCGGGGAAUGCGAAAGAGAAACCCGUCUAAAAAAAGGGCCGUGAAAUGCGAACGGCAAAGCCGGAGGGGAAACCCCGCCAAAAAAAGUGGCGGUAAAGCAGAACGUCGAACGCGAACAGGAAGCCCGCUAAAA'
p294
aF0.8712871287128713
aa(lp295
S'Shooting Star'
p296
aS'GGGGGUCGGGCGGGUGGAAAGACAUGUACGGAGGGAUAAAAAUAGUCACCCGGGACUAGCAAUCAUCCGAGGGUGAAGAGAAGGAUAAAGGAGCAGGCAGAGUAGGAAAACACACCACCCUGACUCACUUAGCACAGCCAACUUAAUAAACCUCCGGGGGCGCUAUGUCCCAGGCAGAAGCUUCCGGCUAAUGACACCCGACCCGACGGGAUGGGAAACGGUUAGAAACUGCCCGGGGGCGAAACGCACCCUAGGCCGAGAAACUCGGCCAGGUCGGAACGGCCCCCGAAGGAAUUAAUAGGACAAGUUGACGUGCAGGGGAGAAAAACGCCCCACCCGAGAACUUCACAAUUCCUAACCCCCA'
p297
aF0.8736263736263736
aa(lp298
S'Teslagon'
p299
aS'AAAAAAUAAAAAAAAUGACGAAAAAAAUUAGGAAAAAAAAAAAAAAAUCGAAAAAAAAUGAAAAAAAAAAAAAAACGGAAGAAAAAACGACGAAAAAAAUUAAAAAAAAAAAAAAAAAAAAAAAACGACGAAAAAAACUAGUAAAAAAAAAAAAAAAGAAAAAAAAAACGAAAAAAAAAAAAAAAUGAAGGAAAAAACGACAAAAAAAACUGAAAAAAAAAAAAAACGAAAAAAACCACGAAAAAAAACAGUGAAAAAAAAAAAAAAAGAAAAAAAAACUUAAAAAAAAAAAAAUCGAGGAAAAAAAGGACGAAAAAAAGGAAAAAAAAAAAAGCAAAAAAAAAAAAAAAGCACUAAAAAAACGACGGAAAAAAUAAAAAAA'
p300
aF0.8979057591623036
aa.