(lp0
(lp1
S'Simple Hairpin'
p2
aS'ACAUCAAAAAAGAUGU'
p3
aF1.0
aa(lp4
S'Arabidopsis Thaliana 6 RNA - Difficulty Level 0'
p5
aS'ACAUAUCAAAUGAUAAAAAAAAAAAAUCGAUAUAUCAAGAUAUAUAAAUAUAUAAAUAAAGAUAUAAAAAAAUAUCAGUUUAUAAUAUUUAUAUAUCAAGAUAUAUCAAGAUAUGU'
p6
aF1.0
aa(lp7
S'Prion Pseudoknot - Difficulty Level 0'
p8
aS'GAUAUCAGAUCGAAAGAUCGAUAAUCAAAAAAAAAA'
p9
aF1.0
aa(lp10
S'Human Integrated Adenovirus - Difficulty Level 0'
p11
aS'AUAGAUGGCCAUUUGUACCUGAAAAAAAAAAAUGUCCGUGGUGAGAGGGGCUAUAUGAAAAGCAAAUUAGUGAUUAAAAAAUAUUGUUAGUUCAAAUGCUAUAUUAAAGGUGAAAAGCUCGCGAAAACGGUUUAAAAAUAGUCGUGACAGAAAAAAAAAAGUAGGUGAGGAUUAAAGGCCGUAAACUGUAGA'
p12
aF0.9791666666666666
aa(lp13
S'The Gammaretrovirus Signal - Difficulty Level 0'
p14
aS'AAGUCAAGAUGUCUAAUGAUAUCGGGUCAAAAAAGAGCAAGACAGCUCCAUAUGAAAGUAUGCAACGGGCGUCGUUCAACGCAUAUCAAAGGAUAUGUGAA'
p15
aF1.0
aa(lp16
S'Saccharomyces Cerevisiae - Difficulty Level 0'
p17
aS'GUCUGUCCAGCGUAAAAAAGCUGUUACAAAAAAAAAAAAAGUAAAACGACAUUAAAAAUGUGUCAGCGGGCAAAAUAUAUACAAGAUCGAAAAAAAGGUCGGGCGAAAAAAAAAAACCCAAAUCCUGGUAAAAAUCCAGGGUAUAUAAAAGGCAAACUACGAACUAAAAAAUGUUCGGGAUCUAAAAAUGAUUCCAAACGAUAUGAAAAAAAUGUCGGUUUGCAAAGGCUUCUGAAUGUCGAAAAAAAGAUAGGUUACAAAAAAAGUAACUAACUUAUACAAAAAAGGUAUACGGGAGCAAAUGAUCGGGAAACUGGAAAAAAACAGUGAGAUCUAAAAAUGAUCUCAAACGGUAAAAAAAAGUUACCCCCGAUCUAAA'
p18
aF0.9894459102902374
aa(lp19
S'Fractal 2'
p20
aS'AAAAAUACAGAUCGAAGAUAUUUAAAAAGAGCAAAAAAAAAAGCUCAAGGUGCAAAAAAAAACAUCGACCUGGAAAAAAAAAUAGGAAUUUGGAUAUCGAAGAUAUAGAUUAUGAGGAAAAAAAAAACCUCUUGAGCAAAAAAAAAAGCUCUAGAUCUAAAAAAAAUGAUCGGGGUCUAUAUUAAAGAGAUAUACAGUGGGUAAAAAAAAAAAUCCUAGAGCUAAAAAAAAUGCUCAGCAUGAAAAAAAAAACAUGAAUGUGUAUCUCAAAGAUCUGUGAAAAA'
p21
aF1.0
aa(lp22
S'G-C Placement'
p23
aS'CCAGUAUUUGGA'
p24
aF1.0
aa(lp25
S'The Sun'
p26
aS'CACAUGUGUAUAAAAUACUAACCGUGAAAGGUACAUUGCUAAAAGUAAAAUGGCCAAUGAUAGGUCGUUAAGAGCGAAACCAUCUAGGACAUGCAUUCGAAGGAUAAGUAGUCAAGAAGAAAACUCUGAAAGAGAGAUUCACAAUAAAACGUAUGUAAAAUAUAAACCCGUUAGGACAGAUAUUUGAAAAAUAAGUCGUCAAUGAUAGCUAUAUAAAAUGUAAAGCGUUUAAAAGGGGGAUAGUAUUGAUAAUCCUUU'
p27
aF0.8178294573643411
aa(lp28
S'Frog Foot'
p29
aS'AAAAAAAAAAGGUCGAAAGACCGUGUGAAAGCGCGCUGGAACAGC'
p30
aF1.0
aa(lp31
S'InfoRNA test 16'
p32
aS'CAGUGUACCGACAUCGAAAGGUGUACGUGGACACUG'
p33
aF1.0
aa(lp34
S'Mat - Martian 2'
p35
aS'GAUCGAAAGAUCAAAGAUAUAUAAGAUAUAUAAAAAAAAUAUAUCAUAUAUCAAAGAUAUAUCAAAAAAUAUAUAUAGGUAUAUAAAAAAAAUAUACCAUAUAUAAAAGAUAUAUAAAUAUAUAAAAAUUAUAUUUAAUAUAUCAAAAAGGAUAUAUCAAAGACAUACUAAUAUAUAAAAAUUAUAUUACCGUAUGUCAAAGAUCGAAAGAUC'
p36
aF1.0
aa(lp37
S'square'
p38
aS'ACAUAUCUAGAUCCAUAUAUCUAUAUUAUAUAUAGCAAAGUAUAUGAAAAGAUCUAAAAUGAUAUGU'
p39
aF1.0
aa(lp40
S'Six legd turtle 2'
p41
aS'AAAAAGCAAAGCGAAAGCAAAGCGAAAGCAAAGCGAAAGCAAAGCGAAAGCAAAGCGAAAGCAAAGCGAAAGCAAAGCAAAAAAAAAAAAAAAAAAAA'
p42
aF1.0
aa(lp43
S'Small and Easy 6'
p44
aS'AGGAAUAAAUUCAAAUGAAAAAAAAGACAA'
p45
aF0.8666666666666667
aa(lp46
S'Fractile'
p47
aS'AAAAAAAAAAAAGCGAAAGCAAAGCAAAGCGAAAGCAAGCAAAGCGAAAGCGAAGCAAGCGAAAGCAAAGCAAGCGAAAGCAAAAUAAAAAAAAAAAAAAAAAAA'
p48
aF1.0
aa(lp49
S'Six legd Turtle'
p50
aS'AAAAAUAAAAGUCGAAAGAAAAAGUGAAAGCAAAUUAAAAAUAUAAGGCGAAAGCAAAAGAGAAAUCGAAUGUGAAAGAUAAGCAAAAAAAAAAAAAAAAAAAAA'
p51
aF0.9619047619047619
aa(lp52
S'snoRNA SNORD64'
p53
aS'ACAUAUAAUAAGACAAAAGACAAAGAUAUAAAAAAAAAAAAAAUAUCGAAAGUCAAGUCAAAUAUGU'
p54
aF1.0
aa(lp55
S'Chalk Outline'
p56
aS'AAAAAGAUCGGAAACGAAAGUAUUCAGACAGACGAAAGUCGUCAGAUAGCGAAAGCAUAUCGGCCCUGAAAAGGAGCGAUCGGAAAAAAAAAAAAAAAAAAAAA'
p57
aF1.0
aa(lp58
S'InfoRNA bulge test 9'
p59
aS'ACAUAUCAGAGAGAGAUAUAUGAAAGUAUAUCCCCGAUAUGU'
p60
aF1.0
aa(lp61
S'Tilted Russian Cross'
p62
aS'AAAAAGUCCCAUCGAAAGAUGCUUGAGAUCGAAAGAUCGAUAUGAAAGUAUCAUAUCGAAAGAUGCAAGGGGUGAAAGCCCGGACGAAAAAAAAAAAAAAAAAAA'
p63
aF1.0
aa(lp64
S'This is ACTUALLY Small And Easy 6'
p65
aS'AAAAAAAAAAAAAAAAAAAAAAAAAAAAAAAAAAAAAAAAAAAAAAAAAAAAAAAAAAAAAAAAAAAAAAAAAAAAAAAAAAAAAAAAAAAAAAAAAAAAAAAAAAAAAAAAAAAAAAAAAAAAAAAAAAAAAAAAAAAAAAAAAAAAAAAAAAAAAAAAAAAAAAAAAAAAAAAAAAAAAAAAAAAAAAAAAAAAAAAAAAAAAAAAAAAAAAAAAAAAAAAAAAAAAAAAAAAAAAAAAAAAAAAAAAAAAAAAAAAAAAAAAAAAAAAAAAAAAAAAAAAAAAAAAAAAAAAAAAAAAAAAAAAAAAAAAAAAAAAAAAAAAAAAAAAAAAAAAAAAAAAAAAAAAAAAAAAAAAAAAAAAAAAAAAAAAAAAAAAAAAAAAAAAAAAAAAAAAAAA'
p66
aF1.0
aa(lp67
S'Shortie 4'
p68
aS'ACGAAAGUAGCGAAAGC'
p69
aF1.0
aa(lp70
S'Shape Test'
p71
aS'AAAAAGUGGGCAAGAUAUGAAAAAAAAUAUCAGGACAGACAGAUAUAAAAAAUAUCGGAUCGAAAGAUCGGUCGUCAAGCUCUCGAAAAAAAAAAAAAAAAAAA'
p72
aF1.0
aa(lp73
S'The Minitsry'
p74
aS'AGCGAAAAGAGGAAAAGGUAAAAAGAGAAAAAGUCAAAAAAAAGACACUCAACCACUCGGCU'
p75
aF1.0
aa(lp76
S'stickshift'
p77
aS'AAGACAUAGGUAAAUCUAUAUGUCGA'
p78
aF1.0
aa(lp79
S'U'
p80
aS'AAAAAGAUAUAGAGAGCAGAGAUAUAUACGAAAGUAUAUAUCCGCCCAUAUCAAAAA'
p81
aF1.0
aa(lp82
S'Still Life (Sunflower In A Vase)'
p83
aS'AACGAUUAAUAAUCAAAAAGAUUAAAUAUAUCAUAUGAAAAGUUAUAAAAAAUAACAAGGAAUGAAAUUCCAAUAUGUAAAAGGUAUAAAGAGUUAAAAAAGUUCAGAUAACUAAAUUUAGAAAUAUAAAAUAUGAAAAAAUAUUAAAUCCUAAAAAAAAAAAAGCUUAAAAAAAAAAAAAAAAAAAAAAAAAAAAAAAAAAAAAACCCAAGCAGAAAAAAAAAAUGGAUCGAAGCGAAAGCUUCAUUAUAUUUUUAGAUUUAGUUAUCAUGUUAGAAAAACUAGCUAUAAGCAAAAAGCUUAAAGGUUGAAAAACAAUCAUCAUAUAAAAAAUAUGUAGUUCUGAAAGGAGCAAUAUUCAAAAAGAAUAGGGACAAA'
p84
aF0.9259259259259259
aa(lp85
S'Quasispecies 2-2 Loop Challenge'
p86
aS'AAAAAUUACGUUCAAAAACGAAAGUUUGAGAGCAGAUCAAGAAAAGAGAUCAGAGCAUGAGGACAAAAAGUCAGCUAGCUCGUAAAAAAAAAAAAAAAAAAAAAA'
p87
aF0.9809523809523809
aa(lp88
S'Corner bulge training'
p89
aS'AGAUAUCGAUAUAAAAUAUCAAAAGAUAUCA'
p90
aF1.0
aa(lp91
S'Spiral'
p92
aS'AAAAAGAUCAGAUAUCAGACAGAUAUAGAUCAGAUCAGCAGCAGCAGCAGCAGCAAAAAGCGCGCGCGCGCGAUCGAUCAUAUCGUCGAUAUCGAUCAAAAA'
p93
aF1.0
aa(lp94
S'InfoRNA bulge test'
p95
aS'AAAAAAAAAAAAAAAAAAAAAAAAAAAAGGUGCGAAAAUAACCAAAACCUCUAGGACUAACAACAACCUUAAAUAGAGUGGUCUGGGAGAUCAAUGACGGGAAAAGGAUUUAAAAAGCGACA'
p96
aF1.0
aa(lp97
S'Worm 1'
p98
aS'AAAAAAAGACGGAGGGAAUUGCAAAAAAUUGUUGCAUACUCAGAC'
p99
aF0.9111111111111111
aa(lp100
S'just down to 1 bulge'
p101
aS'AAAAAGAACAGAUAUGAAAGUAUCAGACGAAAGUCAGUGUCAAAAGUUGAGACAAAGGUCAAGCGAAAGCUAUAGCAAAAAAAAAAAAAAAAAAAA'
p102
aF1.0
aa(lp103
S'Iron Cross'
p104
aS'UUAUAGGUAAAGGGAAACAAUGUGAGAGCAAACUCGCCCAAAGCCAUAUUAAUGUAAGUGAAAGGUAUUCAAUACAUAUUGAAAGUGUGAUUAUGUCUUGGUAAAUCAACUGAAGGGAAUAUA'
p105
aF0.943089430894309
aa(lp106
S'loops and stems'
p107
aS'AAAAAGAUUUGUAAAUGUUAAAGAUCAAAGGUUAAAAAAAAAGAUAUAAAAAAAAAAAAAUAUCAAAGACCGAAACAUCAAAAAAAAAAGGUGAAAGAUCGAAGACAAAAAAAAGUCAAAAACAAUGCUAAAAUGCUAAAUAAAUCAAAAA'
p108
aF1.0
aa(lp109
S'Water Strider'
p110
aS'AAAAGCUUGUGAAAUGGAUCGGAAACGGGGCGAAAGCCUCAAUGUGGGUAAGAAAGUUAACAUAAUAGUAAUGCUUAGCUGGAAAAAAAAAAAAAAAAAAAAA'
p111
aF0.9611650485436893
aa(lp112
S'The Turtle(s) Move(s)'
p113
aS'AAAGCGAAAGCAAAAGAGAUGUACAAAAAAAAGGUACAUCUCGAAGGAUCAAAAAGAUCACAAAUUCGAAAGGAGGGGAGAUGAAAAAAAUUUCAAAACACAAAGCGAAAGCACAAAGAGGAAACUCGAAUGCUAUUCAAAAACGUUGGCUAAGGACGAAAGUCAAAAAGAUAUUAAAGGAUAAAAAAGGUCAUUACGAAAAAAAGUAUAAGAGGCAAAAAAGCUUCAAGUAUGGAAAACAUAAAAAGAUCAAAAAAAAAGAGAAAUCGCAAAUCUAUUGGGAACUGGAGUUGAAAAAAAAAGACUCAAAAAAGUG'
p114
aF0.9873417721518988
aa(lp115
S'Adenine'
p116
aS'ACAUAAGAUAUCAGAUAUCAGAUAUCAGAUAUGGGAUAUCAAAAGAUAUCAAAAAAGAUAUCGGAUAUCGGAUAUAAAUCGAUAUAAAAUAUCGAAUAUCACAUAUCAGUUAUAUAAAUCGAAGAUUUAUAAAGUAACAGAUAUCAAAAGAUAUCAAAAGGUAUCAAAAUAUGU'
p117
aF1.0
aa(lp118
S'Tripod5'
p119
aS'AAGGGGUAUCAAAAAGAUAGACCAAAAAGGUUCCUCGA'
p120
aF1.0
aa(lp121
S'Shortie 6'
p122
aS'GCGAAAGCAGCGAAAGCAGCGAAAGCAGCGAAAGC'
p123
aF1.0
aa(lp124
S'Runner'
p125
aS'AAAAGGCUCAGGUCUUAAUUCACGAAGUGAUGACUAAAUACCAGUCUAUGAAUGACUCUAUGCAGACAAACCUAGAUACUGUAGAAGGUGAAGCCGAAAGGCAACCGGGGCAAAAA'
p126
aF0.9827586206896551
aa(lp127
S'Recoil'
p128
aS'AAAAAGAUAUAAGCAAGCAAGACAAGACAAGCAAGCAAAGCAGCAGUCAGUCAGCAGCAAUAUCAAAAAAAAAAAAAAAAAAAAA'
p129
aF1.0
aa(lp130
S'[CloudBeta] An Arm and a Leg 1.0'
p131
aS'AAAAAGACAGCGAUGAAAGUGCGCGACAGCGAAAGCGUCAGUCAAAAAAAAAAAAAAAAAAAA'
p132
aF1.0
aa(lp133
S'[CloudBeta] 5 Adjacent Stack Multi-Branch Loop'
p134
aS'GCAUGGCACGAAAGUGUUCCGUUAAUACGGAAACGUGAAAAUGUUGGGCGAAAGCCCCGUGUA'
p135
aF1.0
aa(lp136
S'Triple Y'
p137
aS'AAAAUGCGCCAUUGCGCAAAGGCGCCGUCAAAGGAUGCCCGUUUGAAUCAAAGGAUUGGGCAAAGGCUAUAACGUGCUAAAAAAAAAAAAAAAAAAA'
p138
aF0.9072164948453608
aa(lp139
S'Misfolded Aptamer'
p140
aS'CGCUUAAAAACCGACAAAGUCAGCGAAAGCAAAAAAAAAGGGAAAUAGUG'
p141
aF1.0
aa(lp142
S'Flower power'
p143
aS'AAAAAGCCUGAGGAAGUCUCAGAACAAGAAAGUCUCAAGAUGGAAUAUCGGGAUCAAGGAGCUAUCAUGUCAAGGGUGAGUUAAAAAAAAAAAAAAAAAAAA'
p144
aF0.8431372549019608
aa(lp145
S'Kudzu'
p146
aS'AAAAAGUCAGGGGGGAUAGAUAUCAUGCUUAGGAAUAUGUAUAGCAAAGCACAUAAUUACGAACUAUAAGGUACAACAGAUAAAAAAAAAAAAAAAAAAAA'
p147
aF0.9603960396039604
aa(lp148
S'"1,2,3and4bulges"'
p149
aS'AAAAGGGACGGGCGGGAAAUAUAAAGCCAAGUGAAAACUGGUAUAAAAACAAGAAAUAAAAGAAAUUGGGUGAAAACCGUUGAUGUAAAAAAAAAAAAAAAAAAA'
p150
aF0.9428571428571428
aa(lp151
S'medallion'
p152
aS'UCUGGCGGAUAUCGAAAGAUAUCAGACGAAAGUCAGACGAAAGUCAGAUAUCGAAAGAUAUCGGACGAAAGUCGGAUAUGGAAACAUAUCAGACGAAAGUCAGACGAAAGUCAGAUAUCGAAAGAUAUCAGACGAAAGUCAGAUAUCGAAAGAUAUCAGACGAAAGUCAGACGAAAGUCAGAUAUCGAAAGAUAUCAGACGAAAGUCGGAUGUCGAAAGAUAUCAGACGAAAGUCAGACGAAAGUUAGAUAUCGAAAGAUAUCAGACGAAAGUCAGAUAUCGAAAGAUAUCGCACGAAUGUGAGACGAAAGUCAGAUAUCAAAGGAUAUCAGCCAGA'
p153
aF1.0
aa(lp154
S'[RNA] Repetitious Sequences 8/10'
p155
aS'AGCAAAAAAGCAAAAAAGCAAAAAAGCAAAAAAGCAAAAAAGCAAAAAAGCAAAAAAGCAAAAAAGCAAAAAAGCAAAAA'
p156
aF1.0
aa(lp157
S'Documenting repetitious behavior'
p158
aS'AAAAAAGCGCAAUUUAAAGAUAAUGUAAGUUAUAUUUAAAUCGAAUUUAAGCGAAAUUUAAAUGAAAUCUAAGGCGAAAUUAAGAUAGAUUUAAGGAAAAAAAAAAGCAAUACACUGCCAAAAAAUUUUUAAGAACUUUGUUAACAAGUUGAAAAAAAACUAAAAAAAAAUUCCUCAAAAUAACUAAAAGCUUAUGAAAAAAAAAUAGAACGUAAGGGGAAUCUAAUGGUAAUUUAAGUUUCAUUUAAGUCUAAAGAAAUACAAAUAUAAAAGAAAUAUAAAGGAAUGUCAAGGUCAAAAAAAGUCAAAAACUUUGUAAAACCUUAGCAAAAAAUGUUAUAAAAAUCGUGAAAAAACUAGGAAAAAAUCUACGAAAAAUUUUCAAAAAAUCUCUAAAAAA'
p159
aF0.7825
aa(lp160
S'7 multiloop'
p161
aS'UCGUGAAGGGAAACUUUCGAUCUGAAAGGGUCGUUCUAAAGGGAACUGUAGGAAACUAUAGGUAUGAUUGAGACGUUAUGAAAGUAGCACGA'
p162
aF0.9782608695652174
aa(lp163
S'Kyurem 7'
p164
aS'AAUGUCACAUAUUUUGAAAGAACGAAAAAAUGUGACCUAAAUGGUAUCCUGGUAAAAUUCGAGUGGAAUGUUUUCUUCGCAGUAAAAAAAAAAAAAAAAAAA'
p165
aF0.9411764705882353
aa(lp166
S'JF1'
p167
aS'AUAGAUAGAUAAGAUAUAAGAUAUAAAUGAUGUCAAGAUAUAAAGAAGCAAGAUAUGAGAUAUAUAAAUAUCGAAAGAUAUUUAUAUAUCAAUACGAAAGUGGUAUAUAUAUGAAAGUAUAUAUAAAGAUAUGAAAGUAUCGCAUAUCAGCUUCAGUAUCAGAUAUCUAAGAUAUAGCAAAAAGCUAAUAUCGAGAUAUAUAAAUAUAUAAAUAUAUCGAAAGAUAUAUUUAUAUAUUUUAUAUAUCAACGAUGGAAAAAACUAUCUAUAUAUAUCGAAAGAUAUAUAUAAGAGACAUAAUUGUCAAAUAUCAAAUAUCAGAUCAGACAGACGAAAGUCGUCGAUCAGAUAGAUACGAAAGUAUCAUAUCAUAUCAUAUACUAUAGA'
p168
aF1.0
aa(lp169
S'multilooping fun'
p170
aS'CGUGGCUCCAAAAGAUGAAAUUGUAUAUAAACGUUU'
p171
aF0.8333333333333334
aa(lp172
S'Multiloop...'
p173
aS'AGCUGGAUCUGCCUAAUGGCUGUCGAAAGGCGCACGAAAGUGAGAAGAAAUUCAAACGAAAGUUAGACGAAAGUCGGAUCGUCUAUGAAAAAAUGGAUACGAAAGUAGGCU'
p174
aF1.0
aa(lp175
S'hard Y'
p176
aS'AAAAGGAUCGCAACGUUACCAAAGGGUGACGAUGCGAUAUUUACCGAAAGGUAGAUAUCGAUCAAAAA'
p177
aF0.9705882352941176
aa(lp178
S'Mat - Elements & Sections'
p179
aS'AAAAAAAAUACACAGACGUGGAAUAUGCCACGCGUAGAGAGCUAAUGUUAUAUGAGCUCUCAUAGAAUUACAUGGCGAGGGGUUUAAAAAAAAAAAAAAAAAAAA'
p180
aF0.9619047619047619
aa(lp181
S'Chicken feet'
p182
aS'AAAAAGGAUGAGAGAAGUGACAAAUCAAUCAACUGAAGCAGCAAGCCACAAAGUGAAAUCCCUAAAA'
p183
aF0.8507462686567164
aa(lp184
S'Bug 18'
p185
aS'AUCCGUGAUUAUGAUUAUUGUUUUAUGAAGCCUACAUAAUAUGAACACAAGGG'
p186
aF0.8867924528301887
aa(lp187
S'Fractal star x5'
p188
aS'AAAAAAAUAUACUAAGAUCGAAAGAUCAAUAUUGAAAGAUAAAGAUCGAAAGAUCAAGUGGAAAACUAUAAGGUAUAUUAAAAAGAUUUAUGAAGGUCGAAAGACCGGUAUCGAAAGAUAAAGAUCGAAAGAUCAAGAUGAAAACAUCAACAUAAAUCAAAAAGAUAUAUGAGGAUAGAAAUAUCAAUAUCUAAUGAUAAGGAUCGAAAGAUCAAUAGAAAAGUCUAAACAUAUAUCAAAAAGUUAUAGCAAGAUCGAAAGAUCAGUAUCGAAAGAUAAGGAUGGAAACAUCAAUUUCAAAAGAAAAAGCUAUAACAAAAAGAUAUAUGAGGAUCGAAAGAUCAAUAUCGAAAGAUAAAGAUCGAAAGAUCAUUAUCGAAAGAUAUACAUAUAUCAAAAA'
p189
aF1.0
aa(lp190
S'Crop circle 2'
p191
aS'UAGAGAUAAAAGCUAAAUCAAAAAAAAAUGGAAAAAAAAAAAAAAAAAAAAAAAAAAAAAGCUAAAAAAAAAAAAAAGCGUAAAAAAAUGCGAAAAAGGCAAAAGGAAAA'
p192
aF0.9636363636363636
aa(lp193
S'Branching Loop'
p194
aS'AGGGGUGAAAAAAAGGCUGAAAGCAGCUCCCCCGAAAAAA'
p195
aF0.95
aa(lp196
S'Bug 38'
p197
aS'AACAUAUGUCCUGUUAAAACCAUUCUGUUGAAAGUG'
p198
aF0.9444444444444444
aa(lp199
S'Simple Single Bond'
p200
aS'AAAAAAGAAAAAAAAUACCCAAAAGGGGUUAAAAAAAGCGAAAAAAAAAAAAAAAAAAAAA'
p201
aF1.0
aa(lp202
S'Taraxacum officinale'
p203
aS'ACGGGAAACACGUAUUGCGAAAGACAGAGAUCGAAAGAAUCAGAGCGAAAGACUCAGAUCGAAAGAAUCAUCUCGAAAGAAGAAGAUAUAUAAACGAUAUAUAUGUAAAAUAUAAUAUAUCAGAUAGAAGAUAUAGAAAAAGAUAUAUAAAAUAUAUCGUUUUUAUAUCGAUCAGAUAUCUAUGAUAUCGAUCCUAUCGAAGUUUAUAUAUCAGAGCGAAAGACUCAUAGCGAAAGACUAAGAUGGAAACAAUCAUAUCGAAAGCAUAAGAGGGAAACACUU'
p204
aF1.0
aa(lp205
S'Headless Bug on Windshield'
p206
aS'AGUAACGAAAAGAAGCAAACCUAGCAAAAAAAAAAAAAAAAAAAAAAAAAGCUUGGGAAGCUAUCAAAGUAACAGACAUGACAAGCAAAAAAAGCGAAAGCAAAAAAAGCGUCUAAAAAGUCAGAGCCAAAAAAGUGCAAGAAAGACAACCAGAUAAAAAAAAAAAAAAAAUCAGGGAAGUCAAUCAGCAAAGGAUCUCG'
p207
aF1.0
aa(lp208
S'Pokeball'
p209
aS'AAACGUGCAUAAAAGCAAUGAUGCCAACGAGGUGGGUGGGAAAUUAUGCAAAGCAAAGAUUAGACGCAACGGGGUUUAGGCGUGUACGAGAAAAAGUCUGUCAAAAAGGAGGAAGAAGAAGUAUCCAGGAAAUAAAGGAAGCAAAUCGUCAAUAAUCAGGUAACACACAUCGCCAGAUAGGAAA'
p210
aF0.9891304347826086
aa(lp211
S'Variation of a crop circle'
p212
aS'AAAAGGUAAACUUAAUAGAAAAGAAAAGAAUUAAAGGAAAUAAAAGUAAAAAAGUUAAAAAUCCAAAAAAAAUUCUAAAAAAAAAAAA'
p213
aF0.9545454545454546
aa(lp214
S'Loop next to a Multiloop'
p215
aS'AUGAUAUAUUUAAAAAGCGGGUUUCGAAAGAGACCGGAUAGAUGAAAGUUUAUCAGAAAAAAUAAUAUAUCUA'
p216
aF1.0
aa(lp217
S'Snowflake 4'
p218
aS'AAGCAAAGCUUUUAUAACGAAAGUUAUAUAUGAUAAGCAAAGGCUAUAGCAUCGAAAACCAAGAGACAAGCUUCUAAAGCAAAGGUUUAUGUGGAUAUUCAAAGGCCUAACCUAUAAAAUAGAAUCUCAAAGAGAGUUAGUCUAAUGGAUAUCAAUAUAUCCAAACGUCAUAUCUAUAAAAUAGAAUAUCAAAGUUAAUAUGCCAAAGGGACAUGGACAUAUCCGAAAGGCAUAUCUAUAAGAUAGAAGAUCAAAGAUCAUAUGCCGAAAGGAUAUGGAGAGAUGCGAAACCUGUAUGAUCAAAGAUCAAUCUCAAAGAGAGUAUAGCGAAAGCGUUUCCAAUAAAGGUAAUUCUGUAAAACCAAGGGUU'
p219
aF0.8810810810810811
aa(lp220
S'Mat - Cuboid'
p221
aS'GAACCAAAAGCAAGGAAAAGCAAGCAAAAGAACCAAGCAAAAGCAAGCGAGUAAAAGAAGGUAGGUACCAAAAGAUAGCAAGCUAGCAAAAGGAAGCAAGUAAGCAAGCAAAAGCAAGCAGGCAAGCAAUCAAAAGCAAGUAAGUAAGAAAGCAAGCAAAAGUAAGCAAACAAGUAUGUAGGGAAAAGCAGGUAGGCAAUCAAGCAAAAAAAAAAUUAAGCAAGGAAGCAAGCAAGCUUAAGUUAGCGAGCAAGCAAACGCAAGCAAGCAAGCAAGCAAGUGCAAGCAAGCUAGCAAGCGCAAGCAAGCAAGCAACCCCAAGCAAGCAUUCGGAUUCAUCCAACGCAACCAGGCGCAAGCAACGCGAGCCCAAGUGGAAC'
p222
aF0.8368421052631579
aa(lp223
S'Misfolded Aptamer 6'
p224
aS'AAAAAAGAAAAAAAAGUGUAACAAAUGUCAAAAAAAAGGCUAAGGGAAAAACACGAAAAAGUUCGCAAAAAAAAA'
p225
aF1.0
aa(lp226
S'Snowflake 3'
p227
aS'UCCACGAAAGUUGAUCAUUAAUGUGAAGCGCAGGUCAAGUCGAAAGGCGACAGCGAAAGCAGAAAGUGGUUGAAAGAACUAGACGAAAGUCAAGGUCAUAUGAAUACGAAAGUGCAUUGCAAAGGCAAUAAAAAAUCUAAUGAUGUGGACUAAUGUCAAUAUAAGAACAACACGAAAGUGCAAAGGGAAACCGGUAAAAUGACGAAAGAGACAGACGAAAGUCAGGUUCAGUUCAGCACGAAAGUGGGUUGUGAAAGCAAAAAGUUUUCGAAAGACACAGACGAAAGUCAAGGACAUAUCAAGACGAAAGUCGAUAUCGAAAGGUAUAAGAUAUCGAAAGAAAUCGUCGAAAGGCAAGAUAGGCGCAAGACUAAUGUCAUCUGGGAAAUCGCA'
p228
aF0.8549618320610687
aa(lp229
S'Hard Y and a bit more'
p230
aS'AAAAUGAUAGCAACGUGAGAAAUCAUCGAUGGUAUAACGUGCUCAAAGGAGCUAGAUAUAAAAAGAUAUUAAGGCGUAUCUUAUCUAAAAAAAAAAAAAAAAAAAA'
p231
aF0.9716981132075472
aa(lp232
S'Mat - Lot 2-2 B'
p233
aS'GUGGGAUAGGUAUCCGAAAAGCAAGGUGGAAACGAAAUCCAGCCCCUUGCAAAACCAUGCUAAAGCAAGCAAGCACGAGUAAAAGCAGGUUGAAGGAAAAGUGAAAGCGCAGCAAAAAGCAAGCUUAAGCGCAAGCAAGGUAAAUCCCAGGAUAAGACAAAAGUAAGAUCGAAAGGAAAAUCAAGGGCAUUAAAAAAGUAGGCCAAGCAAGCGAGCGCUACUAAAAGCGACCCCGAUCAAAAACGAAAGUGGAAGAAAACGGAAGCAGCUGCGCAGAAAACAUC'
p234
aF0.8450704225352113
aa(lp235
S'Shapes and Energy'
p236
aS'AAAAAAUUGACAACAUCAAAAUAAAGUUAGGUAAUUAUGGCGAGAGAUCCUCGAUAAAGGGCCGAAAGGUUUAUUGAAUAUAAAAAAAAAAAAAAAAAAAA'
p237
aF0.9801980198019802
aa(lp238
S"Spiral of 5's"
p239
aS'UAAAGGAUAUAAAGAUGUGAAGAUAGAAAUGAUAUAAAGAGAUAAAGAUAAGAGAUAUAAAUGAUAUAAAGAUAUAAAGAUUUGUGAUAGGAAGAUAUAAGGAUAUAAGAUGUAAUGAUAUAAGCUAUAAGAUAUGAGAUAUAAGAUAGGGAUAUAUGUAUGGAAAAAAAAUUUCCGGGGAAUGCAAAAAAAUGUCAAAAACUAUCAAAAAAUAUCAAAAAAUAUCAAAAAAUAGCAAAAAAUAUCUAAAAACAUCAAAAAAUAUCAAAAAAUAUCAAAAACUAUCUAAAAAGAUCAAAAAAUAUCGAAAAAUAUCUAAAAAUAUCAAAAAUUAUCAAAAAAUCUCAAAAAAUAUCUAAAGCUAUCAAAAAAUAUCGAAAAAUAUCAAAAAGAAAAA'
p240
aF0.9949622166246851
aa(lp241
S'Campfire'
p242
aS'AAAACACAGAGAUGCAAGAUGGAGGUCAAAAGGAUCUGAGGCAAAGCCAUCACAUUGACUCGAGGAGCAGUGGUAAAGGCACACGCCCGUUGGAGCACUAGCAAAGGCAGCCGAACAGACGAAAGUACGAUUCAACCACACCGAAGUCUCGUCGAUGGACAAACAGAUCGAAAGAUCGUUGCCGCGCAAGCUAUGUUAAUAGGCAAUGUCGG'
p243
aF0.8820754716981132
aa(lp244
S'Anemone'
p245
aS'AAACAUUUGGAAACAAGUGGACGUGAAAGCGUCGGUUCCGAAAGGAACCGAGAGGAAACUCUCGAUAUCGAAAGAUAUCCAUGUGAAAAUAUGGGUAGUAAUCUACCGUGCUCGAAAGAGCGCAUCUAUGAAAGUAGAGAUCGCGAAAGCGAUUCGGCUGAAAGGUCGGAUAUCGAAAGGUAUCGAUGUGAAAAUAUCGCUAUCAAAGGAUAGC'
p246
aF1.0
aa(lp247
S'Fractal 3'
p248
aS'AAAAAGAUCAGAGAGUGAAAGCGGGAAACCACUCAGACACCGAAAGGACGAAAGUAGUCAGACACCGAAAGGGCGAAAGCUGUCAGACAGCGAAAGCGCGAAAGCAGUUAGAUCAAAAA'
p249
aF1.0
aa(lp250
S'Kyurem 5'
p251
aS'AAAAAAAAGUACAUCGAAAGGAUUCAAAAGGUCGUUCAAAGACAAAAAGUUGCACGACAAAAAGAUUAUCUCGGCGUAAAUUUCAAAAAAAAAAAAAAAAAAAA'
p252
aF0.9230769230769231
aa(lp253
S'Snowflake Necklace ( or v2.0 )'
p254
aS'GUAUAUAUAUUUACUGGUAAUAACGAAAAGUAUCGAAAAGAAGCAAAAAGCAUCAAAAAGAAACAAAAAGUGAUUACAGGGAAAAAUUAGUACGGAGCAAAAUGGGUCGAAAAGAGACAAAAAGCAUCUAAAUGAAGCAAAACGCGCCGUAAGACAAAAAGUCGGAUAGAGCAAAAAGCAUAAAAAUUAGGGAAAAACGAUAAAAAAGGAACAAAAAACUCUAUCACACAAAAAGUGAGCUAGUGCAAAAAGUUUCGAAAAGAAGCAAAAAGGAUUGAAAAGAAACAAAAAGCACUAGCAGCGAAAAACGCAUAUAGGGUAAAAGGCAGCAAAAGGCAGUAAAAAACAUUAAAAAGAGUCAAAAAGAACUAUAAGGUAAGUAUAUAUAC'
p255
aF0.87146529562982
aa(lp256
S'Methaqualone C16H14N2O Structural Representation'
p257
aS'AAAAAAAGGUCAGAUCAGUUAGACGAAAGUCAGUUACUUGAAAGGGAGAGGUGUGAAAGUAAGCUAGGUGAAAAUCACGUAAAAAAAAUGAAGCACUCAAACAAACAGAAGUAGAUCUACUCGAAGAGCAUAAAGUAAAGCAAAAAAAAAUGAGAGAAGCGAAAGCUAAGGAAACUUUUCAAAAGGACUUGUCAAAGAUUAAAAACAUACCCAAGCGUAUAGACAUAAAGGUCGAAAGGCAGUCAUACGAAAGUAACUAAGAAGAAAUUCCACGAGACAAAGGUCCGUCAGUUCAUGAAAGUGGUAGAAAGAUAUACGAAAGUAAUCACUAAGAACAAAGAGUUGACCAAAAAAA'
p258
aF0.9098591549295775
aa(lp259
S"Cat's Toy 2"
p260
aS'AAAACAUCGAUACAAGGCAGGAAAAAAAAAAAAAAAAAAUUAGGGGAGGCGAAAGCAAAUCUAAUGUAAAAAAAAUCAAAAAAGCAAUCGGUGAAAA'
p261
aF0.9587628865979382
aa(lp262
S'Zigzag Semicircle'
p263
aS'AAAAUUCGGGCGCUAAAAAUAAUUACUGAGGAAA'
p264
aF0.9411764705882353
aa(lp265
S'Short String 4'
p266
aS'AAAAAAGUAUAGAGAAAGAAAGAACACGGAAAAUGUGGCGAAGAUCGAGAGAAAUCAAGAACCGAACAACAAUAACAAAAAAAAAAAAAAAAAAAAA'
p267
aF0.9587628865979382
aa(lp268
S'Gladius'
p269
aS'GGAAACAAAAAACGAAGCAAGGGAACAAGCACGGACGAAGGUCGAAAGAUCAGAUUGAAGAGCCACGGGGCCAAUAGUGCAGGCGGGCCAUGCGAUAUAUGAGAGAGAUCAAAUCAAGCUAUAUUAGCGGAUAAGAUCUCUUUCCAAUAUCCAAUGGCUCAAUAGUACGUGAGGCCAAAAGGCAGUACAAUCAGUCAAACACAGGCGAAUAAGACGUAAUAUUUUAAUCUCGGUUAAUAUAUAGAAUAGAGAAACAGAUAUGCGACCGAUAUCGAAAGAUAUCUUGUCCUAUAUACGUUUACCUAUUAGAUAUAUUUCAAGAGGAAAUGAUGAGAAGUCAAAAUCGCCAGGUCGAAAGACCAAAGUGGGUGCAAGAACGCAGGAAGCAAAAUGAUAAAAA'
p270
aF0.91
aa(lp271
S'Thunderbolt'
p272
aS'UCAAGUUUUAAAAAAAAGAACAAGGAGUAAAAGAAAAUAGAUAUGUCGAAAAAAAAGGAAAAAAGAUGUAAAUUACAAAAAAACCGAAUCAAGCAAAAAAAGAAGAAAAAACGACAAGCAAGCAAAAAGUAAUCGGCUCAAAAAGAUAAAAUGAAGCACGAAGGGCAACUAAAAAUCAUACGUAUUAAAAAAAGAGAAGCAAAAUACAAUAAAAAAAGUGAGGUAGAAAAAAAGGGCAAAAAGAUAUAUAUUAUAUCAGCAAACAGAAAAAAAAAGAAAGAAAAAAAAAAGAACUGAAAGGAUAGGAAAAGCAAAAAAAAGAAAAACUUAUUAAGAAAGAAGAUAUAUCAAAAAAAUCACCAGGUACGAAAAGAAAAAUCCAAGAGCAAGAA'
p273
aF0.9285714285714286
aa(lp274
S'Mutated chicken feet'
p275
aS'GAAAAAAGCAGCGGUAAAAUGGCAAAGAAAAGCACAGUAUUGGCGAAUUACCUAUCGAAAAGACAGGAGCAGUAAAGUGGUGAAGCAAAGCCCAAAAAAA'
p276
aF0.88
aa(lp277
S'Chicken Tracks'
p278
aS'AAAAAAAAGAUAUACGAUCGAAAGAUCAAGAUCGAAAGAUCAACGUCGAAAGAUGGUAUAUCGAGGCGACCAAAGGUCAAGAUCAAGGAUCAAGCUCAAAGAGCGCCAAAGAAAAA'
p279
aF1.0
aa(lp280
S'Looking Back Again'
p281
aS'GAUAAGACAAUUAAAAAGAUAGCAAAGUUAUCAAAUUAAGCCGCUAAGACAAAGUCAGCGGAGAUAAAGAACUAAUGUUCAAAAAUUUCAAGGCAAGUCAGGGACUAUAAAAAGAUCUGAAAGGAUCAAAAAAAUCGAUACGGUGAAAAUCAUGGAUACAAAGUAUCGAUUUCGGAGGAAGAAGAACUGCAAGAUCGAAAGAUCAAACGAACCAACGUCGGCGAAAGCCAAGAUAUCAAAGUAUCGUCCGUAUUUAGAUCGAAAAAGGUAUAUUAAAUAAACCUCAAAAGGAGGAUAUAAAGCUAGGUGGCGCAAAAAAGCUAAAUAGAAAUAUUUAAAGACUAAAAUGGCAUAUAAAAUCUGAAGUUGUAAAAGAGCGGAUCGAGAUU'
p282
aF0.8611825192802056
aa(lp283
S'Multilooping 6'
p284
aS'AGGGUGACGUUCGCUUAUUAUCGGCCGAGGAAAUUCGCGGCGGCGAAAUUAAUGCUUAUAUUUUAAUGAAUGACAUCAUCAA'
p285
aF0.926829268292683
aa(lp286
S'Cesspool'
p287
aS'UAGAAAGAAAACAAUAGAAUUGAUGCAAAGGGGAGUAAAACUGGAGAAGAAAACAACGGAAGAAAACAACACAAUGAAAACAAUAAAAAGAAUAAGAAAACAGUAGAUGAGAGUCAAAGACAGCAACUAGGAAACAUGAAAACUAAAGAAGAAAACAACACAAUGAAAACACGAACAAACAAGAAUGAAAAAAUAGAUGAGAGUCAAAGGCAGCAACUACUAAUGAAGAAAACAACAUAAGGAAAUAACACAAAAAAAAUGCGGAGCAAGUAAGGAGGAAACAAGAGAAGAGAUGCAAAGCAAGCAACAACCCAAUAAGAAAACGAGAGAAGAAAGCGACACAAGGAAAACAACAAGC'
p288
aF0.7486033519553073
aa(lp289
S'Hoglafractal'
p290
aS'AAGGUGUACAUAUAAAAGGUAUAAAAAAAUAUUAUAAGUCAGAAAGUUCGAAAAGAACGUAGAUGAAGUCGAAAGGCCACAGACAAAGAUUAAAGAGCAAAAAGCCUCCAACUACAAGAGAAAAAUUCGUAGCAGCGAAAGCGUACGUCAAAAUCCGAGACUCAAAUGUAGGUUCAGCAAAAGGCGGUGGCAAAUCAAGAUACUAAAGCCAGCAAAAAAGCGGUAUAAAAAAUGUCGAAAGAAGAUAUCAAAAACAACAAAAAAGUUACUAAAUGAAAAGAUGUGUAAAACACAUCAAAAAAAGAUAUCAAAAAUGUAUUGAAAAGACGGAAAGUCAAUCAAACAAAGUAAACCUCAAAGGGAAAGUCGCGAAAGUUAUAUCAAAGAUAUAGGAGGUGUC'
p291
aF0.8525
aa(lp292
S'Bullseye'
p293
aS'AAAGUUCACCAAGGGUGAAAAUAAAGUGGGGAGAGCAAACUACAUCAAAAAAAUUCCGACCGAAGGUCAAGAAUAAAAUUCAACAUCAAGGAUGUUAUAAAAAAGGGUGUUAGAAUCGCAGGAGCUAUGCUCAAGUUAAAAGAACAUCAAAAAAAAGAGCAACAAAGAUGCGAGGGUAUUCCCAAAAGUUAUACUCUUCGAA'
p294
aF0.8316831683168316
aa(lp295
S'Shooting Star'
p296
aS'CCCUAUGGAUGAUAAAGAAGGAGAAGCUAGGAUAUACCGAAAGAAGUAACCUUGACAACCAGUUUUAUCAGACAUAAGAGUAGCUUGAAUAUAUAGUCAGUAUAGCUAAUGACAUAAUGGCAUUAUAGUUAUGAUAUCCGAAAGAAAUAGUGACGAUCCCAAUAAAAUUGGACUUAUUAUAUAGGGGAUAAUUACAGAUCAAUCCAGAUGAGUGGAAUGAUGUAUCAAAUAUGUAUAGUAUGAAAUGUACUGCGAGAACUAACAGAUCUCAAAGACAAAGCAUACAUCGAUGACCGAAAGGAAGGAGGGGAGAGGCAAAUCAGGGAAAUAUGAUAAGCCGCAGCAACGCAACCAUCAAUAGGGA'
p297
aF0.8269230769230769
aa(lp298
S'Teslagon'
p299
aS'AAAAAUUCAAAAAAAUCAGAAAAAAAAUCAAAAAAAAAAAAAAAAAAUCAAACAAUUACGAAAAAAAAAAAAAAAUGGGGAAAAAAAACACCUAAAAAAGUAAAAAAAAAAAAAAAGAAAAAAAUGCACCUAAAAAAGCAGGAAAAAAAAAAAAAAAUCAAACAAUUGACAAAAAAAAAAAAAAAGUAGCAAAAAAUGGGGCUAAAAAAACAAAAAAAAAAAAAAAGAAAAAAAAGCAGGAAAAAAAGAAGUAAAAAAAAAAAAAAAACAAACAAUGAUCAAAAAAAAAAAAAAAAGAGCAAAAAAAACGGCAAAAAAAGCAAAAAAAAAAAUGGAAAAAAAAAAAAAAACCUUCGAAAAAAGUAGAAAAAAAAGAUGAAAA'
p300
aF0.9057591623036649
aa.