(lp0
(lp1
S'Simple Hairpin'
p2
aS'GAUACAAAAAAGUAUC'
p3
aF1.0
aa(lp4
S'Arabidopsis Thaliana 6 RNA - Difficulty Level 0'
p5
aS'GAUAUACAGGUCACAAAAAAAAAAAGUGGAUAUAUCAAGAUAUAUAUAUACAUAUACAAAGAUACAAAAAAGUAUCAGUAUAUAGUAUAUAUAUAUCAAGAUAUAUCAAGUAUAUC'
p6
aF1.0
aa(lp7
S'Prion Pseudoknot - Difficulty Level 0'
p8
aS'GAGAUCAGAUCAAAAGAUCGAUACUCAAAAAAAAAA'
p9
aF1.0
aa(lp10
S'Human Integrated Adenovirus - Difficulty Level 0'
p11
aS'CUACAAGUCGACUGGUAUUUUAAAAAAAAAAGGAUCGGUGCCCGAAAAACCCACGGAAAAAGACGUAUGAUUUUGAAAAAAAGAGAUCGUACAAAAGUCUCUGUAAAAGGGCGGAAAUGUACCGCGGUUUAAAUAAAUGUUAAGCGAUCAAAAAAAAAAAGAAGAUGACAGUAAAACGAUUUAAGGUAGAGA'
p12
aF1.0
aa(lp13
S'The Gammaretrovirus Signal - Difficulty Level 0'
p14
aS'AAGGGGGGGGAUCAAAGGAUUCCAAUGCAAAAAAGAUCAAGACAGAUCGUUAUAAAGGUAGCAAAAGAUCGUCGAUCAAGAGUUAUGGAAAUAUAACUCAA'
p15
aF1.0
aa(lp16
S'Saccharomyces Cerevisiae - Difficulty Level 0'
p17
aS'GAUAUUCGCACGAAAAAAAGUGCUGUAAAAAAAAAAAAAAAGUUGGAGAUACUAAAAAUGUAUCGAAUAUCAAAGGAUACACAAGAUGGAAAAAAACAUCCCGUAAAAAAAACCCUCGGAGAAGAAAGAAAAAAAUAUGUGUGUAUCAAAAGAUGUAGCAGAUCAAAAAAAGGGUCUUUUGCUAAAAAUGUAAAGAGGUAAGUGAAAAAAACACUUCUAUAUCAAAAGAAGAACAAGAUCAAAAAAAGGAUCGAUAGCGAAAAAAGCUAUCAGGUGAUACGAAAAAAGUAUCGUUUUUCGAAUGAUACCCAAGUUCAAAAAAAGGAACGUGAUCAAAAAAGGAUCGCAGGUGAGAAUAAAAAUUUCUCGGGUAUCUAAA'
p18
aF0.9894459102902374
aa(lp19
S'Fractal 2'
p20
aS'AAAAAGAUAUAGCAAAGUUAGAUAUGGAGAGCGAAAAAAAAAGCUCAGCUGCAAAAAAAAAAGCGGAAGAUAAAAAAAAAAAUAUCAACAUAUCUAGCAAAGAUAUAUUUCGAGAGCAAAAAAAAAAGCUCGAUAGCAAAAAAAAAAGCUGAGGGUUUAAAAAAAAUGACCAAGAAAUAUAUCAAAGAUAUAUAUGAAUAGCAAAAAAAAAAGCUAAAGAGCAAAAAAAAAAGCUCAAGUUCGAAAAAAAAAGAGCAACGUAUAUAUCAAAGUUAUAUCAAAAA'
p21
aF1.0
aa(lp22
S'G-C Placement'
p23
aS'GAUCAAAGAUCA'
p24
aF1.0
aa(lp25
S'The Sun'
p26
aS'GCCAGAUACACGAAGUGUAAGACGUCAAAGAGAUGGAUUCAAGGGAUAACCGCUUAAAGUCAGAGAUACUAUGUAUAACUCGACAAAGACAGAGAUUCUAUGGGGAACUCAUCAAAGGCAGAGGCGCGAAGCGCAACUCGCCAAUGAAAGAAAGCCAAGGAAUAAUUCUCCUAUGUAAGAGAUUCAACGAAUAACUCUAGUAAGAUAGACAAAGACGGUAUAAGACAUCAAAGCCAGAGAGAGAAGCUUUACCUCAUC'
p27
aF0.8217054263565892
aa(lp28
S'Frog Foot'
p29
aS'AAAAAAAAAAGAGCAAAAGCUCGGUCAAAGGACCGACCAAGGGUC'
p30
aF1.0
aa(lp31
S'InfoRNA test 16'
p32
aS'GAGUUGUCAGAUAUCGAAAGAUAUACUAGUCAGCUC'
p33
aF1.0
aa(lp34
S'Mat - Martian 2'
p35
aS'GAUCAAAAGAUCAAAGAUAUACAAGAUAUACAAAAAAAGUAUAUCGUAUAUCAAAGAGAUAUCAAAAAAGAUAUACAGAUAUACAAAAAAAGUAUAUCGUAUAUCAAAGAUAUACAUAUAUCAAAAAAAGAUAUAUAGUAUAUCAAAAAAGAUAUCUCAAAGAGAUACAUAUAUCAAAAAAAGAUAUAUAAGUAUCUCAAAGAGCAAAAGCUC'
p36
aF1.0
aa(lp37
S'square'
p38
aS'GAUAUACCAGAUCCAUAUACCAUAUCAAAGAUAUGAAAAGUAUAUGAAAAGAUCUGAAAAGUAUAUC'
p39
aF1.0
aa(lp40
S'Six legd turtle 2'
p41
aS'AAAAAAUAAAGGAAAAACAAAACAAAAGUGGUUGAAAAAGCAGCGAAAAUGCGAACAAAAGUAAAACAAAAGUAAAAUAAAAAAAAAAAAAAAAAAAA'
p42
aF0.9591836734693877
aa(lp43
S'Small and Easy 6'
p44
aS'AGGCCAAAAGGGAAGUGAAAAAAAAAACCU'
p45
aF0.9333333333333333
aa(lp46
S'Fractile'
p47
aS'AAAAAAAAAAAAGGGAAACCAAAGCAAAGCAAAAGCAAGCAAAGGAAAACCGAAGCAAUCGAAAGGAAAGCAAGCGAAAGCAAAAAAAAAAAAAAAAAAAAAAAA'
p48
aF1.0
aa(lp49
S'Six legd Turtle'
p50
aS'AAAAAUCAAAAAUUAAUGUGAAAUCAAAAAGAAAGCUUAAGACAAAAUAAAAAGGAAAAGCAAAUGUAAAAGUAAAAACAAAAGGAAAAAAAAAAAAAAAAAAAA'
p51
aF0.9428571428571428
aa(lp52
S'snoRNA SNORD64'
p53
aS'GAUAUCAAAAAGACAAAAGACAAAGAUACAAAAAAAAAAAAAGUAUCGAAAGUCAAGUCAAGAUAUC'
p54
aF1.0
aa(lp55
S'Chalk Outline'
p56
aS'AAAAAGAUCAGAGACAAAAGUACUCAAUCAGACAAAAGUCGAUAGUUGACAAAAGUACAGCAGGAGCAAAAGCUACCGAUCAAAAAAAAAAAAAAAAAAAAAAA'
p57
aF1.0
aa(lp58
S'InfoRNA bulge test 9'
p59
aS'GAUAUACAGAGAGAGAUAUACAAAAGUAUAUCCCCGUAUAUC'
p60
aF1.0
aa(lp61
S'Tilted Russian Cross'
p62
aS'AAAAUGACCGACGGAAAUGCCCGAGAGAGCAAAGGGUUGAGGUGAAAGCUUCCGCUAUAAUUAGCCCCGCUUCGAAAGAAGGGUCUAAAAAAAAAAAAAAAAAAA'
p63
aF0.9809523809523809
aa(lp64
S'This is ACTUALLY Small And Easy 6'
p65
aS'AAAAAAAAAAAAAAAAAAAAAAAAAAAAAAAAAAAAAAAAAAAAAAAAAAAAAAAAAAAAAAAAAAAAAAAAAAAAAAAAAAAAAAAAAAAAAAAAAAAAAAAAAAAAAAAAAAAAAAAAAAAAAAAAAAAAAAAAAAAAAAAAAAAAAAAAAAAAAAAAAAAAAAAAAAAAAAAAAAAAAAAAAAAAAAAAAAAAAAAAAAAAAAAAAAAAAAAAAAAAAAAAAAAAAAAAAAAAAAAAAAAAAAAAAAAAAAAAAAAAAAAAAAAAAAAAAAAAAAAAAAAAAAAAAAAAAAAAAAAAAAAAAAAAAAAAAAAAAAAAAAAAAAAAAAAAAAAAAAAAAAAAAAAAAAAAAAAAAAAAAAAAAAAAAAAAAAAAAAAAAAAAAAAAAAAAAAAAAAAA'
p66
aF1.0
aa(lp67
S'Shortie 4'
p68
aS'CCGAAAGGACCGAAAGG'
p69
aF1.0
aa(lp70
S'Shape Test'
p71
aS'AAAAAGAGAUCAAGAUACAAAAAAAAGUAUCAAGAUAGACAGAUACAAAAAGUAUCAGAUCAAAAGAUCAGUCAUCAAGAUCGCAAAAAAAAAAAAAAAAAAAA'
p72
aF1.0
aa(lp73
S'The Minitsry'
p74
aS'UGCUAAAAGUGAAAAAGUAAAAAAUUUAGAAAGUUCAAAAAAAAGAAGAGGUGCCGAAUAUG'
p75
aF0.9032258064516129
aa(lp76
S'stickshift'
p77
aS'AGGGCUUCGCAAAAGGUAGAGGCCAA'
p78
aF1.0
aa(lp79
S'U'
p80
aS'AAAAAGAUACAGAGAGCAGAGAUAUAUACAAAAGUAUAUAUCCGCCCGUAUCAAAAA'
p81
aF1.0
aa(lp82
S'Still Life (Sunflower In A Vase)'
p83
aS'AAGGCUCAAGAAACAAAAAGUUUCAACAUAGAAACUAUGAAGAUACAAAAAGUAUCAAGAUACAAAGUAUCAAGAUCCAAAAAGGAUCAAAUGUCAAAAAGAUAUGGAUAUAUAUAUAUAUAUAUAUACCAUACAAAAAAGUAUGAGAUACAAAAAAAAAAAAAGGUCUAAAAAAAAAAAAAAAAAAAAAAAAAAAAAAAAAAAAAACUGAUCAAAAAAAAAAAAAGUAUCCAAUCGAAAGAUUGAGUAUAUAUAUAUAUAUAUAUAUCAAGCCAUAAAAAAUGGCAAGACUCAAAAAGAGUCAAUCUACAAAAGGUAGAAGUUUACAAAAAGUAAAAAAUUACGAAAGUAAUAAGCAUCAAAAAGAUGCAGAGCAAA'
p84
aF1.0
aa(lp85
S'Quasispecies 2-2 Loop Challenge'
p86
aS'AAAAAGAUCGGUCGGGGUCUAAUGAUCAAGGCCAGCUCAACAAAGGGGAGCGCAUCAGGAAGACAAAAGGUCAACAGGAUGGGUCAAAAAAAAAAAAAAAAAAAA'
p87
aF1.0
aa(lp88
S'Corner bulge training'
p89
aS'AGAUAUCGAUACAAAGUAUCAAAAGAUAUCA'
p90
aF1.0
aa(lp91
S'Spiral'
p92
aS'AAAAAGAUCAGAUAUCAGACAGAUACAGAUCAGAUCAGCAGCAGCAGCAGCAGCAAAAAGCGCGCGCGCGCGAUCGAUCGUAUCGUCGAUAUCGAUCAAAAA'
p93
aF1.0
aa(lp94
S'InfoRNA bulge test'
p95
aS'AAAAAAAAAAAAAAAAAAAAAAAAAAAAAGGACAAAAAAGGACAAAAGGAUAAAGGACAAGGACAGGACAAAAAGUACCAGUACCAAGUACCGAAAUACCAAAAAGUACCAAAAAAGUACCA'
p96
aF1.0
aa(lp97
S'Worm 1'
p98
aS'AAAAAAUGAUUGGACGUUUAGCAGAAAACCUUAAGUCUUAUUAGG'
p99
aF0.9111111111111111
aa(lp100
S'just down to 1 bulge'
p101
aS'AAAAAGGACAGAUACAAAAGUAUCAGACAAAAGUCAGUACCAAAAGAUCAGACAAAAGUCAGACAAAAGUCAGAUCAAAAAAAAAAAAAAAAAAAA'
p102
aF1.0
aa(lp103
S'Iron Cross'
p104
aS'AGACAGACAAUGGAAUAGAAAGUAAGUCAAAAGACAUUGUAGGGAAGACAAAAGCUAAAAAAAGUUGUCCAAAGAUGGAGUAAUAUUUACCGAAGCCAACCAAAGUCAAAUAAGAUUAGUCGA'
p105
aF0.9024390243902439
aa(lp106
S'loops and stems'
p107
aS'AAAAAGAUAUACAAAGAUCUAAGAUCAAAGUUCAAAAAAAAAGAUACAAAAAAAAAAAAGUAUCGAAGAGCGAAAGAACAAAAAAAAAAGUUCAAAGAUCAAAGACUAAAAAAUGUCAAUGAUCAAGCAAAAAAGCAAAGUAUAUCAAAAA'
p108
aF1.0
aa(lp109
S'Water Strider'
p110
aS'AAAAAACCUCAAGUCAUAUACAAAGGAGGAGAAAACGCGUGAAAAAGCUUUAGAAAUAGGCUUAAAGUUAGAGGUGUCGGGCAAAAAAAAAAAAAAAAAAAAA'
p111
aF0.941747572815534
aa(lp112
S'The Turtle(s) Move(s)'
p113
aS'AAAGCAAACGCAGCUGAUAUAUACAAAAAAAAAGUAUAUAUCUCGAUAGCUAAAUGCUGACAGUUACGAAAGUGUGCGAUAUAAAAAAAAUAUCAAAACGUAAAGAAAAAGCACAGAUACGAAAGUAGAAAGGUGUCAAAAAAAGGUACCAAAAGACAAAAGUCAAAAUGAUAAGAAAUGACAAAAAAAGUCUAGACCAAAAAAAGUCAAAUAUGUUAAAAUGUAUGAAAGAUGAAAAGCAUCAAUGUGUCUAAAAAAAAGCGAACUCACAGCUCAAAAGGAAGGAAGUUACAAAAAAAAAAGUAGCGAAAAAACG'
p114
aF0.9873417721518988
aa(lp115
S'Adenine'
p116
aS'GAUACAGAUAUCAGAUAUCAGAUAUCAGAUAUGAGAUAUCAAAAGAUAUCAAAAAAGAUAUCAGAUAUCGGAUACAAAGAUAUACAAAGUAUAUCGUAUCACAUAUCAGAUACAUAUAUCAAAGAUAUAUAAAGUAUCAGAUAUCAAAAGAUAUCAAAAGAUAUCGAAAGUAUC'
p117
aF1.0
aa(lp118
S'Tripod5'
p119
aS'AAUAGCGGCGAAAAGUGCCCAUAUAAAUUAUGGCUAGA'
p120
aF1.0
aa(lp121
S'Shortie 6'
p122
aS'GCAAAAGCAGCAAAAGCAGGAAAACCAAGGAAACU'
p123
aF1.0
aa(lp124
S'Runner'
p125
aS'AAAAGUGUGGUGGAAAAAAGGCGAAAUGUCAGCCAAAGCCGAAGGGCCGAAAUGGAAAUUGGGUGUAGAAUGUAAAGACGGGGAAAGAAAAUGCUAAAGGGCUUUCAUACGAAAAA'
p126
aF0.9396551724137931
aa(lp127
S'Recoil'
p128
aS'AAAAAGAUACAAGCAAGCAAGACAAGACAAGCAAGCAAAGCAGCAGUCAGUCAGCAGCAGUAUCAAAAAAAAAAAAAAAAAAAAA'
p129
aF1.0
aa(lp130
S'[CloudBeta] An Arm and a Leg 1.0'
p131
aS'AAAAAGACAGAGACAAAAGUACUCGACAGCAAAAGCGUCAGUCAAAAAAAAAAAAAAAAAAAA'
p132
aF1.0
aa(lp133
S'[CloudBeta] 5 Adjacent Stack Multi-Branch Loop'
p134
aS'GUCACCUCCAAAAGGAGGGUACAAAAGUACCGCUACGAAAGUAGCCAGCGAAAGUUGGUGGCA'
p135
aF1.0
aa(lp136
S'Triple Y'
p137
aS'AAAAAGUUAGAUGGUUUGAAAAAACAAUUAAAGGGUCCAUCGUUCGAUCUAAUGAUCGACUAAAGGAUCGAGCUAACGAAAAAAAAAAAAAAAAAAA'
p138
aF0.9175257731958762
aa(lp139
S'Misfolded Aptamer'
p140
aS'AUUGAAAAAAGCGUCGAACUUAUCUAAUGAAAGACGUAAUCAAAAAUAAU'
p141
aF0.92
aa(lp142
S'Flower power'
p143
aS'AAAAAGAUUCAGCGAAGAACUGUGAGCGCAACAUGCAAAAAGAAAUUCCGAUGAGAAACUAAGUACUCGCCGAAGAUUAAUCGAAAAAAAAAAAAAAAAAAA'
p144
aF0.9803921568627451
aa(lp145
S'Kudzu'
p146
aS'AAAAAUCCAAUGGGCAACUAGACCACGAAAGGGGAAUAGGCUGGCUAAGCACAGUAAGGAAAAUCCCAAUUGAGUUAGGGGAAAAAAAAAAAAAAAAAAAA'
p147
aF0.9801980198019802
aa(lp148
S'"1,2,3and4bulges"'
p149
aS'AAAAAGUACAGACCCAAAAAGAAAAGUAAGAUUAAUAUCAGUAGCAAAUGGGCAGUUAAAGGAAGCGUUACAAAAAUGAUCAACAUAAAAAAAAAAAAAAAAAAA'
p150
aF0.9809523809523809
aa(lp151
S'medallion'
p152
aS'GAUAUCACAUAUCAAAAGAUAUGAGACAAAAGUCGGACAAAAGUUAUAUAUUAAAGAAUAUAAUACAAAAGUAGUAGAUCAAAAGAUAUAAUAGAAAAGUGAUAGAAAACUAGUAGUUCAAAAGAGCUAAUACAAAAGUAAUAUAUCAAAAGAUAUAAUACAAAAGUAAAACAAAAAUAAUUUUUGAAAAUAUAAAAUACGAAAGUAAGAUAUCAAAAGAUAUCAUACAAAAGUAAUACAAAAGUAAUAUGUCAAAAGGUAUAAUACUAAUAUAAUAUAGCAAAAGAUAUAGUACAAAAGUUAUACAAAAGUAAAAGAUGUAAUUACAUAAGAUAUC'
p153
aF0.8041543026706232
aa(lp154
S'[RNA] Repetitious Sequences 8/10'
p155
aS'AGGAAAAAAGCAAAAAAGCAAAAAAGCAAAAAAGCAAAAAAGCAAAAAAGCAAAAAAGCAAAAAAGCAAAAAACCAAAAA'
p156
aF1.0
aa(lp157
S'Documenting repetitious behavior'
p158
aS'AAAAAAAGCGAAAAAAAUAAGAAAAAAAAAGAAAAAAAAAGCCAAAAAAAAAGAAAAAAAAAGAAAAAAAAAAGGAAAAAAAAUCCAAAAAAAAUGCAAAAAAAGACUGAAAAAAAAGCAAAAAAAAGGCAAAAAAAAAACAAAAAAAAAGGAAAAAAAAAAGGAAAAAAAAUGAAAAAAAAACGUAAAAAAAAACGAAAAAAAAGUGAAAAAAAGCGAAAAAAAAGUAAAAAAAAAAACGAAAAAAAACUAAAAAAAACGUAAAAAAAAAGGAAAAAAAAACGAAAAAAAAACGAAAAAAAAACUUAAAAAAAACGUAAAAAAAGACAAAAAAAAAUGGGAAAAAAAAUGAAAAAAAUGCAAAAAAAAGAUAAAAAAAAAGUAAAAAAAAAGCGAAAAA'
p159
aF0.8975
aa(lp160
S'7 multiloop'
p161
aS'UUUCUAUACGAAAGUGUAAUACCAAAGGAUAUCUGACGAAAGUAUGGAUCGAAAGCGUUCGGUGCAAAGGCACCCUGACGAAAGUCGGGAAG'
p162
aF0.9782608695652174
aa(lp163
S'Kyurem 7'
p164
aS'AAAAGGAUUCCGGUUGAAAGGCGCAAAAAGAAGUAUAGAAAAGGUAGGAAACGAAAAAGUUAAAUUCGUUCGCGAGAUGAGGAAAAAAAAAAAAAAAAAAAA'
p165
aF0.9411764705882353
aa(lp166
S'JF1'
p167
aS'AUAAAACAUACAGAUACAAGAUACAAAAGAUAUCAAGAUACAAAGAAUCAAGAUAUCAGAUAUAUAUAUAUCAAAAGAUAUAUAUAUAUCAAGACAAAAGUCAGAUAUAUACAAAAGUAUAUAUCAAGAUACAAAAGUAUCAGAUAUCAGAUUCAGUAUCAGAUAUCAAAGAUACAUCAAAAAGAUAGUAUCAAGAUAUAUAUGAUAUAUAUAUAUACAAAAGUAUAUAUAUAUAUACAUAUAUAUCAAAGAUACAAAAAAGUAUCGAUAGAUAUCAAAAGAUAUCUAUCAGAGAUGAAAACAUCAAGUAUCAAGUAUCAGAUCAGACAGACAAAAGUCGUCGAUCAGAUGAUAUCAAAAGAUAUACAUCAGUAUAGUUAUUAUAGA'
p168
aF1.0
aa(lp169
S'multilooping fun'
p170
aS'UCAAUAGAAGAAAUUGGAAAUUUGUGGCAAAAGAGG'
p171
aF0.8333333333333334
aa(lp172
S'Multiloop...'
p173
aS'GAGCAGAUCAGGUAAAAACCAGUCUAAUGACAGACAAAAGUCAGGCAAAAGUCAGAGAAAACUCAGCCGAAAGGCAGAUCAGAUACAAAAAGGUAUCGGCAAAAGCCGUUC'
p174
aF1.0
aa(lp175
S'hard Y'
p176
aS'AAAAGGUCCGGACGCAUCCUAAAUGUUAUAUAGGCGGUAUAUGUCGAAAGACAUUAAUCUAAUAAAAA'
p177
aF0.9705882352941176
aa(lp178
S'Mat - Elements & Sections'
p179
aS'AAAAGAUUCUGAAUCAUACGUGUGAUCAGCAGCCCUCUAGAGUAAUCUCGAAUGGGCGACGGUCAAAUUUCGUAGGUAGCUGAAUGAAAAAAAAAAAAAAAAAAA'
p180
aF0.9619047619047619
aa(lp181
S'Chicken feet'
p182
aS'AAAAAGAAGUAUAAAAAAGCGAACUGAAAAUUCAACAGCAUGAAGUAUUCUAGGAUAAUUGCAAAAA'
p183
aF0.8507462686567164
aa(lp184
S'Bug 18'
p185
aS'AAUAGGGGUGUUAAGCAAAGACCAAAGCGGUUGGGAGUAGUCAAAAAAAAAUA'
p186
aF0.9245283018867925
aa(lp187
S'Fractal star x5'
p188
aS'AAAAAGAGAUAUAAGCAUAUAAUUGUGAAGAACUAAUGUUCGAGGGUAAAGAUCCAAGGCAGAAAUGUCAAUAUAUUUCGAAAGGAAAUGUCAAGUUCGAAUGAAUAAGAUCUAAUGAUCGGCAUAUAAUUGUGAAGGUGGAAAUACUAAGAUAUUUCAAAAUGACCGGACAAAGGGGAAACUCUCAUAGCGAAAGUUGGACAUGAUAGUAUGAAGCAUAAAAAUGCAAGUUCGGUCUAAAAGAUAUCUGUUGAUCGAAAGAUCUACCAGAAAACUGGGGGCGCAAAAGUGCAAUAGGAAAGCCUGCUUAGAUGUCAAAAGCUUGUGUCGUCUUGAAACCAGGUGGUCGAAAGUGACAAGUUCAAAAGAACGCAGUGAAAACACUAAGACACAAGAAAAA'
p189
aF1.0
aa(lp190
S'Crop circle 2'
p191
aS'UCAAAGAGAAACCAAAAAGGAAAAAAAAACGAAAAAAAAAAAAAAAAAAAAAAAAAAAAAACGAAAAAAAAAAAAAAGCCGAAAAAAAAGGAAAAAAAUUAAAAGAAAAA'
p192
aF0.9636363636363636
aa(lp193
S'Branching Loop'
p194
aS'GGAUAUGAAAAAAAGGAUGAAAGCAUUACUAUCAAAAAAA'
p195
aF0.95
aa(lp196
S'Bug 38'
p197
aS'UAGUUAAGAAAAUAGAAACAAUGUCGAUAUAAGUGU'
p198
aF0.9444444444444444
aa(lp199
S'Simple Single Bond'
p200
aS'AAAAAAGAAAAAAAAUGCCUGAAAAAGGUUAAAAAAAGCAAAAAAAAAAAAAAAAAAAAAA'
p201
aF1.0
aa(lp202
S'Taraxacum officinale'
p203
aS'GAGGAAAAGAGUUAGAGAAAAAGACUCCGGGGAAAAUGCUCAGCGCAAAAGACUCAGAUCAAAAGACUUAGGGCAAAAGACCCGGAUAUAUUUACGAUAUACAACCUAUGGUUAGUAUAUCAGUAACAAGAUAUAUGUUAAGUUAUAAAAAUUAUAACAAAUAUAUAUCGAUCAGAAAUUAAAAAUUUCGAUCGUUGCGAAGUAGAUGUAUCUGUGCAAAAGAGGCAUACCAAAAGAGUAGGAGGUAAUCACCCUCAGCGAAAGACUCUGAGCAAAAGACAC'
p204
aF0.8865248226950354
aa(lp205
S'Headless Bug on Windshield'
p206
aS'AGCAGCAAAAACAGACAAAGCAGUUAAAAAAAAAAAAAAAAAAAAAAAAAGGCAGCAAAGUUAUGAAUGCAGCAGACAAGACAAGGAAAAAAUGCAAAAGCUAAAAAACCGUCAAAAAACUCAGAGAGAAAAAAGCCGAAGUAUGACGAACAGACAAAAAAAAAAAAAAGGUCAAGUAAGUCUAGCGUUGAAAUAACCUA'
p207
aF0.98
aa(lp208
S'Pokeball'
p209
aS'AAAGAUUUACAAAAGCGAGGAAGGCAAGGAAGCAAGGAAGGAAGCAAGCAAAGCAGCAACCACCAGUAACCAGCCACCAGCGUAGAUCAAAAAAAAGAUAUAUAAAAGCGAGGAAUAGAAGGAAGCAAGGAACGAAGCAAGCAAAGCAGCAACGACCAGCAACCGCUAACCAGCAUAUAUCAAA'
p210
aF1.0
aa(lp211
S'Variation of a crop circle'
p212
aS'AAAAGAAAAAACUAAGGCUAAGUCAAUUGACUAAAGUAAGGAAAAUGAAAAAUGAAAAAAAUGUAAAAAAAAAUCGAAAAAAAAAAAA'
p213
aF0.9545454545454546
aa(lp214
S'Loop next to a Multiloop'
p215
aS'AGGGUAUUUAAAAAAAACUGUUAUCGAAAGAUAACUGAGAUACGAAAGUAUUUUUGAAAAAAAUAGAUACCAA'
p216
aF0.9726027397260274
aa(lp217
S'Snowflake 4'
p218
aS'AAUCGAAGAUUCCUACCCAAAAGGGAGCCAAGAUCCGCAAAGGCGAUAGGAUCAAAGAUCAAUAACUAAGUUACUAUCGAGAAAGCGGAUCAUAUAAUGCAAAAGCGAUUCUUUCAAAGGAAAAUAGCGAAGCUAGGAUCACAAAAGUAUUUUUAGAUACGAAAAAGCGAACGGAACUAUGUUCAAGAUUAAGAAUCUGUUCGAAAAACCGUAUUAAUUAACGCGAAAGCGUUACUAUAAAAUACAAAUUUCAAAGAUGGUAACGAGAAAUCGUUGAAAGAUAAUCUAAUGGGAUAUGCUCGAAGAGCAAGAUCAAGGAUCGUAUCAGAAAAUUUUAUCAAGGCUCUCAAAGGGGUAGGUAUCAAGGAUC'
p219
aF0.8648648648648649
aa(lp220
S'Mat - Cuboid'
p221
aS'GAACAAAAAGCAGGCAAAAGGGAGCAAAAGAAGCAUACAAAAGCAAGCUAGCAAAAUUAACAAGUAAGCAAAAGUAGGUGAUUAAGUAAAAUGAGGCAAUCAAUAAGGCAACAUCAAGCAAGGCACAAAUCAAAAACAGUGAAGCAAGCAAUGAGACAAAAGCAAGGAAGCAAGGAAGCAAGCAAAAUCAAGCAAGUAAGCAAUCAAGUAAAAAAGUAAGGAGGAGAACAAGCAAGUGCAGCCAACCAGGCAAUCAAGCGUAACGAAGCAAGCGACAAAGUGAAAGGAACCAGGCAAGAGCAAUAGGGAAAGCAAUAGUAAAGAAAUAAGGGCGACCAGGGAUAGUAUGCAGGCAGCAUCAACGCAUCCGCAAGUUGAGC'
p222
aF0.8736842105263158
aa(lp223
S'Misfolded Aptamer 6'
p224
aS'AAAAAAGGCGAAAAAGAUCAGGGAGGGAUAAAAAAAAAUCGGAACAAAAAGAUCAAAAAAAGCCAAAAAAAAAAA'
p225
aF1.0
aa(lp226
S'Snowflake 3'
p227
aS'GACUCAAAGGAACACGGCGAAAGCCAAUGGCGGCCCAAGAGAAAGUUCGAGAGUAAAAGCUUCAAAGGGGCAAAACUAUUCGAAAAAAUUCAGGGGCAGAUAAAUCCUAAUAGAGACACCAAAAGGUGCUAUGCAUGUAAUGAGGUCGACAAAAGUCAAUAUCGAAUCAAGACAAAAGGCGAUAUCAAAACAAACAAAGUUUAUAAUGAAGUCUUCAAAAGUUAAGAUUAGUUGAAAAUAAAAGCAGUUAGGGAAACCCUCAAAAGGACAAAAGUAAACACCUAAUCUUAGUAACAGAGGGAGAGAAAAUUCUUUGCCGAAAGCUACAAAGUAGGAAAAUCAAGGGAUAAAACUCAACCUCAGCCAGAGAAAAAAUUCGUCACCAAAAGGGUC'
p228
aF0.8320610687022901
aa(lp229
S'Hard Y and a bit more'
p230
aS'AAAAGGACCGGGCUAUAGUAAUCUAUAGCUGAGCAAGAGUUGACUAAUGCUGUGGAAACGAAAAAGUUUCAAACGGGAUCCGGUCAAAAAAAAAAAAAAAAAAAAA'
p231
aF0.9716981132075472
aa(lp232
S'Mat - Lot 2-2 B'
p233
aS'GAAGUCCAGCACAAGCAAAACCUAGUAUAAAAGAAAAAGCAUGUGCAGGUAAAAGCAAGGGCAAGCAACCAAGCGCAGGCAAAAGCAAGGACAAUGAAAAUCAAAAGAUAAGGUAAAACCAAGCGCAAGAGCAACCAAGCAAAAGUGGAACGACAAGUAAAAGGAAGGAGAAAAUUAAAACCGAUCGCAGGUAAAACCAACCGGAGGCAAGCAAGCGCAAGCAAAAGUAAGGACAACCAAAAUCGAAAGGGCGACUAAAACUGAGCCCAAGCGCAAGUAACAGA'
p234
aF0.8098591549295775
aa(lp235
S'Shapes and Energy'
p236
aS'AAAAAGGUGUUCAGCUCAAAAGGAUGAUCGGGAAACAGAUUUAACGAGCGAGGAAAAACUAGUAAACACUGCCAGAACUCAUAAAAAAAAAAAAAAAAAAA'
p237
aF1.0
aa(lp238
S"Spiral of 5's"
p239
aS'GAAAAGAUACAAAGAUAGAAAGAUAGAAAAGAUCCAAAGAUAGAAAGAUAGAAGAUACAAAAGAUACAAAGAUAGAAAGGUAGAAGAUACAAAGAUAGAAAGAUAGAAGAUACAAGGAUAGAAGAUACUAGAUACAAGAUACAAGAUACGGAUACGGGUACAUAGCAAAAAGCUAUAAAAAGUGCCAAAAAGUAUCAAAAAGUAUCGAAAAGUAUCAAAAAGUAUCAAAAUGUAUCAAAAACUAUCAAAAAGUAUCAAAAACUAUCAAAAGCUAUCAAAAAGUAUCGAAAACUAUCAAAAAUUAUCAAAAGGUAUCAAAAGGUAUCAAAAACUGUCGAAAACUAUCAAAAAGGAUCAAAAACUAUCAAAAACUAUCAAAAAGUAUCAAAAACAAAAA'
p240
aF0.9949622166246851
aa(lp241
S'Campfire'
p242
aS'AAAAGCUCGAGAGACAAUGUCAAUAUAGAAAAUAUAGUGGUCGAACAUAUACGAGAGACAAAACCAGAAGUGGAGAAAUCACACUCGGGAGGCAUUACCAUCAAAGGGGGGAUAGCAGACAAAAGUACGACUCAAGCACUCGUUAGGUCUAUAGACAGGCAGUGAACUUAAAAAAGUUACGACCAGAUGUGAAAAAGGGUACUAGGUUGGGC'
p243
aF0.8820754716981132
aa(lp244
S'Anemone'
p245
aS'AAAUUUACUUAAUAGUAGAGCGUCGAAAGACGUGAUUUCGAAAGAGGUCCCGCUGAAAAGUGGCUGAGCAAAGGUUCGGGGUCCAAAGGGACCGAUACAAAAGUAUCGUAGGUGAAAACUUGCAUAUACGAAAGUAUGGAGCUCGAAAGAGCUCGUGACAAAGGUCACGGUGUCGAAAGAUGCCGCUACAAAGGUAGCGUUAGCGAAAGCUAGC'
p246
aF1.0
aa(lp247
S'Fractal 3'
p248
aS'AAAAAAGACAGUAACCGAAAGGGUAAAAACAUAAAGGUAUGGAAACACCAAAGCGAACAGGACUGCGAAAGCUCAAAGGAUGUCAGGCGAUAAAACCCAAAAAUCAGCCGGUCUAAAAA'
p249
aF0.9327731092436975
aa(lp250
S'Kyurem 5'
p251
aS'AAAAGGUUGAAGGACUAAUGCCGAUAAAAAUAUUAUCAAACAAUAAAUUUGCAUGAGACAAAAUCUCAGGCUGGCCUUAACAACAAAAAAAAAAAAAAAAAAAA'
p252
aF0.9230769230769231
aa(lp253
S'Snowflake Necklace ( or v2.0 )'
p254
aS'GAGGUACAUAUAUUCAGAUGUAGAGAAAAUCAUCAAAAAGAACUAAAAGGAAUCAAAAAGAUUCAAAAAGAGAUAUCAUACAAAAAAAAAGAAACAGCGAAAUGCAUGAAAAAUAAUUAAAAAAAAUCAAAAAGAAUCAAAAAGCAGUUUCGGUCAAAAAGGCAUAUACUCCAAAAAGGAUCAAAAAGAGACAAAAAGUGACAAAAAGUAACAAAAAGGUGUAUAAGAAAAAAAGUGACACACAUCAAAAAAGAACAAAAAGUAACAAAAAGAAUCAAAAAGGAUAGAAAAGAGGUGUGAGAGAAAAAGUUGGUUAAAGUAAAAAUCGUCAAAAAGAAGUAAAAAACAUCAAAAAGAAGCAAAAAGAAGUAGCAGAAUAUAUGUACCUU'
p255
aF0.8637532133676092
aa(lp256
S'Methaqualone C16H14N2O Structural Representation'
p257
aS'AAAAAAAAAUCAGAUCACACUGAAAAAAGUCUAACAGGCAAAAGCCGGACAGAGAAAAUUCAGUCAGACAAAAGUCAGACAAAAAAAGUCGCACAGCAAGUUAGUGGGGAACAGAUCAGAGCUAUGGGUACAAAGCGAAGCAAAAAAAAGAAAGUCAGACAAAAGUCUUCAAAAGAAUACAAAAGUAGACACCUAACAUGAGUAACAGGCAUAAUGAGAUAGCGACAAAGGACAAAAGUCAGUCAGACAAAAGUCACUAGGACAAAAGUCACUCAUACAAAAGUCACUGAGACGACAAAAAUAUACAAAAGUAAAAGAAAAGUUGUUAGCCACAUGGAUCGUCAGAUUAAAAAAA'
p258
aF0.9380281690140845
aa(lp259
S"Cat's Toy 2"
p260
aS'AAAAUCUAGUGGAAAAGCAUCAAAAAAAAAAAAAAAAAAGAUUGAAAAGUAAAGACAAGACUAAUGUAAAAAAAAUUUAAAAAGCCUGCUAGGGAAA'
p261
aF0.9381443298969072
aa(lp262
S'Zigzag Semicircle'
p263
aS'AAAGCAAUAUAUGGAACUAAAUUAAGGAUGAAAA'
p264
aF0.9411764705882353
aa(lp265
S'Short String 4'
p266
aS'AAAAAGGUACUUACCAAAGAAGUAUAGCAUAAGCAUUCCAAACGGCGACUGAAAAGAAGCAAGAAAUUGGGUAGACAAAAAAAAAAAAAAAAAAAAA'
p267
aF0.9381443298969072
aa(lp268
S'Gladius'
p269
aS'GGAAACAGGGGAGGAAAGAAUUCGAGAAUGAUAGUCAAAGAUCAAAAGAUCAGAUACAAGAGAAAAGACAUCAAGAGAGCAAGGGUUAUACCAGAUACCAGAUGAAGAUCAGGUAAAGAUCAAAGAUUAGACGCGAUCUACAUCGAGUAUCGAGUAUAGCAACAGCUCGACAGAUGAACAUUCAACGGUAUCAGACAAAGAGAGAAUCAGAAGACGCAAGACGUGAAGAUCUUAAGAUAUACUGAUAUCAGAUACAGUUUCGACACAUAUCCCAAAGGGGAUAAAGUGUAGGAAGCGUAUAUGAUAUACGUAUAUCGAUAGAUCGCAUUGUCAGAAGUCACGCGAUUCAGAACUAAUGUUCAAGCUUAAUCUAGUAAAUCAACGAAGUAGGGAAGAAAAC'
p270
aF0.905
aa(lp271
S'Thunderbolt'
p272
aS'GCAAGAUACAAAAAAAAAAUCAAGAGCGAAAAGGAAACGGAUAUAUCAAAAAAAAAAGUAAAAAGAUCAAAAAGAUCAAAAAUGUAAAGCAUUCAAAAAAAGAAGAAAAAACAACAUGCAGGAAAAAAGGAAACAGACCAAAAAGAUAAAAAGAAGCAGAAACAGCAACAAAAAAUCAACUUAAAGAAAAAAUGAAGUGCAAGGCUCAACUAAAAAACAAGAAGUAAAAAAAGGGUCAAAAGGAUAUCAAAGAUGUCAUCAGGCUAAAAAAAAAGGAUGGCAAAAAAAAAGAAUGAAAACGAUAGCUAAAAGGAAAAAAACAAAAUGCUAUCAAGAUUAAAGGUAUGUCGAAAAAAAGAGCAAGAGUAAAAAGAAAAAAUCAGUAUCAAGCA'
p273
aF0.9642857142857143
aa(lp274
S'Mutated chicken feet'
p275
aS'GAAAAAAGAAGCAGGAAUCCACCAAAGGGAAGUGCGGUAGGGCCUAUAGAGGGAACGGAACCGCGAGAUCAGGAAAACUGCAAGGCUAAGGUUAAAAAAA'
p276
aF0.9
aa(lp277
S'Chicken Tracks'
p278
aS'AAAAAAAAGAUAUACGAUCGAAAGAUCAUGAGAGAAAUUUCUAGGUGAAAAUACCGUAUGUCGGGCCGAGGAACCCUCAGGAUCAAGGAUCAAGUCGAAGCGACGGCAAAAAAAAA'
p279
aF1.0
aa(lp280
S'Looking Back Again'
p281
aS'AACAAGACGCAGAAAAGGAGAUGGAACAUCUCAUAUCAAGAGGUCAUGGGGAACAAGGCGGUUACUAAAAUCAAAAGAUUGAAUGUAGCAACUCUCGUCAAGGACUCUGAAAUGAAAGUAAUUGUUCUAAAAAAACUAUGUCAAACAAAGGUUGGUUUCGAAGAAACGUUAUGUAAUGCAGAAGAAGUUGAAGAGUAAAAGCUCGACUCAGCCAAUUGAGACUAAUAACAACGUAGCAAAGGGGAGUUCGGAUACAUAUCAAAAAGGCGAGACAAAAAAAAGAUGAAAAACAUUGUAUAAACGUAGCAAGUGCGAAAAAGUGAUAUCAAAAGGUAUCAAGACGCAAAGCGUAUUCAAGGAAUAAAGUCACAAAAGUACGUAUCAAAGUU'
p282
aF0.8560411311053985
aa(lp283
S'Multilooping 6'
p284
aS'AUGUCUGCGGAGAGGAAAACCCUCGGAAGGAAAUUUCUUUGGAAGACGUAAAGGAGGCCUUUCAAAGGAGAGAAUCGGAUUA'
p285
aF0.9146341463414634
aa(lp286
S'Cesspool'
p287
aS'GAAGAAGAAAACAAGCGAACGGAGACUAUGUCGACAACGACGCAAGAAUAAAAGGCCAGAAGAAAAGAAUACAGAGAAAUCAACGACAAGUAAGCGAAAACAAGAGAAGAGAGAAAAAUUCAACAACAACACAAGAAGAAAACAACGGAAGAAAAGAACACAGUCAAAAGAACAUCAACCAAGAAGAAAACAAUAGAAGAGAUCCAAAGUCAACACCAACUAAAGAAGAAAGAAACAGAAUGAAAGAACACAGUGAAAACACCAAGGAAGCAAGAAGAAAACAACAGAAGAGAUACAAAGUGAACAGCAACUGAAGAAGAAAACAACCGAAGAAAAGAACACACCGAAAACAUCAAGC'
p288
aF0.7597765363128491
aa(lp289
S'Hoglafractal'
p290
aS'AAGGUCAAAAUACAAAAUAUACAAAAAAGUAUAGUAUUAAUCGAAGCUAGAAACGGCCGAUACCCCAGGCUAAUGGCGGGUGACAAAGAUUAAAGAUCAAAAAGGAUCGAUCGAAAAGACAAAAAAUCGUCGCAGCAAAAGCGCUGAUCAAAAGACAACACGAAAAAGUGAGCGCAGGAAAAGCCGCGGCAAAGGUUAGAUGCAAAAAGCAGCAAAAAAGCGCGGAUAAAAGCCACAAAAGAAGUUGUAAAAAAAGGCAAAAGGGCCAGAGAAAUUAAAUAUAUACGAAGUAUAUAAAAAAAAUACAGCAAAAAAGUAUCGAAAAGAUCUAAAGUCUAAGGCACGAAGAGAAGAUUAAAAGCAAAAGCACAAAGGUUAUAUCAAGGAUAUACACUCGGAU'
p291
aF0.91
aa(lp292
S'Bullseye'
p293
aS'AAUGACGUCCAAAGACCAAUAUCAAAGAUGGAGGUCAAGGUUCGUCUAAAAAAAGCCGACUAAGUAACAACAUCUAUGGUGAGUAUUAAUGAUAGGCAAAAAAAGCACGGUUUAUAAUCAAAAAAGAAGUUUGACAUCAAGGAUCGUGAAAAAAAAGUUGAUCAAGGAUCAGUAUGAAAUGUGAAAAUCAAAGAUUAACAAA'
p294
aF0.8415841584158416
aa(lp295
S'Shooting Star'
p296
aS'CAUAUCGAAACAACUACGAAGAAAAGCACGGAGCCAGCAAAGCACGGACCUGGGACAAUCGAGUAGUUGAAAUGCAAGAAGGGCUACGAGUUUGAGAUAGAAAAACAAAAGACGUUACAUCGACAAACUCCCGACAACCAAUGUAAUCAACCUAGAUAAAUACAAAAUAAUAGGUGCAAAGCGUCGGGAAAACACAGAUAAGUGUACAUUAAAUCAAGGGUAUCGAAAUGUUAUCAGGUAUGAAAAAUCGAUCGGUUCUUAAAGAGAACCAGAUACAAAGUAUCAAUCCAUCAAUGAAAAGAAGAAGAAGAGAACAAUAUCAGUAAAAGUCGAUACUGUACAACAACAGUAGAGUGAGGUAUGA'
p297
aF0.8021978021978022
aa(lp298
S'Teslagon'
p299
aS'AAAAAAUGAAAAAAAACGGCAAAAAAAAGAUCAAAAAAAAAAAAAAAGAAAACACAAGGAAAAAAAAAAAAAAAAGCGUUAAAAAAACCGGGAAAAAAACCUAAAAAAAAAAAAAAGGAAAAAAAACGUCAAAAAAAGAAGCAAAAAAAAAAAAAAAGAAAACAGAAAACAAAAAAAAAAAAAAAGUAACGAAAAAAGCAGGAAAAAAUGAAAAAAAAAAAAAAAACCAAAAAAACGAGAAAAAAAAGCAUCGAAAAAAAAAAAAAAGAAAACCGAAAAGAAAAAAAAAAAAAAAUAGGCAAAAAAACCAGGAAAAAAAUGAAAAAAAAAAAAGCAAAAAAAAAAAAAAAGCGUCGGAAAAAUCAGAAAAAAAACGAAAAAA'
p300
aF0.9240837696335078
aa.