(lp0
(lp1
S'Simple Hairpin'
p2
aS'GAUAGAAAAAACUAUC'
p3
aF1.0
aa(lp4
S'Arabidopsis Thaliana 6 RNA - Difficulty Level 0'
p5
aS'GAUAGACAAAUGACAAAAAAAAAAAGUCGAUAGACUUAUAUGUACAUGUAUCUAUACAAAGAUGGAAAAAAUCAUCAGUAUAGAAUAUAUGUAUAUAAUGGUCUAUCAAGUCUAUC'
p6
aF1.0
aa(lp7
S'Prion Pseudoknot - Difficulty Level 0'
p8
aS'GAUAGCAGAUCAAAAGAUCGCUAAUCAAAAAAAAAA'
p9
aF1.0
aa(lp10
S'Human Integrated Adenovirus - Difficulty Level 0'
p11
aS'GUUCAUAUAAUAUAAGAUAUCUAAAAAAAAAGGCUCCAGAAAGGAAAAAGGAAGACUAAAAGCGAUACGUAUACAAAAAAAAGUAUACGUAUUCCACGCAGUCUAAAAUCCCCUAAAAUUCUGAAAGAUAGUGAAAAAAGCUAUCGAGCAAAAAAAAAAAUGAUAUCGUAUAAAAAUUAUAUAAAGAGCAAA'
p12
aF1.0
aa(lp13
S'The Gammaretrovirus Signal - Difficulty Level 0'
p14
aS'AAGAGGUUGUACCAAAAGGUAUAUACGCAAAAAAGAUCAAGACAGAUCCGAUGAAAGUAUCGAAAAGAUCGUCGAUCAAGGGAGACUGAAAGGUCUUCCAA'
p15
aF1.0
aa(lp16
S'Saccharomyces Cerevisiae - Difficulty Level 0'
p17
aS'CAUGGACGAGCUAAAAAAUGCUCAGGGAAAAAAAAAAAAAACCGAAUGCUCGAAAAAAACGAGCGUCUAUGAAAGGAUAGAGAACUUCGAAAAAAAGAAGGGCAAAAAAAAAAAAAGCCAAAUGGGGGGAAAAAACCCUCCUCUAUCAAAGGAGUGGCAAGGUUAAAAAAAAAACCGAUGGCAAAAAAGGCCGUCAAAUGGUAGUAAAAAUCUAUCGCCAUUCAAAGGAGGGAGAAUACCAAAAAAAGGGUGGCUAGGAAAAAAACCUAGCAAAUGAUGGAAAAAAACCAUCCUCUUUCAAAAGAUAUGCAAGGUCGAAAAAAAGACUAAUUGCUAAAAAUGCGAUUAAAUGAUGGUAAAACUCUGUCGCAUGUCAAAA'
p18
aF1.0
aa(lp19
S'Fractal 2'
p20
aS'AAAAAGCUAGACUUAGGAUAGACAUUAAGAUCAAAAAAAAAGGAUCAAGAGUAAAAAAAAAAACUCAGGGAGAAUAAAAAAACUUCAGGAUGUCUAUCAAACUUAGACAUAAAGAGCAAAAAAAAAAGUUCAAGAUCAAAAAAAAAAGAUCAAGAUGAAAAAAAAAACAUCAGUAUGUCUAAGAAAAAUGGACAUAUAGGUCAAAAAAAAAAGACCGUGGUCAAAAAAAAAAGACCUUGCUCAAAAAAAAAGGAGCCUUAUGUCCAUUAAUAGUCUAGCAAAAA'
p21
aF1.0
aa(lp22
S'G-C Placement'
p23
aS'GAUCAAAGAUCG'
p24
aF1.0
aa(lp25
S'The Sun'
p26
aS'GAGAGAUAUAGAAGUUAUCAAUCCUCAAUGAUAGUUUCUCGAAGAGAAAAGCGUUUAGGACAGAUACACGUAGUGUAAAUCGUCAAUGACACAUAGGAAAAGAGUAAAUGGGCUACGACAUAUCUACAAUAUAGAAAUGGUCAAAGACAGAUCGACAAACUUUAAACCGUCAAUGGCACCUAGAUUAUGUCUAAUGGGCCUAGGACAGAUGGGCAAGUCCAAAAUCGUCAAAUAUAGAUGGAGGAAGUCCAAAUCAUG'
p27
aF0.7751937984496124
aa(lp28
S'Frog Foot'
p29
aS'AAAAAAAAAAGGGUAAAGGCCCCAGCUAAUGUUGCGACAAGGUCG'
p30
aF1.0
aa(lp31
S'InfoRNA test 16'
p32
aS'GAGAGCGCCGGGACUGAAAAGUCUGCGUGAGCUCUC'
p33
aF1.0
aa(lp34
S'Mat - Martian 2'
p35
aS'GAUCAAAAGAUCAAAGAUAGACAAGAUAGACAAAAAAAGUCUAUCGUCUAUCAAAGAUAGACUUAAAAGGAUAGAAAGAUAGACGAAAAAAGUCUAUCUUCUAUCAAAGAUUUACAUAUAUCAAAAAAAGAUAUAUAGUAGAUCAAAAAUAGUCUAUCAAAGAUAUACAUAUAUCAAAAAAAGAUAUAUAAGUAUAUCAAAGGUUAAAAGACC'
p36
aF1.0
aa(lp37
S'square'
p38
aS'GAUAGACCGAUACCGAUAGCCGAUAGAAACUAUCGAAAAGCUAUCGAAAAGUAUCGAAAAGUCUAUC'
p39
aF1.0
aa(lp40
S'Six legd turtle 2'
p41
aS'AAAAACAGAAGCAAAAGCAAAUCAAAAGAGAGAUAAAAAUAAUGUAAAGACUAAGGGAAAUCAAAUUAAAAGAGAAAGAAAAAAAAAAAAAAAAAAAA'
p42
aF0.9591836734693877
aa(lp43
S'Small and Easy 6'
p44
aS'AUGGGUAAAUCCGACCAAAAAAAAGGAGGG'
p45
aF0.8666666666666667
aa(lp46
S'Fractile'
p47
aS'AAAAAAAAAAAAUCGAAAGAAAAGGAAAGGAAAACCAAGCAAAGCAAAAGCAAAGCAAGCAAAAGCAAACCAAGCAAAAGCAAAAAAAAAAAAAAAAAAAAAAAA'
p48
aF1.0
aa(lp49
S'Six legd Turtle'
p50
aS'AAAAUGUAAAGGUGAAAGUAAAGCUAAAAGAAAAGUCUAAUGGAAAUAAGAAAUUAAAGGAAAAAUCAAAAGAAAAAGCGAAGACUAAAAAAAAAAAAAAAAAAA'
p51
aF0.9428571428571428
aa(lp52
S'snoRNA SNORD64'
p53
aS'GAUAGCAAAAAGACAAAAGACAAAGAUAGAAAAAAAAAAAAACUAUCAAAAGUCAAGUCAAGCUAUC'
p54
aF1.0
aa(lp55
S'Chalk Outline'
p56
aS'AAAAGGAUGAGUUCGGAAACCAAACGGUCAUGCGAAAGUAGACGGAUAGGUGAUUCAGGCCAUAUAGGAAACUGGUGCAUCAAAAAAAAAAAAAAAAAAAAAAA'
p57
aF0.9807692307692307
aa(lp58
S'InfoRNA bulge test 9'
p59
aS'GAUAGACAGAGAGAGAUAGACAAAAGUCUAUCCCCGUCUAUC'
p60
aF1.0
aa(lp61
S'Tilted Russian Cross'
p62
aS'AAAAAUAUUUGUCGAAAGACAUCAAAGACCAAAGGGUUGGAUGUAAUCGUCCAGGUGAAAGCACCUUGAAAGCGAAAGCUUAUAAGAAAAAAAAAAAAAAAAAAA'
p63
aF0.9428571428571428
aa(lp64
S'This is ACTUALLY Small And Easy 6'
p65
aS'AAAAAAAAAAAAAAAAAAAAAAAAAAAAAAAAAAAAAAAAAAAAAAAAAAAAAAAAAAAAAAAAAAAAAAAAAAAAAAAAAAAAAAAAAAAAAAAAAAAAAAAAAAAAAAAAAAAAAAAAAAAAAAAAAAAAAAAAAAAAAAAAAAAAAAAAAAAAAAAAAAAAAAAAAAAAAAAAAAAAAAAAAAAAAAAAAAAAAAAAAAAAAAAAAAAAAAAAAAAAAAAAAAAAAAAAAAAAAAAAAAAAAAAAAAAAAAAAAAAAAAAAAAAAAAAAAAAAAAAAAAAAAAAAAAAAAAAAAAAAAAAAAAAAAAAAAAAAAAAAAAAAAAAAAAAAAAAAAAAAAAAAAAAAAAAAAAAAAAAAAAAAAAAAAAAAAAAAAAAAAAAAAAAAAAAAAAAAAAAA'
p66
aF1.0
aa(lp67
S'Shortie 4'
p68
aS'GCAAAAGCAGCGAAAGC'
p69
aF1.0
aa(lp70
S'Shape Test'
p71
aS'AAAAAGUGAUCAAGAUAGAAAAAAAACUAUCAAGACAGGCAGAUAGAAAAACUAUCAGAUCAAAAGAUCAGCCGUCAAGAUCUCAAAAAAAAAAAAAAAAAAAA'
p72
aF1.0
aa(lp73
S'The Minitsry'
p74
aS'GGUAAAAAAAGAAAAAGGAAAAAAGACAAAAAGACGAAAAAAAGUCAGUCGUCCGCUUGGCU'
p75
aF1.0
aa(lp76
S'stickshift'
p77
aS'AAGAUAGCCCAAAAAGGAGCUAUCAA'
p78
aF1.0
aa(lp79
S'U'
p80
aS'AAAAAGAUAGAGAGAGCAGAGAUAGACAUGAAAAUGUCUAUCCGCCCCUAUCAAAAA'
p81
aF1.0
aa(lp82
S'Still Life (Sunflower In A Vase)'
p83
aS'AAUGGGUAACUAGGGAAAACCUAGAACUGGUAAAAUCAGAACUAUCAAAAAGGUGGAACUAUGAAACGUAGAACUAGUAAAAAACUAGAACUGGCAAAAAGCCAGGGGUAUGUGUAUAUAUAUAUUUACGGUAGUAAAAUCUAUCAGAUAGAAAAAAAAAAAAAGAUGAAAAAAAAAAAAAAAAAAAAAAAAAAAAAAAAAAAAAAAAAUAUCGAAAAAAAAAAAGCUAUCGAAAGAAAACUUUCAGUAAAUAUAUAUAUAUAUAUAUCUAGACAGAAAAACUGUCAAUGAGCAAAAAGCUUAAACGAGGAAAAAUCUCGAAGUAGCAAAAAGCUACAAAUAGCAAAAGCUAUAACUUGCUAAAUGCAAGAACCCUAA'
p84
aF1.0
aa(lp85
S'Quasispecies 2-2 Loop Challenge'
p86
aS'AAAAGGGACGUUGGUUAGCUAAUGCUAUACAACAGGCUAACAAAGGAGGUCAGGUCACGGCUCCAAAAAGGACACAGGAUCGUCCAAAAAAAAAAAAAAAAAAAA'
p87
aF1.0
aa(lp88
S'Corner bulge training'
p89
aS'AGAUAGCGAUAGAAACUAUCAAAAGCUAUCA'
p90
aF1.0
aa(lp91
S'Spiral'
p92
aS'AAAAAGAUCAGAUAGCAGACAGAUAGAGAUCAGAUCAGCAGCAGCAGCAGCAGCAAAAAGCGCGCGCGCGCGAUCGAUCCUAUCGUCGCUAUCGAUCAAAAA'
p93
aF1.0
aa(lp94
S'InfoRNA bulge test'
p95
aS'AAAAAAAAAAAAAAAAAAAAAAAAAAAAGCGUCCAAAAUGCACAAAAGUGAGUAGAAUAUCGUCGCAUCGAAAAGGAUGAGAAUUAUCUACCAAAUCAAUUAAAACGAGUUAAAAUAAACGA'
p96
aF0.9836065573770492
aa(lp97
S'Worm 1'
p98
aS'AAAAAAAGGGGGGGAGAGCAGAACAAAAGAUCAGCACACGCGCGC'
p99
aF1.0
aa(lp100
S'just down to 1 bulge'
p101
aS'AAAAAGAGCAGCUAGAAAACUAGCAGACAAAAGUCGGCAUCAAAAGAUAAGACAAAAGUCAGACAAAAGUCAUAUCAAAAAAAAAAAAAAAAAAAA'
p102
aF1.0
aa(lp103
S'Iron Cross'
p104
aS'AGACAGAUGAAGACAGACAAAGUCGGACAAAAGUCAGUCAAACACACGUAUAAACGAGACAAAGUCAGUGAAGGUCACGCAAAAGCGAGCGAAACGCAGGCAAAAUCAACCAAAGGUAGUCGA'
p105
aF1.0
aa(lp106
S'loops and stems'
p107
aS'AAAAAGAUAGACAAAGAUCAAAGAUCAAAGAUCAAAAAAAAAGAUAGAAAAAAAAAAAACUAUCAAAGAUCAAAAGAACAAAAAAAAAAGUUCAAAGAUCAAAGACAAAAAAAAGUCAAAGAUCAAGCAAAAAAGCAAAGUCUAUCAAAAA'
p108
aF1.0
aa(lp109
S'Water Strider'
p110
aS'AAAAUGUAGCAAGCAGCAUUGGAAAUGUGGCAAAAGUCCUCAAAAAUUCCCCUAACAACGAGUAAUCAUAGGAGCGAGUGACUAAAAAAAAAAAAAAAAAAAA'
p111
aF0.941747572815534
aa(lp112
S'The Turtle(s) Move(s)'
p113
aS'AAAACGAAAGUAAAGGGGGGAGAUAAAAAAAAAAUCUCUCCCAAAAGUUCAAAAGGAACAAAAAUGCAAAGGCGGAGCUAAGUAAAAAUCUUAGAAAACACAAAGAAAAAUUAAAAACUUGAAAGGGGAAAGAGGGGUAAAAAUACCCUCGAAGGCCAAAAGGCAAAAAAUGAGCAAAAGACAAAAAAAGUCAACGCAAAAAAACGCGAAAAUACCAAAAAAGGUAUGAACCGCUAAAUGUGGAAGCUCAUGAAAAAAAACCAAAAGGAAAACUGAAAGCGAAAAUAGAUAGCAAAAAAAAACGAUCGCAAACGUG'
p114
aF0.9873417721518988
aa(lp115
S'Adenine'
p116
aS'GAUAGAGAUAGCAGAUAGCAGAUAGCAGAUAGCAGAUAGCAAAAGAUAGCAAAAAAGCUAUCAGCUAUCGGAUAGAAAGAUAGACAAAGUCUAUCCUAUCAGCUAUCAGAUAGACAUAUCAAAGAUAUGUAAACUAUCAGCUAUCAAAAGCUAUCAAAAGCUAUCAAAACUAUC'
p117
aF1.0
aa(lp118
S'Tripod5'
p119
aS'AAGAAGGCACAAAAGGUGCGUCUAAAAGGGACCUUCGA'
p120
aF1.0
aa(lp121
S'Shortie 6'
p122
aS'GCGAAAGCAGUGAAAACAGCAAAAGCAUCGAAAGA'
p123
aF1.0
aa(lp124
S'Runner'
p125
aS'AAAACGCUAUUUUGAAAAAGCUCAAGGAGCGAGAGUAAGACAAGAAACGAAAUGUAAAUUCCUCGAGAACUUCAAAGGGCCUUAAAAAAAAAGAAAAAGUUCGUUCAUGUCAAAAA'
p126
aF0.9482758620689655
aa(lp127
S'Recoil'
p128
aS'AAAAAGAUAGAAGCAAGCAAGACAAGACAAGCAAGCAAAGCAGCAGUCAGUCAGCAGCACUAUCAAAAAAAAAAAAAAAAAAAAA'
p129
aF1.0
aa(lp130
S'[CloudBeta] An Arm and a Leg 1.0'
p131
aS'AAAAAGACAGAUCGUACUCGUAUCGGCAGCAAAAGCGCCAGUCGAAAAAAAAAAAAAAAAAAA'
p132
aF1.0
aa(lp133
S'[CloudBeta] 5 Adjacent Stack Multi-Branch Loop'
p134
aS'GUUAGACUCGAAAGAGUGCUAGGAAACUAGUGAGAAGAAAUUCUCGUACGAAAGUGCCUAACA'
p135
aF1.0
aa(lp136
S'Triple Y'
p137
aS'AAUAAGUUCCUUUAAUUUAAUAAUUUAGAGAAAUCUAAAGGAUCGUUGGGAAAUCAUGCUCAAAGCAGCUCACGAACGAAAAAAAAAAAAAAAAAAA'
p138
aF0.9587628865979382
aa(lp139
S'Misfolded Aptamer'
p140
aS'GAUCGAAAAAGGGGCGAAGCCGGGAAAACCAUAAAAAAACCGAAAAGAUC'
p141
aF1.0
aa(lp142
S'Flower power'
p143
aS'AAAAGGUUCGUUUAAAGGGCGAUCGGCUAUAUUAAUAUGAUAAAGUACCAAGAGGAAGCACUUGAGAUUGGAAGUCAAGAGCAAAAAAAAAAAAAAAAAAAA'
p144
aF0.9019607843137255
aa(lp145
S'Kudzu'
p146
aS'AAAAUGACGGUUCGGAGGGAGCGCACGAAACGGCAGCCCGAUAGCAAAGCAUAUCAAGACAAAGUCAAACUCGGUUCGGUCUAAAAAAAAAAAAAAAAAAA'
p147
aF1.0
aa(lp148
S'"1,2,3and4bulges"'
p149
aS'AAAAAUGGAAUUAUCAAAAGGUAAAUGAGCCCGAAAGGGGGGAUCAAAUCCCGGGGGUAAACAAACCUGAUAAAGAUCAUGAAGAAAAAAAAAAAAAAAAAAAAA'
p150
aF0.9809523809523809
aa(lp151
S'medallion'
p152
aS'UCUAGCAGAUGGCGAAAGCUAUCAUGCAAAAGCCAAGGAAAACCGAGAUAUUAAAAGAUAUCGCCCAAAAGAGAGAGAAGAAAAUUUCCCAAGCUAAGGAUAAGCGAAAGUAAGAUAGCAAAAGCUAUCAGUUAAAAAAUGGUUGGUAAAACCCAUUAGAAGAAAUUCACAAAAAUUCCCUGUAACAAAAGUUGCAGACCAAAAAGUAGAUAGCGAAAGCUAUCAAAAAAAAUGUAAUCAAAAGACGGAUACCAAAAGGUAUCAGUCGAAAGACAGAGAGCAAAGGCUCUUAGACAAAAGUUUGACAAAAGUCUGAUAACUAAUGUUAUCAGCUAGA'
p153
aF0.8991097922848664
aa(lp154
S'[RNA] Repetitious Sequences 8/10'
p155
aS'AGGAAAAAAGCAAAAAAGCAAAAAAGCAAAAAAGCAAAAAAGCAAAAAAGCAAAAAAGCAAAAAAGCAAAAAACCAAAAA'
p156
aF1.0
aa(lp157
S'Documenting repetitious behavior'
p158
aS'AAAAAAAGCAAAAAAAAACGGAAAAAAACCGAAAUAAAAAGGAAAAAAAAAGGUAAAAAAAGGGAAAAAAAAAGAAAAAAAAAAGGUAAAAAAAAGGAAAAAAAAAAGAAAAAAAAAUGAAAAAAAAAGUAAAAAAAAAUAAAAAAAAAACGAAAUAAAAGGGAAAAAAAAAAGAAAAAAAAAUGAAAAAAAAAACAAAAAAAAGGUAAAAAAAAGCGAAAAAAAAACUAAAAAAAAGCCAAAAAAAAAAAAAAAAAAAAUGAAAAAAAAAACAAAAAAAAAUGAAAAAAAAACUGAAAAAAAGCCAAAAAAAAACCAAAAAAAAAUCAAAAAAAAACCAAAAAAAACCCAAAAAAAAACCGAAAAAAAACGUAAAAAAAACGAAAAAAAAGGCAAAAAA'
p159
aF0.975
aa(lp160
S'7 multiloop'
p161
aS'UAUAGAGACGAAACUUGCGAGCAAAAGUGCUACUGGAGAAAUCUGGUAGUAGAAAUGCUAGGUAUUGAUGUAGCCAUAGGUCAUUGACUAUC'
p162
aF0.8695652173913043
aa(lp163
S'Kyurem 7'
p164
aS'AAAAAGAUGAACAACAAAGGUAGAGAAAGUAACUAAGGAAAAUUCUGGUUGGAAAAAACUGAAAGCCGUCAGACGUAACAUUGAAAAAAAAAAAAAAAAAAA'
p165
aF0.9215686274509803
aa(lp166
S'JF1'
p167
aS'AUAACAUAAUGAGAUAGGUGAUAGAAAAGAUAGCAAGAUAGAAAGAAAGAAGAUAGCAGAUAUACAUAUAUCAAAAGAUAUAUGUAUAUCAAGACAAAAGUCACAGAUAGAGAAAACUCUAUCUGAACUAGCAAAGGCUAGGGCUAUCCCUUUCACUAUCGGCUAUCAAAGAUAGACUAAAAAGGUACUAUCAUGAAAUAUAUAGACAUAUAUAUAUCAAAGGAUAUAUAUAUGUUAUAUAUAUUUCUAAGAUAGAAAAAACUAUCGAGAGACAUCAAAAGAUGUCUUUCAGACAGUAAAAGCUGAACUAUCCACUAUCAACGGAGACAGACUAAUGUCGUCCCGUAGAUAGAUAUGAAAAUAUCAUAUCACAUUAAUGAUUAUAGA'
p168
aF1.0
aa(lp169
S'multilooping fun'
p170
aS'CUAUGUAAGGAAAUGUUAAUGUUUAAAGAAAAUGAC'
p171
aF0.8888888888888888
aa(lp172
S'Multiloop...'
p173
aS'AGCCUGGUCGGAGGAAACUCAUUCGAAAGAGAGCUGAAAAGCAAAGGAAACUUAGCCGAAAGGCGUCCGAAAGGAAGACCUACCCGAAAAAAUGGGUGCCAAAAGGCGGCU'
p174
aF1.0
aa(lp175
S'hard Y'
p176
aS'AAAAAGAUUUCCGAUAGACUGAAAAGUCUAUACUGGGUAGUCUUCUAAUGAGGACUAUCGAUCGACAA'
p177
aF0.9705882352941176
aa(lp178
S'Mat - Elements & Sections'
p179
aS'AAAAAGUUUACGAGGAGUUUUGGAAGUAUGAACACAACAGCUAAAGGGCAGAUAUGUUAGACUUAAAACUGGACGCAAAGGAAAUGAAAAAAAAAAAAAAAAAAA'
p180
aF0.9619047619047619
aa(lp181
S'Chicken feet'
p182
aS'AAAAAGCAUCAGUGAAGCGUUGAAAGAAAGCCGAGCUAAGACUAAGUAGUAAGACGAAAUAUAAAAA'
p183
aF0.8656716417910447
aa(lp184
S'Bug 18'
p185
aS'AGUCGUACUGAUAACCCCGCGCUCAAGGGAGAGCGGCAAACCUGUUAAAAGGA'
p186
aF0.8867924528301887
aa(lp187
S'Fractal star x5'
p188
aS'AAAAAGAUAGAGUGAGUUAAAAAUAACGAUGGCAAAAGCUAAAGAGCAAAAGCUUAAGAUCAAAAGAUUAAGCUCUAUCAAAAAUAGCGACUAAGAUCAAAAGAUCGUCGACAAAAGUUGUACCUGGAAACGGGAACACCAAAAGGUGAAAGUCGUUAAAAAAGAGACACUAAGAUCGAAAGAUCAACAGCGAAAGCUGAAAAGCAAAAGCUUAACAUCAAAAGAUGAAAGUGUUUCAAAAAGAUACACAAAGAUCAAAAGGUCAACAUAAAAAUGUGAGCAGCAAAAGCUGAACAGCAAAAGCUGAAUGUGUAUUAAAAAGAUAGACCAAAACCAAAAGGUUAUCUGCAAAAGCGGUAGAGCAAAAGCUUAACACCAAACGGUGAAGGUCUGUCAAAAA'
p189
aF1.0
aa(lp190
S'Crop circle 2'
p191
aS'GUUAAUCGAAACGUAAAAACAAAAAAAAAUUGAAAAAAAAAAAAAAAAAAAAAAAAAAAAAGGAAAAAAAAAAAAAAGGCGAAAAAAAAAUGAAAAAAGAGAAUGCAAAA'
p192
aF0.9454545454545454
aa(lp193
S'Branching Loop'
p194
aS'GGAGGCCAAAAAAUGUGCGUAAUUGCGAAUCUCAAAAAAA'
p195
aF0.95
aa(lp196
S'Bug 38'
p197
aS'UACUUCAUUUGAGAAACCUACAAAAAGGGUAAUGUU'
p198
aF0.9444444444444444
aa(lp199
S'Simple Single Bond'
p200
aS'AAAAAGCGAAAAAAAAAGGUGAAAAAUUUGAAAAAAAAGAAAAAAAAAAAAAAAAAAAAAA'
p201
aF0.9672131147540983
aa(lp202
S'Taraxacum officinale'
p203
aS'CCUGAAAACAACAAGAGGAAAACACUUUCGCCAAAAGACCGGUAGAAAAAAACUCAUAGAAAAUUAAUGGACUCUAAUGACGGAGAAAGACAUAUCUAGGAAAGUCAAAGACUAUUCCUAGAGAUAGAAGAGAGACAUCAGGAUAGACAAAGUCUGUCAGAUGUCUUUCUAUCAGAUAGCAAAGCUAUCGAUACUAUCGAAAUAUGUCUUUCAGCUCAAAAGAAGCACGCAAAAAUAGCGACAGCGAAAGACUGGUAGCGAACGACAGACCGCAAAAGACGG'
p204
aF0.8794326241134752
aa(lp205
S'Headless Bug on Windshield'
p206
aS'GGUAGAUAAAUCGACGGAAGCAGAUUAAAAAAAAAAAAAAAAAAAAAAAUAUCAGCAAACGUAAAUAUACAACGGACUAGACAAGGAAAAAAAGUUAAUGCAAAAAAGCCGACAAAAAUGUCAUAUCAAAAAAAGGAUAAGCUAUGCUCUAUUGCUAAAAAAAAAAAAAUGCAUAUAAUGCACUGCAAUCAGUGAACUGA'
p207
aF0.98
aa(lp208
S'Pokeball'
p209
aS'AAAGGUAGACAAAAGCAAGGAAGUAAAGUGAUUCGAAAAUGGGUCUAUCAAAGAAGAAACGGACAAAGAGCAUACGCUAGCGUUAAUCGAAAAAAUGAAGUUUGAAAGCAGGUAAUACAAGGAAUCGAGAAAGCUUGUGUGGAAAUCGGUUCCCAGCGGGGGCCAGCAAGCAGCAGGCUUCCAA'
p210
aF0.9782608695652174
aa(lp211
S'Variation of a crop circle'
p212
aS'AAAUUGAAAACCUAAAGGAAAUCCAGGGAAUCUAGGAACUGAAAGACUAAAAAGUGAAAAAUGUGAAAAAAAAUAUCAAAAAAAAAAA'
p213
aF0.9545454545454546
aa(lp214
S'Loop next to a Multiloop'
p215
aS'AAGAUAGGUUUAAAAAGCGGCUGACAAAAGUCGGCACAGAGCAAAAAUGCUCUGAGAAAAAAUAGCCUAUCAA'
p216
aF1.0
aa(lp217
S'Snowflake 4'
p218
aS'UUGGAAACUGAGUACAUCGAAAGGCUAGGAAAAUAGGCAAAAACGGUAGGGUCAAAGAUCAACAGCAAAGCUGCUGCCAUUAAUAUCUAUAUAUCGACGCAAAAACUAUCCCGUCAAACGAGAACUGAAAGUUGCGGAUACUAAAAACGUCGAAAAUUACGUGAAAAUCUUAUCGACGAAGUCGAAUCGCAAAGCGAGUAAGGUGAAAAUGUAGUGUGAUACUCGAAAAGCAUACUGACAAGGUCAAAUAGCAAAGCUAGUAUGCAAAAAAGGGAUCUUCAUAGGCGAAAACGAUUUGAUCAAAGAUUAACAGCAAAGCUGAAAUCGGAAAGGCCUAUGUACUUAGGAAAAAGCUGUAUGAUUGAAGUUA'
p219
aF0.8810810810810811
aa(lp220
S'Mat - Cuboid'
p221
aS'GGGGUAAAAGUAACCAAAAGGAAGUCAAAGAGGCAAACAAAAGCCGGCGUUCAAAAUAAGCUUCCAAUAAAAAAAAGGCAAUCAAGCAAAAGGAAGCAAGCAAGGAAGAAAAAACUUUUAAUCGGACAAACAAAAGCUCUAGAACAAUCAUUCUUUGAAAAGCUGUCUGUCAUUAUCUUUUUCAAAAGGUUUGGUUAAUUCCACCUUUUAAAAAAGAAAGGGUGAUCUAAAUGUUUCGAAAGAAAUAUGGAAAGAACGCCAUAGAAGGAAAGUGGUACAGCGUAGGAAAGGGGAAAAGUUCAACCAGGUAAGCAACCGCAACGGGGAAAGUGGAGGCUUGUGAAGAGAGCAUCCGUAAGCAAUGAAAUCCCAGACGUAAC'
p222
aF0.8210526315789474
aa(lp223
S'Misfolded Aptamer 6'
p224
aS'AAAAAGGACAAAAAGGAUCAGGGAAAGACAAAAAAAAGUCAAAACAAAAAGAUCAAAAAAAGUCGCAAAAAAAAA'
p225
aF1.0
aa(lp226
S'Snowflake 3'
p227
aS'GACCGGAAACGAUCCGACAAAAGUCAAGAGGAGAUCAAGACAAAAGUCGAGAACAAAAGUAUCAAAGAUGCAAAAGCACUCGACAAAGUUCAAGACUAGCUCAAGACAAAACACGAGAGCAAAAGCCGCAACGCACAAAAAUGAUUCGCAAAAAGUCAAGAGCAUCUCUAGAGAAAACUCGAAACCUAAUGGUUCAAAGAACGAAAAUGAUUCGAUAAAAAUCAUGAUCAGACCAAGUUAAAAAACGAUGGUAAAAUCUGCAAAGCAUCUAAUGGAGUCCAGAAAACUCAAGAUCGAGUCAAGACAAAAGUCGUAAGCAAAAGCUGCAAAGCAGCAAAAGUAUGCGUCUAAUGUCAAGUUUACUUUAAGCCAAAAGGCGCCAGCUAAUGCGUC'
p228
aF0.7938931297709924
aa(lp229
S'Hard Y and a bit more'
p230
aS'AAAAAGCUUGCUCCAAAUAAAAGAUUAGACGAUAAAGCAUGUUCGAAAGAGCUAUUAAGAAAAAACUUAGAGGCAUUAUCCAAGCAAAAAAAAAAAAAAAAAAAAA'
p231
aF0.9716981132075472
aa(lp232
S'Mat - Lot 2-2 B'
p233
aS'GAUGGGAACAGGUUUUAAAACUUUAAUGGAAAUCAAACUUAUGGGAAAGCAAAAUGGGCCCUGGGGAAGUUAAGUCAACCCAUCGCAGUGGGAGUCAAAACGAAAAGGGGAGUCAAAGGUAAGUGGGGGAUCAUUCAAUAAAAGUCCGUGCUGUAUGCAAAAGCAAGUAGUAGGCUAAAAGAGAGCGCUAGCAAAAGAAAACGAAGGGAACUUAGCACUUGAAAAAGCGUGAGCGAACAAAAGGAAAAUCGAGAGCAAAAUUAAGCUCAAGUACAAAGAACUAC'
p234
aF0.7922535211267606
aa(lp235
S'Shapes and Energy'
p236
aS'AAAAAAGGUAUGAGAUCCAAAGGAAGUUGGUAAAGAACAACGAAUGAUCGACACGGGGCGAUGGAAACAUCUGGCAUAGCAAAAAAAAAAAAAAAAAAAAA'
p237
aF0.9603960396039604
aa(lp238
S"Spiral of 5's"
p239
aS'CAAAGGAUAGAAAGAUAGAAAGAUAAAAAAGAUAGAAAGAUAGAAAGAUAGAAGAUAGAAAAGAUAGAAAGAUAGAAAGAUAGAAGAUAGAAAGAUAGAAAGAUAGAAGAUAGAAAGAUAGAAGAUAGAUGAUAUAAGGUAGAGGAUAGAGAUAGAGAUACACAUCAAAAAGAUGUAAAAAGUAUCAAAAACUAUCGAAAACUAUCAAAAACUACCAAAAAAUAUCUAAAACUAUCAAAAACUAUCAAAAACUAUCAAAAACUAUCAAAAACUAUCAAAAACUAUCAAAAACUAUCGAAAACUAUCAAAAACUAUCAAAAACUAUCAAAAACUAUCAAAAACUAUCAAAAACUAUCAAAAAUUAUCAAAAACUAUCAAAAACUAUCAAAAAGAAAAA'
p240
aF0.9949622166246851
aa(lp241
S'Campfire'
p242
aS'AAAAUGUCCAGAUAGACGGUGAAGAUCUAAAUGAUCGUUAGUUAUACUAAGCCAUCGACAUCACUAGGAGGCGGAAAACCUGCCGCGGUACACAUCACCAGCUAAUGGGGGACAACAGAAGAAAUUCCGAAUGAAGAAAUGGAUAAUUCAAUCCUGGGACAGACAGAUGAAAGCAUCGUCGUUUAUAGACCGAAGGUACUAAUGACGGUACA'
p243
aF0.8820754716981132
aa(lp244
S'Anemone'
p245
aS'AAAUGUUGUGAAAGCAAUGGCUAGCAAACAGGCGUGUGUUAAUAUACGCUAUGGUAAUCCAUAAAUGGUUAAUGCAAUUGGCAGGAAACUGUUCAAGGUAAUCCUUGGGUAUUAAAGAAUACCACACGUGCAAAUGUGGUAGCGAAUGCGCUACGCUGGUAAUCCAGUUUUGUUGAAGCCUAAAGCUUGGAAACAAGCGACAAGUAAUCUUGUC'
p246
aF0.9813084112149533
aa(lp247
S'Fractal 3'
p248
aS'AAAAAAACGACGCAUCGAAAGAUGGAAACGGGCGGGAGAGUAAAGGCACGAAAGUAGGCAGGAAGCGAAAGCGGGAAAUCAUACACUCACCUAAUGGGUAAAAGCGGCGAAUUUAAAAA'
p249
aF0.9495798319327731
aa(lp250
S'Kyurem 5'
p251
aS'AAAAGGUAAGGCGUCGAAAGUCGAUAAAAGACCGCUGAAAAACAAAAAGUCAUUCAGCAAAAAGGCUAGAAAAUCGCCAAUUGCAAAAAAAAAAAAAAAAAAAA'
p252
aF0.9230769230769231
aa(lp253
S'Snowflake Necklace ( or v2.0 )'
p254
aS'GCUACAUAUUUAUGUAGAUAAAGCAAAAAGCAUUACAAUGGGGAAAAAGGCAGUAAAAAGUGGUAAAAAGCAUUAUCAGAGAAAAACUCAUCGACAAGAAAAAGUAUCAAAAAGAUCGAAAAAUGGUCAAAAAGAAGGAAAAACCAGUCGGGGGCAAAAAGUCUGAUUGAGCAAAAAGCAUCAAAAAGAAGCAAAAAGCAUCAAAAAGAAGCAAAAAGCACAAUCUUAGAAAAACUGAUAGAAAUGAAAAACGAUUAAAAAGAUGAAAAAAUUGUUGAAAAGAACUAAAAAGAAUUAUAAGACAAAAAGUCGGAGAGCGCAAAAAAUUUCAAGAAGAUGCAAAAAGCUGCAAAAAGCUCCAAAAAGGGCUUUCAAUAUAAAUAUGUAGC'
p255
aF0.8508997429305912
aa(lp256
S'Methaqualone C16H14N2O Structural Representation'
p257
aS'AAAAAAAGAUGAGUUCAGAUGGACAAAAGUCAAACGCGCAAAAGCGAGACACGCAAAAGCGAGACAGACAAAAGUCACGCAAAAAAAGCGAGUAAGUUAGUUAAUCAGAAACGGAACAGGUCAAAGCUCGGAAAGCAAAGCAAAAAAAACCGUGAGAGACUAAUGUCCACAAAAGUGCGCAAAAGCGCUCUUCAAAGAUCUUAAACUCAUAGACACGCACGCAUCAAAAAGUCAAAAGACGGGGACGCAAAAGCGAGCGAGACAAAAGUCGGCGAGACUAAUGUCAGUCAGACCGCGAAAGCGCGUAAAAACGACGCUAAUGCGGUCAGUCUGAUCAAAGACCACAUCAAAAAAA'
p258
aF0.9154929577464789
aa(lp259
S"Cat's Toy 2"
p260
aS'AAAAAGGAGGAUAAAAGAGCGAAAAAAAAAAAAAAAAAAACAAGCAAAGCAAAGGCGAGAGAAAAACAAAAAAAAAUGAAAAAGCAUUCUCUUAAAA'
p261
aF0.9587628865979382
aa(lp262
S'Zigzag Semicircle'
p263
aS'AAAUGCUCAUCUUGAAAAAAAUAGAUGGGCUAAA'
p264
aF0.9411764705882353
aa(lp265
S'Short String 4'
p266
aS'AAAAAUGAAGAGGGUAAGAAAGUUAAUCAAAAAAAAUGGACUGGGAGGGAAAAGUCAAUCAAUUAACGAGAAGCGUUAAAAAAAAAAAAAAAAAAAA'
p267
aF0.9587628865979382
aa(lp268
S'Gladius'
p269
aS'GGAAACAAGAAAAGAAAGAGGGGAAGAAUGCCAUACAAAGAUCAAAAGAUUAAGUAGAAGAGACAAGAGAUCAAUACAUCAAAAGUUACACCAGAUAUGAGGUAUAGAUCACAUCAUGAUCAAAGAUCUGAUAGGAUCGUUAUCCAAUAUCGAGUGUAACAAUAGAUGAAAAGAUCAACAGCCAAGACUACUAGUCGAAGACAGAAGGUGAAGACAGAACAUAAAAAGAUUGAAAGAUGUAAAGUAUACAAUAUCAGAUAGCAGAUGGAUAGCAAAAGCUAUCAAGUCGACUAUAAGAUAAUGUAUAACUUAUAUCAGCAAACCAUAAGAUACCAAGUCUCAUUCUUCGGACUAAAAAGUCAAAGUUAGGCUAACGGCGCAACAAACAAAACAACAAAAG'
p270
aF0.905
aa(lp271
S'Thunderbolt'
p272
aS'CCAAGAUAGAAAAAAAAGGGAAAGCGGAGGGGUGAAAAACAGUGACGAAAAAAAACGCAAAAAAGAUCAAAAAGAUCAAAAAAGUCAACCCUUGAAAAAAAAUAUAAAAAAGAACGAUAGGUCAAAAACAAAAGACGGCAAAAACGCAAAAGGCAAGAUGAAAAUUAGCAAAAAGGCGGAUCAAAGAAAAAAAGUUGACCAAAGGGCAACAAAAAAACAAGGAUCAAAAAAAAGCCGAUGGGGAUAGCAAAGCUAUCAGGAACGAAAAAAAAAAACAACGGAGGAAAAAGGCUUCAAAAGCAUAUCGAAAAUGAAAAAAAGAAAAAGAUAUGAAAAAAAAACGUCGCUGAAAAAAAACGGCAAUCGCAAAAAGAAAAAAACACUAUUAAGGA'
p273
aF0.9387755102040817
aa(lp274
S'Mutated chicken feet'
p275
aS'AAAAAAAAGAGCUUCAAAGGAUCGAAACGAUGCUCUAGAGCGUCAAAGAAACAAAGGUAAGCUCAGCAGGGACAAAGUAGUGCAGCAAACCGCAAAAAAA'
p276
aF0.86
aa(lp277
S'Chicken Tracks'
p278
aS'AAAAAAAGGUAAGACGUUCGAAAGAACAGGAUCAAAGGAUCAAGGUCGAAAGACCGUCUUACAAGACGAGGAAGCCUCAUGCUCAAGGAGCUAAGCCAAGGGCUGUCGAAAAAAAA'
p279
aF1.0
aa(lp280
S'Looking Back Again'
p281
aS'GACAAGACGACCAAAAACCGAGCUAUGCUUUGGAAUCAUGAGCGGAAUCCUAUGGAGCGAGAUUGAAUGAUCAAAAGAUCUAAACAAUCGAGUCUAGUCAAGAUCUACAAAAAGAUAUAAAAAUAUCAAAGAGGGCAAUACUGUAAAAAUUACGUGUAGAAACUACGGAUAGCCUAAGUAAAAGUUUAAGUCUAGCAAAAGCUGCCCGGAACUCACAAGGACAAAGGUCAAGCUAUCAAAGUAUUGAUAACACAGAGAUUAAAAAAUAGGGAGAAAAAAAAGAUCAAAAAGAUCUUCUAAACUAACGUCGAUCAAAAAAUCCAUAGCAAAAGUUAUGAAGACCCAAAGGAUUAGCAAAGCUAAGAAUCGAAAAAGAUCCUGUGGCAGUC'
p282
aF0.8946015424164524
aa(lp283
S'Multilooping 6'
p284
aS'AAUUAGUAAAGAUAUGCAAGUAUUUGGCGGACACGCUGUUGCUUUAUUUUAAUGGAUACCGAAGAAAUUUGGGACACUAAGA'
p285
aF0.926829268292683
aa(lp286
S'Cesspool'
p287
aS'GAAGAAGAAAACAACGGUUUAGAGACAAAGUCAACAAAAACCAAAUUGGAAAUCGAGAGCAUGAAAGGACAAAAUGAAAACAAAGACAAUGUGAAAAAAAUAAUGGAAUAGAGCGAAACGAAGUAAAAGCCCAGGUUCAAAAGAAAAUAAUGAAAAGGGAAAAUUGAAAAUACAAAAAGCAUGAAGAAACCAACGGUAUGUACUCAAAGAGAAAAAACACCGAAGCUUAAAGGAUCAGUUGGAAAUUGCAAAAAGAAAACGACAGGCAAGCUUUAGGAAAACAAGGCUUGAUAGAAAAAUUCAAAAACUAUCUAAUUUGAAAACAAAAGUGUGAAAGGUCAAACUGAAAACAAAAAGC'
p288
aF0.7877094972067039
aa(lp289
S'Hoglafractal'
p290
aS'AAUGGGAAAGGACAAAAGUUCGAAAAAACGAGCGUCUCGAACAAAGAUCUAAAUGGUCGUUAAUCAACACAAAACCAAGUUGACAAAGAACAAAGACGUAAAAUCGUCGUUCAAGAAGACAAAAAGUCCGGGCAUCAAAGGAGCAGAACGAAACGCAAGACGAAAAAGUCGCCUCAUCAAAAAGAGGAGCAAAAGCGAGGUGGAAAAAUAAGCGAAAAACCCAUCCAAAAAGGGUGAAAACAAGAUAGGAAAAAAGUAAAAAAAUGGUAGAAAAGAAAGAAGAUCCUAUGGAUCUUAAAAAAAUCUAUCAAAAAACCAUCGAAAAGAUAAAAAGUCUAACCUAAAAAGAACAUAUCAAAAGCAAAGGCACAAAAGACUGGUCAAAGACCAGAGAUAGUAA'
p291
aF0.91
aa(lp292
S'Bullseye'
p293
aS'AAGGACCAUGAAACAUCAAGGUCAAAGACCGAGAUAGAAUACGGCCAAAAAAAAGUUAGUCAAAGAUAAAAUUCAAAAAGCAAGAGAAAAGUUGAGUGAAAAAAAAAGGACGAAAUGCCAAGUUCAAGGAACAAGAUCGAAUAUCUUUAAAAAAAAGGCGUUUGAAGAGCAAGAUCGAGGGGCAAGUUCAAAGAGCGCCAAA'
p294
aF0.8316831683168316
aa(lp295
S'Shooting Star'
p296
aS'GAUAGCGAUCGGUGGCCUAUGAUUCUCAGAAAGACAGCAAAAGACGUAUUUCAGACUAGCUUGGCCACUAAAUAGAUUAGAACCAGACAGGUAGAGACAGUUCAGCUAAUGACGAAAUGUCCAUAUACGUCGGAGGGAAAACGGAAAAAAUAUUGGUCGUAGCAAAGCUAUAUUCACAAAGUAAGGUAAAAACUCAGACCAGACCACAGAAGGCAAAAGAUCUACAAAGUGGAUCACUUGUAAAGCGAGUGUCGGGAGACAACGUCUUCCACUAGGAAACCUAGGUUGAACUAAGAAAGUGUUAGAGAUCUGGGGGAGAUCAGCAAAAGACGAUACCUCACUAGAACGUUCCAGUUAGCUAUUA'
p297
aF0.8104395604395604
aa(lp298
S'Teslagon'
p299
aS'AAAAAAUUAAAAAAUGAAGUAAAAAAACCAGGAAAAAAAAAAAAAAAUCAAAAAACCUCCAAAAAAAAAAAAAAAGGAGGAAAAAAACCAGGAAAAAAAGCAAAAAAAAAAAAAAAGCGAAAAAACCUGGAAAAAAACCGGAAAAAAAAAAAAAAAGGGAAAAAAUGUAAAAAAAAAAAAAAAAAUCAGGAAAAAAACCUGCAAAAAAAUAAAAAAAAAAAAAAAAGGAAAAAAACCGGGAAAAAAAACAUCAAAAAAAAAAAAAAAGGAAAAAAUCAACAAAAAAAAAAAAAAAGACGCACAAAAACCAGCAAAAAAACGAAAAAAAAAAAACGGAAAAAAAAAAAAAAUGACCGAAAAAACCAUCUAAAAAAGAAAAAAA'
p300
aF0.9057591623036649
aa.