(lp0
(lp1
S'Simple Hairpin'
p2
aS'GAUACAAAAAAGUAUC'
p3
aF1.0
aa(lp4
S'Arabidopsis Thaliana 6 RNA - Difficulty Level 0'
p5
aS'GAGAUACAAAUGACAAAAAAAAAAAGUCGAGAUAUCAAGAGAUAUUAUAUUAUAUUCAAAGAUACAAAAAAGUAUCAGAAUAUAAAUAUAAUAUCUCGAGAUAUCUCAAGUAUCUC'
p6
aF1.0
aa(lp7
S'Prion Pseudoknot - Difficulty Level 0'
p8
aS'GAUAUCAGAUCAAAAGAUCGAUAAUCAAAAAAAAAA'
p9
aF1.0
aa(lp10
S'Human Integrated Adenovirus - Difficulty Level 0'
p11
aS'GAGAGUGUUAUAUCAGAUAUCAAAAAAAAAAAUGCCGGCCUAGGAAAAAGGUGUUACAAAAGACGUUAUAUUAUUAAAAAAUAUAAUAUAACAAAAGUCGUAACUAAAGCCCCUAAAAGGGUCAAAGAUAUCUAAAAAUGAUAUCGGUAGAAAAAAAAAAGGAUAUCGGAUAAAAAUAACACAAAUCUCAAA'
p12
aF1.0
aa(lp13
S'The Gammaretrovirus Signal - Difficulty Level 0'
p14
aS'AAGAGAAGCUAACAAAGGUUAGCGGCGCAAAAAGGAUUAAGACAGAACCUGGGUAAUCUUAGAAAAGUUCGUCGAUCAAUAGAUUUCAAAAGAGAUCUGAA'
p15
aF1.0
aa(lp16
S'Saccharomyces Cerevisiae - Difficulty Level 0'
p17
aS'CCUGCAGGUCUCAAAAAAAAUAUUAGUUAAAAAAAAAAAAAUUUAAAUACAAUAAUACUUUAUACUGCGGGAAAUCGGUUCCAACUGGUAAAAAAUUCAGGGCGAAAAAAAAAAAAGCCAAGGCAUAAUAAAAAUUUAUGGGGACCGUAAGCAACUUAAAGCUUAAAAAAAAAAGCACUAGCUAAAAAUGCUAGUAAAUGUUAUUAAAAAUAUGACAGAGUUGAAAUGAAUGAGAACUUCGAAAAAAAGAAGGGGACGUAAAAAUCGUUCCUAACGCUACGAAAAAAGUAUCCUUAUUCUCAAGUCCGGUAACAGCGAAAAAAAGCUGGCUGGCUAAAAAUGUCAGCAAAUUACGCUAAAAAUGCGUGCCCUGUCCAAA'
p18
aF0.978891820580475
aa(lp19
S'Fractal 2'
p20
aS'AAAAAGGGAUAUCAAACAGAUAGUAUGAGGCCAAAAAAAAAGGGUCAGGGACAAAAAAAAAGGUCCAAGUUCAAAAAAAAAAGAACAAAUACUAUCUGAAAGAGAUAAUCGAUGGGCAAAAAAAAAAGCUCUUGAUCGAAAAAAAAAGGUCUACGCCAAAAAAAAAGGGCGAACGAUUAUCUCAAACAGGUAUUAUAAGAACAAAAAAAAAAGUUCAUGAGCAAAAAAAAAGGCUUUAGACCAAAAAAAAAAGGUCGAGUAAUACCUGAAAGAUAUCCCAAAAA'
p21
aF1.0
aa(lp22
S'G-C Placement'
p23
aS'GAUCAAAGAUCG'
p24
aF1.0
aa(lp25
S'The Sun'
p26
aS'UACACAACUGCAAAGUAUAAUAGGUGGAUCAGAUCGCUAGAAACUAGAACGACUAUUAGUCAUGGAUACAAAGUGUAACCAGUUGAGGAUAGGGGUACAAGGUACAACCUGGUAAGCACAGGCCUUCAAGGAAGAAGCUCUCUAGGAAAGAUACAUAAGGUAUAAGUCUUCAAGGUUAGAGAAAGAAGCUGUAACUCAACAAGGACAGCGAUCUCAAGUAUAACGCGUCAAGGACAGGGAUGCAAAGCAUACCUCGUC'
p27
aF0.8488372093023255
aa(lp28
S'Frog Foot'
p29
aS'AAAAAAAAAAUGUCGAAAGACAGAUUGAAAGAUCGCGCGAAGCGC'
p30
aF1.0
aa(lp31
S'InfoRNA test 16'
p32
aS'GAUCUAGCCGGACGCUAAUGCGUCAUGAGAUAGAUC'
p33
aF1.0
aa(lp34
S'Mat - Martian 2'
p35
aS'UUGCAAAAGUAGAAAGUGAUACAAGAGAUACUAAAAAUGUAUCUCGUAUCACGAUGAUAUUAUGAAAAAGAGAUACAGAGAUACAAAAAAGGUGUCUCGUAUCUCGAAGAGUUAUUAUAUUCGAAAAAAGAAUAUACAUAGCUCAAAAAAGUAAUAUCUAAGAUAUUAUAUUAUCUAAAAAUGAUAAUAAAUAAUAUCAAAUGUUUAAUGACA'
p36
aF1.0
aa(lp37
S'square'
p38
aS'GAGAUACGAGGUCGAGGUACGAUGUCAAAGACAUCAAAAGUACCUCAAAAGACCUCAAAAGUAUCUC'
p39
aF1.0
aa(lp40
S'Six legd turtle 2'
p41
aS'AAAAAGCAAUAUGAAAGUUAGGUAAAAACAAACUUAAAGGAAAGUAAAAACGAAUACAAAUGAAAUGAAACCCAAAGCAAAAAAAAAAAAAAAAAAAA'
p42
aF0.9591836734693877
aa(lp43
S'Small and Easy 6'
p44
aS'GCCCGGAAAACGAAGCUAAAAAAAUGCGGC'
p45
aF1.0
aa(lp46
S'Fractile'
p47
aS'AAAAAAAAAAAACCAAAAGGAAAGGAAAGGAAAACCAAGCAAAGGAAAACCAAAGCAAGCAAAAGCAAACCAAGCAAAAGCAAAAAAAAAAAAAAAAAAAAAAAA'
p48
aF1.0
aa(lp49
S'Six legd Turtle'
p50
aS'AAAAUGAUAAAGCAAAAGAUAAACUAAAAGGAAAAGUGAAAGCAAAAGUAAAGGCAAAGCCGAAAGCAAAAUGUAAUCGAAAUUGUCAAAAAAAAAAAAAAAAAA'
p51
aF0.9428571428571428
aa(lp52
S'snoRNA SNORD64'
p53
aS'GAUAUCAAAAAGACAAAAGACAAAGAUACAAAAAAAAAAAAAGUAUCGAAAGUCAAGUCAAGAUAUC'
p54
aF1.0
aa(lp55
S'Chalk Outline'
p56
aS'AAAAAGAUCAGAUACAAAAGUAAUCAGACAGACAAAAGUCGUCAGAUAGCAAAAGCAUAUCAGGGACAAAAGUCACCGGUCAAAAAAAAAAAAAAAAAAAAAAA'
p57
aF1.0
aa(lp58
S'InfoRNA bulge test 9'
p59
aS'GAGAUACAGAGAGAGAGAUACAAAAGUAUCUCCCCGUAUCUC'
p60
aF1.0
aa(lp61
S'Tilted Russian Cross'
p62
aS'AAAAACUUGGAACGAAAGUUCGCUCAGAUUUAAUGAUCUAUACAAAGGUAUGAGAUUUAAUAAACGAUCAAUAUAAUUAUUUAGGAAAAAAAAAAAAAAAAAAAA'
p63
aF0.9238095238095239
aa(lp64
S'This is ACTUALLY Small And Easy 6'
p65
aS'AAAAAAAAAAAAAAAAAAAAAAAAAAAAAAAAAAAAAAAAAAAAAAAAAAAAAAAAAAAAAAAAAAAAAAAAAAAAAAAAAAAAAAAAAAAAAAAAAAAAAAAAAAAAAAAAAAAAAAAAAAAAAAAAAAAAAAAAAAAAAAAAAAAAAAAAAAAAAAAAAAAAAAAAAAAAAAAAAAAAAAAAAAAAAAAAAAAAAAAAAAAAAAAAAAAAAAAAAAAAAAAAAAAAAAAAAAAAAAAAAAAAAAAAAAAAAAAAAAAAAAAAAAAAAAAAAAAAAAAAAAAAAAAAAAAAAAAAAAAAAAAAAAAAAAAAAAAAAAAAAAAAAAAAAAAAAAAAAAAAAAAAAAAAAAAAAAAAAAAAAAAAAAAAAAAAAAAAAAAAAAAAAAAAAAAAAAAAAAAA'
p66
aF1.0
aa(lp67
S'Shortie 4'
p68
aS'GGAAAGCCAGGGACACC'
p69
aF1.0
aa(lp70
S'Shape Test'
p71
aS'AAAAAGAAGUCAAGAUACAAAAAAAAGUAUCAUCACAGACAGGUACAAAAAGUACCAGAUCAAAAGAUCGGUCGUGUAGAUUACGAAAAAAAAAAAAAAAAAAA'
p72
aF1.0
aa(lp73
S'The Minitsry'
p74
aS'GUGUAAUUUGCGAAAGGCCUAAAACAUGAAAGUUCGAAAUAAAGGAAAUGCGGCAGCGUCAC'
p75
aF1.0
aa(lp76
S'stickshift'
p77
aS'AAGAGAUCCCAAAAAGGAGAUCUCAA'
p78
aF1.0
aa(lp79
S'U'
p80
aS'AAAAAGAUACAGAGAGCAGAGAGAUAUUCAAAAGAAUAUCUCCGCCCGUAUCAAAAA'
p81
aF1.0
aa(lp82
S'Still Life (Sunflower In A Vase)'
p83
aS'AAGUUUAGACGCAUCAAAGAUGUGAGGGCGGGAACUGCCAAUAUCCGAAAAGGAUAGAGUACGAACCGUACAAGAUACAAAAAGUAUCAAGAUUCAAAAAGAGUCGUAGAUAUGCUUUUAUAUCAUAUCGUUACUAAAAUGUAGCAGAUCCAAAAAAAAAAAACGGUCUAAAAAAAAAAAAAAAAAAAAAAAAAAAAAAAAAAAAACCUGAUCAAAAAAAAAAAAGGGAUUGCGCUAAAAGGCGCAGAUAUGGUAUAAAAGCAUAUCUGAAGAUGUAAAAGACAUUAGGGUCCUAAAUGGACCAUGCGCUAAAAGGGCGCUAGCAUAAAAAGCAUGCGUAACGAAAAGUCGUUUAGCUAUAAAAAGUAGUAUGGAAAA'
p84
aF0.9788359788359788
aa(lp85
S'Quasispecies 2-2 Loop Challenge'
p86
aS'AAAAGCGGCCGGUACCCUCAAAAGAGGAAAUCGAGAGGAGCAAUGAGCCUUAGUGUAAGAAGACAAAAAGUCGGCAAACGCGCCGAAAAAAAAAAAAAAAAAAAA'
p87
aF1.0
aa(lp88
S'Corner bulge training'
p89
aS'AGAUAUCGAUACAAAGUAUCAAAAGAUAUCA'
p90
aF1.0
aa(lp91
S'Spiral'
p92
aS'AAAAAGAUCAGAUAUCAGACAGAUACAGAUCAGAUCAGCAGCAGCAGCAGCAGCAAAAAGCGCGCGCGCGCGAUCGAUCGUAUCGUCGAUAUCGAUCAAAAA'
p93
aF1.0
aa(lp94
S'InfoRNA bulge test'
p95
aS'AAAAAAAAAAAAAAAAAAAAAAAAAAAAAGAGCAAAAAGGACUGAAAGGGGAAAGAGGAGGAGCGGAGAGAAAAUCAUCAGCAUCAGCCAUCGAACCACCAAAAAAGAUUAAAAAAGCAUCA'
p96
aF1.0
aa(lp97
S'Worm 1'
p98
aS'AAAAAAAAAGGGGUUAGUUGUUAAAAAAUAAAAAGAUAGACACGG'
p99
aF0.9111111111111111
aa(lp100
S'just down to 1 bulge'
p101
aS'AAAAAGAGCAGAUACAAAAGUAUCAGACAAAAGUCAGCAUCAAAAGAUCAGACAAAAGUCAGACAAAAGUCAGAUCAAAAAAAAAAAAAAAAAAAA'
p102
aF1.0
aa(lp103
S'Iron Cross'
p104
aS'AGACAGACAAAGGCAGGCAAAGCCAGACAAAAGUCAGCCAAAGGCAGACAAAAGUCAGACAAAGUCAGCCAAAGCCAGACAAAAGUCAGUCAAAGACAGGCAAAGUCAGACAAAGUCAGUCAA'
p105
aF1.0
aa(lp106
S'loops and stems'
p107
aS'AAAAAGAGAUACAAAGAUCAAAGAUCAAAGAUCAAAAAAAAGGAUACAAAAAAAAAAAAGUAUCAAAGAUCGAAAGAGCAAAAAAAAAAGCUCAAAGAUCAAAGACAAAAAAAAGUCAAAGAUCAAGCAAAAAAGCGAAGUAUCUCAAAAA'
p108
aF1.0
aa(lp109
S'Water Strider'
p110
aS'AAAAGGCAGCAGGCGUAAGACAACACGAGGAAAAGGCCAGAAAAAACGGCUCAAAAGAGGACAAAAGACAGGGGCAAGCGGCAAAAAAAAAAAAAAAAAAAAA'
p111
aF0.941747572815534
aa(lp112
S'The Turtle(s) Move(s)'
p113
aS'AAAGUGAAAGCAGACGAGAUAUUCAAAAAAAAAGAAUAUCUCCAAAGAUCAAAAAGAUCAGAGGCACAAAAGUGAAAGAUACAAAAAAAGUAUCAAAAUGUAAAGCAAAGGGGCAGGGGCAAAGGCCAAAAGUUAGCUAAAAAUGCUAGCAAAAGACUAAUGUCAAAAAGAACUUAAAAGAUUAAAAAAGUCAGCUAAAAAAAAAUGGUAUGUUGCAAAAAAGCAGCUAAGAGGAAAAACCUCAAAAGUCCAAAAAAAAGCGAAAAAGGUAGAUCAAACGGGAAAUAGGUACAAAAAAAAAAGUAUCGAAAAAUCA'
p114
aF0.9810126582278481
aa(lp115
S'Adenine'
p116
aS'GAUACAGAUUUGAGAUAUUGCAUUGCUGGAAUCGGAUAUCGAACGAUAUCAAAAAAGAUAUCAGAUAUCAUAUACAAAGAGAUACGAAGUAUCUCGUAUAAGAUUUCAGAGAUAUUAUACAAGGUAUAAUAAAGUCUCUGCGAUGAAAAAAUAUCAAAACAGAUUAAAAGUGUC'
p117
aF1.0
aa(lp118
S'Tripod5'
p119
aS'AGGCGCGAUUUAAAUGAUCGAGCAAAAAGCUCGCGCAA'
p120
aF1.0
aa(lp121
S'Shortie 6'
p122
aS'CUAAAGGGAUCAAAGACGGGUAAUCCUGGUAAUCC'
p123
aF0.8857142857142857
aa(lp124
S'Runner'
p125
aS'AAAAAGAUCUGCGCAAAAGUACCGAAGGUGAGCUCAAAGCUAAGUGAGCAAACCUAAGUGGGUCGAGAAGCGUCGGUACGGGCAAGGACAAGAAGGAAAACUAGUCUGAUCGAAAA'
p126
aF0.9827586206896551
aa(lp127
S'Recoil'
p128
aS'AAAAAGAUACAAGCAAGCAAGACAAGACAAGCAAGCAAAGCAGCAGUCAGUCAGCAGCAGUAUCAAAAAAAAAAAAAAAAAAAAA'
p129
aF1.0
aa(lp130
S'[CloudBeta] An Arm and a Leg 1.0'
p131
aS'AAAAGGCCAGCAACUAAUGUAUGUGACAGCCAAGGCGUCCGGCAAAAAAAAAAAAAAAAAAAA'
p132
aF1.0
aa(lp133
S'[CloudBeta] 5 Adjacent Stack Multi-Branch Loop'
p134
aS'CAAGCGGGUAAAGGCCCGCACCGAAAGGUGCGCGUCGAAAGAUGCGACCGAAAGGUCGCUUGA'
p135
aF1.0
aa(lp136
S'Triple Y'
p137
aS'AAAAUGAUGUCGCCAUUAAAAAAUAAUGUAAAAGAGCGAUAAAGCGUUAAAAGUAGCGAUCAAAGUUCCGUUGUAUAUAAAAAAAAAAAAAAAAAAA'
p138
aF0.9175257731958762
aa(lp139
S'Misfolded Aptamer'
p140
aS'GAUCAAAAAUGCGACAAAGUCAGCGAAAGCGGGGGGAGGGCUAAAGGAUC'
p141
aF1.0
aa(lp142
S'Flower power'
p143
aS'AAAAUGAUGGUCCUAUCCGUAGCACGCUCUGUAAGCAUGAUGAAACGUCUAGAUCUAAGAUCGUGCACUGUGAAGAGGUAUUUAAAAAAAAAAAAAAAAAAA'
p144
aF0.8823529411764706
aa(lp145
S'Kudzu'
p146
aS'AAAAAGUCUGUAGUGACCUCGUAUAGGUAUUCACAGCCCUGGGCCAAGGGACAUAAAUGUUUUAUGAAAGUAUCAUCCGAAAAAAAAAAAAAAAAAAAAAA'
p147
aF0.9207920792079208
aa(lp148
S'"1,2,3and4bulges"'
p149
aS'AAAAAAAGGAAUACUAAAGGGGAAAACCAUAGUAAUUUGAUCAUCAAAGGGAGGGGUAAAAGAAAUGAUGUAAAGACAACCAAUCAAAAAAAAAAAAAAAAAAAA'
p150
aF0.9047619047619048
aa(lp151
S'medallion'
p152
aS'GAUAACAAGUAUCGAAAGAUACUUGCAAAAAAGCUGAUAAAAGAUAGGUAUGGAAACAUAUUAGACGAAAGUCAGAUAGUAAAAGCUAUUAGCCUAAUGGCAGAUAAAAGUCAUGCGUAAAAAUGCGCCGGAAAAAACUCCUACAUCAAAAGAUAUAUGACGAAAGUCGAACGAAAGUUAGUUGUCAAAAGACAGCAGGUUAAAGCAGUACACUGAAAGGUGUGUUAGAAAUCAAUGGGAAAGUCCAAAUAACAAAAGUUAUUAUUAAAAAGCUGGAUGUAAAAAUACAUCGGGAAAAAUCCUACAAAAAUGCUGAUUUCAAAAGAGAUCAGUUAUC'
p153
aF0.913946587537092
aa(lp154
S'[RNA] Repetitious Sequences 8/10'
p155
aS'AGCAAAAAAGCAAAAAAGCAAAAAAGCAAAAAAGCAAAAAAGCAAAAAAGCAAAAAAGCAAAAAAGCAAAAAAGCAAAAA'
p156
aF1.0
aa(lp157
S'Documenting repetitious behavior'
p158
aS'AAAAAAAUGGAAAAAAAAGGAAAAAAAAAUCAAAAAAAAAGAAAAAAAAAACUAAAAAAAAAUCAAAAAAAAAGGAAAAAAAAAGUAAAAAAAAGUCAAAAAAAAAUCAAAAAAAAACCGAAAAAAAAGUGAAAAAAAAGCAAAAAAAAACCAAAAAAAAAGCAAAAAAAAACCGAAAAAAAAGAAAAAAAAAAGUGAAAAAAAAACAAAAAAAAAGCAAAAAAAAACCGAAAAAAAAGUAAAAAAAAGGGAAAAAAAAAGCAAAAAAAAAGCAAAAAAAAAGCAAAAAAAAAGGAAAAAAAAAGCAAAAAAAAGGCGAAAAAAAACUAAAAAAAAAGAAAAAAAAAAACAAAAAAAAAUCAAAAAAAAAGAAAAAAAAAAUCAAAAAAAAACUAAAAAA'
p159
aF0.96
aa(lp160
S'7 multiloop'
p161
aS'UUCCGGGGCAAAGGCCCUAAGAUGAAAAUUUUGGUUCUAAUGGGCCCUGUGACAGAAUACACCCGGAAAUGGGUUAUUAGAAAGAAUAGGAA'
p162
aF0.9130434782608695
aa(lp163
S'Kyurem 7'
p164
aS'AAAAUGCGCGUUGAGUAAUUUCAACAAAAACCUGGGAAAAAGUCCUGGUUGUAAAAAGACGAAAAUCGGUUGUUAACAGCUCUAAAAAAAAAAAAAAAAAAA'
p165
aF0.9215686274509803
aa(lp166
S'JF1'
p167
aS'GAGAGUAGAAGAGGUACAGAGUACAAAAGAUAUCAAGAUGCAAAGAUACAAGAUAUCGGAGAUAUUAUAUUCAAAAGAAUAUAAUAUCUCAAGACAAAAGUCAGAGAUAUUCAAAAGAAUAUCUCAAGAUACAAAAGUAUCAGAUAUCAGUAUCAGUAUCAGAUAUCAAUGAGAUAUCAAAAAGAUAAUCUCUAGAGAUAUUAUAUUAUAUUAUAUUCAAAAGAAUAUAAUAUAAUAAUAAUAUCUCAAAGCUACAAAAAAGUAGCGAGAUAUUAUAAAAGUAAUAUCUCGAUGGUGAAAUCAUCUAGUGUUAAGUGCCAGAUCAGACAGACAAAAGUCGUCGAUCAGAGAGUAUCAAAAGAUACAUCUCACUUUAUACAUCUCAAA'
p168
aF1.0
aa(lp169
S'multilooping fun'
p170
aS'GCAGGCGUUAAUAAAUGCAAAUGUACGCAACAGAGC'
p171
aF0.8333333333333334
aa(lp172
S'Multiloop...'
p173
aS'UAAGAUUUCUUAUUAAUGCCAGGAAAAAUCCAAACUAAUGAUGUUCGAAAGGAAGAGAAAAUUUAGACAAAAGUUUGAAAAGAUACAACAAGGUAUCACGAAAGCCCUUUG'
p174
aF0.9459459459459459
aa(lp175
S'hard Y'
p176
aS'AAAAUGAUUCCACAAGUUUCUAAUGAGACUUAGGUGAGAUAUUAUUAAUGUAAUAUUUUGAUAUAAAA'
p177
aF0.9705882352941176
aa(lp178
S'Mat - Elements & Sections'
p179
aS'AAAAAUGUCUGAAAGAGAGGACAGAUCAUUAGUUCUGGUGAGCAAAUCCGCAUGAACGAAGAUCAAAAGGCCUCGCGAGCUGACGAAAAAAAAAAAAAAAAAAAA'
p180
aF0.9619047619047619
aa(lp181
S'Chicken feet'
p182
aS'AAAAAGGUAAUGCAAAGCACCGAAUCAAUGUCUUGCAAGGCAAAAAGGCUAAAGAUAAUUUCUAAAA'
p183
aF0.8805970149253731
aa(lp184
S'Bug 18'
p185
aS'GAUGUUACUAUCGACUUAUCUGUGAAUCAUGGAAGGGAAGAGAGGAAAAGGGA'
p186
aF0.9245283018867925
aa(lp187
S'Fractal star x5'
p188
aS'AAAAAGUGACUGUAGUUGCAAAAGUAAAAGUUCAAAAGAAUGAGACCGAAAGGUCGACGUGGAAACACGAGACGGUCACGAAAAGGGAUAUUAACAUCAAAAGAUGGGAUACGAAAGUGUAUGUUUGAAAGAGCUAAAUCAAAGGAUUAAAAUAUCCCAAAAAGACAAAAUAAAGUCAAAAGACUAAUAGCAAAAGCUGAUGCUCAAAAGAGCUACAUCAAAGGAUGAAGUUUUGUCAAAAAGGGAUAGUUGUAUCAAAAGAUGAGCAUUAAAAGAUGAAGAUCAAAAGAUCAAGAUCAAAAGAUCAUACUAUCCUAAAAAGAAAUAUCGGGAAGAAAACUUCAUGGGCAAAAGCCCUAGGCCAAAAGGUCAGUAUCAAACGAUGAAGAUAUUUCAAAAA'
p189
aF1.0
aa(lp190
S'Crop circle 2'
p191
aS'CUUAAACGAAAAUAAAAAUCAAAAAAAAAGUUAAAAAAAAAAAAAAAAAAAAAAAAAAAAUACAAAAAAAAAAAAAAAGAAAAAAAAAAACGAAAAAAGAAAAUAGAAAA'
p192
aF0.9636363636363636
aa(lp193
S'Branching Loop'
p194
aS'AGAACUGAAAAAAAGGUUUUAAUAAGCCAGUUCCAAAAAA'
p195
aF0.95
aa(lp196
S'Bug 38'
p197
aS'AGGAUCACGAGCCGUAAAUAGGACGGAGCGAAGACA'
p198
aF0.9444444444444444
aa(lp199
S'Simple Single Bond'
p200
aS'AAAAAAGAAAAAAAAUGGUUAAAAGGACUUAAAAAAAGCGAAAAAAAAAAAAAAAAAAAAA'
p201
aF1.0
aa(lp202
S'Taraxacum officinale'
p203
aS'GAGUAAAAAACUCAGAUCGAAAGAAUCAGGGAAAAGUACGCAGACCGAAAGAGUCGUAUGGAAAGAAUAACAAUGAAUAGACCUGAGAUUUGUUCGAGAUAUUAUUUAUAAUAUAUAUCUCAGUAAUAAUGGAUAUUGUAAGAGAUAAGAAUUAUCUCGGCAAUGUCCAGAUCUUAAAUAAAAUCUACGGAUCAUUACAAAGAGCAAAUCUCAGAACGAAAGACUUAAUCCAAAAGCAGCAGAACGAAAGAUUCACCGCAAAAGUCGGAGAGGAAAACCUUC'
p204
aF0.9361702127659575
aa(lp205
S'Headless Bug on Windshield'
p206
aS'AGGAGCAAAAAGAUAAAAAGCAGACAAAAAAAAAAAAAAAAAAAAAAAAAGACUGCAAAUUAAUCAAAGCGCAAUUGGACCCAAAUAAAAAAAUCGAAAGAAAAAAAAACGGCAAAAAACAGAGAGCCAAAAAAGGAGAGGCAAGAGAAGCAGAUAAAAAAAAAAAAAAAGCCAAGCAGCUCCAGCAGUUAAGUAAACCG'
p207
aF0.935
aa(lp208
S'Pokeball'
p209
aS'AAGGUUAUACAAAAGAGAGCAAGACAAGCAACCAAGCAAGUAAGAGGGCAAAGCAUCGAGCGGCAGGAAGCGGUCAGCAUCGUAUGGCAAAAAAAAGUGAAGCAAAAUCGAGGUUGACAGGUAGGCGAGGAAACAGUCGGGCAAAGCAGAAGGUACCAGCAAGCGGUCUCCAGAGUUUCGCAAA'
p210
aF1.0
aa(lp211
S'Variation of a crop circle'
p212
aS'AAAAACAAAGCAAAAAUAAAAAGUAAGCAUGUUAUGCUAACAAAAGGGAAAAAUGAAAAAAAUGAAAAAAAAAUUAAAAAAAAAAAAA'
p213
aF0.9545454545454546
aa(lp214
S'Loop next to a Multiloop'
p215
aS'AAGAUAUUUCAAAAAAUUGGAUAUCGAAAGAUAUCAGAGGUAUGAAAAUACCUCGAUAAAAAGGAGAUAUCAA'
p216
aF0.9726027397260274
aa(lp217
S'Snowflake 4'
p218
aS'GGUCUAGGAUCCUUCCGUUAAUGACAUAGAAGAUAGGUUAAUGGCAUACGGCAAAGAAUCAAGAUAAAAACACGUAUGACGAAAGCUUAUCAAUAUCGGCAAAUGUGGUACUACCAAGGGUAAAGAUAAAAGAUCGUACCUCAAAGGCCGGUGAGGCGAGGGAAAAUCUGUGCUCUCAAAGAGAAAGCCCAAAGGGCGCAUGAGAAAGCUCUCGCAACAUUCGCAAAAGCUAUACUAUCAAAGAUAAAGAACAAAGUUCGUAUAGAAAAGGCGAAUGGACUCAAGUAAAGACGUUACCUACAAAAUUGAAGCUAGAAUACAGUAACGCAAAGCCUUGAGGAUUAUGAAAAAGGCGGAAGGUGAUAUGUAC'
p219
aF0.8540540540540541
aa(lp220
S'Mat - Cuboid'
p221
aS'CAAUGAAAACCAAACAAAAGCAAGCAAAAGAAGCAAGCAAAAGGAAGCAAGGAAAAGAAGCAAGCAAGUAAAAACAAGCAACCAAGGAAAAGGAAGCAAGCAAGCAAGGAAAAGGAAGCAAUCAAGCUAGAAAAAGCAAGCAAGCAAGCAAGGAUGCAAAACCUAGCAAGAAGGCGAGCAAGCAAAAGCAAGCAGGUAAGCAACCAAGGAAAAAACCAAGGAAGUAAACAAGCAAACGCAGGUAAGCAGGCAAGCAUGCGCUAGCAAGCAAGCAAGCGAGCUCAUGCAUACAAGCAAUCCCAAGCAAGCAGGCAAGGGAAAGGAAGUAAGUGAAAGCAAAUAACCCAAGCAACCGCAAGAAACGCAAGCGUAAGCUGAAG'
p222
aF0.8631578947368421
aa(lp223
S'Misfolded Aptamer 6'
p224
aS'AAAAAAGUCAAAAAAGAUCAUCGGGGGAAAAAAAAAAUUCAGAAGUAAAAGGUCGAAAAAAGGCAAAAAAAAAAA'
p225
aF1.0
aa(lp226
S'Snowflake 3'
p227
aS'GGAGCAAAGGCAGAAGAGAAAACUCAAGUUCAUAUCAAAACAAAAGUCGACGGCAAAAGCGCAUAUUGCGCAAAAGCAGUGAACAAAAGUCAAGGUGAUGUGAAUACGAAAGUAGACAGCAAAAUCGACAAGGUCGCAAAAGCAGUUGACAAAAGUCAAUGCAGGACUAAGACAAAAGUCGAAAGCGAAAGCGACGAAGUCGCGAAAGCAUUCGACAAAAGUCAAAGUCAGAUCAACGUAAAAUUCGAGAGCAAAGGCGACAAAGUCGCAAAAGCAUUUGAUGAAACUCAAGAUCAGAUCGAGAAAAAAGUCGACAGCAAAAGAGACAAUGUCCCAAAAGCAGUAGACAAAAGUCAAGAUCGGAGCAAUACAAAAGUAUUCAGCGAAAGCUUC'
p228
aF0.8269720101781171
aa(lp229
S'Hard Y and a bit more'
p230
aS'AAAACGGUAGGGACGUAUGAAAAUACCGCUGUUACUGAAUUUUCUAAUGAAAUUGACACAAAAAAGUGUCUGUCUGUAGCCUAUCUAAAAAAAAAAAAAAAAAAAA'
p231
aF0.9716981132075472
aa(lp232
S'Mat - Lot 2-2 B'
p233
aS'GAAGUCAAAUAUGGGCAAAACGAAGUCUGAAAUGAAAAACUGCGGCAAGCAAAAGUGAGAACAAGGAAGCCUGCGCAAGCAAAAGUUAGUGAAGUCAAAAACUAAUCCGAAGUUAAAAGCAUGCGCGACCGGAAGCAAGCAAAAGGGCAAGAGAUUACAAAAGGAAGAACAAAAGUAAAAUCAGGCACUUUCAAAAUCGAGCGCAAGCAAGCUUGCGCACGCAAAAGUAAGUCCUAGCAAAAUCAAAAGUGCAUACAAAAGUGAACGCAGGCGCGAAUAACAAC'
p234
aF0.795774647887324
aa(lp235
S'Shapes and Energy'
p236
aS'AAAAAAGUCAUCGCUACAAAAGAAGUAGGGCGAAAGAUUUAAAGCGUAGAAGGUAAAAAAAGCAAAAGCUUCCAGAUGUCAAAAAAAAAAAAAAAAAAAAA'
p237
aF1.0
aa(lp238
S"Spiral of 5's"
p239
aS'GGAAAGAUACAAAGCUAGGAAGAUAGAAAAGAUACAAAAAUAGAAAGAUAGAAGAAACAAAAGAUACAAAGAGAUAAAUAUUGAAGAUACAAAAAUAGAAAGAUAGAGGCUACAAAGAUAGAAGAUACAAGAUACAAGAUACAAGAUACAGAUGCAGAGAAAUUAUAAAAAAUAAUUAAAAUUCUCGAAAAGCAUCAAAAAGUAUCAAAAAGUAUCAAAAAGUGUCAAAAAGUAUCAAAAACUAUCAAAAAGUAGCAAAAACUAUCAAAAACUAUUAAAAAGUAUCGAAAACAAUAAAAAAGUCUCGAAAAGUAUCAAAAAGUUUCAAAAACUAUCAAAAGCUAUUAAAAAGUAUCAAAAACUAUCAAAAACUAGCAAAAAGUAUCAAAAACAAAAA'
p240
aF0.9949622166246851
aa(lp241
S'Campfire'
p242
aS'AAAAAAGCGUGAUAUAAGAGCGAGCUUAAAAGGAGCGUUUUGAAACAAAAGAGCUCACGGUCGCCACUAGAUCCGAAAGGAAUCAGCUAACGCCGGAGGAGCGAAAGCCCCCGAUAAGACAAAGGAACGAAUCAGACUUUAGAUACACAUACUCGCGGUGAUGUAGGGCGAAAGUUCGCACACGAGCGAUCGAAGAUAUGACUCAGCGAUAC'
p243
aF0.9433962264150944
aa(lp244
S'Anemone'
p245
aS'AAAGGUAUGAAAGCAUGUCGACGUGAAAACGUCGAUACUAAAGCAUGUCCACGCGAAAAUAAGGGGAGCAAAGGCUCCCGGGGUAAAAGGGGUAAGUUAAAGAACAGCGGAUCGAAAGGUCGGAAAUACAAAGGGAUUCGUAUAGAAAUAUACGUCACAGAAAUGUGACAUAACAAAGGUUAUGGUGCGAAAGCUAGCGACAUGGAAACAUGUC'
p246
aF0.9719626168224299
aa(lp247
S'Fractal 3'
p248
aS'AAAAGGAUUAUCCAGCGAAAUCGCAAAAACAUGGAGGAGGUAAAAGCGGAAAACUAUCGAGUCACUAAAAGAAUAAAAGUUUGAAGAUAAGAAAAUCGUAAAAGCAAUCGGAUCAAAAA'
p249
aF0.8991596638655462
aa(lp250
S'Kyurem 5'
p251
aS'AAAACGUCAAAGGACUAAUGUGGGAAAAAGCCAGGGCAAAGACGAAAAGUUGUUCAAUGAAAAAAUUAUAGCUCCCUUAUUGGUGAAAAAAAAAAAAAAAAAAA'
p252
aF0.9615384615384616
aa(lp253
S'Snowflake Necklace ( or v2.0 )'
p254
aS'AAGGCCUUUUGUUAUAGUUAGAGAAAAAAUCACCAAAAAGGAGCAAAAAGCAGAAAAAAUCAGCAAAAAGCACUAACUAACAAAAACUCUGAUACAGGAAAAACCAGCAAAAAGGACCUAAAUGGAUCAAAAAGAAAUAAAAGGUAUUAUUAUACAAAAAGAGAGAUACAGCGAAAAGCACUAAAAAGGUGCAAAAAGCUGCAAAAGGCAUAAAAAAGCAAUAUCCGAAAAAAAUGAAUAUAUAGCGAAAAGCAGAAAAAAACAGAAAAAAUCAGCAAAAGGCAGAGAAAAUCAAUAUGAUGCAAAAAGUGAUUUCCAGAAAAAAACAGCAAAAAGCUGCGAAAAGCUUCAAAAACGUCAUAAAUGGAGGAUGAAUGAUAAAAGGCCUU'
p255
aF0.9074550128534704
aa(lp256
S'Methaqualone C16H14N2O Structural Representation'
p257
aS'AAAAAAUGAUCAGAUCAGGCAGACAAAAGUCAGCCUUACAAAGGUGUGGCAUAGAAAAUUAGGACAGACAAAAGUCAGGAGAAAAAAUCCAGUCGGCCAGGCAGCCAGAAACAGAUCAGUACAAAGAAGACAAAGCCAUGCAAAAAAAAGUCAGAUAGAUAAAAGGCGACAAAAGUCGACAAAAGCCAUCAUCAAAGAUUGGUAAUGGACUGAGUGACAGACAGUCAAAUGACAAAAAUCUUGCAGAAUAAUGUCAGUCAGACAAAAGUCAGUCUGGUAAAAGUCACUCUGACGAUAAAAAUCGACAAAAGUCAGGCAAAAGCCGUCAGUCAAAUCAAAGUGCAGAUCUAAAAAA'
p258
aF0.9492957746478873
aa(lp259
S"Cat's Toy 2"
p260
aS'AAAGGAGAUAUACAAAGGAAGAAAAAAAAAAAAAAAAAAACAAACAAGUGAAACCAAAAUCGAAAGAAAAAAAAGGGGAAAAAUUUAUAUUUCAAAA'
p261
aF0.979381443298969
aa(lp262
S'Zigzag Semicircle'
p263
aS'AAAAGUGCGUGAAUAAAAAACGUGAUGCGUGAAA'
p264
aF0.9411764705882353
aa(lp265
S'Short String 4'
p266
aS'AAAAAAGCAAGAACGAGAUAAGAACGAGGAAAGGGUAUCGAAUGCCAACCAAAAGGAAGGAAGAAAUACAAAUGGCGAAAAAAAAAAAAAAAAAAAA'
p267
aF0.9381443298969072
aa(lp268
S'Gladius'
p269
aS'CUAAUGAAGGGAUAAAGAAAGAUAAGGAAGACAGGCAAAGAUCAAAAGAUCGCAGACGACUAACAAAGGAACAAGGAUUUAACGGAGAUUUCAGUUAUGAGUGACAGAGCAGACCGAGGUCUAUGAUCGGGUACGCUCGAUCACUAAUAGCGAAGAUCUCAAGGACGGACCAGUUCAAUGGUUUAGAGUUUGAGUCAAAGACGUAUACAGAAGACAGAACAUCAGAAUAUCGGAAGAGAAACAGUAUACAGAUACAGGAUUCAAACAUGUAUCAAAAGAUACAAAGUUGAAAUCACGUAUACGUAUAACGUUUCUCGCAAGAUAACAGGAUGAUGAGUCGCAGGUAUAAGCUCAAAGGAGCAAAGUCAGUCAAACAGACCAAUAAAUUGAGAGAUAAAAG'
p270
aF0.9
aa(lp271
S'Thunderbolt'
p272
aS'GAAUGAUACAAAAAAAAGAGCAGGCAUAGGAGGGAAACGCAUACAGCUAAAAAAAAUUAAAAAACUUCGAAAAGAAGAAAAAAGGGAACCAAGUAAAAAAAGAAAAAAAAAUAACAACCAUUUAAAAAGGAAACAGGCUAAAAAGACAAAAAGAAGCACAAAGAGCAACAAAAAGUAAGAGCGGAGUAAAAAUUAAAGUCAAAGGAUAAAUAAAAAUCAGGGCUCAAAAAAAAGACAAGGGGGACACCGAAGAUAUCAAAUGGCGGAAAAAAAAAGUAAGCGAAAAAAAAUCACUAAAAGAACAUCGAAAGGAAAAAAAACAAAAAGCUGUUAACAACAAUGCGGUUUGAAAAAAAAGAGCAAGCAUAAAAAGAAAAAAACAGUAUCUAUCA'
p273
aF0.951530612244898
aa(lp274
S'Mutated chicken feet'
p275
aS'GAAAAAAGGAAGGAAGAAGUAAGGAACUAAAGCUCAGCACAGUCUGUGAAACAAAGCAAAUUGGGUCAAUAGGAAAUCAGUAAGGCAAAGUGCAAAAAAA'
p276
aF0.84
aa(lp277
S'Chicken Tracks'
p278
aS'AAAAAAAAGAGAUACGAGCAAAAGCUCAAGAUCGAAAGAUCAAGAUCAAAAGAUCGUAUCUCAAGCCGCAUGAAAUGCAGGAACAAAGUUCAAGACCAAAGGUCGGCAAAAAAAAA'
p279
aF1.0
aa(lp280
S'Looking Back Again'
p281
aS'ACCGAUGCUAAGAAAAAGAUCUCAAAGAGAUCACUUAAGGACGACAAGGCAAAGUCGUCGGACAAAAGGAUCAAAAGAUCAAAAGUGUCAAGUUUAGUGAAGAACGACUAAAGGGUCCAAAAGGAUCAAAAAUGUCAACAGGAGACAAAGUCUCGGUACAAAGUAUCGAGUUCCGUAGUGGAAGAAAAAGAGGACAAAAAUGUCAAUAUAGUCAUCUGGGGCAAAGGCCAAGAGCUCAAAUUAUUGUUUGCAUAUAGAUGAAAAAAGUGAUAGGAAACAAAUCUCAAAAAGGGGCUGUAAACGCGCAUCAUGUAAAAAAGCGUUAUCAAAAGAUAGCAAGAAUCAAAGCAGAUAUAAAAUAUCAAUUCGCAAAGACAUGUGUGAAAGGU'
p282
aF0.8740359897172236
aa(lp283
S'Multilooping 6'
p284
aS'AGAACACCGGGCUGAAAUGUUGUCGGUGCGAAAGCACUGCGACAAUCACAAAGGUAAAUAGGUAAAGAUCUAGGCGUGUUAA'
p285
aF0.926829268292683
aa(lp286
S'Cesspool'
p287
aS'GAAGAAGAAAACAAGUAAAGAGAGACAAAGUCAACAACAAGGCAAGAACUAAUCAACUGUAGAAAAGAUCUGAGAGAAAACAACAACAUGAAGAAGGAAAUAAUCCAAGCGAGAGAAAUUUAACAUCAAUGGAAGGAGAAAACAAUAGAAGAAAACAACAGACUGAAACCUGCAACUAGCGAGAAGAAAAUAAGCCAAGACAGCCAAAUUCGAGAGUAAGGCAGCAACAAAAGAAGAGAAUAAAAAAACAGAGGGAAAACACCAAGCGAGCAAGAAGUAAUCAAGAUAAGAGGAUAAAAUACAACAACAAGUCAAGAAGAAAACAACAGAAGAAAGCAACAGACUGAAAAUACCAAGC'
p288
aF0.7346368715083799
aa(lp289
S'Hoglafractal'
p290
aS'AAGAGCAAGAUUCAAAAGAUACAAAAAAGUAUCGGAUCUAACAAAAGCCAAAAAGGUUGGUAGACAAGCAAAAAUGCGUCAGCUAAAGUGUAAAUACCAAAAAAGAUGGUGCGACAAGACAAAAAGUCCUCCCAGCAAAAGCGGAGUUCAAAACACAAGACAAAAAAGUCGAGGCAUCAAAAAAAGUGGCAACAGUCAGAUACAAAAAUUAACAAAAAAGUGGUACAAAAAGUAGAAAAGGCAGAUGUCAAAAACGGCAAAAGAGCCUAAGAAAUGGAAGAGAUCAUAUUGAUCUCAAAAAAAGACAUCAAAAAAGUAUCAAAAAGAUCAAAAAGCAAGUCAACGAAGAGCAUAGCUAAAGCAAAAGCACAAAAGCGAUCUCGAAGAGAUCUGCUAGCAC'
p291
aF0.895
aa(lp292
S'Bullseye'
p293
aS'AAAUAGUAUCAAAGUUCAGAAGCGAAGUUUAAUACGAAGGGUACUGGAAAAAAUCCCAAUAAAAUAUUAACUUAGAAGAGACAGUGUAACUAGUGGGUAAAAAAAGACCAACGAGCUUGAACACAAAAUGUGGAAACUGAAGAGGGUCACAAAAAAGGGAGGCGGAGAGUAGUUACAAGGUAGAAGCUUAAGGGUCCUCAAA'
p294
aF0.8316831683168316
aa(lp295
S'Shooting Star'
p296
aS'GGUGGUGAAGGAGAUACUAAGAGGUGCAGACAGAGAGCAAAGCACUUACGUCAGAGUACCGGGUAUCUCAGAUUGAGCAGGAGAAGACAGAUACAGCGAGAUCAGCAAAGGACGAUACCGCGAUGUACGUCAUAGAACGAACGGAAACAAAAUCGAUAGAUAUGAAACAUCAAAUACGAAGUAUUGAAUAAUUACAUAUCCCUUCACAACCGAACAAUGAGAUGCAAAGUAUCUCUGAUACAAAGUGUCGAUCGAGUGCCAAAGGCACUCAGAUACAAGGUAUCAAUCACAUAAGGAAACGAAGCAGAGUAGAGACAGAUCAGCAAAAGCCGAUACGUCACAACAACAUAACAUGUAGUUCCAA'
p297
aF0.7692307692307693
aa(lp298
S'Teslagon'
p299
aS'AAAAAGCCAAAAAAAGUAACAAAAGAAGGAACAAAAAAAAAAAAAAAGUUCAGAGUAUGCAAAAAAAAAAAAAAAGCGUCAAAAAAAGUAGCAAAAAAAGUAAAAAAAAAAAAAAAGUAAAAAAAGCAGCAAAAAAAGCAGCAAAAAAAAAAAAAAACCAAAGAGUGUGAAAAAAAAAAAAAAAGGCAGCAAAAAAAGCAGUGAAAAAAAGAAAAAAAAAAAAAAAUCAAAAAAAGCACCAAAAAAGAUGCAAAAAAAAAAAAAAAAGGAAAGAGUUUUCAAAAAAAAAAAAAAAGAAACAAAAAAAGCGCCAAAAAAAGCAAAAAAAAAAAACCAAAAAAAAAAAAAAAGGAGCAAAAAAAGUAACAAAAAAAGUAGAAAA'
p300
aF0.8848167539267016
aa.