(lp0
(lp1
S'Simple Hairpin'
p2
aS'GAUAGAAAAAACUAUC'
p3
aF1.0
aa(lp4
S'Arabidopsis Thaliana 6 RNA - Difficulty Level 0'
p5
aS'GAUAUAGAAAAGAGAAAAAAAAAAACUCGAUAUAUCAAGAUAUAUAUAUAGAUAUAGAAAGAUAGAAAAAACUAUCACUAUAUACUAUAUAUAUAUCAAGAUAUAUCAACUAUAUC'
p6
aF1.0
aa(lp7
S'Prion Pseudoknot - Difficulty Level 0'
p8
aS'GAGAUCAGAUCAAAAGAUCGAUACUCAAAAAAAAAA'
p9
aF1.0
aa(lp10
S'Human Integrated Adenovirus - Difficulty Level 0'
p11
aS'GAUAAGUAUAUACCGGAUACCGAAAAAAAAAGCAGCCUAUACCCAAAAAGCGAUAUCAAAAGACAUAUAUAUAGUAAAAAAUCUAUAUAUAUCAAAGUCGAUAUAAAACGCGGGAAAAUAUAGAAAGAUAUCUAAAAAUGAUAUCGCUGAAAAAAAAAAAAGGUAUCAGGUAAAAAUAUAUUAACUAUCAAA'
p12
aF1.0
aa(lp13
S'The Gammaretrovirus Signal - Difficulty Level 0'
p14
aS'AGGUGGAGAUAUCAAAAGAUAUCAACUCAAAAAAGAUCAAGAGAGAUCCUAUCAAAAGAUAGAAAAGAUCCUCGAUCAAGAUAUAUCAAAAGAUAUAUCAA'
p15
aF1.0
aa(lp16
S'Saccharomyces Cerevisiae - Difficulty Level 0'
p17
aS'GAGAUAGCGACUAAAAAAUGUCGGUGUAAAAAAAAAAAAAUCGAAAAGAUAAUAAAAAUUUAUCCUAUUUCAAAAUGUUCAGAGGUGCAAAAAAAAGCACGCGUAAAAAAAAAAAUCGCAAACGAUAGAAAAAAACUAUCCUGGAUGAAAAGUAUUAGAAGUGUAAAAAAAGACGCGAUAUCGAAAAAAGAUAUUAAAAGGUAGAAAAAAGUUACCCUAAUGCGAAAGAAGUAGAAUAUCGAAAAAAAGAUGGUUGUCAAAAAAAGAUAGCAAAAGAUAGUAAAAAUCUAUCCUACUUCGAAUGUUAUAGAAGCUUGAAAAAAAGAGCGAUAUCAAAAAAGGAUAUCAAAAGAUAAGAAAAAAUUGUCCUAUAACUAAA'
p18
aF0.9894459102902374
aa(lp19
S'Fractal 2'
p20
aS'AAAAUGAUAUUUCAAAGGUAUAUUACGAGACGAAAAAAAAAGCGUCGAGAUCAAAAAAAAAAGAUCGGGUUCAAAAAAAAAAGAGCAAGUGAUGUACCAAAGAUAUAUAUCUAGAUCGAAAAAAAAAGAUCAAAAGCAAAAAAAAAAGCUUAUGCUCAAAAAAAAAGGAGUUUGAUAUAUAUCAAUGAGAUUGAUCGAGCGCAAAAAAAAAGGUGUAAAUGCAAAAAAAAAAGCAUAACUACAAAAUACAAAGUAGGAGAUCGAUCUCUAAGAAAUAUCUAAAA'
p21
aF1.0
aa(lp22
S'G-C Placement'
p23
aS'GAUCAAAGAUCA'
p24
aF1.0
aa(lp25
S'The Sun'
p26
aS'GACAGAGACACGAAGUGUAACUCGUCAAAGAGAGAGCGCGAAACGCGAACUCCUCGAAGGGAGCGCUCGAAACGAGAACACGUCGAAUCUAGUGUUUGUAUCUUAAACGCCGGGAACAUAAUGAUAGAAACUAUGAGCGCUGCAGCAGACGCGAGGAAACCUCAAGCGCUGAAAGUUAGAUUCUGAAACGGAAAAUCCACGAAGCGAAAGACUGAAACAGUAACUUCGCGAAGAGAUAGCUAGAAGCUAGAAUUCCUA'
p27
aF0.9457364341085271
aa(lp28
S'Frog Foot'
p29
aS'AAAAAAAAAAUGUCUAAUGAUAACCGGAAACGGUCGGGAAGCCCG'
p30
aF1.0
aa(lp31
S'InfoRNA test 16'
p32
aS'GAUAUCGCAGAUAUCAAAAGAUAUACUAGAGAUAUC'
p33
aF1.0
aa(lp34
S'Mat - Martian 2'
p35
aS'CGACAAAAGUUGAAAGAUAUAGAAGAUAUAGAAAAAAACUAUAUCCUAUAUCAAAGAUAUAUCAAAAAAGAUAUAGAGAUAUAGAAAAAAACUAUAUCCUAUAUCAAAGAUAUAGAUAUAUCAAAAAAAGAUAUAUACUAUAUCAAAAAAGAUAUAUCAAAGAUAUAGAUAUAUCAAAAAAAGAUAUAUAACUAUAUCAAAGAUCAAAAGAUC'
p36
aF1.0
aa(lp37
S'square'
p38
aS'GAUAUAGCUAUAGCUAUAUCCUAUAGAAACUAUAGAAAAGAUAUAGAAAACUAUAGAAAACUAUAUC'
p39
aF1.0
aa(lp40
S'Six legd turtle 2'
p41
aS'AAAAAGUGAAUCAAAGCGAAACCAAAACAAAACAAAAAUAGAAUCAAAGACAAGCUUAAUACAAAGAAAAGACAAAACAAAAAAAAAAAAAAAAAAAA'
p42
aF0.9591836734693877
aa(lp43
S'Small and Easy 6'
p44
aS'UCGGCUAAAUGUAAACUUAAAAAAUGUGGA'
p45
aF0.9333333333333333
aa(lp46
S'Fractile'
p47
aS'AAAAAAAAAAAAUCUAAUCGAAUGGGAACGGAAAUCAUGCGAAGCAAAGGUGAAGUUAGCAAAACUAAAUUUAACGAAAGCAAAAAAAAAAAAAAAAAAAAAAAA'
p48
aF0.9619047619047619
aa(lp49
S'Six legd Turtle'
p50
aS'AAAAACGAAAGGAAAAGUCAAAAUAGAAAUGAAAGGAAAAAGCAAAAGCAAAGGCAAAACGAAAAUGAAAGACGAAAGGAAAACGGAAAAAAAAAAAAAAAAAAA'
p51
aF0.9619047619047619
aa(lp52
S'snoRNA SNORD64'
p53
aS'GAUAUCAAAAAGAGAAAAGAGAAAGAUAGAAAAAAAAAAAAACUAUCAAAACUCAACUCAAGAUAUC'
p54
aF1.0
aa(lp55
S'Chalk Outline'
p56
aS'AAAAAGAUCAGAGAGAAAACUACUCAGAGAGAGAAAACUCCUCAGAUACCAAAAGGAUAUCAGGAUCAAAAGAUACCGAUCAAAAAAAAAAAAAAAAAAAAAAA'
p57
aF1.0
aa(lp58
S'InfoRNA bulge test 9'
p59
aS'GAUAUAGAGAGAGAGAUAUAGAAAACUAUAUCCCCCUAUAUC'
p60
aF1.0
aa(lp61
S'Tilted Russian Cross'
p62
aS'AAAAAGAGCGCUCAAAAGAGCGGACAAGUCGAAAGACUAAUCGAAAACGAUUAGAUCAAAGGAUCGUCCGAUGGAAACAUCGCUCAAAAAAAAAAAAAAAAAAAA'
p63
aF1.0
aa(lp64
S'This is ACTUALLY Small And Easy 6'
p65
aS'AAAAAAAAAAAAAAAAAAAAAAAAAAAAAAAAAAAAAAAAAAAAAAAAAAAAAAAAAAAAAAAAAAAAAAAAAAAAAAAAAAAAAAAAAAAAAAAAAAAAAAAAAAAAAAAAAAAAAAAAAAAAAAAAAAAAAAAAAAAAAAAAAAAAAAAAAAAAAAAAAAAAAAAAAAAAAAAAAAAAAAAAAAAAAAAAAAAAAAAAAAAAAAAAAAAAAAAAAAAAAAAAAAAAAAAAAAAAAAAAAAAAAAAAAAAAAAAAAAAAAAAAAAAAAAAAAAAAAAAAAAAAAAAAAAAAAAAAAAAAAAAAAAAAAAAAAAAAAAAAAAAAAAAAAAAAAAAAAAAAAAAAAAAAAAAAAAAAAAAAAAAAAAAAAAAAAAAAAAAAAAAAAAAAAAAAAAAAAAAA'
p66
aF1.0
aa(lp67
S'Shortie 4'
p68
aS'GCAAAAGCAGCGAAAGC'
p69
aF1.0
aa(lp70
S'Shape Test'
p71
aS'AAAAAGAGAUCAAGAUAGAAAAAAAACUAUCAAGAGAGAGAGAUAGAAAAACUAUCAGAUCAAAAGAUCACUCCUCAAGAUCGCAAAAAAAAAAAAAAAAAAAA'
p72
aF1.0
aa(lp73
S'The Minitsry'
p74
aS'GGGAAAAAGAGAAAAAGAGAAAAAGAGAAAAAGAUAAAAAAAAAUCGCUCACUCGCUCACCC'
p75
aF1.0
aa(lp76
S'stickshift'
p77
aS'AAGAUAUCCGAAAAACGAGAUAUCAA'
p78
aF1.0
aa(lp79
S'U'
p80
aS'AAAAAGAUAGAGAGAGCAGAGAUAUAUAGAAAACUAUAUAUCCGCCCCUAUCAAAAA'
p81
aF1.0
aa(lp82
S'Still Life (Sunflower In A Vase)'
p83
aS'AAGGAGCAAGUUAUGAAAAGUAACAAGGUACUAUGUACCGAGGCAGUAAAUCUGUCAACAAGCAAAUUGUCCUGCGCUAAAAAAGCGCUGGCUACAAAAGGUAAAGAAGGUGUUUACACAUACACAUAGCUGUCUAAAAUGAUAGAGAUGAUAAAAAAAAAAAGGAGCAAAAAAAAAAAAAAAAAAAAAAAAAAAAAAAAAAAAAAAAGGCUCAAAAAAAAAAAAUUUAUCGGUAUAAAAAUACCACUAUGUGUAUGUGUAAAUAUCUUAAGUUAGAAAAACUAACAUGGUCGAAAAAUGAUCUUGAAUGGAAAACAUUCUAGUAUUUAAAAAAUGCAGGGUAGGAAACUAUCAACAGAUAAAAAAUCUGGGCUCAAA'
p84
aF0.9947089947089947
aa(lp85
S'Quasispecies 2-2 Loop Challenge'
p86
aS'AAAAAGAUCGCCCAAGAUCGAAAGAUCGAGGGCAGGUAAGCAAAGAGUACCAGAUUGGGAAGUGAAAAACGCAGCAAAAUCGAUCAAAAAAAAAAAAAAAAAAAA'
p87
aF1.0
aa(lp88
S'Corner bulge training'
p89
aS'AGAUAUCCUAUCAAAGAUAGAAAAGAUAUCA'
p90
aF1.0
aa(lp91
S'Spiral'
p92
aS'AAAAAGAUCAGAUAUCAGAGAGAUAGAGAUCAGAUCAGCAGCAGCAGCAGCAGCAAAAAGCGCGCGCGCGCGAUCGAUCCUAUCCUCGAUAUCGAUCAAAAA'
p93
aF1.0
aa(lp94
S'InfoRNA bulge test'
p95
aS'AAAAAAAAAAAAAAAAAAAAAAAAAAAAAGGAGAAAAAAGGAGAAAAGGAGAAAGGAGAAGGAGAGGAGAAAAACUACCACUACCAACUACCAAACUACCAAAAACUACCAAAAAACUACCA'
p96
aF1.0
aa(lp97
S'Worm 1'
p98
aS'AAAAAAAAACGGAGGUACAGAGAAAAAAUUCUAUAGCACAGAGAU'
p99
aF0.8666666666666667
aa(lp100
S'just down to 1 bulge'
p101
aS'AAAAACGCGAUUAUCAAAAGGUAGAUAGAAAACUAACGACGAAAGGAUCGCUCGAAAGAGAGACAAAAGUCAGAUCAAAAAAAAAAAAAAAAAAAA'
p102
aF1.0
aa(lp103
S'Iron Cross'
p104
aS'AGAGAGGGAAGGGCAUUCAAAGGGGUAGAAAACUGAGCCAAAGAGGUUCAAAGGAAACGCAAAGCGACUCAAAGAGACCAAAACGAGAGUGGAAUACGCUCAAACUCACUGAAAUAGGCUCGA'
p105
aF0.8861788617886179
aa(lp106
S'loops and stems'
p107
aS'AAAAAGAUAUAGAAAGAUCAAAGAUCAAAGAGCAAAAAAAAGGAUAGAAAAAAAAAAAACUAUCAAAGUUCAAAAGAUCAAAAAAAAAAGAUCAAAGAUCAAAGAGAAAAAAAACUCAAAGAUCAAGCAAAAAAGCAAACUAUAUCAAAAA'
p108
aF1.0
aa(lp109
S'Water Strider'
p110
aS'AAAAAGCAGUGUUACGAAGAAGAAAUAAGUUAAAGGACGCCAAAAAAGUCGUUAAUACGAGAGAAAUUUAGAGUGUAAGGGAAAAAAAAAAAAAAAAAAAAAA'
p111
aF0.941747572815534
aa(lp112
S'The Turtle(s) Move(s)'
p113
aS'AAGGCGAAUGCAAAAAAUGUAUAGAAAAAAAAGCUAUAUAUUAAAUGAUUGAAAAAAUCUAAAACAGAAAACUGAAAGAUAGAAAAAAGCUAUCAAAAGAGAAAGUGAAAACAAAAAGAAGAAAUUCAAAAGGUAGGUAAAAAUUUUAUCAAAAGAUUAAUAUCAAAAAGAUAUGAAAUGCUAAAAAAAAGCUAGAGAAAAAAAACUCGAAGAUAGAAAAAACUAUCAAAGAUCAAAAGGAUCGACAUAUCAAAAAAAAGACAAAAGGAAAAAUGAAAAUGAAAAAAGUUUGAAAAAAAAAACGAACGAAAAACUC'
p114
aF0.9746835443037974
aa(lp115
S'Adenine'
p116
aS'GAUAGAGAUAUCAGAUAUCAGAGAUCAGAUAUCAGAUAUCAAAAGAUAUCAAAAAAGAUAUCAGAUAUCAGAUAGAAAGAUAUAGAAACUAUAUCCUAUCAGAUAUCAGAUAGAUAUAUCAAAGAUAUAUAAACUAUCAGAUCUCAAAAGAUAUCAAAAGAUAUCAAAACUAUC'
p117
aF1.0
aa(lp118
S'Tripod5'
p119
aS'AAUCAGGAGUCAAAUGCUUGGUUGCUAAGGCCCUGAGA'
p120
aF0.9473684210526315
aa(lp121
S'Shortie 6'
p122
aS'GCAAAAGCAGCAAAAGCAUCGAAAGGAACGAAAGU'
p123
aF1.0
aa(lp124
S'Runner'
p125
aS'AAAAAGCCCUGUUGAAAAGUAAGAAACUUAAUAAUAAAGAGAAAGGUCGAAAGUGCAACCUCGCAGAGAACCCAAUGGAACUCAAAGACAAAGAAGAAAAUCACUCGGAGCGAAAA'
p126
aF0.9310344827586207
aa(lp127
S'Recoil'
p128
aS'AAAAAGAUAGAAGCAAGCAAGAGAAGAGAAGCAAGCAAAGCAGCACUCACUCAGCAGCACUAUCAAAAAAAAAAAAAAAAAAAAA'
p129
aF1.0
aa(lp130
S'[CloudBeta] An Arm and a Leg 1.0'
p131
aS'AAAAAGAGAGAGAGAAAACUACUCGAGAGCAAAAGCCUCACUCAAAAAAAAAAAAAAAAAAAA'
p132
aF1.0
aa(lp133
S'[CloudBeta] 5 Adjacent Stack Multi-Branch Loop'
p134
aS'GAUGUGUGGUAAUCCACCUAGCGAAAGCUAGCAUUCGAAAGAGUGUAGCGAAAGUUAAUAUCA'
p135
aF1.0
aa(lp136
S'Triple Y'
p137
aS'AAAAGAUGAGAACUGAGUAAUUUUGGGUGAAACUAUCCUACUACACAGUGAAAUUAGUUGAUAAUCUAGGGUGGUGUAAAAAAAAAAAAAAAAAAAA'
p138
aF0.9072164948453608
aa(lp139
S'Misfolded Aptamer'
p140
aS'GAUAAAAAAAGCGAGAAACUCAGCGAAAGCAAAAAAAAAGCGAAAAUAUC'
p141
aF1.0
aa(lp142
S'Flower power'
p143
aS'AAAAAGAGCGAGCUAUGCCGAGAUAAAGCGAAUAUCAUGCUUAAGAAUCAAGAACAAAGGUUUAGAAUUGAAAAGUAAGUUCGAAAAAAAAAAAAAAAAAAA'
p144
aF0.9215686274509803
aa(lp145
S'Kudzu'
p146
aS'AAAAAGGCAGUAGUCGGUCAUGAUAGCAAAGCGGGCGGGUUAGUAUGUGAACUAGAAGGUAAAAUCAAACAGUCGGCGGUCAAAAAAAAAAAAAAAAAAAA'
p147
aF0.9405940594059405
aa(lp148
S'"1,2,3and4bulges"'
p149
aS'AAAAAGCGGGGAAUGGCAAUUAAAAUCGAGAUAAAAGUAACCAGCGUAAUACCACACUAAUGAAAAGGGAUGAAAGUCUGGACUGAAAAAAAAAAAAAAAAAAAA'
p150
aF0.9238095238095239
aa(lp151
S'medallion'
p152
aS'GAUAUCAUCUGUGAAAGUAUAGAAUAGUAAUAUAAUUCAAAACGAAUAUUUCGAAAGAAAUAAUGCGAAAUUAACACAUCAAAAGAUGUGAUGGAAAACUAAUAGAAAAUCAAUAUAUCAAAAGAUAUAGGAUAUAAGUUAACCAGAAAAGUUUGGAGUUGAAACAAAAUUUAAAGAAAAUAAAUCGAAAGAUUUAAGACCAAAGUAAACUUCUAAAAAGGAGUAUAGAAAGCUAAAAAAUAAUUAAUUUUUGAAAAGAGAAAUUACGAAAGUGCCUUAUCUAAUGAUGCGCUAGAAAACUAACAGAAAGCUGAUAGAUCAAAAGAUCUAGGGUAUC'
p153
aF0.8724035608308606
aa(lp154
S'[RNA] Repetitious Sequences 8/10'
p155
aS'AGGAAAAAAGCAAAAAAGCAAAAAAGCAAAAAAGCAAAAAAGCAAAAAAGCAAAAAAGCAAAAAAGCAAAAAACCAAAAA'
p156
aF1.0
aa(lp157
S'Documenting repetitious behavior'
p158
aS'AAAAAAAGAAAAAAAAAAGUAAAAAAAAAGUAAAAAAAAAACAAAAAAAAACCAAAAAAAAAUCGAAAAAAAACCAAAAAAAAAGCAAAAAAAAAGCAAAAAAAAACGAAAAAAAAAGCAAAAAAAAAGCGAAAAAAAACCAAAAAAAAAACAAAAAAAAAACAAAAAAAAAACAAAAAAAAAGCGAAAAAAAUGCAAAAAAAAAGCUAAAAAAAAGCAAAAAAAAAGAGAAAAAAAAGUAAAAAAAAAGUAAAAAAAAAGGAAAAAAAAAGCAAAAAAAAAGCAAAAAAAAACGAAAAAAAAAAUAAAAAAAAAGCAAAAAAAAAGGAAAAAAAAAGAAAAAAAAAAGUAAAAAAAAAGUAAAAAAAAAACAAAAAAAAAACAAAAAAAAAUCAAAAAA'
p159
aF0.96
aa(lp160
S'7 multiloop'
p161
aS'CCAUUCACUUAAUGGUGGGCUAGAAAGUUGACGUGAUUAAUAUUGUUGUAUUAAAAUGUGGUUGGAAAGCCAGCUGGGGAAAGCUCCGUGUG'
p162
aF0.8586956521739131
aa(lp163
S'Kyurem 7'
p164
aS'AAAAAGUGACUGUACAAAGGUGAGGUAAAGUGGUAAAGAAAAUUCUUUCUCCGAAAAAGAACAUGAGGGGCCCUCAGAUCGCGAAAAAAAAAAAAAAAAAAA'
p165
aF0.9803921568627451
aa(lp166
S'JF1'
p167
aS'GAUAGAGAUAGAGAUAGAAGAUAGAAAAGAUAUCAAGAUAGAAAGAUAGAAGAUAUCAGAUAUAUAUAUAUCAAAAGAUAUAUAUAUAUCAAGAGAAAACUCAGAUAUAUAGAAAACUAUAUAUCAAGAUAGAAAACUAUCAGAUAUCACUAUCACUAUCAGAUAUCAAAGAUAGACCAAAAAGGUACUAUCAAGAUAUAUAUAAAUAUAUAUAUAUCAAAAGAUAUAUAUAUAUUAUAUAUAUAUCAAAGAUAGAAAAAACUAUCGAUAUAUAUCAAAAGAUAUAUAUCAAAGAUCAAAAGAUCAACUAUCAACUAUCAGAUCAGAGAGAGAAAACUCCUCGAUCAGAUAAAUAGAAAACUAUUAUAUCACUAUACUCAUAUCAAA'
p168
aF1.0
aa(lp169
S'multilooping fun'
p170
aS'AUAAAAUGCGAAAGGGGUGAGAAUGUUCAAGGGAAU'
p171
aF0.7777777777777778
aa(lp172
S'Multiloop...'
p173
aS'UUACAGAACAGACGAAAGUCAGCGAAAACGCGAGAAAAUCUAAUACUAAUGUAACCGUAAACGGAGUAAAAGUGAAGUUCGUGUAUAAAAAAGUACGGAGGAAAUUCGUAC'
p174
aF0.9459459459459459
aa(lp175
S'hard Y'
p176
aS'AAAAAGAUACAAUGCAUAUCUAAUGAUAUGCGGUCUAUAGCUAUCAAAGGAUAGUUGUAUAUCGAAAA'
p177
aF0.9705882352941176
aa(lp178
S'Mat - Elements & Sections'
p179
aS'AAAAGCAUGUUAAUUAUAAGGGGUGUCAGGAUCGCAGCGGAUAAAGGUCAGACGCGACACGACGAAAAAAUUUAGAUAGGUCAUGAAAAAAAAAAAAAAAAAAAA'
p180
aF0.9619047619047619
aa(lp181
S'Chicken feet'
p182
aS'AAAAAUAAGUGGGGAAUAACUAAACGAAAGACGAUGGGGAAGAAAUUGGCAAACCAAAUAGAAAAAA'
p183
aF0.8507462686567164
aa(lp184
S'Bug 18'
p185
aS'AGGAACGUGUCGUAGUAAGCAACAAGAUAAUUAGCUCCAUUAUGGUGAAACCG'
p186
aF0.9245283018867925
aa(lp187
S'Fractal star x5'
p188
aS'AAAAACGGAUAUCGAUGUUCAAAAACAGAGCUUGAAAAAGCAGGAUUUAAUGAUCAAGAACAAAGGUUCAAGAUAUUCGAAAAAUGUAUGUGAAGAUUAAAAAAUCAAGGUCUAAUGACCAAGAUGAAAACGUCAAUAUGGAAACAUGGACACAUACAAAAAAGAUAGAUAGAGUUCAAAAGAGCAAGAUCAAAAGAUCAAGAUGUAAUCAUUAUCCACAAAGGUGGUAUAUUUAUCAAAAGGAUUUAUGAAGUGCAAAGGCACAAGAACAAAAGUUCAACCUCAAAGGAGGAAUGACAAAAGUCGAGCAUAAAUCAAAAGAUUAAAUGAACACGAAAACGUGGAGAAUGAAAAUUUAAGAUCAAAAGAUUAAAUUCAAAAGAGUGACAUUUGAUAAAAA'
p189
aF1.0
aa(lp190
S'Crop circle 2'
p191
aS'GGAAAGUUAAGAGUAAAAACGAAAAAAAAGUCAAAAAAAAAAAAAAAAAAAAAAAAAAAAUUCAAAAAAAAAAAAAAACCGAAAAAAAUUAAAAAAAUGAAAAACUAAAA'
p192
aF0.9636363636363636
aa(lp193
S'Branching Loop'
p194
aS'AGACUGGAAAAAAACGUUCGAAAGAACAGAGUCAAAAAAA'
p195
aF1.0
aa(lp196
S'Bug 38'
p197
aS'GCUUAAGCGGUGGUAAAAUUUCACGGAGUUAAGACA'
p198
aF0.9444444444444444
aa(lp199
S'Simple Single Bond'
p200
aS'AAAAAAGGAAAAAAAUGCUUAAAAGAAGUUAAAAAAAACGAAAAAAAAAAAAAAAAAAAAA'
p201
aF1.0
aa(lp202
S'Taraxacum officinale'
p203
aS'GAUAAAAAGGGUCAGAUCAAAAGACAUAGAACAAAAGGCUCAGAGCUAAUGACUAGCAACAAAACACUUUGCGCAAAAGAGCCUGAUAUAUAGGGCUAUAUAUAUGGAACAUAUUAUAUAGAGAUAGAACUGUAUAGAGUGGAUAUAGAAGUUAUAUCUCUCUAUACAGCUAGAGCUAUCAAGGAUAGCCUAGCUAUCAAACCUUAUAUAUCAGAGCUAAUGACUCACACAGAAAUAGCCAGAAUAAAGGUCUCGGUGGAAAAGACUCAGUGCAAAAGACAC'
p204
aF0.9148936170212766
aa(lp205
S'Headless Bug on Windshield'
p206
aS'AGCUACAAAAAGGAUCAAGGGAGAUAAAAAAAAAAAAAAAAAAAAAAAAAGUAGUCAAAGAUACCAAAGUUGCGGUAAAUAGAAACAAAAAAAGUGAAAGCAAAAAAAGCUUAAAAAAACACAGACCCAAAAAAACAGAAUCAAGAGAAACAAAGAAAAAAAAAAAAAAACUUAGGCAACCCAAGGAUUGAGGGAACCUA'
p207
aF0.99
aa(lp208
S'Pokeball'
p209
aS'AAAUAAAUAUAAAAGCAAACGAGUGAAGGAAGUGAGGUUACGGGUAAAUAAAGAAACAACCUUAGAAGACCGCGCAGAGGCAUAUUUGAAAAAAAUGAUUAAGAAAAGCAAUCUAAAAAGCCUUCAAAGCAAGCAAGCAAGAUAUGAGGCAAGCGGCAUGUUCGAUUUUGGAGCCUUAAUCUAA'
p210
aF0.9456521739130435
aa(lp211
S'Variation of a crop circle'
p212
aS'AAAAACAAAAGUAAAAGAAAAGCCGAGAAAGAAAACCAAUUGUAUCCAAAAAAACGAAAAAAGAGGAAAAAAACCAAAAAAAAAAAAA'
p213
aF0.9545454545454546
aa(lp214
S'Loop next to a Multiloop'
p215
aS'AAGCAUUAUCGAAAAAAUAGAUAUCAAAAGAUAUCGGACAUAGGAAACUAUGUCAGGAAAAAAGAUAGUGCAA'
p216
aF0.9726027397260274
aa(lp217
S'Snowflake 4'
p218
aS'GACCAAAGGUCAUAGAUGAAAACCCUAUCAAGAAAGGGGAAACAGACAAUUAGUAUCUAAAAGGUCUAUGAUCGUGUCGCAAAGGCCUUACAAGAUGGCGAAAGCGAAUAGGUUGAAACUAUAAUAUUAAAGAUCCCAUCGCAAAAGCCCAUCAGGAUAGGGGAAACUCAUAUCUAGAAUAUAGAACAACAAAGAUCGUAGCGCAAACGGCUAGCAAGCGGGCGUAAUCGGUUAGCUAGUAUCAAGAAGAGCGAAGUUCCCAGCGCUAAUGCCCUGCAGGAUAGAUGAAAAUGUGACCUAAAAAUUAGAAGAUUAAAAGUCGUUACGUUAAUAUCUAUCAAGGUAGCAUAAUCGGUUGGCUACAAACUAC'
p219
aF0.7675675675675676
aa(lp220
S'Mat - Cuboid'
p221
aS'GAAGCAAAAGAAAGUAAAAGCAAGCAAAAGAGGCAUGCAAAAGCAAGCAUGCAAAAGAAGCAAGAAAGCAAAAGCAAACUAUCAAGCAAAAGCAAGCGGACUAUCAAGCAAAAACAAGCAACGAUGCGAGCAAAAGAAAGCAACUAAGAAAGCAAGGAAAAGCAAUCAAGAAAACAUCCAACUAAAAUGUAGCAAGCAGUUAAGGAAACAAAAAAGUAAUCAAAAAAGUAAGUAUCAAGAAGGUAGUAAUCAAGCAAGCCCAAGCAAUCAAGGAAGCAAGCGCAAGCUAGCAAGUAAGAGAAAGUAAACAAGCAAGUACAAGAAUGGAAGCGUGGUCAAGCAACGCUAGCAAGUGCUAGCAAUGCAAGAACAAUCGUAAC'
p222
aF0.8710526315789474
aa(lp223
S'Misfolded Aptamer 6'
p224
aS'AAAAAGGAGAAAAAAGAUCGGGGAAAGCGAAAAAAAACGCAAAACAAAAAGAUCAAAAAAGCUCAAAAAAAAAAA'
p225
aF1.0
aa(lp226
S'Snowflake 3'
p227
aS'GAGCGAAAACGAUAGGACAAAAGUUAAGAUCAGAUGAAGAGAAAAAACGAGACGAAAACGCUCAAAGAGCUAAAAAGACUCGCCAAAGCUCAAUAUCGGUCUAAGAAAAAACUCCAGACGAAAGCGCUUAAAGAGCGAAAACGACUGGAGAAAAAUCAAGAGCAGAUCGAGGGAAAACCCGGGGCGAAAGCGGUGAAACAUCUAAAAAGACCCGCUGAAAGGCAAGAUCUGAUCAAGAGAAAACUCGAGACGAAAACGAUCAAAGAUCGAAAACGACUCACGAAAACGUAAGUUCACAUUAAGAGAAAACUCGAUACGUAAUCGCUGAAACAGCGAAAACGAAUCGAGAAAACUAAAAAUUAGAUCAAGUGUAAUCGACUAACGAAAACGCUC'
p228
aF0.8320610687022901
aa(lp229
S'Hard Y and a bit more'
p230
aS'AAAAUGGUUGACGAACAGAAAACUGUAGGUUGAGCUAUGUGAUCGAAAGAUCUCGUAAUAAAAAGAUUACAACUUGCUUACAACCUAAAAAAAAAAAAAAAAAAAA'
p231
aF0.9716981132075472
aa(lp232
S'Mat - Lot 2-2 B'
p233
aS'AGACGGAAGCAGAGACAAAAUUAAGUAGUAAUCUAAAAAAGAAAGCAACUAAAACCAACGAGAAGCAAGAAAACACAGCCAAAAUCAAGGAGAAGCAAAAGAAAAAUCGCAACUAAAACAAAGGAGAAGCGCAAGAAAGCAAAAGAGUAGGGUCGAACAAAAGGGAAGAGAAAACUAAAACUGAUCACAAGAAAAUCCAAACUCAAGCAAGUAGGUGCAAGCACAAGGAAGAAUAAACAAAAUCGAAAGGGCAGAUAAAACCAAUUGCGAGAGCAACGAACAAC'
p234
aF0.823943661971831
aa(lp235
S'Shapes and Energy'
p236
aS'AAAAAAAACUUCUAACUUAAAGGAAGGCUGGUAAUCAGGACAAACGGUCAUUAAAAAACGUAUAAAAGUGCAGUCACCAUGAAAAAAAAAAAAAAAAAAAA'
p237
aF0.9603960396039604
aa(lp238
S"Spiral of 5's"
p239
aS'CAAAUGAUAGAAAGAAAGAAAGAUAGAAAAGAUAGAAAGGUAGAAAGAUAGAAGACAGAAAAGAUAGAAAGAUAGAAAGAUAGAAGGUGGAAAGACAGAAAGAUAGAAGAUGGAAAGAUAGAAGAUACAAGAGAGAAGAUAGAAGAUAGAGAUAGAGAUAGAUAUCGAAAAGAUAUAAAAACUAUCAAAAGCUAUCAAAAACUAUCAAAAACUAUCAAAAACUCUCAAAAAGUAUCAAAAACUAUCAAAAACCAUCAAAAACUAUCAAAAACUGUCAAAAACCACCAAAAACUAUCGAAAACUAUCAAAAGUUAUCAAAAACUGUCAAAAACUAUCAAAAACUACCAAAAACUAUCAAAAACUAUCAAAAACUUUCAAAAACUAUCUAAAAGAAAAA'
p240
aF0.9949622166246851
aa(lp241
S'Campfire'
p242
aS'AAAAGCUCAAGGGGCAAGAGGAAGGUGGAAAACACCCAGAUCGAAGAUACUGCCUCCAUACAACCAUUAAAGAGAAAGCUACUUGCCGAAGGGUGCAGCUGCUAAUGCGCGUGAACAGCCGAAAGGACGAUUCAUCCACUUCGUAAUGGGACCCUAUGAGAGAGAUAUCGAAAGGUACUCCCCGGGACAUGGAAUAUAGUGCUCUCAGGAGC'
p243
aF0.8962264150943396
aa(lp244
S'Anemone'
p245
aS'AAAGUGAGGGAAACCUUACGCUGGGAAACCAGCUCUUACUAAUGUGGGGAAAAGGAAUAUUUUGAUAUCAAAGGAUAUCGAUAGCAAGAUAUCGAUUGGAAACGAUCGCUGUAGAAAUACAGCAGGGAGUAAUCAUCUUUUAACUAAUGUUAAACUGGAUAAUCCAAUCAACUAAAGCUUAUUAAAGGGACAGCUCUUGACCGUGAAAACUUCC'
p246
aF0.8925233644859814
aa(lp247
S'Fractal 3'
p248
aS'AAAAAGAUGAAAGUCGAAAACCGUAAAAAGUCAUAGACACUGAAAGCACAAAACUAAUCGGAGACGAAAACGGUAAAAACACUCAAAUACGAAAGUGGGAAAAUCAAUGAUGGCGAAAA'
p249
aF0.865546218487395
aa(lp250
S'Kyurem 5'
p251
aS'AAAAUGUCAGGGAGCGAAAGCUGUGAAAAGAAAGUAGAAAGAUGAAAAGGCCUACGGCAAAAAGACCAGUUUCGACCCAAUGGCUAAAAAAAAAAAAAAAAAAA'
p252
aF0.9423076923076923
aa(lp253
S'Snowflake Necklace ( or v2.0 )'
p254
aS'GUUAUACAUAUAUAGAGAUGUGGCAAAAAGCGUCAAAAGUCAUCUAAAUGGAGCAAAAAGUUUCAAAAAGAUGCAUAGGCCAAAAAGGCACAUAACGUAAAAAAAAGCAAAAAGCAUCAAAAAUAGUCAAAAAGAAGAAAAAAGAAGUAUGAGAGUAAAUCUCAGAAAGGUCAAAAAGAACCAAAAAGGUUUAAAAAGAUUCAAAAAGAAUUAAAAAGAACUUUCAGUGAAAAACUCAUAUCAAGCAAAAAGCAUGAAAAACAAUAAAAAAUUAUUAAAAAAAAUCAAAAAGAACGAUAAGCGAAAAACGCAGAUAUGUCGAAAAGAAUUAAAAAGAACCAAAAAGGAUCAAAAAUAAGCAAAAAGCAAUGUCUCUAUAUAUGUAUAGC'
p255
aF0.8560411311053985
aa(lp256
S'Methaqualone C16H14N2O Structural Representation'
p257
aS'AAAAAAAGAGCAGAUUUCUCACUCAAAGGAGGGAGAAUGAAAACGUAGUGAGAGAAAAAUCAGAGGGAGAAAGCUCUCAGAAAAAAACUGUAUGACUCACUCAGAGAGAAAUUGAUCACACCUAAGCACUCAAAGCAAAGCAAAAAAAAGAGAGAGCUCGAAAAACAUAGGAAACUAUAGAAAGCCACUCAGCAAUGAUCAGAAACAGAGAGAGAUAGAUACAGAGAAAAGAUUAACAUCACUCAGAGAAAGCUCAAUAAUAGUAAUCUGACUGAGAAAAAACUCACCCAGAGGGAAAAAUUUCUCAAAAGAGAUCGAAAACUCCAUACUCAGAUCUAUGGUGAGUUCAAAAAAA'
p258
aF0.8788732394366198
aa(lp259
S"Cat's Toy 2"
p260
aS'AAAAGAAAGAACAAAAUUAAGCAAAAAAAAAAAAAAAAAAAGACGAAUGUAAAAACUAGCAAAAACCAAAAAAAACGAAAAAAAGGUUCUUUUAAAA'
p261
aF0.9381443298969072
aa(lp262
S'Zigzag Semicircle'
p263
aS'AAAGGGCAGCUUGAAAAUAGUGCAAGUGGUAAAA'
p264
aF0.9411764705882353
aa(lp265
S'Short String 4'
p266
aS'AAAAAACCAGUACGUAAUAAAAACAAGGAAAACUAGAAUAAAUUGGUUGAACAUUAUUGCUGAGAAGAACAAGCGGAAAAAAAAAAAAAAAAAAAAA'
p267
aF0.9381443298969072
aa(lp268
S'Gladius'
p269
aS'GGAAACCGGAAAAGAAAGUACUAAUUAAGGAGACAGAAAGGCCUAAUGGCCAAAUAGAAAUGAGAAGAGGUUAAAAUAACUUAAUUUUCAGCACGUGGCAGAUAGAGCCCAGUUCAAGAUCAAAGAUCGGAGACGGGCCAUAUCGACCAUGGACUGAGGGAAUCGAUAAAUAGAUCAGCACUUUCUACUAUUACUGAAACAGAGAUAGACAAGACAGAAAGUUAGGUGAGCGUAAGACGUAGAGAUAUCAGAUGUAGUAUGCAGAGAGAUAUCAAAAGAUAUCGGCUCGUCGUAAGCUAUACGAUAUACCUAUGUCAGAAGUUCUAAGAACUACAGCUCAGAACUAUCAGGUCAAAAGAUCAAGCUGACUCAAACCGUUGAACAAAUAAAACAAGAAAAC'
p270
aF0.895
aa(lp271
S'Thunderbolt'
p272
aS'UCAUGAUAGAAAAAAAAUGGCGAGCAGAAAAUGAAACCUGAGAAAUGGAAAAAAAACCAAAAAAGAUCAAAAAGAUCAAAAAAGGAAAGUAAAUAAAAAAAGAAGAAAAAACGACAAGCAAGCAAAAACAAAGGAGAUCAAAAAGAGAAAAAGAUGCACAAAGAGCUACAAAAACUCAUGUCAAAUAAAAAAUGAGGUGCAAAGCUCAACAAAAAAAAAAGGACAAAAAAAAAGAUCAAAAAGAUAUCAAAGAUAUCAGCAAGCAAAAAAAAAAAACAAACAAAAAAAAAAUACUAAAGAGAUAUCAAAAGCAAAAAAAAGAAAAAGAUAUCAAAAUUAAACAUUUCUCAAAAAAAACAGCAAGCAGUAAAAGAAAAAAACAUUAUCUAGGA'
p273
aF0.9591836734693877
aa(lp274
S'Mutated chicken feet'
p275
aS'AAAAAAGGGAGCACGAAGCGAACUAUGGUAAGGCCAGCACCUCUAAAGGUGCAAAGCAAAGGUCUGCAGCGCUUAUCGGACAAACCAAAGCAUUAAAAAA'
p276
aF0.92
aa(lp277
S'Chicken Tracks'
p278
aS'AAAAAAACGAUAUUGAUACGAAAGUACAAGGUUUAAAAACCAAGAUCUAACGAUUCGUUAACAACUAUAAUACGGUAGGACAAAAAGUAGCGGGAGUAAGGCUCUGGUAAAAAAAA'
p279
aF0.9482758620689655
aa(lp280
S'Looking Back Again'
p281
aS'CAAAUGACUAAGAAAAAACUAUCAAAGAUAGUGCUAAAAGAACUCAUGAGAAGCUCGAGAGAUAUAAGGAGCGAAAGUUCAAAGAUAUCAACUCAAGUCCAUAUAAAUAAAAGUAUUAAAAGUUAUAAAAAAAGUUAAUAGCGAUAAAAGAUAUAAUAUAAAAUAACGAUCUUAUAAGAAUAAAAAGAAGAAGAUCAAAAGAUCGACGCAAUAAACGAGCAUGAAAGUGACAAGAUCCAACUAUCAAUAUGAUAGAGUAUGAAAAAGAGAUAGAAAAAAAAGAUGGAAAAGAUCCUAUAAACUCAGUGUUAUCAAAAAAGCCCGCAGAAAACUGCGGAAGCGCGAAACGAUAUAGAAGCUAUAAACGAGCAAAGGAUACGAUCUAAUUG'
p282
aF0.8457583547557841
aa(lp283
S'Multilooping 6'
p284
aS'AGGAUAUUGUUUGGGAAAGCCCAGCACCGCAAGUGGUGGCAGCAAAGGGGAAACCCUUUUCUUGAAAAAGGGGGGAAAUGAA'
p285
aF0.926829268292683
aa(lp286
S'Cesspool'
p287
aS'GAAGAGGAAAACAGGAGAAAACAAAGAAACGCAAGAAUAACUUAAGAAGAAAACAACAGGAGAAAACAACAAAAAGAAAACAACAACAAGAAGAAGAAAACAAUGGAAGAUCGGCAAAGCUAACAUCAACCAAAGAAGAAAACAACAGAAGAAAACAACAAAAAGAAAACAACAGCAAGGAAGAAAGAAAUAAUAGAAGAGCGAUAAAGUCAACAGUAACCCAAGAGGGAAACAACACAAGAAAACAAGAAAAAGAAAACAACAAUCAAGGAGUAAGUAAUCAAGGAAAGAGAGAGAAACCCAACAACAGAUAAAGAAGAAAACAACAGAACGAAAGAACAAAAAGAAAACAAAAAUC'
p288
aF0.7597765363128491
aa(lp289
S'Hoglafractal'
p290
aS'AUGAGGCAGGUCGAAAAGACAGAAAAAGCUUUCCGAUCGAUCAAAGGUCAAAAGGAUCGAUCGAGAAGAGAAAAUACCUUAGAGAACGCUCAAAUAUCAAAAAGGAUGGAGCCGGAAGUGAAAAGCACCCAGCAUCUAAUGAGCAUAACAAAAGAGAAGAGAAAAAACUCCUUCCAGCAAAAAGCGGUAGGAAACUCAGAUAGGAAAAGCACUGAAAAAGGGCGGGAAAAACCUUUAAAUGAAGCUAUCAAAAAAGAGAAAAAACUCGUAAAAAAUAAUGAUAUUGAAGCGAUGUCUAAAAAAGACAGCAAAAAACUGUCAAAAAGUUAAAAACACAAACCAAUUAAGAGUAGAUCAAAAGCAAAGGCACAAAAGAAAUAUCAAGGAUAUUAGACCGCAC'
p291
aF0.905
aa(lp292
S'Bullseye'
p293
aS'AAUGAGGACUAAGGGUCAAUAAUUAUAUUAAAGUUGAAAGACCCUCUAAAAAAACACCUAUAAAGUAGAAGAUCAAAGGUCAAGUUCAAAGGGCGUCAAAAAAAAGAGGAGCAAAGCUCAAUCUAUAUUAUAAAGAUCUAUUGCCUUCAAAAAAAAGACCUAGAAAUUAGAAGCUUAAAAAGUGAGAUAUAUUAGCGUCAAA'
p294
aF0.8217821782178217
aa(lp295
S'Shooting Star'
p296
aS'GAUUUCGUUGGAUCUAGGAUGACAAUAGGCGAGAGAGCGAAUGACUUACAUCAUAGAACUAACUAGAUCAGAGCCGAUGGUAGCAGAGAGGUUGAGUGAGAUCAGCUAAUGACGAUAUCGCCAAAUACCUCAGACAUCCAAGGAAAACAAGCUCCAUCGGACCAAACCUCGAGUUAGAAACUAGAGACAAAACACAGAUGUUAGCAGAGCAGACGAAAGAUAUAGAAACUAUGUCAGAACCAAAGUAUCCGUCGGUUUUGUAUCAAAACCAGGUAGUAUCCAUCGUUCGUUGAAAAAAAUAGAGAAGAAGACAGGGAGCUCAACAAAAGAGGAGACCCCUGGACAAUACAACCGCCAGAAAUCA'
p297
aF0.804945054945055
aa(lp298
S'Teslagon'
p299
aS'AAAAAAGCAAAAAAAUCAGAAAAAAAAGCGUCAAAAAAAAAAAAAAAGAAAAAAAAAACCAAAAAAAAAAAAAAAGGGUCAAAAAAACCGAGUAAAAAAGCAAAAAAAAAAAAAAGACAAAAAAUAAAGCAAAAAAAGCGUCAAAAAAAAAAAAAAAGAAAAAAAAAACCAAAAAAAAAAAAAAAGGGGUAAAAAAAGCAGCAAAAAAACCUAAAAAAAAAAAAAUGGAAAAAAAACAGCAAAAAAAGAACUAAAAAAAAAAAAAAAAGGAAAAAAAUGUAAAAAAAAAAAAAAAGCUUAAAAAAAAACAGCAAAAAAAGGAAAAAAAAAAAAGCAAAAAAAAAAAAAAAGCACCAAAAAAAACAGGAAAAAAAGUAAAAAA'
p300
aF0.8952879581151832
aa.