(lp0
(lp1
S'Simple Hairpin'
p2
aS'GAUAGAAAAAACUAUC'
p3
aF1.0
aa(lp4
S'Arabidopsis Thaliana 6 RNA - Difficulty Level 0'
p5
aS'GAUAUAGAAAAGAGAAAAAAAAAACCUCGAUAUAUCAAGAUAUAUAGAUAUAUAGAUAAAGAUAGAAAAAACUAUCAAUCUAUAAUAUCUAUAUAUCAAGAUAUAUCAACUAUAUC'
p6
aF1.0
aa(lp7
S'Prion Pseudoknot - Difficulty Level 0'
p8
aS'GAUAUCAGAUCAAAAGAUCGAUAAUCAAAAAAAAAA'
p9
aF1.0
aa(lp10
S'Human Integrated Adenovirus - Difficulty Level 0'
p11
aS'GACAGCAAGUUAUCAGAUAUGGAAAAAAAACUCACCCACAACGGCGCUUUCCAUCUCAAAAUCCCUAAAGAGAGAAAAAAAGCUCUUUUUAGAAAAGGAGAGAUCAACGGACCGAACAUUGUGCAAGAUAUUGAAAAAAGAUAUCGGUGUAAAAAAAAAAAUGUAUUGGAUAAAAAGCUUGUAAAUGUCAAA'
p12
aF1.0
aa(lp13
S'The Gammaretrovirus Signal - Difficulty Level 0'
p14
aS'AAGGCGAGGUAUAAAAAUAUACCGAGACAAAAAAGACCAAGAGAGACCUAUAGAAAGCUAUAGAACGGUCCUCGGUCAUCUUGUACUAAAUAGUAUAGGUU'
p15
aF1.0
aa(lp16
S'Saccharomyces Cerevisiae - Difficulty Level 0'
p17
aS'CAUGUACCGAGUAAAAAAUCUCGAGGAAAAAAAAAAAAAAGUUAAAAGAUAGAAAAAAGCUAUCGUACAUGAAAGGAAGCGUAACAGUAAAAAAAGGCUGCGAUACAAAAAAAAAUGCGAAAAUAUACAAAAAAAGUAUGGCGCUUCAAAAAAUUAGGAACUUGAAAAAAAGCAACGCUGUUAAAAAAGGACAGCAAACCGUAGGAAAAAACUACGUUAGAUGAGAAGAGACACAAGAUCAAAAAAAGGAUCCUUGGUUAAAAAUACUAGGAAAAGAAUAUAAAAAUUAUUCGUGUUUCAAAGAACAUACAAAAGCAAAAAAAGGCUUUAUCUCUAAAAAUGGGAUGUAAAUAUCGUAAAAAUCGAUAGUAUGUUAAAA'
p18
aF0.9894459102902374
aa(lp19
S'Fractal 2'
p20
aS'AAAAAAUUAUAUAAAUUUUAUAGAGGGGCUUCAAAAAAAAAAGAAGAGGAUAUAAAAAAAAUUAUCAACGUUGAAAAAAAAAAGCGAAUCUUUAUAGAUAUGAUAUAUUGGAUCAUCAAAAAAAAAGGAUGUUUAAGGAAAAAAAAACUUAUAGACCUAAAAAAAAUGGUCAGUCAAUAUAUUUAUGUUGUGUAGGAUGGGUAAAAAAAAAAACCCUAUGUGGAAAAAAAAACGCGGAGAUGAAAAAAAAAACGUCAGUCUAUGCAGCUAGUAUAUAAUGAAAA'
p21
aF1.0
aa(lp22
S'G-C Placement'
p23
aS'CUAGGAACUAGA'
p24
aF1.0
aa(lp25
S'The Sun'
p26
aS'UAUAGUUAUCGAAGGGAAUAAACGUGAAUGACAGUUGUGGAAGCUAUAAACGGAAUAUGAGAGAUACAUAAAGUGUAAAUCCUCUAUGUUAGACCUAAGAAUUAGAAGUCCACUAGACUACGGAUAGAAACUAUCACACGGCAAUUGGAGGGAUAGAAACUACAAUCCCUGUAAGGGAGCGAGCUUAUAGCUAACGCCCCAAUGAAAGAUUUACAAACUAAAAAUCUUCUAAGAGAGAUUCGCAAAGCGGAAAUCCUC'
p27
aF0.9031007751937985
aa(lp28
S'Frog Foot'
p29
aS'AAAAAAAAAAGAUCGAAAGAUCGACCAAAAGGUCGACCAAAGGUC'
p30
aF1.0
aa(lp31
S'InfoRNA test 16'
p32
aS'GAUAUCGGGAGAUAGAAAACUAUCAUCACGGAUAUC'
p33
aF1.0
aa(lp34
S'Mat - Martian 2'
p35
aS'UAUCAAAAGAUAAAAGAUAUAGAAGAUAUAGAAAAAAACUAUAUCCUAUAUCAAAGAAUAUAGUAAAAAGAUAUAGAGAUAUAGAAAAAAACUAUAUCCUAUAUCAAAGAUAUAUAGAUAUAAAAAAAAUAUAUCUAAUAUAUCAAAAAUCUAUAUUCAAAGAAUAUAGCAUAUCAAAAAAAGAUAUGCAAUAUAUUCAAAGAUCAAAAGAUC'
p36
aF1.0
aa(lp37
S'square'
p38
aS'GAUAUACCAUAUCCAUAUACCAUAUCAAAGAUAUGAAAAGUAUAUGAAAAGAUAUGAAAAGUAUAUC'
p39
aF1.0
aa(lp40
S'Six legd turtle 2'
p41
aS'AAAAACCAAUUGGAAACAUAAGUAAAGAUGAACUGAAAGGAAAGUAAAAGAAAACCAAAGGGAAAGAAAAAGCAAAGGAAAAAAAAAAAAAAAAAAAA'
p42
aF0.9591836734693877
aa(lp43
S'Small and Easy 6'
p44
aS'GCCGCGAAAAGCAAGGGAAAAAAAACCGGC'
p45
aF1.0
aa(lp46
S'Fractile'
p47
aS'AAAAAAAAAAAACCAAAAGGAAAGGAAAGGAAAACCAAGGAAAACAAAAGUAAACCAAGCGAAAGCAAGCCAAGCAAAAGCAAAAAAAAAAAAAAAAAAAAAAAA'
p48
aF1.0
aa(lp49
S'Six legd Turtle'
p50
aS'AAAAAGGAAAAGAGAAUUUAAAAGCAAAAGCAAAAGCAAAAGCAAAAUUUAAUAGAAAUGCAAAAGUUGAAGGAAAAUCAAAGGGAAAAAAAAAAAAAAAAAAAA'
p51
aF0.9619047619047619
aa(lp52
S'snoRNA SNORD64'
p53
aS'GAUAUCAAAAAGAGAAAAGAGAAAGAUAGAAAAAAAAAAAAACUAUCAAAACUCAACUCAAGAUAUC'
p54
aF1.0
aa(lp55
S'Chalk Outline'
p56
aS'AAAAAUAGCAGCUAGAAAACUAAGCAGAGAGGCAAAGGCCCUCGGAUAGCAAAGGCAUAUCACGGAGAAAACUCACGGCUAAAAAAAAAAAAAAAAAAAAAAAA'
p57
aF1.0
aa(lp58
S'InfoRNA bulge test 9'
p59
aS'GAGAUAGAGAGAGACAUAUAGUAAUCUAUAUGCCCCUAUUUC'
p60
aF1.0
aa(lp61
S'Tilted Russian Cross'
p62
aS'AAAAGGUGCGCAGAAAACUGCCCCCAAGGCAAAGGCCUGAUAUAAAAGUAUCGGAGCGAAAGUUCGGGGUAUGGAAACAUAGCACAAAAAAAAAAAAAAAAAAAA'
p63
aF1.0
aa(lp64
S'This is ACTUALLY Small And Easy 6'
p65
aS'AAAAAAAAAAAAAAAAAAAAAAAAAAAAAAAAAAAAAAAAAAAAAAAAAAAAAAAAAAAAAAAAAAAAAAAAAAAAAAAAAAAAAAAAAAAAAAAAAAAAAAAAAAAAAAAAAAAAAAAAAAAAAAAAAAAAAAAAAAAAAAAAAAAAAAAAAAAAAAAAAAAAAAAAAAAAAAAAAAAAAAAAAAAAAAAAAAAAAAAAAAAAAAAAAAAAAAAAAAAAAAAAAAAAAAAAAAAAAAAAAAAAAAAAAAAAAAAAAAAAAAAAAAAAAAAAAAAAAAAAAAAAAAAAAAAAAAAAAAAAAAAAAAAAAAAAAAAAAAAAAAAAAAAAAAAAAAAAAAAAAAAAAAAAAAAAAAAAAAAAAAAAAAAAAAAAAAAAAAAAAAAAAAAAAAAAAAAAAAAA'
p66
aF1.0
aa(lp67
S'Shortie 4'
p68
aS'GGUAAUCCACCGAAAGG'
p69
aF1.0
aa(lp70
S'Shape Test'
p71
aS'AAAAAGGGAUCAAGAUAGAAAAAAAACUAUCAAGAGAUAGAGAUAGAAAAACUAUCAGUAGAAAACUACACUACUCAAGAUCGCAAAAAAAAAAAAAAAAAAAA'
p72
aF1.0
aa(lp73
S'The Minitsry'
p74
aS'GCGGAAAAAUCAAAAAGCCGAAAAGAGAAAAAGCGAAAAAAAAUGCGCUCAGGCGGGUACGC'
p75
aF1.0
aa(lp76
S'stickshift'
p77
aS'AAGGUAUCGCUAAAUGCAGAUAUCAA'
p78
aF1.0
aa(lp79
S'U'
p80
aS'AAAAAGAUAGAGAGAGCAGAGAUAUAUAGAAAACUAUAUAUCCGCCCCUAUCAAAAA'
p81
aF1.0
aa(lp82
S'Still Life (Sunflower In A Vase)'
p83
aS'AAGGAUCAGGGUGCAAAAAGUGUCAAUGCAUUAUAUGCAAUGCCAGUAACUUUGGUUAGGUGUUAUACACCAGGAUAGUAAAACUAUUAAAAGGAAAAAAUUCACAAUAUAGAAUUAGAUUUAUAAAUUGAUAGAAAAAGCUAUCAGAUAGAAAAAAAAAAAAUUAUCACCCCCCCCCCCCCCCCCCCCCCCCCCCCCCCCCCCCCCCGGAUAUAAAAAAAAAAAACUAUCUAGUCGAAAGACUGAGAUUUAUAGAUUUAAUUUUGUAUGAUAUACAAAAAGUGUAAGCAAUCAAAAAGAUUAAAAAGAGAAAAUCACUGGAGCUAGAAAAACUAGCAGGAUAGGAAACUAUCAAGGAAAGAAAAGCUUCAGAUCAAA'
p84
aF0.9682539682539683
aa(lp85
S'Quasispecies 2-2 Loop Challenge'
p86
aS'AAAAAUCCCGGUAAAGAUAGAAAUAUCGAUACCAGUUCGACAAAGGAGAACGGUAGGAGAGAAAAAAAAUUUAGCGUCUAUGGGAAAAAAAAAAAAAAAAAAAAA'
p87
aF1.0
aa(lp88
S'Corner bulge training'
p89
aS'AGAUAUCGAUAGAAACUAUCAAAAGAUAUCA'
p90
aF1.0
aa(lp91
S'Spiral'
p92
aS'AAAAAGAUCAGAUAUCAGAGAGAUAGAGAUCAGAUCAGCAGCAGCAGCAGCAGCAAAAAGCGCGCGCGCGCGAUCGAUCCUAUCCUCGAUAUCGAUCAAAAA'
p93
aF1.0
aa(lp94
S'InfoRNA bulge test'
p95
aS'AAAAAAAAAAAAAAAAAAAAAAAAAAAAACAGCAAAAAAGAGGAAAAGAGCAAAGAGCAAGAGCAGAGCAAAAAGCAUCAGCAUCAAGCAUCAAAGCAUCAAAAACCAUCAAAAAAGCAUGA'
p96
aF1.0
aa(lp97
S'Worm 1'
p98
aS'AAAAAAAGGCUGUACGAGUAGAACAAAAGAACAAAACCCCUUAAC'
p99
aF0.9555555555555556
aa(lp100
S'just down to 1 bulge'
p101
aS'AAAAAGAGCAGAUAGAAAACUAUCAGAGAAAACUCAGCAUCAAAAGAUCAGAGAAAACUCAGAGAAAACUCAGAUCAAAAAAAAAAAAAAAAAAAA'
p102
aF1.0
aa(lp103
S'Iron Cross'
p104
aS'AAAAACAGAAAGACAUUGUAGCGGGAAGAAAACUCGUACGAUAAUAGAGUAAUCUACCAAAAAUUAAGUCCAAAACAUAGUAAUCUAUUUCAAGCACAAUUAAGCUGAGAGGAACUCGUUUUA'
p105
aF0.8536585365853658
aa(lp106
S'loops and stems'
p107
aS'AAAAAGAUAUAGAAAGAUCAAAGAUCAAAGAUCAAAAAAAAAGAUAGAAAAAAAAAAAACUAUCAAAGAUCAAAAGAGCAAAAAAAAAAGCUCAAAGAUCAAAGAGAAAAAAAACUCAAAGAUCAAGCAAAAAAGCAAACUAUAUCAAAAA'
p108
aF1.0
aa(lp109
S'Water Strider'
p110
aS'AAAAUUCGCCAAUACAAAUAAAAAGUGACCGAAAGCGGUCGCGGGGUAGGGGGAAAUCCCAGAAAACUGAUUGCAGAUUAUAUAAAAAAAAAAAAAAAAAAAA'
p111
aF0.9223300970873787
aa(lp112
S'The Turtle(s) Move(s)'
p113
aS'AAAGCAAAAGCAAAAGAUUUAUACGAAAAAAAAGUAUAAAUCAAAAGACCUAAAUGGUCAAAAAAAGAAAACUCAAAGCUAGAAAAAAACUAGCAAAAGUGAAACAAAAAAUAAAAAGAAAAAACUGAAAAGAUAUCAAAAAAAGAUAUCAAAACAGGAAACUGAAAAACGUAACAAAAGAGAAAAAAACUCAAGAGAAAAAAAACUCAAAGAUGUUAAAAUGUAUAAAAGAUCAAAAAGAUCAAGUUACGAAAAAAAAAAAAAAAUUAAAAAAAAAAAUCAAAAAAAUAUCAAAAAAAAAAGAUAUAAAAAACGC'
p114
aF0.9873417721518988
aa(lp115
S'Adenine'
p116
aS'GAUAGAGAUAUCAUAUAUCAGAUAUCAGAUAUAAGAUUUCAAAAGAUAUCGAAAAAGAUAUCAGAGAUCGGAUACAAAUAUAUAGAAACUAUAUAGUAUCAUAUAUCAGAUAAAUAGAUCAAAGAUCUAUGAAUUAUCAGAUAUCAAAAGAUAUGAAAAGAUAUCAAAACUAUC'
p117
aF1.0
aa(lp118
S'Tripod5'
p119
aS'AAGCUCGCUCGAAAAGAGCGGUGGAAAACACCGAGCGA'
p120
aF1.0
aa(lp121
S'Shortie 6'
p122
aS'GGUAAUCCAGCUAAUGCGGCUAAUGCAUCGAAAGA'
p123
aF1.0
aa(lp124
S'Runner'
p125
aS'AAAAAGAUUACGCCCAAAUGGUCAAAGACCUGAUGUAAGCGAAAAGGGCGCAGAUACACGUGCGACGAAAUGUAAACGCACCCAAGCUGAAAACGUAACGUGUCGGGGAUCAAAAA'
p126
aF0.9655172413793104
aa(lp127
S'Recoil'
p128
aS'AAAAAUAUAGAAGCAAGCAAGAGAAGAGACGCAAGCAAAGCAGCACUCACUCAGCAGCACUAUAAAAAAAAAAAAAAAAAAAAAA'
p129
aF1.0
aa(lp130
S'[CloudBeta] An Arm and a Leg 1.0'
p131
aS'AAAACGGCGGCUAAGAAAUUAAGCGGUGCGGAAACGGCCAGUCAAAAAAAAAAAAAAAAAAAA'
p132
aF1.0
aa(lp133
S'[CloudBeta] 5 Adjacent Stack Multi-Branch Loop'
p134
aS'ACUCCGGUAGAAAUACCCCCUUAAAAAAGGGUAUCGGAAACGGUACUACGAAAGUAGGGAGUA'
p135
aF1.0
aa(lp136
S'Triple Y'
p137
aS'AAAAUUAUCCAUCAACUGAAAAGUUCAUCAAAGGAUCGAUGGAUUGGUCGAAAGACCUAUUGAAAAAUACAUAGAUAUAAAAAAAAAAAAAAAAAAA'
p138
aF0.9175257731958762
aa(lp139
S'Misfolded Aptamer'
p140
aS'GAUCGAAAAGGCGAGAAACUCAGUAAAAACAAAAAAAAAGCAAAAAGAUC'
p141
aF1.0
aa(lp142
S'Flower power'
p143
aS'AAAAAUUUCCAUUAAAAAUCAAGUUGAUUGAAGAUCAAGUGCUAUGCACGUAUAUAAGAUAUUAUUAAGUGAAGAAUAGAGGAAAAAACAAAAAAAAAAAAA'
p144
aF0.8431372549019608
aa(lp145
S'Kudzu'
p146
aS'AAAAAAAGGGACUUUACGCAGGGCCCGUAUCGGUAUAUCGAUGGCAAAGCAAGUCAUGGGAAACUUUAAUUAUGUACAUUUGAAAAAAAAAAAAAAAAAAA'
p147
aF0.9603960396039604
aa(lp148
S'"1,2,3and4bulges"'
p149
aS'AAAAAGCAGUCACAUGAAAGAAAAAGAGAGCUGAAAGGCGGGACUAAAGUAUCAUCGAAAAUAAAGGGUUGAAAGUAAAAGAGUAAAAAAAAAAAAAAAAAAAAA'
p150
aF0.9619047619047619
aa(lp151
S'medallion'
p152
aS'UAAAUCAGAUUUUAAAAGAAAUCACAUAAAAAUGGGUUGAAAGACGAAGCUCAAAGUGGUUUAGUGGAAACAUAGAUACUAAAAAGUAUCAGAGAAAACGUAGAGAAAAUUUAGUUAUAAAAAUAUAACAGUUUAACGGAAUAUAUCUAAUGAUAUAAGAGAAAACUCAGGGAAAACUCACAAGUGAAAGCUUUGCAAACAAAAGUUAGGCAUUAAAAAAAGUCAGAUAAAAGUCAGAGGAAACUCAGAUGUCAAAAGACAUCGGAGGAAACUCAGGUUGUAAAGAUGACCGGUAAAAACGCGUGCAAAACGAAGAUUCUUAAUAGGAUCAGGUUUG'
p153
aF0.8991097922848664
aa(lp154
S'[RNA] Repetitious Sequences 8/10'
p155
aS'AGGAAAAAAGCAAAAAAGCAAAAAAGCAAAAAAGCAAAAAAGCAAAAAAGGAAAAAACCAAAAAAGCAAAAAACCAAAAA'
p156
aF1.0
aa(lp157
S'Documenting repetitious behavior'
p158
aS'AAAAAAACUAAAAAAAAAAUGAAAAAAAGGCGAAAAAAAAUGAAAAAAAACAGGAAAAAAAAGUAAAAAAAAAGGAAAAAAAAACGAAAAAAAAAGUAAAAAAAAAGGAAAAAAAAGGAAAAAAAAAUUGGAAAAAAAAGGAAAAAAAACGAAAAAAAAAAACGAAAAAAAAGGUAAAAAAAGCAAAAAAAAACCUAAAAAAAAAUUAAAAAAAAAUGUAAAAAAAUCUAAAAAAAAAGUUAAAAAAAACCUAAAAAAAGGCGAAAAAAAACAUAAAAAAAAUCAAAAAAAAACCGAAAAAAAGGCAAAAAAAAACGGAAAAAAAAGCAAAAAAAAGACAAAAAAAAACUAAAAAAAAAUAAAAAAAAAAGCAAAAAAAAAGUGAAAAAAAAAGAAAAAA'
p159
aF0.935
aa(lp160
S'7 multiloop'
p161
aS'UUGUUCCAAGAAACUGGGGGCCCUAAUGGGCUCUGAGUAAUCUCAGGGUUGUAAUCAGCCGACCGUAAUCGGUCUCCCGAAAGGUGAAGAAG'
p162
aF0.9130434782608695
aa(lp163
S'Kyurem 7'
p164
aS'AAAAUUAGGGAAGAUACAGGCCGACAAAAGCUGGAUAAAAAAUGUAUAGUCGUAAAAUCGAAACCUUGAGCGAAUUUACAUAUAAAAAAAAAAAAAAAAAAA'
p165
aF0.9215686274509803
aa(lp166
S'JF1'
p167
aS'GAUAGAUAGAUAGAUACAAGAUAGAAAAGAUAUCAAGAUAGAAAGAGAGAAGAUAUCAAUAUAUAUAUAUACAAAAGUAUAUAUAUAUAUAAGAGAAAACUCAGAUAUAUAGAAAACUAUAUAUCAAGAUAGAAAACUAUCGGAUAUCACUCUCACUAUCAGAUAUCAAAGAUAUAUCAAAAAGAUAAUAUCAAGAUGUAUAGAUAUAUAGAUAUAUCAAAAGAUAUAUCUAUAUGUUCUAUACAUCAAAGAUAGAAAAAACUAUCCAUAAUAUCUAAAAAGAUAUUAUGAAAGAUCAAAAGAUCAACUAUCAAGUAUCAAUAGAGAGAGAGAAAACUCCUCCUAUAUAUAGAUACAAAAGUAUCAUAUAAAUCUAAUCAUAUCAAA'
p168
aF1.0
aa(lp169
S'multilooping fun'
p170
aS'UUAGUAGCCUAAUGUGGAAAUUCAGUGGAAAACGAA'
p171
aF0.8888888888888888
aa(lp172
S'Multiloop...'
p173
aS'GAUCAGAUGAGCGAAAACGCAUGGAAAACCAGGAGAAAACUCAGACAAAAGUCAGACAAAAGUCAGGGAAAACCCGCAUCGGUUGGAAAAAACCAGCGUGGAAACACGAUC'
p174
aF1.0
aa(lp175
S'hard Y'
p176
aS'AAAAGCAUCGGAUUCUAUGAGAAAUUAUAGACACCGAGAUUUAGGAAAGCCUAGAUUUUGAUGAAAAA'
p177
aF0.9705882352941176
aa(lp178
S'Mat - Elements & Sections'
p179
aS'AAAAUUCUCUGGAAGGGAUCAGAGCACACGAAACCAGGAGAGAAAACUCGCACGGUUCACGUGCGAAACGGAUCACAAACUGAGAUAAAAAAAAAAAAAAAAAAA'
p180
aF0.9619047619047619
aa(lp181
S'Chicken feet'
p182
aS'AAAAAUGAACGGUAAAAAGGUAAAGAAAUCCCGACCAGAGGAAAGGAAACAAACUAAAACGGAAAAA'
p183
aF0.8507462686567164
aa(lp184
S'Bug 18'
p185
aS'GUGAACGAAGGCAGUGAAUCAUAAAAUAAAGAAGCAGUAAACGAGGAAAACUA'
p186
aF0.9622641509433962
aa(lp187
S'Fractal star x5'
p188
aS'AAAAAAGUAUAUCUAUCUCAAAAGAGAGUUAUCGAAAGAUAUGGAACAAAAGUUCAACGUAAAAAUAUGGUGGUAUACUAAAAAGAGAAGUCGAAUACAAAAGUGUGAGGUCAAAAGAUCAAUAUCAAAGGAUAAUGGCUAAAAAGCCUAGACUUUUCAAAAAGAUAUGUGAAGAACGAAAGUUCAGGAUUAAAGAAUCAAGAUCGAAAGAUUAAGUUUAAAAGAACAGUACAUAUCAAAAUCAUAGAUGAAGUGAAAAAUCAUCAUAACAAAGGUUAAAGGACAAAAGUUCGGGAUAAAAAUAUCGAUAUUUAUGUAAAACAAAUCUCAAGUCCUAAUGGACAUCAUCAAAGGAUGUAGCUCUAAUGAGUGAGAUCAAAAGAUCAAGAGAUUUGAAAAA'
p189
aF1.0
aa(lp190
S'Crop circle 2'
p191
aS'GCUAAGCUAAAUAAAAAAACGAAAAAAAAAUGAAAAAAAAAAAAAAAAAAAAAAAAAAAAAGUGAAAAAAAAAAAAAAGCGAAAAAAAGAAGAAAAAUGUAAAUGUAAAA'
p192
aF0.9636363636363636
aa(lp193
S'Branching Loop'
p194
aS'AUCGACAAAAAAAGAGCGAGAAAUAAUAGGCGAGCAAAAA'
p195
aF0.95
aa(lp196
S'Bug 38'
p197
aS'ACUAUAUUCAGGCCGAAAUAAUAGGAUUCGAAUCGC'
p198
aF0.9444444444444444
aa(lp199
S'Simple Single Bond'
p200
aS'AAAACAGGAAAAAAAUAAUCAAAAAGAUUUAAAAAAAACAAAAAAAAAAAAAAAAAAAAAA'
p201
aF1.0
aa(lp202
S'Taraxacum officinale'
p203
aS'AGAGAAAGCUUCUUCAUUAAAAGAAUCUACUCGAAAGAAGCUCACAGAAAUAAUGGAUGUAAAAGAAGUAAAUCGAAACCAUCGUAUAUUGACAGGUUAUAUACACUAUGUGUAAUAUAGCGGUUAGAAGAUAUAUAGUAAGAUAGAUAAAGUCUAUCAACUAUAUAUCGUUCAGAGGGUGAAGCCUUCGAGCCUAACAAACUGUUAAUAUGAGAUCAAAGGAAGCGCAGAAAAAUAGUGAGAUCAAAAGAGUCGGGUUAAAAGUACCAGAUGAAAACGGUG'
p204
aF0.8936170212765957
aa(lp205
S'Headless Bug on Windshield'
p206
aS'AGCGGGAAAAAGAGAAAAAGUAUAUAAAAAAAAAAAAAAAAAAAAAAAAAGUAAACAAAUUCUUCAAGCCAGUGGGGUAGUUCAGGGAAAAAAGCAAAAGUAAAAAAACCAGCGAAAAUCUCAGACAUAAAAAAAGGGGAGGAAGUAAAACAGAGGAAAAAAAAAAAAAACUCAAGUAACACGACCACCCAAUUAAGUCA'
p207
aF0.98
aa(lp208
S'Pokeball'
p209
aS'AAAGAUAUAGAAAAGCCAGAAAGAUAAGGAAGCAAGGAAGGAAGCAAGCAAAGCAGCAACCACCAGCAACCAGUCAUCAGCCUAUAUCAAAAAAAAGAUAUACAAAAGCCAGAAAGAGAAGGAAGCAAGGAAGGAAGCAAGCAAAGCAGCAACCACCAGCAACCACUCAUCAGCGUAUAUCAAA'
p210
aF1.0
aa(lp211
S'Variation of a crop circle'
p212
aS'AAAAGAAAAAAGAAAAGGAAAAGUAAAUAAUUAAGGGAAAUAAAAAUAAAAAGCCGAAAAAUCUAAAAAAAAAUUAAAAAAAAAAAAA'
p213
aF0.9545454545454546
aa(lp214
S'Loop next to a Multiloop'
p215
aS'AAGAUAUAUUUAAAAAACGGACAUCAAAAGAUGUCGGAUGUAGUAAUCUAUAUCAGGAAAAAUAAUAUAUCAA'
p216
aF1.0
aa(lp217
S'Snowflake 4'
p218
aS'CAUCAAAGAUUCAGACACAAAGGGCAUUGUAAUUAAGGGAAACCGGUUAAAUGAAACAUUAAGAUCAAACAUCUGGCUUCAAAGGAUUAAUAAUAUGUCGGAAACGCAUUGGCACGAAGUGCAAGAGCAAGGCUCCGAUGCAUAAUAGACAUAGUUAUACGGAAAAUGCAUAGAUGCUAUCCGCAAUACCAAAGGUGCUUUGCCGAAACGGUAAAUAUACACCAAAAGGGCAGAGGGUAAAAUAUCAACGUCUAUGACGUUCUGCCAAAGGGAUGUAAAUAUAGUCAAAAGAGACAGGCUCUAUGAGCAAAAGGAAGCCUUCUGUCGAAAAAGGCUAUAAUUAAUGUCAAAACAGUUUGGAUUUAUGAUA'
p219
aF0.8648648648648649
aa(lp220
S'Mat - Cuboid'
p221
aS'UUAUAAAAAGCAACCAAAAGUAAGCAAAAGAAUCAAGCAAAACGAGUCAAUUAAAAGAAGCAGGCAAGCAAAAGGAGGAAAACAAGCAAAAGCAAGCAAGAGAACAAGCAAAAGCAAUCAAGCAAGCAAGCAAAAGGAAGCAAGCAACGAAGCAACGAAAAGUAAGCGAGCAAGCAAGCGAGUAAAACAAAUCAAGCAAUCAUGCAAAUAAAAAAGUAAGCUAGAAAGCAAGGAACCGCAAGCAAGCAAACACGCAAACUCAAGCAAUGAAGCAAGGAAUCGCAAGCAAGCAAGCAAUCGGAAGCAAGUAAGGAAGCCCAAGCAGGCAAUCGCAAGCGACUAACGAAAGAAAUAGCAAGGAACACAAGCGUAAGCCGAUG'
p222
aF0.8473684210526315
aa(lp223
S'Misfolded Aptamer 6'
p224
aS'AAAAAAGUGAAAAAAGAACAAGUAAUUAGAAAAAAAACUAUAAUCGAAAAGUUCAAAAAAACACAAAAAAAAAAA'
p225
aF1.0
aa(lp226
S'Snowflake 3'
p227
aS'GAGUCAAAAGAACGGCUAGAAAUGGAAGGUCAUAUCAAGAGAAAACUCCCCGGCAAAGCCUAGAAACUACCAAAAACAGGGAAAAAAAUUUAAGAUAAGAACAAGAAAAACUUCUGAGGCAAAAGCAGGGAACGAGUAAAAACAGUGUAUAAAACUGAAGAUCGUAUCAAGACAAAACUCUGCAGCAAAAGCUAGAAACUAGCGAAAGCAGCGCCGAAAACUUAAGAUAAGAUUAAGAGAAAGCUCCACGGCAAAAGCUUCAAGGAAGCGAAAGCAGUGGAGGAAAUUCAAGCUCAGAUUAAUUGAAAGCGACAGAGCAAAAACUGGAAACCAGGAAAAGCAUUGCCAGAAAUGGAGAAUCAGACCGCGCGAAAACGCCCCAGCAAAAGCCCC'
p228
aF0.821882951653944
aa(lp229
S'Hard Y and a bit more'
p230
aS'AAAAACUUGAUAAGCAAGAAAGCCUACCGUGGUGCACCAAGAGCAAAAGUUCAAGAUGUGAAAAAAUAUCAAGGGGCACUCCAGGAAAAAAAAAAAAAAAAAAAAA'
p231
aF0.9716981132075472
aa(lp232
S'Mat - Lot 2-2 B'
p233
aS'GAAGGAAUGGGCAAUGAAAAGAGAAAGCAAAGGCAAAAUCAAGGCAGGGCAAAAUUUAUCACGCCCAACCAAGAGAAAGCGAAAUCAAGCGCAGGCAAAACGGAAACGGCAGGCAAAAGCAGGGGCAAGCUCAAGGAAGCGAAAGCGCAAAAUCAGAUAAAAGAAGGAGCAAAAGUAAAAUCAGUUGUAAGGAAAAUUAAGCGCAGUGAAUCAAGCGAAAGCAGAAGGGAGGUCAAGCAAAAGAAAAAUCUCAAGGAAAACCAAAGGCAAGUGGAACAAACGAC'
p234
aF0.8028169014084507
aa(lp235
S'Shapes and Energy'
p236
aS'AAAAAGGAAAAUUCCCGCAAACAAUGAAGAGGAAAUGUUUCUAGUCGGGUGGUAAAAACGUUCAAAAGAAUCCAGUAUGGAAAAAAAAAAAAAAAAAAAAA'
p237
aF0.9801980198019802
aa(lp238
S"Spiral of 5's"
p239
aS'UAAAAGCUGGUAAGAUAGAAACAUAGAAAAGAUAGUAAGAUGGAAAGAUAGAAGAUAGAAAAGAUAGAAAGAAAGAAAGAUAGAAGAUAGAAAGAUAGAAAGAUAGAAGAUAGAAUGAUAGAUGAGAGAAGAUGGAAGAUAGAAGAUAGAUGUCGACACAUAUGGGAAAAACCCAUCAUAGACGGGAAAAACGACAAAAAACUAUCAAAAGCUAUCAAAAACCAUCAAAAACUUUCUAAAACUAUCUAAAACUAUCAAAAACUAUCAAAAACUAUCAAAAACUAUCAAAAACUAUCGAAAACUUUCAAAAGCUAUCAAAAACUAUCAAAAACUAUCAAAAACCAUCAAAAUCUAUCAAAAACUAUCAAAAGCUAUCAAAAUCUAGCAAAAAAAAAAA'
p240
aF0.9949622166246851
aa(lp241
S'Campfire'
p242
aS'AAAAGAUUAAGAUAUAGGAUGUAGGUCAAAAGGGUCACGGAGUAUUUUGAGUCAUCGAUUUCAGGAGUAUAUAGGAAACUAAUAGCUCGGGAGGGCACUAGCAAAGGCGUGCGUUAAGGGUAAUCCACUAAGCAACUACCCGAUAAUCAGAAUCAGGCAGAGGGAUCGCAAAAGCGACUCCUGGAUUCACAGAAUGUAGGCAUCACUCAGUC'
p243
aF0.8915094339622641
aa(lp244
S'Anemone'
p245
aS'AAAGCGUUCUACUGAUGACCUGCGGAAACGCUGGGUAUGGACAUAUAUGGCUAGAAAAAUACCGAGAUCUACUGAUUUGGUUAGAAAGCUAGCGGCUGGAAACAGUCCUUUCCAAAUGGGAGGCAGUUAAAAGUAAUUUAUUUUUAUUAAAGUAGUUCGGAAACGAACGAAAUCAACGGGUUUCGCCACUGAUCUGUGAGGAUCGAAAGGCCUC'
p246
aF0.7850467289719626
aa(lp247
S'Fractal 3'
p248
aS'AAAAAGUUCAGGGAGUUAAUACGGAAAAGCAGACGGAGGGGAAAAUCGAAAAAGCACUCAGAGAGGCAAGGCAAUAAUUCGCUCACCAUGCAAAAUCUGAAAAGAUCGCAGAGCGAAAA'
p249
aF0.8991596638655462
aa(lp250
S'Kyurem 5'
p251
aS'AAAAUUGCGUCCGCCGAAAGUCGGAAACAGAAGGGGCACAUAGUAAAUAUAGCUCUAUAAAAAGAGGAUUUUGUUCGGAACGCGUAAAAAAAAAAAAAAAAAAA'
p252
aF0.9615384615384616
aa(lp253
S'Snowflake Necklace ( or v2.0 )'
p254
aS'CAUAUCUGGAUUUAUAGAUACAUCAAAAAGAAGCGAAAAGCAUCAAAAAGCAGCAAAAAGCGUCAAAAAGCAGUAUCAGGGAAAAACUCGUCUAUACGAAAAACCAGGAAAAACCACCAAAAAGGAGCAAAAAGCAGCAAAAAGUGAUAGAAGGGAAAAACCAAGGCAUUGCCAAAAGCAGCAAAAAGCAGCAAAAAGCAGCUAAAAGCAGGAAAAACCUAUGCUAGAUAAAAAAUCAGAUAUAGCAAAAAGUGGAAAAAAUCAUCAAAAAGGAGCAAAAAGCGGCAAAAAGCAAUAUCAGACAAAAAGUCGCAUAUAGCAAAAGCCGGCAAAAAGCAGCGAAAAGCGAUAAAAAACAGGAAAAAGCGAUAUGAAUAAAUCUAGAUAUG'
p255
aF0.8817480719794345
aa(lp256
S'Methaqualone C16H14N2O Structural Representation'
p257
aS'AAAAAAGGAUCAGAUCAUAGAUAGAAAACUAAGAAACACGAAAGUGAUAGAAUUAAAAAGCAGAGAAUCAAAAGAUAGAGAAAAAAACUCACUCACGAAUUCACUAAGAAGCGGAUCAGUAGAAACAAGAGAAAGCAAAGCAACAAAAGCUUAAAGUUAGAAAAGAGUGGAAAAAUAAAAAAAAUUCCUCAUGAAAGAUCAGAAAUGGGGAGACAGAGGGAGAGAGAAAAUAGAAAACUAACUCAGAGAAAACUCACUCAGAGAAAACUCACUCAGAGAAUACUCAGUCAGAGCCGGAAACCGGGCGAAAGUCAGAUAAAAAUCCUCGCUCAGAUCAAACUAUAGAUCAAAAAAA'
p258
aF0.9070422535211268
aa(lp259
S"Cat's Toy 2"
p260
aS'AAAAGAAGGUUCUAAAAAAACAAAAAAAAAAAAAAAAAACGGAACGAACUAAAGAGAAACGGAAACGAAAAAAAAGCGAAAAAUUGAAUUUUCAAAA'
p261
aF0.979381443298969
aa(lp262
S'Zigzag Semicircle'
p263
aS'AAAAGAUACGUCUUUAAACGUGUCAGUAUAGAAA'
p264
aF0.9411764705882353
aa(lp265
S'Short String 4'
p266
aS'AAAAAAGGAGGAUGCAAAGAAGGGCACCAAAAGGGCGGCAAAGAGCAAGCUAAUGCAAGCAAUGAAUAGUUACCCCAAAAAAAAAAAAAAAAAAAAA'
p267
aF0.9381443298969072
aa(lp268
S'Gladius'
p269
aS'GGAAACAAAAAAGGAAAGAAGGGGGUAAAACGAGUUAAGGAUUAAAGGAUCAGAUAUAAGCUAUCAGACUGGUAUAGGUCAUGACAUAUAUCAUACUUGCGGGACAGUUAAGCAGAAGAUGAAAUAUCACUGACUAACACUCUCCAAUGUAACAUAUAUGAGCUGAUUAGAUUCAGAGCAGUCCAUGCUAUCAGACAAAGAGACAAUCAGAAGAUGGAUGAUGAAAAGAUCUGUCGAUAUUGAGUAUACCAGCUCACGAGUGCGAGAAAUCUCAAAAGAGGUUAACUCCAACUCAGGAGCAAGUAUAACCAAUAUCCUUUGGUCAUAACAUCUCAAGUCACACGAUUGUGAGCAAAAGCUCUAACUCACGUAAAGAACGCGACGAACAAAAUAAGAAAAU'
p270
aF0.915
aa(lp271
S'Thunderbolt'
p272
aS'GCAACAUUGAAAAAAAACGGUAAGUCGUCCCAUAAAGAAGAUAUAUCGAAAAAAAACCCAAAAAGCUCAAAAAGAGCAAAAAAAGAAACCAAGCAAAAAAUGAAUAAAAAAGAAUUAGCAGGCAAAAAUAAAAAACAUCAAAAAGGGAAAAAGGAGCUAAAAUUGCAACAAAAACCCAUCUACAAGAAAAAAAUAAGAGCAAAGCACAAGAAAAAAACAAUUAGGAAAAAAAAGAUGACUCGCAUGUGAAAUAUAUGAGCAAGCAAAAAAAAAAAGGAAUGAAAAAAAAAGAAAUUAAUGUAUUAGAAAACGAAAAAAAACAAAAACUAAUGAACUAGAAAGAUAUAUCAAAAAAAUCGGCAAGCAGAAAAAGAAAAAAACACAAUGAAGCA'
p273
aF0.9591836734693877
aa(lp274
S'Mutated chicken feet'
p275
aS'AAAAAAAGGAGCUGCAAAGCUGCAAAGCAAUCUUCGACACGAUGAAACUAGAAAAGCGAUUUGUAGAAGUUCCAAACCAUCAAAGAGAUGCUCGAAAAAA'
p276
aF0.82
aa(lp277
S'Chicken Tracks'
p278
aS'AAAAAAAAGCUAUAGCAUGGAAACGUGAAGAUUGAAAAAUUGAGAACGAAAGUUCCUAUAGCGAAAGUAACGAAGGCCAUGAAGAAGCUUCUUAUCUAAACGAUCGUUAAUAAAAA'
p279
aF0.9482758620689655
aa(lp280
S'Looking Back Again'
p281
aS'GAGAAGUUAUAGAAAAAGAUUACUAUGUGAUCGCUAUAAGACCGGAAGCGAAACGCCCGAUAUUGAAAGAUCAAAGGAUCAAAACGUUAAAGCCAAAACAAGAUCGAGAAAAAGGUAAAAAAUUAUCAAAAAACACGAUGCUAUGGAAACUGUAUAACGAAACGUUAGAUAUAGUAAGAAUAAUAAUAAGAAUAUCAAAAGAUGAACGGAAGGAUCAGCGAGAAAACUCAAUAUAUCAAAGUAUCGCUCAGUCAGACAUUAAAAAAGUUAGACAAAAGAAAGAUCAAAAAGAUCGUUAAAAGGCAUAUGAAAGAAAAAAGCCGUAUCAAAAGAUACGAAGUGGUAAAGCGGACAGUCUCUGUCAAUACGCAAAGCUAUUCAACGAACUC'
p282
aF0.8688946015424165
aa(lp283
S'Multilooping 6'
p284
aS'AUUGUGUGUUGGGAGGAAACUCUUGAUCAUCAUUCAUCGGCGGGAAUAGUAAUCUAUUGACACUAAUGUGUCGUCGCAAGUA'
p285
aF0.926829268292683
aa(lp286
S'Cesspool'
p287
aS'GGAUAAGAAAACAAAAGAAUAGAGAGAAACUCAACAAAAACAUAAGAAUAAAAAAACAGAAUAAAAAAACAAAAAGUAAUUAAGAACAAGGGUAAAAAAAUAAGAAAACAAACACAAAGUGAAUAAGAACUCAAUAAGAAAAUAAGGAAAUUAAUAAAGAAAAAGAAAACACAAACAAGAAAUGAAAAAAUAAUACAAUAUGGAGAAACUUAAAAAAAAGUAAAGAAAAAAAUAACAGAAUAAAAAAACGAAAAGAAAACGAAAAUAAAACUACUAAAAAAUAUGAGAUUAGACGGAAAUUGACCAAAAACCCUAGAAUAAAAAAACACAAUAAAAAAAGAAAAAGAAAACACGAUGC'
p288
aF0.7430167597765364
aa(lp289
S'Hoglafractal'
p290
aS'AGGAGGAAAACAGAAAAGCUAGGAAAAACUAGCCUGUUUAUAAAAAUAGAAAAACUAUUAUGGAGAAAAGAAAACCUGUGAGAUAAAGAACAAAGAUGGAAAAACAUCGUUCCAGAAGCGAAAAACGCCUGACACCUAAUGCGGAAUAGAAAAUAGAAGACAAAAAGGUCUUGCGAGAAAAAAUCCGGACAAAACUUAAAUAGAAAAAGCAGCAAAAAAGCGUCAGAAAAACUGUUAAAGGCAGAUAUCAAAAAUUAGGAAAAACUGUGAAAAACGAAACAUAUACGAAGUAUAUGGAAAAAAGAUAUCAAAAAACUAUUAAAAACUAUGAAAAUCAAAUCAACAAAGAAUAGUUCGAAACAAAAAUCGGAAAGUCCGUCUGAAACAGACAAGAACAUAC'
p291
aF0.905
aa(lp292
S'Bullseye'
p293
aS'AAAGAGGCUUCAAGAUCAAGUUCAAGGAGUAAGAUCCACUAUCCUCAAAAAAAGGACGUUUAAAGAGCAUGAUCAAGGAUCUAGAGCAAACAUCGUAAAAAAAAUCGGAGAUUAAGAUCAGUAUGAAACAUGAAAAUCGAAGGUUCCGUAAAAAAACUCGAUGAAACAUCAAUAUCGAAGGUAAAGAUCAAAGAUCGGGAAA'
p294
aF0.8415841584158416
aa(lp295
S'Shooting Star'
p296
aS'ACAUACGAUAGAACUACUAAGAGUAUGAGAGAGUCAGGGAAUUGCGGACCUCACAAAUCCGUGUAGUUCAAAUGGAAGACAUGUAGGGAUGAUCAGAUAAUAUACGAAAAGAGAUAACAUCGAAUCACCUCGAAUAAGUGACGGAAACAAAAUUUAGUUGUGGGAACCGCGAGACGCUAUGCGUCGUUGAAACUCACUUCACAUGAGAUCAGAAGAAAGUUGUAGGAACUACAGCGGAUAUAAAAAAUCUAUCGACAAUCGAAGAUUGUCAGUGAGAAACUCACUAUGUCUUAACAAAGGGAAAGAGAAUUAAGAAACGUGAUAAAAACGACGCAGUUCACUAAGACAGAACAGGAGGUAUGUA'
p297
aF0.8186813186813187
aa(lp298
S'Teslagon'
p299
aS'AAAAAACGAAAAAAAGCAGGAAAAAAAGCACCUAAAAAACAAAAAAUAGAAAAAAAAAGAAAAAAAAAAAAAAAAUCAGAAAAAAAACCACGAAAAAAAGAAAAAAAAAAAAAAAAUCAAAAAAACGGCGAAAAAAAGUAAGAAAAAAACAAAAAAACUAAAAAAAAAUCAAAAAAAAAAAAAAGGAGACAAAAAAACCAGCAAAAAAAACAAAAAAAAAAAAAAAGUAAAAAAAGUAGGGAAAAAAGCUGCGAAAAAACAAAAAAACCAAAAAAAAAGAAAAAAAAAAAAAAAAUCUGCAAAAAAACCGGGAAAAGAAGUGAAAAAAAAAAAGUAAAAAAAAAAAAAAAACAGCAAAAAAACCAGUAAAAAAACCAAAAAA'
p300
aF0.93717277486911
aa.