(lp0
(lp1
S'Simple Hairpin'
p2
aS'GAUACAAAAAAGUAUC'
p3
aF1.0
aa(lp4
S'Arabidopsis Thaliana 6 RNA - Difficulty Level 0'
p5
aS'GCAUAUCAAAAGAGAAAAAAAAAAACUCGCACUGGUGGGAUAUUAUAAUAAUAUGAAUAUCAUAGUAAAAUCUAUGUUUCAUAUUUAUUAUAAUAUCAGACCAGUGCAAGAUAUGC'
p6
aF1.0
aa(lp7
S'Prion Pseudoknot - Difficulty Level 0'
p8
aS'GAGCAGACAUCAAAAGAUGCUGACUCAAAAAAAAAA'
p9
aF1.0
aa(lp10
S'Human Integrated Adenovirus - Difficulty Level 0'
p11
aS'GAUGGUCGAAGAAAUGCAUAGAAAUAAAAAAAGCUCCACAAGGCUAUAUAGCGGUGCAAAAGGGAUAUGCGAUGUAAAAAAUCAUUGUAUAUAAAACCCGCACUAAAGGCUGCCCAAGUUGUGAGAUUUACCUAAAAAUGGUAAAGAGCAAAAAAAAAAAAUUAUGCUUUUCAAAAUUUGACAAAUAUCAAA'
p12
aF1.0
aa(lp13
S'The Gammaretrovirus Signal - Difficulty Level 0'
p14
aS'AAGAGUGGCAUAGAAAACUAUGCUGUGCAAAAAAGAUCAAGACACAUCCAUGUGAAAGCAUGUAAAGAUGGUCGAUCAAGCACUGGUGAAAGCCAGUGCAA'
p15
aF1.0
aa(lp16
S'Saccharomyces Cerevisiae - Difficulty Level 0'
p17
aS'UCAUUUAUACGAAAAAAAGCGUAAGGGAAAAAAAAAAAAAACCGAAUCAUAGGAAAAAACUAUGUAGAUGAAAAAGGAUAGUAAGUUCGAAAAAAAGAGCGGGAUAAAAAAAAAACCCCAAAAGCAGCAAAAAAGGUUGUGCUAUCCAAAGUCAUAUCAAGAGCUAAAAAAUGUUCCAAUUCGAAAAAGGAGUUGCAACGAUACGAAAAAAGUAUCGAUAUGGAAAACCCUACAAAGGGCGAAAAAAAGCCCCUUUUCGAAAAAAGAGAAGCAACCCAAGAAAAAAGCUUGGUGUAGGGGAAAGCCUAUGUAGAUCAAAAAAAGGGUCCGUCCCAAAAAAGGGGGCGAAAACAUUCGAAAAAAGAAUGCAUAGGCGAAA'
p18
aF1.0
aa(lp19
S'Fractal 2'
p20
aS'AAAAAUCGGUGCGUAGAACAUUUAAGUCGCGGAAAAAAAAAACCGCUUCACCUAAAAAAAAUGGUGUACUCUGAAAAAAAAAGGAGGUCUUAGAUGUUAAAGACAUAUACGAGCAUGAAAAAAAAAACGUGAAGAUCGAAAAAAAAAGAUCAAGGCAGAAAAAAAAAUGCCAGCGUGUAUGUCGAAGACAAAUAAGGUCUUGAAAAAAAAAACAAGUUGAGCAAAAAAAAAAGCUCUACCUCAAAAAAAAAGGAGGAACUUAUUUGUCAAUUGCAUUGAGAAAA'
p21
aF1.0
aa(lp22
S'G-C Placement'
p23
aS'AUCCAAAGGAUA'
p24
aF1.0
aa(lp25
S'The Sun'
p26
aS'GUAACUAUAUCAAAGAUAAAUAGUGAAAAGUGAAUGGAUCAAGGAUUAACAGUUUGAGCAAACAGCGUCGAAGGCGAACUGUUAAAGUACAGAGUAUCAAAGGGGAACUCGUAAAUGAGACGGGCUUAAAAAGUAACCGCUCUAGCACAGACCCCGGAACGGGAAGUUGUGAAACAGACAUUCUCAAAGAGAAAAUGCUGAAUAACACAGUCUAGAAACUAAACUGGUGUAAUACACAGGGACAAAGUCUAACUGGUG'
p27
aF0.937984496124031
aa(lp28
S'Frog Foot'
p29
aS'AAAAAAAAAAGUUCGAAAGAACCAUUGAAAGAUGCUGGGAACCAG'
p30
aF1.0
aa(lp31
S'InfoRNA test 16'
p32
aS'GCAUAGGGCAGAUACAAAAGUAUCAUGACGCUAUGC'
p33
aF1.0
aa(lp34
S'Mat - Martian 2'
p35
aS'GAUCAAAAGAUCAAAGCAUAUCAAGCAUAUCAAAAAAAGAUAUGCGAUAUGCAAAGCACUGGUAAAAAAGCAUAUCACACAUAGAAAAAAACUAUGUGGAUAUGCAAAGAUAUUCUAAGAUAAAAAAAAUAUCUUAUGAAUAUCAAAAAAGCCAGUGCAAAGAUAUUCAAAGAUAAAAAAAAUAUCUUUACGAAUAUCAAACAUCAAAAGAUG'
p36
aF1.0
aa(lp37
S'square'
p38
aS'GCACUGCCACAUCCACAUACCAUGUCAAAGAUAUGAAAAGUAUGUGAAAAGAUGUGAAAAGCAGUGC'
p39
aF1.0
aa(lp40
S'Six legd turtle 2'
p41
aS'AAAAUGCGAUUAGAAUGAUAAAUGAAAGGGAUCCGAAUCGUAAGGGAAACUGAACUGUAAGGAAAUUGAAAAGAAAUCUGAAAAAAAAAAAAAAAAAA'
p42
aF0.9387755102040817
aa(lp43
S'Small and Easy 6'
p44
aS'UGUAAAAAAGUUGAUCUAAAAAAAUGUGUA'
p45
aF0.8666666666666667
aa(lp46
S'Fractile'
p47
aS'AAAAAAAAAAAAGCAAAAGCAAAGGAAAGUGAAAGCAAGCAAGGCAAAGGCAAAGCAAGCAAAAGCAAACCAAGGAAAACCGAAAAAAAAAAAAAAAAAAAAAAA'
p48
aF1.0
aa(lp49
S'Six legd Turtle'
p50
aS'AAAAAUUGAAAGGGAAAUCGAAUCAUAAACGUAAAGCUAAGAGGAACUGUGAUUGCAAAAUAAAAGUAAAAUGUAAUCGAAAAAAGAAAAAAAAAAAAAAAAAAA'
p51
aF0.9619047619047619
aa(lp52
S'snoRNA SNORD64'
p53
aS'GCAUAGAAAAAGAGAAAAGAGAAAGAUACAAAAAAAAAAAAAGUAUCAAAACUCAACUCAACUAUGC'
p54
aF1.0
aa(lp55
S'Chalk Outline'
p56
aS'AAAAAGAUCAGAUCCAAAAGGCGUCAGACACAGAAAACUGGUCACCAGUGAAAACACCUGGAGGCACAAAAGUGACCGAUCGAAAAAAAAAAAAAAAAAAAAAA'
p57
aF1.0
aa(lp58
S'InfoRNA bulge test 9'
p59
aS'GCAUGUCAGAGAGAGACUUUGAAAGCAAGGUCCCCGAUAUGC'
p60
aF1.0
aa(lp61
S'Tilted Russian Cross'
p62
aS'AAAAUACUACCGUAAAGGCUUAAAUACUUUGAAAAAGGGGAUCUAAUUCUCCAAGCGGAAAGGCUGUCGCUACAAAGGGGAGAGUUAAAAAAAAAAAAAAAAAAA'
p63
aF0.9238095238095239
aa(lp64
S'This is ACTUALLY Small And Easy 6'
p65
aS'AAAAAAAAAAAAAAAAAAAAAAAAAAAAAAAAAAAAAAAAAAAAAAAAAAAAAAAAAAAAAAAAAAAAAAAAAAAAAAAAAAAAAAAAAAAAAAAAAAAAAAAAAAAAAAAAAAAAAAAAAAAAAAAAAAAAAAAAAAAAAAAAAAAAAAAAAAAAAAAAAAAAAAAAAAAAAAAAAAAAAAAAAAAAAAAAAAAAAAAAAAAAAAAAAAAAAAAAAAAAAAAAAAAAAAAAAAAAAAAAAAAAAAAAAAAAAAAAAAAAAAAAAAAAAAAAAAAAAAAAAAAAAAAAAAAAAAAAAAAAAAAAAAAAAAAAAAAAAAAAAAAAAAAAAAAAAAAAAAAAAAAAAAAAAAAAAAAAAAAAAAAAAAAAAAAAAAAAAAAAAAAAAAAAAAAAAAAAAAAA'
p66
aF1.0
aa(lp67
S'Shortie 4'
p68
aS'GCGAAAGCAACGAAAGU'
p69
aF1.0
aa(lp70
S'Shape Test'
p71
aS'AAAAAGGGAUCAAGACACAAAAAAAAGUGUCAAGCCAGAGACAUAGAAAAACUAUGAGAUCAAAAGAUCACUCGGCAAGAUCGCAAAAAAAAAAAAAAAAAAAA'
p72
aF1.0
aa(lp73
S'The Minitsry'
p74
aS'GGAUAAAUGAGUAACUUUGAAAAACAGAAAAGGGGAAAAAAAGCCCACUGGCAAUCUCUUCC'
p75
aF1.0
aa(lp76
S'stickshift'
p77
aS'AACACAUCCUAAAAAAGAGAUGUGAA'
p78
aF1.0
aa(lp79
S'U'
p80
aS'AAAAAGAUACAGAGAGCAGACACAUUUACUAAUGUAAAUGUGCGCCCGUAUCGAAAA'
p81
aF1.0
aa(lp82
S'Still Life (Sunflower In A Vase)'
p83
aS'AUUGAGCAAUGUGGAAAAGCCAUAAACAGGGAAAACCUGAGCAGAUGAAAAGUCUGAACUUGCAAAGUAGGAUAAGUGAAAAGCUUCGUACCCGGUAAAUUUGGGGGAUAUUAUAACAGUAUAAUAUUCCAGAGAAAAAAUUCUGAGAGACGAAAAAAAAAAAAAUUCAAAAAAAAAAAAAAAAAAAAAAAAAAAAAAAAAAAAAACCGGAGUGAAAAAAAAAAAAGUUUCCAUUGAAAACAAUGAGGAUAUUAUAUUGUUAUAAUAUCGAGGGAAAAAAAUUCCCAACAUAUAAAAGAUAUGAACGCAGAAAAACUGUGAACAUGGGAAAACUAUGAACAUAAAAAAUUAUGAACAUACAAAAAGUAUGAGUUCUAA'
p84
aF0.9629629629629629
aa(lp85
S'Quasispecies 2-2 Loop Challenge'
p86
aS'AAAAAGAUCCAUUUUGAUCAAAAGAUCUUAAUGACAUCGACAAAGGAGAUGAGUUCAGCUGCAGGAAAACUGUGGAAGAGCGAUCGAAAAAAAAAAAAAAAAAAA'
p87
aF1.0
aa(lp88
S'Corner bulge training'
p89
aS'AGCAUAGCAUAGAAACUAUGAAAACUAUGCA'
p90
aF1.0
aa(lp91
S'Spiral'
p92
aS'AAAAAGAUCAGCAUAGAGACAGAUACAGAUCAGAUCACUACUACUACUACUACUAAAAAAGAGAGAGAGAGGAUCGAUCGUAUCGUCCUAUGCGAUCAAAAA'
p93
aF1.0
aa(lp94
S'InfoRNA bulge test'
p95
aS'AAAAAAAAAAAAAAAAAAAAAAAAAAAAAGGCUGAAAAAGGCUAAAAGGCUAAAGGCUUGGGCUAGGGUAAAAAACACCAGGACCUGAGACCAAAAGACCAAAAAGGACCGAAAAAAGACCA'
p96
aF1.0
aa(lp97
S'Worm 1'
p98
aS'AAAAAAAGGGGGGGAGAGCAGAACAAAAGAUCAGCACGUGCGCGC'
p99
aF1.0
aa(lp100
S'just down to 1 bulge'
p101
aS'AAAAAGGCUCGAUACAAAAGUAUCAGAGAAAACUCAGGACCAAAAGAUCAGAGAAAACUCAGAGAAAACUCAGAUCAAAAAAAAAAAAAAAAAAAA'
p102
aF1.0
aa(lp103
S'Iron Cross'
p104
aS'AGAUAGAGAAGGCGACACAAAGUGAGUCGAAAGAUGCUCAAAGUGACAUAAAGAUGAUAGAAAGUGAUGUGAACACUCGCUAAUGCGUGCCAAGGGCUCUGGAACUCGUGUAAAAUGAGUCGA'
p105
aF0.8780487804878049
aa(lp106
S'loops and stems'
p107
aS'AAAAAGCAUAUCAAAGAUCAAAGAUCAAAGAGCAAAAAAAAAGAUACAAAAAAAAAAAAGUAUCAAAGCUCAAAAGAUCAAAAAAAAAAGAUCGAAGAUCAAAGAGAAAAAAAACUCAAAGAUCAACUAAAAAAAGGAAGAUAUGCAAAAA'
p108
aF1.0
aa(lp109
S'Water Strider'
p110
aS'AAAAAACUCUUAGGCGGAGGGAAAAUGUGGUGACAAAGCUUUUCAUCGGCGUAAAAGCGGUUGCUGCGCAUUGUCGAGGUUCGAAAAAAAAAAAAAAAAAAAA'
p111
aF0.8932038834951457
aa(lp112
S'The Turtle(s) Move(s)'
p113
aS'AAAAGGAAACUACAACAGCCUAUCAAAAAAAAGGAUAGGCUGAAAGCCACGAAAAGUUGAAAAGAAGAAAACUAGAACGUAGAAAAAAACUACGAAAAUAGAAACAAAAAUGCAAAACCGGAAACGGAAAAGCAUAGAAAAAAACUAUGCAAAAUGGAAAGCAAAAAAACCUAUCAAAACAGAAAAAAACUGGACAGAAAAAAAACUGGAACAUAGAAAAAGCUAUGGAACGUCAAAAAGACGAAGAUAGGAAAAAAAAAGCAAAAGCAAAAUGUAAAACCAAAAAAUGUUGAAAAAAAAAAUGAUGAAAAAACUA'
p114
aF0.9873417721518988
aa(lp115
S'Adenine'
p116
aS'GAUACAGCAUAGAGCAUAGAGCAUAGACAUAUCACAUAUCAAAAGCAUAGAAAAAACUAUGCAGAUAUGGGAUACAAAGCAUAUCAAAGAUAUGCGUAUCAGAUAUGAGAUAGCUAAUUGAAACAAUUAGAAACUAUCACUAUGCAAAACUAUGCAAAACUAUGCAAAAGUAUC'
p117
aF1.0
aa(lp118
S'Tripod5'
p119
aS'AUCCCCGUUCGAAAAGAACGUACGAUAAGUACGGGGUA'
p120
aF1.0
aa(lp121
S'Shortie 6'
p122
aS'GUGAAAGCAGAGAAAUCGGCGAAAGCAAGGAAACU'
p123
aF1.0
aa(lp124
S'Runner'
p125
aS'AAAAAGAUGGGGUGGAAAAGUCGAAACGACACACCGAAGAGAACGGCAGAAACUGAAACCGGAGGGCAAAGCUAAACUCACUCGAAGCAUAACACAAAAGUGCUGCACAUCAAAAA'
p126
aF1.0
aa(lp127
S'Recoil'
p128
aS'AAAAACCGAGGACGGAGCUAUACGAAAGAACGUAGUUAUUCUUGGCUGAUUGGGUGCGACUCGGGAAAAAAAAAAAAAAAAAAAA'
p129
aF0.9764705882352941
aa(lp130
S'[CloudBeta] An Arm and a Leg 1.0'
p131
aS'AAAAAGAGAGAGCCAAAAGGACUCCGCACUGAAAGGGCGACUCGAAAAAAAAAAAAAAAAAAA'
p132
aF1.0
aa(lp133
S'[CloudBeta] 5 Adjacent Stack Multi-Branch Loop'
p134
aS'UUUGCCAGCUAAUGUUGCGCGCUAAUGUGCGGAUACGAAAGUAUCGAUCGAAAGAUCGCAGAA'
p135
aF1.0
aa(lp136
S'Triple Y'
p137
aS'AAAAUGGUAGAGAAAUGUAAUUACCCGUGAAAGUCCGUAUAGAUAGUACGAAAGUGCGACCGAAAGGUCGGUUUACCUAAAAAAAAAAAAAAAAAAA'
p138
aF0.8969072164948454
aa(lp139
S'Misfolded Aptamer'
p140
aS'GAUGAAAAAAGGCGGAAACCGGGCAAAAGCAAAAAAAAACCAAAAGCAUC'
p141
aF1.0
aa(lp142
S'Flower power'
p143
aS'AAAAAUUCCGCUCGAAGGCCACGGGCUUCAAAAACGAAUAUCUAUGGUAAUGCUCUAUGACCCCUGGGCUAAAAGGACGGGAGAAAAAAAAAAAAAAAAAAA'
p144
aF0.8431372549019608
aa(lp145
S'Kudzu'
p146
aS'AAAAUGUGUGUUAGGGCGUACAGGAUCCAAGGUGAUGUCAAAUGAAAACAAAUUUAACUAAAAUGGAAAGACGCUACUUGCUAAAAAAAAAAAAAAAAAAA'
p147
aF0.900990099009901
aa(lp148
S'"1,2,3and4bulges"'
p149
aS'AAAAAGGUUUUUCUAGAAAUGUACGUGAGGGUAAAGAUUGAGAUUGAAUGCGCAUAUAAGGCUAUUAGUGUGAAAACAAGCGAUCGAAAAAAAAAAAAAAAAAAA'
p150
aF0.9047619047619048
aa(lp151
S'medallion'
p152
aS'GCAUAGGCAUAACAAAAGUUAUGACAGAAAAAUGACAUGAAAAUGAAGGUGCAAAAGAACCUAACUAAAGAGGGGACAGGAAAACCUGUCAGCGGAAACGACCUGGAAACAGGCCUCUCAAAGGAGAGGAUAAAAAAGCGACGGAUCAAAAGAUCCGGCAGGGACCUGGCAUAAAAGUGACAUAUCAAAAGAUACGAGAGAAAACUUACGGAACAAAGGUUCUGACACAAAAGCGACAAGAAAUUGACAUAUCAAAGGAUAUGACCUAAAGGGCAUAUAAGAAAACUUAUAACACAAAACUGGCACGAAACUGAGAUAUCAAAAGAUAUCACUGUGC'
p153
aF0.9376854599406528
aa(lp154
S'[RNA] Repetitious Sequences 8/10'
p155
aS'AGGAAAAAAGCAAAAAAGCAAAAAAGGAAAAAAGCAAAAAAGCAAAAAAGGAAAAAACCAAAAAACCAAAAAACCAAAAA'
p156
aF1.0
aa(lp157
S'Documenting repetitious behavior'
p158
aS'AAAAAAAGUAAAAAAAAAAGAAAAAAAAUGAGAAAAAAAAUUAAAAAAAAAAUGAAAAAAAAGGAAAAAAAAGGGAAAAAAAAGGGAAAAAAAAGUAAAAAAAAAAACGAAGAAAAAGUAAAAAAAAAGGGAAAAAAAGUGAAAAAAAAAUGACCAAAAAAUGAAAAAAAAAGAAAAAAAAAAAAAAAAAAAAUAAAUAAAAAAGUGUAAAAAAAAUAGAAAAAAAAUAAAAAAAAAGAAGAAAAAAAACAGAAAAAAAACGAAAAAAAAAGAGAAAAAAAAGUGAAAAAAAAGGAAAAAAAAGUAAAAAAAAAAUUAAAAAAAAACCAAAAAAAAACUGCAAAAAAAAGGUAAAAAAAGCGCAAAAAAAACUAAAAAAAGCAGAAAAAAAUACGCAAAA'
p159
aF0.88
aa(lp160
S'7 multiloop'
p161
aS'GAUGCCCUCUAAUGGAAGUUACCUAAUAGUGGACAACUAAUUUACUGGGCCAAAGGGCCCCAUAGAAAGCUAUCCGUUGAAAGUAUGCGAUC'
p162
aF0.8695652173913043
aa(lp163
S'Kyurem 7'
p164
aS'AAAAUGCGGCUAGACGAAAGUCUCGAAAAUGUGGGGGGAAAACUCUGGCGUCAAAAAGGAUAAUGGCGAUAUUAGGGGCUGCUAAAAAAAAAAAAAAAAAAA'
p165
aF0.9607843137254902
aa(lp166
S'JF1'
p167
aS'AUUGCUACUUGACAUACUAGUCAGGAAAGCAUAGAACAUAGAAACAUAGAACAGAUCAGAUAUACUAAAAUAAAAAUAUUUUAGUAUAUCAAGAGAAAACUCACACAUAUACAAAAGUAUAUGUGGUCAUAGAAAACUAUGUGAUUUGACUAUGACUAUGACUAUGCGAAGCACGGGUAAAAGACCACGUGCAAGAUAUUAUAGGAUUAUAAUAUUAGAAAACUAAUAUUAUAAUCACUAUAAUAUCAAAUAUACAAAAAAGUAUGCGCAUGUACAAAAAUGUACAUGCGGAUCAUCUAAUGAUGUACUGGCAUGUAUGAGAUCACAUACGGAAAACUGAUGGAUCUGCAGUGGUAUAAUUACCAGCUGCUUAAGAUAGACAAUCGA'
p168
aF1.0
aa(lp169
S'multilooping fun'
p170
aS'GGGAUACAGGAAAUAAUGAUUUGCUUAUAAAAGGAC'
p171
aF0.8888888888888888
aa(lp172
S'Multiloop...'
p173
aS'GCGCAGACCUAACUAAUGUUUGAGAAAACUCGGUGACAGUGUAGAAGAAAUUCAUUGAAAACAAUCAGUAAAUUGAAGACAUAGAUAAAAAAAUCUAGGAGAAAUCCGUGC'
p174
aF0.9459459459459459
aa(lp175
S'hard Y'
p176
aS'AAAAUGGUUCCUUGCAUUUCGAAAGAAAUGCCCGGGGCAUACUACAAAGGUGGUAUGUCAACCUAAAA'
p177
aF0.9705882352941176
aa(lp178
S'Mat - Elements & Sections'
p179
aS'AAAACGAGUGGAAAUAGAUAAGGUAUCAGCACACUCUGCGAGAAAGCCCAAAUGGGGGACGAUGAAAACGUAUCGGGGACGGUUCGAAAAAAAAAAAAAAAAAAA'
p180
aF0.9809523809523809
aa(lp181
S'Chicken feet'
p182
aS'AAAAAGAAGACCAAAGCGGUGAAGCAGAUCGCCAAUAGAUGUAAAAGAUGAAGAAUCUUGGUAAAAA'
p183
aF0.7910447761194029
aa(lp184
S'Bug 18'
p185
aS'GAUUGGAGUUCGAAUUAAUGAGAAAAUCAACGUGAUCCUAGCAAAUAAAUACA'
p186
aF0.8490566037735849
aa(lp187
S'Fractal star x5'
p188
aS'AAAAACACUUAUCUAUCUCGAAAGAGGGACAUCAAAAGGUGAACAUCAAAGGGUGAGAGUCAAAAGACUAUGAUAGGUGAAAAUGACCUAGCAAGAUCAAAAGGUCAACAGCAAAAGUUGGACUUCAAAAGAGGAGCUUCAAAGGGGGAAGCUAGGUUUAAAACAGAUGCGAAGAUCAAAAGAUCAACUACGAAAGUGGAAAUCCGAAAGGGUAGCGACAAAGGUUGAGCGCAUCUGAAAAUCACAUAUCAAGAGCAAAAGUUCAACCUGAAAGCAGGAACGAGAAAACUUGAAUGUUAAAAAACAGGGAUAUGUGUAAAGCUCAUACCAGGAUCGAAAGAUCAACUUUAAAGGAGGAAUAUCAAAAGAUGAACAUCGAAAGAUGAAGGUAUGAGAAAAA'
p189
aF1.0
aa(lp190
S'Crop circle 2'
p191
aS'GUUAGUCAAAACCAAAAAGAAAAAAAAAGGAUAAAAAAAAAAAAAAAAAAAAAAAAAAAAUUCAAAAAAAAAAAAAAAACGAAAAAAAAGGAAAAAAGGGAAAUACAAAA'
p192
aF0.9454545454545454
aa(lp193
S'Branching Loop'
p194
aS'UUGUACAAAAAAAGGGGUAAAAUUACUAAUGCGUAAAAAA'
p195
aF0.95
aa(lp196
S'Bug 38'
p197
aS'GAUUGCGUUAUCGGCACAGACGUUGAAGUCACUUAA'
p198
aF0.9444444444444444
aa(lp199
S'Simple Single Bond'
p200
aS'AAAAAAGAAAAAAAAUGCAUGAAAAGUGUUAAAAAAAGCAAAAAAAAAAAAAAAAAAAAAA'
p201
aF1.0
aa(lp202
S'Taraxacum officinale'
p203
aS'CGGCAAAAGACCGGCCGAAAAAUACGGACUCCAAAGGAGUGAGAGUAAAGAACACGGUACGAAAGAUACAAGGCAAAAGACCUGGUCAUACUAGCCGACAUAGCAGGAACUGCAUAUGUCGAGAUACAAGACAUAUUACUUCACAUACAAAGUAUGUGUGUGAUAUGUCGAUCACAUGCCAAAGGUAUGGAUCGUAUCAAAGUUAGUAUGGCUUAGCGAAAGACUAUUAACUAAAGACUGAUAGAAAAAUACUGAGAUCAAAGGAGAGACAGCAAAAGACUG'
p204
aF0.9078014184397163
aa(lp205
S'Headless Bug on Windshield'
p206
aS'AGACCCAAAAAUGUACAGAGCACAUAAAAAAAAAAAAAAAAAAAAAAAAGAGGAGCAAAGUGACCGAAGAGUGAGGAAACUCAAGGAAAAAAAUCGAAAGAGAAAAAGCCGGUCAAAAAUCCGCAGCGGAAAAAGGGGAACUAAUGGUGGCGGAGAAAAAAAAAAAAAAACUCGAGCUGUGCGGAGACCCAACGAACUUA'
p207
aF0.99
aa(lp208
S'Pokeball'
p209
aS'AAAGCUUCACAAAACCAACGGACAGUUCUUGGGGACGAACUUGGUGAACCAAGCAACUGAGACGACCUGAGUCUGACGAGGGUGAGGCAAAAAAAAGCAUUUCAAAACGAACUAACCGAACGUGGUAAAUGACUUGGCGACGCAACGAGCAGAGAGUAACUGAGACUGGAGCUGGAAGUGCAAA'
p210
aF0.9891304347826086
aa(lp211
S'Variation of a crop circle'
p212
aS'AAAGGGAAAAGGAAAAAGUAAAAUAGACCGAGGAACUAGGAAAAAAUGAAAAACUAAGAAAAUCAAAAAAAAGCCAAAAAAAAAAAAA'
p213
aF0.9318181818181818
aa(lp214
S'Loop next to a Multiloop'
p215
aS'AAAACAUAGCGAAAAAAUGCAUCUUAAAAGAGAUGGGAAUAUCUAAUGAUAUUCAGGAAAAAAGUUAUGUUGA'
p216
aF0.9726027397260274
aa(lp217
S'Snowflake 4'
p218
aS'CUGUAAAGCAGCACAGGUAAAGGCAUUAAUAGGGAGAGGAAACAUAUUGGUUCAAAGAGCCAGAUCAAAGAUUCAAUACCGAAAGGCUUCUGAUAUGCGUGAAAGUCAUAUCAAUAAAGGUGAACAUCAAAGAAUGUCUAGUGAAAGCGCAUAGUUUUAUCAGAAAUGGUUGUGAGCGAAGUUCAACAACAAGGUUGGCAGUCGGAAACGAUAAAUAGUGGUCUACAAGGCGCGGGAUCCAAGAUUAACAGCAAGGGUGGUAUCCCGAAAGGGCAUAGAGAUAAGUGAAAUGAAUAGGAACAAGGUUCAACAUCAAUGAUGCUGUUGCGAAAGCGUAUCAUUUGGUGCAAAAGUCUGUGGAACAAAGUUC'
p219
aF0.8486486486486486
aa(lp220
S'Mat - Cuboid'
p221
aS'AAAUGAAAAGUAGUUAAAAGCAAUCAAAAGGCGCAAGAAAAACAAAGCACGUAAAACUCUCAUCAGAUCUAAAGCAUCUAAGCAGUGAAAAUAAAGUAGGCAAGCAACAAAAAGAUGACGAGUGUGCGCGAAAAAUUUCGCAUGCGGGAAAACACGCAAAACAUGGGAGGGGAGCCAGGAUGUAAAAGAUGGGCUGUUCGUCCUAUUGCAAAAAGGCAUUACCGCAUAACAUCUGUCGCAUUUGUGCAAUCGUUCUGUGGCAUGUGGUCGAGCUGGCUGAGUCUAGCAAACCAGUUGUUUGAAGCAGGCAAACAAUAGAAACCAAACUAGCGAAAUCUAGAUUCGCAAGCAAUGUCAAGCUCCGAACGCGAAAGUCGAGU'
p222
aF0.8394736842105263
aa(lp223
S'Misfolded Aptamer 6'
p224
aS'AAAAAUGUGGAAAAAGAGCGACAAAAGAUAAAAAAAAGUCGAAGGGAAAAGUUCAAAAAAACACUAAAAAAAAAA'
p225
aF1.0
aa(lp226
S'Snowflake 3'
p227
aS'GGACUGAAAAGAUUGGCGGAAACGUAAGAUCAAAUCGAGGUAAAACUUCAGACCAAAGGGGCCUAACGACAUAAUUGAUCGCAGGAAACUGAAGAUCGUAUCAAACCAAAACUGGAAAGCAAACGCCAUAAAGUGGUUACCGAAUUCUAGAAAAUCGAAGAUAGGAGGAACAGAAAGCCGCAGACUGAAAAGCACAAAGUGAAGAAAUGAUUGUCGAAAGCGGAACCUCACAUUAAGAGUCAUUCGCUGAGCAAACGCUAGUACUAGCCAAAGGGAUGGCGCAAAGCUGAAGACAGGAUCAACCGAAAGCCGCACAGUGAAAAUGACGAAGUCGUGAAAACAGUGCAGAAAACUGAAGAUCAGAUCAACAGAAAACCGCGAGUCAAAAGGUUC'
p228
aF0.7837150127226463
aa(lp229
S'Hard Y and a bit more'
p230
aS'AAAAUGGUUGGGCGCAGGGAAACUUGACUCUGUUUUGCGAGAUUGAAAGGUCAAAAUAUGAAAAAGUGUUGAGCUAAACACGAUCCCAAAAAAAAAAAAAAAAAAA'
p231
aF0.9716981132075472
aa(lp232
S'Mat - Lot 2-2 B'
p233
aS'AGAGGCAAAACUUGAUAAAACUUGGGCUGAAAGGAAAACCUGAGAUUGAGCAAAAUACGGACAUGCCAGGUACGGCAAGCAAAACUUGGGCUAAGCAAAAGUGAAAGUGCGGAGAAAACCUGAGGCGGGCCGAAACAAUCAAAACAGGGCGACGUGGGAAAAUUUAGCCAAAAAUGAAAAGGUGGACCUGUGAAAAGCAUCCGUGGAGAACCAUACCUUGGCAAAACUGGUGCUUGCGAAAAAGGAAACUUGUGAGAAAUUCUAAGGCUGAGGCUAGUAAGAAU'
p234
aF0.8943661971830986
aa(lp235
S'Shapes and Energy'
p236
aS'AAAAAGGAGAUGACGUGUAUAAAGAGUCGGAAAAGGACGACGAGCCACGAACUAGUAUAGAAGAAAACUUCGAAUGUUGCAUUAAAAAAAAAAAAAAAAAA'
p237
aF0.9603960396039604
aa(lp238
S"Spiral of 5's"
p239
aS'GAAAAGAUACAAAUAUACAAGGAUACAAAGGAUACAAAGAUACAAAGAUGCAACAUAGAAAUGAUACAAAGAUACAAAGAUACAACAUAGAAAGAUACAAAGAUACGACAUAGAAAGAUACGACAUAGAACAUAGAACAUUGGACAUAGAGAUACAGACAGCAUACAAAAAGUAUGUUUUUCUGUCAAAAAGUAUCGAAAACUAUGAAAAACGAUGAAAAACUAUGAAAAACUAUGAAAAAGUAUCAAAAACUAUGAAAAAGUAUCAAAAAGUAUCAAAAACUAUGAAAAAGUAUCAAAAGGUAUCAAAAAGUAUCUAAAACUAUGAAAAGGCAUCAAAAAGUAUCAAAAGGUAUCAAAAAGUAUCAAAAAGUAUGAAAAAGUAUCAAAAACAAAAA'
p240
aF0.9949622166246851
aa(lp241
S'Campfire'
p242
aS'AAAACAUUAUUAUAAAACUUCAAUAUCAAAAAGAUGGCACAGUAUCCGAUGCGAGGGCACUGAGCACUAUAACUUAAUGGAUUGAGGCGUUUCUUCAAACAGGAAACGUUGACAUAACCGGAAACGACUAGUGAAGGAGACCAGAUGCUUUUGGGGACACACAGACACUUAAUAGUGCUAGUGAAUGGCUCAAAGAGACCAAUUGCCAGAUG'
p243
aF0.9622641509433962
aa(lp244
S'Anemone'
p245
aS'AAAGUUGAGGAAACUCGAUGUUGUGAAAACAAUCAAAACUAAUGGUUUGGGGUGCAAACGCCCAUUUUUGAAAAAGAAAGUUAGAAAGCGAAUCCGGGGAAACCUGGGAUUGCUAAUGCAAUCACGUCUUAAUAGACGCAGUCCUAAUGCUUUGGAUCGUAAUCGAUCGGCGACUAAUGAUUCCGUUAGGAAGCUAAUUAGAAGGAAACUUUUG'
p246
aF0.9813084112149533
aa(lp247
S'Fractal 3'
p248
aS'AAAAAUAUCGAUUGAAAAAAGAGUAAAGGGGCAUGGUGGUUUAAUAAUAAAAAUAAUACGGAAAGAAGAGUCUCGAAAGGAUUAAGAGAACGAAAGUGUAAAGGUACUCGGGCCAAAAA'
p249
aF0.8487394957983193
aa(lp250
S'Kyurem 5'
p251
aS'AAAAUCCAGUCCUGCGAAAGUGGAAAAAAGGCUGCGCAACGGCUAAAUGCCACGUGAAGAAAAAAUUAGGCUGUCGGGAUCUGGUAAAAAAAAAAAAAAAAAAA'
p252
aF0.9423076923076923
aa(lp253
S'Snowflake Necklace ( or v2.0 )'
p254
aS'GACUUUUUAAGAUUAAUAAAGGACAAAAGGGACUAAAAAAGACUAAAAAAGUCUAAAAAAGUGUAAAAAAUAUUAUAUGGGAAAAACUCUAAAUGAGCAAAAAGCGCUAAAAAAGACUAAAAAAGACUAAAAAAGACGAAAAAUGGUAUUUAGAGAAAAACUCUAUAUGUGCAAAAAGCACUAAAAAAGACCGAAAAAGACCGAAAAAGAGUAAAAAGCUUAUAAUGAGGAAAACACAUUAGAAGCAAAAAGCACUAAAAAAGACUAAAAAAGACUAAAAAAGACUAAAAAAGAUUUGGAGACAAAAAGUCGAAAAGAUCAAAAAGGACUAAAAAAGACUAAAAGAGAAUUAAAUAGACCAAAAAGCAUCUCUAUGAUCUUGGAGGGUC'
p255
aF0.7892030848329049
aa(lp256
S'Methaqualone C16H14N2O Structural Representation'
p257
aS'AAAAAAAGGUUAGUGCAUGUAGCUGAAAAGCGGCUAAAGAAAACUCAGAGAGAGGAAACUCAGUGAGAGAAAGCUCGCGUUAAAAAUAUGGCACACUUAAGCAAUUAAAAAUAGCACAGUAGAACGCUUGGAAAGGGAAUCGAAAAAAGCUGUGAGUUGGAAAAGCUCACAAAAGUGCAAAAAGCCACUCACCAAAGAUUAGAAGUAGAGUUAGAAAGACAGAGCGAAAAGAGAAAACUCGCUCACAGAAAAUUGGCUGAGAGAAAACCCCCUGAGGUAAAAGCCACUAUUCUGAUAAAAAUUGGCGAAAGGUACGGAAAACUGGUAAUUCAGAUCAAACUAUAGACCAAAAAAA'
p258
aF0.8647887323943662
aa(lp259
S"Cat's Toy 2"
p260
aS'AAAUGGCUUGUUUAAAGGAGUUAAAAAAAAAAAAAAAAAAGUAUCAAAGGGAAACUGAAGCGAAAGCGAAAAAAGGGAAAAAACCGGCAAGUCUAAA'
p261
aF0.979381443298969
aa(lp262
S'Zigzag Semicircle'
p263
aS'AAAAAGCCCCGAGUAAAAAAUUAAAGGGUCGAAA'
p264
aF0.9411764705882353
aa(lp265
S'Short String 4'
p266
aS'AAAAAAUGAUGCGGUGAGAAAGUCCAUUUAAUGAGCUAGGAGGAAUAUCUAAAAGGGGGUGAUGAUCAGCGAUGUAGAAAAAAAAAAAAAAAAAAAA'
p267
aF0.9587628865979382
aa(lp268
S'Gladius'
p269
aS'UGAAAAAGACCUAGGAGGGAUUGAAGAAAGAGGGGCAAAGUUCAAAAGAACAGAGACAACAGAGAAGAUAUGAAGAGGUCGAUAGAUACUCCCUGUAGGACAUAGACAACGCCUGGACAUCAAAGAUGACAGAAGUUGCAUAUGCACUACAGAGAGUAUCGAAAGACUGAUGUAUAAACACUUAAGAGUUUCGGCCAAAGAGAGAGUCAGAUCAGACAUCAUUGGAAUGUCAGAACGUUAUUGAUAAUGAGGGACAAGAGACAGACAGGAAAGAAAACUUUUCGCGUCUAUCUCAUGUUCACUGUUAAAGGUAGCGAUGAGACAGGAAAAUGUGGACUGUCAGGACUCAGCUCGAAAGAGCAAACUCAAUCAUGCGGCCAUACAGACGAAAUAAGAAAAC'
p270
aF0.905
aa(lp271
S'Thunderbolt'
p272
aS'CUAGUUUACAAAAAAAGUCACCUCAGUAAAAGGAAACUUGCACAGGGAGAGAGAAGUAAAAAAAGAUCAAAAAGAUCGAAAAAUGAAAGAUUGGAAAAAAAUUUGAAAAAACUGAAAGCUCGGAAAAACUAAUGAGAUAAAAAAGAGAAAAAGUGGCAGAAACGGCUGUGAAAACUCAGAUCGGAGAAAAAAAAGGGAGCAAAGCACUGUAAAAAAACAAAGAUCAAAAAAAAUAUCAAAAAGCAUAGGAACUAUGCACCCUGCAAAAAAAAAAAUCAUUAAAAAAAAAACGGAGAAAACUAUGUCAAAAACGAAAAAAAGGAAAAGACAUGAAUUGGAAGCCCUGUGCUAAAAAAAGAAGUUGUGUAAAAAUAAAAAAACAGUAAAAGAGA'
p273
aF0.9285714285714286
aa(lp274
S'Mutated chicken feet'
p275
aS'AAAAAAAGUACUUGCGAAGCAACAAUGUAAUACGUUCGCCUAGCAAAGCUGCGAAGUAAAAGCUGCCACUCGGAAGUCACAAAGGCAAAAGUCGAAAAAA'
p276
aF0.83
aa(lp277
S'Chicken Tracks'
p278
aS'AAAAAAAUGCAUAUCGUUCGAAAGAGCAAGAUCGAAAGAUCAAGAACAAAAGUUCGAUAUGCUACAGUGUCAAAGACAAAGAGGAAGCCUCAAUCGCAAAGCGACUGGAAUAAAAA'
p279
aF1.0
aa(lp280
S'Looking Back Again'
p281
aS'GUGAAGAGCAUCAAAAAGCAAAGUAUCUUUGCAGAUGAAGCCGAAAAUACAAGGUCCUCAGAUACAAUGAUCAAAAGAUCUAAGGUAUUAAGGCAACUCAUGAUGGACAAAAUGAUACGAAAGUAUCUAAAAAAUCGACUCGAUAGACUUUAUAUAUACAAGGUAUACCUCCCCUAAGUGGACGUGGAAAUGGAUCAAAGGAUCUGUCCUGUGUGUCGGCAGUAAUCUGAAGACAGCAAAGACUCCAUCGUAUAGAGAUCAAAAAAAAGGAUCAGAGAGAGGGUCAAAAAGACCCAUUAAACUUGGAUCCUAGAAAAAAGCAAUAUCAAAAGAUAUUAAGAUGAAAGGUACAUGGAAACCAUGAAAUUACGAAACUAGCUAUGAAACGC'
p282
aF0.8740359897172236
aa(lp283
S'Multilooping 6'
p284
aS'AUAAAACAAGAAUGGUAAUCCGUUAAUACUAAUGCAGUAUCGAAUAGUGGUAAUACUGGAUAAUAGUGUAUUCUAGUAUUUA'
p285
aF0.926829268292683
aa(lp286
S'Cesspool'
p287
aS'GUCGAAGAAAACAACAGUGGAGAUACAAAGUGAACAUUAAUUGAAUUGGAAAGCUUAAGUGGGAAACUGCCUAAUUAAAAGAAUUCUAAGCGAGAUAAAAAAACACAUGCGAGAAAAAGUCAACAACUGGUGAAUGGCAAAAGGGAGGUGGAAAACAGACAAAGUAAAAGACGUGCAAGCAUUAAGAAAACACCAGAGGAGAGCCAAAGGCAACAACUGAUGAAUGGUAAAAAAAAAGGGGAAAGCUGUCAAAGGAAAACACAUAGCAAGCUUGAAGAAAACAAGAGUGGAUGGAUAAAGUCAAGAACGGUGUAAUUGGAAAAAGGAAGUGGGAAACUGUGAAAGGAAAACACCCUGC'
p288
aF0.6815642458100558
aa(lp289
S'Hoglafractal'
p290
aS'AAAAGGUAGAUUUAAAAGUUAGAAAAAAUUAGCAGUUCGAUCAACAUCUAAAAAAAUUGAGCCACAAGAGAAAACUCGUGACCUAAAGAUCAAACAUGAAAAAAUAUCGACACACAAUAGGAAAACUAGUGGCAUUGAAAGGAUACGUCAAAACAAAAGAGAAAAAACUCGGGACAACAAAAAGGGUUGUGAAAGUGAGAUUCGAAAACGCCUAAAAAGAGUGCAUGAAAAAUCAGGAAACUUGGAUAGAAAAAACAGAAAAAACUGCUAAAAAAGGAAUAAAUAGAAGCUAUUUAAAAAAAACUAUUCUAAAAAGAAUCAAAAAGACGAAAACAGGAACCCACAGAGAGAACAUUAAAAGCUAAUGGCUGAAAGAUGAUGGAAACCAUCGAGUCGUGGC'
p291
aF0.8425
aa(lp292
S'Bullseye'
p293
aS'AAUAAACAUCUAUGAUGAAUCUCAAAGAUGAAUAGCAAAGCAGUUUUAAAAAAAUACGAUUAAGGCUCAGGAUAAAAGAACAAUGACUAUGUCACUGAAAAAAAACGGGCUCUAUCAGUAAUGUUGAAGACAAAGAUAAAAGAUCAUGAAAAAAAAUCGCGGCAAGGUUGAACAUCAAGGAUCAAGAUCAAGGACUCUAAAA'
p294
aF0.8316831683168316
aa(lp295
S'Shooting Star'
p296
aS'ACCUAGGCCACCGUAUCAAGGAGGGGCUGGUACCAGCGAAAACAGAGAGGUCAGACCAUCAAGAUACGGAGAUGCAGGAGGGGCAGGCACGGGCACACACAGCACCAAAGAAAGUUAGGUGGACCCAGGUCAGAAUAUCAUGGGAAACAUCAUCGCUGUAAUGAAACAAGAACAUAGAAACUAUGGGUAAAAAACACGGCAUGCGAAAUCAGAAGAAGGCAUAUAAAAUAUAUGUACAUUGAAGCGAUGCAUCGCAUUUCUAUGAGAUGCACAGAGAAACUUUUGAUUACAUAAGAAAACGGUUUAGGGGAGACACAGUACAUCAAAAGAAGUAAUUUCGCGACAUUUCUAUGAGUACUAGGUA'
p297
aF0.8351648351648352
aa(lp298
S'Teslagon'
p299
aS'AAAAAACGAAAAAAAGUGGGAAAAAAAGGUCAAAAAAAAAAAAAAAAUGCAAAAAAAACAAAAAAAAAAAAAAAGAGUAGGAAAAAACCAGGAAAAAAAAGAAAAAAAAAAAAAAAGCGAAAAAACCAGCAAAAAAAGGACUAAAAAAAAAAAAAAGAGAAAAAAAACAUAAAAAAAAAAAAAAAGGACCUAAAAAAGCGACAAAAAAAUCAAAAAAAAAAAAAAAGAGAAAAAACGGAGAAAAAAUCAGCGAAAAAAAAAAAAAAGGGCAAAAAAAGCGAAAAAAAAAAAAAAAGAACGUAAAAAACCAGGAAAAAAUCGAAAAAAAAAAAAGGAAAAAAAAAAAAAAAACACUUAAAAAACCAGCGAAAAAACGAAAAAA'
p300
aF0.8821989528795812
aa.