(lp0
(lp1
S'Simple Hairpin'
p2
aS'GAUACAAAAAAGUAUC'
p3
aF1.0
aa(lp4
S'Arabidopsis Thaliana 6 RNA - Difficulty Level 0'
p5
aS'GAUAUACAAAUGACAAAAAAAAAAAGUCGAUAUAUCAAGAUAUAUAUAUACAUAUACAAACUAUCAAAAAAGAUAGAGUAUAUAGUAUAUAUAUAUCAAGAUAUAUCAAGUAUAUC'
p6
aF1.0
aa(lp7
S'Prion Pseudoknot - Difficulty Level 0'
p8
aS'GACAUCAGAUCAAAAGAUCGAUAGUCAAAAAAAAAA'
p9
aF1.0
aa(lp10
S'Human Integrated Adenovirus - Difficulty Level 0'
p11
aS'AUACUUGAUGCUUCUGAUAUCAAAAAAAAAAGGAGCCUAUGGCCAAAAAGACAUAUCAAAACCCGUAGUCAUAUUAAAAAAUGUAUGAUUAUAAAAGGGGAUAUAAAAGUCGGCAAAACGUAGAUGAUGUACAAAAAAGGUACAUGCUCAAAAAAAAAAAGGAUAUCUGAAGAAAACAUCAAAACGUAUAAA'
p12
aF1.0
aa(lp13
S'The Gammaretrovirus Signal - Difficulty Level 0'
p14
aS'AAGAGGAGAUAUCGAAAGAUAUCGACGCAAAAAAGAUGAAGCCAGAUCUAUACUAAUGUAUGAAACGAUCGGCCAUCAAGGAAUAUCAAAAGAUAUUUCAA'
p15
aF1.0
aa(lp16
S'Saccharomyces Cerevisiae - Difficulty Level 0'
p17
aS'UUUAAUAGUAAUAAAAAAUUUACAAAAAAAAAAAAAAAAAGUUGAAUGAAAGAAAAAAGCUUUCUAUUUAGAAAGCAUAUUCAAUUACAAAAAAAAGUAACCGUAAAAAAAAAAAUCGGAAAUGAAACAAAAAAGGUUUCGAAUAUGAAAUCAGGUUAAUGUUCGAAAAAAAGAACCGUCGGUAAAAAUUCGGCGCAAUCACACGAAAAAAGUGUGUGAUCUGUAAAUGUAUACAACAACGAAAAAAAGUUGCUAUACAAAAAAGGUGUAGAAAUUAUCAAAAAAAGUGAUGGUAUGCAAAAAGUGCCCCACCGGCGAAAAAUAGCUGUAUAGGAAAAAAGCCUGUGUAAUUAUACUAAAAAUGUAUGGGGGCGCGAAA'
p18
aF0.9894459102902374
aa(lp19
S'Fractal 2'
p20
aS'AAAAAGAUAUAACAAAGAUAUAUAUCAAGAGGAAAAAAAAAACCUCAUGAGCAAAAAAAAAAGCUUUAGAUCAAAAAAAAAAGAUCAAGAUAUAUAUCAAAGAGAUAUAUCAAGAGCAAAAAAAAAAGCUCAAGAGAAAAAAAAAAAUCUCAAGAUUAAAAAAAAAAGAUCAAGAUAUAUCUCAAAGAUAAAUAUCAAGAGCAAAAAAAAAAGCUCAAGAGCAAAAAAAAAAGCUCAAGAUCUAAAAAAAAUGGUCAGGAUAUUUAUCAAAGUUAUAUCAAAAA'
p21
aF1.0
aa(lp22
S'G-C Placement'
p23
aS'GAUCAAAGAUCA'
p24
aF1.0
aa(lp25
S'The Sun'
p26
aS'GGAAGACAUCCAAAGGGUAAUUCUUCAAAGACAGCCCUUCUAUGAAGAUGGCGUCGAAGAUAGACCUACAAAGUAUAAGUCGUCAAAGAAUUCCAUACAAAGUAUAAGUUUUCAAAAACAGACAUACGAAGUAUAAGUCGUUAAGUACAGACAGCCAAAGGCUAAGACGUGAAAGACAGGCUAACGAAGUUGAAGCCGUCAAAGACAUACAGUCAAAGACUAAGUGGUCGAAGACAAACAGAGUAGCUAAAAGUUGUC'
p27
aF0.875968992248062
aa(lp28
S'Frog Foot'
p29
aS'AAAAAAAAAAGAUCAAAAGAUCCUACUAAUGUAGCGACAAAGUCG'
p30
aF1.0
aa(lp31
S'InfoRNA test 16'
p32
aS'GUUAUCUCACAUAUCAAAAGAUGUAGUAGUGAUAAC'
p33
aF1.0
aa(lp34
S'Mat - Martian 2'
p35
aS'GGCGAAAACGUCAAAGUUAUACAAGAUAUACAAAAAAAGUAUAUCGUAUAAUAAAGAUAUAUCAAAAAAGAUAUACAGAUAUACAAAAAAAGUAUAUCGUAUAUCAAAGAUAUACAUAUAUCUAAAAAUGAUAUAUAGUAUAUCAAAAAAGAUAUAUCAAAGAUAUUCAAAUAUCAAAAAAAGAUAUUUAAGGAUAUCAAAGGAGAAAACUCU'
p36
aF1.0
aa(lp37
S'square'
p38
aS'GAUAUACCUGAUCCUAUAUCCUAUACAAAGUAUAGAAAAGAUAUAGAAAAGAUCAGAAAAGUAUAUC'
p39
aF1.0
aa(lp40
S'Six legd turtle 2'
p41
aS'AAAAAUGGAAGUAAAAGAGAAUCAAAAGGAAAAAUAAUGUAAGGCAAAAGCAAAGAAAAGACAAAAAUAAUGAAAACAGAAAAAAAAAAAAAAAAAAA'
p42
aF0.9591836734693877
aa(lp43
S'Small and Easy 6'
p44
aS'CACAUUAAAUAUUUGCUACAAAAAUUUCUG'
p45
aF0.8666666666666667
aa(lp46
S'Fractile'
p47
aS'AAAAAAAAAAAAUCGAAAGAAAACAAAGUGAAAACGAAGUACGGUUAAUACAAAGCAACUAAAUGGCAAUCAAAGAAAACUAAAAAAAAAAAAAAAAAAAAAAAA'
p48
aF0.9619047619047619
aa(lp49
S'Six legd Turtle'
p50
aS'AAAAUGCUAAAGCGAAAGCGAAUGAAAAAUCUAAGGGAAAACCAAAAGAAAAAUCAAAAGUAAAAGUAAAGGCAAAAGGAAAUUUUAAAAAAAAAAAAAAAAAAA'
p51
aF0.9428571428571428
aa(lp52
S'snoRNA SNORD64'
p53
aS'GAUAUCAAAAAGACAAAACUCAAAGAUACAAAAAAAAAAAAAGUAUCGAAAGAGAAGUCAAGAUAUC'
p54
aF1.0
aa(lp55
S'Chalk Outline'
p56
aS'AAAAAGAUCAGGCACAAAGGUAGCCAAGCAGACUAAUGUCGCUAGAUGACAAAAGUACAUCAGGGUCAAAAGAUACCGAUCAAAAAAAAAAAAAAAAAAAAAAA'
p57
aF1.0
aa(lp58
S'InfoRNA bulge test 9'
p59
aS'GAUAUACAGAGAGAGAUAUACAAAAGUAUAUCCCCGUAUAUC'
p60
aF1.0
aa(lp61
S'Tilted Russian Cross'
p62
aS'AAAAAUCUAUAACUAAUGUAGCAUAAGGUCUAAUGAUCGGGAUAAAGAUCUCAGAGUAAAAGCUCUAUCGAAGAAACUUUUUGGAGAAAAAAAAAAAAAAAAAAA'
p63
aF0.9238095238095239
aa(lp64
S'This is ACTUALLY Small And Easy 6'
p65
aS'AAAAAAAAAAAAAAAAAAAAAAAAAAAAAAAAAAAAAAAAAAAAAAAAAAAAAAAAAAAAAAAAAAAAAAAAAAAAAAAAAAAAAAAAAAAAAAAAAAAAAAAAAAAAAAAAAAAAAAAAAAAAAAAAAAAAAAAAAAAAAAAAAAAAAAAAAAAAAAAAAAAAAAAAAAAAAAAAAAAAAAAAAAAAAAAAAAAAAAAAAAAAAAAAAAAAAAAAAAAAAAAAAAAAAAAAAAAAAAAAAAAAAAAAAAAAAAAAAAAAAAAAAAAAAAAAAAAAAAAAAAAAAAAAAAAAAAAAAAAAAAAAAAAAAAAAAAAAAAAAAAAAAAAAAAAAAAAAAAAAAAAAAAAAAAAAAAAAAAAAAAAAAAAAAAAAAAAAAAAAAAAAAAAAAAAAAAAAAAAA'
p66
aF1.0
aa(lp67
S'Shortie 4'
p68
aS'GGAAAGCCAGCGAAAGC'
p69
aF1.0
aa(lp70
S'Shape Test'
p71
aS'AAAAAGAUUUCAAGAUACAAAAAAAAGUAUCAGGACAGACUCUAUCAAAAAGAUAGUGUACAAAAGUACAGUCGUCAAGAAAACAAAAAAAAAAAAAAAAAAAA'
p72
aF1.0
aa(lp73
S'The Minitsry'
p74
aS'GGUCAAAUGAGAAAAACAUGAAAGGAAGAAAGAUCUAAAAAAUGAUAUUCAGUGGCUCUGCC'
p75
aF1.0
aa(lp76
S'stickshift'
p77
aS'AGCUAUGCUGUAAAUCAUGCAUAGAA'
p78
aF1.0
aa(lp79
S'U'
p80
aS'AAAAAGAUACAGAGAGCAGAGAUAUAUACAAAAGUAUAUAUCCGCCCGUAUCAAAAA'
p81
aF1.0
aa(lp82
S'Still Life (Sunflower In A Vase)'
p83
aS'AAAGAUCAAGAAUCAAAAAGAUUCAAGACACAAAGUUUAGAGAUAAGAAAAUUAUCGAUAGAGAAAUUAAAAAGAUACAAAAAGUAUUGAGAUACGAAAAGUAUCAGAUAUAUCUAUAUCUUUUUUUAUGCUUCUAAAAUGAAGCAGAUUCAAAAAAAAAAAAAGAUCGAAAAAAAAAAAAAAAAAAAAAAAAAAAAAAAAAAAAAAAAGAUCAAAAAAAAAAAAAGGAUCGAGACGAAAGUCUCAGUAGAGAAAGAUAUAGAUAUAUCAAGGUAAGAAAAUUACCAAGAAUGUAAAAUAUUCAAAAGACUAAAUGUUUUAAAAUUUAAAAAGGAUUAGGGUUCAAAAGAAUCAAGCACCAAAAAGGUGUUGAUCGAA'
p84
aF0.9735449735449735
aa(lp85
S'Quasispecies 2-2 Loop Challenge'
p86
aS'AAAAAGGGGCUACAAAAUCUAAUGAUUGAGUAGUCUACAAAAAAUAAGUAGCGAUAAAGGAGAUGAAAAAUCGACAAUAUCCCCCGAAAAAAAAAAAAAAAAAAA'
p87
aF0.9809523809523809
aa(lp88
S'Corner bulge training'
p89
aS'AGAUAUCGAUACAAAGUAUCAAAAGAUAUCA'
p90
aF1.0
aa(lp91
S'Spiral'
p92
aS'AAAAAGAUCAGAUAUCAGACAGAUACAGAUCAGAUCAGCAGCAGCAGCAGCAGCAAAAAGCGCGCGCGCGCGAUCGAUCGUAUCGUCGAUAUCGAUCAAAAA'
p93
aF1.0
aa(lp94
S'InfoRNA bulge test'
p95
aS'AAAAAAAAAAAAAAAAAAAAAAAAAAAAAGGACAAAAAAGGACAAAAGGACGAAGGACAAGGACAGGACAAAAAGUACCAGUACCAAGUACCGAAGUACCAAAAAGUACCAAAAAAGUACCA'
p96
aF1.0
aa(lp97
S'Worm 1'
p98
aS'AAAAAAUGAGUGGAUACAUUAACCAAAACAAGUCUUCUCACUGCU'
p99
aF0.9555555555555556
aa(lp100
S'just down to 1 bulge'
p101
aS'AAAAAGGACAGAUACAAAAGUAUCAGACAAAAGUCAGUACCAAAAGAUCAGACAAAAGUCAGACAAAAGUCAGAUCAAAAAAAAAAAAAAAAAAAA'
p102
aF1.0
aa(lp103
S'Iron Cross'
p104
aS'ACUCAGACAAACUCAGAUAAAAUCAAACAAAAGUUAGAGAAAGGCAUACAAAAGUAAGACAAAGUCAGCCAAAGCCAUACAAAAGUAAGACAAAGUCAGGCAAAGUCAUACGAAGUAAGAGAA'
p105
aF1.0
aa(lp106
S'loops and stems'
p107
aS'AAAAAGAUAUAGGAGGUUCAAUGAUCAACCCCUAAAAAAAAAGAUACAAAAAAAAAAAGGUAUCAAGAGGGUUAAGUUCAAAAAAAAAAGAACGAAGAUCUAAGACAAAAAAAAGUCAAAGAACAAGCAAAAAAGCAAAUUAUAUCGAAAA'
p108
aF1.0
aa(lp109
S'Water Strider'
p110
aS'AAAAUGCGUUGAUCGCCAGACAAAAGUUGAUAAAGAUCGACAAAAAAGCCUUUAAUGAGGCCGAAAGGCAGUCGAGAACAGCUAAAAAAAAAAAAAAAAAAAA'
p111
aF0.941747572815534
aa(lp112
S'The Turtle(s) Move(s)'
p113
aS'AAACCAAAAGGAAACCUUGUACAAGAAAAAAAAUGAUAUAGGCAAACUAUAAAAAGUAGAGAGACUGAAAAGAGAAAGAUACAAAAAAAGUAUCAAAAGAGUAACCGAAAGGAGAAACAAGAAAUCGGAAAGACAAUGAAAAAAAUUGUCAAAAGACAAAAGUCAAAAAGAUAUCUCAUGGCUAAAAAUGUUUAGACAAAAAAAUUUCAAAGAUGCAAAAAGGCAUCAAAGAUGAAAAACAGCAUGAUAUCAAAAAAAAACGACAAGCAGAGUCCAGAGGGAAAAAUCUAUCAAAAAAAAAAGAUAGUAAAAUCUC'
p114
aF0.9683544303797469
aa(lp115
S'Adenine'
p116
aS'GAUACACUAUACACUAUACACUAUACACUAUAAACUAUACAAAAGAUAUCAAAAAAGAUAUCAGUAUAGAGAUACAAAGAUAUACAAAGUAUAUCGUAUCAUUAUAGAGAUACAUAUAUCAAAGAUAUAUAAAGUAUCAGUAUAGAAAAGUAUAGAAAAGUAUAGAAAAGUAUC'
p117
aF1.0
aa(lp118
S'Tripod5'
p119
aS'AACUACGAUCUAAAUGAUCCAGCGAAAAGCUGGUAGAA'
p120
aF1.0
aa(lp121
S'Shortie 6'
p122
aS'GGAAAACCAGCAAAAGCAGCAAAAGCAGCGAAAGC'
p123
aF1.0
aa(lp124
S'Runner'
p125
aS'AAAAAGUUAAGGUAAAAAAUAUCGAAGAAGGGGCCAAAGGCUAAACAUCACGGAUAAAGUCGUGAGUUAAGUACAACACUGCCAAAACAGAAAUGAAAACGUAUGCGUAACGAAAA'
p126
aF0.8706896551724138
aa(lp127
S'Recoil'
p128
aS'AAAAAGAUACAACCAACCAACCCAACUCAACGAGCCAAAGGACGGGAGAGGGAGGAGGAGUAUCAAAAAAAAAAAAAAAAAAAAA'
p129
aF1.0
aa(lp130
S'[CloudBeta] An Arm and a Leg 1.0'
p131
aS'AAAAAGACAGACACAAAAGUAGUCCUCAGCAAAAGCGAGAGUCAAAAAAAAAAAAAAAAAAAA'
p132
aF1.0
aa(lp133
S'[CloudBeta] 5 Adjacent Stack Multi-Branch Loop'
p134
aS'GUCACCUACGAAAGUAGCAAUCAAAAGAUUGGAGCUAAAAGGCUCGACCAAAGGGUCGUGACA'
p135
aF1.0
aa(lp136
S'Triple Y'
p137
aS'AAAAAGACCGUUGUACCAAAGGGUAUAGCGAAAGCUACAGCGUUCGAAGAAACUGUCGAGCAAAGGCUCGAUCGCUCAAAAAAAAAAAAAAAAAAAA'
p138
aF0.9175257731958762
aa(lp139
S'Misfolded Aptamer'
p140
aS'GGGGAAAAAUGCGAGAAAAUGAUUAAAAGGGGGAGGGGGGUUAAAAUUUC'
p141
aF0.92
aa(lp142
S'Flower power'
p143
aS'AAAAAGGCGGUGAAAGACACUCUACGAUAAAGUAUCAGGAGCUAUGUUUAAGCUAUAUAAAUGUAGUAUACAAGAUAUCGUUAAAAAAAAAAAAAAAAAAAA'
p144
aF0.8431372549019608
aa(lp145
S'Kudzu'
p146
aS'AAAAGGACGGGUGAUUCUCAUAGCAGCAAGGCACACGGGCAUCCAAAAGGAGGAGAAUCCAAAGAGGAAGAGACUACAGUCAAAAAAAAAAAAAAAAAAAA'
p147
aF0.9603960396039604
aa(lp148
S'"1,2,3and4bulges"'
p149
aS'AAAAAGGCCAGACUCGAAAGAAAAAGUCAGACAAAAGUCAGGACCAAAAGGGCAGGCGAAAGAAACCAGACAAAAGUCAGCAACCAAAAAAAAAAAAAAAAAAAA'
p150
aF1.0
aa(lp151
S'medallion'
p152
aS'GAUAACAUAUUUCAAAAGAAAUAACACAAAAGAAGUUCAAAAGAAAUAGGCCAAAAGGCUUGAUACAAAGUUAAUAUAUCAAAAGAUAUAAUAUAAAAGUGAUACUAAUGUAAUGUAUAAAAAUAUGUAAGAUAAAAAUCAUAGGUCAAAAGACCUAAUGAUAAUUUAAAGGAAAAUCGAUAUCUCAAAAGGGAUAAAAGAAAACUAAUUUACCAAAAGGUAGAGGGCAAAUGCAGUACGAAAGUAAUCUCCUAAAAAAGCUAAUGCCCAUGUAAUUUAUCAAAAGAUAGAAUACAAAAGUAAUACGAAAGUAAUAAAUGAAAAUCGCUGGGGUAUC'
p153
aF0.827893175074184
aa(lp154
S'[RNA] Repetitious Sequences 8/10'
p155
aS'AGGAAAAAAGCAAAAAAGCAAAAAAGCAAAAAAGCAAAAAAGCAAAAAAGCAAAAAAGCAAAAAAGCAAAAAACCAAAAA'
p156
aF1.0
aa(lp157
S'Documenting repetitious behavior'
p158
aS'AAAAAAAGGAAAAAAAAAGGAAAAAAAAAGGAAAAAAAAAGGAAAAAAAAAGGAAAAAAAAAGGAAAAAAAAAGGAAAAAAAAAGGAAAAAAAAAGGAAAAAAAAAGGAAAAAAAAAGGAAAAAAAAAGGAAAAAAAAAGGAAAAAAAAAGGAAAAAAAAAGGAAAAAAAAAGGAAAAAAAAAGGAAAAAAAAAGCAAAAAAAAAGCAAAAAAAAACCAAAAAAAAACCAAAAAAAAACCAAAAAAAAACCAAAAAAAAACCAAAAAAAAACCAAAAAAAAACCAAAAAAAAACCAAAAAAAAACCAAAAAAAAACCAAAAAAAAACCAAAAAAAAACCAAAAAAAAACCAAAAAAAAACCAAAAAAAAACCAAAAAAAAACCAAAAAAAAACCAAAAAA'
p159
aF1.0
aa(lp160
S'7 multiloop'
p161
aS'GCGUGUGAGGAAACUUAUGAGGAGAAAUCCUUGUUACGAAAGUAAUGUGAAGAAAUUCACCAGCCGAAAGGCUGUCCUGGAAACGGGAACGC'
p162
aF1.0
aa(lp163
S'Kyurem 7'
p164
aS'AAAAACAUGCACGUCGAAAGACGGGAAAAGCACGGACUAAAUGUCAGCGAGGUAAAAUUCUAAACGCGUGCCCCGUGACAUGGAAAAAAAAAAAAAAAAAAA'
p165
aF1.0
aa(lp166
S'JF1'
p167
aS'AUACAUGAUACAGAUACAAGAUACAAAAGAUAUCAACUAUCAAACUAUCAACUAUACAGAUAUAUAUAUAUCAAAAGAUAUAUAUAUAUCAAGACAAAAGUCAGAUAUAUACAAAAGUAUAUAUCAAGAUACAAAAGUAUCAGUAUAGAGAUAGAGAUAGAGAUAUCAAAGAUACAUCAAAAAGAUAGUAUCAAGAUAUAUAUGAUAUAUAUAUAUACAAAAGUAUAUAUAUAUAUACAUAUAUAUCAAAGAUACAAAAAAGUAUCCUAUAUAUACAAAAGUAUAUAUAGAAAGAUGAAAACAUCAAGUAUCAAGUAUCAGAUCAGACAGACAAAAGUCGUCGAUCAGAUGAUAUCAAAAGAUAUACAUCAGUAUACAUAGUAUAAA'
p168
aF1.0
aa(lp169
S'multilooping fun'
p170
aS'GUAUAAGAGAAAAUAAUAAAAUGCGGCUAAAAGUGC'
p171
aF0.8888888888888888
aa(lp172
S'Multiloop...'
p173
aS'GAACAGAUGUCACAAAAGUGCAACAAAUGUUAGCCGAAAGGCAGUCGAAAGACAAAUAAAAAUUACGCAAAACCCACAGCAGCGUGAAAAAACAUGUGGCGAAAGUCGUUU'
p174
aF0.9459459459459459
aa(lp175
S'hard Y'
p176
aS'AAAAGGAUCGUCGGUCUCUCGAAAGAGAGACAAGUGGUAGCUACCUAAUGGUAGUUUUCGAUCAAAAA'
p177
aF0.9705882352941176
aa(lp178
S'Mat - Elements & Sections'
p179
aS'AAAAUGGUAACGAUUGCGAUAGGGAGCAGAACUGUCAGUCUUAAAGAAGGCCUGUAGCACGUUCAAAACGAUUGUAUUAGGAAUCUAAAAAAAAAAAAAAAAAAA'
p180
aF0.9619047619047619
aa(lp181
S'Chicken feet'
p182
aS'AAAAACCACGACCAAAGGUACUAUUCAAACAGGGGUAGGUUGAAAUUAAUAAAGUACUGUACAAAAA'
p183
aF0.8507462686567164
aa(lp184
S'Bug 18'
p185
aS'ACGAGCGGCAACGGAGCAGCAGGAAACAGUAGAGGUAGAAGAAAGUAAAAGGA'
p186
aF0.9245283018867925
aa(lp187
S'Fractal star x5'
p188
aS'AAAAAUCUCCAUCAAGGGCAAAGGUCCGAGAUCAAAGGAUCAAGACCGAAAGGUUAAUUUCAAAAGAAAAAGAUGGAGGAAAAGCAGUCAUGAUGGUCGAAAGACUGGAAUCAAAGGAUUAAGGGGGAAACCUCGAGAUAAAAAUAUCAACAUGACUGAAAAAGCAAUAUCAGGCUUAAAGAGGCAACGUAAAAAUGCGAAUAUCGAAAGAUGAACAUAGAAGUAUGAAGAUAUUGCGAAAAUGUAUUUGUACUAUAAAAAUGGAAGAAGAAAACUUCAAGAUCUAAUGAUUGAGAUGGAAACAUCGUCAAAUGCGAAAAAGGUAUAUUAGCAUAGAAAUAUGAAGUGCAAAGGCGCAAAAUGUAAUCAUUAGGGUCGAAAGACUAGGAUAUACCGAAAA'
p189
aF1.0
aa(lp190
S'Crop circle 2'
p191
aS'CCUAUGGAAAGGAAAAAACCGCAAAAAAAAGAAAAAAAAAAAAAAAAAAAAAAAAAAAAAACCAAAAAAAAAAAAAAAGAAAAAAAAAACCAAAAAAAUCUAAUGGAAAA'
p192
aF0.9636363636363636
aa(lp193
S'Branching Loop'
p194
aS'UGACUCGAAAAAAUAUUGUUAAUGUAGGCGGUCUAAAAAA'
p195
aF0.95
aa(lp196
S'Bug 38'
p197
aS'AACGCCUUGAAACAAAAAUAGUUUGUGGUAAAAGUG'
p198
aF0.9444444444444444
aa(lp199
S'Simple Single Bond'
p200
aS'AAAAAAGAAAAAAAAUGCACUAAAUGUGUUAAAAAAAGCGAAAAAAAAAAAAAAAAAAAAA'
p201
aF1.0
aa(lp202
S'Taraxacum officinale'
p203
aS'GGCCGAAAGAGUCAGACCAAAAGACUGAUACCAAAAGAGUAGGAUAAAAUCAGAUAGGGUAAAGAAUCAGGACUAAAAGAGUCAGAUAUAGAUACGAUAUACAUACAAAGUAUAGUAUAUCAGAUACAAGAUCUAUAUAAACUAUAUGAAACAUAUAGAUAUAUAGAUCGAUGAGAAUUCAAAGAGUUCUAUCGUGUCGAAGUAUCUAUAUCUACGCCAAGGAGGUUUACCCAAAGCGUGGACCUAAAGGAGUCUGCCCCAAAGAGGCUCACUAAAAUUGUG'
p204
aF0.9148936170212766
aa(lp205
S'Headless Bug on Windshield'
p206
aS'GACAGUAAAAUGGAACAAAGCAGACAAAAAAAAAAAAAAAAAAAAAAAAGGUCAGCAAGGUUACCUAAGCAGCUGGCAACUGAAGGAAAAAAACUAAAAAGAAAAAAACCCCGCAAAAGGGCCGGUGCAAAAAAAGGCAGCCGAGCCAAUCUAACAAAAAAAAAAAAAAAGUUUAGAAUGUCAAGGAGCCGAGGGAAGCG'
p207
aF0.99
aa(lp208
S'Pokeball'
p209
aS'AAACGGUUACAAAAUGAUACAGUCCAACCAAGCAACAGAGAUACCAGCCAAAGGAGGAUUGAAGGGCGAGGAGGAAGUUCGGUAAUCGAAAAAAAUGGUAUACAAAAACAGCGAACUCUACCCUGCAGUCAGCCAAAUUACAAAAUGUAUAAGGAGAAGCUAGGUGAGAGAAUGGUAUAUCUAA'
p210
aF0.967391304347826
aa(lp211
S'Variation of a crop circle'
p212
aS'AAAAGAAAAAUGCAAUACAAAGUCAACCAAUUAAAGAGAUGAAAACAAAAAAACUUAAAAAAUAGAAAAAAAAGUGAAAAAAAAAAAA'
p213
aF0.9545454545454546
aa(lp214
S'Loop next to a Multiloop'
p215
aS'AUCUAUACACAAAAAAAGACUGUACAAAGGUAUAGAGAUUUGCUAAUGUAGAUCGUAAAAAAAGUGUAUAGUA'
p216
aF0.9726027397260274
aa(lp217
S'Snowflake 4'
p218
aS'GUUCAAAGAGCUUUACCCAAAAGGCUAACAAGUUGCGCAAAAGCCUAUGGAUUAAGGCUCAACACCAAAGAUCCAUGGCCGAAAGGGCAACAAUAUACCCAAAAGGCUAUCUAUCGAAGGUAAAGCUCGAAGAGCGAUAGGCUAAUGCGUAUGAAGAUAUCCGAAAGGCUAACUGUCUAUAAUAAAGAUCAAAGAUUGUUAGCAAAAAUGGUGUCCGGAUAUUCUAAUGGCUAUCUAGCAAAGCUAAAGAUCAAAGAUCGAUAGCGAAAGUAAUAUCAAGAUAGGCAAAAGCCUGUCAAUCAAAGAUCAAGUUCGAAGAGCGAUAGCCAAAGGGUUAUCAAGUUAGCCAAAAGGGUAAAGAUCUAUGAUC'
p219
aF0.8324324324324325
aa(lp220
S'Mat - Cuboid'
p221
aS'GAAGCAAAAGCAAGCAAAAUGGAGCAAAAGAAGGAAGCAAAAUUAAGCAAGCAAAAGAAGCAAGCAAACAAAAACAAGCAAGAAAGCAAAAGAAAGGAAGCAAACGACCAAAUCCAAGCAAGUAAGAAAGCAAAACCAGGGAAGGAAGUAAGUAAGUAAAAUGAACCAAUCAUGCAACGAAGCAAAACCAAGCAAGCAAUCAAGCAAGGAAAAAACCAAGCGAGGAAGUAAGCAAGGGCAAUGAAGCUAGGAAGGAACAACAAACAAACAACCAACCAAGGGCAAUCAAGCAAGCAAGGUGAACUAAGCAACCAAGCGCAAGCAAGCAAUCGCAAGCAAGCAACGCAAGCAAGCGCAACCAACGCAAUCGCAAGCGCAAC'
p222
aF0.9210526315789473
aa(lp223
S'Misfolded Aptamer 6'
p224
aS'AAAAAGGACAAAAAAGAUCAGGAGGGGCCAAAAAAAAGGCGGAGCAAAAGGAUUAAAAAAAGUCAAAAAAAAAAA'
p225
aF1.0
aa(lp226
S'Snowflake 3'
p227
aS'CACUAAAAAGUACCCCACAAAAGUAAGGAGAAGAGCUAGGCAAAAGCCAGCAGCGAAAGCUACGAAGUAGCGAAAGCGGCCUCCAAAAGGAAUGUUCAUAUCAAUACUAAUGUGCUCGUCAAAAGAUACAAAGUAUGAAAACAAGGCCACAAAAGCGAAGAUGAGAUAAAUACAAAAGUACUGAUCAAAAGACUAAAAUAGUUAAAAGAACAGCACAAAAGAAAAGAGCGGCUAAAGUCGAAAGGCCUCAGCAAAAGCUACAAGGUAUCUAAUGAAGCGCACAAAAGAGAAUAGCUAAGCAAGAAAAAAUUCCUCACCAAAAGGUACAAAGUAUCAAAAGAAGGGCCCAAAAGAGAAGAUUUUAUCUAGCCAAAGGGCGGGAGCGAAAGCGAG'
p228
aF0.7862595419847328
aa(lp229
S'Hard Y and a bit more'
p230
aS'AAAAACAUACGGACAUGCAAAAGUGUAGCUGUUACAGCAGGAUUUAAUGAUCAAGAUUCAAAAAGGGAUCAGGCGGUGACGUAUGAAAAAAAAAAAAAAAAAAAAA'
p231
aF0.9716981132075472
aa(lp232
S'Mat - Lot 2-2 B'
p233
aS'AAAAGUAUGGACAAACAAAACCAAGGGCCAAUGCAAAAUCAAGGGAAAGUAAAACCUAACUCAAGCAACGAAGCGCAAGCAAAACCAAGCGCGAACAAAACCAAAAGGGUAAGUAAAAGCGAGAGAGAGGAUAAGUAAUCAAAAUGGCGAGGACAAGCAAAACCAAGUACUAAUGUAAAAGCAGUGCCAGGUAAAACCGAGCGCGAAGAAGCGAGCGCAAUCAAAAUGAAUGACGUGCAAAAGUGAAAACGCUAGUAAAACAAGGGGAAAGCGCAGGAAAUAAU'
p234
aF0.8838028169014085
aa(lp235
S'Shapes and Energy'
p236
aS'AAAAAAGUGUGUUAGGAAAAAGGAGUUUAGGGAAAUAUACGAAACGUCGUGUUGUCCAGGGUGGAAACAUUAGUGUGCUCAACAAAAAAAAAAAAAAAAAA'
p237
aF0.9603960396039604
aa(lp238
S"Spiral of 5's"
p239
aS'CAAAAGAUACAAAGACAUAAAGAUACAAAAGAGACAAAGAUACAAAGAUACAACUAUCAAAAGAUACAAUGACACAAAGAUACGACUAUCAAACUAUAAAGCUAUCGACUAUCAAACUCCCAGGUAUCAACUAUCAACUAUCAACUAUCAGGUACAGAUACAUCUGAAAAAUAGAUAAAAAGUAUCAAAAAGUAUCAAAAAGAUAGAAAAGGAUAGAAAAAGAUAGAAAAAGAUACAAAAAGGGAGAAAAAGAUAGAAAAAGAUAGAAAAAUAUAGAAAAAGAUAGGAAAAGUAUCAAAAAGUGUCUAAAAGUAUCAAAAAGAUAGAAAAGGUAUCAAAAAGUAUCAAAAAGUCUCAAAAAGUAUCAAAAAAUGUCAAAAAGUAUCGAAAAGAAAAA'
p240
aF0.9949622166246851
aa(lp241
S'Campfire'
p242
aS'AAAACAAUGAGAUACAAGAUCGAGAUCGAAAAGAUCGGGAUCAAAGAUACACGAUCCGGAUCAGGAGCAGACACUAAUGUAGUCGGCCCACACAGGAACGGCAAAGGCCCCCGCCAAGAGAAAGUGACUAGGCAAGUAGUCGAUACUGGUAUUCUCGUACAGACAUAUGGAAACGUGGACGUAGACGUAUCUAUGAUAGUAGUCUGCGAUUG'
p243
aF0.9339622641509434
aa(lp244
S'Anemone'
p245
aS'AAAGAUACAAAAGUGUAUUGAGCUAAAAAGUUCCCUAGCUAAUGUUAGGCUUACGAAAGUAGGGCCUAUGAAAAUAGGCGCGACAAAGGUCGCCGAGCGAAAGCUUGCUUAUAGAAAUAUAGGAAUAUCGAAAGAUAUGGCAACGAAAGUUGUCCCUGUAUAGGCGGGCGGAUCAAAAGAUUCGGAAUGGAAACGUUCGACUCUAAAGAGGGUC'
p246
aF1.0
aa(lp247
S'Fractal 3'
p248
aS'AAAAAUGACGGACUUGAAAAUAUUAAAGAACGGCGUAGUUGGAAAUGGCGAAAGCUCUAAGGAAGCGAAAGCACGAAAGGAGUAAGGCAGCUAAUGUGCAAAGGUAGCCAGUUGAAAAA'
p249
aF0.9159663865546218
aa(lp250
S'Kyurem 5'
p251
aS'AAAAUGUUGGUCCGAAUAGCCGAACAAAAAUCAGAUAAACUUGAAAAACAAUAUGUGGGAAAAAGUGAAGCACUCGACAACAGCUAAAAAAAAAAAAAAAAAAA'
p252
aF0.9038461538461539
aa(lp253
S'Snowflake Necklace ( or v2.0 )'
p254
aS'GGUAUAUAGUGAUUGAGUUACAGCAAAAAGCAUCAAAAAGAACCAAAAAGGAUCAAAAAGAAUCAAAAAGAAAUAGCAGACGAAAAGUCGGGUACAGCAAAAAGCAUCAAAAAGAGUCAAAAAGAAUCAAAAACAGGCAAAAAGCAGGAUCAGACGAAAAGUCGAAUGCAGCAAAAAGCUGCAAAAAGUUUCAAAAAGAAUCAAAAAGAAUGGAAAUUAAGGAUCAGAUAAAAAAUCAGAGGAAGCAAAAAGCAUCAAAAAGAAUCAAAAAGAGUCAAAAAGAGGCAAAAAGCAGUAUCGGACAAAAAGUCAUAUUCGGCAAAAGGCAUCAAAAAGAAACUAAAUGAAUAAAAAAGAAACAAAAAUUAGGAUGGUAAUUACUAUAUAUC'
p255
aF0.8303341902313625
aa(lp256
S'Methaqualone C16H14N2O Structural Representation'
p257
aS'AAAAAAAGAUCAGAUCGGACAGACAAAAGUCAGACGCUCAAAAGAGAGACAGACAAAGGUCAGACAUACGAAAGUGAGACAAAAAAAGUCAGUCAGUCAGUCAGUCAGAAACAGAUCAGAGCAAUUGAGACAAAACAAAGUAAAAAAAAUUCAGACACGUAAAACAGUACAAAAGUAUAAAAAGCGGGUCACGAAGCAUGAGAAACGGAUAUUCACUCAACGAGACGAAAGACAAAAGUCAGUCAGGCAAAAGUCACGUAGACGAAAGUCAGAGAGACAAAAGUCGGAGAAACGUCAAAAGGCUAAAACAUCACGACAAAAGUCGUCAGUCACACGAAAGCUCGGAUCAAAAAAA'
p258
aF0.9352112676056338
aa(lp259
S"Cat's Toy 2"
p260
aS'AAAGGGUAUGGUAAGACAUAUGAAAAAAAAAAAAAAAAAAAAUGCAAAGAAAAUUCGAACUAAAAGGAAAAAAAGAUUAAAAAUAGCCGUACCAAAA'
p261
aF0.9587628865979382
aa(lp262
S'Zigzag Semicircle'
p263
aS'AAAACGUCUCCUUGAAAACAGGAGAGGACGGAAA'
p264
aF0.9411764705882353
aa(lp265
S'Short String 4'
p266
aS'AAAAAAUGAUCCUGGAAAAUGGACAAGGUAAUUUGGGACAAGGUCAACGGAAAAGCAAUGUGCAAACGUCGUGAUCAAAAAAAAAAAAAAAAAAAAA'
p267
aF0.9381443298969072
aa(lp268
S'Gladius'
p269
aS'GGAAACAAAGGAAGAAAGAGGGUAAGUAAGACAGACAAAGAUUAAAAGAUCGGAGACAAGAGACACGAGAUGAAUGGAUCAAGAGAUAUGCCAGAUACACUAGGCCGAUAGCAUCAAUUACAAAGUAGAGAUCGUAUCCACCUAUAGUAUCGAGUGUAUCAACAGAUCAAGACAUCAAUAGUCAAGAGUUUCAGUCAAAGACAGAUUCAGAACGCAAUGCUACAGAGCUACUUAACUAUAUCAGAUAGGUAAUACAGAUACCAGAUAGAAAUCAAAAGAUUUUAGAUCGAGUGUACGUAUAUUCUAUACGAUAUAGAGAUGUAGACGAGUAGAUAAGCGGCAAGGAUCACAUCAAAAGAUGAAAGUCAGUCAAUCAAGACAACAAACGGAAAAAAAAAAG'
p270
aF0.9025
aa(lp271
S'Thunderbolt'
p272
aS'GCAAGAUGCAAAAAAAACAGCGGGCAGUAAAGUAAAAAAGAUAUAUCAAAAAAAAAGGAAAAAAUAUUUAAAUAAUAAAAAAGCCAAAUUAAACAAAAAAAUAAGAAAAAAUAAGAAGCAAGCAAAAAGAAAACAGUUGAAAAAGACAAAAAGAAGCAUUAUAAGCGGCAAAAAAUCAGAUCGAACAGAAAAAGAAUAGGAAAUGAAGACGAAAAAAGAAAGAUCGAAAAAAACAACAAAAGGAUAUCUAUGAUAUCGGCAAGCAAAAAAAAAAACUAAAGAAAAAAAAAGAAGGAAAAGCGGUACUAAAAGAAAAAAAGCGAAAUGUACCGAAUAGAAAAGAUAUAUCAAAAAAAUUGGCAAGCAGAAAAACAAAAAAAGAGUAUCAAGCA'
p273
aF0.9438775510204082
aa(lp274
S'Mutated chicken feet'
p275
aS'GAAAAAAGAAGCGAGAAAUCGGCAAACCAAAGCCCCCAAUGACUAAAAGAGCGAAGCAAAUGGACGCAAACCAAAAGGAUCAAAGGAAAGAACAAAAAAA'
p276
aF0.82
aa(lp277
S'Chicken Tracks'
p278
aS'AAAAAAAAGAUAUACGCUCAAAAGAGCAAGUUCAAAAGAGCAAGGUCAAAAGAUCGUAUAUCAAGUGCAUCAAAGAUGAAGAUCAAAGAUCAUGGACGAAGUCCCACAAAAAAAAA'
p279
aF1.0
aa(lp280
S'Looking Back Again'
p281
aS'GAGAAGAGGAUAAAAAAGAUAUCAAAGAUAUCAGAUCAAGCCGUCAAGACAAAGUACAGUGAUACAAAGAACAAAAGUUCAAAAGUAUUUAGGCAAGUGAAGGAAGACAAAAAGAUACAAAAGUAUCAAAAAGGAAGAUACGAUACCAUGUACCCGAUCAAAGAUCGGCGAUCUGAAGAGGAAGAAGGAUAAGAUCAAAAGAUCGAGACAACCAACAUAGACAAAAGUCAAGAUUUCAAAGUAUCAUCCAAUGUGAGAACUAAAAAGUCAUACAAAAAAAACUUCUAAAAGCUCAAAUAAAGGCUGUACUUUCAAAAAAGCCAAUACAAAAGUAUUGAAGACCCAAAGGAUAUUCAAAGGAUAGAGACACAAAAGAAGCCUUGGACCUC'
p282
aF0.8251928020565553
aa(lp283
S'Multilooping 6'
p284
aS'AUGUUGGCGGGACAGGAAACUGUCGAUGUGCAAAUACCCAGUUUGAGGGAAAGAUCUUUACCAGCAUUCAUAGGACUUACUA'
p285
aF0.926829268292683
aa(lp286
S'Cesspool'
p287
aS'GAAAAUGAAAACUAGACAAGAGAGACAAAAUCAACAACAGGUCAUGAAAAAAAUAACUGAAGAAAACAACAGAGUUAAAAGAAUAAAAAGAAGAAGAAAACAAGUCAAGAAAUUCAAAGGAAAUGACAAGAUAAGAAGAAAACAACAGAAUAAAACAACAAAGGCUAAUGAACGACAACCAAGAAGAAAAAGACGAAAGAGAGCUAAAGGCAACAACAAUUCAACAAGAAAACAAGAGAAGAAAACAACAGACCCAAAACAACAAGGGAGUAAGAACAAAACAAGUGUAGAAAGUCAAAGUCAAUAACAUGACAAGGAUUAAUGAACAGGAUAAAAGAACAGAGUUAAAAGUGCAAAC'
p288
aF0.7486033519553073
aa(lp289
S'Hoglafractal'
p290
aS'AAGGGUAAGUUACAAAAGUAACAAAAAAGUUACGUAACGAGCAAAAAAUAAAACGCUUCUUCCACAAGACAAAAGUCGUUAAACCAAGAUUAAAGAUCAAAAAAGAUUGAUCCACAAGACUAAAUGUCGAGCCAACAAAAGUGGACGAAGAAAUACGAGCCAAAAAAGUCGAGCUAGAAAAACGCGGCUCUAAAGAGAUUUACAAAAACGAGUAAAAAAGCUUCUGAAAAGUAGUAUAAUUAAGAUAACUAAAAAGUCAAAAGAGACGCAAAAGGCAAAGCUAGACGAAGUCUAGCGAAAAAUGUUAUCAAAAAAGUAGAAAAAAGUUUAAAAGCCAAUCCAAUAAAGAGCAGAUCGAAUGCAAAAGCUCGAAAGACAUAUUAAAGAUAUGAGAUCGCAC'
p291
aF0.8375
aa(lp292
S'Bullseye'
p293
aS'AAGAAGGCUGCAACGGUAGGAAAAAGUUAUAAGCUCAAGCAGCCUUAAAAAAAGGCCCGAUAAAAUAAAUGGUUUAUGACCUAAAUGUCUAAUUGGUAAAAAAAAGUCCGAGAAAGUUCAGACGCGAAGCGUAAGAGUAAGGUUAGAGGAAAAAAUUAGGGUUUAUAGCCAGGCUGGAAUAACAAGAUUUAUUAUCCUAUAA'
p294
aF0.8217821782178217
aa(lp295
S'Shooting Star'
p296
aS'AUCGACGGUCGAUAUUCAAAGUGAGCCAGGCAGGAAGCAAAAGCCUCACGUCGAAUAGCCGGGAAUAUCAAUUGCAAGAGGAAGAGACAGAAGCAUACAGAGCAGCUAAUGACGUUACGUAGACUUACGUCAGAUGACAAGGCAAAAGAAUAAUUUUUUCAACAAGGUUUAUGAUAGAACUAUUCGAAAAAAUGCAACAAAGAACAGCCCAGUCCAAACUAUAUCUAUGAUAUGGAGAUACAAGGUAUUGGACGAAUUGCUAAGUAAUUCAGACACAAAGUGUCGAACGUGCAACGAAAGCGACAUGAAGAGAAACAGAUUAGUGAAAAACGAUACGUCGCAACAGCUGGAGCCAGAGUUGAUA'
p297
aF0.8461538461538461
aa(lp298
S'Teslagon'
p299
aS'AAAAAAUUGAAAAAAGCAGGAAAAAAAGCGACAAAAAAAAAAAAAAAGUAAAGAGUAUAUGAAAAAAAAAAAAAAGUAUCAAAAAAACCAUGAAAAAAAGUAAAAAAAAAAAAAAACCAAAAAAACAACGAAAAAAAACACCAAAAAAAAAAAAAAAGGAAAGAGUAUCAAAAAAAAAAAAAAAACGUGUAAAAAAGCGAGUAAAAAAAGCAAAAAAAAAAAAAAAGUAAAAAAAGCGGGAAAAAAAGCGACAAAAAAAAAAAAAAAGUAAAGAGUAUACAAAAAAAAAAAAAAAGUAGUAAAAAAACCAGGGAAAAAAGUAAAAAAAAAAAGAGAAAAAAAAAAAAAAAUUAGCAAAAAAAGCACCAAAAAAAGGAAAAAA'
p300
aF0.900523560209424
aa.