(lp0
(lp1
S'Simple Hairpin'
p2
aS'GCGAUAAAAAAGUCGC'
p3
aF1.0
aa(lp4
S'Arabidopsis Thaliana 6 RNA - Difficulty Level 0'
p5
aS'GCGAUAGAAAUGAUAAAAAAAAAAAAUCGAUAUAGCGGGCUAUGCUGUUACGAUAUCAAAUAGACAAAAAAGUCUAGGAUAUCAGUAGCAGCAUAGCAAGCUAUAUCAAUUAUCGC'
p6
aF1.0
aa(lp7
S'Prion Pseudoknot - Difficulty Level 0'
p8
aS'UAGAGCAGAUCUAAUGAUCGCUACUAAAAAAAAAAA'
p9
aF1.0
aa(lp10
S'Human Integrated Adenovirus - Difficulty Level 0'
p11
aS'UCUGUGUUGUUAUGUGCGACGGAAAAAAAAAUCAUUGUACCGUUUUUAAGGGUUGCUAGUAUCCAUAGAUAUACUAAAAAAUGUAUAUCUAUAAACGGAAGCGAAAAUAUGAACAAAAGGUAUGUACAGUUAAAAAAAGUGGCUGGUUGAAGAAAAAAAAACGUCGCUCAUGAAAAACAGCAAAACAGGAAA'
p12
aF0.9791666666666666
aa(lp13
S'The Gammaretrovirus Signal - Difficulty Level 0'
p14
aS'CUGUCUUGCUUGCUAAUGCAGGCUUGUCUAAAAAGUUCAAGCCGCGGGGGGGAUAAUUCCCUGAAACCCGGGCGAACGGGGGAUACGGAAACGUAUCCCAA'
p15
aF1.0
aa(lp16
S'Saccharomyces Cerevisiae - Difficulty Level 0'
p17
aS'ACGUUACCCCACAAAAAAAUGCCAGAAACACCCCCCCCAAUUUGAAAGAGCUAAAAAAAAGCUUCGAUGUCAAAAACGCUAUAACGUCUAAAAAAAGAUCCCGAAAAAAAAAAAAGCGGAAAUGAAGAAAAAAAGUGUUCGGAUCGAAAAAGGCAGAGAAGUUUUAAAAAAUAAACAGUAAAAAAAAAGUUUAUGAAAAGAGACAAAAAAGGUCUCUUCUGUCAAAUUUUAUAUAAGAACUAAAAAACCAUCCAGAGAUAAAAAUUCUCUGAAAUUCGGCGAAAAAAGUUGAAUGUAAAUAAAGCGAGGCAAUGUUGAAAAAAAAGCGCCGAUGGAAAAAAUGUCGGAAAUGGAGCUAAAAAUGUUUCGUCUUGCAAAA'
p18
aF0.9155672823218998
aa(lp19
S'Fractal 2'
p20
aS'AAAAAGCGAUAUCAAGGCCUUAUAGUAACGCGGAAAAAAAAGUGCGAGGCUGAAAAAAAAAGUAGCAAGAUGAAAAAAAAAACGUCAAGCUAUAAGGUAAAGCGCUAGAGGUGGCGCAAAAAAAAAAGCGCAAGACCUAAAAAAAAUGGUCAAGCUCUAAAAAAAAUGAGCGUUCUCUGGCGCAAGGUGAUGGAGUAAGCGGAAAAAAAAAACCGUGUGCCUAAAAAAAAAAGGGUUGGCUGGAAAAAAAAACAGCAAACUCUAUCACAAAGAUAUCGCAAAAA'
p21
aF1.0
aa(lp22
S'G-C Placement'
p23
aS'CGAUAAAGUCGG'
p24
aF1.0
aa(lp25
S'The Sun'
p26
aS'UACAGCUAGAGAAAUUUUAAAGCGUGAAUCACAAAUAUGCAAGUUAUAAAUCGUGUAUCACAACUAUACAAAGUAUAACGCGAGUAAAACAGGUGGCUAAAAUACAAACCGUGGAACAUAGCUCAACGAAGUUGAAAGCAUGGAGCGGAGGUAAACAAAGUAUAAAUCUUCAAACGCAGCGUUCCGAAGGAGAACGCGCGAAGCAAAGGCAGAUAAGGAUUCCCUCUUGAAACGGAGCUAUACGAAGUCUAAGGCCUG'
p27
aF0.8682170542635659
aa(lp28
S'Frog Foot'
p29
aS'AAAAAAAAAAGGUCGAAAGAUCCCGUUAAUACGGCGAGUAUCUCG'
p30
aF1.0
aa(lp31
S'InfoRNA test 16'
p32
aS'GCGAUUAGAGAGAGCGAAAGCUCUACUGCGGAUUGC'
p33
aF1.0
aa(lp34
S'Mat - Martian 2'
p35
aS'GAUCGAAAGAUCAAAGCGAUACAAGCGAUAUCAAAAAAAUAUCGCGUAUCGCAAAGCAGGGCUAAAAAAGCGAUACAGCGAUAUUAAAAAUAUAUCGCGUAUCGCAAAGCUAUGCCGUUAUGGAAAAAACAUAGCGAGCAUAGCAAAAAAGGCCCUGCAAAGCAUGGCGUGGUGUCAAAAAAACACCACAAGCCAUGCAAAAGACGAAAGUCU'
p36
aF1.0
aa(lp37
S'square'
p38
aS'GCGAUACAGGGCCAGAGCUCCGAGACAAAGUCUCGAAAAGAGCUCUAAAAGGCCCUAAAAGUAUCGC'
p39
aF1.0
aa(lp40
S'Six legd turtle 2'
p41
aS'AAAAAGCAAAGCGAAAGCAAACCGAAAGGAAACCGAAAGGAAACCGAAAGGAAACCGAAAGGAAACCGAAAGGAAAGCAAAAAAAAAAAAAAAAAAAA'
p42
aF1.0
aa(lp43
S'Small and Easy 6'
p44
aS'AUAGCUAAAUGUACAUUAAAAAAAUAUGAU'
p45
aF0.8666666666666667
aa(lp46
S'Fractile'
p47
aS'AAAAAAAAAAAAGCGAAAGCAAAGCAAAGCGAAAGCAAGCAAAGCAAAAGCAAAGCAAGCGAAAGCAAAGCAAACGAAAGUAAAAAAAAAAAAAAAAAAAAAAAA'
p48
aF1.0
aa(lp49
S'Six legd Turtle'
p50
aS'AAAAACUUAAAAAAAAAUUGAAAGGAAAAUCAAAGAGAAAAUUAAAAAAAAAAUUGAAUCAGAAACCUAAAGGGAAACUGAAAACAAAAAAAAAAAAAAAAAAAA'
p51
aF0.9619047619047619
aa(lp52
S'snoRNA SNORD64'
p53
aS'GCGAUCAAAAAGACAAAAGACAAAGCGAUAAAAAAAAAAAAAAUCGCAAAAGUCAAGUCAAGAUCGC'
p54
aF1.0
aa(lp55
S'Chalk Outline'
p56
aS'AAAAUCAUCAGCCCUGAAAAGCGGCAUACAGACGAAAGUCGUAGGCGCCCGAAAGGUGCGCAGGGAUCAAAAUCACCGAUGUAAAAAAAAAAAAAAAAAAAAAA'
p57
aF1.0
aa(lp58
S'InfoRNA bulge test 9'
p59
aS'ACGAUACAGUGAGAGCUAUACUAAUGUAUAGCCCCGUAUCGU'
p60
aF1.0
aa(lp61
S'Tilted Russian Cross'
p62
aS'AAAAAGAUGGACCUAAUGGUCGGCCAGUCCGAAAGGACGCGGUAAAGACUGCAGAGCUAAUGUUCGGCCGCGCGAAAGCGCCAUCGAAAAAAAAAAAAAAAAAAA'
p63
aF1.0
aa(lp64
S'This is ACTUALLY Small And Easy 6'
p65
aS'AAAAAAAAAAAAAAAAAAAAAAAAAAAAAAAAAAAAAAAAAAAAAAAAAAAAAAAAAAAAAAAAAAAAAAAAAAAAAAAAAAAAAAAAAAAAAAAAAAAAAAAAAAAAAAAAAAAAAAAAAAAAAAAAAAAAAAAAAAAAAAAAAAAAAAAAAAAAAAAAAAAAAAAAAAAAAAAAAAAAAAAAAAAAAAAAAAAAAAAAAAAAAAAAAAAAAAAAAAAAAAAAAAAAAAAAAAAAAAAAAAAAAAAAAAAAAAAAAAAAAAAAAAAAAAAAAAAAAAAAAAAAAAAAAAAAAAAAAAAAAAAAAAAAAAAAAAAAAAAAAAAAAAAAAAAAAAAAAAAAAAAAAAAAAAAAAAAAAAAAAAAAAAAAAAAAAAAAAAAAAAAAAAAAAAAAAAAAAAAA'
p66
aF1.0
aa(lp67
S'Shortie 4'
p68
aS'GCGAAAGCAGCGAAAGC'
p69
aF1.0
aa(lp70
S'Shape Test'
p71
aS'AAAAACGGAUCAAGCGAUAAAAAAAAAUCGCAAGACCGGCAUAGACAAAAAGUCUAGGAUCGAAAGAUCAGCUGUCAAGAUCGGAAAAAAAAAAAAAAAAAAAA'
p72
aF1.0
aa(lp73
S'The Minitsry'
p74
aS'GCCAAAAAUCGAAAAAGCACACAAGAUAAAAUGUCAAAAAAAGGACCGUCAUGCGCGAGGGC'
p75
aF1.0
aa(lp76
S'stickshift'
p77
aS'AGUAAAGCUCAAAAAGACGCUUUAAA'
p78
aF1.0
aa(lp79
S'U'
p80
aS'AAAAAGCGAUAGAGAGCAGAGCGAUAUAUGAAAAUAUAUCGCCGCCCAUCGCAAAAA'
p81
aF1.0
aa(lp82
S'Still Life (Sunflower In A Vase)'
p83
aS'AAAGAUCGCCAAUCAAAAGGAUUGAACUGCUGAAGGUAUAAGCGCUCAAAAAGAAUGACCCCUGAAGGGUGAAACGUUUAAAUAACGUAAAGUCUAAAAAUUGGGGAUAUAGAGAUUUAGAUAUAUAUGGCGAUAAAAAGGUCGCAUCUGGAAAAAAAAAAAAACAUUAAAAAAAAAAAAAAAAAAAAAAAAAAAAAAAAAAAAAACCGGAGGGAAAAAAAAAAAGUUGGAGGGGCAAAGGCCCCACAUAUAUAUUUAAAUUUCUAUAUAAGCGAUAAAAAAUCGGAACAAGCAAAAAGCUUGAGACGCGGAAAAAUCGAAACCGAUGAAAAGUCGGAGUAGCUGAAAAGCCGAACAGAUGAAAAAUCUGAGAUCAAA'
p84
aF0.9470899470899471
aa(lp85
S'Quasispecies 2-2 Loop Challenge'
p86
aS'AAAAAGAUCCAGUGGGAUCGAAAGAUCAAACUGUGGGUGGCCAAGAAGCCCUGGACGGUAGGAAAAAAGUUCGGAAAGUCCGAUCAAAAAAAAAAAAAAAAAAAA'
p87
aF1.0
aa(lp88
S'Corner bulge training'
p89
aS'AGCGAUCGCGAUAAAGUCGCAAAAGAUCGCA'
p90
aF1.0
aa(lp91
S'Spiral'
p92
aS'AAAAAGAUCAGCGAUCAGACAGCGAUAGAUCAGAUCAGCAGCAGCAGCAGCAGCAAAAAGCGCGCGCGCGCGAUCGAUCAUCGCGUCGAUCGCGAUCAAAAA'
p93
aF1.0
aa(lp94
S'InfoRNA bulge test'
p95
aS'AAAAAAAAAAAAAAAAAAAAAAAAAAAAGGCGCAAAAAAACAGAAAAGCGCAAAGCGCGGGCAUAACACAAAAAGUAGUAAUAGCAAGCAGCGAGGCAGCGAAAACUAGUAAAAAAGCAGCA'
p96
aF1.0
aa(lp97
S'Worm 1'
p98
aS'AAAAAAAAUGAUGUUGAAAAACAAAAAAUAGUAUUACUGAGGUAU'
p99
aF0.9555555555555556
aa(lp100
S'just down to 1 bulge'
p101
aS'AAAAAGCGCAGCGAUGAAAAUCGCAGACGAAAGUCAGCAGCAAAAGAUCAGACGAAAGUCAGACGAAAGUCAGAUCAAAAAAAAAAAAAAAAAAAA'
p102
aF1.0
aa(lp103
S'Iron Cross'
p104
aS'AUAGUUGGAAAGAUAAGAAAGGAAGGGGAAAGCUAUCUUAAAGGCGGGCGAAAACUUGGGAAAAUUUGCUAAAUUUAACCGAAAGGUGUCCAAAGGAAAAAAAGCCCACUGAAGCCGUCUAGA'
p105
aF0.926829268292683
aa(lp106
S'loops and stems'
p107
aS'AAAAAGGGAUAUGAAGUUAAAACGGCAAACAGGAAAAAAAAAGCGAUAAAAAAAAAAAGAUCGCAAGUCUGGAAAGAGUAAAAAAAAAGACUCAACGCUGAAAGUCUAAAAAAUGACGAAUAACGGGGGAAAAACCAAAAUAUCUCAAAAA'
p108
aF1.0
aa(lp109
S'Water Strider'
p110
aS'AAAAACCAGCAAGGGGGACUCAAAGGAGGGUGAAAGUCCCUCGCGAUCCGAGAAAGCUUGAGAAAGCUCCGUGUGGGCCAGGAUAAAAAAAAAAAAAAAAAAA'
p111
aF0.9029126213592233
aa(lp112
S'The Turtle(s) Move(s)'
p113
aS'AAAACGAAAGUAGAAGCAAGAUUUUAAAAAAAUGAAUUUUGCGAAUGAUCAAAAAGAUUUUAAGGAAGAAAUUCAGAUCGACUAAAAAUGUCGAGAACCCCAAACCGAAAGGAUAAUUAGGAAACUGUAAGAUUAACAAAAAAAGUUGAUAAAACGUAAAGACGAAAAACAAGGCAAAACCCAAAAAAAGGGAAGAUGAAAAAAGAUCGAACAUGGGAAAAAUCAUGGAACCAGGAAAACUGGAAGCCUUGGAAAAAAAUUGGAAACAUCAAAGUGAAAGCAAAAUGACUGUGAAAAAAAAAGCAGUAAAAAAGGG'
p114
aF1.0
aa(lp115
S'Adenine'
p116
aS'GCGAUAGCGAUCAGCGAUCAGCGAUCAUAUAGAAUAUAGCAAAAGCGAUCAAAAAAGAUCGCAGCUAUAGGCGAUAAAUCGAUACAAAGUAUCGGAUCGCAUCUAUAAGCUAGGAUAUUCUAUGAAUAUCAAACUAGCAGAUCGCAAAAGAUCGCAAAAGAUCGCAAAAAUCGC'
p117
aF1.0
aa(lp118
S'Tripod5'
p119
aS'AGCUGCGGUUAAAAAAACCGACGGAAUACGUCGCGGAA'
p120
aF1.0
aa(lp121
S'Shortie 6'
p122
aS'CCGAAAGGAGCGAAAGCAGCGAAAGCAGCGAAAGC'
p123
aF1.0
aa(lp124
S'Runner'
p125
aS'AAAAAGUUGAGAUCAAAAAGAGGAAGCGACAGUUCAAUGCCUAUACUAGAACCUAAAAGCUGAUAGAAAAUCUAAAGUGACCCUAAGCCAAUUAGCAGUCUAUCUCACGGCAAAAA'
p126
aF0.9396551724137931
aa(lp127
S'Recoil'
p128
aS'AAAAUUAAUGUGGGGGUUGGCAGUGGUUAUUAAGGGUAUUCGCGUGUCUUCAAGGAUUAUAUUGUAAAAAAAAAAAAAAAAAAAA'
p129
aF0.9764705882352941
aa(lp130
S'[CloudBeta] An Arm and a Leg 1.0'
p131
aS'AAAAAAACGUCCAUGAAAAUAGGAUCCAGCGAAAGCGGAAGUUAAAAAAAAAAAAAAAAAAAA'
p132
aF1.0
aa(lp133
S'[CloudBeta] 5 Adjacent Stack Multi-Branch Loop'
p134
aS'CAGAGGAUCGAAAGAUCGCGAUGAAAAUCGCGCGAUGAAAAUCGCGCGCGAAAGCGCCUCUGA'
p135
aF1.0
aa(lp136
S'Triple Y'
p137
aS'AAAAAGAUCACAACUUCGAAAGAACAAUCGAAAGGUUUAUCCAUGGUGCUAAUGCACGGUGUAAUUACAUCGAGAUCAAAAAAAAAAAAAAAAAAAA'
p138
aF0.9175257731958762
aa(lp139
S'Misfolded Aptamer'
p140
aS'GAUGAAAAAGCGAACGAAAUGGAAAAAAUCAAGGCAAAGGGAAAAGUAUC'
p141
aF0.96
aa(lp142
S'Flower power'
p143
aS'AAAAUGCUCGCUCAAAGAGCAUGCACGGCGAAGACCAGGGGUGAAACUCAGAGCCGAAACCCUAAGGAGUCGAAGAUCGAUCUAAAAAAAAAAAAAAAAAAA'
p144
aF0.9215686274509803
aa(lp145
S'Kudzu'
p146
aS'AAAAUUAUAUAUAGGCUGUACGUCAGCAAAGUGGACGGCAAGCUCAAAGGUGCUUAAGACUAUGUCGAAUGCUCUGUGGUAGAAAAAAAAAAAAAAAAAAA'
p147
aF0.9801980198019802
aa(lp148
S'"1,2,3and4bulges"'
p149
aS'AAAAUUUGACUAGCUGAAAAAGAACCUGAAGAGAAAUGUGUCAUAUAAAGUUGAUGCGAAAUAAAAGAGUGAAAGCAUGUGAUACAAAACAAAAAAAAAAAAAAA'
p150
aF0.9047619047619048
aa(lp151
S'medallion'
p152
aS'GCGGUCAAUAGACGAAAGUCUAUGGACGAAAGUCAAACGAAAGUUAAUAGACGAAAGUCUAUACGCGAAAGCGAAUAGCCGAAAGGCUAUAAGCGAAAGCUAAGCGAAAGCUAAUAGACGAAAGUCUAUAAGCGAAAGCUAAGUGCCUAAUGGCAUUAAGCGAAAGCUAAGCGAAAGCUAAUCGUCGAAAGACGAUAAGCGAAAGCUAAUAGACGAAAGUCUAUAAGCGAAAGCUAUGCGAAAGCAAAUAGACGAAAGUCUAUAAGCGAAAGCUAAUAGACGAAAGUCUAUGUGCGAAAGCAGCGCGAAAGCGAAUAGCCGAAAGGCUAUAGACCGC'
p153
aF1.0
aa(lp154
S'[RNA] Repetitious Sequences 8/10'
p155
aS'AGGAAAAAAGCAAAAAAGCAAAAAAGCAAAAAAGCAAAAAAGCAAAAAAGCAAAAAAGCAAAAAAGCAAAAAACCAAAAA'
p156
aF1.0
aa(lp157
S'Documenting repetitious behavior'
p158
aS'AAAAAAAGGGAAAAAAAAAUUAAAAAAAAGGGAAAAAAAAUAAAAAAAAAAGUAAAAAAAAAGGAAAAAAAAAAGAAAAAAAAAGGAAAAAAAAACCAAAAAAAAAGGAAAAAAAAGAGAAAAAAAAGGGAAAAAAAAGUGAAAAAAAAUGUAAAAAAAAAAAAAAAAAAAAACAAAAAAAAAAGGAAAAAAAACGAAAAAAAAGCGGAAAAAAAAUCGAAAAAAAGCCAAAAAAAAGUGGAAAAAAAAGUUAAAAAAACAAAAAAAAAAACCAAAAAAAAACUAAAAAAAAGCCAAAAAAAAACGAAAAAAAAACCGAAAAAAAGCUAAAAAAAAACCGAAAAAAAAGCGAAAAAAAAGAAAAAAAAAACCAAAAAAAAAAUGAAAAAAAAUAGAAAAA'
p159
aF0.97
aa(lp160
S'7 multiloop'
p161
aS'GGCCGCGAUGAAAAUCGCCUUGUUAAUACAAGCAGAUAAAGAUCUGGGGAUUAAUGUCCCGAUUCGAAAGGAUCGGCAUGAAAAUGUCGGCC'
p162
aF1.0
aa(lp163
S'Kyurem 7'
p164
aS'AAAAUGCGUGACUGGUACUUCAGCUGUAAUCGCCCGUGAAAAAUGUCUCAGAAAAAAAUCUAAAGAGGUCAAACACCAGUGCUAAAAAAAAAAAAAAAAAAA'
p165
aF0.9215686274509803
aa(lp166
S'JF1'
p167
aS'GCUACAGAGAUACAGAUAAGCGAGAAAAGCGAUCAAUAGACAAAUAGACAAUAUAGCAAUAUAUAGAUAUACGAAAGUAUAUCUAUAUAUAAGACGAAAGUCACAGAGCUAUGAAAAUAGCUCUGAACAGAUGAAAAUCUGAGCUAUAAGUCUAGGUCUAAGAUCGCAAAGCGAUUUCAAAAAGAACGUCGCAAGCUAUGCUUUAAUAGUGUUAUAGCGAAAGCUAUAGCACUAUUCGGAGCAUAGCAAAGCGAUAAAAAAGUCGCCGAGGCUAGGAAAACCUAGCCUCGAAACGAGAAAACUCGAAUUCGCGAGUCUGAAGACAGACAGACGAAAGUCGUCGUCUAUAUAGAGCUGAAAAGCUCAUAUAAAUCUACUGCUAGCAAA'
p168
aF1.0
aa(lp169
S'multilooping fun'
p170
aS'UGAUGAUGAAAUAAAUGAAAGAAACAGGAAAAUGUG'
p171
aF0.8333333333333334
aa(lp172
S'Multiloop...'
p173
aS'GAACGGAUCAGACGAAAGUCAGACGAAAGUCAGACGAAAGUCAGACGAAAGUCAGACGAAAGUCAGACGAAAGUCAGAUCAGAUAUAAAAAAGUAUCGACGAAAGUCGUUC'
p174
aF1.0
aa(lp175
S'hard Y'
p176
aS'AAAAUGGUCUUCACUAUUUCUAAUGAAAUGGAUAGGCGAUAUAGCAAAGGCUAUAUCGCGACCUAAAA'
p177
aF0.9705882352941176
aa(lp178
S'Mat - Elements & Sections'
p179
aS'AAAAGGAUCGGAAAGGUAGCACUGCUUAUCCUAUGGCUAAGGGAAACCUGGUGCAUAUUCGAGCUAAUGAGCUAGCAAACGGAUCAAAAAAAAAAAAAAAAAAAA'
p180
aF0.9809523809523809
aa(lp181
S'Chicken feet'
p182
aS'AAAAACAAUCGUCAAAGGGAGGAACUAAAGAGAAUUACCUGAAAACUUGAAAAAUAAGGGGGAAAAA'
p183
aF0.8507462686567164
aa(lp184
S'Bug 18'
p185
aS'GCGACAAUUAUGAAUCGGAGUUAGAAAAAGGUAGAAUAUGGGGCUGAAAGCGA'
p186
aF0.9245283018867925
aa(lp187
S'Fractal star x5'
p188
aS'AAAAACAGAGGUCAAAGACGAAAGUCUAACUAUGAAAAUAGAACGAUGAAAAUCGAAGGCAAAAAUGCUAAGACCUCUGAAAAAGAGAGCUCAAAGGCGAAAGUCUAACGAUGAAAAUCGAACGAUGAAAAUCGAACGAAAAAAUUCGAAGAGCUCUCAAAAACAGAGCUCAAAGACGAAAGUCUAACGAUGAAAAUCGAACGAUGAAAAUUGAACGAAAAAAUUCGAAGAGCUCUGAAAAACAGAGCUUAAAGACGAAAGUCUAACGAUGAAAAUCGAACGAUGAAAAUCGAACGAAAAAAUUCGAAAAGCUCUGAAAAACAGAGCUCAAAGACGAAAGUCUAAGGAUGAAAAUCUAACGAUGAAAAUCGAACGAUGAAAAUCGAAGAGCUCUGAAAAA'
p189
aF1.0
aa(lp190
S'Crop circle 2'
p191
aS'GAUAACUAAAUGUGAAAUGGUAAAAAAAAAGAAAAAAAAAAAAAAAAAAAAAAAAAAAAAGUUGAAAAAAAAAAAAAUGGAAAAAAAAAACUAAAAAAGGGAAUGCAAAA'
p192
aF0.9454545454545454
aa(lp193
S'Branching Loop'
p194
aS'AUGGAGAAAAAAAGUGGCGUAAUCGCCUAUUUAGAAAAAA'
p195
aF0.95
aa(lp196
S'Bug 38'
p197
aS'ACGAGGAAGGGACAUAAAAGGAAUGAAUUAAAGUGG'
p198
aF0.9444444444444444
aa(lp199
S'Simple Single Bond'
p200
aS'AAAAAAGGAAAAAAAUAGCCGAAAAGGCUUAAAAAAAACAAAAAAAAAAAAAAAAAAAAAA'
p201
aF1.0
aa(lp202
S'Taraxacum officinale'
p203
aS'UGGCGAAAGAGCGGGCCGAAAGCAGGCAAUCCGAAAGAGGGAAUACGAAAGCUCGAGGUGUAAUCUGCUAGGCUGAAAGAGCCGAUAGAGCUAUUGCUGGAUAGACAAAGUCUGGUCCAGCGGCUACAAAUAGUGCUAUAAGAUAGACAAAGUCUAUCGGUAGCGUUAUUAGCAGCGAUCUAUGAUCGCGCUAGUAGCAAAAAUAGCUCUAUAGCCAUAAUUAGUCGUGCCGAAAGAGCAGCCUCGAAAUCACGGAAGGAAACUCUUUAGAUAGAAACGAUC'
p204
aF0.9929078014184397
aa(lp205
S'Headless Bug on Windshield'
p206
aS'AGGGUCUAAAAGCGCGGAGGGAAUGAAAAGAAAAAAAAAAAAAAAAAAAACGUACUAAACGCAGCAAUGAGCCAGUCAAUGUAAGGUAAAAAAGCGAAAGCAAAACAUCCACAAAAAAAGACAGCUUCAAAAAAAGACAGGAAAGACGAGCAGAUCCCCCCCCCCCCCAAGUCGAGCGAGUCAAUCAGUCAAGGAAAGCG'
p207
aF0.99
aa(lp208
S'Pokeball'
p209
aS'AAUUCGGGGUAAAAUCCUGGCAACAAUGAAGCCAAUGGGGAAGGCCUAAAAGUUUGUAGUUAUGUGGAACAUUGUCCCUGAGCCCCGAUAAAAAAAUACGUUAGAACACGAGGAACACGAUUGAAGAGGAUUCGAAUCGAGAAAAUCAGAAGCAUAAACUGAGAAGUGAACUGGCGGCGUGAAA'
p210
aF0.8695652173913043
aa(lp211
S'Variation of a crop circle'
p212
aS'AAAGGAGAAAGAGAAAGGUAAGGCAAUUAGUUAAGGAAGAAGAAAGCAAAAAGCCAAAAAAAUCAAAAAAAAAUCAAAAAAAAAAAAA'
p213
aF0.9545454545454546
aa(lp214
S'Loop next to a Multiloop'
p215
aS'AGUGUAGAGCUAAACAAGUGAUAGUGAAAACUAUCUGCGAUUAUAAUUAAUCGCCUAAAAAAUGUUCUACAAA'
p216
aF0.9726027397260274
aa(lp217
S'Snowflake 4'
p218
aS'CUGCAAGGCGGCGAUUCCGAAAGGCAGAUGUUAGGUGCGAAAGCCAGAUGUUCAAAGAGCAAGUAUGAACUAGAUCUGUCGAAAGAACCGGUUGUGACCCGAAAGGCAGAGCGACAAAGUCGAAAGAUAAAGUCUCUCUGGGUAAAGCGUCACUUGAGAUCCGAAAGGCAGAUCGCCAAAGUCAAACGUCAAAGGCGAUCUGACGAAAGUGUCUCUAGUGUUUCGAAAGGCAUAGCGACAAAGUCGAAGUAGUAUUUACCUGUGCAGAAAGGGGCACGAGGGAUUCGAAAGACAGGUUAGCAAAGCUAAACCUUGAAGAGGACCUGCCGAAAGGAUCUCAAAUCGGGCAAAGGCGGUCGGAGGACACAUC'
p219
aF0.827027027027027
aa(lp220
S'Mat - Cuboid'
p221
aS'AAAGGAAAAGCAAGGAAAAGUAAGCAAAAGAAGCAAGCAAAAGCAAGCGUGCAAAAGAACCAAGCAGUCAAAAGCAAGCAGGCAAGCAAAAUCAAGGUAGCAUCCAAUCAAAAUAAGCGGGCCGUGCGAGGAAAAUCGGGCGGGCUGGCGGGUGGGCAAAAUCGGGCGGGCGGGCGGGCGGACAAAAUCGGGAGGUCAUGCUGGCGGGCAAAAAAGCAAGUAUGCUGGGAAUCAAGAGUAAGCAAGCAAGGAAGCAAGAGCAAGCAAGUAUGCAAGCAAGAUGGAGCAAGCAACGAGUAGAGAGCUGGCAACUAAGGGCAAGCAAGCAGGUGAAAGCAAGGAAUGCUAGCAAGCGCAAGCAAUUCAACCGCAGGUUCAGU'
p222
aF0.9315789473684211
aa(lp223
S'Misfolded Aptamer 6'
p224
aS'AAAAAACUAGAAAAAGAUGAUCGAAUGCAGAAAAAAAUGCUGAAGUAAAAUAUCGAAAAAAUAGAAAAAAAAAAA'
p225
aF1.0
aa(lp226
S'Snowflake 3'
p227
aS'GGGGCGAAAGUAGAUCACGAAAGUGAAGCUCAGACAAAGACGAAAGUCCUCAGAGAAAUAGGUAAAGCCGCGAAAGCUGAGCAUGAAAAUGAGUGACGGAUCGAGACGAAAGUCCUAUUCAAAGGAAGCAAAGCUACUAAUGUUGACUAUGAAAAUGAAGAGCAGCUCAAGACGAAAGUCCCCAAUGAAAGUUUCGAAGAGACAAAGGUAGGGCCUGAAAAGGAAGAGCAGAUCAACGAAAAGUCGCGCCACGAAAGUGGUAAAGCUAUGAAAGUUGCGCAUGAAAAUGAAGAUCCGAUAAAGACGAAAGUCCGCAUCGAAACGAGCUAAGGUAUGAAAGUAGCGCAUGAAAAUGAAUAUCAGAACAACAGGAAACUCGUCAACGAAAGUCUC'
p228
aF0.8956743002544529
aa(lp229
S'Hard Y and a bit more'
p230
aS'AAAAGGCGAGUGACUGAUAAAGAUCGUAGGGCGCAGUCGGGGUCUAAUGAUCAUGCGAUUAAAAUGUCGCUAUGAGACGCCUCGCAAAAAAAAAAAAAAAAAAAAA'
p231
aF0.9716981132075472
aa(lp232
S'Mat - Lot 2-2 B'
p233
aS'AAAGGUGGGCGCGGGAAAGACCUGGGGGGAAAUCAAAAUUGAGGGCAACCAAAAGCAAGCUUAAGCAAGCGGGCUUGGGUAAAAUCUGGCGCGGGCAAAAGAUAAUUCGCAAGCAAAAGCAAGAGCAAGGUUGGUCAAACGAAAGUGUGGUCGCGAGGAAAAGGAGGCCCGAAAGGAAAAGCAGCAGCGAUCAAAAGCAAACGAAAGAAAGCAAGCGCGGGCAAAAUCGAGCGGGGGUAAAAGUGAAAACGCAAACAAAAGCGAGAGCAAGCUCGAAAAACAAU'
p234
aF0.8485915492957746
aa(lp235
S'Shapes and Energy'
p236
aS'AAAAAAGAGACCGCAGCAAAAGGAGGAUAACGAAAGAUAUCAAACGCUGGAGGAAAAAAGCGCGAAAGUGUCCAGGUCGCAAAAAAAAAAAAAAAAAAAAA'
p237
aF1.0
aa(lp238
S"Spiral of 5's"
p239
aS'UAAAAGCGAUAAAGCGAUAAAGCGAUAAAAGCGAUUAAGCGAUAAGGCGAUAAUAGACAAAAGCGAUGAAGCGAUAAAGCGAUGAUAGACAAAGCGAUAAGUCGAUAAUAGACAAAGCUAUGAUUGACAAUAGACAAUAGACAAUAGACAGCGAUAGCGAUGUUGUAAAAAACAACGGGGGAUCGCAAAAAAUCGCAAAAAGUCUAAAAAAGUCUAAAAAGGUCUAAAAAAGUCAAAAAAAGUAGCAAAAAGUCUAAAAAAGUCGGAAAAAGUCGCAAAAAGUCUAAAAAAGUCGCAAAAAAUCGCAAAAAAUCGCAAAAAGUCUAAAAAAGUCGCAAAAAAUCGCAAAAUAUCGCAAAAAAUCGCAAAAGAUCGCAAAAAAUCGCAAAAAGAAAAA'
p240
aF0.9949622166246851
aa(lp241
S'Campfire'
p242
aS'AAAAAAGCAGAGAUAAAAACUAAGGACGAAAAGUCUACCUACGAAGUGAGAUGGUUAAGAUGAAGAACAUCGAUGAAAAUACCAGUGACCUGUGGCAAUAUCGAAAGGAAGGCAUAACGCGAAAGUAGUAGUGAACAAGGCCAUACCCUAUGACACAGUGCGACAGCUAAAAGUAUCGUCCGCGAUUUAGCGAAGCUAAUAGAGGGUGGCUU'
p243
aF0.8679245283018868
aa(lp244
S'Anemone'
p245
aS'AAACCGUCCAAAGGGGCGGGAAGCGAAAGCUUCGCGAACGAAAGUUCGCCCGCUGAAAAGUGGCCGAGAGAAAUUUCGGGUGAUAAAGAUCACGCGGUGAAAACCGCGGGAAAGUAAUUUCUCAAUAGCGAAAGCUAUGCGAGCUAAUGCUCGCGCCAUAAAGAUGGCGCGAUAGAAAUAUCGCGCGCCAAAGGGCGCGCAGGUGAAAGCCUGC'
p246
aF1.0
aa(lp247
S'Fractal 3'
p248
aS'AAAAAGAUGAGAGAGCGAAAGCGCGAAAGCACUCAGGCAGGGAAACCGCGAAAGUAGUCAGACAGCGAAAGCGCGAAAGCAGUCAGACAGCGAAAGCGCGAAAGCAGUCACAUCAAAAA'
p249
aF1.0
aa(lp250
S'Kyurem 5'
p251
aS'AAAAUUAGCGUUGUUGAAAAACUAGAUUGGGGUAAUUUAAGGCUCAAUGCCAAAAAGCGAAAAAGCUAACCUCUGGGACCGCCACAAAAAAAAAAAAAAAAAAA'
p252
aF0.9230769230769231
aa(lp253
S'Snowflake Necklace ( or v2.0 )'
p254
aS'GCUAUGCCGUUAUGUGGCGAUAACAAAAAGUAGCAAAAGGCAGCAAAAAGCAGCAAAAAGUCUCAAAAAGUAAUCGCAGAGAAAAACUCAUCACCAACGAAAAGUAGUAAAAAGAGCAAAAAAGGUUAAAAAAGAUCCGAAAAGGAGUCGAAGACAAAAAGUCAUGGUCUAGAAAAAGUUGCAAAAAGUAACAAAAAGCAUCAAAAAGAAACAAAAAAUAGGCCAAUGCAAAAAGCAAUUGGCUUCAAAAAGAUGCAAAAAGCGCCGAAAAGGAUCAAAAAGAACCAAAAAGGAGUCUAACACAAAAAUUGACCAAUGGCAAAAACUAUCAAAAAGAAAAAAAAAGUAGCAAAAAGCCCGGAAUUUGAAAUGCAACAUAGCGGCAUAGC'
p255
aF0.8303341902313625
aa(lp256
S'Methaqualone C16H14N2O Structural Representation'
p257
aS'ACCCCAAGAACACAUCGCAUAGGAGAAAUUAAGAUUUACGAAAGUAUUGUAGAUUAAAGUCGGCUAAGCAAAGGCAGGAGGAAAAAACUUAAUCAUUAAGGAAAUAUCUCUGAGAUCAGUAUAAAGAUAGUUAAGUAAAGCAAAAAAAUUCUAGAUAGGCGAAAGUCGUUGAAAAACCAGUAAUCUGACUGUCAAAGAUUAAAAACAGGGAUAGUCAUGGAGAAGCAAAAUGCGAAAGUGGGCUGCAUGAAAAUGACGCAGUCGAAAGACAAUGAUCCGAAAGGAUCACAGAUUCGGAAACGAUGCGAAAGCAAAGCGAAAGCUAUCAGUCUGAUCGAAAUACGGUUCCCCCAAA'
p258
aF0.8901408450704226
aa(lp259
S"Cat's Toy 2"
p260
aS'AAAUGCAAUACUGAAAAAUAGGAAAAAAAAAAAAAAAAAACAGGCAAAGAGAAAUCGAAUCGAAAGGAAAAAAAAGCAAAAAUGGGGUAUUGCUAAA'
p261
aF0.9587628865979382
aa(lp262
S'Zigzag Semicircle'
p263
aS'AAAAGAGAUUGAGCAAAAACACCAAAACCGUAAA'
p264
aF0.9411764705882353
aa(lp265
S'Short String 4'
p266
aS'AAAAAAGGAUAGAGCAAUAAUCCGCAGCGAAAGCGCUUGUAUGAGGGGUCGAAAGGAACCAAUUAAGAGCGAUACCAAAAAAAAAAAAAAAAAAAAA'
p267
aF0.9381443298969072
aa(lp268
S'Gladius'
p269
aS'GGAAACAAUAGAACAAGUAAGGGAAGAAAGGCACCAAAGGAUGGAAAUAUCAGCGAUAAGUGACACGAGAUAAAUGGAACGGGAGCUAUUCUAGAUAUAAGUGACAGAUUCAAUCAAUACCAAAGGUAAGAUACAAUCAUUCGCCAGUAUCAAGGAUAGCAACAGUUUAAGAUAUCAAAAGUCUACGGUCGCAUACAAAGACAUAGGCAGGAGGCAAAGUUGCAGAAUUCCAUGAUAUAUAGACCAUAUAGCGAGACCGGGUAGAGAGCGAUUGAAAAAUCGCGACUUAUCCCGCGCUCGAUAUAUGCGCUAUAUAAGAGGGAAACUAGCGGGUAAGUUAUAAGCCUAGGAGCGAAAGCUCGAAGUCAGUCAAGUAGCGCAAAAAAGGAAGAAACGAAAG'
p270
aF0.915
aa(lp271
S'Thunderbolt'
p272
aS'AUAAGCCAGAAAAAAAAGUGCAAGUGGAGGAGGAAAAAGGUGACUUCAAAAAAAAAGCAAAAAUUACCAAAAAGUUAUAAAAAGAAAAGUGGGCAAAAAAUAUGGAAAAAAAAUUAAGCGGGCGAAAAAAAAAUAGGUGGAAAAGAGAAAAACGGGGAAAAAUACCAAGAAAAAUUCGGAUUCAAAAAAAAAAUAGGAAGAAAUGACAAAAAAACAAUAAUAAUCAAAAAAAACACCAGGGCGCGAUCAAGGAUCGCAGCAAGCAAAAAAAAAAAGGCAGCAAAAAAAAAAAGGUUAAUACAGAGCUCAAAGAAAAAAAACGAAAUGCUAUGAACAAUAAAGAAGUCACAAAAAAAACGGCAAGUUCAAAAACAAAAAAAGAUUGGCGAGUA'
p273
aF0.9387755102040817
aa(lp274
S'Mutated chicken feet'
p275
aS'GAAAAAAGAAGCCUCAAACGAGGAAAUUAAACGACAUGAGCAGCGAACGAAGAAAGCAAAGCUAGACAGUAGCGAAGUGCCAAAGGUAUCCAUAAAAAAA'
p276
aF0.78
aa(lp277
S'Chicken Tracks'
p278
aS'AAAAAAAAGCUAUACCGAUAAAGAUGAAUCAUGGAAAUAUGUAGAUAGAAAUGUCCUAGGGUGAUCCGGGUGAAGUCAAAGAUCUAUGAAAAAGUGCAAGGUACGGAAAAGAAAAA'
p279
aF0.9482758620689655
aa(lp280
S'Looking Back Again'
p281
aS'GAUAAGGGGACCAAAAGGCGCUCAAAGAGCGCGGGUCAAGCACACAAGGCAAAGCUGUGAGAGACAAUCAACGAAAGUUGUAAAGUCUUAAGAUAACUCAAAGAAAAUGAAAUGCUUUAAAGAAGGCUAAAAAAUUGAGCACCUAUAAAGACGGGAGAUAAAAUCUCGCUACCUUAGGAGUAAGAAUAAGAGGAUGUAAUCAUCAACAGGACAAAUAAAGACGAAAGUCAAGGUAGUAAAGACGUGGCUGUAGUUAGUACAAAAAAACUACUUAAAAAAAAAAUAAAAAAUAUUAGGUAAAGAGAGCGCGUCUAAAAAGGCCAGAGUGAAAACUCUGAACCCCGAUGCGAUGAGUAAAGCUCUAAGGUGCAAAAGGAGGAUUGAAAGUU'
p282
aF0.8586118251928021
aa(lp283
S'Multilooping 6'
p284
aS'AAGCUAAUAGGAGAAGAAAUUCUCAUGUCGAAAGACAUCCCUAUUUGUUAAAGAGUGGGGUCGGAAACGGUUUCAGUAGCGA'
p285
aF0.926829268292683
aa(lp286
S'Cesspool'
p287
aS'UGAGAAGAAAACAACCGAUUACAAAUAAAAUUAAGAAGAAUUGAAGGGGAAAGCAACAAAGAGAAAUAAUAUAAGCGAAAGGACAACAAAAGGGAGAAAAGAUCUGAGUAGAAACAAACCCAACAAAAAACGUAAAGGAAAACAAGAAAGUAAAAGAAUAUAAGUGAAAGAACAAGAAGCGGCCGGGAAACAAUGGGGGAGAAGCAAAGCUAACAACAACCGAUAAUUAAAAGAAGUAAGUGAAAGAAUUUAACCGAAAGACGAAGCAAGCGGGAAGAAAACGAGAGAGUAGAGAGAAAUCCAACAAAAACUCAAGGGGAAAACAACGGAAUGAAAGAAUAUAAAUGAAAACCCAAGC'
p288
aF0.7653631284916201
aa(lp289
S'Hoglafractal'
p290
aS'AAAUGCAACAGAUAAAAUCGACAAAAAAGUCGAACCCACCUCAAGGGACAAAAAUUCCGAGGCUGAAGACGAAAGUCCAGAGCUAAAGACGAAAGAUAAAAAAAUAUCAGUCCGAACGACGAAAAGUCCUAAAAGCGAAAGCGUGUGUUAAAACGUUAGACGAAAAAGUCUUACCAGCAAAAAGCGGUAUGAAAGUGAUCGAUGAAAACCACUAAAAAAGGGGGGUAAAAAAUAACGAAAGUAGCGACCAAAAAAUGUAAAAGAGCAUUAAAAGAGGAGUAGAGAUAAAGUCUCUAAAAAAAAGGUCGUAAAAAAGUUCGAAAAAGACGAAAAAGCAGAGCGAUGAAAACCAGAUCAAAAGCGAAAGCGCGAAAGCAGUGGCAAAGCUAUACGAUCGGAU'
p291
aF0.88
aa(lp292
S'Bullseye'
p293
aS'AAUCAUGUUCUAUUAUCAGGGUCGAUGACCAAGCUCAAAGAUCGUGAAAAAAAAGACGAUCGAAGAUCAAUAUCGAAGAUAAAGAUCAAAGAUCGUCAAAAAAAAUCUGAUCGAAGAUCAAGAUAAAAUAUCAACCUCAAAGGUCGGGAAAAAAAGCACGAACGAAGACCAGGGUCAAGGACCAAUGUCAAAGACCGUGAAA'
p294
aF0.8415841584158416
aa(lp295
S'Shooting Star'
p296
aS'CAGUGCGAUCGCGGUAAUAAGAGCGGCAAGCAGAAAGCGAAAGACUUACGUUAGACCACCGUUUACCGCAGAACUGGGAGAGGCAAUCAGAGCUAUUGACUUCAGCGAAAGACGAGAGUGGAAGCUACGAUAGACAACCAAAAUAAUUAGGCUCGCUCCAGAUAAAGGCUGACGGUGUAUCAUCGAUAAAAAUUUAGAGCAGAUCAGAGGAGCCAAAAGCGAUGCAAGGCAUCGCAUAGAUGAAGUCUGGGGUGCGACGCGAAGCGUCGUGAAGCUUAUGGAUUCCUCGCGAAACGAAAGAAGUAGGAGUAGAACCAUAUCAGCGAAAGACGAUAGGGUGCAAAAAUAGAAUUCGCAGCGCUGA'
p297
aF0.8736263736263736
aa(lp298
S'Teslagon'
p299
aS'AAAAAAUGAAAACAAGUAGGAAAAGAGGCAGCCCCCCACCCCCCCAAACAUAUAACUUUUCCCCCCCCCCCCCAAAGAGUAAAACAACCAGUAAAAAAAUCUCCCCCCCCCCCCAUGAGAAACAACCUAAAAAAAAAGCAACCCCCCCCCCCCCCAAGCGAAUAAUGUACACCCCCCCCCCCCAGGUAGUAAAACAGUUUCUAAAAAAAGCCCCCCCCCCCCCCAAGCAAAACAAAGAGGAAAAAAACCAAUGCCCCCCCCCCCCAAACAAAUAAUGUGCCCCCCCCCCCCCCAAGAAGCAAAACAACCACUAAGAAAAGCAAAAAAAAAAAAGCCCCCCCCCCCCCCAAGCAGCGAAACAAGGAGCAAAAAAACAAAAAAA'
p300
aF0.8900523560209425
aa.