(lp0
(lp1
S'Simple Hairpin'
p2
aS'GAUACAAAAAAGUAUC'
p3
aF1.0
aa(lp4
S'Arabidopsis Thaliana 6 RNA - Difficulty Level 0'
p5
aS'GAUAUAUGAAUUAGUAAAAAAAAAUCUAGAUAGAUCAUGUGUUUUUAUAUUCUUAUAAAAGAUACAAAAAAGUAUCAUAUAGGCAAUAUAGGAACACUAGAUCUAUCAAAUAUAUC'
p6
aF1.0
aa(lp7
S'Prion Pseudoknot - Difficulty Level 0'
p8
aS'GAGAUCAGAUCAAAAGAUCGAUACUCAAAAAAAAAA'
p9
aF1.0
aa(lp10
S'Human Integrated Adenovirus - Difficulty Level 0'
p11
aS'CUGGGUGUUGGAAUUGAAGUCGAAAAAAAAAAGAUCCAGGUGGGCGAGCCGCAUAUCAAAAGCGAUAGUAAAAUAAAAAAAGGUUUUACUAUAAAACGCGAUAUUAAAGUGCCCAAAUACCUGCGGAUAUGCUAAAAAUGCAUAUGAUCGAAAAAAAAAAAGACUUCUGUUUAAAACGACACAAACCAGAAA'
p12
aF0.9791666666666666
aa(lp13
S'The Gammaretrovirus Signal - Difficulty Level 0'
p14
aS'AAGAGAAGGUAUCAAAAGAUAUCGGCGCAAAAAAGAUCAAGACAGAUUGAGAAAAAAUUCUUUUAAGAUCGUCGAUCAAGCUAUACCAAAGGGUAUAGCAA'
p15
aF1.0
aa(lp16
S'Saccharomyces Cerevisiae - Difficulty Level 0'
p17
aS'GAGGGACCGUAUAAAAAAUUGCGAGGGAAAAAAAAAAAAAACCAAAAUUGACAAAAAAGGUCAAGUCCUUCAAAAGGAUACCAAGGCCUAAAAAAUGGCCCGCUAAAAAAAAAAAUGCGAAAUCUCUCGAAAAAAGAGAGGGUAUUUAAAAGGUGUUUAAGGUCAAAAAAAGGACCCAUAGCUAAAAAUGUUAUGAAAACUUUCAAAAAAAGAAAGAGGCAUCAAAAGAUGUACAAGAUGAAAAAAAGCAUCUAUAGCGAAAAAAGCUAUAAAAUGUAUCAAAAAAGGAUACGUACAUCGAAGGCUUUAGAAGACUAAAAAAAGGGUCCACAUCUAAAAAUGGUGUGAAAUCUAUCAAAAAAAGAUAGUUAAAGCAAAA'
p18
aF1.0
aa(lp19
S'Fractal 2'
p20
aS'AAAAAGAUAUAUCAAAUAUAUAUAUAGAGAGCAAAAAAAAAAGCUCAAGAGCAAAAAAAAAAGCUCAAGAUCAAAAAAAAAAGAUCAAUAUAUAUAUAAAAGUGGUUGUAUAAGAGCAAAAAAAAAAGCUCAAGCUCAAAAAAAAAAGAGCAAGAUAAAAAAAAAAAUAUCAGAUACAACCACAAAGCGGUUGUAUAAGAGCAAAAAAAAAAGCUCAAGAGCAAAAAAAAAAGCUCAAGAUCAAAAAAAAAAGAUCAAAUACAACCGCAAAGAUAUAUCAAAAA'
p21
aF1.0
aa(lp22
S'G-C Placement'
p23
aS'AUCCAAGGGAUG'
p24
aF1.0
aa(lp25
S'The Sun'
p26
aS'GACAGGGACUUUAUGGAUAACUUGUCAAACAUAGCAGGACAAAGGUCAACUCAUCGAAAACAGCGCUACGAAGAAGAAGUCAUUAAGCUUAGAGCUCUAAAGGAGAACUCAGGAAGUAUAGAAGUGCGAAGUACAACUCGUGAAAUAUAGAGCUAUAAAAUAGAACUCGUGAAAUACAGAGAUACAAAGUAGAACUCGUGAAACGCAGGGACACAAAGUGUAACCCGUGAAAUACAAGAUUCCAAAGGAGACUUUGUA'
p27
aF0.8488372093023255
aa(lp28
S'Frog Foot'
p29
aS'AAAAAAAAAAGAACUAAAGUUUGGGGGAAACCCCGGCCAAGGGCC'
p30
aF1.0
aa(lp31
S'InfoRNA test 16'
p32
aS'GAGUUCGCUGAGGUCAAAGGACUUACACGAGAAUUC'
p33
aF1.0
aa(lp34
S'Mat - Martian 2'
p35
aS'GAUUAAAGAAUCAAUGAUAUACAAGAUUUACUAAAAAUGUAGAUCGUAUAUCUAGGGAAUAUCGAAAAAGAUUUACAGAGAUACUAAAAAUGUAUCUCGUAAAUCAAAGUUUUUGAGUGCUUGAAAAAAGGGCACUACAGAAACAAAAAAGAUAUUCCAAGGCCGGGGAGUUUUUUAAAAAUGGGGGCUGACCUCGGCAAAGUUCAAAAGAGC'
p36
aF1.0
aa(lp37
S'square'
p38
aS'GAUAUACCGGGGCCGGGGGCCGGGGCAAAGCUCCGAAAAGCCCCCGAAAAGCUCCGAAAAGUAUAUC'
p39
aF1.0
aa(lp40
S'Six legd turtle 2'
p41
aS'AAAAAACUAAUCAAAAGAGAAGUGAAAGUUAAGUUAAUAUUAACCAAAAGGAAAGGAAAAGUGAUGUAAACGCUAUGCGAAAAAAAAAAAAAAAAAAA'
p42
aF0.9183673469387755
aa(lp43
S'Small and Easy 6'
p44
aS'UACCCAAAAGGGAAUGUAAAAAAAUCAGUA'
p45
aF0.8666666666666667
aa(lp46
S'Fractile'
p47
aS'AAAAAAAAAAAAGCGAAAGCAAAGCAAAGCGAAAGCAACCAAAGGAAAACCAAAGGAAGCAAAAGCAAAGCAAGCUAAGGCAAAAAAAAAAAAAAAAAAAAAAAA'
p48
aF1.0
aa(lp49
S'Six legd Turtle'
p50
aS'AAAAAAAAACAGCAAAAUUAAAAGCGAAAGUAAAGCUAAAAAGAAAUACAAAACUAAAAUGAAAAGAAAAAUUAAAAAGAAAACCGAAAAAAAAAAAAAAAAAAA'
p51
aF0.9619047619047619
aa(lp52
S'snoRNA SNORD64'
p53
aS'GAUAUCAAAAAGACAAAAGACAAAGAUACAAAAAAAAAAAAAGUAUCGAAAGUCAAGUCAAGAUAUC'
p54
aF1.0
aa(lp55
S'Chalk Outline'
p56
aS'AAAAUGCUCAGAGACAAAAGUACUCAAUCAGACUAAUGUCGAUAGAUGGCAAAAGCGCAUCAGCCGCAAAAGCGAGCGAGCUAAAAAAAAAAAAAAAAAAAAAA'
p57
aF1.0
aa(lp58
S'InfoRNA bulge test 9'
p59
aS'GAUAUACAGAGAGAGAUAUACAAAAGUAUAUCCCCGUAUAUC'
p60
aF1.0
aa(lp61
S'Tilted Russian Cross'
p62
aS'AAAAGCUCCGAGUGAAAGCUCGCCCAUCUCGAAAGGGAGUGCCUAAUGGCACAGGGGAAAGCCCCGGGCCACCUAAUGGUGGGAGAAAAAAAAAAAAAAAAAAAA'
p63
aF1.0
aa(lp64
S'This is ACTUALLY Small And Easy 6'
p65
aS'GGGGGGGGGGGGGGGGGGGGGGGGGGGGGGGGGGGGGGGGGGGGGGGGGGGGGGGGGGGGGGGGGGGGGGGGGGGGGGGGGGGGGGGGGGGGGGGGGGGGGGGGGGGGGGGGGGGGGGGGGGGGGGGGGGGGGGGGGGGGGGGGGGGGGGGGGGGGGGGGGGGGGGGGGGGGGGGGGGGGGGGGGGGGGGGGGGGGGGGGGGGGGGGGGGGGGGGGGGGGGGGGGGGGGGGGGGGGGGGGGGGGGGGGGGGGGGGGGGGGGGGGGGGGGGGGGGGGGGGGGGGGGGGGGGGGGGGGGGGGGGGGGGGGGGGGGGGGGGGGGGGGGGGGGGGGGGGGGGGGGGGGGGGGGGGGGGGGGGGGGGGGGGGGGGGGGGGGGGGGGGGGGGGGGGGGGGGGGGGG'
p66
aF1.0
aa(lp67
S'Shortie 4'
p68
aS'GCGAAAGUACCGAAAGG'
p69
aF1.0
aa(lp70
S'Shape Test'
p71
aS'AAAAACUGAUCAAUGAAUAAAAAAAAAUUCGAGGCGAGACAGAUACAAAAAGUAUCACAUCAAAAGGUGGGUCCGCAAGAUCUGGAAAAAAAAAAAAAAAAAAA'
p72
aF1.0
aa(lp73
S'The Minitsry'
p74
aS'GGCAAAAAAGUAAAAAGUGAAAAAAGCCAAAUGAUUAAAAAAUAUCUGCUGUACGACUGGCU'
p75
aF1.0
aa(lp76
S'stickshift'
p77
aS'AUUAUCUAGCUAAAUGCAUAGGUGUA'
p78
aF1.0
aa(lp79
S'U'
p80
aS'AAAAAGAUACAGAGAGCAGAGAUAUAUAGAAAACUAUAUAUCCGCCCGUAUCAAAAA'
p81
aF1.0
aa(lp82
S'Still Life (Sunflower In A Vase)'
p83
aS'AAGAAUUAAAUUACAAAAACUGAUAACAGUGAAACGCUGAAUUUCGUAAAUUGAAGCAACUUCGGAGAGGGAACUAUCGAAAAGAUAGGCCGGUCGAAAAGACCGAUUUCUUGUAUAUUUUUAUAAUUUCAUACAAAAAAGUAUGAGAUGUGAAAAAAAAAAAUGACCACCCCCCCCCCCCCCCCCCCCGCCCCCCACCCCCCCCAAAGGGUCUGAAAAAAAAAAAACAUCGAUACAAAAGUAUCAAAGUUAUAGGAGUAUACGGGAAGUAUCUACUAAAUGUGGGAUCUAGCUAAAUGCUAGUACUUGCUAAAUGUAAGAAGUAACAAAAGGGUAUGAUGAUCGAAAGAUUGAAUCAAAAAAAAGAUCGAGGUUAAA'
p84
aF0.9788359788359788
aa(lp85
S'Quasispecies 2-2 Loop Challenge'
p86
aS'AAAAAAGAGGGUCGAGAGCAAAAGUUCGAGACCAUGGCAACAAAGGGGUCAAAGACAACAAGGCGAAAAGCCCGGAAGUCUCUCUAAAAAAAAAAAAAAAAAAAA'
p87
aF1.0
aa(lp88
S'Corner bulge training'
p89
aS'AGAUAUCGAUACAAAGUAUCAAAAGAUAUCA'
p90
aF1.0
aa(lp91
S'Spiral'
p92
aS'AAAAAGAUCAGAUAUCAGACAGAUACAGAUCAGAUCAGCAGCAGCAGCAGCAGCAAAAAGCGCGCGCGCGCGAUCGAUCGUAUCGUCGAUAUCGAUCAAAAA'
p93
aF1.0
aa(lp94
S'InfoRNA bulge test'
p95
aS'AAAAAAAAAAAAAAAAAAAAAAAAAAAAACCGCAAAAAAUCGCUAAACAUCGAAGCCCGAGCAGAGAACUAAAUGUAUCGCUAGCAAGGAGUGAAGACUGAAAAUGCAGAAAAAAGGCAGGA'
p96
aF1.0
aa(lp97
S'Worm 1'
p98
aS'AAAAAAAUAGGCAGUCUAGUGUAGAAGACAGAAAAUCUCGGACAA'
p99
aF0.9111111111111111
aa(lp100
S'just down to 1 bulge'
p101
aS'AAAAAGCACAUAUACAAAAGUAUAAGACAAAGGUCAGUAGCAAAAGAUCAGACAAAAGUCAGACAAAAGUCAGAUCAAAAAAAAAAAAAAAAAAAA'
p102
aF1.0
aa(lp103
S'Iron Cross'
p104
aS'ACACAACCAAAGCCACACAAAGUGAGACAAAAGUCAGGCAAAGGCACAUAAAAGUGAGACAAAGUCAGCCAAAGGUACACAAAAGUGAGACAAAGUCAACCAAAGGUACACAAAGUGAGUGAA'
p105
aF1.0
aa(lp106
S'loops and stems'
p107
aS'AAAAAGAUAUACAAAGAUCAAAGAUCAAAGGUCAAAAAAAAAGAUACAAAAAAAAAAAAGUAUCAAAGACCGAAAGAAAAAAAAAAAAAUUUCAAAGAUCAAAGACAAAAAAAAGUCAAAGAUCAAGCAAAAAAGCGAAGUAUAUCAAAAA'
p108
aF1.0
aa(lp109
S'Water Strider'
p110
aS'AAAAAUCAAAUUGCCAGAGAUGAAAAUUGACGAAACUCUCGGGGGGGGUCUGAAAAGAGUUCUAAUGACAGUUGCUUCCGGAGAAAAAAAAAAAAAAAAAAAA'
p111
aF0.9320388349514563
aa(lp112
S'The Turtle(s) Move(s)'
p113
aS'AAGGUAAAAGAAAAAUAGAGUUAGAAAAAAAAACUAACUCUGGAAUGAUCAAAAAGAUCUCAGACCAAAAGUGUGCACUAUCGAAAAAAGAUAGAAAACUCAAAUAAAAGUAACAGAGACUAAUGUCGAAGCACAACAAAAAAGGUUAUGAAAAUACAAAAGUGAAAAGCGUAGCAAAAGACGAAAAAAGUCAACCCAAAAAAAGGGGGAACUAGGAAAAAACCUAGGAACGACAAAAAGUCGAAGCUAUGAAAAAAAAAGGAAAACCAAAGACAAAAAGGAAAAUAGAUACAAAAAAAAAAGUAUCGAAAAAAGG'
p114
aF0.9873417721518988
aa(lp115
S'Adenine'
p116
aS'GAGACAGAUAUCAGAUAUCUAAGACCGGAUAUCGGAUGACUAAUGGUAUCAAAAAGGAUACCCGUUAUCAGGGACAAAGAUAUACAAGGUAUAUCGUUCCGGAUAUCAGUGUGUGUGUGGAAACCACACAAACCACACAGGUUUUUAAUGAUAUCAAAAGAUAUCGAAAGUCUC'
p117
aF1.0
aa(lp118
S'Tripod5'
p119
aS'AGGUGGACUGUAAAUCAGUGCUAGAAAAUAGCCCAUAA'
p120
aF1.0
aa(lp121
S'Shortie 6'
p122
aS'CCAAAAGGAGCAAAAGCAGUGAAAGCACCGAAAGG'
p123
aF1.0
aa(lp124
S'Runner'
p125
aS'AAAAAGUUGUGAUGUUAAGGACUAAGGGUCUCACCCAAGACAACAUGUUUAAGAGAAAAAGCAUUUAAAAUAGAAAGUCAGUCAAGCUCGAAGACGAAAAUUAAAGACAAUAAAAA'
p126
aF0.9827586206896551
aa(lp127
S'Recoil'
p128
aS'AAAAAGAUACAAGCAAGCAAGACAAGACAAGCAAGCAAAGCAGCAGUCAGUCAGCAGCAGUAUCAAAAAAAAAAAAAAAAAAAAA'
p129
aF1.0
aa(lp130
S'[CloudBeta] An Arm and a Leg 1.0'
p131
aS'AAAAAGACAGAGACAAAAGUACUCGUCAGCAAAAGCGACAGUCAAAAAAAAAAAAAAAAAAAA'
p132
aF1.0
aa(lp133
S'[CloudBeta] 5 Adjacent Stack Multi-Branch Loop'
p134
aS'GGCUCGACGAACUCGUCGGGUUGAAAGACUCCUGCCGAAAGGUAGCCCCUAAUGGGGGAGCCA'
p135
aF1.0
aa(lp136
S'Triple Y'
p137
aS'AAAAAUGUCGAUAGAACUAAUCAUUUAGUUAAUGUUAUAUAGGUCUACCAAAGGGUGGAGCGAAUGCUGGUUCGACAAAAAAAAAAAAAAAAAAAAA'
p138
aF0.9175257731958762
aa(lp139
S'Misfolded Aptamer'
p140
aS'GGGUAAAAAAACGAGUAUUUUAGCGAAAGCGGCAAGAGGGUAAAAAGUCC'
p141
aF0.96
aa(lp142
S'Flower power'
p143
aS'AAAUAGAAAGACUGAAGGUCUGGUUCAUAUAUUAAUAAGCUAGAAUAGCGAGGGGAAUCCUUAAUCCCGUGAAGCACGUUUUGAAAAAAAAAAAAAAAAAAA'
p144
aF0.9215686274509803
aa(lp145
S'Kudzu'
p146
aS'AAAAAUCCGGAGGAGAAUGAGGGGAGAAAGACACAGUUACAUGGCGAAGCGCAUGAAGUCUAGGGCGAAAUCGCAGAAGGGAAAAAAAAAAAAAAAAAAAA'
p147
aF0.9801980198019802
aa(lp148
S'"1,2,3and4bulges"'
p149
aS'AAAAGAGUCGGGCACAAAGAGGAAAAUGAGUGAAAACGGGCGAUUAAAGAUUCUGGCAAAAGAAAUCACGCGAAAGCCUGAAAGAAAAAAAAAAAAAAAAAAAAA'
p150
aF0.9238095238095239
aa(lp151
S'medallion'
p152
aS'GAGAUCGCAUAGCAAAAGCUAUGAAUCGAAAGAUAUACAAAAAUAAUAGAUCAAAAGAUUUAAAUGAAACGAUAAACAGCGAAAGCUGUUAUUAAAAAUGAGUCAAAAGUGAACAUAGGAAAACUUAUAAUACAAAAGUGGUAUAGCAAAAGUUAUAAUACAAAAGUCAUACAAAAGUAACAUAUCAAAAGAUAUAAUACAAAAGUAAUAUAUCAAAAGAUAUAAUACAAAAGUAUUACAAAAGUGUUGUACGAAAACGAAUCAUCAAAAAAUAGUAUAUCAAAAGAUAUAAGACUAAUGUAAUAUAAAAAUAAACUAUCAAAGGAUAGUAGAUUUC'
p153
aF0.8605341246290801
aa(lp154
S'[RNA] Repetitious Sequences 8/10'
p155
aS'AGGAAAAAAGCAAAAAAGCAAAAAAGCAAAAAAGCAAAAAAGCAAAAAAGCAAAAAAGCAAAAAAGCAAAAAACCAAAAA'
p156
aF1.0
aa(lp157
S'Documenting repetitious behavior'
p158
aS'AAAAAAUGUUAAUCUAAAAUAAAUCUAAUGUAAAUCUAACUCAAAUCUAAACAAAAUAUAAAGUAAAUCUAAACGAAAUCUAAAGGAAAUCUAAAGUAAAAAAAAUAGCAAAAACGAGGAAAAAAUCUGGGAAAAAUUAGCGAAAAACUCUUGAAAAAUCAUGAAAAAAUCCAGAAAAAAAUUGGCAAAAAUCUUCAAAAAAAAAGAGAAUCUAAAUCAAAUCUAAAUUAAAUCUAACCCGAAUAUAAAGCAAAUCUAAACCGAAUCUAAACCAAAUCUAAUCGUUAUCUAAUCCUAAAAAAAAGAAAAAAAUCUCUAAAAAAUCUCCAAAAAAUCGAUAAAAAAUCACGAAAAAAUCCGGGAAAAAUCUGCUAAAAAUCUGUAAAAAAUCUACUAAAAA'
p159
aF0.8525
aa(lp160
S'7 multiloop'
p161
aS'CCGGAUUAUAAAGACGCUGCGUCGAAAGACGUUGGUCGAAAGACUUGUUCGAAAGUGGUCUGGCCGAAGGGUUAUAGGUGAAAGUAUACUGG'
p162
aF0.9782608695652174
aa(lp163
S'Kyurem 7'
p164
aS'AAAAAGCUGUGCUGCGAAAGUGGGGAUAAGGGGAGAAGAAAAUUCUGGCUCGGAAAAAUGAAAUGCUCCUCUUUGCAUCAGCGAAAAAAAAAAAAAAAAAAA'
p165
aF0.9411764705882353
aa(lp166
S'JF1'
p167
aS'UAUGACUAUAUACUAAGGAAAUAUAAAAGAUAUCUUUAUACAAAGAAGCAAGAUAUCACUGUUUUAAUAUUUAAAAGGGUGUUAGGAUAGAAGACAAAAGUCACAGGGUGUCAAAAGACACCCUGAACUAUUAAAAGAUAGGGAUAUCAGUUUCAGUAUGUGAUAUCAAGGAUAGAUCAAAAAGGUACUAUCAACUGUUUGUCUAUUUUUUUAUUUUUAAAAGGGGGUGGGGGGGUAAGGCGGGCAGAAAGAUACAAAAAAGUAUCCUGGCUGUGUAAAAGCGCAGCCAGAAACAUCAAAAGAUGAAGUAUUAACUUAGAUAUCAGACAGACAAAGGUCGUCGAUAAGAUGAAUAGAAAACUAUUGCAUCAGUAUAAGUACAUAAAA'
p168
aF1.0
aa(lp169
S'multilooping fun'
p170
aS'GUUGAUGUGUAAUUAUAAAGUGUUGCUGAAAACAAA'
p171
aF0.7777777777777778
aa(lp172
S'Multiloop...'
p173
aS'AGCUAGAUUUCUAAAAGCAGUAACAAAAGGUCAAAGAAAUUACACUAAAAGGGGGGCAAAAGCCAGGCAAAGGUGAAAUCGGAUAGUAAAAUCUGCCUGCGAAAGCGACUU'
p174
aF0.9279279279279279
aa(lp175
S'hard Y'
p176
aS'AAAAACUUAAGAAGGGAGGCGAAAGCCUCUCAGUUGUGUUUGUUUAAAGGGACAAACACUCGGAAAAA'
p177
aF0.9705882352941176
aa(lp178
S'Mat - Elements & Sections'
p179
aS'AAAAAGGUCUAUAAGGGGAUAAGGUUCAUAUUGUCAGGGCUCUAAUGGGACAAGAUACAAGAGCAAAAUAGUCCACGAUUUGGCCAAAAAAAAAAAAAAAAAAAA'
p180
aF0.9619047619047619
aa(lp181
S'Chicken feet'
p182
aS'AAAAGUUAUAUUUAAAGAGACAAGGUAAUGAUAACCAGUACUGAAAGUAUUAUAGUAGAGCCGAAAA'
p183
aF0.8805970149253731
aa(lp184
S'Bug 18'
p185
aS'AUCUCAUGCGGCAACCAAUUAGUAAAACAAGGAGCGUUUAGCUAUGUAAAUGA'
p186
aF0.9245283018867925
aa(lp187
S'Fractal star x5'
p188
aS'AAAAACAGGUAGUAAGAUCAAAGGAUCAAUAUCAAAAGAUAAACAACAAAAGUUGAGUACAUAAUUGUAAGACUACCUGAAAAAGAGGGUGUAAGAUUAAAAGAUCAGCAUCAAAAGAUGAACGUCAAAAGACGAACAUAGAAAUAUGAAACACCCUUAAAAACAGUGUUGAGGAUCUAAUGAUCAACAUCAAAAGAUGAAGAGCGAAAGCUUAACACAGAAAUGUGAAUAACGCUGAAAAUGGGUGUUCAAGUUCUAAUGAACAAGCUAAAAAUAGUAACAGCGAAAGUUGAGGAGAAAAAUCUUAAGGACACUCUAAAACACGGUCAAAGAUCAAAAGAUCAACAGCAAAAGUUGAACGUAUAAUUGCGAACAUUAAAAGAUGAGUGACCGUGAAAAA'
p189
aF1.0
aa(lp190
S'Crop circle 2'
p191
aS'UAGAAUCUAAGACAAAAGGAAAAAAAAAGUGAAAAAAAAAAAAAAAAAAAAAAAAAAAAAACGAAAAAAAAAAAAAAGAAAAAAAAAAAUAAAAAAAUCGGAAAAGAAAA'
p192
aF0.9636363636363636
aa(lp193
S'Branching Loop'
p194
aS'GAAUCUAAAAAAAGGCGAUUAAUUUUGCAGAUUAAAAAAA'
p195
aF0.95
aa(lp196
S'Bug 38'
p197
aS'AGGUGAGGAAGCAAGAAACAUAAUCGAGGAAAUUCG'
p198
aF0.9444444444444444
aa(lp199
S'Simple Single Bond'
p200
aS'AAAAAAGGAAAAAAAUGAUCAAAAGGAUUUAAAAAAAACGAAAAAAAAAAAAAAAAAAAAA'
p201
aF1.0
aa(lp202
S'Taraxacum officinale'
p203
aS'AUGUAAAAAAUGGACAGCGAAAGACUGACACAAAAAUACCGACGAGAAAAUACCCGCAGCGAAAGACUGACUUGGAAAUAGGGAGUUGUUGUAUGGUGGUUGCUUCUAUGAAGAUAGCCACAGAUACAAGUGGUUGUAUAAGAUAUACAAAGUAUAUCAGUACGACCACGAUCAGAUGUCAAAGACAUCGAUCGUAUCAAACAUACAACGACAGAGCAAAAGACCCCAUGAAAAAUACGAACAGUAAAACACCAACGGCAAAAAACCGGGUCGAAAAGAGUC'
p204
aF0.8936170212765957
aa(lp205
S'Headless Bug on Windshield'
p206
aS'AUCUGCAAAAACGAGCGAACCAGAUUAAAAAAAAAAAAAAAAAAAAAAAUACCAGGAAAGUUAUUGAAGCUGCAGGGAAAACAAGUAAAAAAAGCGAAAGCGAAAAAAACGUUAAAAAAUACGGAGCUAAAAAAAGACAAGAGGGCCGAGAAGCCAAAAAAAAAAAAAAAGGCAAUCAAGGCAAUCAGUCAAGCAGCUCU'
p207
aF0.99
aa(lp208
S'Pokeball'
p209
aS'AAUGAUAUAGAAAAGCGAGGAAAGCGUGUAAAGAAACGACAAAGGACGGAAAAUACCGAUGGGUAUCAAACUGCUGCCAGAAUAUAUCUAAAAAAGUAUUUGUAAAAGCAUGGUUCAAAAAAAAGCGAGUGGCGAAGCAGGGUAAUCAGCGGCAAGCAGUAGUCAGUAUCCUGCGCAGAUGAAA'
p210
aF0.967391304347826
aa(lp211
S'Variation of a crop circle'
p212
aS'AAAGUUAAAAUGGAAAGUAAAAGGUAGAGAGAAAAUGAAGUAAAUACAAAAAAGCAAAAAAAUAGAAAAAAAAAAAAAAAAAAAAAAA'
p213
aF0.9545454545454546
aa(lp214
S'Loop next to a Multiloop'
p215
aS'AGUAGAUAUAAAAAAAACAUAUAUCAAAAGAUAUGGUAUGAACAAAGGUUCAUAAGAAAAAAAUAUAUUUGAA'
p216
aF0.9726027397260274
aa(lp217
S'Snowflake 4'
p218
aS'CAGCAAAGCUGCUGUGGUUAAUAUCUGUUCAAACCCUUAAAACAAUACAGACGAAAUGUCAACAUCGAAGAUGUGUAUUUAAAAGGGGGUAGAGUUUGCCAAAGAGCAGCCUUUGAAACAGAAACACCAAAGGUGGUUUGCAGAAAAGUAAACAGGAGGCCCAAAGCGCUUACUGUGUAUUAGAAAGAUAUAUUAUUGUGAGCCAAAAGGGUCUCAGGGUACCCAAAACGUAUACUCUCUAUGAGAAACACCAAAGGUGGUAUGCUAAAAGGGUAUCAAGCCACGCAAAAGCGCAGGGAAUAAAGUUCAACAGCAAGGCUGUCUGUUCGAAAGAUUGGCGGAACAGGCAAAGUCCACAGGAUGAAAUAUC'
p219
aF0.8864864864864865
aa(lp220
S'Mat - Cuboid'
p221
aS'GAAGCAAAAUGUAUCAAAAGUUAGGAAAAAAAGGAAGCAAAAGGAAGGAACCAAAAGAACCAAGGAAGUAAAAGGAAGGAAGUAUGCCAAAGGAAGGAAGGAAUCCAGGAAAAGAAAGCAAGCAAGCAAUCAAAAGUGGUCAAACAAACAAGGAAGUAAAAGAAAGCAGGCAAUGAGCCAAACAAAAGCAAGCAAGCAAGCAAGCAAGAAAAAAAUCAAGCAAGCAAGCAAGCAAGCGUAAGGAACAAGGCAAGUAAUCCCAAGCAAGUAAGCAGGAAAACGCAGGCGAGCAAGCAGGUCGAAGAAACCAACCAACCGCUAACAACCAACCGCAGCCAAGCAACGGAACCAACCGCAACCAAUCCAUGUGAAUCAGCAGC'
p222
aF0.9736842105263158
aa(lp223
S'Misfolded Aptamer 6'
p224
aS'AAAAACGAGGAAAAGUAUCUGGGGAGGACUAAAAAAUGUCAGAACAAAAUGAUGAAAAAAAUUCAAAAAAAAAAA'
p225
aF1.0
aa(lp226
S'Snowflake 3'
p227
aS'GACUCAAAAGAAGACCACAAAAGUGAAGAUCAGAUCAAUGCAAAGGAGCAGAUCAGCAGUGACAAAGUAACAAAAGAACUGCACAAAAGUGAGGAUCGGAACGAAACAAAAGUGGAUAUCAAAAGGCACUAUGUGUCAAAAGAAAUCCACAAAAGUGAAGUUCGGAUCAAGCCAAAAGUCCAGGGCGAAAGCUCCGAAGGAGCAAAAGCACUGGAUAAAAGUAAAGAUCGAGUUGAGACAAAAGUCCAAUCCUAAUGGCAAGAAGUAUCGAAAGAAUUGUAUGAAAGUGAAGAUUAGAUCAAGCCAAAAGUCUAAAAUAAAAAUGACGAAGUUAAAAAAGAAGUACACGAAAAUGAAGAUCGGAUCAAGAUGAAAGUCCCCAUCGAAAGGGUC'
p228
aF0.7913486005089059
aa(lp229
S'Hard Y and a bit more'
p230
aS'AAAAAGAUGCGCCUCAAUAAAAGUUAUAGCGUUAGUGCAAGAUCUAAUGAUCAGGCUGCUAAAAUGUAGCAGGUUUUAGCGCAUCAAAAAAAAAAAAAAAAAAAAA'
p231
aF0.9716981132075472
aa(lp232
S'Mat - Lot 2-2 B'
p233
aS'GAAGAUCGACUCUGGCAAAAGUGAGUUGAAAACAAAAAACGAACGAAAGGAAAAGCAAGCAGUAGAAAGCGAGCGUUAGCAAAAGCUUGAGCAAGCAAAAGCAAAGGUGAAAGAAAAAUCUUCCGCGUACUCGUUCAACCAAAAGCAUUGCCGGAAUCAACUUUUAAGCCAAAGCGAAAAUUAUGAGAAACUAAAAGGAUGUGUUACGAAUCAAGCGCAGGCAAAAGCAACCUCUAUAAAAAGCAAAAGUUGAUGAAAAAGGGAGUGCAAGCUCAUCAAACAGC'
p234
aF0.7640845070422535
aa(lp235
S'Shapes and Energy'
p236
aS'AAAAAACUGAUCAGCUCAAAAGAAGGAUGACGAAAGGUAUCAAGCGAGCGUGGCAAAAAGGACAAAAGUCUCCGGAUCUGGAAAAAAAAAAAAAAAAAAAA'
p237
aF1.0
aa(lp238
S"Spiral of 5's"
p239
aS'UGAAAGAUACAAAGAUAGAAAGCUAGAAAAGAUACAAAGAUAUAAAGAUAGAAGUUACAAAAGAUACAAAGAUAGAAAGAUAGAAGAUACAAAGUUAGAAAGAUAGAAGAUACGAAGAUAGAAGAUACAAGAUACAAGAUACAGGAUACAGAUACAGUGGGCGUGUAAAAAACACGGGGGCCCCACAAAAAGUAUCAAAAAGUAUCAAAAAGUAUCAAAAAGUAUCAAAAAGUAUCAAAAACUAUCAAAAAGUAUCAAAAACUAUCAAAAACUAGCAAAAAGUAUCGAAAACUAUCGAAAACUAUCAAAAAGUAUCAAAAAGUGACAAAAACUAUCAAAAAGUAUCAAAAAGUAUCGAAAACUAGCAAAAACUAUCAAAAAGUAUCAAAAAAAAAAA'
p240
aF0.9949622166246851
aa(lp241
S'Campfire'
p242
aS'AAAAAAUUGAGAGUCAAGAUGAACAUGAAAAGUAUGACCAGCGAAGUUAGGUCAUCGAAGCCAGGAGCAGGGGCAAAAGUACUUGCACGAGACGGGACCAGCGAAAGCGGCCGAGGAUAAAAAAUUAACACUCAAGUACUCGGCAUUCGGUUCCUCAGACAGAUAGAGGAAAACCUCAUCGUCAAGAGAACAAAGUUAUUACUCGGAGUAUU'
p243
aF0.8962264150943396
aa(lp244
S'Anemone'
p245
aS'AAAGAUAUCGAAAUGAGUCACAGGGUAAUCUGUGAGCUCCAAUGGUUUCGAUAGUAAUCACCCCAUCCCGAAAGGGGUGCGUUUAAAGGCCCGGCUACGAAAGUAGCGCCUCUAAAGAGAGGCAUACUGUAAUUAGUAGAUAAGUAAUUUUAUCGAUGCGAAAGCAUCGUGUGUAAAAACAUCCCGUGCGAAAGUAUGUCUAUCGAAAGAUAGG'
p246
aF0.9439252336448598
aa(lp247
S'Fractal 3'
p248
aS'AAAAAGACCAGGGAGAGAAAUCCCAAAAGGACCCUGACAGCAAAAAAGUGAAAACACUCCCCCUGCAAAAGCUCUAAUGGUCUGUUAUAGCAAAAGCACAAAGGCGGAAGGGUCAAAAA'
p249
aF0.9243697478991597
aa(lp250
S'Kyurem 5'
p251
aS'AAAAUGGCUACACAGAAAGGAGGAGAAAAGUGUUGCGGAAGGAGAAACGUCCGCAGUGAAAAAACACAACACAUGUCUAUGGCUAAAAAAAAAAAAAAAAAAAA'
p252
aF0.9423076923076923
aa(lp253
S'Snowflake Necklace ( or v2.0 )'
p254
aS'GUCUUUUAGUGAUUUAUAUACGGCAAAAACUAUCUAAAUGAGUCAAAAAGCAACAAAAAGUAACCAAAAGAAGUAUAAGACAAAAAGUCGGAUACAGGAAAAACCAUUAAAAACAGCCAAAAAGGAUAAAAAGGAAUCAAAAAAGAGUAUCACACAAAAAGUCUGAGACAGCAAAAAGGGGCAAAAAGAACCAAAAAGGAUCAAAAAGAAUCAAAAAGAAAUUUCUGAGAAAAACUCGCAUACUGCAAAAAGCUGAGAAAAUUAACAAAAAGUAUCUAAAUGAAGAAAAAAGUAGUGUGGGGCAAAAAGUAAGGUAUAGCGAAAAGCGCGAAAAAUCAUCAAAAAGAACCAAAAAGGAGAAAAAACCAAUACCAAGGUCACUAGGAGAU'
p255
aF0.87146529562982
aa(lp256
S'Methaqualone C16H14N2O Structural Representation'
p257
aS'AAAAAAAGAUCAGAUCAGAUGAUCGAAAGAUAAACACACAAAAGUCAGACACAAAAAAUUUAGACUGAGAAAACUGACACGAAAAAAGUGGGUCGGCCGGUCAGUCAGAAACGGAUCAGUUGAAACGAGAUAAAGGAAAUCGAAAAAAAAAUUAGCAGACAAAACUCUAAAAAAUUAGAAAAAAGGCGCCUCGAAAGAGCAGAAACUUUCAGAAUCAUAUGGAUACGAAAGACAAAAGUCACUUAGACAAAGGUCAAUAAGACAAAGAUUGGUGUGACAAAAGUCAUUCAAACCACAAAAGAGUGCAAAAGCAACACAAAAGUAGUUAGACUGAUCAAAUAACAGAUUAAAAAAA'
p258
aF0.8591549295774648
aa(lp259
S"Cat's Toy 2"
p260
aS'AAAACCGAUUUCUAAAUUAUUGAAAAAAAAAAAAAAAAAAAGAGAAAUGAUAAUGAUAAAGAAAACUAAAAAAAAGCAAAAAAAGGAGAUUGGAAAA'
p261
aF0.9587628865979382
aa(lp262
S'Zigzag Semicircle'
p263
aS'AAAUAACAAAGGUUAAAAUCACAUAUUGGUUAAA'
p264
aF0.9411764705882353
aa(lp265
S'Short String 4'
p266
aS'AAAAAAAUAGGAAGAAGGGAGUAUCAGGUAAUGUGGAACAAAGAUCGAGCAAAAGCGUGGGACAAAUAACAACCGGGCAAAAAAAAAAAAAAAAAAA'
p267
aF0.9381443298969072
aa(lp268
S'Gladius'
p269
aS'GGAAACAAAGGAAGGACCCAGUGUAGAAAGCGUGGUAAAGAGUAAAAGCUCGGAGACAAGAGACGAGAGAACAAGACAUCAAAAGUGGUUGGAUAGUUAAGGGUGAGAUCAAAUCAUGCUCAAAGAGCUGAUAGGAUCCAACUCGAAACUAAACAGCCACAAUAGAUGAGCGGUUCAAUAGUCAACCGUUUUAAUAUAGGACUCAGACAUAAGAGAUAAGGUCAGAUGAUGAUAGGCAGUACAGAAUAUAGUGGUACGUGCCAUAGAGCAAUCUAAUGGUUGCGCCUGGAGCACCAAUCGACAUAUUACGUAUUGCGGAACAUCUCAAGGCCAAAACUUAAAAGUUUCUGUUCAAAAGAUCAAAGUCACGCAAACAACUCAAGGAACAGGGUAUUAAAAA'
p270
aF0.895
aa(lp271
S'Thunderbolt'
p272
aS'GGAAGUUCAAAAAAAAAGAGGUAGCAGAGGAGGGAAACAAAUAUUUCAAAGGGAAGACAAAAAAGAUCAAAAGGAUCAAAAAAGUCAAGCAGGCAAAAAAAGAACAAAAAAGGACAAGCAACCAAAAAGAAAACAGAUUAAAAAGACAAAAAGAAGUACAACGGACAACGAAAAGUUAUAUUAAAUACAAAAAUCGGUGGAAACCCUAAAAAAAAAAAAGGAAUAAAAAAAAAAAUCAGGGGGAUAUCAAAGAUGUCAGGAAGCAGAAAAAAAAAGCAGGCAAAAAAAAAGAAUUAAAGAUAUAUGAAAAACAAAAAAAAGAAAAAUAUACGAAAACAAAAGAAAUAUUAAAAAAAAUAGCAUACCCAAAAAGAAAAAAACAUGAGCAACCA'
p273
aF0.9540816326530612
aa(lp274
S'Mutated chicken feet'
p275
aS'GAAAAAGGAAGCGGCAAUGUACCAAAUCUAAACCCAGAAGCAGCAAGCCGUCAAAUAGAAGCGCACCAUCAACUAUACAGCAAAGGAAAGAGGAAAAAAA'
p276
aF0.82
aa(lp277
S'Chicken Tracks'
p278
aS'AAAAAAAAUAUAUGGAGACAAAGGUUUAAUAUCCAAUGACGAUCAUCGAAAGAUUCCAUAUAAUUAAUGGCAAACUCAAAGCUGAAAGAGAAAGUUCAAGGAUUGUAUAAAAAAAA'
p279
aF0.9482758620689655
aa(lp280
S'Looking Back Again'
p281
aS'CUCGAGAGUUCAUAAAAGACAUGGAAAAUGUCUUAAAAGGAGAACAAGUUAAAGACAUAAGCUACUAAGUUGAGAAUAGCGAAUGUAGCGAGUCAAUUCAACGAUAGAAAAAAGGUGCGAAAGCAUCGAAAAAUUUGAGGCGAUGCGAAGCAUCCUAGCAAAGCUAGGCUAUCUCAAGAGGAAGAAGAGAGAGAGGAAAGCCUCAAUACGACCAAGAGAGGCUAAUGCCAAGAUAGCAAAGUCUCAUCGAGUAACACCUCAAAAAAGGUAUACAAAAAAAAGAACUAAAUGUUCGUAUAAAGGCGGCUCAUACAAAAAAGCCAUAUUAAAAAAUAUGAAGCCUCAAAGGGCAUACAAGGCAAGACGGCGCGAAAGUACGUUGCAAAGAG'
p282
aF0.8560411311053985
aa(lp283
S'Multilooping 6'
p284
aS'CUCAGACGGUAGCAUAAAGGAGAGGAGUAUAAUUGCUCGUCAGCGUUAAGAAAUUAGCUGGCGUCAAGUCAGCGUGGCUUUA'
p285
aF0.8902439024390244
aa(lp286
S'Cesspool'
p287
aS'GAAGGAGAAAACAACACAAGAAAUCCAAAGUCAACGAAAAAUGGGGAAGAAAACAACGGAAGAAAACAACGGAGUCAAAAGAACAGCAUAAAGAAGAAAACAACGUGAGAGAAUCAAAGAUAAUAACGAGCGAAGAAAGAAAUAACAGUAGAAAACAUCACAAUGAAAAUACUAACUAACAAGAAGAAAACAACGCAAGAGGGAAAAAUUCAACAAUAAGUGAAGAAGAAAACAACAUAAGAAAACAAAACAGCCAAAAGACCAAGGAAGUAAGAAGAAAACAAGACAAGAGAGGCAAAGUCAACAAUAAGUGAAGAAGAAAAUUACAGAAGAAAACAACACAUUUAAAAAACCAAAU'
p288
aF0.7569832402234636
aa(lp289
S'Hoglafractal'
p290
aS'AAGAGGAACUCUCAAAAGAUACAAAAAAGUGUCGAGAGCAUCAAACCUCAAAAAGAGGGAUGCACAGGACAAAAGGCGUGAGACAAAGCUCAAAAAUCAAAAAAGAUUGAGCGACAAGACAAAAAGUCUUACCAGCAACAGCGGGUAGCGAAAGACAAGACAAAAAAGUCGUCAGAGAAAAAAUGUUCACUAUUGUGGGAUACAAAAAACAGUUAAAAUGCCCCACAAAAGGUGGUAAAAUCGGAUAUCAAAAAAGACAAAAGAGUCACGCAAAGAAAACAGAGACUAUGUCUCUGAAAAAAAGAUAUCAAAAAAGUAUCAAAAAGCUAAAAAGUCAAACCAAGAAAGAGCACAUCUAAACCGAAAGGAUAAAAGUUAUAUCAAGGAUAUAUGAUGGCAC'
p291
aF0.93
aa(lp292
S'Bullseye'
p293
aS'AAGCCCAGGCUAUGCCCAGGCGGAAGUCGCAAAAUCAAUGUUCGGGAAAAAAAGCAAAAUAGAAGAAGAAGGAUAAAGUUCAAUGUCAAGAAUCUUGAAAAAAAUGGGGUUCAAGGAGCAAGUGGGAACCGCGAGGGUGAAGAUCCCUUAAAAAAACAUGGUUAAACAUCAAGAGUGAAAUACGAGAUCAAACAUCAUGAAA'
p294
aF0.8217821782178217
aa(lp295
S'Shooting Star'
p296
aS'GGAGGGUUGCGAUGUACAAAGAAAAGCGCAGAGACAGCAAAAGACGCACCUGAGCCAAUCAAGUACAUCAGAAUCGAGAGGGGUUGACAUUUCUAGAGAGCUCAACUAAUGACGAGACUUCGAAGAAGAAUUAACAACGAAGGAAAACAGAUUAGGGCCACAAUAUUUGUGAGUAGCAAAGCUAUGAUAAAGAAGAGCUCACCCAAGGAGAGUUCAAAUAUAUACGAAGUAUAUGACUAUCAAAGAUAGGAACGGUAAACAAAGUUUACCACUAACAAGGUUAGGUUCCUCCAAUAAAGGGUAGAAACAGUGAGCCAGUUUAGGAAAAGACGAAACGGCGGUAAAAUACAUCGGAGACUUUCUA'
p297
aF0.8159340659340659
aa(lp298
S'Teslagon'
p299
aS'AAAAAACCAAAAAAAGCACGAAAAAAGGCAUCAAAAAAAAAAAAAAAGAAAACAUUUACGAAAAAAAAAAAAAAAUCCGCAAAAAAGCGAGCAAAAAAAGUAAAAAAAAAAAAAAAACAAAAAAACCAGGAAAAAAAGCAUCAAAAAAAAAAAAAAAGAAAAUAGUUUUAAAAAAAAAAAAAAAAUAGGAAAAAAAACCAGUGAAAAAAGCAAAAAAAAAAAAAAAGUGAAAAAAACAUGAAAAAAACCAGCAAAAAAAAAAAAAAAGAAAACAGUUUGAAAAAAAAAAAAAAAGAUAAGAAAAAAACGAGGAAAAAAAGCAAAAAAAAAAAAGCAAAAAAAAAAAAAAAGCGGUAAAAAAACUAGCGAAAAAAGGAGAAAA'
p300
aF0.8900523560209425
aa.