(lp0
(lp1
S'Simple Hairpin'
p2
aS'GUAUCAAAAAAGAUAC'
p3
aF1.0
aa(lp4
S'Arabidopsis Thaliana 6 RNA - Difficulty Level 0'
p5
aS'GUAUAUCAGGUCAGAAAAAAAAAAACUGGUAAAUACGCGUAUAUUUAAAUAGAUAUCAAAGUAUCAAAAAAGAUACAGAUAUCAUAUUUAAAUAUACAAGUAUUUACAAGAUAUAC'
p6
aF1.0
aa(lp7
S'Prion Pseudoknot - Difficulty Level 0'
p8
aS'GUGGACAGUUCGAAAGAACGUCACACAAAAAAAAAA'
p9
aF1.0
aa(lp10
S'Human Integrated Adenovirus - Difficulty Level 0'
p11
aS'GUAGCACUCUAAUCGGUAUUAAAAAAAAAAAGGAACCAUCCCAGAGAAAGUCGUCUGAAACGCGGAGCGGUAUCAAAAAAAGGAUGCCGCUUGAAAUGCUAGGCCUAAGACCUGAAACGGAUGUGGAAGUACUAAAAAUGUACUUGUUCAAAAAAAAAAAGUGAUACAGAUUAAAAAGAGUGAACCUGCAAA'
p12
aF1.0
aa(lp13
S'The Gammaretrovirus Signal - Difficulty Level 0'
p14
aS'AAGUCAAGUAUACGAAAGUAUACGAGUCAAAAAUGUGCAAGACAGUACCAGGCGAAAGCCUGCAAAGUACGUCGCACUAGAAUACACAAAGGUGUAUUCAA'
p15
aF1.0
aa(lp16
S'Saccharomyces Cerevisiae - Difficulty Level 0'
p17
aS'GUAUCUGCCAGAAAAAAAGCUGGGUAAAAAAAAAAAAAAAAUGAGGAUAGGGAAAAAAGCCCUGCGGAUACAAAUGUAUAUGAACUACAAAAAAAGGUAGGGCUAAAAAAAAAAAUGCCAGGUUUGUCGAAAAAAGAUGACAUAUGCUAAUGUAGAUGAAUGACGAAAAAAAGAAAGUAGACAAAAAAGUUUUACCACAGGAUCAAAAAAAGAUUUCAUCUACUAAAGUUUCUGAAGUUCUAAAAAAUGGACGUAUACAAAAAAAGUAUGCAGGUGUAACUAAAAAUGUUACCAGAAGCAAAUGUAACAGUAGUACGAAAAAAAGUACGGAUAUAAAAAAGAUAUUCAGGCAUUAGGAAAAAACUGGUCUGUUACUAAA'
p18
aF0.9894459102902374
aa(lp19
S'Fractal 2'
p20
aS'AAAAGUUAGAUACAAACUAUAUAUAUAGGUGCAAAAAAAAAAGCACAGGAGCUAAAAAAAAUGCUCAGCUACGAAAAAAAAAGUAGAGAUAUAUAUAGGAAGUGUAUUUAUAAGCGCUAAAAAAAAUGCGCGGGUGCAAAAAAAAAGGCACAAGGACAAAAAAAAAAGUCCAAAUAAAUAUACAAGGGGGAUAUAUACGGGAAAAAAAAAAGUCUCAAGUGGAAAAAAAAAGUCACAGGCACAAAAAAAAAAGUGCAAAUAUAUCCCCAAAGUGUUUAAAAAAA'
p21
aF1.0
aa(lp22
S'G-C Placement'
p23
aS'AUCCGAAGGAUA'
p24
aF1.0
aa(lp25
S'The Sun'
p26
aS'GACAGUGGAUCGAAGAUUAACGCGUCAAAGAGAGUCCACCUAUGGGGAAGACCGCGAAUAUAGUUUCGCAAAAUGGAAAACGUAGAUCAGAGUGCUCCUAUGGAGAUCACCUGUAACAGAGCGGAACAAAGUUAAACGCCUGAAACAGAUUCUAACUAUGCUAAAGACCUGAAAGCGAGGGUAUGUAUCAUACACUUUGUAAGCAGAGUGGGUCAAGGACCAACGCCUGAAACAGAGCUGAUCGAAGAUUAAGGUCUG'
p27
aF0.9069767441860465
aa(lp28
S'Frog Foot'
p29
aS'AAAAAAAAAAGUACGAAAGUACGUACGAAAGUACGUCCAAAGGAC'
p30
aF1.0
aa(lp31
S'InfoRNA test 16'
p32
aS'GUAUACGGAGAUAUCGAAAGAUAUACUACGGUAUAC'
p33
aF1.0
aa(lp34
S'Mat - Martian 2'
p35
aS'GUACGAAAGUACAAAGUAUAUCAAGUAUAUCAAAAAAAGAUAUACGAUAUACAAAGUAUAUACAAAAAAGUAUAUCAGUAUAUCAAAAAAAGAUAUACGAUAUACAAAGUAUAUGAUAUAUCAAAAAAAGAUAUAUACAUAUACAAAAAAGUAUAUACAAAGUAUAUGAUAUAUCAAAAAAAGAUAUAUAACAUAUACAAACAGCGAAAGCUG'
p36
aF1.0
aa(lp37
S'square'
p38
aS'GUAUAUCCAGGUCCAGGUUCCAGGUCAAAGACCUGAAAAGAGCCUGAAAAGACCUGAAAAGAUAUAC'
p39
aF1.0
aa(lp40
S'Six legd turtle 2'
p41
aS'AAAAAGCAAAGCGAAAGCAAACCGAAAGGAAACCGAAAGGAAACCGAAAGGAAACCGAAAGGAAACCGAAAGGAAAGCAAAAAAAAAAAAAAAAAAAA'
p42
aF1.0
aa(lp43
S'Small and Easy 6'
p44
aS'GGUGAAAAAGUCAAACGAAAAAAAACUGUC'
p45
aF0.8666666666666667
aa(lp46
S'Fractile'
p47
aS'AAAAAAAAAAAAGCGAAAGCAAAGCAAAGCGAAAGCAAGCAAAGGAAAACCAAAGCAAGCGAAAGCAAAGCAAACGAAAGUAAAAAAAAAAAAAAAAAAAAAAAA'
p48
aF1.0
aa(lp49
S'Six legd Turtle'
p50
aS'AAAAACUAAAAGUAAAAAUAAAUUUAAAACGUAAAGGAAAAUGAAAGGAAAAAUCAAAAAGAAAAGUGAAUAUGAAAUGUAAUAGAAAAAAAAAAAAAAAAAAAA'
p51
aF0.9428571428571428
aa(lp52
S'snoRNA SNORD64'
p53
aS'GUAUACAAAAAGACAAAAGACAAAGUAUCAAAAAAAAAAAAAGAUACCAAAGUCAAGUCAAGUAUAC'
p54
aF1.0
aa(lp55
S'Chalk Outline'
p56
aS'AAAAAGUACCGGGCCGAAAGGACCCAAUCAGACGAAAGUCGAUAGUCGUCGAAAGAUCGACAGGCACGAAAGUGACCGUACAAAAAAAAAAAAAAAAAAAAAAA'
p57
aF1.0
aa(lp58
S'InfoRNA bulge test 9'
p59
aS'GUAUAUCAGAGAGAGUAUAUCGAAAGAUAUACCCCGAUAUAC'
p60
aF1.0
aa(lp61
S'Tilted Russian Cross'
p62
aS'AAAAACUAGGGCCGAAAGGCCGGUCAGGGCAAAGGUCCGUUUCGAAAGAAACACUACGAAAGUAGGGCCGCACGAAAGUGCCUAGAAAAAAAAAAAAAAAAAAAA'
p63
aF1.0
aa(lp64
S'This is ACTUALLY Small And Easy 6'
p65
aS'GAGAGAGAGAGAGAGAGAGAGAGAGAGAGAGAGAGAGAGAGAGAGAGAGAGAGAGAGAGAGAGAGAGAGAGAGAGAGAGAGAGAGAGAGAGAGAGAGAGAGAGAGAGAGAGAGAGAGAGAGAGAGAGAGAGAGAGAGAGAGAGAGAGAGAGAGAGAGAGAGAGAGAGAGAGAGAGAGAGAGAGAGAGAGAGAGAGAGAGAGAGAGAGAGAGAGAGAGAGAGAGAGAGAGAGAGAGAGAGAGAGAGAGAGAGAGAGAGAGAGAGAGAGAGAGAGAGAGAGAGAGAGAGAGAGAGAGAGAGAGAGAGAGAGAGAGAGAGAGAGAGAGAGAGAGAGAGAGAGAGAGAGAGAGAGAGAGAGAGAGAGAGAGAGAGAGAGAGAGAGAGAGAGAGAGAGAGAGAGA'
p66
aF1.0
aa(lp67
S'Shortie 4'
p68
aS'GCGAAAGCAGCGAAAGC'
p69
aF1.0
aa(lp70
S'Shape Test'
p71
aS'AAAAAGGGUACAAAUAUCAAAAAAAAGAUAUAAGACACAGAGUAUCAAAAAGAUACGGUACGAAAGUACACUGGUCAAGUACGCAAAAAAAAAAAAAAAAAAAA'
p72
aF1.0
aa(lp73
S'The Minitsry'
p74
aS'GACUAAAUACGAAAAAGAGAAAAAGACAAAAAGCCAAAAAAAAGGCAGUCACUCGCGUUGUC'
p75
aF1.0
aa(lp76
S'stickshift'
p77
aS'AGGUAGACUCGAAAAGGCGUUUACAA'
p78
aF1.0
aa(lp79
S'U'
p80
aS'AAAAAGUAUCAGAGAGCAGAGUAUAUAUCGAAAGAUAUAUACCGCCCGAUACAAAAA'
p81
aF1.0
aa(lp82
S'Still Life (Sunflower In A Vase)'
p83
aS'AAUGUACAGGCGCUUAAACGGUAGAAGGCUGAAAGAGUCAAUUUUCUAAAAGGGGAAGUCUACAAGGUGGAAUGUGUCUAAAAGACACUGUUGUCAAAAAGACAGAUUUGAUAUAUAUCUAUAUAUAUCGCGACUAAAAUGUUGCAGUAUGGAAAAAAAAAAAAGUAGAAAAAAAAAAAAAAAAAAAAAAAAAAAAAAAAAAAAAACCGCUACAAAAAAAAAAAAACAUACGGAUCGAAAGAUUCAGAUAUAUAUAGAUAUAUAUCAAGAGGGAUCUAAAUGAUCCAUGUAGCGAAAAGCUACUAACGCCGAAAAAUCGGAAGUAUAUAAAUUAUACGUGUAUCGAAAGAUACUAAAAUCAAAAGGAUUUAGUACUAA'
p84
aF0.9735449735449735
aa(lp85
S'Quasispecies 2-2 Loop Challenge'
p86
aS'AAAAAGAACGUACAUGUAGAAAGCUACUGGUACUGAGCGACUAUGGAGCUCUGAGUCCGAAGACAAAAAGUCAACAAACUUGUUCAAAAAAAAAAAAAAAAAAAA'
p87
aF1.0
aa(lp88
S'Corner bulge training'
p89
aS'UGUAAACGAAUCAAAGAUUCAAAAGUUUACU'
p90
aF1.0
aa(lp91
S'Spiral'
p92
aS'AAAAAGUACAGUAUACAGACAGUAUCAGUACAGUACAGCAGCAGCAGCAGCAGCAAAAAGCGCGCGCGCGCGUACGUACGAUACGUCGUAUACGUACAAAAA'
p93
aF1.0
aa(lp94
S'InfoRNA bulge test'
p95
aS'AAAAAAAAAAAAAAAAAAAAAAAAAAAAAGGAUUAAAAAGGGUAAAAGAGCGAAGGCCCCGGCGAGGCCAAAAAGGACUACGACCUUGGACCGAAGUAUCAAAAAACACCGAAAAUAUACCG'
p96
aF1.0
aa(lp97
S'Worm 1'
p98
aS'AAAAAAAGGGGGGGAGAGCAGGACAAAAGAUCAGCACACGCGCGC'
p99
aF1.0
aa(lp100
S'just down to 1 bulge'
p101
aS'AAAAAGGGCAGUAUCGAAAGAUACAUACGAAAGUGAGCACCAAAAGUACGGACGAAAGUCAGACGAAAGUCAGUACAAAAAAAAAAAAAAAAAAAA'
p102
aF1.0
aa(lp103
S'Iron Cross'
p104
aS'ACACAGAGAAAGGAACAGAAACUGAGACAAAGGUCAUCCAAAGGCACAGAAAACUGAGACAAAGUCAGCCAAAGCCACAGAAAACUGAGACAAAGUCAGGCAAACUCACAGAAACUGAGUGGA'
p105
aF1.0
aa(lp106
S'loops and stems'
p107
aS'AAAAAGUAUUCCAAAGUACAAAGUACAAAAGCGAAAAAAAAAGUAUCAAAAAAAAAAAAGAUACAAACGCUGAAAGUACAAAAAAAAAAGUACAAAGUACAAAGACUAAAAAAUGUCAAAGUACAAGCAAAAAAGCAAAGGGAUACAAAAA'
p108
aF1.0
aa(lp109
S'Water Strider'
p110
aS'AAAAAUCUCCAAGGAAUUAUAGAAAUAUGGGGACAUUUAUUGUUGAGGGGCGGAAAGAGAUCGAAAGAUAUUAUUGAGGAGCUAUAAAAAAAAAAAAAAAAAA'
p111
aF0.9611650485436893
aa(lp112
S'The Turtle(s) Move(s)'
p113
aS'AAAUAGAAAUGGUGUCUGUAUAUCUAAAAAAAUGAUAUACAGUGGGGGGCAAAAAGUCCAAAGACUGGAAACAGAGUCAUAGAAAAAAACUGUGUAAAACGGAAGCGAAAGCGCAAAGGGAAAACUCAAAAUUAUACAAAAAAAGUAUAAAAAGGAGAAAGCUCAAAAGGUAUAGAAAUGACAAAAAAAGUCUAGACGAAAAAAAGUUAAGCUGGCAAAAAGGCCGGAAUCAGGAAAAAGCUGUACAAUAGAAAAAAAAGGCAAAGGCAUAUACAGAAAUGAAGUAAAUAUAUAAAAAAAAUUAUACCGAAAAUGU'
p114
aF0.9810126582278481
aa(lp115
S'Adenine'
p116
aS'GUAUCAGUAGACAGUAUACGGGAUACAUUAUAGACGUUGCAAAGGUAUACGAAAAAGUAUACAGCAACGGGUAUCAAACGAUAUUGAAGAUAUUGGAUGCACUAUAAAGUAUGCUAUUGCAAAGCGAUAGAAACAUACGGUAUCCAAAUGUAUACGAAAGUCUACGAAAGAUAC'
p117
aF1.0
aa(lp118
S'Tripod5'
p119
aS'AGGCACGGGCAAAAGGCCCCCCUGAAAAAGGGGUGCAA'
p120
aF1.0
aa(lp121
S'Shortie 6'
p122
aS'GCGAAAGCAGCGAAAGCAGCGAAAGCAGCGAAAGC'
p123
aF1.0
aa(lp124
S'Runner'
p125
aS'AAAAAACGCACUUCAAAAAGUUUUAUGUACGUGAGGAAGAGAAGGCGUCAAUACCAAGGUCGGCAUCAAAUCAAAGCCCAUUUGAGUACUAAGGGUAAUCUUAGUGAGUAUAAAAA'
p126
aF0.9655172413793104
aa(lp127
S'Recoil'
p128
aS'AAAAAGUAUCAAGCAAGCAAGACAAGACAAGCAAGCAAAGCAGCAGUCAGUCAGCAGCAGAUACAAAAAAAAAAAAAAAAAAAAA'
p129
aF1.0
aa(lp130
S'[CloudBeta] An Arm and a Leg 1.0'
p131
aS'AAAAAGACAGUGGCGAAAGCACACGUCAGCGAAAGCGACAGUCAAAAAAAAAAAAAAAAAAAA'
p132
aF1.0
aa(lp133
S'[CloudBeta] 5 Adjacent Stack Multi-Branch Loop'
p134
aS'UUGUACUACGAAAGUGGGUAGCGAAAGGUACAUGUCGAAAGACAUUGACGAAAGUCCGAUAAA'
p135
aF0.9682539682539683
aa(lp136
S'Triple Y'
p137
aS'AAAAGGUAGUUUCGGUCAAAGAUUUGAAAGAAAUUACGUAAAUACUGACGAAAGUCAGUGCAAAGGCACGCAUCUACAAAAAAAAAAAAAAAAAAAA'
p138
aF0.9175257731958762
aa(lp139
S'Misfolded Aptamer'
p140
aS'CUGCAAAAAGUUUUAGAAUAAGUCGAAAGAAACCGCGUUAAAAAAGGUAG'
p141
aF0.92
aa(lp142
S'Flower power'
p143
aS'AAAAUGACGUGGUAAGAGAGAGGACAUAAGAAGUACAAGUAGAAACUACGAGGAAAAAUCCCGUCCGAUUCAAAAGAUCGUCUAAAAAAAAAAAAAAAAAAA'
p144
aF0.8431372549019608
aa(lp145
S'Kudzu'
p146
aS'AAAAAAUGGUUUAGGACUUACGGCAGCAAAGCGCACGAGGUUGCAUAUUGAUGACAAGAGAAAUUCAAAUUCAUUUGAGGUACAAAAAAAAAAAAAAAAAA'
p147
aF0.9603960396039604
aa(lp148
S'"1,2,3and4bulges"'
p149
aS'AAAAGAGAAGGUAGCGAAAGCCUAAUACUCAUUAACACUUGAGCUAAUGAAGGGAAUGAAAGAGUGCAAGCUAAUGUUAUAAACUAAAAAAAAAAAAAAAAAAAA'
p150
aF0.9428571428571428
aa(lp151
S'medallion'
p152
aS'GGCGGCAAUAUACGAAAGUAUAUAAUCGAAAGAUAAUCGAAAGAUAUAUAUCGAAAGAUGUAAUACGAAAGUAAUAUAUCGAAAGAUAUAAUACGAAAGUAAAUCGAAAGAUAUAUAUCGAAAGAUAUAAUACGAAAGUAAUGUAUCGAAAGAUACAAUACGAAAGUAAAUCGAAAGAUAUAUAUCGAAAGAUAUAAUACGAAAGUAAUAUAUCGAAAGAUAUAAUACGAAAGUAAAUCGAAAGAUAUAUAUCGAAAGAUAUAAUACGAAAGUAAUUUAUCUAAUGAUAGAAUACGAAAGUAAAUCGAAAGAUAUAUAUCGAAAGAUAUAAGCUGCC'
p153
aF1.0
aa(lp154
S'[RNA] Repetitious Sequences 8/10'
p155
aS'AGGAAAAAAGCAAAAAAGCAAAAAAGCAAAAAAGCAAAAAAGCAAAAAAGCAAAAAAGCAAAAAAGCAAAAAACCAAAAA'
p156
aF1.0
aa(lp157
S'Documenting repetitious behavior'
p158
aS'AAAAAAAGGAAAAAAAAAGGAAAAAAAAAGGAAAAAAAAAGGAAAAAAAAAGGAAAAAAAAAGGAAAAAAAAAGGAAAAAAAAAGGAAAAAAAAAGGAAAAAAAAAGGAAAAAAAAAGGAAAAAAAAAGGAAAAAAAAAGGAAAAAAAAAGGAAAAAAAAAGGAAAAAAAAAGGAAAAAAAAAGGAAAAAAAAAGCAAAAAAAAAGCAAAAAAAAACCAAAAAAAAACCAAAAAAAAACCAAAAAAAAACCAAAAAAAAACCAAAAAAAAACCAAAAAAAAACCAAAAAAAAACCAAAAAAAAACCAAAAAAAAACCAAAAAAAAACCAAAAAAAAACCAAAAAAAAACCAAAAAAAAACCAAAAAAAAACCAAAAAAAAACCAAAAAAAAACCAAAAAA'
p159
aF1.0
aa(lp160
S'7 multiloop'
p161
aS'GUCCGCUUCGAAAGAGGCCUAUCGAAAGGUAGCCGACGAAAGUCGGGGAUAAAAGUAUCCCAGACGAAAGUCUGUAAGCGAAAGCUUAGGAC'
p162
aF1.0
aa(lp163
S'Kyurem 7'
p164
aS'AAAAGUAAGUGGGACAAAGGUGAGGAAAAGGCCAUAUGAAAAGUGGGCCGACAAAAAGGUCAAAAGCGAACUUUCUAACUUGAAAAAAAAAAAAAAAAAAAA'
p165
aF0.9803921568627451
aa(lp166
S'JF1'
p167
aS'GUAGUAUAUAGACAGAGAAGUAUCAAAAGUAUACAAGAUACAAAGUAUCAAGAUAUUAAUAUAUAUAUAUACGAAAGUAUAUAUAUAUAUAAGACGAAAGUCAGUAUAUAUCGAAAGAUAUAUACAAGUAUCGAAAGAUACAAAUAUCAGAUACAGUAUCAGUAUACAAGGUAUGAUCAAAAAGAUACAUACAAGUAUAUAUAUAUAUAUAUAUAUACGAAAGUAUAUAUAUAUAUAAUAUAUAUACAAAUUAUCAAAAAAGAUAAGUAUAUAUACGAAAGUAUAUAUACAAAGUAGAAAGCUACAAGAUACAACUCUGAGUACAGACAGACGAAAGUCGUCGUACAGUAGCAUACGAAAGUAUGACUACACUAUAAUGCCUACAAA'
p168
aF1.0
aa(lp169
S'multilooping fun'
p170
aS'GCUUUUUCCAAAUGUAGCAAUUAUUGUUAAUAGUGC'
p171
aF0.8333333333333334
aa(lp172
S'Multiloop...'
p173
aS'GUACAGUACAGACGAAAGUCAGACGAAAGUCAGACGAAAGUCAGACGAAAGUCAGACGAAAGUCAGACGAAAGUCAGUACAGAUACAAAAAAGUAUCGACGAAAGUCGUAC'
p174
aF1.0
aa(lp175
S'hard Y'
p176
aS'AAAAGGUGGGUAUUACAGACAAAGGUCUGUAAGAGGUAUCUGUACGAAAGUGUAGAUAUCCACAAAAA'
p177
aF0.9705882352941176
aa(lp178
S'Mat - Elements & Sections'
p179
aS'AAAAAAUACAGAAAUUGUAAUCAGGACAGAAGAACUAUAAGUGAAAGCUAAAUGUUCACCGUUCGAAAGUUUACUAGAGCGGUAUAAAAAAAAAAAAAAAAAAAA'
p180
aF0.9619047619047619
aa(lp181
S'Chicken feet'
p182
aS'AAAAGGGAAGAAUAAAGGACCGAAGGGAGUUUCAGGAACGGAAAGACAGGAAAUCAAAGCCGGGAAA'
p183
aF0.8805970149253731
aa(lp184
S'Bug 18'
p185
aS'AGUACGGUGGUGAAUCAGGGACGAAGCGGAUCAGAACGAACCUACGGAAAGCG'
p186
aF0.9245283018867925
aa(lp187
S'Fractal star x5'
p188
aS'AAAAAUCGGUCGGAAUUACGAAAGUAAAACAACGAAAGUUGAACAGUGAAAACUGAGCCGGAAUGUUGGAAUUGACCGAAAAAACUGGUUUUGAAUACGAAAGUAUGGCAGCGAAAGCUGAACUGCGAAAGCAGAGCACGGAAACGUGAAAAGACCAGAAAAAUAUGUUUCAAAUCGGAAACGAUAACAGCUAAUGCUGAACAUCGAAAGAUGAACAGGGAAACCUGGAGAGACAUAAAAAAGAGAAGUCAAAUACGAAAGUAUAACGGCUAAUGCCGGACAUCGAAAGAUGAGCAGGGAAAUCUGAAGACUUCUUAAAAGCAGAUUUUAAAGACGAAAGUUUAAGAUCGAAAGGUCAACAGUGAAAGCUGGACAGCGAAAGCUGGAAAGAUCUGAAAAA'
p189
aF1.0
aa(lp190
S'Crop circle 2'
p191
aS'GUAAUUGAAAUAAUAAAUGGGAAAAAAAAGCGGAAAAAAAAAAAAAAAAAAAAAAAAAAAAGCAAAAAAAAAAAAAAAUCUAAAAAAAUUAUAAAAAUCUUAAGGCAAAA'
p192
aF0.9545454545454546
aa(lp193
S'Branching Loop'
p194
aS'ACUUGUAAAAAAAAAGGAUUAAUAUUUAAGGAGAAAAAAA'
p195
aF0.95
aa(lp196
S'Bug 38'
p197
aS'GGCAUCACAGAGAGCAAAGGUCAUGGAGAGAAGGCA'
p198
aF1.0
aa(lp199
S'Simple Single Bond'
p200
aS'AAAAAUUAAAAAAAAAGUAAUAAAUUUAUGAAAAAAAGAUAAAAAAAAAAAAAAAAAAAAA'
p201
aF0.9672131147540983
aa(lp202
S'Taraxacum officinale'
p203
aS'CAGCGAAAGACUGACAGCGAAAGACUGACAGCGAAAGACUGACAGCGAAAGACUGACAGCGAAAGACUGACAGCGAAAGACUGAGUAUAUAUAUCGUAUAUGAUACAAAGUAUACAUAUACAGUAUCAAAUAGUAUAUCAAGAUAUACAAAGUAUAUCAGAUAUACUAUGUACAGUAUACAAAGUAUACGUACGAUACAAAGAUAUAUAUACAGUGCGAAAGACACAGUGCGAAAGACACAGUGCGAAAGACACAGUGCGAAAGACACAGUGCGAAAGACAC'
p204
aF1.0
aa(lp205
S'Headless Bug on Windshield'
p206
aS'GGCACCAAAAACGCCAAAAGCAGAGAAAAAAAAAAAAAAAAAAAAAAAAACUCAGCAAAUGAACUGAAGCAGCAUAAAAGUCAAUGAAAAAAAGAGAAAUCAAAAAAACCGACAGAAAGAUAGCGGAAAAAAAAAGACAUUGAAGACGACGACAGAAAAAAAAAAAAAAAUUGACCGGAGUCGACAUGUCAAGUAACCCG'
p207
aF0.99
aa(lp208
S'Pokeball'
p209
aS'AAAGUGUAUCAAAAGCGAGCGAGGCAAGGAAGUAGGAGGGAAAGAAACUAAAUCGGCAAUAAUCAACAAACAGCCAGCGACGAUACACAAAAAAAAAUAUACCAAAAUGGAGAAUGACUAGGAAAUAAGGAAAGAAGCAAAGAAACCAGCAACUGCCGGUAACCUGUCAUCAUGGGUGUAUAAA'
p210
aF0.967391304347826
aa(lp211
S'Variation of a crop circle'
p212
aS'AAAGCUAAAAUUGAAAAGAAACAGAGCAACCCAAAACACGUAAAGAUAAAAAAUUAAAAAAUGAAAAAAAAAAGGAAAAAAAAAAAAA'
p213
aF0.9318181818181818
aa(lp214
S'Loop next to a Multiloop'
p215
aS'AUGUUUAUCGUAAAAAAUGGUUGCGGAAAUGUAACUUAAUAUCUAAUGAUAUUAUAGAAAAAUCGGUAAACUA'
p216
aF0.9726027397260274
aa(lp217
S'Snowflake 4'
p218
aS'CAUCAAAGAGGCUAACGCGAAAGCCAGACAAGUAUCGGGAAAGCGUAGGUUGUGAAACAAAAGGAGAAUCUCCCCUACGAGAAAUCGAUACAAGUUUCUAAAAUGUCUUACUAUCGAAGAUAAAGUGCAAAGCAUGUAGGGGAAAGCCGAAACAUGUAUCCCGAAAGAUGUACUAGGGAAGCUAAACAGCGAACCUUGUACGACGAAAGGGAUACUAGUUGGUCGAAAGGUAUUCUUAGAAAUAUAAACAGGGAACCUGGGAUGCCAAAGGGCUAACAACGACCGCGAAAUUGGACCGUACAAAGUGCAAGGAGGAAUUCCGAUCCUGGAAAUCGGUUGACGUCUGCGGAAACGGUUAGGUGGAAAAUAC'
p219
aF0.8918918918918919
aa(lp220
S'Mat - Cuboid'
p221
aS'UAAUGAAAAACAAGCAAAAGCAAGCAAAAUAAGCAAGCAAAAGCAAGCAUUCAAAAGAAUCAAGUAAGCAAAAUCGAGCAAGCAAGGAAAAGCAAGCAACCAAGCGAAGAAAAGCGUGCAAUCGCGGGCGCAAAAGCGCACGCGCGGGCACGCGCCCAAAAGCGCGCUAGCAUGCAGGCGAGAAAAACCACGCGAGCAUUCCUGCGGGCAAAAAAGCAAGCAAGGUGGCAAGCAAGCGCAAGCAAGCAGGCAAGCAAGCGGAAGCAAGCAAGCAAGCAACCGCAAGAAAGCAAGCAAGCGUAAGCAAGAAAGCGAGCUCAAGCAAGAAAAAGCAAACGGCAAACUAUGGCAAGCGCAAGCAAAGCAAGCGCAAGCCAAAA'
p222
aF0.7657894736842106
aa(lp223
S'Misfolded Aptamer 6'
p224
aS'AAAAAAGCUAAAAAAGUUCAUGAUAAGAGAAAAAAAGCUCGGAGCUAAAAGGACAAAAAAAGGCAAAAAAAAAAA'
p225
aF1.0
aa(lp226
S'Snowflake 3'
p227
aS'GACUCGAAAGAAGACUAAGAAAGUGAAGUUCCGUACGAGAGGAAAUUCCAUAACGAAAUUAUCUAUGAUGUGAAAGUAAUGGGCAAAGGCUAAGUACUGUACAAGAUGAAAAUCGGUAACGAAAGUAUCAAAGAUACGAAAGUAACCGAAGAAAGUCAAGUACUGUAGAAAAGAAACUUCGAAAACGAAAGUAGCUAUGAUACGAAAGUAUUCGAGGAAGCACAACUACAGCACGAGACGAAAGUCGGCAUCAAAGGGGUAAAAGAUAUGAAAGUAGCCUACGAAAGUGAAGUGCGGUUCAAGACGAAAGUCCUUAACGAAAGUAUGAAACACACGAAAGUGGACGCCGAAAGGCAAGAACAGAACAAGACUAAUAUCGUCAACGAAAGUGGC'
p228
aF0.8651399491094147
aa(lp229
S'Hard Y and a bit more'
p230
aS'AAAAAGUUUCGUAUGGACAAAGGUCCAGCCCUACAGUGUAGUAUGAAAGUACGGUUAUUCAAAAAGAUAAAUCUAUAUAGGAAACAAAAAAAAAAAAAAAAAAAAA'
p231
aF0.9716981132075472
aa(lp232
S'Mat - Lot 2-2 B'
p233
aS'GAAGGCAACGACAACCAAAAAAUAGGCAUAAUUGAAAACAGGUCGUGAGAAAAACGGGGUUGAAGCAAACUGGCGCUCCCAAAAGGGGGGUUGUGCAAAAGAGAAAGCGUUAAAAAAAUUAAUCGCAUCCGCUAGCAAACCAAAGUGCGCGUUCGAGAAAAAACACGGAGUAAUUUAAAAUCAAGGGUGGGAAAAAACAAGCGCGCGCAAGCAUGAGCGAGUAAAAGCGGGUUCACGCAAAAUAUAAUUGGCAGGAAAAAGCAAACGCGAGAUCAACAAACGAU'
p234
aF0.7605633802816901
aa(lp235
S'Shapes and Energy'
p236
aS'AAAAAAGGGGACACAGCAAAAGAAAGUAUGCGAAAGAAUACAAGCGCUGAAGGCAAAAAAUUAGAAAUGAUCCAGUUCGCAAAAAAAAAAAAAAAAAAAAA'
p237
aF1.0
aa(lp238
S"Spiral of 5's"
p239
aS'AAAAAGUAUCAAAGUAUGUAGGUAUGAAAAUUAACUAAGUAUGAAAGGAGGAGGAAACAAAAGUAGCAAAGUAUAGAACUAUGAAGUAUCAAAGUACGAAAGUAGGGAGUAUAAAAGUAUGAAAUAUCAGGUGUCAGGUGCCAAGUAUCAUUACCAGUGUGAGCGGAAAAAUCGUUGAGGGCACGCAAAAGGGUAAAAAAGGAUACGAAAAGGUACAAAAAGAUACAAAAAGAUAUAAAAACAUACGAAAAUAUACAAAAACCUGCAAAAACGUACAAAAAGAUACGAAAACAUAGAAAAAUGUACAAAAAGUUGCAAAAAGUCGCAAAAGCCUCCAAAAACAUACAAAAUGUUAGAAAAGCAUACAAAAUCAUACAAAAAGAUACAAAAAUAAAAA'
p240
aF0.9949622166246851
aa(lp241
S'Campfire'
p242
aS'AAAAGUACGAGCAUCAAGUACAAAUAGAAAAGCUAUAGGUACAAAGCUGCGUGUUCGGGUGCAAGAGUAGUGGCGAAAGCACACGCUGGUUUCAGUACUAGGGAAACCGCACGUGCAGACUAAUGUACGACACAGGAAGCUGUAAUCCGGUUCCUGGAUCAGACAGUAUAAAGAUGCGUCGUUGUGCGUCCGAAGGUACACCACAUAGGCAC'
p243
aF0.8584905660377359
aa(lp244
S'Anemone'
p245
aS'AAAGGAUUCGAAAGGAUUCGUAUCGAAAGAUACGUACACGAAAGUGUACCGAUCGAAAGAUUGCUGUACAAAGGUAUAGGCAUAUAAUUAUGCGUAUCGAAAGAUACGCCUGCUAAUGCAGGCAGUGUCGAAAGACACGCAUGCGAAAGCAUGCGUAGCAAAGGCUACGUUUCCAAAGGGAGACGUGUCGAAAGACACGCAACCUAAUGGUUGC'
p246
aF1.0
aa(lp247
S'Fractal 3'
p248
aS'AAAAAGUACAGAGAGCGAAAGCGCGAAAGCACUCAGGCAGCGAAAGCGCGAAAGCAGCCAGACAGCGAAAGCGCGAAAGCAGUCAGUCAGCGAAAGCGCGAAAGCAGGCAGUACAAAAA'
p249
aF1.0
aa(lp250
S'Kyurem 5'
p251
aS'AAAAUGUCUCGGAGAGAAAUCUGGCAAAAUCACUGUCAUCGAGUAAAACUCCGAUCUGAAAAAGCUUAUUGAGUCUCGAAAUGCUAAAAAAAAAAAAAAAAAAA'
p252
aF0.9615384615384616
aa(lp253
S'Snowflake Necklace ( or v2.0 )'
p254
aS'GAAGAUACCUAUAUCAAAAUGAAUAAAAAAUGUGAAAAAGAAUCAAAAAGAAGCAAAAACCGUCAAAAAGAACAUUUAGACAAAAAUUCAGUACUAUCAAAAAAAGUCAAAAAGAAUCAAAAAGAAACAAAAAGUAUCAAAAAGAAAGUACAAAUAAAAAGUAAGAGUGAUCAAAAACGAUCAAAAAGGAUCAAAAAGAAUCAAAAAGAAUCAAAAAGAGCACUCACACAAAAAGAGUUUAUAAACAAAAAGUAUCAAAAAGGAUUAAAAAAAUUAUAAAUUAAUCAAAAAGAAUAUGGUGACAAAAAGUCAUGAUGAGCAAAAAGUACCAAAAAGGAGCGAAAAGCAGCAAAAAGCGAAAAAAAUUACAUAGAGAUAUAGGUAUUUUC'
p255
aF0.8380462724935732
aa(lp256
S'Methaqualone C16H14N2O Structural Representation'
p257
aS'AAAAAAAGUGCUCAAGAGACAGACGAAAGUCAGACACACAAAAGUGAGCCAGACGAAAGUCGGACGAUCUAAUGAUACAGGAAAAAACUGAGUUAGGCAGUCAGUCGGAAACACUAGGGCAGAAAGACCAGAAAGGAAACUAAAAAAAAGGGAUAGAGACGAAAGUCCACGAACGUGUACGAAAGUACUGGUCAAAGGUCACAAAGGGACAGAGACAGAGAGAAUAAAAACACUAAUGUGAUAUACGGAAAACCGACACAGAUGAAAAUUACUGAGAGGAAACUCGCUCAGACUCUAAAUGUGUACGAAAGUAAUAUGAAACAGGUCAGUCGGGACAAAUUACAGUACAAAAAAA'
p258
aF0.9183098591549296
aa(lp259
S"Cat's Toy 2"
p260
aS'AAAUGCAUUAGCCAAAGGAAGAAAAAAAAAAAAAAAAAAGCGAGGCAAGGGAAACCAAUAAAAAGUCCAAAAAAAUAAAAAAAGAGCUAAUGCUAAA'
p261
aF0.9587628865979382
aa(lp262
S'Zigzag Semicircle'
p263
aS'AAGUGGUUAAGUUGAAAAUAAUUAAUAAUAUAAA'
p264
aF0.9411764705882353
aa(lp265
S'Short String 4'
p266
aS'AAAAAAGCAGUGACAUAUAAAAAGCGACGAAAGAGCAAUAAAAAGCGCAGGAAAUUAAGCAAUAAAGUGCAAAUGCAAAAAAAAAAAAAAAAAAAAA'
p267
aF0.9381443298969072
aa(lp268
S'Gladius'
p269
aS'UAAAAGAAAGCAGCGAGGGAGGGAGGAAGAGCAGUCGAGAUACGAAAGUAUAAUAUCAAAAGACAAUAGUACAAGAUUACAAUGGUAUAUGCAGUAUACAGCAUCAGUACAGUACAAGAUCAAAGAUCAGUAACGUAUGAGUGCGCUAUACGACGUAUAUAUGAGUAGAACAGUACAAGAGUCGGCGGAUAUAGACGAAGACGCCAGCGGAAAACUUAUGUUUGUACUAUCAUAAGAAAUACUAUAUGCAGAGCCAGUAUCUAGGCACUUUACGAAAGUAGAGAAGCCACGAUAACGGCUACGCAUAACGUAUUUCAAAAGAUGAAAAGAACCGUUGUUACAAGCUGGGGUGCGAAAGCACCAAGUCGGCCAAAAAGCGCAACAAAGAGGGGAACGAAAG'
p270
aF0.91
aa(lp271
S'Thunderbolt'
p272
aS'UGGAGUUGUAAAAAAAAGGGCAGGCGGAGGAUGGAAACUGUAAAUUGAAAGAGAAAAGAAAAAAGGAGAAAAACUCCAACAAAAGAAGCCAGGCAAAAAAAGAAGAAAAAACAACAAGCACUCGAAAUAAAAAUGCAGCAAAAGGACAAAAACAAGCAGAAACAGCAAGAAAGAGUCGGUAAGAAGAGAAAAUGAUGAACAAAAUACUACUAAAAAACAGAGUACAAAAAAAAGCUGAGGGCCAUAUCAAAGAUAUGAGAAAGCAGAAAAAAAAAGCCCGGAAAAAAAAAGAAUAAAAAACAUUUAAAAAAGAAAAAAAACAAAAGAAGAUGGAAAACGAACGAUUUACAAAAAAAACGGCAAGCACAAAAAGAAAAAAACAACAACAACGA'
p273
aF0.9591836734693877
aa(lp274
S'Mutated chicken feet'
p275
aS'GAAAAAAGUAUCAGCAAAACGGGAAACCUAAGGUCGGUAGCGCGAAAGGUUCAAGGCAAAGUACAGCAGAUGCAAAGCGGCAAAGCGAUGCGCAAAAAAA'
p276
aF0.85
aa(lp277
S'Chicken Tracks'
p278
aS'AAAAAAAAGGAGUUGCUACAAAGGUAGGUGUCCGAAAGGACUAUUACGAAAGUAACAACUCCAGCCCGUCGAAGCGACAUGUACAAAGUACUAGGACAAAGUCCGGGAAAAAAAAA'
p279
aF1.0
aa(lp280
S'Looking Back Again'
p281
aS'GAGAAGAAUAACAAAAAUCGUACAAAGUAUGGAGUUGAAGAGAAGAAGACAAAGUCCUGAGUAUCAAAGCACAAAGGUGCAAAAGAUACAAUUCAAUUCAAGGGCGUCAAAAAGGAUCGAAAGAUCCAAAAAAGACGGCGAGUAUCAAAGCUACGUUUCGAAGAGACCUAGCCCGUGGAGUAAGAAGAUGAGGUAGGAAAUUACAACUCAACAAGCACAGACUAAUGUCACGGCUAGAAAGAUACGCACGGCUUCAUAUAGAAAAAGUGCAUUAAAAAAAAGGCCAAAAAGGCCGGUAAAACAUAUAUGGUACGAAAAAGGCAGUUCGAAAGAGUUGAAACCGCUAUGAUUAUCCUAUGGGUAUAGGUGCAAAAGUACGAGGCAAAUUC'
p282
aF0.9023136246786633
aa(lp283
S'Multilooping 6'
p284
aS'AAGCAUCAGACCUUCUAAUGAGGGAUAUUGAAAGAUAUGUUGUGGGGUCGAAAGACCUUAACGAAAGCGUUGUGAGAUGCAA'
p285
aF0.926829268292683
aa(lp286
S'Cesspool'
p287
aS'GAUGAAAAAAAUAAAAGAAGAGAGAGGAAGAAACCAACAACUCAAGAAGAAAACAACGAAAGAAAACAAUACAGCUAAAAGUACUACAAAAAGAAUAAAAGAAUAUAAGAAAACCAAAGGUACUAACAAAUGAAAAAGAAAACAAUAGAAAAAAAUAUCACAGUCAAAAGACAAAUAAGCGCGAAGAAAACAAGUGAAGGGAUAUAAAAUGACCAACAACGCGAGAAGAAAACAAGACAAGAAAACAAGACAAUAGAAAUAGCAACCAAGCGUGAAGAAAACAAAAGAAGAUAAACAAGGUUACGAACAACUUAAUAAUAAAAGAAAAAAAUAAAAGAAUACAGAAGAAAUACCAAGC'
p288
aF0.7402234636871509
aa(lp289
S'Hoglafractal'
p290
aS'AACGGGAAGAGGCAAAAGUAUCAAAAAAGAUACGCCUCAUGCAAGUUACAAAAAGUAAGCACCGCAAGAGGAAAGUCGCGAGACAAAGCUAAAAGUUCAAAAAAGAACUAACGUCAAGACGAAAAGUCGACGCUGCGAAAGCGCAGUACGAAAGGCGAUAUAAAAAAAUCAUCGCAGCAAAAAGCGCCAGAAAACUGACUAUCAAAAAACAUUAAAAAAAAUGAACUAAAUGUGUCGAAAGAAGGAGUCAAAAAUGAUAAAAGAAUCCCGGAAAGAAAGCAGAUACAAGGUAUCUGAAAAAAAGACUUCGAAAAAAAUAUAAAACGUACAAAAGUCGAACCAACGAAGUACACCGCAAAGGCGAAAGCAGAAAGCAUAUAUCAAAGAUAAACGGUAGUUC'
p291
aF0.9125
aa(lp292
S'Bullseye'
p293
aS'AAGCGGGAAUGAAGGACAGGGACAAAGUUCAAAUACAAAAUGUCUGAAAAAAAUCCCGUACAAAGCACAAGUUGAAACGAAAAGUCCUAUGCUCGGGUAAAAAAACAGAUUCGAAGGCGAUCUACGAAGUAGUAAACAAAAGGAUCUGAAAAAAAACACGGCGGCACGUCAAAUACAAAGUACAAUGAAAAAUUUAGAGAAA'
p294
aF0.8415841584158416
aa(lp295
S'Shooting Star'
p296
aS'AUAUUCGGGCCUAUAAUAAGGCGAAGGAGAGAGUAAUCGAAAGAGUAACCUCGCACGGUUAAGUUAUAGACUCGCGCUAGAGCCGUCCAGCGGUAGUCAGUACAGGGAAACACGUAACGGCGAUUGAUGGAAGAGAACAAACGAAAACAGCGACGUACUAGAUAAAGUCUAACACCCGAAGGGUACAAAAAACGACGUGCAGCCCAAUAGCGUCUAAGGUUUGUUAAAGAUAGACAGGCCCAAAGAGGUGUACGUAUCUCAAAGACAUACACGAUUUAAGAUGCGUACAUUGAAUGAAAAGAUUAGCAAGUGAGGCAGUACAGGGAAACACGUAACGCCACUACGCAUGUGCCAAUAGGAUAUA'
p297
aF0.8379120879120879
aa(lp298
S'Teslagon'
p299
aS'AAAAAAUGAAAAAAAGGGUUAAAAAACCUAGGGAAAAAAAAAAAAAACCAAACACAUCGAAACAAAAAAAAAAAGGCAGCUAAAAAAACUGGAAAAAAAGCAAAAAAAAAAAAAAAGUAAAAAAGUCAUAAAAAAAAUCAAGAAAAAAAAAAAAAAAGUAAACAGAUUAUAAAAAAAAAAAAAAAAUAGGAAAAAAACGAGCAAAAAAACCAAAAAAAAAAAAAAAGGAAAAAAACCAUGAAAAAAAGAAUUGAAAAAAAAAAAAAAAGAAACAGUCCGCAAAAAAAAAAAAAAAGCAGCGAAAAAACCGGUAAAAAAAUCGAAAAAAAAAAAGCAAAAAAAAAAAAAAAGCGGUGAAAAAAGCACCAAAAAAACGAGAAAA'
p300
aF0.900523560209424
aa.