(lp0
(lp1
S'Simple Hairpin'
p2
aS'GAUACAAAAAAGUAUC'
p3
aF1.0
aa(lp4
S'Arabidopsis Thaliana 6 RNA - Difficulty Level 0'
p5
aS'GGAAUAUGGGUCUCAAAAAAAAAAAGAGGUAUAGACUAUAUUUAUAUAUAUUGAUAGGAAAAUACAAAAAAGUAUUACUAUCGUGUAUAUAUAAAUAGUGUCUAUACAAGUAUUCC'
p6
aF1.0
aa(lp7
S'Prion Pseudoknot - Difficulty Level 0'
p8
aS'GACUAGAGAUCAAAAGAUCCUAUGUCAAAAAAAAAA'
p9
aF1.0
aa(lp10
S'Human Integrated Adenovirus - Difficulty Level 0'
p11
aS'AUACCCGUAUUGACUGAGUAUUAAAAAAAAAUGACCGGGAUGCGCAAAAGUCAGAGCAAAAGGGAUAACGGGAUAAAAAAAGAUCUCGUUAUAAAACCCGCUUUAAAAGACCGCUAUAGUCCCAUACGAGAGGAAAAAAUUCUCGGGUCUAAAAAAAAAAUAUAUUCUGUCAAGAAAUGCGGAAAGUAUAGA'
p12
aF1.0
aa(lp13
S'The Gammaretrovirus Signal - Difficulty Level 0'
p14
aS'GAGGGUUUAUAGCAAAAGCUAUGUUUGCAAAAAAGAUCAAGAUAGAGCGAUAGAAAACUAUCGAAAGCUCAUCGAUCAAAGGAUAUCAAAAGAUAUCCUAA'
p15
aF1.0
aa(lp16
S'Saccharomyces Cerevisiae - Difficulty Level 0'
p17
aS'GGUAUAGAUACAAAAAAAAGUAAAUAUAGGAAAAAAAAAAUAGAGUCGUAACAAAAAAGGUUGCCUAUGCCAAAGGAGCUACAAUUAGUAAAAAAUUUAAGCCGAAAAAAAAAAAAGGCAGGUUUCUCAAAAAAAGGGAAGUAGCUUAAAAUCGCGUUCAGUUCAAAAAAAGGAACGCUGACAAAAAAGGUCAGCAGGUUAAGCGAAAAAAGUUUAGUUGUGAGAAGGGGAUACAACAACUAAAAAAUAAUGCGGCACGAAAAAAGUGUCGAGGUAUAUCGAAAAAAGGUGGGAAUCCCAAAUGGUUACAAAGACUGAAAAAAAAGUCCGAUAUAAAAAAGGAAUCGAGGUCAUUGAAAAAAGCAAUGUGUGCUCUAAA'
p18
aF0.9894459102902374
aa(lp19
S'Fractal 2'
p20
aS'AAAAGGGGUGAUCAAUUAGAUUAUGGGAGUGCAAAAAAAAAAGCACAAGACCAAAAAAAAAAGGUCAAUGUCGAAAAAAAAAGACAAACCAUAGUCUAUAAGAGAAAGAAGAAGGUAAAAAAAAAAAUACCGAGUUCAAAAAAAAAAGGGCAAGAUCUAAAAAAAAUGGUCGACUUUUUUUUCAAGGGGAUAUAGUGAGCUCGAAAAAAAAAGAGCGAGAUGGAAAAAAAAACAUCAAUUCGAAAAAAAAAACGAAAAACUAUGUCCCAAAGAUCGCCCAAAAA'
p21
aF1.0
aa(lp22
S'G-C Placement'
p23
aS'GUAUAAAAUACG'
p24
aF1.0
aa(lp25
S'The Sun'
p26
aS'GAAAGCGAAGCAAAGAUAAACGCUUUAAUGACAGAGAUACGAAGUAUAAUUCGUCUAAGUGAGCGAAAGAAACUUUAACGCCGCAAUGCGAGUUAUUAAAGGUAUAAGCCCGCGAGGACAUGGAUACUAUGUUUAAUAGGUCAAAAGGAGGGAGCCUAUGGCUAACACUCUGCAUGCAGGGAGAGAAGUUCUAAUCCGCAGAUGAUACGGAUACAAAGUAUACCCGAUCUAAGCCAGAGAUAUGAAGUAUAAUUCGGC'
p27
aF0.8682170542635659
aa(lp28
S'Frog Foot'
p29
aS'AAAAAAAAAAGGCGGAAACGCUGCUGUAAUCAGCGAGCGAAGCUC'
p30
aF1.0
aa(lp31
S'InfoRNA test 16'
p32
aS'GGAUACGCACAAUUGAAAAUAGUUAGUAGAGUAUCC'
p33
aF1.0
aa(lp34
S'Mat - Martian 2'
p35
aS'GAUCAAAAGAUCAAAGGGAUACAAGGGAUACAAAAAAAGUAUCCCGUAUUCCAAAGGAUAUACAAAAAAGGGAUACAGGGAUACAAAAAAAGUAUCCCGUAUUCCAAAGAUAUAGAGAUAUGAAAAAAACAUAUCUACUAUAUCAAAAAAGUAUAUCCAAAGAUAUAGAGAUAUGAAAAAAACAUAUCUAACUAUAUCAAAAUACAAAAGUAU'
p36
aF1.0
aa(lp37
S'square'
p38
aS'GGGAUACGGGUACGGGUAUCGGAUACAAAGUAUCCAAAAGAUACCCAAAAGUACCCAAAAGUAUCCC'
p39
aF1.0
aa(lp40
S'Six legd turtle 2'
p41
aS'AAAAGGCGAACAAAAAUGGAAUGAAAGUAGAGGGGAAACUAAAUUAUAAGGAAGAGAAAAUUAAGACUAAUACAAAGCAAAAAAAAAAAAAAAAAAAA'
p42
aF0.9591836734693877
aa(lp43
S'Small and Easy 6'
p44
aS'CUUAUAAAAGAUAAUGAUAAAAAAGACAUA'
p45
aF0.9333333333333333
aa(lp46
S'Fractile'
p47
aS'AAAAAAAAAAAAGCGAAAGCAAAGCAAAGCAAAAGCAGCCAAAGCAAAAGUGAAGGAACCAAAAGGAAAGCAAGCAAAAGCAAAAAAAAAAAAAAAAAAAAAAAA'
p48
aF1.0
aa(lp49
S'Six legd Turtle'
p50
aS'AAAAAGCAAAGUUAAAAGGAAAAGUAAAAAAGAAAACGUAACUAAAGUUAAAAGGAAAACCUAAUUGAAAACGAAAACGUAAAGCAAAAAAAAAAAAAAAAAAAA'
p51
aF0.9428571428571428
aa(lp52
S'snoRNA SNORD64'
p53
aS'GGAUACAAAAAGACAAAAGACAAAGAUACAAAAAAAAAAAAAGUAUCAAAAGUCAAGUCAAGUAUCC'
p54
aF1.0
aa(lp55
S'Chalk Outline'
p56
aS'AAAAAGAUGUGCGACAAAAGUCCGCUGCAAGAGAAAGCUCUGCAGGAUAGAAAACUAGUCCAGGAUCAAAAGAUACCCAUCAAAAAAAAAAAAAAAAAAAAAAA'
p57
aF1.0
aa(lp58
S'InfoRNA bulge test 9'
p59
aS'GGGAUACAGAGAGAGGGAUACAAAAGUAUCCCCCCGUAUCCC'
p60
aF1.0
aa(lp61
S'Tilted Russian Cross'
p62
aS'AAAAGGAGCUCCUAACGGGGCUUGUACAACAAAGGUUGGAUGCGAAAGCAUCAGAGCGAAACUUCGCAAAAUGAAAGCGUAGCUGAAAAAAAAAAAAAAAAAAAA'
p63
aF0.9619047619047619
aa(lp64
S'This is ACTUALLY Small And Easy 6'
p65
aS'AAAAAAAAAAAAAAAAAAAAAAAAAAAAAAAAAAAAAAAAAAAAAAAAAAAAAAAAAAAAAAAAAAAAAAAAAAAAAAAAAAAAAAAAAAAAAAAAAAAAAAAAAAAAAAAAAAAAAAAAAAAAAAAAAAAAAAAAAAAAAAAAAAAAAAAAAAAAAAAAAAAAAAAAAAAAAAAAAAAAAAAAAAAAAAAAAAAAAAAAAAAAAAAAAAAAAAAAAAAAAAAAAAAAAAAAAAAAAAAAAAAAAAAAAAAAAAAAAAAAAAAAAAAAAAAAAAAAAAAAAAAAAAAAAAAAAAAAAAAAAAAAAAAAAAAAAAAAAAAAAAAAAAAAAAAAAAAAAAAAAAAAAAAAAAAAAAAAAAAAAAAAAAAAAAAAAAAAAAAAAAAAAAAAAAAAAAAAAAAA'
p66
aF1.0
aa(lp67
S'Shortie 4'
p68
aS'ACGAAAGUAGGGAAACC'
p69
aF1.0
aa(lp70
S'Shape Test'
p71
aS'AAAAAGGUAUCAAGAUACGAAAAAAAGUAUCAGCACAGACAGAUACAAAAAGUAUCGGAUCAAAAGAUCAGUCGUGAAGAUGACAAAAAAAAAAAAAAAAAAAA'
p72
aF1.0
aa(lp73
S'The Minitsry'
p74
aS'GACGAAAACACAGAAGGGUAAAAAGACAAAAGGACAAAAAAAAGUCAGUCGAUCAGUGAGUC'
p75
aF1.0
aa(lp76
S'stickshift'
p77
aS'AAGGGAUCGCAAAAAGCAGAUCCCAA'
p78
aF1.0
aa(lp79
S'U'
p80
aS'AAAAAGAUACAGAGAGCAGAGGGAUAUACAAAAGUAUAUCCCCGCCCGUAUCAAAAA'
p81
aF1.0
aa(lp82
S'Still Life (Sunflower In A Vase)'
p83
aS'AAACAUGGUGUCGGAAAAACAACUUAGCUAUAAGAUAGCAAGAUACAAAAAGUAUCAAGACACAAAGUGUCAAGAGAUAAAAAAUUUCAAAUUGAAAAAAUUAUUCGGAUUUACAUAUAUAUAUUUAUGGAUACAAAAAGGUAUCAGAUAGAAAAAAAAAAAAAGAUGAAAAAAAAAAAAAAAAAAAAAAAAAAAAAAAAAAAAAAGGGCAUCAAAAAAAAAAAAGUUAUCGCAGCAAAAGUUGCACAUAAAUAUAUAUGUGUAAAUCCUGAAUGGGAAAAUCGUCAGCAAUCAAAAGGAUUGAAGUUACAAAAAGUAGCGAGAAGCAAAAAGCUCCAUGAAACAAAAGUUUUUCGGAGCGAAACUUGUCACAUGAAA'
p84
aF0.9497354497354498
aa(lp85
S'Quasispecies 2-2 Loop Challenge'
p86
aS'AAAAUGCCGCUUGGAUAGCAAAGGCUAGACAGGUCCUAGACUAUGGAUAGGUAAGCUUAUUCCCAAAAGGGGUUUUUGCUUCGGCUAAAAAAAAAAAAAAAAAAA'
p87
aF1.0
aa(lp88
S'Corner bulge training'
p89
aS'AGGAUAGGAUACAAAGUAUCAAAACUAUCCA'
p90
aF1.0
aa(lp91
S'Spiral'
p92
aS'AAAAAGAUCAGGAUACAGACAGAUACAGAUCAGAUCAGCAGCAGCAGCAGCAGCAAAAAGCGCGCGCGCGCGAUCGAUCGUAUCGUCGUAUCCGAUCAAAAA'
p93
aF1.0
aa(lp94
S'InfoRNA bulge test'
p95
aS'AAAAAAAAAAAAAAAAAAAAAAAAAAAAAUGAGGAAAAGGGGUAAAGGGAUAAAGGCGGGUCACGAGACAAAAGGUACUAGUAGAAACGACCAAAAUACCAAAAAGCACCAAAAAACUACAA'
p96
aF1.0
aa(lp97
S'Worm 1'
p98
aS'AAAAAAACGGUUUGAGAGGAACGACAAAUGGUGUCACGCUAUGAG'
p99
aF0.9111111111111111
aa(lp100
S'just down to 1 bulge'
p101
aS'AAAAAGGACAUAUACAAAAGUAUAAGACAAAAGUCAGUACCAAAAGAUCAGACAAAAGUCAGACAAAAGUCAGAUCAAAAAAAAAAAAAAAAAAAA'
p102
aF1.0
aa(lp103
S'Iron Cross'
p104
aS'AGGUUGGCAAACGCAUACAAAGUGAGACAAAAGUUGGCCAAACUCUUCGAAAACGCAGCUUAAGGUUGAAAAAAACAUGCUAAUGUAGUACGAAGAAAGUUAAAGCUUUUGUAUAGGUGCCGA'
p105
aF0.9512195121951219
aa(lp106
S'loops and stems'
p107
aS'AAAAAGGGAUACAAAGAUUAAAGAUCAAAGGUCAAAAAAAAAGAUACAAAAAAAAAAAAGUAUCAAAGACCAAAAGAUCAAAAAAAAAAGAUCAAAGAUCAAAGACAAAAAAAAGUCAAAAAUCAAGCAAAAAAGCAAAGUAUCCCAAAAA'
p108
aF1.0
aa(lp109
S'Water Strider'
p110
aS'AAAACAAUACUGGUCAGAAAUAAAAGUCGUGAAAAUGCCUCGGGGGUAACAUGAAAAUGGGCAAACACUCGUAGAAUGUAUUUAAAAAAAAAAAAAAAAAAAA'
p111
aF0.9320388349514563
aa(lp112
S'The Turtle(s) Move(s)'
p113
aS'AAAGGGAAAGCAGGUGGUAUGGUCAAAAAAAAAGGCUGUACCUAGGGAUCAAAAAGAUCGGAGUCUAUAAUGAAAAGGCGACUAAAAAUGUCGCAAAAAGAAAAGCAAAAGUACAGUCUCAAAAGAGAAAAAGAUACAAAAAAAGUAUCUAAAUGACGAAAGUCUAAAAGGAUACAAAAGACGAAAAAAGUCAAGACGAAAAAAAGUCGAAGAUAGAAAAAAUUAUCAAAGACCAAAAAGGUCAAGUAUCCAAAAAAAAGGUUAAAACAGAAGACAAAGGGACGGAACAUAUAAAAAAAAAAGUUUGGAAAAAUCU'
p114
aF0.9746835443037974
aa(lp115
S'Adenine'
p116
aS'GAUACAGGAUACAGGAUACAGGAUACAGGAUAGAGGAUACAAAAGGAUACAAAAAAGUAUCCAGUAUCCAGAUACAAAGGGAUACAAAGUAUCCCGUAUCACUAUCCAGAUAUAGAGAUUAAAGAUCUCUAAAGUAUCAGUAUCCAAAAGUAUCCAAAAGUAUCCAAAAGUAUC'
p117
aF1.0
aa(lp118
S'Tripod5'
p119
aS'AAGGUCCCGGGAAAAUCGGGGCAUAAAUUGCCGACCAA'
p120
aF1.0
aa(lp121
S'Shortie 6'
p122
aS'GCAAAAGCAGCAAAAGCAGCGAAAGCAGCGAAAGC'
p123
aF1.0
aa(lp124
S'Runner'
p125
aS'AAAAAGAACACUUCGAAAAUCCAGAAGUGAGGAGCUAUGAUUAGCUCAGUAUCUCAAACACCACACGAAGUCUCAUCGCUAUCUACGAGUAAUACAAAGGUAUAAUGGUCCAAAAA'
p126
aF0.9482758620689655
aa(lp127
S'Recoil'
p128
aS'AAAAAGAUACAAGCAAGCAAGACAAGACAAGCAAGCAAAGCAGCAGUCAGUCAGCAGCAGUAUCAAAAAAAAAAAAAAAAAAAAA'
p129
aF1.0
aa(lp130
S'[CloudBeta] An Arm and a Leg 1.0'
p131
aS'AAAAAGACAGACACAAAAGUAGUCGUCAGCAAAAGCGACAGUCAAAAAAAAAAAAAAAAAAAA'
p132
aF1.0
aa(lp133
S'[CloudBeta] 5 Adjacent Stack Multi-Branch Loop'
p134
aS'AGGUGAGUGUAAUCCCUGUAUCGAAAGAUAUUUUACGAAAGUAAAUUGUUAAUGUAACACCUA'
p135
aF0.9682539682539683
aa(lp136
S'Triple Y'
p137
aS'AAAAACAAUAGUAUGUUAAGGGAUGAUUUAAAGGAUAAACAUGUUGAGAUUAUUCUCGACGGAAACGUAGGUAAUCGGAGAAAAAAAAAAAAAAAAA'
p138
aF0.8762886597938144
aa(lp139
S'Misfolded Aptamer'
p140
aS'GUUGAAAAAAAGAACCAUAGCGAUUAAUGUACGUGGUAGAUGAAAGCGGU'
p141
aF0.96
aa(lp142
S'Flower power'
p143
aS'AAAAAACUCGUUCGAAGGACAUAUUGAUAUUUUAGAAAGAAAUAUCUUCAAGGACUAUCAUCAAUAGCAGCAAAGCUGGACUAAAAAAAAAAAAAAAAAAAA'
p144
aF0.8725490196078431
aa(lp145
S'Kudzu'
p146
aS'AAAAAACUAGAUGAGAAUUAAUCGCACUACGUCCACCCGUGGUUCAAGGGAGUCCAAAACAAACUUAAAUUCGGUAAGGAGAAAAAAAAAAAAAAAAAAAA'
p147
aF0.9603960396039604
aa(lp148
S'"1,2,3and4bulges"'
p149
aS'AAAAAAAACGGAUUUGAAAAAGAAAACCACUGAAAAUAGGGCGUGAAAUGGAAAGACAAAAGAAAUCGGACAAGUUGCAGUAACGUAAAAAAAAAAAAAAAAAAA'
p150
aF0.8476190476190476
aa(lp151
S'medallion'
p152
aS'GAAUAGUAGAGAUAAAAAUUUCAACUCAAAAGAGCGACUAAAGUCGGGAUACGAAAGUAUCCAUGACAAAACAACUAUAGGAAACUAUGGGGUCAAAAGACAUCCUAAUGCCAGGAUACGAAAGUAUCCGUAGAAAAAUGUGUGUGAAAAAUCAUACAGAAAAAAGCUAUGUAAAAGAGAGGAUACGAAAGUAUCCAGCAAAAAUGCGGGAUAGAAAAUUAUCCGGGGGAAUUUCAGGGGAAACCCUGGGUACAAAAGUACCCUCUCUAAAGGGGGGAUUCAAAAGAAUCCAGACCAAAGCGGGAAAAAGCCCAGGAUACAAAAGUAUCCAUUAUUC'
p153
aF0.9287833827893175
aa(lp154
S'[RNA] Repetitious Sequences 8/10'
p155
aS'AGCAAAAAAGCAAAAAAGCAAAAAAGCAAAAAAGUAAAAAAGCAAAAAAGCAAAAAAGCAAAAAAGCAAAAAAGCAAAAA'
p156
aF1.0
aa(lp157
S'Documenting repetitious behavior'
p158
aS'AAAAAAGGUAAAAAAAAUUCAAAAAAAAAGCAAAAAAAAAGUAAAAAAAAGGCAAAAAAAAAGGAAAAAAAAAGCAAAAAAAAACGAAAAAAAAACAAAAAAAAAAACAAAAAAAAAUCAAAAAAAAAUCUAAAAAAAAGCAAAAAAAAACGAAAAAAAAACAUAAAAAAAGUCAAAAAAAAUGAUAAAAAAAGUCAAAAAAAAAGAAAAAAAAAUGUUAAAAAAAGGGAAAAAAAAUUGAAAAAAAAAUGAAAAAAAAGGCAAAAAAAAUGGGAAAAAAAAGAGAAAAAAAAACCAAAAAAAGGGAAAAAAAAAGCAAAAAAAAGACAAAAAAAAGGCAAAAAAAAAGCAAAAAAAAAACAAAAAAAAAGCAAAAAAAAAGCUAAAAAAAAGCAAAAAA'
p159
aF0.93
aa(lp160
S'7 multiloop'
p161
aS'GCCCGAUUCAAAGGAGUCCAUACGAAAGUAUGCAAACUAAGGUUUGGCUGCUAAUGUAGCGACAGUCAUCUGUCCUGGCGAAAGUUAGGGGC'
p162
aF1.0
aa(lp163
S'Kyurem 7'
p164
aS'AAAAAGAGUAUCUACUAAUGUAACCAAAAGUAUUGCUUAAAUGAUUGUCGUUAAAAAAGACAAAGUGAUAGGCCGAUAACACAAAAAAAAAAAAAAAAAAAA'
p165
aF0.9215686274509803
aa(lp166
S'JF1'
p167
aS'AUAGAGUAUUAAGAUACAAGACACGAAAGGUUACAAGAUACAAAGAUACAAGAUACUAAUAUUUAGAUAUAGAAAACUAUAUCUAGAUAUAAGACAAAAGUCAGGGAUAUACAAAAGUAUAUCCCAAGAUACAAAAGUAUCGGGUAUCAGUAUCAGUAUCAGUAACCAAAGGGAUAUCAAAAAGAUAGUCCCAGGAUAUAUAGUAUUAUAGUCUUAUGAAAACAUAAGACUAUAAUAGCUAUAUAUCAAAGAUACAAAAAAGUAUCCUCGAGUAUUGAAAGAUACUCGAGAAAGAUCGAAAGAUCAAGUGUCAAGUAUCAAUACAGACAGACAAAAGUCGUCGUAUAGGGGAUAUGAAAACAUAUACCCCAUAAUAACUACUAUAGA'
p168
aF1.0
aa(lp169
S'multilooping fun'
p170
aS'CUCGGUUCGGAAACGUUAAAUAUGAUAUACAAAUAG'
p171
aF0.8333333333333334
aa(lp172
S'Multiloop...'
p173
aS'GCGGACUUCAGGUGAAAGCCAGACAAAAGUCAGGGAAAGCCCAGUCGAAAGACGCACAAAAGUGAGAGGAAACUCAGAAGAGAUGCAAAAAGGCAUCGGCAAAAGCCCCGC'
p174
aF1.0
aa(lp175
S'hard Y'
p176
aS'AAAAUGAGUGAAUAGCUAUCAAAGGAUAGCUUGGGGGGAAAUCGCAAAGGCGAUUUCCCAAUCUAAAA'
p177
aF0.9705882352941176
aa(lp178
S'Mat - Elements & Sections'
p179
aS'AAAAAGCGGGGAAAGGUCUACGCUCCGAGCAGAAGAAAAGUCGAAAGACGUCGUAUAGUCCAUCAAAACAUAGCUCUAACAAUUCGAAAAAAAAAAAAAAAAAAA'
p180
aF0.9619047619047619
aa(lp181
S'Chicken feet'
p182
aS'AAAAUGAAUAAUUAAAGGGCUAAGGAAAACUACACUAGGUCUAAAAGCGUAGAAAAAAGUACAAAAA'
p183
aF0.835820895522388
aa(lp184
S'Bug 18'
p185
aS'AACUCGGAUGGUAAUAAGAGAGCAAAGGAACGAUCGAUAAGCGACGAAAUGUA'
p186
aF0.9245283018867925
aa(lp187
S'Fractal star x5'
p188
aS'AAAAAGGUUUAGGAAGAUGCAAAUAUCAAGAUUGAAAGAUUAUUAACAAAGGUUAUACAUGGAAACAUGAACCUAGGCCAAAAUGGCAUAUUAAUAUCAAAGGAUAAAGCACAAAAGUGCAAUCGCAAAAGCGAAAAAGAGAAAUCUUAGAAUGUGCCUAAAUGGUAAAUUAAGACCGAAAGGUUAAGAUCAAAAGAUCAAGAUGAAAAUAUCAAGAUAAAAAUAUCACAAUUUACCUAAAAGUGGUAUUAGGAGCGAAAGUUCAAGGUCGAAAGACCGAUAUCUAAUGAUAAGGAUCUAAUGAUUAAAAUACCACAAAAAGGGACAUCAAGAGCAAAGGUUCGAUCGGUAAUCCGGAGGAUCAAAGGAUCAAUUUCAAAAGAGAAAGAUGUCCCGAAAA'
p189
aF1.0
aa(lp190
S'Crop circle 2'
p191
aS'GGAAAAUAAAAAUAAAAACCGAAAAAAAAGUAAAAAAAAAAAAAAAAAAAAAAAAAAAAAUAAAAAAAAAAAAAAAAACUGAAAAAAAGAUAAAAAAAGUAAAACGAAAA'
p192
aF0.9636363636363636
aa(lp193
S'Branching Loop'
p194
aS'AACUCAGAAAAAAAUGGUGAAAAUGUGACAGAUAAUAAAA'
p195
aF0.95
aa(lp196
S'Bug 38'
p197
aS'GGCGGCCCGUUUUACAAAGGCGUCGACACAAACGCA'
p198
aF0.9444444444444444
aa(lp199
S'Simple Single Bond'
p200
aS'AAAAAGCGAAAAAAAUAGUUUAAAUAGUUUAAAAAAAUGAAAAAAAAAAAAAAAAAAAAAA'
p201
aF0.9672131147540983
aa(lp202
S'Taraxacum officinale'
p203
aS'UUCGAAAACAGAGAUAGGGAAAUAAUAAAACGCAAUCAGUUAGACGUAAUCAGUCAGGUGAAAAAAACCGGCCAUAAUAAGGCAGAGAUGGAGAUGUUAUGGAUUUUAUGGGUGCUAUAGCAGAAUCAAAAAGAGUGGUUUGGGAUAGAAACUAUCCCUGCUACUCUUUGAUCAGGUUUCUAUGGAGCCGAUCGGUUCGAAAUCUCCAUCUCAUACGAAAAAAGGGAGAUGGAAACAGUCUUACGAAAACAAUGAACAUGAAAAGUUGCGGCUAAAAGAGCA'
p204
aF0.875886524822695
aa(lp205
S'Headless Bug on Windshield'
p206
aS'AGCAGAAAAAAGCUUCAAAGCAGAUGAAAAAAAAAAAAAAAAAAAAAAAAGUCAGCGAAGAGAGCAAACCGCCAUGUAAAGCAAGGAAAAAAAUAGAAAUGAAAAGAAUCGUUAAAAAAGCAAGCCGCAAAAAAAGACAAUAUUUAGUUCCAUUCGAAAAAAAAAAAAAAGGAAAGGUUGUAUUUGAGCCAAGCACGUCA'
p207
aF0.95
aa(lp208
S'Pokeball'
p209
aS'AAUUUGGCAUGAAAAUAAGCAAUAGGGGUACUCAGGGAAGGAGUCAAGGAAGUAAGAAGCUACUAGAGGACACUAAGCGGGGUGUCAGUAAAAAAAGGAAUACAAAACCGAGCGAGAUAUGCUAGAAAUGAAGUAAGGGGGCGAAGCACCGGAUGUUGCCCUGCUGUCAGCCGCGUAUUCCAAA'
p210
aF0.9891304347826086
aa(lp211
S'Variation of a crop circle'
p212
aS'AAAGGCUAAGUAAAAAUGAAAAGUGAUAUGGGAAUAUAAUGAAAAGAGAAAAACAGAAAAAACGAAAAAAAAUUUGAAAAAAAAAAAA'
p213
aF0.9545454545454546
aa(lp214
S'Loop next to a Multiloop'
p215
aS'AGGGGAUAGCAAAAGAAACGCGUAGAAAGUUAUGCAAUGUUAAAAAAUUAACGUGUAAAAAAAGUUAUCCUAA'
p216
aF0.9726027397260274
aa(lp217
S'Snowflake 4'
p218
aS'GAUUGAAAAUUGAGACGCAAAAACCAUACUGGGUUAACGAAAUCCUAAGGAUCAAGGAUCAAGAAGAAAUAUACAUAGACAAAGGCUAACCAGCAUGCACGAAAGCCGAUAAAACAAAGUUUAAGAUCAAAGCUUUAUAGAUGAAAAUGUAUGAGGUAAUGCAAAGGCCGGUUGCUAAAGUAGCAAUAUAAAGUAUAGACCGGCAAAGGCAUUACAUGAGAGUCAAAAGGUGAUUGAUCUAUGGUCAAGAUCAAAGAUCAAUCGGCAAAAGGCUCUCUUGGUAUGCAAAGGCCCCUCCCACAAAGUGGAAGAUCAAGGGUCGCGGGGUAAAAGGAUAUCUUGUAUGGCGAAAGCGUCUCGCGUAAGAACC'
p219
aF0.8756756756756757
aa(lp220
S'Mat - Cuboid'
p221
aS'AAAACAAAAGCAAUCAAAACCAAGCAAAAGAACCAUGCAAAAUUAAGCGAUUAAAACCAGCAAGCAAUCAAAAGCAACCAAGCAAGGAAAAGAAGGCAAGCGUGCAGUCAAAACCUAUCUAUCUAUCUUUGAAAAUGUUUCGUUCUCUUUUAUUCUCAAAAUCUUACUUUGUUCGUGUCCGUCAAAAGGUAACUAUGUUUCUUUCUUUCUAACAUGAUUGAGUGAUUGAGUGUGAUCGAGGGAAUUUGUUACUGUUUGAGAGUGAAUGAGUCAGAGGGUAACAGUGAGUGAGUGAGUGGGAAAGCAAGCAGGUAAUCACAAGCAGGGAAGCGGAUGUCAGCAAGGGAAGAAAAAGCUAGGAAGGCAAGCGAAAGUGUAAU'
p222
aF0.8447368421052631
aa(lp223
S'Misfolded Aptamer 6'
p224
aS'AAAAAUGUCAAAAAGGAUCAGCAGGGACCUAAAAAAUGGUAGAGGAAAAAGGUCAAAAAAAGGCUAAAAAAAAAA'
p225
aF1.0
aa(lp226
S'Snowflake 3'
p227
aS'GCCGAAAAGGUAGACCUCAAAGGAGAAGAUCGGAUCAAGACAAAAGUUCUCAACAAAAGUGACAAAGUCACAAAAGUAGAGCACAAAAGUCAAGAUCAGACCAACUCUAAUAUACGCAAAAAAAACGUCAAAGAUACAAAAGUAGCGGAGAAAAGCCAAGGUCAGGGCAAGCGAAAACGCAUCAUGAAAACCCUUAAAGAGACAAAAGGAUAGGACAAAAUUCAGGUUCAGAUGAAGAGACAAUUACAGAGCAAAAGUGUUAAAGACACAAAGGUACUGGACAAAGGUCAACAUCAGAUAAAGGCAAAAGCCCUCAUCAAAAGGAGCAAAGUUCCAAAAGGCGAGUACAAAAGUGAAUAUCAGAUCAAGACAAAAGUCGCCAACAAAAGAGUC'
p228
aF0.8600508905852418
aa(lp229
S'Hard Y and a bit more'
p230
aS'AAAAACAUUUGUUGAUAUGAAAGUAUAUCUGGUUCGCUAGUAUGGAAAUAUAAGGCCACUAAAAUGUGGCAAGGAGAACUGGAUGGAAAAAAAAAAAAAAAAAAAA'
p231
aF0.9716981132075472
aa(lp232
S'Mat - Lot 2-2 B'
p233
aS'UAGUGUGGAUACUGACAAAAGAUGAAUUAGAGAAAAAAUUAUUCCUAUUUAAAAAUUAAUCCAGGCAAUGGGUCUGAACCAAAAUAGAUGGCGAGCAAAAUGGAAAUAGCGAGCAAAAUGAAGAGGGACAAUGGUCAAAGUAACCUGGGCAUGAGGUGCAAAUUUGACGCAGAGGUAAAAGUGCGGCAAAGCCAAAAUGAACCAGUACAUGAAAUAGCGUUGACAACCGAUGCUGAAAAAAAUCAAAACGGGGAGUAAAACAGAGGUACAGCGCAAGGAAAAGA'
p234
aF0.721830985915493
aa(lp235
S'Shapes and Energy'
p236
aS'AAAAAACGGGGUAUUGCCAAACAAAGAAGAGUAAUUGCUUCGAAGGCAGAGAGUGUUACGGCAGAAAUGCUCUGAUUCAGGAAAAAAAAAAAAAAAAAAAA'
p237
aF0.9801980198019802
aa(lp238
S"Spiral of 5's"
p239
aS'AGAAAGAUUCAAAGAUAGAAAGAUAGAAAAGAUACAAAGAUAGAAGGAUAGAAGCUACAAAAGAUAUAAAGAUAGAAAGGUACAAGAUACUAAGAUACAAAGAUGGAAGAUCGAAUGUUAGAAGAUACGAUAUACAAGAUACAAGAUACAGAUACAGAGAUAUAGCGAAAAGCUAUGGGGGAUCUCAAAAAGUAUCAAAAAGUAUCAAAAAGUAUCAAAAAGUAUGAAAAAGUAUCAAAAGCUAACUAAAAUUAUUAAAAACUAUCAAAAAGUAUCAAAAUGUAUCAAAAAGUAUCAAAAACUAUCAAAAAAUAUCAAAAAGUAGCAAAAACUAUCAAAAACUAUCAAAAAGUAUCAAAAACUAUCAAAAACUAUCAAAAAGAAUCAAAAAUAAAAA'
p240
aF0.9949622166246851
aa(lp241
S'Campfire'
p242
aS'AAAUGGUCGAAUACUAAUACAAGUCGAAAAAGUUUGACCACGACGCUUAGGUCAUGGAGUGUAACAGCCGAGGCAAAAGCACUCGCGUAUGACAGCAGCAUAAAAGGGGCGCGCCCCAAUGAAAGUACUAGGCAGGUACAGGUAACACAAGAGAGCAGUCAGCAAGAGCUAAUGCUUUGCGGCUACCUCCUAAAAGGAGGAGUAGAAUGGCC'
p243
aF0.8820754716981132
aa(lp244
S'Anemone'
p245
aS'AAAGGCUAUAAAAAUAGUCCUUGCGAAAGCGAGUCAGAAUAAUUUCUGAGGAUAAAAGUGUCCGUAGAGGAAACUCUGCGAUGAUAAUUCAUCGGUUCUAAUGAACCGGAGAGGAAACUUUCCAAUAUCGAAAGAUAUGUAUUGGAAACGGUACGGAUCUAAUGAUCCCGGUAGAAAGCUAUUGGCUACAAAGGUAGCGCUUACGAAAGUGGGC'
p246
aF1.0
aa(lp247
S'Fractal 3'
p248
aS'AAAAACAUUGGAGAGCAAAAUCGAAAAGCCGCUCAGCCAUCAAAAGGUCAAAGUCAGACAGACAGCAAAAACGCAAAAGCAGUCAGUGUGGAAAACCGCAAAAGCUUUGAGAUGAAAAA'
p249
aF0.9327731092436975
aa(lp250
S'Kyurem 5'
p251
aS'AAAAACCUAAUAUAAGAAAUUAGGGCAAAUAUUGGACAAAGACGAAAAGUUGCCCCCCGAAAAAAUCAACUGCCCGGGAAUAGGGAAAAAAAAAAAAAAAAAAA'
p252
aF0.9807692307692307
aa(lp253
S'Snowflake Necklace ( or v2.0 )'
p254
aS'GAUAUAUAGAUUUAUUGAUACAGCAAAAACCCAAGAAAAGUUACAAAAAGUAACAAAAAAUAGCAAAAAGUAAUAUAAGACAAAAGGUCAGUUCCAGUAAAAAAGAACGAAAAGUAGUAAAAAAGAUCAAAAAGAAAGGAAAACUAGGAACACUCAAAAAGAGAGAUGGAGCAAAAAACAACAAAAGCGACGAAAAAACAUCAAAAAGAAGAAAAAAGCAUCAUCGUGCAAAAAGCAAGAUCGAGCAAAAAGCAACAAAAAGUAGCAAAAAAUAUCAAAAAGAGGCAAAAGGCAUAAUCAGACAAAAAGUCAGAGACAACUAAAUGUAUCAAAUCGAAGCAAAAGGCAAGAAAAAAUAGUAAAAGGCAAUAUCUAUAGAUUUAUAUAUC'
p255
aF0.8457583547557841
aa(lp256
S'Methaqualone C16H14N2O Structural Representation'
p257
aS'AAAAAAAGAUCAGACCAGACACACAAAGGUGAGCCAUAUAAAAAUAAGUCAGAAAAAAUUCAGAGAAUCAAAAGAUAGGCGAAAAAAGCCGCUCAGGCAGGCAGUCGGAAAGAGAUCGGCAGAAAGAAGAAAAGGCAAAGCAAAAAAAAUUCAGGCAAUAAAAAUAUGAAGAAAACCGACGAAAGUCGCCCUCAAAGAUCAGAAACACUCACAGGGAUAAGCAGUUGAAACACAAAAGUGAAGCAGUCAAAAGGCGGCAAGGGUAAGCCCAAUCAGACAAGAGUCACUCACACUUCAAAAGAAGUCAAAACACAGACAAAGGUCGUGGGACAGAUCAAAUUGCAGGUCGAAAAAA'
p258
aF0.9492957746478873
aa(lp259
S"Cat's Toy 2"
p260
aS'AAAAGUUAUCUUCAAAGCAGGGAAAGAAAAAAAAAAAAAAUAGAGGAAGCAAAAGCAAAUAAAAAUAAAAAAAAACUAAAAAAGCGAGAUAACGAAA'
p261
aF0.979381443298969
aa(lp262
S'Zigzag Semicircle'
p263
aS'AAAUGCAGUAAAGAAAAAAAGUAUCGCUGCUAAA'
p264
aF0.9411764705882353
aa(lp265
S'Short String 4'
p266
aS'AAAAAACAACUGGUAGACAAAGAUGAUGAAAACGCAAACAAUCCUCGUGGAAAAUUGUGGAACUAAGAUAAAAGUGGAAAAAAAAAAAAAAAAAAAA'
p267
aF0.9381443298969072
aa(lp268
S'Gladius'
p269
aS'UUAAUAAAUGGAAUAAAUAAGUGAAGUAACGCAUUCUAUGCUCAAAGGAGCUGAAAGAACUGUCAAGACAUGAAGAGAACAAGAGAUAUAGCAGAGAUGAGAUUGAUAUCAGAUCAAGAUGAAACGUCAGAUACGAUAGAGAUCCAGUCUCGACUAUAUCAACAGUUCAAAGCAUGAACAGGCAUGAUUUUCAGACAAGGCCUGAAGCAGAAGCCGGAAUCUGUGAACAUUGUAUGAUAUACACCAAAUAGUAUGACUUGUGAGACCGGAUACAAAAGUAUCCUAGUCCAGUAGAGCAUAACAUUUGAGGUAUAUCUGAAGAUGACAUCAGCGCGAGGCCGAGGUUUCGGAGCUAAUGCUCAAUGGCAGCGAAUAAACGCAAGGAGCAGGGUAAUAAAAG'
p270
aF0.8875
aa(lp271
S'Thunderbolt'
p272
aS'UGAAGAUUCAAAAAAAAAGGAAAUCGUUGGCAGAAAAUAGGGAUUUCGAAGUGAAUGCGAAAAACACCAAAAAGGUGAAAAAAGCAAAGCCGGCAAAAAAAGGAUAAAAAAAACCAAGCGGUCAAAAUCAAAAGGGCUAUAAAGGUCAAAAAGUGUCUAAAAUCGAAUCCAAAGGGCAGUACGAAGAAAAAAAAUAUAGCAAAGCAACUCAAAAAAGCGAAGUACAAAAAAAUUAGCAGGGGCUAUACAAGGUAUAGAGAAAUCAGAAAAAAAAAGCGUGCAAAAAAAAAUUUAAAAAAAGGGUACAAAAUGAAAAAAAAUUAAAGGUACUUAAUGUGGAAGUGAUCCCAAAAAAAUCGGGAAGCAUAAAAAGAAAAAAACAGGAUCAAUAA'
p273
aF0.923469387755102
aa(lp274
S'Mutated chicken feet'
p275
aS'GAAAAAAGCAGCGGUGAAGACUCAAGCAAAAGUACGAGAGCAGCAAAGGACCAAAGCAAAAGUUAGGAGUAUUAAAAAAGCAAAGCAAAACACGAAAAAA'
p276
aF0.83
aa(lp277
S'Chicken Tracks'
p278
aS'AAAAAAAAUAGAUACGUAUGAAAAUACAGGAGCAAAGGCUCAAACUCAAAAGAGUGUAUCUAAAGUGUGCCGAAGGCAAGGGUCUAUGACCAAGCGCAAAGCGCCACGAAAAAAAA'
p279
aF1.0
aa(lp280
S'Looking Back Again'
p281
aS'CUCAGGAGGAUCAAAAAGGAGUUAAAGGUUCCGGAUCAUGAGAAGUAGAUGUUAUCCUGGAGUACAAAGUACGAAAGUACAAAGGUACUAAGUCUAUUAAAGAACGGUAAAAAGAUCCUAAUGUGUCGAAAAGGACCUAUGCAUACAAGGUAUCGCAGCUAUGCUGCGGGCGUGCAGGAAAAAGUAAAACUCUAUAGAAAUAUAUUGGAAUCUGCCGGCCGGAAAGACCAAACGCCCAAAUAUGGAAUCAGCGUGUUGUCAAAAAUGGGAGGACGGGGGGCAGUCUAAAUGACUAUAUAAACCAUGUCUGUUCAAAAAGAAGAAGGUAAAAACCUUCAAAACUGAAAUACCAUACAAAGUAUGAAAUUAUAAAAGAACCGCACAAAGAG'
p282
aF0.8123393316195373
aa(lp283
S'Multilooping 6'
p284
aS'AAGGUUUGGUUCCUCUAAUUGGGCCAACUGAAAACUAGAUACAGUCGACUAACGUCGCAUGGGGAAACUCAUUCGACACUGA'
p285
aF0.926829268292683
aa(lp286
S'Cesspool'
p287
aS'GGAGAGGCAGUCUAUAAGGUGUUCAGAAACUGAAAAAGGAUCAGAAGUUGAAAGUACGAUGUUAAUAUUGAGGGUUAAAGGAGGAAAAAGACGAAGAAAGCAGGACCUGGAAUAGGAAUUAAAUAACGUGUCAAUAAUAAAAGGUUAAUUCAAAAGUUUAGCGGGAAAGCACCGGCAAUGUUAAAAAAAAUAUAGCUUCAUGAUCAAGAGGAAAAAGGUGUUUACCAUGAAAGGUGAAUUGUAAUUUUAAGAGUUUAAUAUGUUUGCAAUUCGAAGUAAAAAAAGACUAAAGAGUCGAAGUUUACAAUGUGCCAAGUAGCAAACUUUAGGAUGUAAGUAUAGAGUUAAAAGAAUAGGA'
p288
aF0.6061452513966481
aa(lp289
S'Hoglafractal'
p290
aS'AAGGGCAAGAUAAAAAAUAUACAAAAAAGUAUGGUAUCGUGGAAAGCUUAAAAAGAGCCCCAUUCAAGACGAAAGUCGCGAAGAAAAGACUAAAGAUCAAAAAAGAUCAUUUCUUAAGGCAAAAAGUCGAGCCAGCAAAAGCGGAAGACAAAAGGCAAGAGAAAAAACUCGUCCCAGGGAAAACCGGGAAGAAAGUCGGAUACAAAAAGCAUCAAAAAAGAGCUUUAAAAAGAGGUAAAGGCAGGAUACAAAAAAGAGAAAAGGCUCCCAGAAAGGAAAUGAAUACAAGGUAUUCAAAAAAAAGUAUCCGAAAAGGUAUCAAAAAGUCUAAAAGUCAAAGCUACGAAAGACAUAGGGAAUGUAAAAGCACAAAGGUGAUAUCAAAGAUAUCACCUGGUAC'
p291
aF0.9075
aa(lp292
S'Bullseye'
p293
aS'AAAGACCAUCAAAGAUCAUGGUCAAAGACCUACACCAAAGGUGGUCGAAAAAAUGAGCGUAAAAUGUGAGGGUGGAAUAUCAAGAUCAAGGAUCUGCUAAAAAAAGAACGUUGAAGAUGAAGAUCUACUAUCAAGAUUAAACAUCUCCGAAAAAAAGAGGAUCGAAGAUCAAGCUCAAAGGGCAAGAUCAAAGAUCCUCGAA'
p294
aF0.8415841584158416
aa(lp295
S'Shooting Star'
p296
aS'AGGUAUUGUCCGGAUAAAAAGAAUAUCGUAAUGUCAGCAAAAGACGGACUAGAGAUGUCCAAUUAUCCGACAGCCAUUACUAUCUAACAGACGCAGGUAGAUCAGUGAAAAACGGUACUCCGAGGUACAUUAGAUGUUAUGCGAGAACAGCCUGAUUGCAUACAAAGUAUGAUAGACAAAGUCUACAGGAAACGAAGAAGAAAUAAGACGAGCUGAAAGGGAUACAAGGUAUCCCAGGUUCGAAGAACCCAGCGAGGUGGAAACCACCUCAGUUGCGAAGCAGCCGUCAUAGAAGUAAUAUAUUCGGUUUAGGUACAGAACAACAAAAGACGAUAGGUGAUAAAUUCACUGGUUAUAAUAUCUA'
p297
aF0.8104395604395604
aa(lp298
S'Teslagon'
p299
aS'AAAAAAGGGAAAGAAGCGGGAAAAAAACAAACGAAAAAAGAAAAAAAGUAUAGAGAAUCCAGAAAAAAAAAAAAAUGAUGAAAACAAUCACCAAAAAAAACGAAAAAAAAAAAAAAGUAAAAGAGCGAACAAAAAAGGCAAAGAAAAAAGAAAAAAAUUUCAGAGUAGGUGGAAAAAAAAAAAAAGCAACAAAAGAAUCAGCAAAAAAAGGGAAAAAAAAAAAAAAUCAAAAAAGGUGCGAAAAAAAGCACCGAAAAAAGAAAAAAAGGAGGGAGUAAGCGGAAAAAAAAAAAAAGUGGCAAAAGAAUGAGGAAAAAAUGUAAAAAAAAAAAAGUGAAAAAAAAAAAAAAACGACUAAAGAACCAGUAAAAAAACUGAAAAA'
p300
aF0.8795811518324608
aa.