(lp0
(lp1
S'Simple Hairpin'
p2
aS'ACAUCAAAAAAGAUGU'
p3
aF1.0
aa(lp4
S'Arabidopsis Thaliana 6 RNA - Difficulty Level 0'
p5
aS'ACAUAUCAAAAGACAAAAAAAAAAAGUCCAGAUAUCAGGAGAUAUAGACACACAGACAAAGAUACAAAAAGGUAUCAGUCUGUAGUGUCUAUAUUUCAGGAUAUCUGAAGAUAUGU'
p6
aF1.0
aa(lp7
S'Prion Pseudoknot - Difficulty Level 0'
p8
aS'GAUAUCAGAUCAAAAGAUCGAUAAUCAAAAAAAAAA'
p9
aF1.0
aa(lp10
S'Human Integrated Adenovirus - Difficulty Level 0'
p11
aS'ACGAGAAGGUUCACUUUUAUGGAAAAAAAAAAGUUCCAUAACUAAGUGGGGUGUGCCAAAAUGGAUAGCGUGACGAAAAAAAGUCACGCUGUAAAACCGGGUACCAAACAGUAGAAAAUUAUGAAAGAACUGGAAAAAACAGUUCGAGCGAAAAAAAAAAACGUAAGUGUGAAAAACUCAUCAAAUUGUAAA'
p12
aF0.96875
aa(lp13
S'The Gammaretrovirus Signal - Difficulty Level 0'
p14
aS'AAGAGGAGAUAUCAAAAGAUAUCGACGCAAAAAAGAUCAAGACAGAUCCGGGCAAAAGCCCGAAAAGAUCGUCGAUCAUGAUAUAUCAAAAGAUAUAUCUA'
p15
aF1.0
aa(lp16
S'Saccharomyces Cerevisiae - Difficulty Level 0'
p17
aS'GAUACAACAUCGAAAAAAAGAUGGAGAAAAAAAAAAAAAAGCUAAAAGAUAAAAAAAAAUUAUCGUGUAUCAAAAGAUCUACAACUUCGAAAAAAAGAGGGACGAAAAAAAAAAAAGUCAAAGGAUACAAAAAAGGUAUCGUAGAUCAAAAGUCAUACAAGCAAGAAAAAAAUUGCGAGGGCGAAUAAAGCUUUCAAAGGAUACUAAAAAUGUAUCGUAUGACGAAAGUUUUCGAAUGCAAAAAAAAGUGCAGAUAUCAAAAAAAGAUAUCCAAUGGUACAAAAAAAGUGCCCGAAAACGAAAGAUUCAGAAGAUCGAAAAAAAGAUCGACUUGGAAAAAACAGGUCAAAAGAUACAAAAAAAGUAUCCUGGAUCAAAA'
p18
aF0.9894459102902374
aa(lp19
S'Fractal 2'
p20
aS'AAAAAGGAAUUCGUAAGAUAUUUGGAAAGAUGUAAAAAAAAUUAUCAAUGUCAAAAAAAAAGGACAAAGAUCUAAAAAAAAUGAUCAAUCCAAAUAUCAAAGAUAUAUAUUAACAUCAAAAAAAAAAGAUGAGCCUCAAAAAAAAAAGAGGAACACCUAAAAAAAAUGGUGAAGAUAUAUAUCGAAGAAAUGUAGAAAGAUCAAAAAAAAAAGAUCAGUACCAAAAAAAAAAGGUAAACGCCGAAAAAAAAAGGCGAAUCUAUAUUUCAAUCGAAUUCCAAAAA'
p21
aF1.0
aa(lp22
S'G-C Placement'
p23
aS'UACCAAGGGUAG'
p24
aF1.0
aa(lp25
S'The Sun'
p26
aS'GAAAGAAAGAGAAACUCCAAUUCUUCAAAUUCAGGGAUACAUAGUAUAAAUCGAGAAAGACAGAAGUAAAAACGAUAAUUAGUAGAUGACAGAAACUCAAAGGGUAAUUAGUCUAAAAUAGGCAUUCAAAGAAUAAGCCAUUGAAGAAAAAUAUAAAAAUUAUAAAUCGUCGAAGAGAGUGAAUCUAUGAUUAACCCUUCAAAUUCCGUUAUUCAAAGAGUAAAGCGGGGAAGCGAGAUAAGCAAGCGGUAAAACAAC'
p27
aF0.9031007751937985
aa(lp28
S'Frog Foot'
p29
aS'AAAAAAAAAAGAUCGAAAGAUCCAUGAAAGCAUGGCGCAAAGCGC'
p30
aF1.0
aa(lp31
S'InfoRNA test 16'
p32
aS'ACAUAUCGAUUUACCAAAGGGUAACAUACAAUAUGU'
p33
aF1.0
aa(lp34
S'Mat - Martian 2'
p35
aS'GACCAAAAGGUCAAAGCUAUACAAGAUAUACAAAAAAAGUAUAUCGUAUAGCAAAGAUAUAUGAAAAAAGAUAUACAGAUAUACAAAAAAAGUAUAUCGUAUAUCAAAGAUAUAUAGACACAAAAAAAAUGUGUCUAAUAUAUCAAAAAACAUAUAUCAAAGAUAUAAAGACACAAAAAAAAUGUGUCUAAUUAUAUCAAAGAUCAAAAGAUC'
p36
aF1.0
aa(lp37
S'square'
p38
aS'ACAUAUCCGGGACGAUAUACGAUAUCAAAGAUAUCAAAAGUAUAUCAAAAGUCCCGAAAAGAUAUGU'
p39
aF1.0
aa(lp40
S'Six legd turtle 2'
p41
aS'AAAAACGUAAGCGAAACAAAAACAAAAGUAAAACAAAGAGAAAGCGAAAGUGAAUUAAAAGAGAAAGUAAUUUAAUCGAAAAAAAAAAAAAAAAAAAA'
p42
aF0.9591836734693877
aa(lp43
S'Small and Easy 6'
p44
aS'GGCGCAAAAGGUAAAGUAAAAAAAUCUCCC'
p45
aF0.8666666666666667
aa(lp46
S'Fractile'
p47
aS'AAAAAAAAAAAAACUAAUGCAAGGCGAAACAAAAUUAUGCAAGUCAAAAGGAAAGCUUUUUAAUAAUAAGCAGGAAAAAGCAAAAAAAAAAAAAAAAAAAAAAAA'
p48
aF0.9619047619047619
aa(lp49
S'Six legd Turtle'
p50
aS'AAAAAGUUAAAGGAAAAGCAAAAGUAAAAGUGAAACUUAAUGGGAAAUGUAAUCAAAAUAUUAAUGCUAAGUGUAAUCAAAAUAAAAAAAAAAAAAAAAAAAAAA'
p51
aF0.9428571428571428
aa(lp52
S'snoRNA SNORD64'
p53
aS'ACAUACAAAAAGACAAAAGACAAAGAUACAAAAAAAAAAAAAGUAUCAAAAGUCAAGUCAAGUAUGU'
p54
aF1.0
aa(lp55
S'Chalk Outline'
p56
aS'AAAAAGAUCAGAUACAAAAGUAAUCAGACAGACAAAAGUCGUCAGAUACCAAAAGGAUAUCAGGGACAAAAGUCACCGAUCAAAAAAAAAAAAAAAAAAAAAAA'
p57
aF1.0
aa(lp58
S'InfoRNA bulge test 9'
p59
aS'ACAUAUCAGAGAGAGAUAUACAAAAGUAUAUCCCCGAUAUGU'
p60
aF1.0
aa(lp61
S'Tilted Russian Cross'
p62
aS'AAAAGAGUGCUUCGAAAGAGGGAGCAGAUCUAAUGAUCGACACAAAAGUGUCAUCUCUAAUGAGAGCUCGGGUGAAAACCCCACUAAAAAAAAAAAAAAAAAAAA'
p63
aF1.0
aa(lp64
S'This is ACTUALLY Small And Easy 6'
p65
aS'AAAGAGAGAGAGAGAGAGAGAGAGAGAGAGAGAGAGAGAGAGAGAGAGAGAGAGAGAGAGAGAGAGAGAGAGAGAGAGAGAGAGAGAGAGAGAGAGAGAGAGAGAGAGAGAGAGAGAGAGAGAGAGAGAGAGAGAGAGAGAGAGAGAGAGAGAGAGAGAGAGAGAGAGAGAGAGAGAGAGAGAGAGAGAGAGAGAGAGAGAGAGAGAGAGAGAGAGAGAGAGAGAGAGAGAGAGAGAGAGAGAGAGAGAGAGAGAGAGAGAGAGAGAGAGAGAGAGAGAGAGAGAGAGAGAGAGAGAGAGAGAGAGAGAGAGAGAGAGAGAGAGAGAGAGAGAGAGAGAGAGAGAGAGAGAGAGAGAGAGAGAGAGAGAGAGAGAGAGAGAGAGAGAGAGAGAGAGAGAG'
p66
aF1.0
aa(lp67
S'Shortie 4'
p68
aS'CGGAAACGAGGGAAACU'
p69
aF1.0
aa(lp70
S'Shape Test'
p71
aS'AAAAAGGUAUCAAGAUACAAAAAAAAGUAUCAAGACAGACAGAUACUAAAUGUAUCGGAUGAAAACAUCAGUCGUCAAGAUAACAAAAAAAAAAAAAAAAAAAA'
p72
aF1.0
aa(lp73
S'The Minitsry'
p74
aS'AGCAAAAAGUCAAAAAGACAAAAAGAGAAAAAGAUAAAAAAAAAUCACUCGGUCAGACGGCU'
p75
aF1.0
aa(lp76
S'stickshift'
p77
aS'AAGAUAUCCCAAAAAGGAGAUAUCAA'
p78
aF1.0
aa(lp79
S'U'
p80
aS'AAAAAGAUACAGAGAGCAGAGAUAUAUACAAAAGUAUAUAUCCGCCCGUAUCAAAAA'
p81
aF1.0
aa(lp82
S'Still Life (Sunflower In A Vase)'
p83
aS'AAAGAUCAAUAAGCAAAAAGCUUGAACUGGCGAGGCCGGAAGAUGAAAAAAUCAUCAUGUGACAAAGUACCUAGAGAUAAAAAGUCUCGUGAUACAAAAAGUGUCUGAUAUGUAGACACACAGACAGACGAUAUAAAAAAGUAUCAGAUAGAAAAAAAAAAAAAGAUUUCCCCCCCCCCCCCCCCCCCCCCCCCCCCCCCCCCCCAAAUGAUCGAAAAAAAAAAAGCUAUCGAAGCAAAAGUUUCAGUCUGUUUGUGUGUCUAUGUAUCUAGGCACAAAAAGUGCCAAUGUUCAAAAGGGGAGGAUGUACAAAAAGUACGAAUGGAUGAAAAGUUGGAUGAUACUAAAGGAUUAAGAAUCAAAAAGGUUCAGAUCAAA'
p84
aF0.9735449735449735
aa(lp85
S'Quasispecies 2-2 Loop Challenge'
p86
aS'AAAAAGUUGGAUGGGGAUCAAAAGAUCAACAUCGGAUCGACUAUGGAGAUCAACACGGGGAUGCAAAAAGCAGACAAGUGUCAACAAAAAAAAAAAAAAAAAAAA'
p87
aF1.0
aa(lp88
S'Corner bulge training'
p89
aS'AGAUAUCCAGACAAAGUCUGAAAAGAUAUCA'
p90
aF1.0
aa(lp91
S'Spiral'
p92
aS'AAAAAGAUCAGAUAUCAGACAGAUACAGAUCAGAUCAGCAGCAGCAGCAGCAGCAAAAAGCGCGCGCGCGCGAUCGAUCGUAUCGUCGAUAUCGAUCAAAAA'
p93
aF1.0
aa(lp94
S'InfoRNA bulge test'
p95
aS'AAAAAAAAAAAAAAAAAAAAAAAAAAAAAGAGCAAAAAAGAGCAAAGGAGCAAAGAGCGGGAGCAGAGCAAAAAGCAUCAGCAUCAAGCAUCAAAGCAUCAAAAAGCAUCAAAAAAGCAUCA'
p96
aF1.0
aa(lp97
S'Worm 1'
p98
aS'AAAAAAAGGGUCGGAGGCGAGGUUAAAAGUCCAUGACCCAAACGU'
p99
aF0.9111111111111111
aa(lp100
S'just down to 1 bulge'
p101
aS'AAAAAGAGCACAGACAAAAGUCUGAGACAAAAGUCAGCAUCAAAAGAUCACACAAAAGUGAGACAAAAGUCAGAUCAAAAAAAAAAAAAAAAAAAA'
p102
aF1.0
aa(lp103
S'Iron Cross'
p104
aS'UGGCAGAUAAAGAAAGGCGAUCCCAAAUAAAAGGUAUUCAAAUUCUUGCGAAAGCAACGGUAUUCAUGGGAAGGUCGAAUAAAAAUUAUACAAAGAAAGAAAAAAUCAGGUAAAGCCAGCCUA'
p105
aF0.9349593495934959
aa(lp106
S'loops and stems'
p107
aS'AAAAAGAUAUACAAAGAUCAAAGAUCAAAGAUCAAAAAAAAAGAUACAAAAAAAAAAAAGUAUCAAAGAUCAAAAGAGCAAAAAAAAAAGCUCAAAGAUCAAAGACAAAAAAAAGUCAAAGAUCAAGCAAAAAAGCAAAGUAUAUCAAAAA'
p108
aF1.0
aa(lp109
S'Water Strider'
p110
aS'AAAAAGUUGGGGGCCCCAGUGGAAAUGCAAAAAAAUUUGGCGGGGGGACCUGAAAACGGAACUAAUAAUCGUAGCAACUUACAAAAAAAAAAAAAAAAAAAAA'
p111
aF0.941747572815534
aa(lp112
S'The Turtle(s) Move(s)'
p113
aS'AAACCGAAAGGAAAGCAUAUAUACGAAAAAAAAGUGUAUAUGAAAGCAGCAAAAAGCUGAGAGCCACAAAAGUGUAAGAUACAAAAAAAGUGUCAAAAAGAAAAAUAAAAAUACACCUGCUAAUGCGAAAAGAUUACGAAAAAAGUGAUCAAAAGACGAAAGUCAAAAAGGUACGAAAGGACAAAAAAAGUCAAGACCAAAAAAAGUCAAAGAUACAAAAAAGUAUCAAAGUUCAAAAAGAGCAACGUACCAAAAAAAAGGCGAAAGCAAAGACCAAAAAGGAAAUGUCAGAAAAAAAAAAGUUUGUAAAAAUUUG'
p114
aF0.9936708860759493
aa(lp115
S'Adenine'
p116
aS'ACAUCAGAUGGCAGAUAUCAGAUUACGGAUAAAAGAUUUCAAAAGAUAUCAAAAAGGAUAUCAGAGAUCAGAUACAAAGAUAUUGUAUCGAUAUCGUAUCGUUUAUUAGUUCUAACGACCGAAGGUCGUUAAAAGAACAGUGAUCAAAAGAUAUCAAAAGUCAUCAAAGGAUGU'
p117
aF1.0
aa(lp118
S'Tripod5'
p119
aS'AACAUCGGUCAAAAGGACCCUUCGAAAAGAGGGAUGGA'
p120
aF1.0
aa(lp121
S'Shortie 6'
p122
aS'GUAAAGGGUGGAAAAGUUAGUAAUACUGAAAAAUC'
p123
aF0.8857142857142857
aa(lp124
S'Runner'
p125
aS'AAAAAGGUCAGAUCAAAAAGGUCAAAGACCAGAUCGAGGACAAGACACCAAGGGUAAAGUCGGCCGCAAAGCGAAUGCCAGUCAAAGGCAAGGACAAAAGUCAGCCAGACCAAAAA'
p126
aF1.0
aa(lp127
S'Recoil'
p128
aS'AAAAAGAUACAAGCAAGCAAGACAAGACAAGCAAGCAAAGCAGCAGUCAGUCAGCAGCAGUAUCAAAAAAAAAAAAAAAAAAAAA'
p129
aF1.0
aa(lp130
S'[CloudBeta] An Arm and a Leg 1.0'
p131
aS'AAAAAGACAGGAACAAAAGUAUCCGACAGCAAAAGCGUCAGUCAAAAAAAAAAAAAAAAAAAA'
p132
aF1.0
aa(lp133
S'[CloudBeta] 5 Adjacent Stack Multi-Branch Loop'
p134
aS'GUCCCCAACGAAAGUUGCCUGGGAAACCAGGGCUGCGAAAGCGGUGUGCUAAUGUACGGGACA'
p135
aF1.0
aa(lp136
S'Triple Y'
p137
aS'AAAAAGCGUCUGGAUUGUAAUCAGUUGUUUAAUGAUAUCAGCUAAGAGCGAAAGCUCGAGUAAAGGAGACUGAUUGUAAAAAAAAAAAAAAAAAAAA'
p138
aF0.865979381443299
aa(lp139
S'Misfolded Aptamer'
p140
aS'AUAUAAAAAAGCAGCGAAAAAUUUGAAAAAGAGGGGGAAGGGAAAAGUAU'
p141
aF0.96
aa(lp142
S'Flower power'
p143
aS'AAAAAGAUGGAUCAAAGAUCAGCGUGAUGAAACAUCAAGAUAAAAUAUCAGUCUCAAAGAGAGCGCAGCCCAAAGGGCCAUCAAAAAAAAAAAAAAAAAAAA'
p144
aF1.0
aa(lp145
S'Kudzu'
p146
aS'AAAAUUAAUGAUCAUGUGCACGGCACCUAAGGGUACGGCCAUAAUUAUGUAUAUCAAGACGAAGUCAAAACGGAUGCUUUGUAAAAAAAAAAAAAAAAAAA'
p147
aF0.9801980198019802
aa(lp148
S'"1,2,3and4bulges"'
p149
aS'AAAAAGAACUGAUCGAAAACGCAAAAUAUGUGAAAGUGCUGCUUCAAAAGGCUGCGGAAACCAACUGAGAAAAAAUUCGAGAACGAAAAAAAAAAAAAAAAAAAA'
p150
aF0.9238095238095239
aa(lp151
S'medallion'
p152
aS'AGCUGCGGAAACCCAAUGUCAUCAGUCGAAAGUAGGUCAAAGGCAAGAUGCCAAAAGGCGUUACACGAAAGUGAAAUAACUAAUGUUAUUACAUAAAAGUCAGACAAAAGUCGCAGAUUAAAGGAUCUGAACGAAAAUGCAGAUUCUAAAAGGUAUCAUACAAAGGGCACAUAAAAAUGAGAAAUGAAAAGAUCUCAGACAAAGGUCAGUUAUGUAAUCAUAGCAUUCAAAAAUCAAACAAAAGGCAAAUAGCUAAUGCUAUUAGCCAAAGGGCAGAGAUCGAAUGAUUUCAGACAAAAGUCGGCCAAAAGUUUGACAGCAAAAGCUGUCAGUAGCU'
p153
aF0.8931750741839762
aa(lp154
S'[RNA] Repetitious Sequences 8/10'
p155
aS'AGCAAAAAAGCAAAAAAGCAAAAAAGCAAAAAAGAAAAAAAUCAAAAAAGAAAAAAAUCAAAAAAGCAAAAAAGCAAAAA'
p156
aF1.0
aa(lp157
S'Documenting repetitious behavior'
p158
aS'AAAAAAAGCAAAAAAAAAGCAAAAAAAAAAAAAAAAAAAAGCAAAAAAAAAGCAAAAAAAAUGGAAAAAAAAAUCAAAAAAAAAGUAAAAAAAAAGCAAAAAAAAAGCAAAAAAAAAGCUAAAAAAAAGAAAAAAAAAAGCUAAAAAAAAGGAAAAAAAAACCAAAAAAAAAGCAAAAAAAAAGUUAAAAAAAAGGAAAAAAAAGCCAAAAAAAAUACAAAAAAAAAGCGAAAAAAAAGCAAAAAAAAAUCAAAAAAAAUGCAAAAAAAAGUCAAAAAAAAUGGAAAAAAAAAGCAAAAAAAAAGCAAAAAAAAAACAAAAAAAAAGAAAAAAAAAAACUAAAAAAAGGCAAAAAAAAAUCAAAAAAAAAGUAAAAAAAACGAAAAAAAAAAGCAAAAAA'
p159
aF0.96
aa(lp160
S'7 multiloop'
p161
aS'GGCCCUCCCUAAUGGGAGACACCGAAAGGUGUCAAACGAAAGUUUGGGCGCUAAUGCGCCGGUGCUUAUGCACCGGAAUGAAAAUUCCGGCC'
p162
aF1.0
aa(lp163
S'Kyurem 7'
p164
aS'AAAAAACUGACAGCCAAAAGUAAUCCAAAUGUAUUGUAAAGGGGGCCGCCUCAAAAAGGGACCAGUAUAUGUACAGUACAUUGAAAAAAAAAAAAAAAAAAA'
p165
aF0.9215686274509803
aa(lp166
S'JF1'
p167
aS'ACAAAAGAGAAAGAGCUUUGAUACAAAAGAUAUCAAGAUACAAAGAGACAAGAUAUGAACAUAUACAUGCACAAAAGUGCAUGUAUGUGUAAUCCAAAAGGAAGAUAUAUUCAAAAGGAUAUAUCAAGAUACAAAAGUAUCACAUAUCAGUCUCAGUAUCAGAUAUCAAAGAUAUAUCUAAAUGAUAAUAUCAAAAUCCAUAGACACAUAGACAUAUAAAAAUAUAUGUCUGUGUGAUCUAUGGAUUAAAGUUACAAAAAAGUAACGGUAUAUAGAGAAAUCUAUAUGCCAAUGAUCAAAAGAUCUAGUAUCCUGGUUCGUAUCAGACAGACAAAAGUCGUCGAUAAGAUAGAUGCAAAAGCAUUAUGUCAUUCUACUUCUUGUAAA'
p168
aF1.0
aa(lp169
S'multilooping fun'
p170
aS'ACAGGACAGGAAACGGGAAACAGGACGGGAAACAGG'
p171
aF0.8888888888888888
aa(lp172
S'Multiloop...'
p173
aS'AUUCAGAGGUUAGGAAAUUGUGUUAAAGGGAUGCUAAAAGUCUGACUAAAGUCUCAGGAAAUUGAGAGCAAAGCACGUCCAGAUACAAAAAGGUAUCGCCAAAAGGAGGGU'
p174
aF0.9459459459459459
aa(lp175
S'hard Y'
p176
aS'AAAAGGCUAUAGCAGAGAGGGAAACCUCUCUUGAACAAAUUCUGAUAAUUCAGAAUUUGCAGCAAAAA'
p177
aF0.9705882352941176
aa(lp178
S'Mat - Elements & Sections'
p179
aS'AAAAAUUUUACAAAGCGAUAGGAGCAGCACGAAUCGCUUGACUGAUGGCUACAGAUUCAUAUGGGAAACACAUAACGCGGAAGGGCAAAAAAAAAAAAAAAAAAA'
p180
aF0.9619047619047619
aa(lp181
S'Chicken feet'
p182
aS'AAAAAUCAACUUCUAUGUUAGAAAACAAAGGGGAGUAGAAACAAAGCAAGUAUCCGAAUCAGAAAAA'
p183
aF0.8805970149253731
aa(lp184
S'Bug 18'
p185
aS'UGGCUUUUGCUCAUAAGAAUAGCAAAGCAAGUAUCUGUGGAAGGGGGAAGUCU'
p186
aF0.9622641509433962
aa(lp187
S'Fractal star x5'
p188
aS'AAAAGGAUGUAUGAAAAACAAAAGUUUAUUCUUGAAAAAGAUUGAUCAAAAGAUCUAGAUAAAAGUAUCAACAUACAUCAAAAUGGUCUGUGGAAAACAAAAGUUUAGUAUCAAAAGAUAAGGAUCAAAAGGUCAAGCGAAAAAUUGCAACAUAGACCUAAAAGGUAUGUAGUACGGAAAACUGUUAUACCAAAAGGUAAAGAUUAAAAAAUCGACGUUAAAAAACGAAUAUAUACUAAAAUGGUAUUUGGCAUACGAAAGUAUAAGAGUAAAAACUCGAGAUCAAAAGAUCAUAUCAGAAAUGGUUACAGAUAUCUAAAGCACCGUAUAAAGGAAAAAUCCUAUUCUCAAAGGAGAUAAAUUGAAAGGUUAAGUUCGAAAGAACGAGUGCGGUGAAAAA'
p189
aF1.0
aa(lp190
S'Crop circle 2'
p191
aS'ACUAAGGGAAAGAAAAAAGCAAAAAAAAAUCGGAAAAAAAAAAAAAAAAAAAAAAAAAAAAGGAAAAAAAAAAAAAAAGGAAAAAAAAAGAAAAAAAACGGAAUAUAAAA'
p192
aF0.9636363636363636
aa(lp193
S'Branching Loop'
p194
aS'GAACUAGAAAAAAAACUGUAAAGACGGCAGGGUAAAAAAA'
p195
aF0.95
aa(lp196
S'Bug 38'
p197
aS'AGUACCGACAAGUUCAAAGUCCGCUAAGAAAAAAUA'
p198
aF0.9444444444444444
aa(lp199
S'Simple Single Bond'
p200
aS'AAAAAAGAAAAAAAAUGGCCUAAAUGGCUUAAAAAAAGCAAAAAAAAAAAAAAAAAAAAAA'
p201
aF1.0
aa(lp202
S'Taraxacum officinale'
p203
aS'GCACUAAUGAUGCAUAGAAAAAUACUAGAUUUAAAAGAGAAGGACCAAAAGAGUCAAUAGGAAAGAAACAGGUAAAAGUAAUAGGAUAUAUAGACGAUAUAUAGACAAGGUCUAAUAUAUCAGAUACAACAGACUUCCAAAGAUAUACAAAGUAUAUCGUGGAAGUCUGGAUCAGAUACGAAAUGUAUCGAUCGUAUCGAAGUCUAUAUAUCUGAUAAAAAUAAUCUGCGGUAAUCAUGCGAACCUAACGAGUGAGCCCUAAUGAAGCAUAUCAAAAGAACA'
p204
aF0.8581560283687943
aa(lp205
S'Headless Bug on Windshield'
p206
aS'AGUAGGAAAAGGGGACAAAGCAUAGGAAAAAAAAAAAAAAAAAAAAAAAACUGGGCAAGGUCACCAAACCGACACCCAAGACAAGCAAAAAAGGCAAAAGCAAAAAAAGCGUCAAAAAGGGGAGCCUCAAAAAAAGACAAGAGGGAGGGGCAGGGCAAAAAAAAAAAAAACCCAAGUAAUUCAAUCAGUCAAGGCAGGCA'
p207
aF0.99
aa(lp208
S'Pokeball'
p209
aS'AAAGGCUAUUAAAAGCGAGAACGUCAAGAGAGCAAUAAAGAGAGGAAGGGAACCGCCGAUCAAGAGCUAUCAGACUUCAGCAGAAGUCAAAAAAAGGAUUAAGAAGCUCAAAACAGUCAAGAGGGCAAGAAAGAGGGCAAGGCAUCCAGCAAUCGUCAGCAAUCAGACCUUAGGGGUAUCUAAA'
p210
aF0.967391304347826
aa(lp211
S'Variation of a crop circle'
p212
aS'AAAAGAAAAAACAAAUCGAAAGUAAAGGAGGCAAAGCAGUCAAAGGGAAAAAGGAUAAAAAAGUGAAAAAAAAUCAAAAAAAAAAAAA'
p213
aF0.9545454545454546
aa(lp214
S'Loop next to a Multiloop'
p215
aS'AGGAUAUCUGAAAAAAUUCUAUCUCAAAAGAGAUACGAUGUACAAAGGUAUAUCAGUAAAAAGCAGAUAUCAA'
p216
aF0.9726027397260274
aa(lp217
S'Snowflake 4'
p218
aS'AGGCCAAGCCUUCUUACCAAAACCCAGACAAAAUACGCGAAAGGGAUAAGAACAAAGUUCAAGAUCAAAGAUCUUAUCCCAAAGGGGUAUUGAGAUACUCAAAACAACAGCCGGCAAAGCCGAAGAUCAAAGGUCGUUGUCCGAAAGAGUAUCAAGAUAUGUUAAUGCACAGGCGGCAAAGCCGAAUAACAAAGUUAUUUGUGGCAAAGGGUAUCGAGAUAGGCAAAAGCACAGCCGGCGAAGCCGAAGAUCAAAGGUCGCUGUGCGAAAGCCUAUCAAGAGUCGCAAAAGUGAUACGAUAGAAGAUCAAGAUGGAACAUCGUAUCGUGAAAACGACUCAAGUUUGGAAAAGGCUAGGAUGUCGAAGACG'
p219
aF0.8972972972972973
aa(lp220
S'Mat - Cuboid'
p221
aS'GAUGGAAAAGGAAGUAAAAGGGACUAAAAAAAUUAAGUAAAAUUAAUGAGGGAAAAUAAGUAGGGAAGUAAAAUGAAGGAAGGAAGCAAAAGGAAGGAGGGAAGCAAGCAAAAACGGACGGUCGGGGAGGCAAAAGCGGGAGGGCUGGCGAGGAAGGAAAAGCGGUCUUAAGUGGGGGAGGUCAAAAGAGGGUAGACGGCCGGGUGAGGGAAAAACUGAACAAGGAAGUAGGCAAUCGGAAUCAAUUUAAUUUGAAAGCCAAGGCGACCAUACAAGCAAGCUCAAUCAAGCAAGCAAGUGUAACCGUCCAACCAACAGCGGCCGACCGACAACGACCAAGCGAGCGAACGGAGCAUGAAUGAUAGGACCACGACCCCUGC'
p222
aF0.8710526315789474
aa(lp223
S'Misfolded Aptamer 6'
p224
aS'AAAAAAGACAAAAAAGAUCAACAGGAUACAAAAAAAAGUAGGAGGGAAAAGAUCAAAAAAAGUCAAAAAAAAAAA'
p225
aF1.0
aa(lp226
S'Snowflake 3'
p227
aS'AGCCGAAAAUGAGACGGCAAAAGCCAAGAUCACAUCUAAAUAAAAAUUGCCACCGAAAUCGACAAAGUCAUUAAUGAAGGCGACAAAAGUCAUGAUGAGUUUAAGAUAAAAGUAGAUACCAAAGGGGGCAAAGUCGGAAAAUCAGUCUACAAAAGUAAAGAACAGAUCUAACCAAAAGGUGAGACUAAAAAGGCCAAAGGUCCAAAGGGACUCAACAAAAGUCAUGAUCAGUGUGAAACAAAAGUUGGUGACAAAAGUGCGAAACGCACUAAUGGAGCCCACGAAAGUAAAGCGCAGUUCAAGUAAAAAAUUUACACCGAAAGGUACAAAGUAUCAAAGGGAGUGUAGAAAAGUCAAGAACAGAUCAAAACAAAAGUCGUCACCAAAAGGGCU'
p228
aF0.821882951653944
aa(lp229
S'Hard Y and a bit more'
p230
aS'AAAAAGAUACUGCGGGACGAAAGUACUUGACAUUCUCGAAGGGCAAAGGUCCGAGAUACAAAAAAGUAUCGACGUGAAUGGUGUCGAAAAAAAAAAAAAAAAAAAA'
p231
aF0.9716981132075472
aa(lp232
S'Mat - Lot 2-2 B'
p233
aS'GAGGUCUAGAGAGUGCAAAAUCGAGAAAUAAUUUAAAAUCGAGGGCUAGCAAAAUCGUGAUGAGGUAAGCGGGCGCAGGCAAAAGCGGGAGCGGGCAAAAGCAAAGGCGCAAGCAAAAUCAAGUGUAGGCCCGGGAAAUAAAAAUGGCGAGAGCGGGGAAAAGGGAGAGCAAAAGCAAAAUCAAGCUCAAACAAAAUCGAGCUCAAGGAAUCAAGAUCGAUCAAAAGCGGGAACGGGCAAAAGCAAAAUCGCAAGUAAAAUCAAGCGCGACAACAAUGAACAGC'
p234
aF0.8274647887323944
aa(lp235
S'Shapes and Energy'
p236
aS'AAAAAACGUACAACGACAAAACGAACAAGACGAAAGUUUUAGAAGGGCGGAGAGGGGGGGUUCAAAUGGCCAUGUGUGCGAAAAAAAAAAAAAAAAAAAAA'
p237
aF0.9603960396039604
aa(lp238
S"Spiral of 5's"
p239
aS'GUAAAGAUACUAUGCUACAAAUAUACAAAAGAUACUAAGGUACGAAAAUACAAGGUAUGAAAGUUACAAAAAUACAAAGAUAUAAGCCACAAUAAUACAAAGAUACAAGGUUCAAAGAGAGAGGAUACACUAUCUAUGCUACUUGAUACAGGGGUAGGUGCAUAGAAAAAAUCUAUAAGCGGUACCUAAAGGCUCUAAAAGGUAUCUAAAUGUAGCUAAAAAGAUGAAAAAGUAUCAAAAACUUUCGAAAAGAAUCAAAAAGUAUCAAAAAGUAUUUAAAAGUGGCAAAAAGUAUCGAAAGGGACAAAAAAUUAGCAAAAAAUACCAAAAAGUAUUAAAAAGUACCAAAAUGUAUUGAAAAGUAUGGAAAAGUAGCUAAAUGUAUCAAAAUCAAAAA'
p240
aF0.9949622166246851
aa(lp241
S'Campfire'
p242
aS'AAAAAAUCGAAAUACAAUAAUAAAACCAAAAAGGUUACUGACAAGGUCAGGUGUAGGAUAUGACAAGUAGAUAAUAAUUUAAUCGCCGGAUACUGCAUCAGGUAAUCCGAGUGCACAGACGAAAGUACGAUGCAUGUAAUCCAUAGCCGUAUCAACGGACACACAGGUCGAAAGACUGUGGUCGUUAGGUCACGGACACUAAGUAGUGGCCU'
p243
aF0.8349056603773585
aa(lp244
S'Anemone'
p245
aS'AAAUUUUGCUAAUGCGAGAGUAACAAAGGUUGCGCUAUAAAAGUAUGGCGGUAUGAAAGUACCGGCUUCGAAAGAAGCCGUUCCGAAAGGAACCGUAUGAAAGUAUGGUUCUCGAAAGGGAACAAGAAGAAAACUUCUGAGAUGGAAAUAUUUCGCCGCGAAAGCGGCCCACACUAAUGUGUGGGAGACGAAAGUUUCGAAUUCGAAAGAGUUC'
p246
aF1.0
aa(lp247
S'Fractal 3'
p248
aS'AAAAAGCUCGGGUAUCAAACAGCCAAAGGGUACCAGGUAGGGAAAUCCUAAAGACAGUUAACCACCAAAAGGUUGAAAAAAAGUAGAAAUGAAAGUAUCGAAAUGACCCAGAGCAAAAA'
p249
aF0.9159663865546218
aa(lp250
S'Kyurem 5'
p251
aS'AAAAUGAUUUUUGGCAAAGGGCGAUAAAAGCUCCAGGAAAGGCAAAAAGUUUUUGGCCAACAAGGUCAUAGCGUCGAAAAGAUUUAAAAAAAAAAAAAAAAAAA'
p252
aF0.9230769230769231
aa(lp253
S'Snowflake Necklace ( or v2.0 )'
p254
aS'ACAGAUACAUAGACAGGAUACAGAAAAAAGUAUGAAAAGCAGGGUAAAUUCAUAGAAAAGAGGCAAAAAGCAGUAUCACACAAAAAGUGUCAGUCGGGAAAAACCAUCAAAAAUAGGCAAAAAGCAGGAAAAACCAUCAAAAAGAAGACUGUGAGAAAAAGUCACAGACAGAUAAAUGCGCAAAAAAUAAACAAAAAGAGUCAAAAAGCACCGAAAACGGGUCUGAGAGAAAAAUUCGUAGUGACCAAAAAAAAUCAAAAAGGAGGAAAAACCUGCAAAAAGCUGUAAAAAGUACACUAAGACAAAAAGUCCCAGACGUCAAAAAGGGUCGAAAAAAAGUAAAAAACAUGAAAAAGAGGCAAAAACCAGUCUGGUGUUUAUGUAUCUGU'
p255
aF0.8611825192802056
aa(lp256
S'Methaqualone C16H14N2O Structural Representation'
p257
aS'AAAAAAAGAUCGCAUCGCAGACACAAAAGUGAGACAAGCAAAAGCUAAAAGCACAAAAGAGACAGAAACAAAAGUUACACAAAAAAAGUGAGUGAUCUAGUCAGUGAGAAACAGACCAAUACAAAGAAGGCAAACUAAAGGAAAAAAAAGCUAGAAAGGCAAAAGUCGCCAAAGGGCGACAAAAGUCUUUAUCAAAGAUUAGAAACAUACUGAAAAGCGCACAUGCAAAUGACGAAAGUCUGCAAUACUAAUGUAGGUGAGGCAAAAGCCAGCUAGAGAAAACUCAUUCAGAUGACAAAAUUCUGCAAAAGCAAUACAAAGGUAAUAUGUAAGAUCAAAGUACAGCUCAAAAAAA'
p258
aF0.9211267605633803
aa(lp259
S"Cat's Toy 2"
p260
aS'AAAAGUCAGAUCGAAAUUAAUAAAAGAAAAAAAAAAAAAAAAAGCAAAGCGAAAGCAAUAGUAAUGUUAAAAAAAGUAUCAAGGGGAUUUGACAAAA'
p261
aF0.9587628865979382
aa(lp262
S'Zigzag Semicircle'
p263
aS'AAAAGAGUUGCUUGAAAAUAUGACAGGCUCGUAA'
p264
aF0.9411764705882353
aa(lp265
S'Short String 4'
p266
aS'AAAAAAGCGGAUAGCAACUAAGGGGAGCUAAUGCACAAUAAAGAGCGUGAGAAAUCUAGCGACAAUGAGCGUGAUCAAAAAAAAAAAAAAAAAAAAA'
p267
aF0.9381443298969072
aa(lp268
S'Gladius'
p269
aS'CGAAAGAAAGGAAAAAAGGAGUAAGGAAACACAGGAUAACAUGGAAAUAUGAGAUUCUAGGGACAAUAGAUCAAAACGCGAAGAGAUAUAUCAGACCCGAGAGGUAUAUUAUAUCAGGCUCAAAGAGCAGAUAGGAUGGACUUCCAGGGUCGAAUAUAUCAAGAUGCGAAUAGAUCAAAAGUCAACUGAAUCUUCCAAAAAUAAAGGCCCGGCCGUGAAUAACUGAAGAGGAUCAGAUAUCCUAGACUCACACACCGUUAGAAUAGGUAUGUCAAAAGAUAUGAACUGCACUAAAUGUGUAGGGGUUCGGGAUAUCCCGUUUUUGCAUCUUAGCAAUUCAGAUGUCUUGGAACAAAAGUUCAAAAUUAGACAAACAAGUCGACAAAUAGGGUAAUAAAAG'
p270
aF0.9
aa(lp271
S'Thunderbolt'
p272
aS'AGAAGGUAGAAAAAAAAUACUAAUCACUAAAAGAAAGCAAAUAAUCCUAAAAAAACUCAAAAAAGGUAAAAAAUACCAAAAAAGAAAAGCGGUCUAAAAAAGGAGAAAAAACGACAGCCGGGCAAAAAGGAAACAGAUCAAAAAGACAAAAUGGGGUGGAAACAGCAACUAAAAGUCAGAUAAAGAAAAAAAAGGGGAGGAAGCCACAACAAAAAAAUAAGUAUCGAAAAAAAGAUCAAAAGGAUAUCGAAGAUAUCAGCAAGGAAAAAAAAAAUGAAAGCAAAAAAAAAGUAGAAAAAGCAGAUAAAAAAGUAAAAAAUCGAAAAUAUCUGAUCUACAAUGAGAUAUUCAAAAAAUGCGAGAGGGAAAAAAGCAAAAAACACUAUCGACUA'
p273
aF0.9795918367346939
aa(lp274
S'Mutated chicken feet'
p275
aS'GAAAAAUGCAUCACGGAAGGGGGAAACGAAAGGCCUACAGAACUAAAAGAAUUAUAUAAAGCGCAUUAGCGAAAAAUUACCAAGCGAAAGCAGAAAAAAA'
p276
aF0.81
aa(lp277
S'Chicken Tracks'
p278
aS'AAAAAAAUGAUACGGACGAGAAAUUGUAAUGGCUAAUGCCAGAGAUCAAAGGAUCCUGUAUCUAUGGACCCAAGGGGUAACCGCUAAGCGGGAUAGCUACGCUACCAAAAGAAAAA'
p279
aF1.0
aa(lp280
S'Looking Back Again'
p281
aS'GACAAGACUAGGGAAAAUAAAUCAAAGAUUUGAUCUGAACACGACAAGACAAAGUCGUAACAGAGUAAGGACUAAUGUUCGAAUCUCUGGAGUCAAGUCAAGACUGUGUAAAAGCUAUAAAAAUAGCAAAAAUUGCGUGGUUUUACAAAGUAAAGUCACAAAGCAUCUAUAUCGUAACUGGAAGGGGAUGGGGAUCAAAAGAUUAACUUAACCAAGGACGAGAAAACUCAAGAUAUAAAAGCUACGGUCGAAUACACCUCGAAAAGUCUGUCCAAAAAAAAGAUCAAAAAGAUCGGAUAAAAGCCGAGGGCAUGAAAAAUGCAUAUGAAAAUAUAUGAACGAGCAAAGCGCAGGCAAAGCCUGGAUCGCGGAAAGUGCGUAUUAAAGUC'
p282
aF0.910025706940874
aa(lp283
S'Multilooping 6'
p284
aS'AUUAUUUGGCAAUAGAAAUUUGUUUAGCUGAAAAGAACGCUUCAGAGUAUAAUUACUCCUUACGAAAGUAAAGGCUUAUGUA'
p285
aF0.926829268292683
aa(lp286
S'Cesspool'
p287
aS'CAGGAAGAAAACAAGGCAGGAGAGGUAAAACUGCCAACAAGCCAAGGGGAAAACAACAGGGGAAAGUAACAGAGAGGAAACGACAAGAAGGGGAAGAAAACAAGAGGGGAGUGAUAAAAUCAUCAACAACUCAAGGGUAAAUCAACAGGGGAAAACAACAGAAAUAAAAAGCAAACAAGCGAGAAGAAAAGAAGCCAGGAGAGUAAAAUACAACAACAAGGAAAGGGGAAAACAACAGGGGAAAACAACAGAGUGAAAACACCAAGCAAUCGGGAGGAAAACAAGACGAGAGAGAAAAAUUCAAUAGGAACGCAAGGGGAAAACAACAUGGGAAAAGAAAAGAACGAAAACACGAAGC'
p288
aF0.7849162011173184
aa(lp289
S'Hoglafractal'
p290
aS'AAAACAGACAGACCAAAGAUCCUAAAAUGGAUUGUCUGGAUCAAACCUGAAAAACGGGGAUCUACAAGAACAAAGUCGUGAGAGAAACAUCAAAGAUCUAAAAUGAUCGAUGGACAAGAAAAAAAUUCGACACAGGUAACGCGCAUUUCAAAAGACAAGACAAAAAAGUCGUCGUAGCAAAAAACGCCGGAAACUCCAUAUAUAAAAAGCAGCAAAAAGGCGCGACAAAAAGUCGCAAAAACAGAUAAGAAAAAAGACAAAAGGGUCGCAAAAAGCAAUGAUAUUCGAAGAAUAUCUAAAAAACUUAUCAAAAAAGUAUAAAAAGGAGAAAAACUCAAAUGGAUAAAGAGCAGAAAAAAAACAAAAGUGCCAAAACGAUAUCGAAGAUAUCCUUUCGAUU'
p291
aF0.925
aa(lp292
S'Bullseye'
p293
aS'AAAGGUUCUCAAGGAGAAGUGGGAAGUUCAAAGUGCAAGGUACAAUAAAAAAAAGAUUAGAGAAUCUGAAUUCGGAACGAGAACAGCGAAGUUGGUCAAAAAAAAGAUGAUCAAAGAUCAAUAUUAAAAAUAAACAUCUAUGAUGAUUAAAAAAAAGAACUGUAAAGCAGAUCCGCAAAGCGGUACAGCAAAACUGUUCAAA'
p294
aF0.8415841584158416
aa(lp295
S'Shooting Star'
p296
aS'AAAUAUGUGGGAUAUAUAAAAAGGGGAUGCCAGACAGGUAAUCACGUACGGCUUACAAGUAGAUAUAUCAGAUGCGAGAGAGUAAGACAUAUACAUUCAGAUCCGUAAAAGACGAUACGUGGAUGUACGUCAUAAAGCCGAGCAAAACAUCAUCGAUCCUUACAAGGCACGAUAGAUCCUGUAUACAGUAGUUAGAGAUUAUUACAGGUUAGACCAAAGGUAUCUAAAGGAUACCAGGUUCAAAGAACCGGUCCAUAUAGGAACUGCAUGAGACCCAAAGGAUCGAUCGAUUAAAAAAGGGGAUAAGGGGAGAAACAUAGCAGCAAAAUACGAUAAGUUGCAACAACAGGAAAAACAAUAUUUA'
p297
aF0.782967032967033
aa(lp298
S'Teslagon'
p299
aS'AAAAAGAGAAAAAAAGUUACAAAAAAAAGAGCAAAAAAAAAAAAAAAGCAAACAGGGUUCAAAAAAAAAAAAAAACGCCUAAAAAAAGCUGGAAAAAAAGCAAAAAAAAAAAAAAACCAAAAAAGCUAGUAAAAAAAACAGCAAAAAAAAAAAAAAAGCAAACAGGGUGGAAAAAAAAAAAAAAGACAGCAAAAAAAGUAGGAAAAAAAGAAAAAAAAAAAAAAAGGCAAAAAAGGCAGGAAAAAAGUUAGCAAAAAAAAAAAAAAAGAAAAUAGGGGCCAAAAAAAAAAAAAAAGGGGAAAAAAAAGCAGCAAAAAAAGAAAAAAAAAAAAUCUAAAAAAAAAAAAAAGGCAUCAAAAAAGGGAAUGAAAAAAUUAAAAAA'
p300
aF0.9031413612565445
aa.