(lp0
(lp1
S'Simple Hairpin'
p2
aS'GGGGCAAAAAAGCCCC'
p3
aF1.0
aa(lp4
S'Arabidopsis Thaliana 6 RNA - Difficulty Level 0'
p5
aS'GGUGGGUAAAGGGCAAAAAAAAAAAGCCGAGGGUGCAACGCGGGGGGGGGGGGGGGAAAAGGGGCUAAAAUGCCCUAUCCCCCACCCCCCCCCCGCGAAGCGCUCUCAAACCCGCC'
p6
aF1.0
aa(lp7
S'Prion Pseudoknot - Difficulty Level 0'
p8
aS'GGGGGCAGGGCAAAAGCCCGCCACCCAAAAAAAAAA'
p9
aF1.0
aa(lp10
S'Human Integrated Adenovirus - Difficulty Level 0'
p11
aS'GGGGGGGGGGGGGCGGGGUGCGAAAAAAAAAUGGGCCGGGGGGGAACCAGCAGGGGUAAAAGCCGGGGGGGGGCUAAAAAAUGCUCCCCCCCAAAAGGCACCCCAAAAUGCCCCAAAGCCCCGAAAUGUGUCAAAAAAGGGCGCAGCCCUAAAAAAAAAAAGCACCCAGCCCAAAACUCCCCAAACCCCAAA'
p12
aF1.0
aa(lp13
S'The Gammaretrovirus Signal - Difficulty Level 0'
p14
aS'AAGUGGACGAGGCUAAUGCCUCGAACUCGAAAAGGGGCGAUGCAGGGCCGGGAAAAAUCUCGAAAAGCCCGCAGCCCAAGCGGGUGCAAAGGCACCCGCGA'
p15
aF1.0
aa(lp16
S'Saccharomyces Cerevisiae - Difficulty Level 0'
p17
aS'GGUUGGACAGAGAAAAAAAUCUGCCGAAAAAAAAAAAAAAGCGAAAAGAGGCUAAAAAUGCCUUUCCAACCAAAUUUAGACGCACGUCUAAAAAAUGACGAACGAAAAAAAAAAAAGUUAAAAGGGAAGAAAAAAUUCCUCGUCUAGUAAUGUGAGGAAACCGUAAAAAAAGGCGGCGGUGCAAAAAAAGCGCCGGACACGGUCAAAAAAAGAUCGUCUUCACUAAGACGCUGUAAUGGCAAAAAAAAGCCACCAGGAAAAAAAGUCCUGGAAAAAGGGCGAAAAAAGCCCUACGGCGUAAAGGGUUGGCAAAGACAAAAAAAAGUCUUGUUGCGAAAAAAGCAACAAAAAGCGGCUAAAAAUGCCGUGCCAACCAAAA'
p18
aF0.9947229551451188
aa(lp19
S'Fractal 2'
p20
aS'AAAAAGGGGGGGUAAGGGGGAGGGGCUAGAGUAAAAAAAAAAGCUCGGGGGCAAAAAAAAAAGUCCAAGCCUGAAAAAAAAAGGGCAUGCCCCUCCCCAAGGUAGGGGGGCGGGGGCUAAAAAAAAUGCCCAAGGGAUAAAAAAAAUUCCCGAGAGCAAAAAAAAAAGCUCAAGCCUCCUUGCAAAGGGUGGGGGCAAGUGUAAAAAAAAAAAUACGAGGGCAAAAAAAAAAGCCCGAGGGCAAAAAAAAAAGUCCAAGCCCCCACCCAAAACCCCCCCAAAAA'
p21
aF1.0
aa(lp22
S'G-C Placement'
p23
aS'AGGCAAAGCCUA'
p24
aF1.0
aa(lp25
S'The Sun'
p26
aS'GUUAGACAGGCAAGGCCUAAGUUGACAAGAGCAGGAGGACAAGGCAUUAAAUGGUAAGGGAAGGAGGGCAAGCCCCAAUACGCUAAAAACAGGGGCGCGAAGCCCAACGCGCUGAAAGGAGGGCGACUAGGUCCACCCUCGUAAAACCUGGCGGGCAAGGACCAAACCGCUAAAGACAGGGGGACGAAGUCCAACACGGCAAAAACAUGGGUGUAAGACGCAACCAGUUGAAAGAAUACGUGCAAGGCACAAGUAUCU'
p27
aF0.8449612403100775
aa(lp28
S'Frog Foot'
p29
aS'AAAAAAAAAAUAAGAAAUCUUACGGGUAAAUCCGCGGCUAUGCUG'
p30
aF1.0
aa(lp31
S'InfoRNA test 16'
p32
aS'AGGGACUCGGGGGCCAAAGGGCCCACCAGUGUCCUU'
p33
aF1.0
aa(lp34
S'Mat - Martian 2'
p35
aS'UGGCCAAAGCCAAAUGGUGUGCCAAGGGUGCAAAAAAAGCACCCUGCACGCCUAAGGGGGAGCAAAAAAGGGGGGCAGGGGGAGUAAAAAUUUCCCCCGCCCUCCGAAGGGGGGGGAGGGGCGAAAAAAGCCUCUCACCCCCCCAAAAAGGCUCCCCCGAAGGGGGUAGGUGGGCAAAAAAGGCCCACCAAUACCCUCAAAGUCCGAAAGGAC'
p36
aF1.0
aa(lp37
S'square'
p38
aS'GGGGGGCCGGGGCCGGGGGCCGGGGCAAAGCCCCGAAAAGCCCCCGAAAAGCCCCGAAAAGCCCCCC'
p39
aF1.0
aa(lp40
S'Six legd turtle 2'
p41
aS'GAAAAGAGAUGGAAAAGCUAAUGUAAUUGGAUGCAAAAGUUAAGAAAAGCCAAACCAAAGGGAAAGUUCGUACAAAGUGAAAAAAAAAAAAAAAAAAA'
p42
aF0.9183673469387755
aa(lp43
S'Small and Easy 6'
p44
aS'GACAAAAAAGUGAAGCUAAAAAAUUGUGUU'
p45
aF0.9333333333333333
aa(lp46
S'Fractile'
p47
aS'AAAAAAAAAAAAGCAAAAGCAACGUAAAGAUAAACAACGCAAUUGAAAAUGUACAAUAUCAAAAAUGAAGCGGCCGAAAGUAAAAAAAAAAAAAAAAAAAAAAAA'
p48
aF0.9619047619047619
aa(lp49
S'Six legd Turtle'
p50
aS'GAAAAAAGAAAUUGUAAAAAAAGCUGAAAACACAGACUAAAGUAAAUUUAAAGGGAAAAGGUAAUUUGAAAAGGAAAAUGAAAGUAAAAAAAAAAAAAAAAAAAA'
p51
aF0.9619047619047619
aa(lp52
S'snoRNA SNORD64'
p53
aS'GGGGGCGAAAAGGCAAAGGGCUAACUGGGAAAAAAAAAAAAAUCCGGAAAUGCCAAGCCAAGCCCCC'
p54
aF1.0
aa(lp55
S'Chalk Outline'
p56
aS'GAAAAUUCCACGGGCCAAAGCACCGGGGCAGGCAAAAGCCGCCAGGGGGCGAAAGCACCCCAGGGCGAAAACGCACCGGAAAAAAAAAAAAAAAAAAAAAAAAA'
p57
aF1.0
aa(lp58
S'InfoRNA bulge test 9'
p59
aS'GGGCGGCAGAGAGAGGGGGGCUAAUGCCCCCCCCCGCCGCCC'
p60
aF1.0
aa(lp61
S'Tilted Russian Cross'
p62
aS'GAAAAGAGAGAACGAAAGUUCGACGACGGCGAAAGCCGGGCGGUAAUCCGCCAGGGCGAAAGCCCCGUCCCUGAAAGCGGGUCUCGAAAAAAAAAAAAAAAAAAA'
p63
aF1.0
aa(lp64
S'This is ACTUALLY Small And Easy 6'
p65
aS'GAAAAAAAAAAAAAAAAAAAAAAAAAAAAAAAAAAAAAAAAAAAAAAAAAAAAAAAAAAAAAAAAAAAAAAAAAAAAAAAAAAAAAAAAAAAAAAAAAAAAAAAAAAAAAAAAAAAAAAAAAAAAAAAAAAAAAAAAAAAAAAAAAAAAAAAAAAAAAAAAAAAAAAAAAAAAAAAAAAAAAAAAAAAAAAAAAAAAAAAAAAAAAAAAAAAAAAAAAAAAAAAAAAAAAAAAAAAAAAAAAAAAAAAAAAAAAAAAAAAAAAAAAAAAAAAAAAAAAAAAAAAAAAAAAAAAAAAAAAAAAAAAAAAAAAAAAAAAAAAAAAAAAAAAAAAAAAAAAAAAAAAAAAAAAAAAAAAAAAAAAAAAAAAAAAAAAAAAAAAAAAAAAAAAAAAAAAAAAAA'
p66
aF1.0
aa(lp67
S'Shortie 4'
p68
aS'GCAAAAGCAGGGAAACC'
p69
aF1.0
aa(lp70
S'Shape Test'
p71
aS'GAAAAGAGGGCAAGGGGCGAAAAAAAGUCCCAAGGAUAGGGCGGGCGAAAAGCCCGAGUUCAAAAGGACACCUUCCAGGCCCGCAAAAAAAAAAAAAAAAAAAA'
p72
aF1.0
aa(lp73
S'The Minitsry'
p74
aS'GGUAAAAAUCGAAAAGUGGAAAAGACCUAAUUGCCUAAAAAAUGGCCGGUACCGACGAGGCC'
p75
aF1.0
aa(lp76
S'stickshift'
p77
aS'AAGGGGGCCUAAAAAAGAGCCCCUAA'
p78
aF1.0
aa(lp79
S'U'
p80
aS'AAAAAGGUGUAGAGAGCAGAGGGGGGCGCAAAAGCGCCCCCCCGCCCACACCAAAAA'
p81
aF1.0
aa(lp82
S'Still Life (Sunflower In A Vase)'
p83
aS'AAAAUGGGGCCUCCGAAAAGGGGGAAAGAGUAAUGCUGUGAAGCGCAAAAAGCGCUGAAGUGUGAAACCCCGGAGGCUUAAAUAGCCUGAAGAGCAAAAAAACACGGGGGGGGGGGGGGGGGGAGGGGUCGGGCAAAAAAGCCCGACGAGUUAAAAAAAAAAAAUAUCAAAAAAAAAAAAAAAAAAAAAAAAAAAAAAAAAAAAAAAAAGGUAAAAAAAAAAAAAUAUUCGUUGAUUAAUAUCGAAACCCCUCUCCCCCCCCCCCCCCCAACGGCCGAAAAGGCCGGAAGGGCGAAAAGCACUGGAGGAGAAAAGCGUCUAUUGAGCAAAAGGCUUAUGUGGCGGAAAUCUUAAACAGGAAAAAAUCCUGAUCGCAAA'
p84
aF0.9312169312169312
aa(lp85
S'Quasispecies 2-2 Loop Challenge'
p86
aS'GAAAAUAGCGAGCGACAAGGAAACUUGAAGCUCUGGCGAGCAAGGAGCGCCUGGGUAGCAGGUCUAAAUGACAAGAGACCCGCUAGAAAAAAAAAAAAAAAAAAA'
p87
aF1.0
aa(lp88
S'Corner bulge training'
p89
aS'AGGGGGCGAGGCAAAGCCUUAAAAGCCCCCA'
p90
aF1.0
aa(lp91
S'Spiral'
p92
aS'AAAAAGGGCAGGGGGCAGGCAGGGGCAGGGCAGGGCAGCAGCAGCAGCAGCAGCAAAAAGCGCGCGCGCGCGCCCGCCCGCCCCGCCGCCCCCGCCCAAAAA'
p93
aF1.0
aa(lp94
S'InfoRNA bulge test'
p95
aS'AAAAAAAAAAAAAAAAAAAAAAAAAAAAACCGUAAAAAAGGGCAAAAGGGCAAAGGCCAACCGCAUCGCAAAAAGCAGAGGCUGGAAGGACUAAAGCACCAAAAAGCACCAAAAAAGCAGGA'
p96
aF1.0
aa(lp97
S'Worm 1'
p98
aS'AAAAAAAGAUAGGGGGCCCAAGAGAAAAACGAGUAACAACCGAAC'
p99
aF0.8666666666666667
aa(lp100
S'just down to 1 bulge'
p101
aS'AAAAAGGGCAGGGGCAAAAGCCCCAGGCAAAAGCCAGCACCAAAAGGGCAGGCAAAAGCCAGGCAAAAGCCAGCCCAAAAAAAAAAAAAAAAAAAA'
p102
aF1.0
aa(lp103
S'Iron Cross'
p104
aS'AGGAGGGGAAAGGCGAUCUACGCGGGGCAAAAGCCACCCAAAGCUAGGUAAAGGCUAACAAAAGGAAGCUAAACGCAACUGAAAAGUAUCGAAAUCAAACCAAACCGAGGGAAACUCGUCCGA'
p105
aF0.926829268292683
aa(lp106
S'loops and stems'
p107
aS'AAAAAGGGGGGCAAAGGGCAAAGGGCAAAGGGCAAAAAAAAGGGGGCUAAAAAAAAAAUGCCCCAAAGCCCAAAAGGGAAAAAAAAAAGUCCCAAAGCCCAAAUCCAAAAAAAAGGAAAGGCCCAAGUAAAAAAGCGAAGCCCCCCAAAAA'
p108
aF1.0
aa(lp109
S'Water Strider'
p110
aS'GACAUCCGCAAGAUGUCAUCCAAAAUCCAAAUAAUAUCGGUACAAAGAUUUCGAAAGAAGCCUAAUGGCAAUCAGAGUCAGCUAAAAAAAAAAAAAAAAAAAA'
p111
aF0.9611650485436893
aa(lp112
S'The Turtle(s) Move(s)'
p113
aS'AAAGAAAAGUUAAAUGGGGGGAGCAAAAAAAAGGCUCCUCCCUAAAGUGCAAAAAGCACGAAAAUGCGAAAGCGGAGCGGGUAAAAAAAGCCCGAAAAGGUAAAGUAACGGAAAAAAGUAAUAAGAUAAAGGUUGGCAAAAAAAACCGGUAAAAAGAAAAAUUAAAAAACGGGGUAAAAGUCAAAAAAAGGCGGACCAAAAAAAAGGUACAAGGCAAAAAAAUGCCUGAGGGGCAAAAAGCUCAAAUCCCGGAAAAAAAAAUAAAAACAAAAACGAAAAUUAAAAAUGGGGAAAAAAAAAAAGAUCCCAAAAGACC'
p114
aF0.9620253164556962
aa(lp115
S'Adenine'
p116
aS'GUGGCGGGGGACACGGGGCAGGGGGCCCGGGGCACGAGGCAAAAGGGGGCAAAAAAGCCCCCAGCCUCGAGGGGCUAAAGUGGGCAAAGCCCACUGCCCCAGCCCCGUAGGCGGUGGGGCUAUGCCCCGCAAACGCCUUGCCCCUAAAAGCCCCGGAAAGUCCCCAAAAGCCGC'
p117
aF1.0
aa(lp118
S'Tripod5'
p119
aS'AACUGCGGACAAAAAGUCCGGCCGAAAAGGCCGCGGGA'
p120
aF1.0
aa(lp121
S'Shortie 6'
p122
aS'GAGAAAUCAGCUAAUGCUGCGAAAGCUUCGAAAGA'
p123
aF1.0
aa(lp124
S'Runner'
p125
aS'AAAAAGUGAUGGGCUAAAUGCGCGAAGCGUCGCCCGAAGGCAAAGGAGCAAAUUAAAACCUUGAGUCAAAGACAAAUCAGGCCAAAAUCGAGUUCAAAAGAAAGGCUACACAAAAA'
p126
aF0.9827586206896551
aa(lp127
S'Recoil'
p128
aS'GAAAGUUGUGAACGAGUAAAUCAAAGUCUAACCAAUAAUGUUGUUGGUAUGAGUAAUAAUACGAAAAAAAAAAAAAAAAAAAAAA'
p129
aF0.9529411764705882
aa(lp130
S'[CloudBeta] An Arm and a Leg 1.0'
p131
aS'GAAAAGGCGACGCCUAAUGGACGUGCAUCAGAAAUGUGCAGCUGAACAAAAAAAAAAAAAAAA'
p132
aF1.0
aa(lp133
S'[CloudBeta] 5 Adjacent Stack Multi-Branch Loop'
p134
aS'GGGUCGCCCAAAGGGGCCAGGGGAAACCCUGCGGGGGAAACCCCGGGUCGAAAGACCGGCCCA'
p135
aF1.0
aa(lp136
S'Triple Y'
p137
aS'GAAAAAAAUGGGUCUGGACAGCCAGCGGCGAAAGUUCACCCUGGUACAAAAAGUUGUGUACAAAGGUACACCAAUGGGAAAAAAAAAAAAAAAAAAA'
p138
aF0.979381443298969
aa(lp139
S'Misfolded Aptamer'
p140
aS'CGGCGAAAAUGCGGGAAGCCCAUCGAAAGAGAAAAAAAAGCUAAAAGUCG'
p141
aF1.0
aa(lp142
S'Flower power'
p143
aS'GAAAAUAUUUAAGAAGUUUAUAGGGGGGUCAAGCCCAGUUUCUAUGGAAAAAGCGAAGUUUCUCCCUCGUCGAAGACGCCUAGAAAAAAAAAAAAAAAAAAA'
p144
aF0.9019607843137255
aa(lp145
S'Kudzu'
p146
aS'GAAAGUACGGAGGUCGUAUAAGUAAUCGAAUCGUACUCUCGACCCGAAUCAGUCGAACCCAAAGGGGAAACGACAACAGUAAAAAAAAAAAAAAAAAAAAA'
p147
aF0.9801980198019802
aa(lp148
S'"1,2,3and4bulges"'
p149
aS'AAAAAGACCAAACCUGAAAAGAAAAGUCGGACAAAAGUCAGUACUGAAAUGCCAGAAGAAAUAAAACUGCGUAAUGACUAGAAUAAAAAAAAAAAAAAAAAAAAA'
p150
aF0.8857142857142857
aa(lp151
S'medallion'
p152
aS'GGAGGCAGGGGGUAAAAGUGUCUACAUAAAAAGGUACCGAAAGGUUACGGGCAAAAGCCCGUAUGGGAAACUAAUACGGCAAAAGCCGUAGUGCUAAUGAAAGCCAAAAGGCACAGGUUAAAGGGCCUGGGAUAAAAAUAAUGAGGCAAAGGUCUCAAAGCGAAAGUAUUCCAAAAGUAUUAGUACAAAAGUACUAUCACGAAAGUGAUGGGGCAAAAGCUCUAAGGCAAAAGUCGUACAAAAGUAAUUGGUCGAAAGGCCAAAUAAAAAAGUGAGGGGUAAAAAGCCACAUUACGAAAGUAUCGCAAAAGCGAAUUGUCGAAAGGCGGUAGCCUCC'
p153
aF0.887240356083086
aa(lp154
S'[RNA] Repetitious Sequences 8/10'
p155
aS'ACGUAAAAGGCAAAAAAGCAAAAAACCAAAAAAGCAAAAAAGCAAAAAAGCAAAAAAGCAAAAAAGGAAAAACCGGAAAA'
p156
aF1.0
aa(lp157
S'Documenting repetitious behavior'
p158
aS'AAAAAGAGUAAAAAAAAAAUUAAGAAAAGUUAAAAAAAAAAGAAAAAAAAAUGGAAAAAAAUUGAAAAAAAAGCUCAAAAAAAAGGAAAAAAAAAUAGAAAGAAAAUGAAAAAAAAUAGUAAGAAAAGUGAAAAAAAAAAGAAAAAAAAAGGUAAAAAAAAUGAAAAAAAAGCUGAAAAAAAACGAAAAAAAAAUCUAAAAAAAAUGAAAAAAAAACGAAAAAAAAAGAAAAAAAAAACAGAAAAAAAUCUAAAAAAAAGGUAAAAAAAAGCAAAAAAAAAUCCUAAAAAAAAGAGAAAAAAAACAGAAAAAAAACCAAAAAAAAUAGAAAAAAAAACUGAAAAAAAACGAAAAAAAAGCAGAAAAAAAACAUAAAAAAAUAUAAAAAAAAAACAAAAAA'
p159
aF0.885
aa(lp160
S'7 multiloop'
p161
aS'GAGGGUGGGUAAUCCCACGUGGGGAAACCUACCAUUUGAAAGAAUGCACGUGAAAACGUGGAGAAUAAUUUCUCCAGCGGAAACGCUGCCUC'
p162
aF1.0
aa(lp163
S'Kyurem 7'
p164
aS'GAAAUAUACAUGUGGGCAAUAUCUAAAAAGGGCUUGCAAAAGGUAUCCGCUUAAAAAUACGACAUGAAGCCUGUCGCUAUGUUAAAAAAAAAAAAAAAAAAA'
p165
aF0.8823529411764706
aa(lp166
S'JF1'
p167
aS'GGGGGGGGGGGGAGGGCAACGGGAUAAAGGGGGCAAGGGGCAAAGGGGCAACGGGGUAAGGGGGGGUUGCGCAAAAGCGCAGCCCCCCCUGAAGCAAAAGCUAAGGGGGGUCAAAAGACCCCCCUGAUGGGCAAAAGCCCAAACCCCGAGCUCUAGCCCUAGCCCCCAAAGGGGGGGCAAAAAGCCACCCCCAAAGGGGGGGGGGGGGGGGGGGGGGGAAAACCCCCCCCCCCCCCACCCCCCCCCUAAAGUCGCAAAAAGGCGACCGGGGGGGGCAAAAGCCCCCCCCGUAACGGGGAAAUCCGGUUCCCGAAGCCCUUGGGCAGGCAGGCAAAGGCCGCCGCCCAUAGGGGGGCAAAAGCCCCACCUAACCCCACCCACCCCAAA'
p168
aF1.0
aa(lp169
S'multilooping fun'
p170
aS'GGGUUAUUCAAAGGUAAAAGUUAGUAAUAAAAUAUC'
p171
aF0.8333333333333334
aa(lp172
S'Multiloop...'
p173
aS'GGGCAGGGCAAGCAAAAGCUAGGCAAAAGCCAGGGAAAACCCAGGCGAAAGCCAGACAAAAGUCAGGCGAAAGCCAGCCCAGGGGCAAAAAAGCCCCGGCAAAAGCCGCCC'
p174
aF1.0
aa(lp175
S'hard Y'
p176
aS'AAAAUGGUUACUGGGUGUGUAAAGACGCACUAUGUCGGGGGGUGCGAAAGCACUCUCCGGGCCUAAAA'
p177
aF0.9705882352941176
aa(lp178
S'Mat - Elements & Sections'
p179
aS'GAAAAGACGUCAAGGAGUGUGCCGAACAGGUGGUCCGAGCAAAAAAUUGACAUGCUACACGCCACUAAGAGGGCGCAAGGUCGUCAAAAAAAAAAAAAAAAAAAA'
p180
aF0.9619047619047619
aa(lp181
S'Chicken feet'
p182
aS'AAAAAGCAGGAUAAAACGAAUAAAACAAAGCGCAUCUUCAAAAAAGCGUCAAGGACAAAGGUGAAAA'
p183
aF0.8507462686567164
aa(lp184
S'Bug 18'
p185
aS'AUGAAAGACAGAAAACACCCCGGAAAUAUCGUUAUACCAAGAAAACAAAACGA'
p186
aF0.8490566037735849
aa(lp187
S'Fractal star x5'
p188
aS'AAAAAAGAGGGUGGACUGUAAAGGCAGGAGGUCGAAAGGCUGUAGGCAAAAGCCUUAGCGUAAAAAUGUAACGCCCUUUAAAAAAGGGAAGUAAAGGCAAAAGCCUGUAGGAAAAAUCCUUAAGGGAAAACCCUGUUGACCAAUGUCAUAACUUCCCUAAAAAAGGUGGGAAAGGGUAAAAACCCGGAGGCAAAAGCCUAGCGUCAAAAGAUGAAGAGUGAAAACUCGAUCUCACCUAAAAAGGUGGUGUAAAGUCUAAUGGCUGUAGGAUAAUUCCUUAAGGCAAAAGCCUGGGGGCGAAAGCCCAAAUACCACUAAAAAGAGGUAUGAUAUUCUAAUGAAUUAAGGCGAAAGCCUAACUUGAAAGCAAGGAUGGCAAAAGCCGAACAUACCUCAAAAA'
p189
aF1.0
aa(lp190
S'Crop circle 2'
p191
aS'GCAAGUCAAAAUCAAAAAGGGAAAAAAAGUGGAAAUAAAAAAAAAAAAAAAAAAAAAAAAAAAAAAAAAAAAAAAAGACAAAAAAAAAGGAAAAAAAAGAAAAGGCAAAA'
p192
aF0.9454545454545454
aa(lp193
S'Branching Loop'
p194
aS'UAGGCUAAAAAAAAAGUGGUAAUCCGUAAGCCUUAAAAAA'
p195
aF0.95
aa(lp196
S'Bug 38'
p197
aS'UGCUAGGGAGGCCGGAAAUAAGAUCAAUUUACGCAU'
p198
aF0.9444444444444444
aa(lp199
S'Simple Single Bond'
p200
aS'GAAAAAGGAAAAAAAUGCGCGAAAAGUGUUAAAAAAAACGAAAAAAAAAAAAAAAAAAAAA'
p201
aF1.0
aa(lp202
S'Taraxacum officinale'
p203
aS'AGCUAAAAAGGGUAAGGCGAAAGACCUACCGAAAAAGACCGGCCGAAAAGGACCGAUUGCAAAAGCCAAUUCGCAAAAGACGGAUAGGGGGUGGUUAGGGGCGGGCAAAGCCCAGCCCCUAUGGGCCAAAGGGGGGAGCAGUGGGGGCAAGGCCCCCGAGCUCCCCCCUGGGCAGAGGGCAAAGCCCUCGCCCGGCUCUAAACCACCCCCUAAGGGCAAAGGACCCACGGCAAAACACCGAAGGCAAAAGAUCUAAGACUAAUGAUCUACAGCAAAAGACAG'
p204
aF0.9148936170212766
aa(lp205
S'Headless Bug on Windshield'
p206
aS'AGCAUCUAAAUGGGGGAAACUGUUUAAAAAAAAAAAAAAAAAAAAAAAAAAAAAAGAAACCUACUUAUGAUGCUACCAAAGCAACUAAAAAAUAUGAAAGUUAAAAAGAGUACGAAAAAGGCUAAGGGCAAAAAGACCAGACGAUUUGAGUGGUUAAAAAAAAAAAAAAAAGCAAGUAAAGUAACCGUGUAUCCAACGAA'
p207
aF0.89
aa(lp208
S'Pokeball'
p209
aS'AAUGGGGGUUAAAACGUGCCUAAAGAUAGUGCUGAUGGGAGUACUAGUAAAAGAAAGGAUCACAAAGAUGCUUCCUUGUUUGACCUCUUAAAAAAGUGUGUCUAAAAUCAAUUAGUGAAGGGGAGAGUACGAACGGCUAGACUAUUCAAGAAGCAACCACAAUCAUUGGAGGACGGGCGCGAAA'
p210
aF0.8043478260869565
aa(lp211
S'Variation of a crop circle'
p212
aS'GAAUUGAAAAUAAAAAGUAAAAACAUGCAGCUAAAAGAGGUUAAACGGAAAAACAAAAAAAAUCAAAAAAAAAGAUAAAAAAAAAAAA'
p213
aF0.9545454545454546
aa(lp214
S'Loop next to a Multiloop'
p215
aS'AUGUAGUUGGCAACAAAGUAUGGGCAAAAGCCCAUUGAGGGUCGAAAGACCCUCACGAAAAGUAUAUAUCCUA'
p216
aF0.9726027397260274
aa(lp217
S'Snowflake 4'
p218
aS'GGCCAAAAGCUCGGUCCCAAAAAAUAGGCAAGGGGUUGAAACUGCGUGCGAACAAAAUUAAAAGGCAAAGCCCGCGUGCAAAAAAAGCCCCGGUCUGGCUGAAAAACGGGCCGGCAAAGCCUAAGGUCAAAGACCGCCCGAUAAAAAGCCAGAAAUCUGGCCAAAAAGCUGGUCUGUAAAACGGAAUGGGUAUCCCAACCGGCUUAAUAGCCGGAACUAGGCGUUAAUAGCGGGCCGAAAAAGUUGAAUGUGAACUACGGCCCGCAUAAACGGCCUGAGUAGGUCUAAAAAGAGGCCACGCGAAGCGUAAAGCCAAGGGCCGGCCUCAAAAAAGACCUAAGGCCUCCCGAAAAGGGCCGUGGAUAUGUUG'
p219
aF0.8540540540540541
aa(lp220
S'Mat - Cuboid'
p221
aS'GAAGCAAAAGCAACCAAAAGCAUACAAAACAAACAAAAAAAAGCAAACAAGCAAAAGAAAGGAACAAACAAAAGCAAUCAUCCAAACAAAAGCAGGUAAGCAAUCAAACAAAAUCAACUAACUAACUUGCGAAAAGCAACUAACAAACUAACUGAAUAAAAGGAUAUAACUGAAUAACUAACUAAAAUCAAUCAACUAAGGGAGUAAUGAAAAAACAAAAUAACUAAAGGAGAAAUAAGAAAGAAAUAAAGAAGGAAUUUUAAAGAAAGGAUGAACGAAACCGAUAGUAAGAAAGGAGAGCAAGCAAGGAACUAAACACAGGAUAAGAAGCGCAAGCAACGAAGGCAAGCAACGUAAAAGAGGGCUAGCGGAAGCGCAAC'
p222
aF0.7921052631578948
aa(lp223
S'Misfolded Aptamer 6'
p224
aS'GAAAAAGACGAAAAGGGGCAGGAAAAAGCAAAAAAAAGCUAAAGCAAAGAGCCCAAAAAAAGUCAAAAAAAAAAA'
p225
aF1.0
aa(lp226
S'Snowflake 3'
p227
aS'GGUCUAAAAAGAGACCGCUAAUGCGAAGGGCAGGGCGAGACAAAGGCCCGUAACAAAAGCUACGAAGUAGCAAAAGCAACUCGGAAAAUCGAAGCACAGGGCAAGGUUAAUGGCCGCACCAAAGAAUACAACGUAUGAAAAGCAGCGCCCAAAAGAGAAGCCCAGGGAAAGGGGAAAUCCCGUAACAAAAGCCACCAAGUAUCAAAAGAAGCGCGUAAAAGCGAAUCCCAAGGCAACGCGAAAGCGCGCAACAAAAGAGUCAAAGGCUCAAAAGGAGUGCGGAAAAGCGAAGCCCACCGCGAGGCGAAAGCCCCGGACAAAGGAUUCAAAGGUUUAAAAGAACCGAGGGAAACCUAAGCGGGGCCCAAGGCAAAAGCCGCCGACAAAAGGGCC'
p228
aF0.7786259541984732
aa(lp229
S'Hard Y and a bit more'
p230
aS'GAAAAUUGGCUGAUUGACAAAGGUCGCACCGGGGGGCAAUAUGCGAAAGCAUUAGGGCCGAAAAAGGCCUAAUGACGCCUGCCGAAAAAAAAAAAAAAAAAAAAAA'
p231
aF0.9716981132075472
aa(lp232
S'Mat - Lot 2-2 B'
p233
aS'GACGGCAGCGGCAGCUAAAAAUAACGGCAAAAGCAAAACGAAGUAGAAGUAAAACGAAGCAAAUACAAGUAUUCUCGACUGAAAAAAAUGGUGACUAAAAUCUAAAGAAGAAACCAAGCGUGUUAGAAGAGAUAACAAGUAAAAGCGAAACGUCAUCUAUAAAUAACGGUAAAGGCAAAACGAAAUAGAAGUAAAACGGAUCGUAUUUAAAGUGGCCUAUCUAAAAUCAAGACCAAGAAAACACGAAAGUUCGAGCAAAAUCAAGGAGUAGGGCUAAGAACAAC'
p234
aF0.8345070422535211
aa(lp235
S'Shapes and Energy'
p236
aS'GAAAAGGAUUGUAUCGUAAAACGAAAGGGAUUAAGGAUCCAUAUGGCGAGAUGUAAAAAAUUUCAAAGGAACCGACAAGCAAAAAAAAAAAAAAAAAAAAA'
p237
aF0.9801980198019802
aa(lp238
S"Spiral of 5's"
p239
aS'UUAAAGGGGCAAAGAGUCAAAGGAGCAAAAGGGGUAAAUCGGCAAUGGGUUAGUGGGUAAAAGGGUCAAGGGGCGAAAGGGGCAGUGGGAAAAGGGGAUAAUGGGCGAGGGGCUAAGCGGAGAUGGGCGGUGGGCAACUGGCAGGGGGCGGGCACAUGGGGGGGGCAAAAGGCUCCAAAAACCUCGGAAAAGUGCCAAAAAGCCCCAAAAGGCCGGAAAAGGCCCGAAAAAGCCCAGAAAAUCCGCGAAAUGCCCCGAAAAGCCCGGAAAUUCCCCAAAAGUCCCGAAAAAGCCCUAAAAAUGCUUAAAAAGGCCUAAAAGGCCCAAAAAGGACCCUAAAAGCCGAAAAAAACCCCAAAAGGCUCCAAAAGGGCUUAAAAAGCCCCGAAAUGAAAAA'
p240
aF0.9949622166246851
aa(lp241
S'Campfire'
p242
aS'AAAAAGACAAUAGGUACCGCUAAGGGCUAAAUGCCCGGGGGCAAAGCCACCCAGCGUCGGGCAACCGUAGGAUGGAAAUAAUCCGUUUGGGGCGUAAGCAGCGAAAGCGCCAAAGGAGGAAAAAUCACGACUUAAGCACCAGCCACGAACCUACGAUGGCAGGCAGGUCUAAUGGCCGCCCCCGGGGGGGCAAAGUCACCACCCUUCGGUUU'
p243
aF0.9811320754716981
aa(lp244
S'Anemone'
p245
aS'AAAGGUUGCGAAAGCAGCCGUGGCUAAUGUCACGCGCAUGAAAGUGCGCCUCGCGAAAGCGGGGGCGGCAAAGGCCGCCGAUACAAAUGUGUCCAAGGAAAUCCUUGCUUUCCGGAAGGAAAGAGGGGCAAAGGCCCUGGGGAUGAAAGUCCCCGACGUAAAAGCGUCGGGUUCAAAGGAACCCCCCUCAAAGGAGGGCGGGGCGAAAGUCCCG'
p246
aF1.0
aa(lp247
S'Fractal 3'
p248
aS'AAAAAGGUCAGGCAUCGAAAGAGAAAAGUUAGCAAGGCAGAAAAAGUUCAAAGGAAGCGUAUCAUCAAAAAGCUAAAGGGAGCCGGGCACCAAAAGGGCGAAAGCGGCAGGAUCAAAAA'
p249
aF0.9159663865546218
aa(lp250
S'Kyurem 5'
p251
aS'GAAAUUAUGGGCUACGAAAGUAUAUAACUCUUCUGUCAAAACCUAAAUGGUGGCAGUGAAAAAGCACAGAGUCUAGCCAAGGUAUAAAAAAAAAAAAAAAAAAA'
p252
aF0.9423076923076923
aa(lp253
S'Snowflake Necklace ( or v2.0 )'
p254
aS'GGCGGAGGGUGGGCCAGGGGUACGAAAAAUGAUCAAAAGCGCUCAAAAAGAAGCAAAAAGUAUAAAAAAUAGAACUCAGGGAAAAACCCAGGGGUAGUAAAAAGUAUCAAAAAGAAUCAAAAAUAAUCAAAAAGAAUCAAAAAGAAGCCCCAUUCAAAAAGCCAGGGGUAGUAAAAGGUAUCAAAAAGAGUGAAAAACAAUCAAAAAGAAUCAAAAAGAAGCCCCAGGCAAAAGGCUGGAAAGAGCAAAAAGGAUCAAAAAGAAGAAAAAAUCAGCAAAAAGCAGCAAAAAGCACCCCGAGCUAAAAAAGCAGGGGAAGCAAAAAGCAUCGAAAAGAAUCAAAAAGAAUUAAAAAGAAGCAAAAAGCGUCCCCAGGCCCACCCUCCGCC'
p255
aF0.8406169665809768
aa(lp256
S'Methaqualone C16H14N2O Structural Representation'
p257
aS'AAAAAAAGAGCAGGGGAGGCAUGCAAAAGUAAGGAAAACAAAAGUUAGAUAGUUGAAAGGCACUCAAGCGAAAGCUAAUUUAAAAAUGCCAGAGAAUCAUCCACCCGGAAACAUCCCAGGCCUAAGCAAUGAAAGUAAGACAAAAAAAAACUUGGGAAGCAAAAGUUUGUAAAAGCACUCAAAAGCGCUCUGCAAAGUGCAGAAGUAGGAGAUUAAUCAGGUAAUCAAACAGUAAAAGCCGGCUAAUCAAAGGAUUACUAGAGAAAGCCCAGGUGGGCAACAGCUAUGCGGGCGACAAAAGUAAGGGAAACUUAGACAAAAGUGGCCAGUCAGCCCAAUGGCCAGCUUAAAAAAA'
p258
aF0.8845070422535212
aa(lp259
S"Cat's Toy 2"
p260
aS'AAAAAUGGGGGGAAAAUCGUGGAAAAAAAAAAAAAAAAAUCGAACGAAUAUAAUAAUAACCAAAAGGGAAAAAAAGGGUAAAAGGCCCCUCAUAAAA'
p261
aF0.979381443298969
aa(lp262
S'Zigzag Semicircle'
p263
aS'AAAUUCUCUCUAGGAAAAAGCGUAAAUACGUAAA'
p264
aF0.9411764705882353
aa(lp265
S'Short String 4'
p266
aS'GAAAAAGUAUCAGGGGACAAUGAGGAUCAAAAGGGAAAUUAUAACCAAGUAAAAAUGAUCAGUUAAGGUCAAGAACAAAAAAAAAAAAAAAAAAAAA'
p267
aF0.9381443298969072
aa(lp268
S'Gladius'
p269
aS'GGAAACAAGAAAAAAAGUGAAGUAAUAAAGUGAGCGAAGGGCCGAAAGGCCGGUGGGAGUGGGUGAUGUGCCAAAUGGGCUAUAGGUCGGGAAGGGUGCAUGGGGAGGGCAGGGCGAUGGCAAAGCCAAGCCACGCCCCCCCCACACGCCCGACCCGACCAAAUGCCCUAUAGGUGGAAAACCAAAACCCGCACGCAAAGGGAGGGGCAGUCGCCUCAAAGGAUCGGUGGCAGAAUGGGGGUAGUUGGCAGGGGCAGGACGGGUUCCGGUGGCUAAUGCCACCUCGGAGACGUCACGCCCACGCCGGACGCCCCCAACGAGCCGAGUAUCCUAGCUGGUCCAGGCCCUAGGGAAAAAUCUCAAAUCCAUACAAAGAGGAGAACAAGUAAAACAAAAAAAU'
p270
aF0.8925
aa(lp271
S'Thunderbolt'
p272
aS'UCAAAUGGGAAAAAAACGGGCAAGCAGAACGGGGAAACAUGGGGGGCAAAAAAAAACCAAAAAAGAGCAAAAAGCUUAAAAAAGGAAAGCAACUAAAAAAAUUAUAAAAAAAGUAAUGAAACUAAAAGCAAAGCACUGAAAAAAAGCAAAAGGAACUGUAAAAAAGAACAAAAAGCCAGAUGAAGGAAAAAAAGAAAGCAACGUGAGGACAAAAAAGCAAAUAGCAAAAAAAAUCAAAGGGGGGGGGUGAAGCUCUCAAGAGCCUAAAAAAAAAAAGAAGCAAAAAAAAAGAACGAAAACGGGCCAGAAAACAAAAAAAAGAAAAAUGGCCCAAGAACAAAGCCUCCCGAAAAAAAACGGUAAGCGCAUAAAGAAAAAAAAAUCUGUAAGAA'
p273
aF0.9438775510204082
aa(lp274
S'Mutated chicken feet'
p275
aS'AAAAAAAGCAACAGGAAACCAAUAAAAUAAGGUGGAACAUCUGCUGCGCAGUUAUGCAAUGGCCGGCACCGGAAAAUCAACGAAGAAAAGGGUAAAAAAA'
p276
aF0.8
aa(lp277
S'Chicken Tracks'
p278
aS'GAAAAAAACAAAGGUAGGAAAAGCCCAGAGCGCUAAUGUGUGAGGGUUAAUGCCCGGCUCUAAAAGGAACCUAUUACUGCGGACGAAGUCCAAUUGUGAAACAGACUAAAAAAAAA'
p279
aF0.9310344827586207
aa(lp280
S'Looking Back Again'
p281
aS'CCCAAGAUUAGUAAAAAGGGGCCAAGCCCCGCAGCUAAAACCAGCAAAGCUAUGCUGCGAUAGGCAAUGAUCGAAAGGUCUAAGACCGAAAGACGAAGCAAGGGUUGAAAAAGGGGGUCAAAGUCCCAAAAAAUUAGGGGCACGGAAAGUCCGUCGGGGAAACCCCGGGGCGCCUAAUAAUAAUAAUAAUAGCGGCAAAAGCCGAAAAGAAAAAGAGAGCCCAAAAGGGAAGCGCCCAAAGCCCCAUACAACCUCAGGACAAAAAAGGUAGGUAAAAAAAAUAGCGAAAAGCUAACCUAAAACUAGCCUGGGCAAAAAUGCCGGGGCUAACGCCCCGAAGUGCCAAAGGAAAGGCAAGGCCUUAACCCCCUAAAGCCCGCCGUAAAGGG'
p282
aF0.8406169665809768
aa(lp283
S'Multilooping 6'
p284
aS'AUGUUUUGUCACUAAGAAAUUAGGGGAGCUAAUGCUCCGACUUGGAGCCUAAUGGCUUGGGUUUAAUGAUCCUAAAAAACUA'
p285
aF0.926829268292683
aa(lp286
S'Cesspool'
p287
aS'GUAGAGGAAAACAAAGCAACAGAGUCAAAGACAACAAGAAGGUAAGAAGAAAAUAACAAAAUAAAAGAAUAAAAAAUAAUUAACAUUAAGAAUAGAGAAAUAAAGGUAGAGAGUCAAAGGCAACAAUAUGAAGGGGGUAAAAGAACACAAUAAAAGAAGAAAAAAAAAAUAAAAACAGGCAAUAAGAAAACGAAGCAAAAGAGAUAAAGCCAACAAAAAGCCGUUAAUAAAAGAAGUAAAAAAAAUAAUAAAAAUUAAUGAAAAAGGAAGCAAUAAGAAAACGAAACAGGAGACGCAAAGCGAACAAUAAGCUGAGAAUAAAAGAACAAAAUAAAAGAAUAAAAAUAAAAGAAAAAGC'
p288
aF0.7541899441340782
aa(lp289
S'Hoglafractal'
p290
aS'AAUACUAAGGGGCCAAAAGGGCAAAAAAGCCCUGCCCCGGGCAAAGCGUAAAAAACGCGCCCCGCAAACCAAAACGUGCGAGCUUAAAGGCAAAAGGCAAAAAGGCCCGCCCCGCAAAGCAAAAGGCUGCGCAAGCAAAAGCGAAGGGAAAAAGCAAAUGCAAAAAAGCGUCUCGAGAAAAAGGCGGCGCGAUAGCAACGGGUAAAAAACAGGAAAAAACCUCCGCGAAAAGCGUCGAAAGAAAGGGGCGAAAAAAGCAAAAAAGCUAUAAAAAAUGAAUGGGGGCAAAGCCCCCGAAAAAAAGCCUCUAAAAAGACCAGAAAAACCUCAAAUAGCAAAAGAAGAAAUGCCAUGAGAAAAUCAAAAGACCAAAGAGUCGGGAUAUUCCCGAAACCGGGAA'
p291
aF0.8875
aa(lp292
S'Bullseye'
p293
aS'AAGUGCUGACUAUGCAGGGGGGCGAAGUCUAAUGAUGAAACCAGCGAAAAAAAGAACUAGCGAAGCUGAGCUGAAAAUUAGAAAGCCAAAGGCUGUUAAAAAAAAACUGCACAAGGCGCGACGGCUAUGCCGGAUCGGAAUGUCCAGGGAAAAAAACGUUUGAAAAUGAGAAAGGGGAACCCUGAAGCAAAAGCAAGCGGAA'
p294
aF0.8415841584158416
aa(lp295
S'Shooting Star'
p296
aS'GGGGGCUCGCGUCGUAGAAACAAAGCGUCGCAGGCACGUAAUCAGGCACGCGUCAGAACGAACUGCGACAAGCGAAAUAAAACUGAACAAGGACAGGCACGGCAUAAAAAGAAGCCUGGUCGAUCCCGGUUAAAGGACGGAUGAAAAAAACACUGUGCCGGGCAAAGCCCGAAGUGCGAAGCACUAUGUAAUCUUAGCACAGAAACAGUUAUGGAAAAAUCGGGAUAUUCCCGGUAGACGCAAGGCCCUACCCGGGGGCGAAACGCCUCCAAGCGUAAAGCACCAACGUACAAAUGAAAAAGAAAAGUGUUGUGCAAUGGCAGCAAAAGACGCCAAUGCUUAUAAUAGUAAGUCUAAGCUCUUA'
p297
aF0.7994505494505495
aa(lp298
S'Teslagon'
p299
aS'AAAAAAGUAAAAAAACCAAUAAAAAAAGGAGUAAAAAAAAAAAAAAAGCAAAAAAAAAGGAAAAAAAAAAAAAAAGGAUCAAAAAAAGUAGUAAAAAAUGCUAAAAAAAAAAAAAUGCUAAAAAAGUAGUAAAAAAAAAAGGAAAAAAAAAAAAAAAACAAAAAAAAAACAAAAAAAAAAAAAAAGCGUCCAAAAAACCGACAAAAAAAUCUAAAAAAAAAAAAAUGAAAAAAAAGCACUAAAAAAAGUUGCAAAAAAAAAAAAAAAGAGAAAAAAAAUGAAAAAAAAAAAAAAAUGUGCAAAAAAAGCGGUAAAAAAACAAAAAAAAAAAAACCGAAAAAAAAAAAAAAGGAAGAAAAAAGUCAGGAAAAAAAGCAAAAAA'
p300
aF0.8900523560209425
aa.