(lp0
(lp1
S'Simple Hairpin'
p2
aS'GCUACAAAAAAGUAGC'
p3
aF1.0
aa(lp4
S'Arabidopsis Thaliana 6 RNA - Difficulty Level 0'
p5
aS'GCUAUACAAAUGACAAAAAAAAAAAGUCGCUAUAGCUUGAUAUAUAGAUAUAUAGAUAAAGCUACAAAAAAGUAGCAGUCUAUAAUAUCUAUAUAUCUUGCUAUAGCAAGUAUAGC'
p6
aF1.0
aa(lp7
S'Prion Pseudoknot - Difficulty Level 0'
p8
aS'GCUAUCAGAUCAAAAGAUCGAUAAGCAAAAAAAAAA'
p9
aF1.0
aa(lp10
S'Human Integrated Adenovirus - Difficulty Level 0'
p11
aS'GGGACAGAUAGGGCGGCUGUUCAAAAAAAAAUGAUCCGAUUCGUUCAUACCUGUAGUAAAAGUCAUAAUGUUAUGAAAAAAAAUAACGUUAUAAAAGACACUAUGAAAGUCGCGAAAAGAUCGAAAGUUACCUAAAAAUGGUAACGAUUUAAAAAAAAAAAGAUAGCAGCUUAAAAUAUCUGAAAUUUCAAA'
p12
aF0.9791666666666666
aa(lp13
S'The Gammaretrovirus Signal - Difficulty Level 0'
p14
aS'AAGUCUUGCCAGCUAAUGUUGGUUUGUCAAAAAAGAUCAAGACAUGUCCAUACAAAAGUAUGCAAAGAUGGUCGAUCAGGCUAUAGCAAAAGCUAUAGCAA'
p15
aF1.0
aa(lp16
S'Saccharomyces Cerevisiae - Difficulty Level 0'
p17
aS'GCGAUCCUGAUUAAAAAAUGACGACCGAAAAAAAAAAAAAAGACAACGCUAUUAAAAAUGUAGCGGAUUGCACAUGCCUUACAAGAUCUAAAAAAUGGUCGGCUAAAAAAAAAAAUGCCAAAUCCUGCGAAAAAAGCAGGGUAAGGCUAAGGCUAAUGAAGUUCGAAAAAAAGAACCCAUCCGAAAAAAGGAUGGAAAUGCAACAAAAAAAGUUGCCAUUAGCAAAGGCUGGUGAAGAUCUAAAAAAUGAUCCGUUAAUAAAAAUUUAACGAAAUACUGUGAAAAAAACAGUCACCAGCAAAAUCUGAGGAAGGUGAAAAAAAGCAGCCUAAACUAAAAAUGUUUAGUAAUGGGACUAAAAAUGGAGCCUUUAGAGAAA'
p18
aF0.9947229551451188
aa(lp19
S'Fractal 2'
p20
aS'AAAAACGUACAGCUAAGAUAUAGAGGAAGAGCGAAAAAAAAAGCUCAAGCGCAAAAAAAAAAGCGCGGGAACAAAAAAAAAAGUUCAGUCUCUGUGUCAAAGAGAGAGACAAAGGGCAAAAAAAAAAGCUCGGGACGGAAAAAAAAACGUCAAGGCAGAAAAAAAAAUGCCGGUGUCUCUUUCGAAGAUAGAUAGAAUGUUCCAAAAAAAAUGAACUAUGUCAAAAAAAAAGGACGAGGGUCAAAAAAAAAAGACCAAUCUGUCUAUCGAUGCUGUAUGAAAAA'
p21
aF1.0
aa(lp22
S'G-C Placement'
p23
aS'ACACAAAGUGUA'
p24
aF1.0
aa(lp25
S'The Sun'
p26
aS'UUCAGUUAUCUAAAGGAUAAAACGAGAAUGGCACGGUUACUGUGUAUAAUGCGCAUAAGAGAGCCAUGUAAAGUUUAAGGCCUCGAACGCAGCUAUCCUAUGAAGAAAGCGUCAAGGGCAUCUGCGCAAAGCGUAAAGAGUCAAGUACAACUUUGCUAUGUAAAAGGCGUGAAAGACAGUCACGCAAGGUGUAAGGCGUCAAAAACAGUUUGAAUAUAAUGAAAACGACAAACUCAGCUGUACAAAGUACAAAGCGAG'
p27
aF0.872093023255814
aa(lp28
S'Frog Foot'
p29
aS'AAAAAAAAAAGAUGUAAUCAUCGGGAUAAUUCCCGCGCUACGCGC'
p30
aF1.0
aa(lp31
S'InfoRNA test 16'
p32
aS'GCUAGCUGGAGGAGCUAAUGCUCUAUCGCUGUUAGC'
p33
aF1.0
aa(lp34
S'Mat - Martian 2'
p35
aS'GAUCAAAAGAUCAAAGCUAUACAAGCUAUACAAAAAAAGUAUAGCGUAUAGCAAAGCUAUAGCAAAAAAGCUAUACAGCUAUACAAAAAAAGUAUAGCGUAUAGCAAAGAUAUAGAGAUAUCAAAAAAAGAUAUCUACUAUAUCAAAAAAGCUAUAGCAAAGAUAUAGAGAUAUCAAAAAAAGAUAUCUAACUAUAUCAAAGGUCAAAAGACC'
p36
aF1.0
aa(lp37
S'square'
p38
aS'GCUAUACCAGAGCCAUAGACCAUAGCAAAGCUAUGAAAAGUCUAUGAAAAGCUCUGAAAAGUAUAGC'
p39
aF1.0
aa(lp40
S'Six legd turtle 2'
p41
aS'AAAAAUGAAAGCAAAAGGAAAACUAAGGCAAGGAUAAUUUAAAAAUAAUUUAAAGCAAAAGUAAUAUAAAAAUUAACGAAAAAAAAAAAAAAAAAAAA'
p42
aF0.9591836734693877
aa(lp43
S'Small and Easy 6'
p44
aS'GGCGCAAAAUGCAAGGGAAAAAAAACCGCC'
p45
aF1.0
aa(lp46
S'Fractile'
p47
aS'AAAAAAAAAAAACGGAAACGAAUCCAAAGCAAAAGUGUCGAAUUCAAAAGGUAGUGAACGAAAACGAAAGGUUACAAAGUCUAAAAAAAAAAAAAAAAAAAAAAA'
p48
aF0.9619047619047619
aa(lp49
S'Six legd Turtle'
p50
aS'AAAAAGGAAAAUGGAAACAGAAUGCUAAUGUUAAAGCGAAAUAAAAUAAAAAAUUUAAAGAAAAAUCAAAAGCAAAAGCGAAACGAAAAAAAAAAAAAAAAAAAA'
p51
aF0.9619047619047619
aa(lp52
S'snoRNA SNORD64'
p53
aS'GCUAUCAAAAAGACAAAAGACAAAGCUACAAAAAAAAAAAAAGUAGCGAAAGUCAAGUCAAGAUAGC'
p54
aF1.0
aa(lp55
S'Chalk Outline'
p56
aS'AAAAAGAUCACCUACAAAAGUAAGGAGACAGACAAAAGUCGUCAGCUAGUAAAAGCAUAGCAGGCACAAAAGUGACCGAUCAAAAAAAAAAAAAAAAAAAAAAA'
p57
aF1.0
aa(lp58
S'InfoRNA bulge test 9'
p59
aS'GCUAUACAGAGAGAGCUAUACAAAAGUAUAGCCCCGUAUAGC'
p60
aF1.0
aa(lp61
S'Tilted Russian Cross'
p62
aS'AAAAAUUCGGAGCAAAGGCUCGACCAGGUCAAAGGAUCGUUACAAAAGUAACAUAUCGAAAGAUAGGUCCAUGGAAACAUGCGAAGAAAAAAAAAAAAAAAAAAA'
p63
aF1.0
aa(lp64
S'This is ACTUALLY Small And Easy 6'
p65
aS'AAAAAAAAAAAAAAAAAAAAAAAAAAAAAAAAAAAAAAAAAAAAAAAAAAAAAAAAAAAAAAAAAAAAAAAAAAAAAAAAAAAAAAAAAAAAAAAAAAAAAAAAAAAAAAAAAAAAAAAAAAAAAAAAAAAAAAAAAAAAAAAAAAAAAAAAAAAAAAAAAAAAAAAAAAAAAAAAAAAAAAAAAAAAAAAAAAAAAAAAAAAAAAAAAAAAAAAAAAAAAAAAAAAAAAAAAAAAAAAAAAAAAAAAAAAAAAAAAAAAAAAAAAAAAAAAAAAAAAAAAAAAAAAAAAAAAAAAAAAAAAAAAAAAAAAAAAAAAAAAAAAAAAAAAAAAAAAAAAAAAAAAAAAAAAAAAAAAAAAAAAAAAAAAAAAAAAAAAAAAAAAAAAAAAAAAAAAAAAAA'
p66
aF1.0
aa(lp67
S'Shortie 4'
p68
aS'GCAAAGGCAGCGAAAGC'
p69
aF1.0
aa(lp70
S'Shape Test'
p71
aS'AAAAUCGGAUCGAGCUACAAAAAAAAGUAGCAAGACUGGCAGUUACGAAAAGUAGCGGAUCAAAAGAUCAGCCGUCAAGAUCGGCAAAAAAAAAAAAAAAAAAA'
p72
aF1.0
aa(lp73
S'The Minitsry'
p74
aS'CUGAAAAAGCCAAAAAGAUAAAAAGAAAAAAGGCGGAAAAAAACGCAUUCGAUCGGGCGCAG'
p75
aF1.0
aa(lp76
S'stickshift'
p77
aS'AUGCGAUCACAAAAGGUGGGUUGCUA'
p78
aF1.0
aa(lp79
S'U'
p80
aS'AAAAAGCUACAGAGAGCAGAGCUAUAGAUGAAAGUCUAUAGCCGCCCGUAGCAAAAA'
p81
aF1.0
aa(lp82
S'Still Life (Sunflower In A Vase)'
p83
aS'AAAGAUCAAGGAUCAAAAAGAUCUAGGCAAUAAAGAAGCAAGCUACUAAAUGUAGCAACUUAGAAACAAGCAGGCUACAAAAAGUAGCAAGCCACAAAAAGUAGAACAUAUUUAUUUAUAUAGAUAUGUGCUACAAAAAAGUAGCAGCUACUAAAAAAAAAAAAGAUCAAAAAAAAAAAAAAAAAAAAAAAAAAAAAAAAAAAAAACCCGAUCAAAAAAAAAAAAUGUAGCUCAUCAAAAGAUGAAACAUAUCUAUAUAGAUAGAUAUGAUACUGCAAAAAGCAGUUACCAUCUAAAUGAUGCAAUCUAUAAAAAAUAGAAAUCCAAAAAAACUCGCAAGUAACAAAAGUUGCAAGCAUCAAAAAGAUGCGGAUCAAA'
p84
aF0.9470899470899471
aa(lp85
S'Quasispecies 2-2 Loop Challenge'
p86
aS'AAAAAGAUUGUGGAAGGUCGAUAGACCGUCUGCACAUUAUUGAAAUGAAGUAAGGCAAGUAUGCUAAAUGUCGGUGGGCUUAAUCAAAAAAAAAAAAAAAAAAAA'
p87
aF0.9809523809523809
aa(lp88
S'Corner bulge training'
p89
aS'AGCUAUCGCUACAAAGUAGCAAAAGAUAGCA'
p90
aF1.0
aa(lp91
S'Spiral'
p92
aS'AAAAAGAUCAGCUAUCAGACAGCUACAGAUCAGAUCAGCAGCAGCAGCAGCAGCAAAAAGCGCGCGCGCGCGAUCGAUCGUAGCGUCGAUAGCGAUCAAAAA'
p93
aF1.0
aa(lp94
S'InfoRNA bulge test'
p95
aS'AAAAAAAAAAAAAAAAAAAAAAAAAAAAGGCUAAAAAAAGGGCUAAAGCACAAAGAACAAGAACAGAGCAAAAAGCGUCAGUAUCGGGUAUCGAAGUAGCAAAAUGCACCAAAAAGUACGCA'
p96
aF1.0
aa(lp97
S'Worm 1'
p98
aS'AAAAAAAGGAACACACAGAAAUUAAAAAUUGUACUGGAGUGAUAC'
p99
aF0.9555555555555556
aa(lp100
S'just down to 1 bulge'
p101
aS'AAAAAGAGCAGCUACAAAAGUAGCAGACAAAAGUCAGCAUCAAAAGAUCAGACAAAAGUCAGACAAAAGUCAGAUCAAAAAAAAAAAAAAAAAAAA'
p102
aF1.0
aa(lp103
S'Iron Cross'
p104
aS'ACACAGACAAAGGCACACAAAGUGAGCCAAAAGGCAGCCAAAGGCACACAAAAGUGAGACUACGUCAGCCAAAGACACACAAAAGUGAGACAAAGUCAGUCAAAGUCACACAAAGUGAGUGGA'
p105
aF1.0
aa(lp106
S'loops and stems'
p107
aS'AAAAGGCUAUACAAUGUUCAAUGAUCAAAUACAGAAAAAAAUGCUAUAAAAAAAAAAAAAUAGCUAAUGUAGAAAGAGGGAAAAAAAAACCUCAAAGAUCUAGGCUUAAAAAAUGGCAAAGAACUUGCUAAAAUGCUAAGUAUAGCAAAAA'
p108
aF1.0
aa(lp109
S'Water Strider'
p110
aS'AAAAACUGGCGAUCGGUAGACAAAGAUCUCCGAAAGGAGUCUGGGGUCCUACUAAUGUAGACAAAGGUCAGUGGGAAGCAACGAAAAAAAAAAAAAAAAAAAA'
p111
aF0.9320388349514563
aa(lp112
S'The Turtle(s) Move(s)'
p113
aS'AAACCGAAAGCAAAAGCUACAGAUGAAAAAAAAGUCUGUAGCGAAUGGCCGAAAAGGCCUCCCGCACAAAAGAGAGGGCUCCGAAAAAAGGAGCAAAAGACAAAAUGAAAAUGAAGAGGCAAAAGUCAAAGGCCACCUAAAAAUGGUGGCAAAACUGAAAAUAGGAAAAGCCAUCAAAAGACAAAAAAGGUCAAGACAAAAAAAGGUCAAAGCUACAAAAAAGUAGCAAAGGUGAAAAACACCGGGAUGGCGAAAAAAAAUCAAAAGGGGAGGCUGAAAAGAAAAAAGAUACAAAAAAAAAGGUAUCGCAAAAGUC'
p114
aF0.9873417721518988
aa(lp115
S'Adenine'
p116
aS'GCUACAGCUAUCAGCUAUCAGCUAUCAGCUAUAAGCUAUCAAAAGCUAUCAAAAAAGAUAGCAGAUAGCGGCUACAAAGCUAUACAAAGUAUAGCGUGGCAUAUAGCAGAUAGAGAGAUCAAAGAUCUCUAAACUAUCAGAUAGCAAAAGAUAGCAAAAGAUAGCAAAAGUAGC'
p117
aF1.0
aa(lp118
S'Tripod5'
p119
aS'AUGGGUCUUCGAAAAGAAGCUAGGAAAACUGGGCCUGA'
p120
aF1.0
aa(lp121
S'Shortie 6'
p122
aS'GCAAAAGCAGCAAAAGCAGCGAAAGCAGGGAAACC'
p123
aF1.0
aa(lp124
S'Runner'
p125
aS'AAAAGGAUCACAACUAAAGGAACAAAGUUCAGCUGAAAGCUUAAGCACCAAAUGUAAAGGUUAUAUCAAAAAUAAAGUCUAGCAAAGAGAAGGACAAAAGUCAUUCGGGUCAAAAA'
p126
aF0.9482758620689655
aa(lp127
S'Recoil'
p128
aS'AAAAAGCUACAAGCAAGCAAGACAAGACAAGCAAGCAAAGCAGCAGUCAGUCAGCAGCAGUAGCAAAAAAAAAAAAAAAAAAAAA'
p129
aF1.0
aa(lp130
S'[CloudBeta] An Arm and a Leg 1.0'
p131
aS'AAAAAGACAGCUACAAAAGUAAGCGACAGCAAAAGCGUCAGUCAAAAAAAAAAAAAAAAAAAA'
p132
aF1.0
aa(lp133
S'[CloudBeta] 5 Adjacent Stack Multi-Branch Loop'
p134
aS'AGGUCGGUUGAAAGACCGCUACUAAUGUAGCCAAGCGAAAGCUUGCGCCAAAGGGCGGGCCUA'
p135
aF1.0
aa(lp136
S'Triple Y'
p137
aS'AAAAAGCCUAAGACAACGAAAGUUGGAUCGAUAAAUCUCUUUCGCGUUCGAAAGAACGAUAUAAUGAUGGCUGGGGAAAAAAAAAAAAAAAAAAAAA'
p138
aF0.9175257731958762
aa(lp139
S'Misfolded Aptamer'
p140
aS'GGCGAAAAGUACUUCAACGAAUGGGAAAUCCGAGGAGGGGUAAAAGCGUC'
p141
aF0.96
aa(lp142
S'Flower power'
p143
aS'AAAAGGCUGGCGAAAGUCGUUAUGUGCCCAUGUGGCUAGUCUUAUGAACAUGAGUAAUAUUCGCAUUGUUGGAACAGCCUUCAAAAAAAAAAAAAAAAAAAA'
p144
aF0.9117647058823529
aa(lp145
S'Kudzu'
p146
aS'AAAAAGCCGAAAGGUUGAAAGAGAAGCAAAGCCCACCUCUCUAGGAAUCCAUAGGAUGCGGAACUCUAACAGACAAUAGGCAAAAAAAAAAAAAAAAAAAA'
p147
aF0.9801980198019802
aa(lp148
S'"1,2,3and4bulges"'
p149
aS'AAAAACACCUAACUGUAAUGAGAAACUCUGCAAAAAUGCGGCAUGAAACUGGCUUCCACAGCUAAUAAUAUUAAUGUAUUCAAUAAAAAAAAAAAAAAAAAAAAA'
p150
aF0.8857142857142857
aa(lp151
S'medallion'
p152
aS'ACUAAGUACUAUCCAAAGAGGGCGGUCGAAAGACAUUCAAAAGGCAGCUUACAAAAGUGGGCAGACAAAAGUCAGCUUUCAAAAGGAAGCGACCAAAAGCUAGACGAAAGUCAACAAGGUAAAGAUACCAGACAAAAGUUACCUAUAAAAAUAUAGGAGCCAAAAGCCAGAGAAAACUGAGCUCUCUAAUGGGAGUGCUCAAAAGGGAACUGCCAAAACGUAGAAGAUGAAAUUCAGCCGAAAGGUAGCCAUUAAAAGAUGGCAGACGAAAGUCACCAAUCGAAAGAUUGGAUAAAAAACUCAGUUAAAAGUCAUAAAUCAAAAGAUUUGGUUUAGU'
p153
aF0.8753709198813057
aa(lp154
S'[RNA] Repetitious Sequences 8/10'
p155
aS'AGCAAAAAAGCAAAAAAGCAAAAAAGCAAAAAAGCAAAAAAGCAAAAAAGCAAAAAAGCAAAAAAGCAAAAAAGCAAAAA'
p156
aF1.0
aa(lp157
S'Documenting repetitious behavior'
p158
aS'AAAAAAAGUAAAAAAAAAGAGAAAAAAAAACAAAAAAAAAGGAAAAAAAAAUCAAAAAAAAACCAAAAAAAAAUAUAAAAAAAAGCAAAAAAAAACCAAAAAAAAAGCAAAAAAAAAGCAAAAAAAAAGCAAAAAAAAAGCAAAAAAAAAGAAAAAAAAAAGCAAAAAAAAGGUAAAAAAAAAGCAAAAAAAAAGUAAAAAAAAAGCAAAAAAAAGGCAAAAAAAAAACAAAAAAAAACCAAAAAAAAAUCAAAAAAAAAGUAAAAAAAAAGCAAAAAAAAAGCAAAAAAAAAGAAAAAAAAAAGGAAAAAAAAAGCAAAAAAAAUGAAAAAAAAAAACAAAAAAAAAGAAAAAAAAAAACAAAAAAAAGGAAAAAAAAAAGUAAAAAAAAAACAAAAAA'
p159
aF0.96
aa(lp160
S'7 multiloop'
p161
aS'GGCCCUCACGAAAGUGGGACAUCAAAGGAUGUCCGUCGAAAGACGGGAGACGAAAGUUUCGCUAAGAAAUUAGCGCCGCUAAUGCGGCGGCC'
p162
aF1.0
aa(lp163
S'Kyurem 7'
p164
aS'AAAAUCGUGGACCGUAAAGACGUCCAAAAGAGUUCGCGAAAAGCGAGACGACGAAAAAGUUAAAGUCCCGACUAGUCACACGUAAAAAAAAAAAAAAAAAAA'
p165
aF0.9803921568627451
aa(lp166
S'JF1'
p167
aS'UUCAGAGAAUAAGCUACAAGCUACGAAAGCUAUCAAGAUACAAAGCAUCAAGAUAGCAAUAUAUAGAUAUAUGAAAGUAUAUUUAUAUAUAAGACAAAAGUCAGCUAUAGAUGAAAAUCUAUAGCGUGCUACUAAUGUAGCUGCUAUCAGAUGCAGUAUCAGAUAGCAAAGCUAUAGCAAAAAGCUAAUAGCAAGAUAUAUAGAUAUAUAGAUAUAUCAAAAGAUAUAUCUAUAUAUUCUAUAUAUCAAAGCUACAAAAAAGUAGCCAUAGAGAUCAAAAGAUCUCUAUGAGAGAUAAAAAUAUCAAGUAGCAAGUAGCAUAGCAGACAGACAAAAGUCGUCGCUGAGCUAGAGAUGAAAGUCUCAUAGCAUAUUACUCAUGAAAAA'
p168
aF1.0
aa(lp169
S'multilooping fun'
p170
aS'CUACGGUAAGAAAGGGAAAGUAAAGCUAAAAAUCGC'
p171
aF0.8333333333333334
aa(lp172
S'Multiloop...'
p173
aS'GAUUGGAGUCUCAAAAGAGGUGAUAAAAUUCUAACAAAAGUUACACAAAAAUAAGAGAAAAUUCGGGCGAAAGCCAGUUCAGAUCAAAAAAGGGAUCGACGAAAGUCGAUC'
p174
aF0.9459459459459459
aa(lp175
S'hard Y'
p176
aS'AAAAUGAUCUUUGGCAGGGCUAAUGCUCUGUACAAGACAUAGAGCAAAGGCUCUAUGUCGAUCUAAAA'
p177
aF0.9705882352941176
aa(lp178
S'Mat - Elements & Sections'
p179
aS'AAAAAGACGGGAAUGAGGUAUGUGUACACUCGUAGACCGAACAAAAGUUAGCAUUACGUGGUACUAAGCUUGCCGCUAGCGCGUUGAAAAAAAAAAAAAAAAAAA'
p180
aF0.9619047619047619
aa(lp181
S'Chicken feet'
p182
aS'AAAAAGUAGCUGUAAAGCAUUAAAAGGAAGCGGGUCAGUAGAGAAUCCCGAAAGGAAUUGGGAAAAA'
p183
aF0.9104477611940298
aa(lp184
S'Bug 18'
p185
aS'AGGGAUAGCAAUAAACAAGAGGCAAAGCUAGAGACAAGAAACGAACAAAAUCA'
p186
aF0.9245283018867925
aa(lp187
S'Fractal star x5'
p188
aS'AAAAACCUGCAGUAAUGACAAAAGUCGAUGAUCAAAAGAUCUAUGUUGAAAAACGAUGGUAUAAUUAUCUAACUGCAGGAAAAAUCAUAGGAAAACACAAAAGUGUAGUAUCAAAAGAUGAGGACCAAAAGGUCAAGAUAAAAAUAUCAAUCCUAUGAAAAAACGCUAUGUAUGCAGGAAACUGCUAGAUCAAAAGAUCAAUGUCUAAUGACGGAGAGCUAAUGUUCAAACAUGGUGAAAAAACAUUUUUAGACACAAAAGUGUAAGAUUAAAAGAUCAAUGCCAAAGGGCACCGGGAGAAAUUCCAAAAAAAUGUAAAAACCCGAGACAAACACUAAUGUGUAUGAUUAAAAGAUCUAGAACGAAAGUUUAAGCUCGAAAGAGCAGGUUUUGGGAAAAA'
p189
aF1.0
aa(lp190
S'Crop circle 2'
p191
aS'UCAAUCGAAAAGAAAAAGCGCAAAAAAAGGGGAAAAAAAAAAAAAAAAAAAAAAAAAAAAAUUAAAAAAAAAAAAAAUUGAAAAAAAAAUCGAAAAAACGUAAUGGAAAA'
p192
aF0.9363636363636364
aa(lp193
S'Branching Loop'
p194
aS'ACGUUCAAAAAAAGUCAUCAAAGGUUACAGAUGGAAAAAA'
p195
aF0.95
aa(lp196
S'Bug 38'
p197
aS'GAGUACUGGCUGCGUAAAAAGGUCCAUGUAAAUUUA'
p198
aF0.9444444444444444
aa(lp199
S'Simple Single Bond'
p200
aS'AAAAAAGGAAAAAAAUGAUCAAAAAGAUUUAAAAAAAACAAAAAAAAAAAAAAAAAAAAAA'
p201
aF1.0
aa(lp202
S'Taraxacum officinale'
p203
aS'CAGCAAAAGAAAGUGCUGAAAGCAAGCUAUUGAAAAUAACAGAAUCAAAAGAAUAAGCGGAAAACAUGUCGAUUAAAACAAUCUGAUAAGGAGAUGAUAGAGGGAUUAUAUCUACUCUAUCAGCUACAAUUAUAGGGAUGAGAUAGACAAAGUCUAUCAGUCUUUGUAGGAUCAGUUUUCGAAGAGAGCGAUCGUAGCGAAAUCUCUUUAUCAUAUCAAAAGAAUGGUACUCAAAAAGUAAUUUCAAAAGAAGAGUUUCGAAAGACAAAGACAAAAAGGAUC'
p204
aF0.8829787234042553
aa(lp205
S'Headless Bug on Windshield'
p206
aS'AGCAGGGAAAGUUCUGUAACCAAUCAAAAAAAAAAAAAAAAAAAAAAAAGCAUGGCGAUCAGAAUAGAUCGGCAGACUAAUGACUCAAAAAAAGGGAAACCAAAAAAGCGUGUAAAAAUGUCGUCUUUGAAAAAUCGCAAGAUUCACUGCUAUGAAAAAAAAAAAAAAAAUCGCAGGACGUGUUUAAGACUAGUAUAGGG'
p207
aF0.95
aa(lp208
S'Pokeball'
p209
aS'AAUGCCAUACAAAAACAAGAAUGACAAGAUCGCAAGGAAGCGUGCGAGGAAACCAGCUUGCACCGGCCUUCAAUCUUCGGCGUAUGGCUAAAAAAAGUUAUACAAAAGCAAGAAAUUCAGGAAUGCGAGGAAGAUAGCUAGGAAACCUGCGUUCGCCAGUUUUCAGAGGCCAGCGUAUAGCAAA'
p210
aF0.9782608695652174
aa(lp211
S'Variation of a crop circle'
p212
aS'AAAAGCAAAAGUGAAAACAAAAUCAAUUAAGGAAACUGUGGAAACAUGAAAAACUGAAAAAGCCAAAAAAAAGGAAAAAAAAAAAAAA'
p213
aF0.9545454545454546
aa(lp214
S'Loop next to a Multiloop'
p215
aS'AGGCUUUAGGAAAAAAAGGGGGAUCUAAUGAUCUCAGCGACUCAAAAGGGUCGUAUAAAAAAAUCUAAAGCAA'
p216
aF0.9726027397260274
aa(lp217
S'Snowflake 4'
p218
aS'CCAUGAAGUGGUUAUGGGAAAAUCCAAUGGUGCGAGGAAAAAUCCCGUCGGUCAAACAUCAAGAGCAAAGUACGACGGGCAAAAUCUUCGCUGGGGACCCAAAAGCCCAUCUAGCAAAGAUAAAGGUCAAGGAUCGAUGGACAAAAGGGUCUCAAGCGCGUUAAAAGGCCAUCUCUCGAAGAGAAAGAGCUAUGCUCGAUGGCCUAAUGUCGCGCGGGCUUCGGAAAAGUGCAUAUAUCAAAGAUAAAGACCAAGGGUCAAUGUCGUAAUCCGAAGCAAGCUACGAGAAAUCCUAGCGUUCUAUGAACAAUCCUAAGUGGGGUUGGAUAAAAGUGUAGGUACAUUGGGGAAACCCAUAGGCUUGAAAAUC'
p219
aF0.8756756756756757
aa(lp220
S'Mat - Cuboid'
p221
aS'GAUGGAAAAGGAAUCAAAAGGAGUGAAAAGAUCCGAACAAAAUCAAGAAAGGAAAAAAAGCAAGCAGAUAAAAGCAAUCAAUCAAGCAAAAGUGAGCAAAAAAUUAUCUAAAAGCUUCAUGCGUUAGAAGCAAAAGGUUGCUGGAUUGCUGGGAUGAAAAAGCGUGCAGGCGAGAUUGCAUGGAAAAGCAUUCGUGCUAAUUUUGUUCCGAAAAAGGUUUAUUAUGUACUAGAAUGUUUUGGCUUAAUAAUAUGGUAAUGUUGUCAUGCUGGCAUGCUUCCGAGGUCUUCCAUUGUUGCGGACGGAAGUAAGUAAUUGCGAGAGAGGAGGCGCAAGGGAGGAAUUCAACCAAACGUAAGGGAUUGAAUCGAAACCUCUAC'
p222
aF0.7263157894736842
aa(lp223
S'Misfolded Aptamer 6'
p224
aS'AAAAAUCGUACAAAAGAUGAGCAGGUCGUUAAAAAAUGCGUGAGGAAAAACAUCGAAAAAGACGUAAAAAAAAAA'
p225
aF1.0
aa(lp226
S'Snowflake 3'
p227
aS'GACCGAAAAAGAGAGAGCAAAAGCUAAGUUCAGAGCAACUCAAAGGAGCAUAAUAAAGGCCACAAAGUGCCGAAAGGAGUGCAUAAAAGUGAAGCUCAGUUCGAGACAAAAGUCCACAACAAAAGCCAGAAAUUGGCAAAAGCAGUGCGAAAAAGCGAAAAGCAGAUCUACACAAAAGUGCACAAGGAAACUGUCAAGGACUCAAAAGAAAUGCACAAAAGUGAUGAUCGGAUAAAGACGAAAGUCCACAACAAAAGUUACUAUGUGUCAAAAGGGGUGUAAAAAAGUAAAGAUCAGAACAAGACAAAGGUCCACAACAAAAAUGACAAAGUGACAAAAGGAGUCCACGAAAGUGAAGAUCAGAGCAAGAAAAAAUUCCUCGACAAAAGUGUC'
p228
aF0.7709923664122137
aa(lp229
S'Hard Y and a bit more'
p230
aS'AAAAUGCAACUAGAACGAUAAUUCGUGUUGGAGGGAGCAAGAUCUAAUGAUCAGUGUUCAAAAAGGGACAAGGCGUCUGCGUUGCUAAAAAAAAAAAAAAAAAAAA'
p231
aF0.9716981132075472
aa(lp232
S'Mat - Lot 2-2 B'
p233
aS'GAACGCCUAAGCAGGGAAACGUUGGACAGAAAGGAAAAUUAUAUCCAGUCAAAAUCUUGCCCAAGCAAGCAUUACAGAUAAAAAUCUGGAUCGAGGAAAAGCUAAUUCUCAAGGAAAAUCAUGAUGGAGGUCUUCGAACCUAAUGAGGCUCAUUCUCCAACAUUAUGAGCAAAGGCAAAAUCUGGUCCAUGAAAAAUCUGGUUCUUGAAAUAUGAUCCGUGUAAAAGUUUGGUUGAGUAAAAGGGAAACUAUGAACAAAAUCUUGCGUAAGCGCAAGGAAGAUC'
p234
aF0.6795774647887324
aa(lp235
S'Shapes and Energy'
p236
aS'AAAAAAGGGUUCGCCUCAAAAGGAAGAUCAAGAAAUGGAUCAAACGAGGAAGGAAAAACUCACUAAUGUGACCAGAACGCAAAAAAAAAAAAAAAAAAAAA'
p237
aF1.0
aa(lp238
S"Spiral of 5's"
p239
aS'CGAAAGAUACAAAGCUACAAAGCUACAAAUGCUACAAAGCUACAAAGCUACAAGCGACAAAAGCUACUAGUCUACAAAGCUACAAGCUACAAAGCUACAAAAGGACAAGCUACAAAGCUACAAGCUACAAGCUACAAGCUACAUGCUACGUCUACAGAUGGAGAGUAAAAAACUCUGGGGGCUAUCGAAAAGUAGCAAAAAGUAGCUAAAAGUAGCAAAAAGUAGCAAAAAGUAGCAAAAGGUAGCAAAAAGUGGCAAAAAGUAGCGAAAAGUAGCAAAAAGUAGCGAAAAGUAGCAAAAAGUAGAAAAAUGUGGCAAAAAGUAGCAAAAGGUAGCAAAAAGUAGCAAAAAGUAGCUAAAAGUGGCAAAAAGUAGCAAAAAGUAGCAAAAAGAAAAA'
p240
aF0.9949622166246851
aa(lp241
S'Campfire'
p242
aS'AAAACUGCGAACCUCAAGGGAAAUACCUAAAUGGUGAGCUCCAAGGGGAUGUGACCGCUUCUAAAAGAAGCUAUGAAAGCAAACCUUUGCUAGAAAAACAGCAACGGCGGCUUAUUAUACUAAUGUAGAAAUGAGCUAAGCAAGAAGCGAGGUAACAGUUAGGCAGAGUAAAGGCUCGUCAAUGUUCACCGGAACCGGAGACUUGGCCGUGC'
p243
aF0.839622641509434
aa(lp244
S'Anemone'
p245
aS'AAAGUUCUUGAAAAAGAAUGCGUGGAAAUAUGCGGUGUUAAAGUGCACCGCUAGUAAUCAAGCAGGGUUUAAUGACCUUGCUACUAAUGUGGCACUGUGAAAGUAGCGCAUUCGAAAGAAUGCAGUUUCGAAAGGAACGCUAAUAAAGGAUAGCGCACCUAAUCGUGCGAUGGGAAAGCUCGUCCACUCAAAGGGGUGCCACUUUAAUGGGUGG'
p246
aF0.9906542056074766
aa(lp247
S'Fractal 3'
p248
aS'AAAAGAUCCAGUGAGCAAAGGCGAUAAUGGAAGCAGGCAGAAAAUUCUCAAAAGUGGCUAGUCGGAAAAAUUGAAAAAUUAGACGUUCAUGAAAACGAUAAAAGUAGUCAGCACGAAAA'
p249
aF0.9243697478991597
aa(lp250
S'Kyurem 5'
p251
aS'AAAAUGCUGGUGCGCGAAAGUGGAUAAAACUGCGAAGAAAGGCUAAAUGCCUUUCUUAUAAAAUUGAACCUCAUCUGUAAUAGCUAAAAAAAAAAAAAAAAAAA'
p252
aF0.9230769230769231
aa(lp253
S'Snowflake Necklace ( or v2.0 )'
p254
aS'GAUAUAUUGAUAUAGAGCUUCUGCAAAAAGCAUCAAAAAGAACCAAAAAGGAUCAAAAAGAGCCAAAAAGCUGAAGCAGACAAAAAGACAGGCCCACCAAAAAGUAUCAAAAAGAUCGAAAAACGAUCAAAAGGAAGCAAAAAGUAGGGCUAGGCAAAAAGUCAAAUAUAUCAAAAAGGGAUAAAAGCUAGCAAAAAGUAUCAAAAAGAAUCAAAAAGAAGUAUUAGUCAAAAAGUCACCCAGAGCAAAAGGCAGGAAAAAGCGUCAAAAAGAAGCAAAAAGCAACGAAAAACGGUGGGAGGCAAAAAGCCAGCUAUAGCAAAAAGAAUCAAAAAGAACCAAAAAACGUAAAAAGUAGCUAAAAAAGAGUAGCACUAUAUCGAUAUAUC'
p255
aF0.8766066838046273
aa(lp256
S'Methaqualone C16H14N2O Structural Representation'
p257
aS'AAAAAAAGCUCGGAUGAGAAAAGCAAAAGCUGGACACAAAAAAUUGGGACACACAAAAGUGAGACAAGCAAAAGCUAUACAAAAAAAGUGAGUCAGUCAGUCAUUCAGAAGCACAUCACCUCAAAAAAUGCAAAGGAAACCGAAAAAAAGUGAGAUAGUCAAAGGGCGUCAAAAGUGGAGAAAAUCCAUCGCGAAAUAACAGAAAGAGACAGGCGUUAACACAAGCAAAAGAUAAAAGUCGACUUGACGAAAGUCUGGUAAAUAAAAGUUAGGGACACAAAAGUGAGUCACACGAGAAAACCAUACAAAAGUAAGCCAAAAGUCGUGAGUCAGUUGAAAGAGGAGAGCGAAAAAA'
p258
aF0.8845070422535212
aa(lp259
S"Cat's Toy 2"
p260
aS'AAAGGGUAGAGCUAAAACAAUGAAAAAAAAAAAAAAAAAAGAUGCAAGGCGAAAGCAAAGAGAAAUCAAAAAAAGGAUAAAAAGCGCUCUAUCAAAA'
p261
aF0.979381443298969
aa(lp262
S'Zigzag Semicircle'
p263
aS'AAAGUUACCACCAGAAAAGGACAUAGGUGAAAAA'
p264
aF0.9411764705882353
aa(lp265
S'Short String 4'
p266
aS'AAAAAUAGAGCGAUCAAUAAAUAGCACGGAAAUGGCAAAAAUGGGUAACUAAAAAGGGACGAUUAAGAGGAAGCCUUAAAAAAAAAAAAAAAAAAAA'
p267
aF0.9381443298969072
aa(lp268
S'Gladius'
p269
aS'GGAAACAAAGGAAGUAAGUAGUCAAGAAAGGCUGCCAAGGAGCAAAAGUUCUUCAACAUCAGACGAGGGACUAACAGAUCAACACAUAUAGUAGAUAACAUGUAUAUAUUAGUGCAAGAUUUAUGAUCAGCGACAAUAGUUAUAGAUUAUCAACUAUAUGAAGAGAUCAAGAAAUCAACAGUCAAAUGUAGGUUGCUAAGUCAUUCGCAAAGGUCACAGGAAGAGGAGACUGAGAGGUAUACAGGUUCUAGGCUCCGAUAUCAGAUAGCUAGCAAAAGUUAGCAAGUCGAAUAUACGAGUACAGAGCACGUAUAUCAAAGAGUCAAGCUGACAGAAGUCAGGAGCUGUGGAACAAAAGUUCAAAGGCAGUCGAGCAGGGCAUCAAUCAGGUUAAUAAAAA'
p270
aF0.905
aa(lp271
S'Thunderbolt'
p272
aS'ACGAUCUAGAAAAAAAAUAGAAAUGGGAGGGGGGAAACAGUUAUAGCAAAAAAAAAGUUAAAAAGAUUAAAAAAAUCGAAAAUACGGGGCUGGCAAAAAAACAUUAGAAAAAGCGGAGUGAGUAAAAAGAAGACACAUCAAAAAUAGAAAAACCAUGAUAAAAGCAUUGGAAAAUUGACGUCACAGAGAAAAACUAUUGGGAACCUGGUGGAAAAAACAGAGAUGGAAAAAAAGACGACGGGUCUAUCAAAGAUAGGAAUGUUCUAAAAAAAAAAGCAUACAAAAAAAAAAGUGGGAAAGCCGUGCAAAAAGUAAAAAAUCAAAAGGCACGGAAGAAUAAAGCUAUAGCUAAAAAAACAUGAGUCGAAAAAAUAAAAAAAGACUAGAAAGUA'
p273
aF0.8979591836734694
aa(lp274
S'Mutated chicken feet'
p275
aS'GAAAAAAUGAGGGCCAAAGCUACAAAGUUAAUAUGACCAGCGAGAAAGCAGCAAAACAAAGCGCUCCAGGGACAAAUCGGAAAAUUAAACCGGAAAAAAA'
p276
aF0.88
aa(lp277
S'Chicken Tracks'
p278
aS'AAAAAAAAGCUAUACACACAAAAGUGUAAGAUCAAAAGAUCAAGACUAAAAGGUCGUAUAGCAAGCCCUCCGAAGGAGAUGAACAAAGUUCUAGAGCAAAGCUCGGCAAAUAAAAA'
p279
aF1.0
aa(lp280
S'Looking Back Again'
p281
aS'GAGGAGUCGAGCAAAAGAGUAUCGAAGAUACUAGUUCAAGACCAGAAGACAAGGUCCUCUGGCACGAAGUUCAAAAGAGCAAAAGUGCCUAGUCGGGGCAAGAUCGACAAAAAGCUGCGAAAGUAGCGAAAAAGUCGGUAUCCAACUAUGUAGGGCCACAAAGUGGCGGUACUCCAACACUAAUUUUUUGUUCAUCAAAGGAUGUUUUGUUAAUGGGGUGUGGAAACGCUAGGUACCAAUAUAUCGAUCGGCUACAUCACAAAAAAGUUAUAGAAAAAAAAGAUCAAAAAGAUCCUAUAAAAACGGUGACCUCGAAAAAACCCAUAGAAAAUUAUGGAAUACGCAAAUUGCCGGUAAAGCCGGAAUUGGUAAAAGAGGGUAGCAAAUUC'
p282
aF0.897172236503856
aa(lp283
S'Multilooping 6'
p284
aS'AUGAAAACACCAUCCAAAGGGAUGUGAGGAAAACUUGGGUAAAGAGCGAUCCGACCGACGCAGAAAGUUAGCGUCUUUUUUA'
p285
aF0.926829268292683
aa(lp286
S'Cesspool'
p287
aS'CGAGAAGAAAGCAAGAGUUUAAGAAUGAAAUUAAUAGCUUCUCAUGUUAAAAACUAUAAUUGGAAAUUUUACAGGGAAAACAAUGAGAAUUUGAGUAAAAUAAGGGAUUGGCAGCAAAGUUUACAAAUGCUCAAGUUUAAAAAUUAGGGUUAAAAAUACACAGUGAAAACACCAUGGAGCAUAAAUGAAAGAAGUAUAUAGUUAGAUGCUGUACAGAUUUACAAAUUUAAAAAUUCGGGAUGAAAAUACACAGCAAAAAUUCGUGUCAAACUUAACUAAAAGAAGGUAUAAUAAGCAAAGCGAGAAGAUUCUCAGGUUGAAAAUCUCGGUUGGAAACUUUACAGUAACAAUACUUUGU'
p288
aF0.611731843575419
aa(lp289
S'Hoglafractal'
p290
aS'AUCGGUUAGCAUCAAAAGCCUCAAAAAGGAGGCGAUGUUAGAAAUCAUCGAUAAUAUCCCUGCACAAUACGAAAGUAGUGACACUAAUACCAAAGAUAUAAAAUUAUCGGUUCACACGCCAAAAAGGCCAGAUAGCAAAAGCAUAUAUCAAAAGACAAGACAAAAAAGUCGUCGCAGCUAAAUGCGUCGCGAAAGCGAGCUACAAAAGUUAGCAAAAAAGCAAAAUAAAAAAUACCAAAGGGGCCUAGUAAAAAAGAGAAAAGACUCACACAAAGUAAUAUAUAGUGAAGCUAUAUUAAAAAAAUUAGGAAAAAAGUAGCAAAAAGAUAAAAUGUGAAUGUAACUAAUACCAGAGCAAAAACAAAGUUAAAAAAGUGAUAACAAGGUCAUCCGUUCGGAA'
p291
aF0.905
aa(lp292
S'Bullseye'
p293
aS'AAAACCGAUUAAGAAUCAAGACGAAACGUCAAGAUGGAACAUAGGUAAUAAAAAGUUUAACAAAGAUCAGGGUCUAUGACCAAAGUCAAGGGUUAACAAAAAAAUAAUCAUCGAAGAUCAAAACCUAUGGUUGAGAUGAAGCAUCAUUUAAAAAAAGACGUUCAAAAAUUAAGGUCAAAGACCAACUUAAAAAACCGUCGAA'
p294
aF0.8514851485148515
aa(lp295
S'Shooting Star'
p296
aS'ACAGGGGGGCGCUAGACAAUAAGUCGUCGAGAGUCACUAAAAGAGGGACUUCACCUUUACUAGUCUAGCCGCUGGACUACUUGCGUCGAUAAGUAGACAGACCAGCAAAAUGCGGUACGUCACUUUAACGAAUAAUGUAUGCGAAAAUACUAGACCUACAGAGGAAUUAUGAGUAGCAAAGUUGUUAAAAAAUUAAGAGGACCCCAGGUCAGAGUAAAGUUGGGCGAAGCCCAACGGGCGCAAGGACUCACUUCAAUGUAGAAUAUGUUGAUGUCCGAAGGUGGGAUCGAGUAUGGAAACUAGUAUUAUGGUAGGCAGUAAAGCAAAAGACUUGAAGCCGAGAUUGAUGAGGGCUCACCCUGUA'
p297
aF0.739010989010989
aa(lp298
S'Teslagon'
p299
aS'AAAAAGGUUAAAAAAUCGACAAAAAAAGCGGCAAAAAAAAAAAAAACGCAAAGAGUCAGAAAAAAAAAAAAAAAAUCGGAAAAAAAAGCACCAAAAAAAGGAAAAAAAAAAAAAAACCAAAAAAAGGAUCAAAAAAUUCAUGAAAAAAAAAAAAAAAUCAAAGAGUCUACAAAAAAAAAAAAAAAGCAGAUAAAAAAGAGCCAAAAAACGCAAAAAAAAAAAAAAAUCCAAAAAAGGAGCGAAAAAAUGUGCAAAAAAAAAAAAAAAGCUAAGAGUUGGCAAAAAAAAAAAAAAAGUACAAAAAAAAGCAGUAAAAAAAUCAAAAAAAAAAAAGCAAAAAAAAAAAAAAAGCGGCAAAAAAAGGAGAAAAAAAUGCAGAAAA'
p300
aF0.9057591623036649
aa.