(lp0
(lp1
S'Simple Hairpin'
p2
aS'AUAGCAAAAAAGCUAU'
p3
aF1.0
aa(lp4
S'Arabidopsis Thaliana 6 RNA - Difficulty Level 0'
p5
aS'AUAGAGCAAAAGACAAAAAAAAAAAGUCCGGGGGGCAAGAGAGAGAGAGAGGGGGGCAAAGAGACAAAAAAGUCUCAGCCCCCACUCUCUCUCUCUCAAGCCCCCCGAAGCUCUAU'
p6
aF1.0
aa(lp7
S'Prion Pseudoknot - Difficulty Level 0'
p8
aS'GAGGGCACGGCAAAAGCCGGCCACUCAAAAAAAAAA'
p9
aF1.0
aa(lp10
S'Human Integrated Adenovirus - Difficulty Level 0'
p11
aS'UAGAGAGCUAGGUUAGGGUGCAAAAAAAAAAUGAUCCGGGGGCUGGGGAGCGGGGGAAAAACCUGGGGGCGGGUGAAAAAAAACCCGCCCCCAAAAGGCUCAUUAAAAACCAGCAAAACCCCGAAAAACAUCAAAAAAGGGUGUUGAUCUAAAAAAAAAAGGCACUCGGACCAAAAUAGUUCAAAUCUAAAA'
p12
aF0.96875
aa(lp13
S'The Gammaretrovirus Signal - Difficulty Level 0'
p14
aS'AAGGCUUGACAGCAAAGGCUGUUUUGACAAAAAAGAACAAGACACGGCCGGGAAAAAUCCCGGAAAGCCGGUCGUUCAAGAGAGAGCAAAAGCUCUCUUAA'
p15
aF1.0
aa(lp16
S'Saccharomyces Cerevisiae - Difficulty Level 0'
p17
aS'UAGAGACCGGCGAAAAAAAGCCGAGGGAAAAAAAAAAAAAACCAAAAUAGGAUAAAAAUUUCUAGUCUCUGAAAAAAGAGAUAACUGCAAAAAAAGGCAGCGCAAAAAAAAAAAAAGCGAAAAUAGACAAAAAAGGUCUAAUCUCUUAAAUCAAAGGUAAUGGCGAAAAAAAGCCACGGGGCCAAAAAAGCCCCGAAAAUCGGCCAAAAAAGUCGAACCUUUGUAAGGAGUGAUAACGGCAAAAAAAAGCCGCGGGGCAAAAAAGGCCCCGAAAAUGGAUCAAAAAAAUCCAAUCACUCAAAAGAGGGAUAAAGGCAAAAAAAAGCCUCGGGGUCAAAAAAGCCCCGAAAAUAGACGAAAAAAGUCUAAUCUUUCAAAA'
p18
aF1.0
aa(lp19
S'Fractal 2'
p20
aS'AAAAAGAGAGAGUAAAAUAGAGAGAUAACGGCAAAAAAAAAAGCCGAAUAGCAAAAAAAAAAGCUAAAGAGCAAAAAAAAAAGCUCAAAUCUCUCUAUAAAGAGAGAGAGCAACGGCAAAAAAAAAAGCCGAAUAGCAAAAAAAAAAGCUAAAGAGCAAAAAAAAAAGCUCAAGCUCUCUCUCAAAGAGAGAGAGCAACGGCAAAAAAAAAAGCCGAAUAGCAAAAAAAAAAGCUAAAGAGCAAAAAAAAAAGCUCAAGCUCUCUCUCAAAACUCUCUCAAAAA'
p21
aF1.0
aa(lp22
S'G-C Placement'
p23
aS'GAGCAAAGCUCG'
p24
aF1.0
aa(lp25
S'The Sun'
p26
aS'GAGAUCGGAGCAAAGCACAACGGGUCAAGGUCACAGCGUAUAUGGCGAACUGGGCAAAGACACGGGGGCAAGGCCCAACCGGUCAAGGACACUGGGGCGAAGCUCAAUCGGUCAAAGUCACGAGCGGAAGUCGCAAUCGGGCAAAGACAAGACGGGAAGCUCGAAUAUGUCAAAGUCACGGGGGUAAGACCCAACCGGGCAAGUACAGGGGGGCUAUGCCCAACCCGUAAAACACAGCGGCGGAAGGCGCAACGUGUG'
p27
aF0.8294573643410853
aa(lp28
S'Frog Foot'
p29
aS'AAAAAAAAAACAUGGAAACGUGGCCAUAAUUGGCGAGCGAAGCUC'
p30
aF1.0
aa(lp31
S'InfoRNA test 16'
p32
aS'AUAGGCUCGGGCGGCUAAUGCCGCACCAGUGUCUAU'
p33
aF1.0
aa(lp34
S'Mat - Martian 2'
p35
aS'GAGCAAAAGCUCAAAGAGAGACAAGAGAGUCCAAAAAAGACUCUCGUCUCUCAAUGAAUUGGCAAAAAAGAGAGACACCGGGCCAAAAAAGGGCCCGGGUCUCUCAAGGAGAGAGGGGGGGUCAAAAAAGCCCCCCACUCUCUCAAAAAAGUCGAUUCUAAGAAGAAAGAGAGACUAAAAAUGUCUCUCAAUUUCUUCAAAGUUCGAAAGAGC'
p36
aF1.0
aa(lp37
S'square'
p38
aS'AUAGAGCCGGGGCCGGGGGCCGGGGCAAAGCCCCGAAAAGCCCCCGAAAAGCCCCGAAAAGCUCUAU'
p39
aF1.0
aa(lp40
S'Six legd turtle 2'
p41
aS'AAAAAGGAAAGGUAAUUCAAAGGAAAGGCAAACGAAAAUGGAAGCAAAGGUGUGGGGAAAUCAAAUGGAAACAAAGUAGAAAAAAAAAAAAAAAAAAA'
p42
aF0.9591836734693877
aa(lp43
S'Small and Easy 6'
p44
aS'GCGUGUAAAUUGCAUUAAAAAAAAGAAGGC'
p45
aF0.9333333333333333
aa(lp46
S'Fractile'
p47
aS'AAAAAAAAAAAUGCGAAAAAUAAGUAAUUAAAAAUAUGGCAAAUCGAAAGAAAAGUAGUUAAAAGGAAGGCAACCAAAACCAAAAAAAAAAAAAAAAAAAAAAAA'
p48
aF0.9619047619047619
aa(lp49
S'Six legd Turtle'
p50
aS'AAAAAUCAAAGAAAAAAUUAAAAUUGGAAGGAAAAGCAAAAGAAAAAGUUAACGAAAAAGAAAAAUCAAAGUGAAAAAAAAAAGGAAAAAAAAAAAAAAAAAAAA'
p51
aF0.9619047619047619
aa(lp52
S'snoRNA SNORD64'
p53
aS'AUAGACAAAAAGACAAAAGACAAAGAGACAAAAAAAAAAAAAGUCUCAAAAGUCAAGUCAAGUCUAU'
p54
aF1.0
aa(lp55
S'Chalk Outline'
p56
aS'AAAACCCGCCCAGGCGAAAGCACUGUAGUAUGCAAAAGCGACUGGGGAAGAAAGCUAUCCUACCUCCAAAAGUAAAAGCGGUAAAAAAAAAAAAAAAAAAAAAA'
p57
aF0.9807692307692307
aa(lp58
S'InfoRNA bulge test 9'
p59
aS'AUAGGGCAGCGCGACGUGGGCUAAUGCCCACGCCCGCCCUAU'
p60
aF1.0
aa(lp61
S'Tilted Russian Cross'
p62
aS'AAAAUGAGGGGACGAAAGUCCGGGCACGGCGAAAGCCGCGCGCUAAUGCGCGAGAACGAAAGUUCGCCCGAUCGAAAGGUCCCUCUAAAAAAAAAAAAAAAAAAA'
p63
aF1.0
aa(lp64
S'This is ACTUALLY Small And Easy 6'
p65
aS'AAAAAAAAAAAAAAAAAAAAAAAAAAAAAAAAAAAAAAAAAAAAAAAAAAAAAAAAAAAAAAAAAAAAAAAAAAAAAAAAAAAAAAAAAAAAAAAAAAAAAAAAAAAAAAAAAAAAAAAAAAAAAAAAAAAAAAAAAAAAAAAAAAAAAAAAAAAAAAAAAAAAAAAAAAAAAAAAAAAAAAAAAAAAAAAAAAAAAAAAAAAAAAAAAAAAAAAAAAAAAAAAAAAAAAAAAAAAAAAAAAAAAAAAAAAAAAAAAAAAAAAAAAAAAAAAAAAAAAAAAAAAAAAAAAAAAAAAAAAAAAAAAAAAAAAAAAAAAAAAAAAAAAAAAAAAAAAAAAAAAAAAAAAAAAAAAAAAAAAAAAAAAAAAAAAAAAAAAAAAAAAAAAAAAAAAAAAAAAAA'
p66
aF1.0
aa(lp67
S'Shortie 4'
p68
aS'GCUAAUGCAACGAAAGU'
p69
aF1.0
aa(lp70
S'Shape Test'
p71
aS'AAAAAGUGACCAAGAGACAAAAAAAAGUCUCAAUACACGCAGAGACAAAAAGUCUCAGAGCAAAAGCUCAGCGGUGAAGGUCUCAAAAAAAAAAAAAAAAAAAA'
p72
aF1.0
aa(lp73
S'The Minitsry'
p74
aS'GGCAAAAGGACAAAAAGAUAAAAACUCAAAAAGUCUAAAAAAUGGCGGGGGGUCGGUCGGCU'
p75
aF1.0
aa(lp76
S'stickshift'
p77
aS'AAGAGAGCCCAAAAAGGAGCUCUCAA'
p78
aF1.0
aa(lp79
S'U'
p80
aS'AAAAAGACUCAGAGACCAGACGGGGGGGCAAAAGCCCCCCUGCGGCCGGGUCAAAAA'
p81
aF1.0
aa(lp82
S'Still Life (Sunflower In A Vase)'
p83
aS'AAUUAGCAAGACACAAAAAGUGUCAGCAGUCGAUGACAGAAGAGUCAAAAAGACUCAAUAAAUAAAAUCUAAACUGGCUAAAUGCUAGAACAGCCUAAAUGGCUGGGAGAGAGAGAGAGGAGGUGAGCCCAGGCAAAAAAGCCUGAGAGAUAAAAAAAAAAAAAGAGCAAAAAAAAAAAAAAAAAAAAAAAAAAAAAAAAAAAAAAAAAGCUCAAAAAAAAAAAAAAUCUCGAGAGAAAGCUCUCAGGCUCGCUUCCUCUCUUUCUCUCAAGAUACAAAAGGUGUCAGUAGACAAAAAGUCUGAAGGGGCAAAAAGCCUCAAGAGAUAAAAAGUCAUAAGGGUAAAAAUAUCUAUGCGACAAAAAGUCUCUGCUGUAA'
p84
aF0.9735449735449735
aa(lp85
S'Quasispecies 2-2 Loop Challenge'
p86
aS'AAAAAGCGGCGGUAACAGCAAAAGCUGGGACUGGUCGUGACAAGGGAACGAAGAUUAAGAGCACAAAAAGUGAGCACAGUCCCGCGAGAAAAAAAAAAAAAAAAA'
p87
aF1.0
aa(lp88
S'Corner bulge training'
p89
aS'ACGGGGCCGGGCAAAGCCCGAAAAGCCCCGA'
p90
aF1.0
aa(lp91
S'Spiral'
p92
aS'AAAAAGAGCACGGGGCACGCACGGGCACGGCACGGCACCACCACCACCACCACCAAAAAGGGGGGGGGGGGGCUGGCCGGCCCGGCGGCCCCGGCUCAAAAA'
p93
aF1.0
aa(lp94
S'InfoRNA bulge test'
p95
aS'AAAAAAAAAAAAAAAAAAAAAAAAAAAAAGAGCAAAAAAGACCAAAAGAGCAAAGAGCAAGAGCACGGCAAAAAGCACGAGCAUCAAGCAUCAAAGCAUCAAAAAGGAUCAAAAAAGCAUCA'
p96
aF1.0
aa(lp97
S'Worm 1'
p98
aS'AAAAAAAUAGAGCAGGAAUGCUUUAAAAAUAGAGUGCAUACGCAG'
p99
aF0.9555555555555556
aa(lp100
S'just down to 1 bulge'
p101
aS'AAAAAGAACAAUUGCAAAAGCAAUAUACAAAAGUAAGUAUCAAAAGAGCACGUAAAAACGGUACAAAAGUAAGCUCAAAAAAAAAAAAAAAAAAAA'
p102
aF1.0
aa(lp103
S'Iron Cross'
p104
aS'AAGAAGAUGAGGGCACGCUAUGCGGGACAAAAGUUAGCCAAAAAUACGCGAAAGCGAUGCAAAGUAAACUAAAAAUACGCUAAAGCGACGGAAGCUGAUCUAAAGUCACGGAAAGCGGUUGAA'
p105
aF0.9186991869918699
aa(lp106
S'loops and stems'
p107
aS'AAAAAGAGAGACAAAGAGCAAAGAGCAAAGAUCAAAAAAAAAGAGACAAAAAAAAAAAAGUCUCAAAGAUCAAAAGAGCAAAAAAAAAAGCUUAAAGCUCAAAGACAAAAAAAAGUCAAAGCUCAAGCAAAAAAGCAAAGUCUCUCAAAAA'
p108
aF1.0
aa(lp109
S'Water Strider'
p110
aS'AAAAUAAUCGAUGACGGAGCGGAAAUGUUCCUCAUAGGGCGGGGGGUGCCUAUAAUUCGUGUGAAAGCAAGCGUUUGCUUAUUAAAAAAAAAAAAAAAAAAAA'
p111
aF0.9223300970873787
aa(lp112
S'The Turtle(s) Move(s)'
p113
aS'AAACUGAAAAGGAAGGAGACCGACAAAAAAAAGGUCGGUCUCAAAUGAUGAAAAGCAUCUAAAAUUGGAAACGGAAAUAGCGGAAAAAUUUCUAAACAGACAAAUAAAAAUGAAAAAGACAAAAGUCGAAGGAGGCAAAAAAAGUGCCUCAAAGGCCAAAAGGCAAAAUUGGUUUCAAAUGAAAAAAAGGCAAUCCUUAAAAAAUUGAAAAGCGGCAAAAAAGCCGCGAAUACGGAAAACGUAGUAAAAUAUAAAAAAAAGUGAAAGCAAAAAACAAAAGCGAAAAAGCGACGAAAAAAAAAGUCGCGAAAAUGUC'
p114
aF0.9873417721518988
aa(lp115
S'Adenine'
p116
aS'AUAGCAGAGAGCAGAGAGCAGAGAGCAGAGAGCAGAGAGCAAAAGAGAGCAAAAAAGCUCUCAGCUCUCAGAGACAAAGAGAGACAAAGUCUCUCGUCUCAGCUCUCAGAGAGGGGGGGCAAAGCCCCCCAAACUCUCAGCUCUCAAAAGCUCUCAAAAGCUCUCAAAAGCUAU'
p117
aF1.0
aa(lp118
S'Tripod5'
p119
aS'AGGAGCGGAGGAAAACUCCCCGCUAAAUGCGGGCUUAA'
p120
aF1.0
aa(lp121
S'Shortie 6'
p122
aS'GCGAAAGUGUGGAAACAAGGUAAUCCAGGGAAACC'
p123
aF1.0
aa(lp124
S'Runner'
p125
aS'AAAAAGAGUAGAGCAAAAAGAGCGAAGCUCGGCUCAAACAUAAGGGAUGGAAUGUAAACACUCCGGCAAAAACCAAAGGGGUGAAAAACACAGAGGAAACUCGUUGAACUCAAAAA'
p126
aF0.9827586206896551
aa(lp127
S'Recoil'
p128
aS'AAAAAGAGACAAGCAAGCAAGACAAGACAAGCAAGCAAAGCAGCAGUCAGUCAGCAGCAGUCUCAAAAAAAAAAAAAAAAAAAAA'
p129
aF1.0
aa(lp130
S'[CloudBeta] An Arm and a Leg 1.0'
p131
aS'AAAAAGACAGAGGCAAAAGCACUCGACACCAAAAGGGUCAGUCAAAAAAAAAAAAAAAAAAAA'
p132
aF1.0
aa(lp133
S'[CloudBeta] 5 Adjacent Stack Multi-Branch Loop'
p134
aS'GAGAGGAGCGAAAGCUCGCGGCGAAAGCCGCGAGACAAAGGUCUCGCGCGAAAGCGCCUCUCA'
p135
aF1.0
aa(lp136
S'Triple Y'
p137
aS'AAAAUGGGUGCGCAGCAGAAAUGCGAGACUAAUGUCUACGCUGAAGCGCUAAUGCCCUUGAAAAGUCUGGUUAACCCUAAAAAAAAAAAAAAAAAAA'
p138
aF0.8865979381443299
aa(lp139
S'Misfolded Aptamer'
p140
aS'GUACUAAAAAGGGGCAAAGCCAUCAAAAGAAAAAAAAAACCAAAAUGUAC'
p141
aF1.0
aa(lp142
S'Flower power'
p143
aS'AAAAAUCGGCUGCAAAGCAGAGAGCCCGCAAGGCGGAAUAGCAAAGCUAAAGACCAAAGGUCGCUCAGCACAAGGUGCCCGGAAAAAAAAAAAAAAAAAAAA'
p144
aF1.0
aa(lp145
S'Kudzu'
p146
aS'AAAAAGACAGAAGCGACCCACGGCACCAAAGGGCACGGGGAGACCAAAGGAUCUCAAGGCAAAGCCAAAGUCACAACAGUCAAAAAAAAAAAAAAAAAAAA'
p147
aF1.0
aa(lp148
S'"1,2,3and4bulges"'
p149
aS'AAAGUUCCAUGCGCAUAAUUACAACCGCAUGCAAAAGCAGUCAUGUAAAGGUUACUAAAAGUAAAAGACCUGAAAAGGGGGGCCCGAAAAAAAAAAAAAAAAAAA'
p150
aF0.8666666666666667
aa(lp151
S'medallion'
p152
aS'AUAGAAGCACCGCAAAGGUUCUAGGACAAAAGCGACGUAAAGUCGUGUGAGCAAAGGCUCGCUGAGGAAACUCAGGGAGGAAAACCUCCCAGUAGAAAUACAGACAAAGGAAAGAGUAUAAAAAUAUUCAGUGGAAACGCAGAUUGGAAAACCAAUCGGAAUAAUUUCGGCCAAAAGGCAGACAGCAAAGGCUGUCAGGCGAAAGCCAGAUAACGAAAGUUAUCAGACAAAAGUGGUACAAAGGUGACAGGGGAAAGUCUCUGAGUCAAAGGACGGAGAGCAAAAGCUCUCAGACAAAAGUCGUACAAAACUAAAUGAACAAAAGUUCGUCUUCGAU'
p153
aF0.9020771513353115
aa(lp154
S'[RNA] Repetitious Sequences 8/10'
p155
aS'AGCAAAAAAGCAAAAAAGCAAAAAAGCAAAAAAGCAAAAAAGCAAAAAAGCAAAAAAGCAAAAAAGCAAAAAAGCAAAAA'
p156
aF1.0
aa(lp157
S'Documenting repetitious behavior'
p158
aS'AAAAAAAGUAAAAAAAAGGCAAAAAAAAUGCUAAAAAAAAGUAAAAAAAAAGCAAAAAAAAAGCAAAAAAAAAACAAAAAAAAUUCAAAAAAAAAUCAAAAAAAAACCGAAAAAAAAGAAAAAAAAAAAGAAAAAAAAAGGAAAAAAAAAGCAAAAAAAAAACAAAAAAAAAGAUAAAAAAAAGUAAAAAAAAAGCAAAAAAAAAGUAAAAAAAAAACAAAAAAAAUGCAAAAAAAAAGUAAAAAAAAGGCAAAAAAAAAUCAAAAAAAAAUUAAAAAAAAACCAAAAAAAAAGAAAAAAAAAAGCAAAAAAAAAGCAAAAAAAACGAAAAAAAAAAGCAAAAAAAAAGCGAAAAAAAAGCAAAAAAAAUUCUAAAAAAAAGCAAAAAAAAAACAAAAAA'
p159
aF0.96
aa(lp160
S'7 multiloop'
p161
aS'CCGCGGUACAAAGGUGCCCAGGCGAAAGCCUGCCAGGUAAUCCUGGGCUCUAAAGAGAGCGGGGCGAAAGCCCCGGGGAGAAAUCCCCGCGG'
p162
aF1.0
aa(lp163
S'Kyurem 7'
p164
aS'AAAAGUGGAGUAUAUAAAGAGAGGUCGAAGAUGUGGUAAAAGACCUCUCCGCGAAAAAGUGAAAGAUUAUCGCAACCAUCUGACAAAAAAAAAAAAAAAAAA'
p165
aF0.9117647058823529
aa(lp166
S'JF1'
p167
aS'UAGAGAGGGGGAGAGAGCAGAGACAAAAGAGAGCAAGAGACAAAGAGACAAGAGAGCAAGGGGGCGGGGGGCAAAAGCCCCCCGCCUCCUAGGACAAAAGUCAUAGAGAGACAAAAGUCUCUCUAAAUAGACAAAAGUCUAAGCUCUCAGUCUCAGUCUCAGCUCUCAAGGAGAGGGCAAAAAGCCACUCUCAAGAGAGAGUGAGAGAGAGAGAGAGCAAAAGCUCUCUCUUUCUCAUCACUCUCUCAAACGAGCAAAAAAGCUCGCGGGAGAGACAAAAGUCUCUCCCGAAAUAGGAAAGCCUAAAGUCUCGACUCUCAUAGCACGCACGCAAAAGCGGCGGCUAAGAGAGAGACAAAAGUCUCAUCUCACCCCACUCAUCUAAAA'
p168
aF1.0
aa(lp169
S'multilooping fun'
p170
aS'AUGGGAAGCUAUUGAAAAAGUAUGAGUUAAAAAAAU'
p171
aF0.7777777777777778
aa(lp172
S'Multiloop...'
p173
aS'GGAAAGAGGAUCCAAAAGGAGGGCAAAAGCCAGAGAAAGCUCAGAGAAAACUCAGACGAAAGUCAGUCGAAAGACGCCUCACGGGCAAAAAAGCUCGCGCAAAAGCGUUCC'
p174
aF1.0
aa(lp175
S'hard Y'
p176
aS'AAAAAGAGCCGGUAAGAGGUUAAUGCUUCUUAACGAGUGGGGGGCAAAGGCCCCCCACUGCUCGAAAA'
p177
aF0.9705882352941176
aa(lp178
S'Mat - Elements & Sections'
p179
aS'AAAAAGCGCACAAAUAGUACACUGAUAACAACGAGACCGCGUAAAGAUGAGAGCUCGAAGUAUCUAAUGGGUGCGGGAGAGGCGCGAAAAAAAAAAAAAAAAAAA'
p180
aF0.9619047619047619
aa(lp181
S'Chicken feet'
p182
aS'AAAAUUCACGCGGAAAACAUGCAAUGGAACGUCUGUAUCGCAGAAACAGCAAGACAAUGGACAAAAA'
p183
aF0.8805970149253731
aa(lp184
S'Bug 18'
p185
aS'ACGAUCACCAUGAAACUUUAUUGUCUGAUAUGCGCGCGAGGGAUGCGAAGUGA'
p186
aF0.9622641509433962
aa(lp187
S'Fractal star x5'
p188
aS'AAAAAGAGAUAUCAACGGCAAAAGCCGGUUUGAUAAUUCAAUAUAGCAAAAGCUAAAGAGCAAAGGCUUAAGGUGUCUCAAAAAGUUAGAGUGACGGCAAAAGCCGAAUAGCGAAAGCUAAAGAGCAAAAGCUCAAUAGUAAAAACUAAAAUUCUAGCAAAAAGAGAGCGAAACGGCAAAAGCCGAAUAGCAAAAGCUAAAUUGCAAAAGCAAAUCAGAAAAAUCUGUAUCGCUCUCAAAAGGAGAGAGUAUCGGCGAAAGCCGUACAGCAAAAGCUGAAUAGCAAAGGCUAAAGAGCAAAAGCUUAAACUCUCUCAAAAAGAAAGAGUGACGGCAAAAGCCGAAUAGAAAAAUCUGAACAGCAAAAGCUGAAUAGGAAAACCUAAAACUCUUUUAAAAA'
p189
aF1.0
aa(lp190
S'Crop circle 2'
p191
aS'UUUAGAUGAAGGCGAAAUGUAAAAAAAAAGGGAAAAAAAAAAAAAAAAAAAAAAAAAAAAACUAAAAAAAAAAAAAAGGCAAAAAAAAACCAAAAAAAAUAAAUAGAAAA'
p192
aF0.9636363636363636
aa(lp193
S'Branching Loop'
p194
aS'GGAGUGGAAAAAAACGGACGAAAGUUCAGACUCAAAAAAA'
p195
aF1.0
aa(lp196
S'Bug 38'
p197
aS'ACAGUAAAGCUAUGUAAAAAAUUUCAAUCCGAAUUA'
p198
aF0.8888888888888888
aa(lp199
S'Simple Single Bond'
p200
aS'AAAAAAGGAAAAAAAUAUGCUAAAUGUAUUAAAAAAAACGAAAAAAAAAAAAAAAAAAAAA'
p201
aF1.0
aa(lp202
S'Taraxacum officinale'
p203
aS'AGACAAAACAUCCGGAGCAAAAGACUCGUUUAAAAAGACAGAUAGGAAAACCCAAUGGGGAAAAGAAUCUGAGCAAAAGACUCAGAGAGAGAGACUGGGGGGGGGCAAGGCCCACCCCCCGAGUGAUAACGGGGGGGGCAGGAGAGACAAAGUCUCUCAGCCCCCCCCGCGGCACGAGGCGAAGCCUCGGCCGAUCGCAAAGUCUCUCUCUCGCUGAAAAAGACUGUGAGCAAAAGACUCAGAGCAAAAGACUCACAGGAAAAUACUGUGACUAAAAGCCUC'
p204
aF0.8829787234042553
aa(lp205
S'Headless Bug on Windshield'
p206
aS'AGGAGGCAAAUGCGGAGAAGUUUUCAAAAAAAAAAAAAAAAAAAAAAAAAGAAUACGAAUCCAGCUAUCCGCCGGCCUAGGCAAGUAAAAAAUUCGAAAGGUAAAAAAGCGCCAAAAACGGCUGUGAUAAAAAAAGACGAGGAAGAGAAUCACCCCAAAAAAAAAAAAAAGGGAAGCGAUUCAAUCAGUCAAAUUUCGCU'
p207
aF0.99
aa(lp208
S'Pokeball'
p209
aS'AAGUAGAGUCAAAAGGAAGGAAAUCAAGCAAGCAAGCAAUAAAGCAAGUAAAGGAGCAAUGAGCGACAAGCAGAUGCCAUCGGCUCUGAAAAAAAACAGAGAGAAAAUUGAUCAAGUAAAGGCAGAGGGGUAGCAUAGAAGGAAAUCACAAUUCGGUAUCAGGCGUAUGGAAUCUUCUUUGAAA'
p210
aF0.8532608695652174
aa(lp211
S'Variation of a crop circle'
p212
aS'AAAAGCUAAAGCAAAAACUAAGUUCAGGAAUGUAUACAAGUAAAAAAGAAAAUGUAAAAAAGGUAAAAAAAACGCAAAAAAAAAAAAA'
p213
aF0.9545454545454546
aa(lp214
S'Loop next to a Multiloop'
p215
aS'AGCAGACAGCUAAAAAACAGACAGCAAAAGCUGUCAGAGAGCAUAAUUGCUCUCAGGAAAAAUGCUGUCUGAA'
p216
aF0.9726027397260274
aa(lp217
S'Snowflake 4'
p218
aS'AGGGAAGCCUCCUUUCGGAAAAGCCGUUAGAGAUAUUCAAAAAGGAGACCCGCAAAGCGGAAUAGCAAAGCUAGUCUCCGAAAAGCAUAUCAACAGACCCGAAAAGGGGUCCGUGAAAUACGAAUAGAGCAUCUAGGCCUGGAAAGGUGUCUGAAUAGAGCCAAAGGGCGUGCUUGCAAAGUGAAAUGGCAAGUAUAGUACGCCAAAAGGUUUUAAUGAGACUGAAAACGCGGGCCUGCUAUGCAGAAUAGGAAAACUAGCCCGGUAAAAGCGCCUCUAGUGACCGAAAAUAGGCACGGGUAAAACCCAAUAACAAAGUUAGUGUCGCAAAAGCGUCACGAUAACGCCGAAAACGAGGGCCGCAAAGCGG'
p219
aF0.8972972972972973
aa(lp220
S'Mat - Cuboid'
p221
aS'GAAGCAAAACAAAGCAAAACGAAGAAAAAGAGGGAAGAAAAAUGAUGGAAUCAAAAGAAGGAAAGAACGAAAACGAAGGAAGAAAGUAAAAUUAAGGAGGUAAUCAAGCAAAAGGAAGCAAGCAAACAAGGAAAAGGAAGCAACCAAUCAUGAAAUUAAAAGCGACCAAGCAAGCAAGCAAGGAAAAGCAAGCAAGAAAUCGAGCAAGCAAAAAAGCAAGCAAGAAAUCAAGCAAGCCCAAGCAAGCAAGCAACCAAUCAAAAGUUAACAAGAGAGCAAGCCCAGGCAAGCAAGCAAUAGCAACAAAACAACCAAGAGCAAUCAACCAACGCGAACUAACCAACGAAGCCUACGUCAACCAAGUUAAAGGCAACAGCAAC'
p222
aF0.9368421052631579
aa(lp223
S'Misfolded Aptamer 6'
p224
aS'AAAAAAGACUAAAAAGCGUAACAAAAGACAAAAAAAAGUCGAAGGGAAAGGCGCAAAAAAUGUCAAAAAAAAAAA'
p225
aF1.0
aa(lp226
S'Snowflake 3'
p227
aS'AGCCCAAAGGGAGAGCGCAAACGACAAGGGCAGGGCAACUGUAAUUUGGGCAAAAAAAUUGAUAAAGUCUCGAAAGAAGCCUCGAAAAUGAAAGCCCAGAGGUACGCAAAACUGCUCAUCAAAAGGGGCGAAGCCUUAAAGGAAGGGCGAAAAAGCGAUUCUCAGACCAAUGCAAAAGCACGCACUAAAAAGGAUAAAGUCUGAAAACGAGCGCGCAAAAGCGAAGGUCAUAGCAAUGCAAAGGCGAGUGUCAAAAUAGACAAAGUCUCAAAGGAAGCAAGUAAAAACUAAGCUUGGUGGUACGUAAAGACGCUCAGCAAAAAUGACAAAGACGUAAAAAUGGCGCGCAAAAGCGAUCCGCAGCCCAAAGCAAAAGCCUUCACCAAAACGGCU'
p228
aF0.8575063613231552
aa(lp229
S'Hard Y and a bit more'
p230
aS'AAAAUUUGACAGGUUAGCUAAUGCUACGUUUGGGUUCCAAGUGCGAAAGCACAAGGUACAAAAAAGUACUGGGGUGCCCCGUCGAUAAAAAAAAAAAAAAAAAAAA'
p231
aF0.9716981132075472
aa(lp232
S'Mat - Lot 2-2 B'
p233
aS'GAAGAUAGGAGCAUGAAAAACCAAGAUCAAAAGGAAAAUCAAGGGCUAGCAAAACCAAGUCGUAGCAAGCAGGUCGAGUGAAAACCUUGAGCAUCCAAAAGAAAAAUCGUUAGCAAAAGCUUGUCCAAGGGCAAGGAAAGGAAACUAAAAGGGCAAGAAAAACCGAGAGAAAAAGCAAAAUCAAGCUCAAGCAAAAACAAGUCCAAUCAAGCAGCCGAAAGCAAAAGCAAGCGCGAGAAAAGCGGAAAUGACGAGCAAAACCAAGGGCAAUCGCAACGAACAUC'
p234
aF0.8626760563380281
aa(lp235
S'Shapes and Energy'
p236
aS'AAAAAUGUGAUCGGGGAAAAAGUAACGGGUCGAAAGUUUUGAAUCUCCCAAGGAAAAACUGGCAAAGGCUACCAGGUCUCUAAAAAAAAAAAAAAAAAAAA'
p237
aF1.0
aa(lp238
S"Spiral of 5's"
p239
aS'AAAAAGAGGGAAAGAGACAAAGAGAUAAAAGCGACAAAGAGACAAAGAGACAAGAGACAAAAGAGACAAAGAGUCAAAGAGACGGGAGAUAAAGAUACGAAGAGUCAAGAGAUAAAGAGACAAGAGACAAGAGACAUGAGACAAGAGAGUGAGACAGUGAGGGAUCAAAAGGAUCCGGGGGCUCACAAAAAGUCUCAAAAUUUCUCAAAAAGUCUCUAAAAGUCUCAAAAAGUCUCAAAAAGUCUCAAAAAGUCUCAAAAAGUCUCAAAAAGCCUCAAAAAAGCACAAAAAGUCUCAAAAAGACUCAAAAAGUCUCAAAAAGUCUCAAAAAGUCUUAAAAAGUCUCAAAAAGUCGCAAAAAGUCUCAAAAAGUCUCAAAAAUCCUCAAAAAUAAAAA'
p240
aF0.9949622166246851
aa(lp241
S'Campfire'
p242
aS'AAAAUAGCAAGAGUCAACGGUAACGACUAAAUGCCGCGGGGCAAAGCCACUGACCGUGCGGCACCACCACGGGCGAAAGCACCGGGGGAUGGCACAACCACCAAAGGGGGGGCAGGACGCAAAAGCAGCACUGAGGCACAGGCCAGCAGACUCGGCACGCACGCACGCCAAAAGGCGGCGGCGCGGGGAGCUAUGCUACCACCGAGCCGCUA'
p243
aF0.9905660377358491
aa(lp244
S'Anemone'
p245
aS'AAACGGUUGAAAACAACCGGACCUCAAAAGGUCGGGAGCAAAGGUUUCCGCGUCUAAUGACGCGACAGCAAAGGCUGUCGGGCCUAAUGGCCCCAGACGAAAGUUUGGCCAGCUAAUGCUGGCACGAGCGAAAGCUUGGUGGGGGAAAUCCCACGCGUGUAAUUACGCGAGAGCAAAAGCUCUCCGGACUAAUGUCUGCCAAAUAAAAAUUUGG'
p246
aF1.0
aa(lp247
S'Fractal 3'
p248
aS'AAAAAGAGUGUACACCAAAGGGACCAACGGAACCAGAUACAAAAAUGCAAAACUGGGUCAGGGAGUGAAAAUCCAAAAGGAGUGGGGGACCUAAGGGCUGAAAGGGGUUUGUUCAAAAA'
p249
aF0.865546218487395
aa(lp250
S'Kyurem 5'
p251
aS'AAAAGUAGACCACGCGAAAGUGGUGAAAAAACUGGAGGAACAAGAAAAAUGUUCAGGCAAAAAGGCCAGGUUCAUUGGAAUCUAAAAAAAAAAAAAAAAAAAAA'
p252
aF0.9423076923076923
aa(lp253
S'Snowflake Necklace ( or v2.0 )'
p254
aS'AUAUAGAGUAAGGUUAGGGUUACCAAAAAGUAUCUAAAUGAAGAAAAAAUCGGAAAAAAUCAGCAAAAAGUAAGUUUGGACAAAAGGCCAGAGGGAACAAAAAGUAUGAAAAAUAUGGAAAAAUCUGCAAAAAGCAGCAAAAAUCACUCGACCUCGAAAAGAGAGAGAUACCGAAAAGGAUCAAAAAGAAGCAAAAAUUACCGAAAAAGGGUAAAAGGCAAUCUCGGCCAAAAAGUCUGAGAUACCAAAAAGGAUCAAAAACAAGUAAAAAACAGGAAAAAUCAUGAAAAAUAAAUCUCUGACAAAAAGUCUUACAUACCGAAAAGGAGCAAAAAGUAGCAAAAAGCAGGAAAAACCAGCAAAAGGCAACCAUAGACCUUAUUCUAUAU'
p255
aF0.8174807197943444
aa(lp256
S'Methaqualone C16H14N2O Structural Representation'
p257
aS'AAAAAAAGAGUAGAGAACGUACGCAAAAGCCAUACACACAAAACUGAUACAUACAAAAGUAGGAAAUUCAAAAGGAAGACAAAAAAAGUAAGUCAGUAAGUAAACGAUAAAAAUCUUUGAGCAAAUAAGCUUAAACAAAGCAAAAAAAUAGUCUGCACGUAAAGACGGACAAAAGUUUACAAAAGUGGCACCGAAAGCGCAUAAACAUACUGACACGCAUGGACGCAAAUGACAAAAGUCUGCGAUAAGAAAUUAGCCAAGAGAAAAUUCAGCGAUGUAAAAGUAAGUCUUAUAGCAAAAGCGGGCAAAGGCCACAGGAAAUUGAUGCGUGAGCGCAAAGCUGUGCUCAAAAAAA'
p258
aF0.923943661971831
aa(lp259
S"Cat's Toy 2"
p260
aS'AAAGUUGAGAAGGAAAGUUAUAAAAAAAAAAAAAAAAAAGGGAGGAAGGGUAAUAUAAACGAAACUGAAAAAACGCAAAAAAAAUCUUCUCAAAAAA'
p261
aF0.9587628865979382
aa(lp262
S'Zigzag Semicircle'
p263
aS'AAAUGUUAGGUAAAAAAAGAAGAGACUGGCUAAA'
p264
aF0.9411764705882353
aa(lp265
S'Short String 4'
p266
aS'AAAAAAGGCUGUAUAGUUAAAACGCAUCAAAAGAGCUCGAAAUAGCAUACAAAAGUUGGCAAAAAAAAUUAUCAUCAAAAAAAAAAAAAAAAAAAAA'
p267
aF0.9381443298969072
aa(lp268
S'Gladius'
p269
aS'UAAAAAAGGAAAGGAAAGAACAGGAGGAAGACAGAAAAAGAGUAAAAGCUCAGAGACAACACGCAACCCGGGUAGGCGGCAAGACCGGGUGCAUGGGGCACGGGCACGGCACUACAAGAGCAAAGCUCAGUAAGGCCGGACCCGGACCCCGGACGCCCGGAACGGCUGAACUUCCGCUGAGCGGAGAGUCUCAUUCGAAGCAAGAGACAGGAGUCAACAGAGCAGAAGAGCAGUAAAGGAUCAGUGAGCCGUAGCACUAUACACGCGCGGUGCUAAUGCGCCGAAGCGGAUGUAAGGCUAAUGCUUAACGGUUCUUAUAGGCUCACAAGCUCAUAAGGCACAGGUCUCAAACCAAAACGUCAAAUGCAGUCGAACAACAGACAAAAUAAAACAAGAAAAC'
p270
aF0.9
aa(lp271
S'Thunderbolt'
p272
aS'GAUAGAGACGAAAAAAAGGGGAAGCAGAAAAAUGAAAAAGGGAGAGCUAAAAAAAAGGAAAAAAGAGCAAAAAGCUCAAAAAACCAAAGCAAGCAAAAAAAGAAGAAAAAACAAUAAGCAAUCAAAAAGGAAACACAGUAAAAAAACAAAAAGGAGGGGAAAAACCAAGAAACAGUUAAAGUAAAUAAAAAAAAUAUACCAAAGGAGAUUGAAAAAACAAGGCUUAAAAAAAAACUGAAAAAGAGAGCAAAGCUCUCAGAAAGCAAAAAAAAAAAGCAAGCAAAAAAAAAGAAGCGAAAGCGUGACUAAAAGAAAAAAAACAAAAUGUCACGAACAUCAAUGCUCUCCCGAAAAAAACGGCAACCAGAAAAAAAAAAAAAUAGUCUCAUUCA'
p273
aF0.9540816326530612
aa(lp274
S'Mutated chicken feet'
p275
aS'AAAAAACGCACGACAGAAUGAGUUAUGCAAGAAGCUAUACAACUAAAGAAUCGAAGAAAGCGACAGCACUACGAUGGGAGCAAGGCAAAAGGAAAAAAAA'
p276
aF0.78
aa(lp277
S'Chicken Tracks'
p278
aS'AAAAAAAGCAGAGGCCGUCAAAAGACGAUUAGCAAAAGCUAUAGAGGGAAACCUCGUCUCUGAGGACCGGCAAAGCCGAAUACCAAGGGUAAAUCCGAAACGGAGUCAAAAAAAAA'
p279
aF1.0
aa(lp280
S'Looking Back Again'
p281
aS'GGCGAGACUACUAAAAUGAGAUCAAAGGUCUCUGGCAAAUUACGCAAGACAAAGUCUCGAUAGGGAAAGAACAAAGGUUCGAAAUCCUAAAUGAAAGUCAAAGUCCUUGAAAAGGCAGAAAAUUGCCAAAAAAGAGCGGGGCUGGGAAUCCCGUUGGGCAAAGCCCAUGGGUUGCAAGUAUAAGAAGAAGAGGAGCUAAUGCUCAACACGGCAAUCAGCCGCAAAAGCGAAGACCCGAAACCCCGGGCCUGAGAUAUGGUAAAAAGGAAGGGCAAAAAAAAGAGUUAAAUACUCGCUCAAAGUCGUGCGUGGCAAAAAAGCGGUCGCAAAAGCGGCCAAUGCGGGAUGUAUAGACAAAGUCUAAAGCAGUAAAAGGCGAUCACAAAGCU'
p282
aF0.8997429305912596
aa(lp283
S'Multilooping 6'
p284
aS'AGCCUGCUCUUGGCGAAAGUCUUAGGUGCAAAGGCACCUCAUAAAUCCUUAAUAGGGUCGUCGUAACAGUUGCAGGUAGGAA'
p285
aF0.926829268292683
aa(lp286
S'Cesspool'
p287
aS'GGAGAAUGAAAAAAGUCAAAAGUCAUAAAGCAAUCAAUAAAUCAUGAAAAAAAUAAAUGAAGAAAACAACAAAAAGAAAACAACAACAAGAAGAAGUAAUCAACAGCAGAGAUACAAAGGGAACAACAACUCAAGUAAAAAAUAUAAGAAGAAAACAACAAAAAGAAAACAACAACAAGCAAGAAGAAAACAAGACAAGAUAUUAAAACAGAACAACAACUUAAUAAAAAAAUAGAAGAUGUAAUCAACAAAAACAAAAGAACAAGCAAGCAAUAAGGAAACAAUUGAAGGCACGUAAAGGGAACAAUAAGACAACAAAAAAAUAAGGGAAUAAAGGAACAAAAAGAAAACAAAAAGC'
p288
aF0.7793296089385475
aa(lp289
S'Hoglafractal'
p290
aS'AAAGCGAAGGAGAAAAAUAGAUAAAAAAAUCUAGCUUCCGGAAAAGAUCGAAAAGGUGUCCGGUCAACACAAAGAUAGACUGAUAAAAAGAAAAGAGGGAAAAAUCUCUCUUGACAAGCCAAAAAGGCGACGCAGCAAAACUGCAGACCAAAACAUAAGACAAAAAAGUCGUGGCAGGACAAACUGCUCCAAAAGGACGAGAUAAAAAGGACCUAAAAUCAUCGCCGAAAAGGCAAAAAAGAAUAGAGCAAAAAUGAUAAAAAAAUCCCAAAAAGAAAGAAUGGACAAAGUCUGUUAAAAAAGGUUCUCGAAAAAGUCUCAAAAAUGUCAAAAAUCUAACGAAUCAAGACCCUGGGUAAACCAAAGGGGCAAAUGCUAGGCCUACGGCCUAUCCCAGGAC'
p291
aF0.865
aa(lp292
S'Bullseye'
p293
aS'AAAGAUCGACAAGGCCGAAUAGCGAAGCUAAAGCCUGAAAGGCAUCAAAAAAAAGGCAGGGAAAGACGAAUAACAAAGCUAAACAGGAAACCUGGUCAAAAAAAUUAUGGGCAAGGCAUAAUACCAAAGCGAGAAGGCAAAGCUGAUGUAAAAAAAGGCUGCGAAAGCCAAAUAAAGAAUUUAAACGGGAAAUACGGCCAAA'
p294
aF0.8217821782178217
aa(lp295
S'Shooting Star'
p296
aS'GGGAGCGAGCCGGGGGUAAAGAGAUGCACGUACCUACUAAAAGACGGAGACGAGACUAUCAAGCCCCCGAGGAACAAGACUAACACGCACUAGCACUCAGUAUAGAAAAAGAGAUAACGGGGACUAAGGCGGGAUACGAGAACGAAACACUCUCCGGCCGGUCAAAGACCGAUAUACAAAGUGUAUUGAAAAUUAAGCUGAGUUCACGGUACGGUAAAAUGGGGCGAAGCCCUGUAUGGACAAAGUCUAAACGCGGACAGGAACUGUCCGAUCGUCAAAGACGAACCGGAUUAACAAAUUGGAGAAGAUGAGGCGCACUACACGAAAAAAGGUAAGGCGACAAAUAACUAACGCUCAGCUCUCA'
p297
aF0.8681318681318682
aa(lp298
S'Teslagon'
p299
aS'AAAAAAGUGAAAAAAGAAUCAAAAAAAGCAACAAAAAAAAAAAAAAAGUAAAAAAAAGUUAAAAAAAAAAAAAAAUCAGCAAAAAAAGAAGCAAAAAAAACGAAAAAAAAAAAAAAGUAAAAAAAGCAGGAAAAAAAUCAUCAAAAAAAAAAAAAAAGGAAAAAAAAAACAAAAAAAAAAAAAAAGUAGAAAAAAAACCGGCCAAAAACGGAAAAAAAAAAAAAAAGUAAAAAAUCCAGAAAAAAAACCAGGUAAAAAAAAAAAAAUUCAAAAAAAAAACAAAAAAAAAAAAAAAGCGGGAAAAAAACCGUGGAAAAAAGAAAAAAAAAAAAAAUAAAAAAAAAAAAAAAGCAUCGAAAAAAUAAUCAAAAAAAGCAAAAAA'
p300
aF0.9319371727748691
aa.