(lp0
(lp1
S'Simple Hairpin'
p2
aS'GAUAGAAAAAACUAUC'
p3
aF1.0
aa(lp4
S'Arabidopsis Thaliana 6 RNA - Difficulty Level 0'
p5
aS'GAUAUAGAAAAGAGAAAAAAAAAAACUCGAUAUAUCAAGAUAUAUAUAUAGAUAUAGAAAGAUAGAAAAAACUAUCACUAUAUACUAUAUAUAUAUCAAGAUAUAUCAACUAUAUC'
p6
aF1.0
aa(lp7
S'Prion Pseudoknot - Difficulty Level 0'
p8
aS'GAGAUCAGAUCAAAAGAUCGAUACUCAAAAAAAAAA'
p9
aF1.0
aa(lp10
S'Human Integrated Adenovirus - Difficulty Level 0'
p11
aS'ACUCAUAUGGAGAUUGAGAUCGAAAAAAAAAAGAGCUACAGACGAAAAAUCCAUAUCAAAAUGCAUAUAUAUAGUAAAAAAUCUAUAUAUAUAAAAGCAGAUAUUAAAGGACGUAAAACUGUAAAAGAUUUCGAAAAAAGAAAUCGUUCGAAAAAAAAAAAGAUUUCUAUCUAAAACUAUAUAAAGAGUAAA'
p12
aF1.0
aa(lp13
S'The Gammaretrovirus Signal - Difficulty Level 0'
p14
aS'AUGUGAAAAUAUUUAAUAAUAUUAGCUCUAAAAAGCUCAAGAGAGAGCAAUAGAAAGCUAUUAAAAGCUCCUCGAGCAUUAUAUAUGGAAACAUAUAUAUA'
p15
aF1.0
aa(lp16
S'Saccharomyces Cerevisiae - Difficulty Level 0'
p17
aS'GGUGGCCAGACGAAAAAAAGUUUUGGGAAAAAAAAAAAAAAUCUAAGGAUUGUAAAAAUCAGUCGGCUAUCAAAACAGAGUUGAUUUAAAAAAAGGUAGAGGAUACAAAAAAAAAACUUACAAUACUGUAAACAUCAGUGAAAUUUGGAAGGAGUUCGAUGAUCAAAAAAAGGAUCGGUAACAAAAAAGGUUACCAAACGAAAGUAAAAAUCUUUCCGAAUUCAAAGGUCAGGGAGCAACUAAAAAAUGUUGAUUAUCUAAAAAUGAUAGUAAAAGUUGGGAAAAAACCAGCCCUUGACAAAUCUGAGGCGAGAUCUAAAAAAUGAUCAUCAUAGAAAAAAUGUGGAAAACCAAAUGAAAAAAAUUUGGCUUCGGUAAA'
p18
aF0.9630606860158312
aa(lp19
S'Fractal 2'
p20
aS'AAAAAGUUUGAUAUAAGCGCGCUGUGAAGACCGAAAAAAAAAGGUCAUGAAGAAAAAAAAAGCUUCUAGAGCUAAAAAAAAUGUUCAGCAUAGCGCGCAAAUACGUGUAGUAUGCAGUAUAAAAAAUCUGCUAGAUUGAAAAAAAAAAAUCAAGCUAAAAAAAAAAGUAGCCAAUUACGUGUGAAUGUCAUCUUGUAAAGUCAAAAAAAAAAGACUGGACCAAAAAAAACUGUGGUAACCACUAAAAAAAAUGUGGAGGCGAGAUGACUAUUAUCGGGCAAAAA'
p21
aF1.0
aa(lp22
S'G-C Placement'
p23
aS'GAUCAAAGAUCA'
p24
aF1.0
aa(lp25
S'The Sun'
p26
aS'GACAGAGAUUUAAAGAAUAACACCUCAAAGAGAGAAACUGGAACGGUAACGCUUCGAGGAGAGAGAUACAAAGUAUAACUCCUUAAUGUUACAGAUAGAAACUGUAACUGGGGUAGGAGAGUGAGAGAAACUCUAACACCUCAAGGGGAUGAAAAGAAGCUUUAAUCGCCAAAAGAGAGAGAUAGGAACUAUAAAUACUCAAAGAGAGAGUUACAAAGUAGAAGUCCUCAAAGAGAAGGAUAGAAACUAUAACCCCUC'
p27
aF0.8449612403100775
aa(lp28
S'Frog Foot'
p29
aS'AAAAAAAAACGAUCGAAAGAUCCAGCUAAUGCUGCGCCGAAGGUG'
p30
aF1.0
aa(lp31
S'InfoRNA test 16'
p32
aS'GAUAUCUCAGAUAUCUAAUGAUAUACUAGUGAUAUC'
p33
aF1.0
aa(lp34
S'Mat - Martian 2'
p35
aS'CAUCAAAAGAUGAAAGAUAUAGAAGAUAUAGAAAAAAACUAUAUCCUAUAUCAAAGAUAUAUCAAAAAAGAUAUAGAGAUAUAGAAAAAAACUAUAUCCUAUAUCAAAGAUAUAGAUAUAUCAAAAAAAGAUAUAUACUAUAUCAAAAAAGAUAUAUCAAAGAUAUAGAUAUAUCAAAAAAAGAUAUAUAACUAUAUCAAAGAUCAAAAGAUC'
p36
aF1.0
aa(lp37
S'square'
p38
aS'GAGAUAGUAUCUCGAUAUGGCAUAAGGAACUUAUGAAAACUAUAUUAAAAGAGAUAAAACCUAUUUC'
p39
aF1.0
aa(lp40
S'Six legd turtle 2'
p41
aS'AAAAGCGGGGUCUAAUGAAAUUUGAAACAUGAGGCAACCCGAAUGGACACGAAAGUAAAUAUGAAUGAAAACGAAAGGAAAAAAAAAAAAAAAAAAAA'
p42
aF0.8979591836734694
aa(lp43
S'Small and Easy 6'
p44
aS'CUGUCUAAAUUGAAUUUAAAAAAAUGUCGG'
p45
aF0.8666666666666667
aa(lp46
S'Fractile'
p47
aS'AAAAAAAAAAAGGUGAAAGUAGGUAAAAUGAAAAUGAACGAAAUAAAAAUAAACGGAGAAUAAUUAAAACGGCAGGAAAGGUAAAAAAAAAAAAAAAAAAAAAAA'
p48
aF0.9619047619047619
aa(lp49
S'Six legd Turtle'
p50
aS'AAACGACGAAAGAGAAAUCAAACCGAAAGUGGAAUGGGAAAUCUAAUCUGAAAACAAAAGUAAACAUGAAUUAGUAAAGUAAAGUAAAAAAAAAAAAAAAAAAAA'
p51
aF0.9619047619047619
aa(lp52
S'snoRNA SNORD64'
p53
aS'GAUAUCAAAAAGAGAAAAGAGAAAGAUAGAAAAAAAAAAAAACUAUCAAAACUCAACUCAAGAUAUC'
p54
aF1.0
aa(lp55
S'Chalk Outline'
p56
aS'AAAAUGAUCUGUGAGGAAACUACAUGUCGAGUGGAAACGCCGAGGAUGAGAAAACUACAUCGGCGUCGAAAGAUAGCGAUCUAAAAAAAAAAAAAAAAAAAAAA'
p57
aF1.0
aa(lp58
S'InfoRNA bulge test 9'
p59
aS'GAUAUAGUGAGAGAGUUAUAGUAAUCUAUAACCCCCUAUAUC'
p60
aF1.0
aa(lp61
S'Tilted Russian Cross'
p62
aS'AAAAUCAAGGGUCAAAGUACCGUUCGGAGUAAAGGUUCCCGGGGAAACCUGUCGUUGAAAGUAACGAUUAGUAUAAUUAAGAUUCUAAAAAAAAAAAAAAAAAAA'
p63
aF0.8857142857142857
aa(lp64
S'This is ACTUALLY Small And Easy 6'
p65
aS'AAAAAAAAAAAAAAAAAAAAAAAAAAAAAAAAAAAAAAAAAAAAAAAAAAAAAAAAAAAAAAAAAAAAAAAAAAAAAAAAAAAAAAAAAAAAAAAAAAAAAAAAAAAAAAAAAAAAAAAAAAAAAAAAAAAAAAAAAAAAAAAAAAAAAAAAAAAAAAAAAAAAAAAAAAAAAAAAAAAAAAAAAAAAAAAAAAAAAAAAAAAAAAAAAAAAAAAAAAAAAAAAAAAAAAAAAAAAAAAAAAAAAAAAAAAAAAAAAAAAAAAAAAAAAAAAAAAAAAAAAAAAAAAAAAAAAAAAAAAAAAAAAAAAAAAAAAAAAAAAAAAAAAAAAAAAAAAAAAAAAAAAAAAAAAAAAAAAAAAAAAAAAAAAAAAAAAAAAAAAAAAAAAAAAAAAAAAAAAAA'
p66
aF1.0
aa(lp67
S'Shortie 4'
p68
aS'CUGAAAAGAGGGAAACC'
p69
aF1.0
aa(lp70
S'Shape Test'
p71
aS'AAAAAGAGGGCAAGAUGGAAAAAAAACCAUCAAGAGAGAUAGAUAGAAAAACUAUCAGAUCAAAAGAUCAAUCCUCAAGCCCGCAAAAAAAAAAAAAAAAAAAA'
p72
aF1.0
aa(lp73
S'The Minitsry'
p74
aS'GGGAAAAAGAGAAAAAGAGAAAAAGAGAAAAAGAGAAAAAAAACUCACUCGCUCACUCACCC'
p75
aF1.0
aa(lp76
S'stickshift'
p77
aS'AAGCAGGUUAGAAAAUGCAUCUGCGA'
p78
aF1.0
aa(lp79
S'U'
p80
aS'AAAAAAUUCGAGAGAUUAGAGGUAUGUAAUAAUUUACAUAUCCAACCCGGAUAAAAA'
p81
aF1.0
aa(lp82
S'Still Life (Sunflower In A Vase)'
p83
aS'AAAGCCUAAGAGCAUAAAUUGCUCAAGCUAGGAACUAGCAGGAGAGGAAAACUUUCAAGACACGAAGUGUCAUGAGUGGAAAACACUCUAGUGAAAAAAAUUCGCAGAGGUGUAUAUUUAUAUAUAUUAUAGAGAAAAAGCUUUAAGACAUUAAAAAAAAAAAUGAUCAAAAAAAAAAAAAAAAAAAAAAAAAAAAAAAAAAAAAAAAGGAUCUAAAAAAAAAAAUGUGUUUACAUGAAAAUGUAUUGAUAUAUAUAAAUGUACACCUUAAUAUCUAAAAGAGAUAGAGACAGAAAAACUGUCAAUAUAAUAAAUUUAUAGGGACCGAAAAACGGUCAGGGGAGAAAACUCCCAAUUUAGGAAAACUAGAAGGGCCCA'
p84
aF1.0
aa(lp85
S'Quasispecies 2-2 Loop Challenge'
p86
aS'AAAAAGACGUACCAAUAUCAAAAGAUAAAGGUAAGACCAACAAGGGGGGUCAAAUCGAGGAGAGAAAAACUCAACAAGAUUCGUCAAAAAAAAAAAAAAAAAAAA'
p87
aF1.0
aa(lp88
S'Corner bulge training'
p89
aS'AGAUAUCGUCAUUAUAUGACAAAUGAUGUCA'
p90
aF1.0
aa(lp91
S'Spiral'
p92
aS'AAAAAGAUCAGAUAUCAGAGAGAUAGAGAUCAGAUCAGUAGUAGUAGUAGUAGUAAAAAACACACACACACGAUCGAUCCUAUCCUCGAUAUCGAUCAAAAA'
p93
aF1.0
aa(lp94
S'InfoRNA bulge test'
p95
aS'AAAAAAAAAAAAAAAAAAAAAAAAAAAAACGAGAAAAAACGAGAAACGGAGAAAGCCAAAUGAGAAGAGAAAAACUACUACUACAGAUGCGUAAACUACUAAAAGCUACGAAAAAACUACGA'
p96
aF1.0
aa(lp97
S'Worm 1'
p98
aS'AAAAAAAGAUAGCGAUAUUAUUUGUAAAUUGGAGAGAACACGUGU'
p99
aF0.9111111111111111
aa(lp100
S'just down to 1 bulge'
p101
aS'AAAAAUCCGAGAUAGAAAGCUGUCAGAGGAAACUCGCGCGAAAAAGCUCAGAGUAAUCUCAUUGAAAACAAGGAGCAAAAAAAAAAAAAAAAAAAA'
p102
aF1.0
aa(lp103
S'Iron Cross'
p104
aS'AGAGAGUCAAGGACAUAGAAACUAAGACAAAAGUCAGUCAAAAAGAAAAAAAAUUUGUCGAAACGAACACAAUAAUAAGAAAAUUCUACUGGAACGGAAUUUAACACGUGAUAUUACUCUCGA'
p105
aF0.8943089430894309
aa(lp106
S'loops and stems'
p107
aS'AAAAUGAUAUAGAAAGAUCAAAGAUCAAAGCUCAAAAAAAAAGAUAGAAAAAAAAAAAGCUAUCAAAGAGCAAAAGAUCAAAAAAAAAAGAUCAAAGAUCAAUUAGAAAAAAAACUAUAAGAUCAAGUAAAAAAACAAACUAUAUCUAAAA'
p108
aF1.0
aa(lp109
S'Water Strider'
p110
aS'AAAAUUGUGUAAAUUAAAUUGUAAUCAGACAUAAAUGUUUAAAAAAUGGCUGUAAUCUGGUGUAAUCACACUAAUGGAUUUAUAAAAAAAAAAAAAAAAAAAA'
p111
aF0.912621359223301
aa(lp112
S'The Turtle(s) Move(s)'
p113
aS'AAAGUGAAAAGAAAAGGUCUAUAUAAAAAAAAAAUAUAGACCGAAAGAUAUAAAUUGUCAAAAAGCGAAAACGCGAUAAUUUCAAAAAACAAGGAAAACAUGAAUAAAAGUGAAAAGAAUAAAAAUUAAAAGAUAGCUAAAAAUGCUAUCACGGUCUUAAUCGAAAAAAGUUGUGAAAGGUGAAAAAAACUAAGGAGGAAAAAAACUCAAAGAUAGAAAAAACUAUCAAGGGUGAAAAGUACCAACAUAGCAAAAAAAAAGCAAAAGCAAAAAGUGAAAACAAAAAGGAAAGAAAAAAAAAAGUAUCAAAAAAAUG'
p114
aF0.9683544303797469
aa(lp115
S'Adenine'
p116
aS'GAUAGGGAUAUCAGCUAUUAGAUAUCAGCUAUCAUAUAUCAAAAGAUAUCAAAAAAGAUAUCGGAUAUGAGAUAGAAAGAUACUGAAACAGUAUCCUAUCAGAUAGCAGAAAGAUAUAUCAAAGAUAUAUAAACUUUCAGGUAUCAAAAAAUAGCAAAAGAUAUCAAAACUAUC'
p117
aF1.0
aa(lp118
S'Tripod5'
p119
aS'AAGGGCCAUCAAAAAGAUGGGGCAAAAGGCCCGCUCGA'
p120
aF1.0
aa(lp121
S'Shortie 6'
p122
aS'CUGAAAGGGGGGAAACCAGCGAAAGUCCGGAGACG'
p123
aF1.0
aa(lp124
S'Runner'
p125
aS'AAAAGCUGCUGGAUAAAAAGUGCAAGGCACGGUUCACUUGGAAGAUAUUAAGCAUAAAAGACGCAUAGAAGAUAAAGGGAAUCAAAGAGAAAGGGAAAACCCACUUUGCAGAAAAA'
p126
aF0.9310344827586207
aa(lp127
S'Recoil'
p128
aS'AAAAGCAUAGGAGUAAGUAAGAAAAGAGAACGAAGCAAAGCCCGGCUCAUUCAACAACACUAUGAAAAAAAAAAAAAAAAAAAAA'
p129
aF1.0
aa(lp130
S'[CloudBeta] An Arm and a Leg 1.0'
p131
aS'AAAAUGCGGGCCCAAAAAUGAGGCGCACGUUAAUACUGCACGCUAAAAAAAAAAAAAAAAAAA'
p132
aF1.0
aa(lp133
S'[CloudBeta] 5 Adjacent Stack Multi-Branch Loop'
p134
aS'CAGCCCAGGUACUCCUGUCGCGUAAUCGCGAACUCUGAAAAGGGUGGCCAAAGGGUCGGUUGA'
p135
aF1.0
aa(lp136
S'Triple Y'
p137
aS'AAAAAGAUCUGGCGGUUGAAGAGACUGUAGAAAUGCGGACAGCACUCUGGAAACAGAGAUCGAAAGAUAGAGCGGUCGAAAAAAAAAAAAAAAAAAA'
p138
aF0.8969072164948454
aa(lp139
S'Misfolded Aptamer'
p140
aS'GGACUAAAAUGGCCGGAACGGAGCUAAUGCGAAAAAAAACCUAAAUGUCC'
p141
aF1.0
aa(lp142
S'Flower power'
p143
aS'AAAAGUUCCUAUCAAGGAGAGGAUUCAUUGAAAAUGAAGGUAGAAUAUCAAGAUUAAGGAUUGAGUAGCUCAAGGAGUGGCGAAAAAAAAAAAAAAAAAAAA'
p144
aF0.8627450980392157
aa(lp145
S'Kudzu'
p146
aS'AAAAAUAUAGAAGUUUGGAAUGAUAUCAAAAUAUACGGCGAUUAAAAAGUAGAUCGAGAUAAGAUCAAAGGAUUGACACUGGAAAAAAAAAAAAAAAAAAA'
p147
aF0.9801980198019802
aa(lp148
S'"1,2,3and4bulges"'
p149
aS'AAAAGCGACGGUCCGGAAAUGAAAGGGCUUAUUAAUAUAUCCAUGAAAGGAGUCCAAAAAGUAAACAAGCGAACGCUCGCCAAUUAAAAAAAAAAAAAAAAAAAA'
p150
aF0.9238095238095239
aa(lp151
S'medallion'
p152
aS'GAUAUGGUAUGGCAAAAGUCAUAAUAGAAAAUUAAUAGAAAACGAAUCUAUUAAAGGAUAGAAGAGAAAGCCUAUAUGUCAAAAGAUAUAAAAGAAAACUAUUAGAAAACCAUGAAAUCAAAAGAUUUCUUAGGAAACUAGUCUAUCAAAAGAUAGAGCAUAAAAAUAAGACAAAACUUAGAUACCAAAACAUAUUGUAGAAAAUUAUUAGAUCAAAAGAUUUAUUAAAAAACCACGGGAAAACCCCGAUAUAAAAGUAUGUCUUCGAAAACUAAUGUAAGGAAAUUUAUAAUAUAAAAGUAAUCGAAAACGAGAAUAACAAAGGGUAUGACAUAUC'
p153
aF0.8219584569732937
aa(lp154
S'[RNA] Repetitious Sequences 8/10'
p155
aS'AAAAAAAAACUAAAAAAAAGAAAAUACUAAAAGUUAAAAAAAGAAAAAGGUAAAAAGCAAAAAAUGCUAAAACGUAAAAA'
p156
aF0.975
aa(lp157
S'Documenting repetitious behavior'
p158
aS'AAAAAAAGGGAAAAAAAUGCAAAAAAAAACCGAAAAAAAAUCAAAAAAAAAGGUAAAAAAAAGAUAAAAAAAGAGAAAAAAACGAUAAAAAAAAACGAAAAAAAAACAAAAAAAAAGGACAAAAAAAAACAAAAAAAACAAAAAAAAAAAGUGAAAAAAAAAGAAAUAAAAAAUAAAAAAAAAGUAAAAAAAAAGUAAAAAAAAAACGAAAAAAAAGGAAAAAAAAAGCAAAAAAAAAUAGAAAAAAAAAUAAAAAAAAAAGGAAAAAAAUAAAAAAAAAAAACAAAAAAAAAUCAAAAAAAAAUCAAAAAAAAAACAAAAAAAAACCGAAAAAAAUACAAAAAAAAACCAAAAAAAAAGUGAAAAAAAAACAAAAAAAAAGAUAAAAAAAAUCAAAAAA'
p159
aF0.8925
aa(lp160
S'7 multiloop'
p161
aS'AAUUCCACGGAAAUGAUAUGCAUGAAAGUGCAUGGAGAACUCUCAGGCGUUGAAAGACGCGUUAGAAAGCUGGCGUAUUAACGAACGUAGUU'
p162
aF0.8913043478260869
aa(lp163
S'Kyurem 7'
p164
aS'AAAAGGGUGAACCCGUAAUGGUGAGAAAAUAUCUAGGGCAAACCAUGAAUAGUAAAAUCUAAAAUUCCCUUCAUGUUACAUCAAAAAAAAAAAAAAAAAAAA'
p165
aF0.9117647058823529
aa(lp166
S'JF1'
p167
aS'AUAGAUGAUAGAGAUAGAAGAUAGAAAAGAUAUCAAGAUAGAAAGAUAGAAGAUAUGAGAUAUAUAUAUAUCAAAAGAUAUAUAUAUAUCAAGAGAAAACUCAGAUAUAUAGAAAACUAUAUAUCAAGAUAGAAAACUAUCACAUAUCACUAUCACUAUCAGAUAUCAAAGAUAGAUCAAAAAGAUACUAUCAAGAUAUAUAUGAUAUAUAUAUAUAGAAAACUAUAUAUAUAUAUACAUAUAUAUCAAAGAUAGAAAAAACUAUCGAUAUUUAUCAAAAGAUAGAUAUCAAAGAUCAAAAGAUCAACUAUCAACUAUCAGAUCAGAGAGAGAAAACUCCUCGAUCAGAUGAUAUCAAAAGAUAUACAUCACUAUACAUACUAUAAA'
p168
aF1.0
aa(lp169
S'multilooping fun'
p170
aS'GGAGAAGGCGACAGUAGAAAUUCCUCUCAUAAGUUC'
p171
aF0.8888888888888888
aa(lp172
S'Multiloop...'
p173
aS'GAUCGGAGCAGGGGAAACGUAGAGAAAAUUCAGAUGAAACUAGCUGAAAGAAGAGACAAAAGUCGAUUAAAGAACGGUUCAUAUUGUAAAAUUGGUGGAUAAAGAUUGAUU'
p174
aF0.9459459459459459
aa(lp175
S'hard Y'
p176
aS'AAAAGGAUCAUCGAUAGAUCAAAGGAUCUAUAUUUGAUAUAUGUAAAAGUAUAUAUAUCCCUUAAAAA'
p177
aF0.9705882352941176
aa(lp178
S'Mat - Elements & Sections'
p179
aS'AAAAACGUCAGUAAGGUUCAGGCGCGAGAGAGAGCGGGUGCUUAAUGGCUCGCGUUUUAAUUGCCAAAUAAGAAAGGAUCGGAUGGAAAAAAAAAAAAAAAAAAA'
p180
aF0.9619047619047619
aa(lp181
S'Chicken feet'
p182
aS'AAAAACCAGGAUCAAAGAAAGGAAUGUAACUGGGGUAGAAGGAAAGUGGUAAAACAAUAACCAAAAA'
p183
aF0.7761194029850746
aa(lp184
S'Bug 18'
p185
aS'GUGGGGUGGGGCUACGGACGAACCAAAUACUGACGUACAAACUUACAAAACGA'
p186
aF0.8490566037735849
aa(lp187
S'Fractal star x5'
p188
aS'AAAAUUAUGUAUGAUCGUCUAAUGAGCUAGGUAGAAAUACCAAGACUAAAAGGUCAAGAUUGAAAAAUCAACAUACAUGUAAAUGCGGGAUGGACCUAUAAUUAGGAGGGGAAAAGUCUUAAGCUCAAAAGAGCGAUAACAAAGGUUAAACAUCCUGCUAAAAUGCAUAAGUGAGUCACAAGGUCAAGAUUGAAAGAUCAUCGUCUAAGGAUGUAGUUUUAAGGAGCAUCUUGUGCGAAAAAGAAAAAUAUGGCUUAAAAGAGCAAGAUCUAAUGAUUGAGAUUGAAAAGUCAGCACGGAAACUUGAUUAUUUAUUAAAAAGAAAUAUGGGCAUUGAAAGAUGAAGAUUGAAUAAUCGGGAUUAAAGAAUCAGUAUCGAAACAUGAACAUAUUUCGAAAA'
p189
aF0.985
aa(lp190
S'Crop circle 2'
p191
aS'GUAAAAUGAAAGUGAAUAUUAGAAAAAAAGGGAAAAAAAAAAAAAAAAAAAAAAAAAAAAACCAAAAAAAAAAAAAAGGAGAAAAAAAAACAAAAAAAAAGAAGACAAAA'
p192
aF0.9090909090909091
aa(lp193
S'Branching Loop'
p194
aS'AAGCGUGAAAAAAAGGGAAAAAAUUUAAUUGCCGAAAAAA'
p195
aF0.95
aa(lp196
S'Bug 38'
p197
aS'AAGGCAGAGUAUAUGAAAGUGAUCUAUUGAAAACUA'
p198
aF0.9444444444444444
aa(lp199
S'Simple Single Bond'
p200
aS'AAAAAAGAAAAAAAAUAAUCGAAAAGAUUUAAAAAAAGCAAAAAAAAAAAAAAAAAAAAAA'
p201
aF1.0
aa(lp202
S'Taraxacum officinale'
p203
aS'UAGUGAAAAACUGAUCGUAAAGAACUAAGAGGAAAGAACUGGCUGCAAAAGACAGAAAGGAAAGUAUUCAGAGUAAAGAACUCGGAUAUAUAUGGCAUAUAGUAAGAAGCUUGACUAUAUGUGAUACAAUAUAUAGAGUGAGAUAUAGAAACUAUAUCAACUCUAUAUACACCAGCUAUCGAAGAUAGCGGUGGUAUCUAACCAUAUAUAUCAGGCCAAAAAAGUCUGACUUAAUAAAAGUAGGUUAAUAACUCGGAGUUAAUGACACAGUGGAAAAAACGU'
p204
aF0.8652482269503546
aa(lp205
S'Headless Bug on Windshield'
p206
aS'AAUCAUAAAAACCAUCAAAGCUGAGGAAAAAAAAAAAAAAAAAAAAAAAACUCUGCAAAGAUAGGAAAAUAAUAUGGUAGACUAAUAAAAAAAGUGAAAACAAAAAAAAUGUCAAAAAUCCCAAAGCAAAAAAAAGUAAAGUAGGUGAGGUUGUGAAAAAAAAAAAAAAACACAUACAACACAAACACGGAAUAAACGUA'
p207
aF0.98
aa(lp208
S'Pokeball'
p209
aS'AAAGUUCCAUAAAAGUAAAUAUAUGAAAAAGCGAGGCGAAUUAGUAAGGAAAACGGAGUAUAGCAUUAAUUGCACUAUAACGUGGGACAAAAAAAGCGAAGAUAAAAGGGGCAAGGAUGAAUAAGUAAGAAAAGAAGAAAGCAAGGGGUCGUCUAGCAACAAACAGCCAAGACUGUCUUUGAAA'
p210
aF0.9347826086956522
aa(lp211
S'Variation of a crop circle'
p212
aS'AAAACAAAAAAAUAAUGUGAACAGAGACGAUCAAACAGACGAAAGACCAAAAUGCUAAAAAUACAAAAAAAAGGGGAAAAAAAAAAAA'
p213
aF0.9545454545454546
aa(lp214
S'Loop next to a Multiloop'
p215
aS'AGAAUAUAUCAAAAAAUUGGCUCUCAAAGGAGAGCACUUGUAUAAAAGUACAAGAAUAAAAAAGAUAUAUUAA'
p216
aF0.9726027397260274
aa(lp217
S'Snowflake 4'
p218
aS'AUGUGAAAUGCUGUAGUGAAAAUGGUAAGAAUUUAGUCAAAAGAGAGACUAAUGAAAAUGAAAAUCAAAUAUUACUUUGCUAAUGUCUAGAGAGCUAUUCAAAAAAGAGAGCGUGAAACACGAAGAUGUAUUAUCACUUUCCAAAGGCAUAGCCAGUUAGUCGAAAGGAGCGGUUGCCAAGAAAAAGAGCAAGUCUCGCGCUACAAAAGACGAGUGAGAUGGUCCAAAGAUAGAGUAACAAAGUUGAGGAUCAAAGGUCAUCUGUCGAAAGACCAUCGAGCCAGUCGAAAGCCAUUUUUCCGAAGAAGACCAUCAAAGAUGGGAACAGUAAUCACUGGCAGCUGGCGCGAAAGUCUAUAGCACUAUGUCU'
p219
aF0.8432432432432433
aa(lp220
S'Mat - Cuboid'
p221
aS'GAAGUAAAAGUGGGAAAAAGUAAGUAAAACAAGUAAGUAAAAGUAAGGUUGUAAAAUAAGUAUGUAAGUAAAAGUUAGUAAGUGAGUAAAAGUGCGUAGGUAGGCCAGUAAAAGUAAGCGAAUAAGAAAGUAAAAGCAAGUAAGUAGGUAUGUAAGUAAAAGUAUGAAGCCAUGCGAGUAGAUAAAAGUAAGUAAGUAACGAGGUAAGGGAAAAGUCAAACAACGAAACGAACAAAUAGAAACAAACUAUCAAACGAACACAGACAAAUAAACAAACAAACACGAUCGAACAAGCCAAGACAAACAAAUAAACAACCACAAACAAACAUACACAAACUGAUGGGAUUUCCAAGCACAAACGAGACGAACUCAAACACAGC'
p222
aF0.8605263157894737
aa(lp223
S'Misfolded Aptamer 6'
p224
aS'AAAAAACAGUAAAAAGGAUAGGAAAAGCGGAAAAAAACGUAAAGCAAAAAGUCCGAAAAAUCUGAAAAAAAAAAA'
p225
aF1.0
aa(lp226
S'Snowflake 3'
p227
aS'GGGUCAAAAGAAGAGUAGAAAACUAAAGAUCAGUUGAAUAAAAAGGUCGCGAUUAAAAGAUAGAAGCUAUCAAAGGAGCGUGAAAAAACUUAAUAACAGAUUAAAAGUAAUCUCUUGAUCUAAUGAUAGAAGCUAUCAAAAGAACGAGGGAAAUCUUAAGAUCAGAUCGAGAGAAAGCUCUAGGUUAAAAAGUAGAAACUACCGAAAGGACUAGAGAAAACUCAAGAUCAGAUUAAUAUAAACCUGGAGAGGAAAAUAUAGCAACUACCUAAAGAACUCGUAGAAAUACAAGAUCAGAUUAAGAGAAAACUCUAGAGUAAAAACGUCAAAGGCAGAAAAAUACUAGCGAAAAUUCAAAAUCAGAUCAAGAGAAAACUCUCAAGUGAAAGGUCC'
p228
aF0.7862595419847328
aa(lp229
S'Hard Y and a bit more'
p230
aS'AAAAAGAUAUUUAAUAAGAAAGUUUAAUUAUAUACGAGGGUAGCAAAGGCAGAAGCUCGGAAAAACGAGCGAUAACCAUAUUAUGAAAAAAAAAAAAAAAAAAAAA'
p231
aF0.9716981132075472
aa(lp232
S'Mat - Lot 2-2 B'
p233
aS'GAAGUCAAGGAGGCGGAAAAGUGAGGUGAAAAAUAAAACUAAGCGCAACUAAAAUGAAGGUCAACUAACGAGGGCGGGGGAAAAGUGGUGGGAACCAAAAUUGAAAAGGGAGCCAAAACGAAACCCAAUGUCAAGUAAUUAAAAAGUCAAUCAUUUGUAAAAGCAACGGCGAAAGUAAAACGAGGUAAUUAAAAAAUGAGUAAAAAGAAAGCAAUCUCAUCUAAAAUAGUGGGGAAUAAAAACUGAAAAGGCAAUCAAAACUGAGGACAAGGAGGAGAAACAGC'
p234
aF0.778169014084507
aa(lp235
S'Shapes and Energy'
p236
aS'AAAAAUAAAUCAAAGUACAAAUACUAUUGUGGAAACUUAAUUAUGAACUAGUUGAAAAAGGUCGAAAGACUGAAAGCGGUUAAAAAAAAAAAAAAAAAAAA'
p237
aF0.9801980198019802
aa(lp238
S"Spiral of 5's"
p239
aS'CAAAAGAUAGAAAGAUAGAAAGAUAGAAAAGAUAGAAAGAUAGAAAGAUAGAAGAUAGAAAAGAUAUUAAGAUAGAAAGAUAGAAGAUGGAAAGUUAGAAAGAUAGAAGAUAGAAAGAUAGAAGAUAGAAGAUAGAAGAUAGAGGUUAGAGCUAGAGGUAGAUAUCUAAAUGAUAUAAAAACUACCAAAAGCUAGCGAAAACUGACAAAAACUAUCAAAAACUAUCAAAAACUAUCAAAAACUAUCAAAAACUAUCAAAAACUAUCAAAAACUAGCAAAAACCAUCAAAAACUAUCAAAAACUAUCGAAAUAUAUCAAAAACUAUCAAAAACUAUCAAAAACUAUCAAAAACUAUCAAAAACUAUCAAAAACUAUCAAAAACUAUCAAAAAGAAAAA'
p240
aF0.9949622166246851
aa(lp241
S'Campfire'
p242
aS'AAAAAAUCAAGGAAGAAGAUGAAUAUGGAAAACAUAAAUAGCGAAGUUCAUACGUCCUGGUCAGCAGUAAAGUGGAAACCUCUUAUCAAAGAGAGUAGCAAUAAAGAUACUCUCAGAGGGAAAGCUACUAUGAAGCUAUCGGACACUACUUCCUGCUUCGAGUGACCUGGAAAUAGGCACCGCUAAAGAACGAAUAUACUAUUAUUUAGCUU'
p243
aF0.8018867924528302
aa(lp244
S'Anemone'
p245
aS'AAAGAGAUCGAAAGAUUUUGAUUGAAAGCAAUCGAAAGCAAAGGCUUUCAGAAUGAAAGUUCUGGUAUUGAAAAGUACCGAGACAAAGGUCUUUACAGUAAUCUGUAGAGUUGGACAUAACUCACACCGUAAUUGGUGUAAUGUGAAAGGAUUAGAGUGGAACCAUUUGCUUGGGAAAUCAGGCCAAGAGAGACCGUGGAGAUCUAAUGAUCUC'
p246
aF0.9813084112149533
aa(lp247
S'Fractal 3'
p248
aS'AAAAAGGGCAGUGUACAAAAACGCAAAAGUUCACAGCAAUGAAAAUAGAGAAAUUACUCUAAUUGGAAAGCCCCAAAACAUUUUUGGAUCGAAAACGUUAAAAAUAACCUGCUCAAAAA'
p249
aF0.8319327731092437
aa(lp250
S'Kyurem 5'
p251
aS'AAAAGGAGGAGAUGUAAAGCUAAUUACCCGUCAAAUGAAAGAGGAAAACUCCAUGUAUUAAAAUGUAAUUGCGAUCAUAAUUUCAAAAAAAAAAAAAAAAAAAA'
p252
aF0.9423076923076923
aa(lp253
S'Snowflake Necklace ( or v2.0 )'
p254
aS'GAUAUAUAUGUAUAUGGAGUAAAUAAAAAAUAUGAAAAACGAUUAAAAAGUGUAAAAAAGAAUCAAAAAGAAAACUCAGAGGAAAACGCGGAUAGAGUAAAAAAUAUCAAAAAGGAUCAAAAAGAAUCGAAAAGAACUAAAAAACGCUGUCAGGGAAAAACUCACAUAGAAUAAAAGACAUCAAAAAGAGUCAAAAAUAAAAAAAAAUUAUCAAAAAGAACUAUGAGGUUAAAUACCAGAAACAGUAAAAAACAUCAAAAAGAAACAAAAAGAAUUAAAAUGAAUGAAAAACAAGUAUCAGCGGAAAACGCAGAGAUAGGAAAAAACAUCUAAAUGAAUCAAAAAGAAUCAAAAGCAAGCAAAAAGUAGUCUCAGUAUACAUAUAUAUC'
p255
aF0.8097686375321337
aa(lp256
S'Methaqualone C16H14N2O Structural Representation'
p257
aS'AAAAAAAUAGCAGUGCAGGCAUAAAAAAUUGAAAGACGGAAAGCCGAGCAAGAAUAAUUUCAGCGGAAGAAAACUCAGCAUAAAAAUUGCACGCAUGCACUCAGCAGGCAACAGCACAGUAAGAAAUAAAUCAGUGAAAUGAAAAAAAAGAGAGAUAACGGAAAGAAUAGAAAACUAUAGGAAACUGCUCGCUAAAGACCAGGAACAGAGACAGAUAGUGAGAGAGGAAAGAGAAAACUCACUUAGACAAAAUUUAACCUGCGAAAACGCACUGACCGAAAACGGGCUCGGAUUUAAAAAUGAAAUGAAAGUUACAUGAAAGUGGGCAAUCAGAUCAAAUUACAGUUAAAAAAAA'
p258
aF0.8929577464788733
aa(lp259
S"Cat's Toy 2"
p260
aS'AAAAGAUAUAUCUACAGAGAAGAAAAAAAAAAAAAAAAAAUGUGAAAAGAGAAAUCGAGGGGAAACCAAAAAAAGUAUAAAAAACGAUGUAUUGAAA'
p261
aF0.9587628865979382
aa(lp262
S'Zigzag Semicircle'
p263
aS'AAAUCGUUAGACGGAAAAAUGGCCAGAAUGUAAA'
p264
aF0.9411764705882353
aa(lp265
S'Short String 4'
p266
aS'AAAAAAGUAGUAAUCGAGAAACUGCAAGUAAUUUACAAGGACGAAGAUUGAAAACGAGUUAACCAGCGGGGAGGGCAAAAAAAAAAAAAAAAAAAAA'
p267
aF0.9175257731958762
aa(lp268
S'Gladius'
p269
aS'GGAAACAAGGAAACAAGCAACUGAACAAGGGUGGAGCAAGAUUAAAAGAUCGUGUAAAAAAGAGGAUAGUGCAAGACAUCAAAAGAAAUAGAAGAUGGUAGAUUCAGAUCACAGCGAGAUCUAUGAUCAGCUAGGAUCGCGAUCGACUAUCACCUAUUUCAAUAGAUGGACAGUACGAAACUCAGUAUUAGGGCUCAAAGACGGCGAUAGAAGAGAUGGUUUUGGUCAUUCAGAAGCUUUAGAGAUAUCAGAUGGAUUUAGGGCUGGGAUUUCAAAAGAAAUCAAUGCUACUAACGCUAUACGAUAUAGCUAGAGCACAGGAAUACAAAAAGAGAACUCAGGAAUUGCAGUUCAAAAGAACAAAGUCAACCAAGGAACAGAGGAAGCGAAAUAAGAAAAU'
p270
aF0.8975
aa(lp271
S'Thunderbolt'
p272
aS'GUAAGAUAGGAAAAAAAGACCAGGUUGAAAAAGAAACCAGAUAUAGAAAAAAAAAAUUGUAAAAGGUAAAAAAUACUAAAAAAAGAAGGGCGGCAAAAAAAGAACAAAAAAGAACACGUGAGGGUAAAGAAAACGCAGUAAAAAGUAAAAAGGAAGGUGUAUCUCCAACAAAAAUGCAUAGGUAAGAAAAAAGGGAGGACAAAGCACGACAAAAAAAAAAUUUUAAAAAAAAGAAUGAAAAAGAUGGCAAAGCUAUCACUAAGCAAAAAAAAAACAAAUCCAAAAAAAAAAACCCAAAAGUCUUACUAAAGCUAAAAAAUGAAAAUGAAAGAAACUAUAAAUCUAUAUCGAAAAAAAAUGCAAACAUAAAAAGAAAAAAACACUAUCGAAUA'
p273
aF0.8877551020408163
aa(lp274
S'Mutated chicken feet'
p275
aS'AAAAAACGUAGCAGGUCUCCAGAAAACCUAAGCCUAGUAUUAUAAAGAGAUUAAAAAAAAACAGGCAAGUGGUAAAACAGACAUACAAGAUAGUAAAAAA'
p276
aF0.74
aa(lp277
S'Chicken Tracks'
p278
aS'AAAAAAAUGACAUCGUAAAGAAAUUUAAGGAUCAAAAGAUCACAAUCAAAAGAUUAGAUGUCUAUAUACGAUAUUUGCGGUCUCUAUGAGAACGGGCUACGCUACCGGAAAAAAAA'
p279
aF0.9310344827586207
aa(lp280
S'Looking Back Again'
p281
aS'GAGAGGAAAGACAAAAAGAUUUCAAAGAGAUCAGACAAAGAGUAGAAGCGUAUCGCCUGGGAAAGAAAGAUCAAAAGAUCAAAACUUUCAACUCAAUUCAGGAGCUAGAAAAAGGUGAAAAAUCAUCAAAAAGCAAGAUAGUACAGUAUCUGUACUAAGUAUCUUGGUAUAUCUUAAGUAGAAGAUGCGGGAGAUCAAAAGAUCAACACUAACAUUAAAGACUAAUGUCAAGAUAUGAAACUAUCGCUCAGACAGAGUGCGAAAAAGACAUAGAAAAAAAAGUUCUAAAUGAGCCUAUAAAGUCAGGGCAAGCAAAAAUUCGAUAUCAAAAGAUAUUCAGGGAGAAAUUAUAGCGAAACGUUAAACCCGGUAAAGAUUCUGUCGAACUC'
p282
aF0.8766066838046273
aa(lp283
S'Multilooping 6'
p284
aS'AAGAUAUUUGAGUGGUAAUCUAUUGAUAGAAAGAAAUCUAGGGAGGUGGUAAUCUACUCGUAGGAAACUAUAUCCGUUGGGA'
p285
aF0.9146341463414634
aa(lp286
S'Cesspool'
p287
aS'GUAAAAGAAAACACGAAGAGAGUGCGAAACGCAUCGACAACUGGAGAAUAAAACAGCAUAAGAAAACAACGAAAAGAAAGCAAUAUCAAUUAGAAAGAAAUAAUGGAAGAAAGAGAAACUUGACAACAACCGUAGGAGAAAACAACAAAAGAAAACCAUAAAAAGAAAACAACAUGAAGUAAGAACAAAAGAAAUUAAGAGUGUUAAAGACAUCAACUAAAAAACAAGAAAACAAUAGAAGAAAACAACAAAAAGAAAACAACAAACAACUAAGAAGAAAACAAAACAAAAGAUCGAAACAGAACAACAAGUUAAGAAGAAAACAACGUAAGAAAACAACAAAAAUAAAAAAACAAAC'
p288
aF0.7597765363128491
aa(lp289
S'Hoglafractal'
p290
aS'AACAGGAAGACAUAAAAUAUAGAAAAAACUAUAAUAUCUCUGAAGGAUCAAAAAAACCGAGAAAGAAGGCAAAAGCCUUUAGAAAAGGGUCAAAGAUCAAAAAGGAUCGAUCAAGAAAGGUAAAUUCCACAGUAGUGAAAACAUAUAUGAAAAGAGAAGCGAAAAAACGCCACAGAGUAAAAAACUGGAGAAAACUCGAAUUGAAAAAAAAAUAAAAAAGUUUCUUGAAAAAAGGCGAAAGCAGAGAUUAAAAAACCGAAAAAACUCGCAAAAAGUAAGGAUAAAGAAACUUUAUCAAAAAAAGAUCUCAAAAAACGAUUAAAAACAUGAAAAUUCAAAUUUUGAUAUAGAAGAGGAAAAGUAAAAACUCAAAAGAUAUAAUAAUGUUAUAACACCACGG'
p291
aF0.8425
aa(lp292
S'Bullseye'
p293
aS'AAUAGAAUUCUAUGAUAGGGAUCGAACGUAAAGAGAAAAGCGUCACUAAAAAAGGAGUGGUAAAGCCGAAGAUGAAGCAUCAAGAGUAACAUUAUCCAAAAAAAACAGUAUCGAAGCUGAACUAGAAACUAGAAGAAUAAGAAUCCCUUAAAAAAAGGAGGUAAAAGACUAAGAUGAAGCAUCAGGCGAAAAUAUACUCAAA'
p294
aF0.7871287128712872
aa(lp295
S'Shooting Star'
p296
aS'GGUAUGUAACUUUGUGCUCAGAGAGGCAGUGAGAGAGUAAAAAACCUACCGUAGUCCACCUUGUACGAGAGAUGUAAGACAGGAAGAUAGAUGUAGAGAGAUGAGGAAAAAACCAUACCUCGACAUACAUCGUACAAGAAAAGGAAACAACUUUUAUCCCUGGAAACCAGAAUGUAGAAACUACAAGGGAAACAACGAUGAGUUAAGAUUGGUUGAAAAAGAAAGGAACUUUCUUGAAGACAAAGUCUUCAGCUUAAUUGAAACUAUAUAAGAUAGAAGCGAUCAAUCGAUUAAGAAAAUUAUACAGAAGGGUGAGAUAUUAUUAAAAAAAAAUAACUCUCAACGACGCUAACAUCAUAUAUCA'
p297
aF0.8214285714285714
aa(lp298
S'Teslagon'
p299
aS'AAAAAAGUAAAAAAAUGGGUAAAAAAAGUUGCGAAAAAAAAAAAAAAGCCAAAAAAAUCUUAAAAAAAAAAAAAAAAAACGAAAAAAACAGUUAAAAAACGAAAAAAAAAAAAAAACGAAAAAAUGCUAGAAAAAAAGAGUAAAAAAAAAAAAAAAAGAAAAAAAAAAGUAAAAAAAAAAAAAAAACCCUGAAAAAAAAUAUGAAAAAAGGAAAAAAAAAAAAAAACCAAAAAAAACAUAGAAAAAGGGCUCGAAAAAAAAAAAAAAUGAAAAAAAAUGCGAAAAAAAAAAAAAACCUCCAAAAAAUUCGGCAAAAAAAGAAAAAAAAAAAAGGUAAAAAAAAAAAAAAAGCAUUGAAAAAAACAGAAAAAAAAACAAAAAA'
p300
aF0.8795811518324608
aa.