(lp0
(lp1
S'Simple Hairpin'
p2
aS'AGAUCAAAAAAGAUCU'
p3
aF1.0
aa(lp4
S'Arabidopsis Thaliana 6 RNA - Difficulty Level 0'
p5
aS'AGAUAUCGAAUCGGGAAAAAAAAAACCGGGUGUGUCGGCUAUAAAAAGAUACAUAUAGAAGGGUCGAAAAAGACCCGUAUAUGAUAUCUUUUUAUAGGAGACACACCAAGGUAUCU'
p6
aF1.0
aa(lp7
S'Prion Pseudoknot - Difficulty Level 0'
p8
aS'GGUUGCAGAUUAAAGGAUCGCGUGCCAAAAAAAAAA'
p9
aF1.0
aa(lp10
S'Human Integrated Adenovirus - Difficulty Level 0'
p11
aS'GACCUAGUUAUAUGUGGUUUGGAAAAAAAAAAGAGCGUGUAUCGCAGGGGUAUCUUCGAAACGGGAUAUGUGUUUAAAAAAUGACACGUAUCAAAACCGGCAGAAAAUUAAUGAAAACUACACAAAAGAUAUGAAAAAAGUAUCUGCUCGAAAAAAAAAAACAAACCUCAUGAAAAUAAUUAAAAGGUCAAA'
p12
aF0.9791666666666666
aa(lp13
S'The Gammaretrovirus Signal - Difficulty Level 0'
p14
aS'AAGAGAAGUUUACAAAAGUAGACGACGCAAAAAAGAUCAAGACCGGGCCUAUGGAAACAUAGAAAAGCCCGUCGAUCGUGGAGUGUCAAAAGACACUCCUA'
p15
aF1.0
aa(lp16
S'Saccharomyces Cerevisiae - Difficulty Level 0'
p17
aS'AGCUGCCCUCCCAAAAAAAGGAGUUCGGCAAAAAAAAAAAAAGUAAACGAUCGAAAAAAGAGAGCCCGGAUAAAAGAUAUGUAAGGUAAAAAAAAGUACCCGUGAAAAAAAAAAAAACGAAAACUUUCAAAAAAAGAGAGACAUAUCGAAUCGUGUGCAAGAUGUAAAAAAUCAUCCGAUGCGAAAAAAGUAUUGAAAUCUAGCGAAAAAAGCUAGGCACACGUAAGGUCGAGGAGGAACAAAAAAAGGUUCUUAAACGAAAAAAGUUUAGAAAGCGAUAUAAAAAUUAUCGCUAUGGCAAAAGGUAUCUAAUGCUUAAAAAAUGGUACUUUAGCAAAAAAUUAGAGAAAGGGGUCGAAAAAAGAUUUGGAUACCAAAA'
p18
aF0.9894459102902374
aa(lp19
S'Fractal 2'
p20
aS'AAAAGGGUGUGCCAAAGACACAUGUAUAUAGCAAAAAAAAAAGCUAGAGAUCAAAAAAAAAAGAUCAGAUUCUAAAAAAAAUGAGUAUUACAUGUGUCAAAGGCAUAUGGAAACAUGUAAAAAAAAUCAUGCAGAGCAAAAAAAAAAGCUCGCGUUCAAAAAAAAAAGAACUAUUCAUAUGCCAAAGAGUGAUAUAUAGAUCGAAAAAAAAAGGUCAAGAGGAAAAAAAAAAUCUCGGACGCAAAAAAAAAAGCGUAUUAUAUCGCUCGAAGGCGCACCAAAAA'
p21
aF1.0
aa(lp22
S'G-C Placement'
p23
aS'AGACAAAGUCUG'
p24
aF1.0
aa(lp25
S'The Sun'
p26
aS'GCCAUGUGGGGAAGCCUCAAACGGGCAAACUCAGGUGUGCGAAACACAAACCGGGAAGUAUAGGGGAGAGAAUUUCAACCUAUAUAAGACAGGAGUGCAAGGCACAAUCCGUAAACAACAGGUGUGCAAAGCACAAACCGUCAAACUGAGUCGUGCAAAGUACAAACCCCCGAGCACAGGUGAGGAAACCUCAAACCGUGAAAGAAAGGUGUACUAUGUACAAACCUUCAAAGACAGGUGUUUAAAAGACAAAUCGUC'
p27
aF0.9224806201550387
aa(lp28
S'Frog Foot'
p29
aS'AAAAAAAAAACGGGAAAGCCUGGUACUAAUGUACGCCGAAGCGGC'
p30
aF1.0
aa(lp31
S'InfoRNA test 16'
p32
aS'AGAGACUCCUAUCUCAAAGGAGAUGAGCGUGUUUCU'
p33
aF1.0
aa(lp34
S'Mat - Martian 2'
p35
aS'GAUCAAAAGAUCAAAGGUGUGGAUGGUGUGCAAAAAAGGCACACCCCACACCAAAGGUGUGUCAAAAAAGGUGUUCAGGUGUGCAAAAAAAGCACACCGGACACCAAAGAUAGAUAUACAUAAAAAAAAUAUGUAUGAUUUAUCAAAAAAGACACACCAAUGAUAUAAAUCUGUCAAAAAAAGAUAGAUAAUUAUAUCUAACAUCAAAAGAUG'
p36
aF1.0
aa(lp37
S'square'
p38
aS'AGAUAUCCUGUGCCUAUAUCCUAUACAAAGUAUAGAAAAGAUAUAGAAAAGCACAGAAAAGAUAUCU'
p39
aF1.0
aa(lp40
S'Six legd turtle 2'
p41
aS'AAAAAUGUAAGAAAAAUCAAAAUAUAAGUAAACUGAAAAGAAUUUUAAUUUCAAGGAAAACUGAAUCGAAAUGAAUUCGAAAAAAAAAAAAAAAAAAA'
p42
aF0.9591836734693877
aa(lp43
S'Small and Easy 6'
p44
aS'GACUGGAAAAUAAAUAUAAAAAAAUUGAAC'
p45
aF0.8666666666666667
aa(lp46
S'Fractile'
p47
aS'AAAAAAAAAAAAGCAAAAGCAAAGCAAAGCAAAAGCAGUCAAAGCAAAAGCGAAGAAAGCGAAAGCAAAGCAACCAAAAGGAAAAAAAAAAAAAAAAAAAAAAAA'
p48
aF1.0
aa(lp49
S'Six legd Turtle'
p50
aS'AAAAAUCAAAGGAAAAGUAAAAAGUGAAAAUAAAAGUAAAGAUAAAUGUGAAAGCUAAUCUGAAAAGUAAUCAAAAAUUUAAGGGAAAAAAAAAAAAAAAAAAAA'
p51
aF0.9619047619047619
aa(lp52
S'snoRNA SNORD64'
p53
aS'AGAUACAAAAAGACAAAAGACAAAGGGUCAAAAAAAAAAAAAGACCCAAAAGUCAAGUCAAGUAUCU'
p54
aF1.0
aa(lp55
S'Chalk Outline'
p56
aS'AAAAAGAUCAGGACCAAAAGGCUCCAAGCAGACAAAAGUCGCUAGGUGGCAAAAGCACACCAGGGUCAAAAGACACCGAUCAAAAAAAAAAAAAAAAAAAAAAA'
p57
aF1.0
aa(lp58
S'InfoRNA bulge test 9'
p59
aS'AGAUAUCAGAGAGAGGUGUGCAAAAGCACACCCCCGAUAUCU'
p60
aF1.0
aa(lp61
S'Tilted Russian Cross'
p62
aS'AAAAAGUGCGCUAGAAAUAGCCUGCAGUUCGAAAGAACGGGCGAAAACGCCCACAUCAAAUGAUGGCAGGGGCAAAGGCCCGCAUGAAAAAAAAAAAAAAAAAAA'
p63
aF1.0
aa(lp64
S'This is ACTUALLY Small And Easy 6'
p65
aS'AAAAAAAAAAAAAAAAAAAAAAAAAAAAAAAAAAAAAAAAAAAAAAAAAAAAAAAAAAAAAAAAAAAAAAAAAAAAAAAAAAAAAAAAAAAAAAAAAAAAAAAAAAAAAAAAAAAAAAAAAAAAAAAAAAAAAAAAAAAAAAAAAAAAAAAAAAAAAAAAAAAAAAAAAAAAAAAAAAAAAAAAAAAAAAAAAAAAAAAAAAAAAAAAAAAAAAAAAAAAAAAAAAAAAAAAAAAAAAAAAAAAAAAAAAAAAAAAAAAAAAAAAAAAAAAAAAAAAAAAAAAAAAAAAAAAAAAAAAAAAAAAAAAAAAAAAAAAAAAAAAAAAAAAAAAAAAAAAAAAAAAAAAAAAAAAAAAAAAAAAAAAAAAAAAAAAAAAAAAAAAAAAAAAAAAAAAAAAAAA'
p66
aF1.0
aa(lp67
S'Shortie 4'
p68
aS'GCAAAAGCAGCGAAAGC'
p69
aF1.0
aa(lp70
S'Shape Test'
p71
aS'AAAAAGUGACCGUGGGUCAAAAAAAAGACCCUAGACAGACAGUGUAAAAAAUACACAGAUCAAAAGAUCAGUCGUCAAGGUCUCAAAAAAAAAAAAAAAAAAAA'
p72
aF1.0
aa(lp73
S'The Minitsry'
p74
aS'AGCAAAAGGACAAAGGCCAGAAAGCGAAAAAAGCCGAAAAAAAGGCGUUGAUGGAGUCAGCU'
p75
aF1.0
aa(lp76
S'stickshift'
p77
aS'AAGGUGUCCCAAAAAGGAGACACCAA'
p78
aF1.0
aa(lp79
S'U'
p80
aS'AAAAAGGGUCAGAGAGCAGAGGUGUGUGCAAAAGCACACACCCGCCCGACCCAAAAA'
p81
aF1.0
aa(lp82
S'Still Life (Sunflower In A Vase)'
p83
aS'AAAGAGGGACGAUUAAAAAAAUCGAAGUAUGAAACAUACAGCUAUCGAAAAGAUAGAACGAAGAAACUUCGAACUUUCAAAAAGAAAGAACUGACAAAAAGUUAGAGAUAUAUAUAUAUAGAUAUAUAUGGGUCAAAAAAGACCCAGGGCCAAAAAAAAAAAAGGAUCGGGGGGGGGGGGGGGGGGGGGGGGGGGGGGGGGGGGGAAAAGAUCAAAAAAAAAAAAAGGCCCGGACCAAAAGGUCCAAUAUAUAUCUAUAUAUAUAUAUCAAGGGUCAAAAAGACCCAAGGAUUGAAAAAAUCCAACUGUCAAAAAGACGGAAGGGACAAAAGGUCCCAAUGGGCAAAAGCCCGAAGCAUCAAAAAGAUGCACCUCGAA'
p84
aF1.0
aa(lp85
S'Quasispecies 2-2 Loop Challenge'
p86
aS'AAAAUUAUGAAAACAGGGGAAAACUCAACGUUUCUGGCCUUAUGAUCGUUGUAGCAUUUCUCGCGAAAAGCGUAAUUUGCUUAUGUAAAAAAAAAAAAAAAAAAA'
p87
aF0.9809523809523809
aa(lp88
S'Corner bulge training'
p89
aS'AGGUGUCGGGUCAAAGACCCAAAAGACACCA'
p90
aF1.0
aa(lp91
S'Spiral'
p92
aS'AAAAAGAUCAGGUGUCAGACAGGGUCAGAUCAGAUCAGCAGCAGCAGCAGCAGCAAAAAGCGCGCGCGCGCGAUCGAUCGACUCGUCGACACCGAUCAAAAA'
p93
aF1.0
aa(lp94
S'InfoRNA bulge test'
p95
aS'AAAAAAAAAAAAAAAAAAAAAAAAAAAAAGAGCAAAAAACAGAUAAUGUGCAAGGAGCAACUGGAGAGUAAAAAGCAUCACUAAGGAGCAUCAAAGCUACUAAAUUCAUGAAAAAGGCAUCA'
p96
aF1.0
aa(lp97
S'Worm 1'
p98
aS'AAAAAAAGGGACUAGGUCCGUGGUAAAAGAUAAGCUCAUUUGCAC'
p99
aF0.9555555555555556
aa(lp100
S'just down to 1 bulge'
p101
aS'AAAAAGAGCAGGGUCAAAAGACCCAGACAAAAGUCAGCAUCAAAAGAUCAGACAAAAGUCAGACAAAAGUCAGAUCAAAAAAAAAAAAAAAAAAAA'
p102
aF1.0
aa(lp103
S'Iron Cross'
p104
aS'GACGAAGCAAGGGAAGACAAAGCCAGACAAAAGUCAGAAAAAAGUAGCUAAAAAGCUCCCUAUGUCUGAGAAAUAGAGUUAAAAGGCAGAGGAACUCAUUGAAAACCAAGGGAAAUUACGUAA'
p105
aF0.9186991869918699
aa(lp106
S'loops and stems'
p107
aS'AAAAAGGUGUGCAAAGAUGAAAGAUCAAAGAUCAAAAAAAAAGGGUCAAAAAAAAAAAAGACCCAAGGAUCGAAAGAGCAAAAAAAAAAGCUCAAAGAUCAAAGACAAAAAAAAGUCAAACAUCAAGCAAAAAAGCAAAGCACACCAAAAA'
p108
aF1.0
aa(lp109
S'Water Strider'
p110
aS'AAAAGGGGGCUAGUCUGGGACAAAGGUGACUGAAAAUGAACAGGGGGUGAGUGAAAAUUACAAAAAUGUACUUACAUGCACCAAAAAAAAAAAAAAAAAAAAA'
p111
aF0.941747572815534
aa(lp112
S'The Turtle(s) Move(s)'
p113
aS'AAAACAAACGAAAAUUGUCUGUGAAAAAAAAAAUCACAGACGCGAUGAUCAAAAAGAUCUCAGUUACAAAAGUAAAAGGGGAAAAAAAAUCCCCGAAACACAAAGCGAAAGCAGAGCUCGAAAACAGAAAAGGUGUCAAAAAAAGACACCGAAUUACGAAAGUAUAAAAGUUGUCAAAAGACAAAAAAAGUCAAGACGAAAAAAAGUCAAAAGGACAAAAAAGUCCUAAAUAUCAAAAAGAUAAAGACAACAAAAAAAAAGUAAAAACACAAUGAAAAACCUAAACCUGGUCAAAAAAAAAAGACCAAAAAAACGC'
p114
aF0.9873417721518988
aa(lp115
S'Adenine'
p116
aS'AGAUCAGGUGUCAGGUGUCAGGUGUCAGGUGUAAGGUGUCAAAAGGUGUCAAAAAAGACACCAGACACCAGGGUCAAAGGUGUGCAAAGCACACCGACUCAUACACCAGAUAAAUAUAUCAAAGAUAUAUUAAUUAUCGGACACCAAAAGACACCAAAAGACACCAAAAGAUCU'
p117
aF1.0
aa(lp118
S'Tripod5'
p119
aS'AAUACCGACGGAAAACGUCGAACAAAAGGUUCGGUAGA'
p120
aF1.0
aa(lp121
S'Shortie 6'
p122
aS'GCAAAAGCAGCAAAGGCAGCGAAAGCAGCGAAAGC'
p123
aF1.0
aa(lp124
S'Runner'
p125
aS'AAAAAUACGAUCGCAAAAAGAUAUAUUAUCGGUCGGAUGUUCACGGGGGAAAGCUAAGCCGGGAGUCAAGGACAAAUUUUGACUAGGAAAAAACCAAAAGUUAUUCACGUACAAAA'
p126
aF0.9655172413793104
aa(lp127
S'Recoil'
p128
aS'AAAAAGGGUCAAGCAAGCAAGACAAGACAAGCAAGCAAAGCAGCAGUCAGUCAGCAGCAGACCCAAAAAAAAAAAAAAAAAAAAA'
p129
aF1.0
aa(lp130
S'[CloudBeta] An Arm and a Leg 1.0'
p131
aS'AAAAAGACAGGGACAAAAGUACCCGACAGCAAAAGCGUCAGUCAAAAAAAAAAAAAAAAAAAA'
p132
aF1.0
aa(lp133
S'[CloudBeta] 5 Adjacent Stack Multi-Branch Loop'
p134
aS'AGAUCCAGCAAAAGCUGGGGUCAAAAGACCCGGGUCAAAAGACCCGAUCGAAAGAUCGAUCUA'
p135
aF1.0
aa(lp136
S'Triple Y'
p137
aS'AAAAAAACCCUAACUUCAAAGGAAGAGCCUAAUGGUUUGAGUAGGCGGGUAAUCCCGUGGAUAAGUCUACAGUGGUUGAAAAAAAAAAAAAAAAAAA'
p138
aF0.9381443298969072
aa(lp139
S'Misfolded Aptamer'
p140
aS'CUGCUAAAAUGGACCAAAGGUAGCGAAAGCGGAGUAUAACCUAAAUGCGG'
p141
aF1.0
aa(lp142
S'Flower power'
p143
aS'AAAAUCAGCUGCGAAACGUGAGGUUACGAAAGUUUUAAGCUGUGUUAGCGAGAGUAAGGAACAACCAGCUCGAAGAGGGUUGUAAAAAAAAAAAAAAAAAAA'
p144
aF0.9215686274509803
aa(lp145
S'Kudzu'
p146
aS'AAAGACUCGGAACUCGCGCAGCGAAUAAAAAAGUCGCGUAUAUAGAAGUCGUAGGAUGUCCAAGUCCCAACUCAUGCGGUGGAAAAAAAAAAAAAAAAAAA'
p147
aF0.8712871287128713
aa(lp148
S'"1,2,3and4bulges"'
p149
aS'AAAAACGGGUGAAGGUAAUCCAAAAUUCAGGCAAAGGCCGUGCUGAAAAGUGAAGUCAAAAGAACGCGUAUUAAUGUCUACAAGCGAAAAAAAAAAAAAAAAAAA'
p150
aF0.9809523809523809
aa(lp151
S'medallion'
p152
aS'AGAUACGGUCUUGAAAACAAGACAAACUAAUGUGACACAAAAUGGAUUUGACGAAAGUCAAAAGGGAAAUCCAGGGUGUCGAAAGACACCACCCAAAAGGGUGACGAAAGGCAACGGUCAAAAGACCGUGGACAAAAGUCAGGGGCCAAAAGGCCCCAGAGAAAAAUCAGUCAAAAGGUAAGGGUAUAAUUACUUUAGAGAAAGCUCAGGUGUCAAAAGACACCAUCAAAAAUGUGGACGAAAGAUAGUUGACAAAAGUCAGCAGACGAAAGUCAGGUAUCAAAAGAUACCAGCCAAAAGGUAGAUAAAAGUGAAGUGUCGAAAGACACUAGUAUCU'
p153
aF0.9228486646884273
aa(lp154
S'[RNA] Repetitious Sequences 8/10'
p155
aS'AGCAAAAAAGCAAAAAAGCAAAAAAGCAAAAAAGUGAAAAAGCAAAAAAGUGAAAAAGCAAAAAAGCAAAAAAGCAAAAA'
p156
aF1.0
aa(lp157
S'Documenting repetitious behavior'
p158
aS'AAAAAAAGUAAAAAAAAAGCAAAAAAAAAGCUAAAAAAAACGAAAAAAAAAGCAAAAAAAAAUCAAAAAAAAACCAAAAAAAAAUCAAAAAAAAAGUAAAAAAAAAUAAAAAAAAAAGCGAAAAAAAAGAAAAAAAAAAGGAAAAAAAAAGCAAAAAAAAGACAAAAAAAAAGAAAAAAAAAUACAAAAAAAAGACAAAAAAAAAGUAAAAAAAAAGUUAAAAAAAAGUGAAAAAAAAGUAAAAAAAAAGCAAAAAAAAACCAAAAAAAAAUCAAAAAAAAAGCAAAAAAAAAGGAAAAAAAAAACAAAAAAAAAGGAAAAAAAAAGAAAAAAAAAAGGAAAAAAAAGGCAAAAAAAAAGCAAAAAAAAUGCGAAAAAAAAGCGAAAAAAAAGCAAAAAA'
p159
aF0.96
aa(lp160
S'7 multiloop'
p161
aS'CCACGGGCAGAAAUGUCCCACUUGAAAAAGUGACGGUAAAGGCCGUGAGUUGAAAGGCUCCUGCCGAAAGGCAGUAUUCUCAUGAGUAGUGG'
p162
aF1.0
aa(lp163
S'Kyurem 7'
p164
aS'AAAAAGACUGUAGUAAAAGUACAUGAAAAACGGAGACGAAAAAGCGACUGGGAAAAAGGACAAAGGCCUGUUGUUGCAGACCGAAAAAAAAAAAAAAAAAAA'
p165
aF0.9411764705882353
aa(lp166
S'JF1'
p167
aS'UACACAGAGAUGCUAUCAAGGGUCAAAAGGUGUCAAGAUACAAGGGAUCAAGAUAUGAGAUAUAUAUAUAUUGAAAAAUAUAUAUAUAUCAAGUCAAAGGACAGGUGUGUGCGAAAGCACACAUCAAGGGUCUAAUGACCCACAUAUCAGAUCCAGUAUCAGACACCAAAGGUGUGUCAAAAAGACAACACCAAGAUAUAUAUAUAUAUAUAUAUAUUGAAAAAUAUAUAUAUAUGUUAUAUAUAUCAAAGCGUCAAAAAAGACGCCUAUAUAUAUUAAUAUAUAUAUAGAAUCAGCUAAUGCUGUAGACCCAAGAUAGAGAUCAGACAGACAAAAGUCGUCGAUCAGGUGGGAGCAAAAGCUCUACACCAAUCUGCUGCUGUAAAA'
p168
aF1.0
aa(lp169
S'multilooping fun'
p170
aS'ACGCAAGUUAAAAGGGCAACUUUGGGAACAAUAUGG'
p171
aF0.8333333333333334
aa(lp172
S'Multiloop...'
p173
aS'UCGGGGCGCGGAUAAAGGUCAUACAAAAGUGGGAGGAAACUCAAGCAAAAAUUAAGCAAAGGUUGUUCAAAGGAAAGUGCAGGGUCAAAAAGGACUCUCCAAAACCGCGCU'
p174
aF0.8738738738738738
aa(lp175
S'hard Y'
p176
aS'AAAAAUGUUGUACGUGUUACUAAUGUAACACAGGAGCCAUAGAUUAAAGAAUUUAUGUCGACCGAAAA'
p177
aF0.9705882352941176
aa(lp178
S'Mat - Elements & Sections'
p179
aS'AAAAAGAUUGGAAAGUUAACGCGGACCAGGAGAGCUCGGGAGAAAGCUUACAUGCUCGACGGUCAAAAGAGUUAUCAAGCAGAUCGAAAAAAAAAAAAAAAAAAA'
p180
aF0.9619047619047619
aa(lp181
S'Chicken feet'
p182
aS'AAAAAUUAUCGUCUAUGGAGGUAUCCGAUGAGGGGCAGGGGCUAUGCAUCAAGAGGAAUCGCCAAAA'
p183
aF0.8208955223880597
aa(lp184
S'Bug 18'
p185
aS'AUUAUAACGAAUCAAAAUUAGUGAAAUGAGAUUUUGGGACGCAAAGUAAAAAG'
p186
aF0.8113207547169812
aa(lp187
S'Fractal star x5'
p188
aS'AAAAGUGUUUGUCAAUAUCAAAAGAUGAACUGCAAAAGCGGAAGAUCAAAAGAUUAAGAUAGAAAUGUCAAGACAGACAAAAAAGGUGUAUCGGGGUCAAAAGACCAGGGUCAAAAGACCAAGAUCAAAAGAUCAAGAUAAAAAUAUCAAGAUACACCGAAAAGGUGUGGCUAGAUUAAAAGGUCAAGAUCAAAGGAUCAAGGACGAAAGUUCAGGGUGAAAACACCAUGUCACACCAAAAUGGUGUGUCAAGGUCAAAAGAUCAAGAUCAAAAGAUCAUGAGCAAAAGUUCUAGAUAAAAAUAUCAAGACACACCUAAAGUGGAUGUCGAGAUCAAAAGAUCAAGAUCAAAAGAUCAAUAUCAAAAGAUGAAGAGCAAAAGCUCAAGACAUUCAAAAAA'
p189
aF1.0
aa(lp190
S'Crop circle 2'
p191
aS'GCAAAGCGAAACAUAAAUGGAAAAAAAAGUAAAAAAAAAAAAAAAAAAAAAAAAAAAAAAAUAAAAAAAAAAAAAAAAUCUAAAAAAAUUCAAAAAAAGCGAAAACAAAA'
p192
aF0.9636363636363636
aa(lp193
S'Branching Loop'
p194
aS'GGAAGGAAAAAAACCGUUCGAAAGAAUCCCUUCGAAAAAA'
p195
aF0.95
aa(lp196
S'Bug 38'
p197
aS'ACAAUUACCAUCCUUAAAGUGGUGGAAAAUAAGGGA'
p198
aF0.9444444444444444
aa(lp199
S'Simple Single Bond'
p200
aS'AAAAAAGAAAAAAAAUAUUCAAAAAGAAUUAAAAAAAGCGAAAAAAAAAAAAAAAAAAAAA'
p201
aF1.0
aa(lp202
S'Taraxacum officinale'
p203
aS'GUCCAAAAGAAUCAUAUGUAAGGACUAGGAGAAAAGGAUCCAAUUCAAAGGAAUUAGAUCGAAAGAGUCGGAUGGAAAUAAUCAGAUAUACAUAUUAUAUAUAUAUAAAAUAUGAUAUAUAAGGGACAAGAUAUAUGUCGAGGCGUGCAAAGCACGCCAGACAUAUAUCGAUCAUGUGUCAAAGACACAGAUCGUCCCGAAAUAUGUAUGUCAGAUCGAAAGAAACAUUAAAAAGUCAGCAAGUACAAAGAAUUACGAUAAAAACAUCAGAUUAAAAGUCAC'
p204
aF0.8687943262411347
aa(lp205
S'Headless Bug on Windshield'
p206
aS'GGCAUCAAAAAGGGCAAAAGCACACUAAAAAAAAAAAAAAAAAAAAAAAUAGGGCUAAGUAUGCUAAAGCGCCCGCCAAUGGAAGGAAAAAAAAUGACAGUAAAAGAACUAUAGAAAAGAGCGGGAACAAAAAAUGGUGAGCAAGCUUUCAAUACGAAAAAAAAAAAAAAGUAGAUGUUGGUCGGCAACCUGGAAAUCCA'
p207
aF0.89
aa(lp208
S'Pokeball'
p209
aS'AAACGUUUACAAAAGCAAGAAAUACAAGAAGCCAAGAAAGCACCCAAGCAAGGCGGGAGGCAUGAGGAGUCAGUGAGCAGCGCAUGCGAAAAAAAAGGCGUUCAAAAGCAAUGGAGUCAAGGUCCCAAGUAAGACAAAAAUCAAAGGACCGUUCGGCAGGUUUCAGACAUGAGCGAACGCCAAA'
p210
aF0.9782608695652174
aa(lp211
S'Variation of a crop circle'
p212
aS'AAAAUCAAAAGUAAAUAUGAAAGUUAGAAGCGAAACGAUUCAAAAGUGAAAAAGUCAAAAAAGCGAAAAAAAAGGAAAAAAAAAAAAA'
p213
aF0.9545454545454546
aa(lp214
S'Loop next to a Multiloop'
p215
aS'AGUGUCUGUCGAAAGAAUGGGGGGAAAAAUCCUCCUGGAGUGCAAAAGCACUCCUAGAAAAAAGACAGACGAA'
p216
aF0.9726027397260274
aa(lp217
S'Snowflake 4'
p218
aS'GCCCGAAGAUCCUAGAGGCAACCUCUAUCUAGCUUACGGAAAUCGUAUAGAGCAAAGCUCAUGAUCAAGGAUCCGUACAGAAAGUUAGGCCGAGGUUAUCAAAGAACUACCCGGCAAAAGCGAACAGGAAGGCUGGGUAGGCAAAAGCUAACCAAGCGUCACAAAAGUCGAUCCGUGAAAUACGAACAGCGAAGCUGGAUUGCCAAAAGGGGCGCAAGCCAUCCAAAAGAGUAGCCUGCAAGACCGAAGAACAAGGCAUGUUAUCACAAAGGGUGGCAAGAGUCGAAAAAGUCGGGCGAGCGAAGCUCAAGACCAAGGGUCGUCUGGAAAAAUCGACUCAUGAUAGGGCAACUCUCUAGGACCAAGGCGC'
p219
aF0.8648648648648649
aa(lp220
S'Mat - Cuboid'
p221
aS'GAAACAAAAGCUGCGAAAAAGAAGGAAAAGAACGAAUUAAAAGCAAGAGAUGAAAAGACCGGAAUAUGGAAAAGCAAACAGGCAAGCAAAACCAACUAUGCAAGCAAAAAAAAAAUUCCGACCUUCCUAGGGAAACCGUACUGCCAAACUUGCACGUAAAAGCCUCCUGCAUCACUUGGAAAGAAAAGCUUUGAUCCGGUGACCCGGCCAAAAAAGGAAGGAAUAAGGGAAUAUCGUGUAGUCAAGUAAUGAUGGUCGCGCUCGUAAGUGGGGAUGUAUGGCCGGGGUAGGGAGGAUCUGUGGGCAGGCUUAGAAGGGCAAGCAAGUAAGCUCUAACAACGCACCAAAUCAAGUGAUACAGACUUAAUGUGAUGCAUUAU'
p222
aF0.8394736842105263
aa(lp223
S'Misfolded Aptamer 6'
p224
aS'AAAAAAGACAAAAAAUAUCAGCUGGUCGAUAAAAAAUUCGUUAUGAACAAGAUAAAAAAAGGUCGAAAAAAAAAA'
p225
aF1.0
aa(lp226
S'Snowflake 3'
p227
aS'AGCACAAAACUAGACCGCAAAAGCGAAGAUCAGUUCGAGACGAACGUCCGUGGCGAAAGUAACUAUGUACCAAAAGAAGCACGUAAAAACGAAGAACAGGACAAGACGAAAGUCCACACUAAAGAGUACAAAGUACCAAAAGGGGCGCUCAAAGGAGAAGUACAGAUCUAGUCAAAAGACGUCGGCAAAAGCGACAAAGUUGCAAAAGUAGAUCGCAAAAGCGAUGAUCAGAUCAAGACUAAUGUCCGCGGCAAAAGCAGCAAAGCACCAAAAGGAGCGCGCAAAAGCGAAAAUCAGCGCGAGCCAAAAGGCAGCGGCAAAAGCGACAAAGUACCAAAAGGAGCGCGCAAAAGCGAAGUCCAGAUCGAGACCAAAGUCGUCGGAAAAAGCGUU'
p228
aF0.8625954198473282
aa(lp229
S'Hard Y and a bit more'
p230
aS'AAAAUAGGACGAUCGGACAAAGGUCCUUUCGUAUUUGCAGUAUCAAAGGAUAAGAGGGGAAAAAGCCCCUAAGCUGAAACGUCCUUAAAAAAAAAAAAAAAAAAAA'
p231
aF0.9716981132075472
aa(lp232
S'Mat - Lot 2-2 B'
p233
aS'GAAGGCAUCACCCUCCAAAAGAUUCAGAUAAUGCAAAAAGAAUUGGUAGGAAAAUGUCGCCCAACCAAUCUCACGCAUGCAAAAGGGUGAGUGGCCAAAACUAAAAGGGGAAGCAAAAUCAACCGCAAGCGAUUCCAAGCAAAAGCGCAUCAGCAACCAAAAGUCUGACCAAAAGGAAAAUCACACGGACGCAAAAUGAUGCGGAAUCAAGGUAGAUCAUCUAAAAGAUUCAGUUUCCAAAAGCAAAAGCGGAUACAAAAUGAAUCAGAAGCGCAACGAAUUAU'
p234
aF0.8485915492957746
aa(lp235
S'Shapes and Energy'
p236
aS'AAAAAUCUCUUGGUUUAAACAGAAAGAACAAGAAAUGGUUCAAGCUAGAUAGGGGGGUUAGACUAAUGUCUCGACAAGUGUAAAAAAAAAAAAAAAAAAAA'
p237
aF0.9603960396039604
aa(lp238
S"Spiral of 5's"
p239
aS'UAAAAGGGUCUAAGGGUUAAAGGGUCAAAAGGGUUAAUUGGUGGAAUGGACAAGGGUCAAAAGGGUCUAAGGGGCAAAGGGUCAAGAGUCAAAGGGCCAAAGGGUCAACGGUCUAAGGGUCGAGGGUCAAGGGUCAAGGGUAAAGCGUCAGGAUCAGGUUUAUUUCAAAAGGAAAUUAGGAAAAUCGAAAAGAUCCAAAAAGACGCAAAAGUACCCAAAAAGACCCGAAAAGACCCAAAAAGACCCAAAAUGACCGAAAAAGACCCAAAAGGGCCCAAAAAGACUCGAAAAGACCCAAAAGGCCCCAAAAUGACCCAAAAAGAUCCAAAAAGUCCGAAAAAUACCAUAAAAAACCCAAAAAGACCCAAAAGGACCCGAAAUGACCCAAAAAGAAAAA'
p240
aF0.9949622166246851
aa(lp241
S'Campfire'
p242
aS'AAAAUAUGGAGGAUUAAUAGAAAGAGUGAAAAGCUCAGAGAGAAACGCAUCUUUUCGGUCUCCGCAGCAGGGGGAAAAUCGCCCGCGACCACCUCCACCAGCAAAGGCGGACUGUAAGACUAAUGAGCCAAACAUGGCUAGGAAAACCGAUCCCGUUGACAUGCAGCUCUAAUGAGCGCAGUCGAUGUGUCAAACACAACAAUCUACGCAUG'
p243
aF0.8349056603773585
aa(lp244
S'Anemone'
p245
aS'AAAGGUGGGAAAGUUCAUCGGUACAAAGGUGCCGUUGACUAAUGUCAACGCGGCGAAAGCCGCCUGGUCGAAAGACUAGCGGUGAAAGCACCGGAUAGAAAGAUAUCGCCGUGUAAUUACGGCACCGUUAAAGGACUCCGAGUCUAAUGACUCACUUGUGAAUGUCGGUGAGAUUAAAGUCUCGCUCUGGAAAUAGGGGGAGGCUAAUGCCUCC'
p246
aF0.9906542056074766
aa(lp247
S'Fractal 3'
p248
aS'AAAAAGUGUAUACAGGAAAGCCGCAAAAGAGGUGAUACAGCAAAAGCGGUAAUCCAGUGGUACACCAAAAGAGUAAAAGUGGUAAGACAGGAAAGUCGUAAAACCAGUCAGCGCGAAAA'
p249
aF0.8823529411764706
aa(lp250
S'Kyurem 5'
p251
aS'AAAAUGGGGAAUACAGACCAGUAAGCAAAACGUGCUUAUAAACGAAAAGACAGGCGAUGAAAAAGACAGAGUUUUACGAAAUCCUAAAAAAAAAAAAAAAAAAA'
p252
aF0.9423076923076923
aa(lp253
S'Snowflake Necklace ( or v2.0 )'
p254
aS'AUAUAUCUAUAGAAUAGAAUCAUCCAAAAGAAGCAAAAAGCAGCAAAAAGCAGCAAAAAGCAUGAAAAACGAGAUUCAGGCAAAAAGCCAGGGUCAGCAAAAAGGAGUAAAAAACGACGAAAACCAACAAAAGGUAGGGAAAACCGGACCCAGACAAAAAGCCAUGGUCAGCAAAAAGCAGCAAAAGGCAGCAAAAAGCAGGUAAAUUGAGAAAAAAUAGGACCGAGAGAAAAGCUCAGUGUCAGGAAAAAUCAGCAAAAAGCAGCAAAAAACAGAUAAAUUCAGAAAAAGUCGGACACAGACAAAAAGAUUCGGACAUAAAAAAUGAGUAAAAAACAGAGAAAAUCAUUAAAAAGGAAAAAAAAGUAGUCCGUAUUCUAUAGAUAUAU'
p255
aF0.8868894601542416
aa(lp256
S'Methaqualone C16H14N2O Structural Representation'
p257
aS'AAAAAAAGGUAAGAUCAUUCGGACAAAAGUAAGACAGACAAAAGUCAGAAAGACAAAAGUCAGACAGCCAAAAGGCAGACAAAAAAAGUCAGUCAUUCAGUCAGAGAGUAUCGGAUCAGGGGAAAGAAGGCAAGACAAAGCAAAAAAAAGUCAGACAGACAAAAGUCUUCAAAAGAACUCAAAGGGGGUCAUAAAAGAUUAAAAACAGACAAACAGCCAGACUGACGAAAGACAAAAGUCAGUCAGACAAAAGUCUGUCGGACAAAAGUCAGUCAGACAAAAGUCAGCCGGACCGCAAAAGCGCGCAAAAGUGACGGAAAAUCGGUCGGUCGGAUCAAAUCCCAUAUCGAAAAAG'
p258
aF0.9352112676056338
aa(lp259
S"Cat's Toy 2"
p260
aS'AAAGUGUUUUAGUAACGCAAAGAAAGAAAAAAAAAAAAAAGAUAACAAGAUAAUUCAAAGUAAAGAAAAAAAAAAUGUAAAAAGAAGAAGGCAAAAA'
p261
aF0.979381443298969
aa(lp262
S'Zigzag Semicircle'
p263
aS'AAAGGGUGUUCUUCAAAAUAAGAGCACACUAAAA'
p264
aF0.9411764705882353
aa(lp265
S'Short String 4'
p266
aS'AAAAAGGGAGGAGGUUAUAAAUGAGUAAAAACUUUUAAAAAAAACCGAUCUAAUGGAAGGGAUAAAAUACAAACCUAAAAAAAAAAAAAAAAAAAAA'
p267
aF0.9381443298969072
aa(lp268
S'Gladius'
p269
aS'GGAAACAAAGGAAGUAGGAACGGAAUAAAGACAGAUAAUGAUCAAAACAUCUGGGGCAGUGGUCAAAAAAUCUAAAUGGCGAUAGCGAUAUCAGAUAUAGGGUAGAGAUGAGAUCUAGAUCAAAGAUCCGAUGCCAUCGAUAUCAGAUAUCGAAUAUCGCGAGAGUCAAACUGAUUAGUGGGCAAGAGUCCCAAUCAAAGACACUAUCAGAAGACUGAAGAUCAAAAGGUAGGAAGGUAUACACCUUAUCGUGUCAGGUGUCAGUCGGGUGUCGAAAGACACCAAGGCGAACACACGACAACAUAGGCAGUAUAUUACAAUAUUAUAAGAUCACAUGUCACAAGAUAGAGAGCAAAAGCUCAAAGUCAGUUGAAAUGUAGGGACAUCGGGAUGACAAAAG'
p270
aF0.9
aa(lp271
S'Thunderbolt'
p272
aS'ACGAGGGUUAAAAAAAACGGCAAGGGGAAAAAGUAAUCGGCUGUGACAAAAAAAACCAAAAAAUGAGCAAAAAGCUCUAAAAAGGAAACCUCGCAAAAAAAGUCGGAAAAGGCACAAGCUUCUAAAAAGGAAACAGAACAAAAAACCAAAAAGAACCAAAAAUGGGGCGAAAAAGGUGGAUCAAAAAGAAAAAUAUUAGCAAAGCGGAAAAAAAGAAGAGAGAUCAAAAAAAAGUUUAAAAAGGGGUCUAUGACCCCAAGUAGUAAAAAAAAAAAGCAUAGGAAAAAAAUUUAAGAAAACAUAUCAAAAAAGAAAAAAAAUAAAAAUGGUAGAAUGUGUAAGUCGCAGCAAAAAAAAGACCAAGCAGAAAAAUAAAAAAAAAAACCCAAGUA'
p273
aF0.9387755102040817
aa(lp274
S'Mutated chicken feet'
p275
aS'GAAAAAAAAACAUGUGAAAUAGUAAAGGAAUUCGGAGCACCAUCAACGAGACGAAGUAAUAGGCACUAUAAGAAAAGCGACAAAGUAAAACCCAAAAAAA'
p276
aF0.85
aa(lp277
S'Chicken Tracks'
p278
aS'AAAAAAAAGGUGAGCGUACAAAAGUACAGCAUAAAAGUAUGAAUAUCUAAUGAUAGCUCACCGUGCCGUGCAAAGCACAAGAUAUAUUAUCAGGGUCAAAGACCGGCUAAAAAAAA'
p279
aF1.0
aa(lp280
S'Looking Back Again'
p281
aS'GACAAGAGGAUCAAAAAGACGUCAAAGACGUCAGAUCAAGACCGCAAGUCAAAGACGCGAGGGUCAAAGAGCUAAUGUUCAAAAGACCCAAGUCAACUCAAGUGAAACAAAAAGGGUCGAAAGACCCAAAAAAGUUCUAUUGGGUCAAAGACCUCUAUCUAUGAUAGGGUGUCCCAGCUAUUAGUAUAAGAUCAGCGAAAGCUGUCCAAAUGAGAGGGGGUCAAAGGGCAAGACACCAAAAAUAGUCACAGGGUAAAAUCUAAAAUGGAGUGUAAAAAAAAGAUGAAAAAUAUCACACAAAUCCUGAUUGGGCUAAAAAGACUAUAUGAAAGUAUAGCAGCCCGAAACAAGGGUCAAAGACCCACGGCGCAAAUGCCCUACCCAAAGUC'
p282
aF0.9408740359897172
aa(lp283
S'Multilooping 6'
p284
aS'AGGAGCCCUAGGACUGAAAAGUCCCGUGAAAAGGUAUAUAUUGAGCGAGUAAUUAAGUAUUGAUAACUUCACUAGGGUUUAA'
p285
aF0.9024390243902439
aa(lp286
S'Cesspool'
p287
aS'GAGGAUAAAAACUUGACGUGCUAAACAAAGAUAAAAACAAGUCAAUUUUGAAAAAAAGAUUCGAAAAAAUAUAGUGGAAACAACGAUAAGUUAGAUAAAAAAAUACGUUACAGAUAAAGAUAAGGAAAAGUCAUGUUGGAAAUAACUGUUGAUAAUAAUACAUUCAAAACAAGAGCAAGCUUAGAGAAAACAAGGAGUAGGGGAUAUAAUCAACGAAAAUCCGAAUAAGAAAUGAUAGUGUGAAAGAACACAGGGAAAACAAUAAGCAAGGUUUCGGAAAACAAGAGUCUGAACAGUUUCUGAAUAAGCACUCAAGUGAGAAAUAACAGAUCGAAAGAGUGCAGCGAAAACAUAAAAC'
p288
aF0.7039106145251397
aa(lp289
S'Hoglafractal'
p290
aS'AGAAAGAAGGAUCAAAAGCCUAAAAAAAUAGGCGAUCCGAGCAAAUUAUAAAAAAUAAGCUCCGAAAGACGAAAGUAUCGACACAAUAAUGAAAUAUCAAAAAAGAUAUAUUUCCAAGACAAAAAGUCGCCACAGCAAAAUCGUAGGUCAAAAGAGAAGUCAAAAAAGCGCUCACAGCAAAAAGCGACGUUAAUGUGGAGGUGAAAAAUCAGGGAAAAACCAGCGUAAAAAACGCAAAAGGAGGGUGUCAAAAAGGACAAAAGGGUCUCAAAAAGGAAAUGAGUGGAAAUCACUCAAAAAAAGGACACCAAAAAACACCUAAAAAGACCAAAGGAGAAGGCAACAAAGAGGAGAUGAAAAGCAAAAGCCCGAAAGACUAUACAAAGUGUAGCCAUCCCAC'
p291
aF0.9125
aa(lp292
S'Bullseye'
p293
aS'AAGAUGGAUUGAAGAUCAAGAUCAAAGGUCGAAGUCAAAUAUCCAUACAAAAAGGAUGAUGAAACAUCAUUAAGAAAGAUGCAGAUUAAAAACCAUCAAAAAAAAGACCAUCCAAGAUGAAGGUCUAUGACCAAUUGCGAAGCAAGUCAAAAAAAACUCCAUCAAGAAUGAUGAUGAAACAUCUACGCCUAUGGCCGAGAAA'
p294
aF0.8514851485148515
aa(lp295
S'Shooting Star'
p296
aS'GGAUACGGGCCCAAAUUAAAGAGUACCACAUAAACAGCAAAAGACGUGCAUCACAGGACCAAGAUUUGGAGGGUCCUCAGCUGAAGACAGGUUCAUACAGAUCCUCUAAUAAAGAUGCGAAGAAGCACGUCACAGAUCGAAGUAAAAGAAACCCCAGCCAGGCAAUGCCUGACUAACAAAGCUAGGAAAAAAUACAGCUGAGCCCAGAUGAGGUGAAGGGUGUACAAAGUACACUAAGAUCUAUGAUCCCACCGGUGUGCGAAGCACAUAACGGUCAAAGACCGCAGCGAUGAAUAAAAGCUAUGAGUUGAGAGACAGAUCAGUAAAAGUGGAAGGGUCACGACAACAAUACCCUCAGUAUCUA'
p297
aF0.8543956043956044
aa(lp298
S'Teslagon'
p299
aS'AAAAAAGCUAAAGAAGGAGAAAAAAAACCUGCGAAAAAACGAAAAAAACUAAGAGAUUAUGGAAAAAAAAAAAAAAUAGUGAAAGAAGCAGAAAAAAAAGUGAAAAAAAAAAAAAAUCAAAAGAAACAGCAAAAAAAUCAUUGAAAAAAGGAAAAAAGAAAAGAGUUAUGGGAAAAAACAAAAAAUCGGAAAAAGAAGCGGUAAAAAAAGCGAAAAAAAAAAAAAAGCAAAAGAAACAGCGAAAAAAGUAGGGAAAAAACGAAAAAACUAAAGAGUUAGAGGAAAAAAAAAAAAAGCGGCAAAAGAAGUAGUGAAAGAAUAAAAAAAAAAAAAUCGAAAAAAAAAAAAAAGGAAGAAAAGGAGCAUCAAAAAAUGCAGAAAA'
p300
aF0.8952879581151832
aa.