(lp0
(lp1
S'Simple Hairpin'
p2
aS'GAUACAAAAAAGUAUC'
p3
aF1.0
aa(lp4
S'Arabidopsis Thaliana 6 RNA - Difficulty Level 0'
p5
aS'GAUAUACAAAAGACAAAAAAAAAAAGUCGAUAUAUCAAGAUAUAUAUAUAUGUAUGCAAAGAUACAAAAAAGUAUCAGCAUACAAUAUAUAUAUAUCAAGAUAUAUCAAGUAUAUC'
p6
aF1.0
aa(lp7
S'Prion Pseudoknot - Difficulty Level 0'
p8
aS'GAUAUCAGAUCGAAAGAUCGAUAAUCAAAAAAAAAA'
p9
aF1.0
aa(lp10
S'Human Integrated Adenovirus - Difficulty Level 0'
p11
aS'GGUGGAGAGGGCACGGAAAUCAAAAAAAAAAUGCUAUCGUGAACGAGAACACGUCUCUAAACGGGUUUGUUCGCUAAAAAAUGCGAACAAGCAAAACUGGAGACUAAAAUGAGCUGCCCAGGAAAAGAUAUUAAAAAAGAAUAUCGAGUUAAAAAAAAAAGGAUUUCAGUGCAAAACCUCUCGAAUACCAAA'
p12
aF0.9791666666666666
aa(lp13
S'The Gammaretrovirus Signal - Difficulty Level 0'
p14
aS'AGGUGUUGAUAUUGAAAAAUAUCUUCUCAAAAAAGAUCAAGACAGAAACAUGAUAAUUUAUGCAAAUUUCGUCGAUCAAGAUAUAUCGAAAGAUAUAUCAA'
p15
aF1.0
aa(lp16
S'Saccharomyces Cerevisiae - Difficulty Level 0'
p17
aS'CCGCUAGCUGGGAAAAAAACUGGAUAGAAAAAAAAAAAAAUUGGAAAGGCAAGAAAAAAUUGCCUUGGCGGAAAAGAAACUGACAUGCAAAAAAAGGUAUAACGAAAAAAAAAAAAUUUAAAAGUCAAGAAAAAAUUGGCCAGUUUCAAAAGUUAUAUAACGUUGAAAAAAAGGCGAGAUUGUAAAAAUUGAUCGAAAAUAUACGAAAAAAGUAUGAUAUGAUUAAUAUACGAUAAGUUAGAAAAAAAUAAUCGGGACGAAAAAAGUCCCGCAAACAUUGAAAAAAAUAAAGUUCUAAUUAAUUACCAAGAAGUACAAAAAAAGGUACCGUUGAAAAAAAGUCAGUGCAAAGCGGAAGAAAAAUAUAACGAUAUGCGAA'
p18
aF0.9050131926121372
aa(lp19
S'Fractal 2'
p20
aS'AAAAAGAUAUAUCGAAGAAAUAAGUCAUGAGCAAAAAAAAAAGCUCUAGAGGAAAAAAAAAAUCUCAAGAUCAAAAAAAAAAGAUCAGGACUUAUUUCAAAGAUAUAUGUCAAGAGCAAAAAAAAAAGCUCAAGAGCAAAAAAAAAAGCUCAAGAUCAAAAAAAAAAGAUCAAGAUAUAUAUCAAAGAUAUAUAUCAAGAGGAAAAAAAAAACCUCAAAGGUAAAAAAAAAAACCUAAGAUGAAAAAAAAAACAUCAAGAUAUAUAUCAAAGAUGUAUCAAAAA'
p21
aF1.0
aa(lp22
S'G-C Placement'
p23
aS'GAUCAAAGAUCG'
p24
aF1.0
aa(lp25
S'The Sun'
p26
aS'GUUAGCUAUUCAAGGAAUAAAGCAACAAAUUCAUAUAUACAAAGUGUAAAUAGAGAAAAUCAGAGGUACAAAGCAUAAUUCGAUAAUGUCACCUGUCCAAAGGACCAAGGGAUGAAUUCACAUAAACAAAGUUUAAAUCGAGAAAAUCAGGUAUAGAAACUAUAAACCGAUAAAAUCAGAAAUUCAAAGUAUAAUUCGAUAAGAUAAGGUAUGCAAGGCAUAAACCUACAAAGUAAUAUAUUCGAAGGAUAAAUAUAU'
p27
aF0.8294573643410853
aa(lp28
S'Frog Foot'
p29
aS'AAAAAAAAAAGAACGAAAGUUCGAUAGAAAUAUCGACCAAGGGUC'
p30
aF1.0
aa(lp31
S'InfoRNA test 16'
p32
aS'GAUAUCGCACUAGUCGAAAGAUUACGUAGAGAUAUC'
p33
aF1.0
aa(lp34
S'Mat - Martian 2'
p35
aS'GACCGAAAGGUCAAAGAUAUACAAGAUAUACAAAAAAAGUAUAUCGUAUAUCAAAGAUAUAUCAAAAAUGAUAUACAGAUAUACAAAAAAAGUAUAUCGUAUAUCUAAGAUAUAUGUAUGUCAAAAAAAGACAUACAAUAUAUCAAAAAAGAUAUAUCAAAGAUAUACGUAUGUCAAAAAAAGACAUACAAGUAUAUCAAAGAUCGAAAGAUC'
p36
aF1.0
aa(lp37
S'square'
p38
aS'GAUAUACCGGGGCCGAGGUCCGAGGCAAAGCCUCGAAAAGACCUCGAAAAGCCCCGAAAAGUAUAUC'
p39
aF1.0
aa(lp40
S'Six legd turtle 2'
p41
aS'AAAAAGCUAAGCGAAAGUAAAACGAAAGUAAAUCGAAAGAAAAACGAAAGUAAAACGAAAGUAAACGGAAACGAAUGCAAAAAAAAAAAAAAAAAAAA'
p42
aF1.0
aa(lp43
S'Small and Easy 6'
p44
aS'CAUUUAAAAGAGAACUAAAAAAAAGGGAUG'
p45
aF0.8666666666666667
aa(lp46
S'Fractile'
p47
aS'AAAAAAAAAAAAGCGAAAGCAAAGCAAAGCGAAAGCAAGCAAAGCGAAAGCAAAGCAAGCGAAAGCAAAGCAAGCGAAAGCAAAAAAAAAAAAAAAAAAAAAAAA'
p48
aF1.0
aa(lp49
S'Six legd Turtle'
p50
aS'AAAAAGCAAAAGUGAAAACAAAACCGAAAGGAAAACUGAAAAGGAAAAGGAAACUAAAAGCGAAAGCAAAAUCGAAAGAGAAAGCAAAAAAAAAAAAAAAAAAAA'
p51
aF1.0
aa(lp52
S'snoRNA SNORD64'
p53
aS'GAUAUCAAAAAGACAAAAGACAAAGAUACAAAAAAAAAAAAAGUAUCGAAAGUCAAGUCAAGAUAUC'
p54
aF1.0
aa(lp55
S'Chalk Outline'
p56
aS'AAAAUGAUCAGAUGCGAAAGUAAUCAGACAGACGAAAGUCGUCAGAUGGCGAAAGCAUAUCAGGGACGAAAGUCACCGAUCUAAAAAAAAAAAAAAAAAAAAAA'
p57
aF1.0
aa(lp58
S'InfoRNA bulge test 9'
p59
aS'GAUAUACAGAGAGAGCUAUACAAAGGUAUAGCCCCGUAUAUC'
p60
aF1.0
aa(lp61
S'Tilted Russian Cross'
p62
aS'AAAAAGAGGCUACGAAAGUAGUAGCAGGUCUAAUGACCGAUACAAAGGUAUCAGUUCGAAAGAACGCUAGCGGGAAACCGUCCUCGAAAAAAAAAAAAAAAAAAA'
p63
aF1.0
aa(lp64
S'This is ACTUALLY Small And Easy 6'
p65
aS'AAAAAAAAAAAAAAAAAAAAAAAAAAAAAAAAAAAAAAAAAAAAAAAAAAAAAAAAAAAAAAAAAAAAAAAAAAAAAAAAAAAAAAAAAAAAAAAAAAAAAAAAAAAAAAAAAAAAAAAAAAAAAAAAAAAAAAAAAAAAAAAAAAAAAAAAAAAAAAAAAAAAAAAAAAAAAAAAAAAAAAAAAAAAAAAAAAAAAAAAAAAAAAAAAAAAAAAAAAAAAAAAAAAAAAAAAAAAAAAAAAAAAAAAAAAAAAAAAAAAAAAAAAAAAAAAAAAAAAAAAAAAAAAAAAAAAAAAAAAAAAAAAAAAAAAAAAAAAAAAAAAAAAAAAAAAAAAAAAAAAAAAAAAAAAAAAAAAAAAAAAAAAAAAAAAAAAAAAAAAAAAAAAAAAAAAAAAAAAAA'
p66
aF1.0
aa(lp67
S'Shortie 4'
p68
aS'GCGAAAGCAGCGAAAGC'
p69
aF1.0
aa(lp70
S'Shape Test'
p71
aS'AAAAAGAGAUCAAGAUACAAAAAAAAGUAUCAUGACAGACAGAUGCAAAAAGUAUCAGUACGAAAGUACAGUCGUCUAGAUCGCAAAAAAAAAAAAAAAAAAAA'
p72
aF1.0
aa(lp73
S'The Minitsry'
p74
aS'GCCGAAAACACCAAAGGACAAAAAGACAAAAAGGUGAAAAAAAACCAGUCGGUCAGUGAGGC'
p75
aF1.0
aa(lp76
S'stickshift'
p77
aS'AAGAUAUCCCAAAAAGGAGAUAUCAA'
p78
aF1.0
aa(lp79
S'U'
p80
aS'AAAAAGAUACAGAGAGCCGAGGUAUAUACAAAGGUAUAUACCCGCCCGUAUCAAAAA'
p81
aF1.0
aa(lp82
S'Still Life (Sunflower In A Vase)'
p83
aS'AAACCUCCACUGUCAAAAAGAUAGAAAUCUGAACCAGAUAAUUUUCGAAAAGAAAAAAGAAUCAAAGAUUCAAAGGAUAUAAAGUCCUAAAGCUGAAAAACAGCUAAUAUAUAUUUAUAUAGAUAUAUUCUGAUGAAAAAGUCGGAGACAUGAAAAAAAAAAAUCUUCUAAAAAAAAAAAAAAAAAAAAAAAAAAAAAAAAAAAAAAAUGAGGUAAAAAAAAAAAAAUGUCGAAGCUAAUGUUUCAGAUAUAUCUAUGUAGAUAUAUAUGAGCUAUAAAAAAUAGCAAUUAGCAAAAAGCUAACAAUACUGAAAAAGUAUAACCAUCAAAAGGAUGGGAAUAUGGAAACAUGUGAUGAUCAAAAAGAUCAAGAGGAAA'
p84
aF1.0
aa(lp85
S'Quasispecies 2-2 Loop Challenge'
p86
aS'AAAAAGAUCCCUUAAGAUCGAAAGAUCAAGAGGUGAGCGACAAGGGAGUUCUGGUCAAGAGGAUUAAAUGUCAACGAGACCGAUCAAAAAAAAAAAAAAAAAAAA'
p87
aF1.0
aa(lp88
S'Corner bulge training'
p89
aS'AGAUAUCGAUACAAAGUAUCAAAAGAUAUCA'
p90
aF1.0
aa(lp91
S'Spiral'
p92
aS'AAAAAGAUCAGAUAUCAGACAGAUACAGAUCAGAUCAGCAGCAGCAGCAGCAGCAAAAAGCGCGCGCGCGCGAUCGAUCGUAUCGUCGAUAUCGAUCAAAAA'
p93
aF1.0
aa(lp94
S'InfoRNA bulge test'
p95
aS'AAAAAAAAAAAAAAAAAAAAAAAAAAAAGGACCAAAAAAGGGCAAAAGACCUAGGAGCAAGAGCAGAACAAAAAGUAUCAGCAUCAAGCAUCAAUGGAUCAAAAAGCAUCGAAAAAGGAUCA'
p96
aF1.0
aa(lp97
S'Worm 1'
p98
aS'AAAAAAAGUAAGAAAUUAUAACAUAAAUAAGUCGUUCUCGGGCUU'
p99
aF0.9111111111111111
aa(lp100
S'just down to 1 bulge'
p101
aS'AAAAAGAGCAGAUACGAAAGUAUCAGACGAAAGUCAGCAUCAAAAGAUCAGACGAAAGUCAGACGAAAGUCAGAUCAAAAAAAAAAAAAAAAAAAA'
p102
aF1.0
aa(lp103
S'Iron Cross'
p104
aS'AGACAGCUCAAUGUACUCAAAGAGGAACGAAAGUUAAUAGAAGUCAGGCGAAAGCCAUGUAAGCCGAGGCAAAUGCGAUCAAAGGAUAGAAGAACUAAGAAAAAAGCGACGAAAGGUAGUCGA'
p105
aF0.967479674796748
aa(lp106
S'loops and stems'
p107
aS'AAAAAGAUAUACAAAGAUCUAAGACCAAAGAUCUAAAAAAAAGUUAUUAAAAAAAAAAUAUAACAAUGGUCGAAAAGUGUAAAAAAAAUCACUAAAGGUCAAAGACAAAAAAAAGUCAAUGAUCAAGCAAAAAAGCAAAGUAUAUCAAAAA'
p108
aF1.0
aa(lp109
S'Water Strider'
p110
aS'AAAAAGUAGCGGAAGACAGCCUAAUGUCGACAAAGGUCGUCAGGGGUUCCAUGAAAAUGUUCUAAUGAGAGGGAUAAGCGACGAAAAAAAAAAAAAAAAAAAA'
p111
aF0.9611650485436893
aa(lp112
S'The Turtle(s) Move(s)'
p113
aS'AAAGCGAAAGCAAAAGAGAUAUACAAAAAAAAAGUAUAUCUCGAAAGAUCAAAAAGAUCAAAAAAGCGAAAGCUGAAAUAUCAAAAAAAGAUAUAAAAACCAAAGCGAAAGCGAAAAAUCGAAAGAUAAAAAUAUACAAAAAAAGUAUAUAAAAAACGAAAGUUAAAAACGUUGCAAAAGACAAAAAAAGUCAAAGCAAAAAAAAGCUGAAAUAGCAAAAAAGCUAUGAAAUAGAAAAACUAUAAGCAACGAAAAAAAAAGCGAAAGCAAAAAGCGAAAGCAAAAAAGAUACAAAAAAAAAAGUAUCAAAAAAGGU'
p114
aF1.0
aa(lp115
S'Adenine'
p116
aS'GCUACCGAUAUAAGAUAGCGGAUAUCUGAUCUCUGGCGUCAAAGGAUAUUAAAAAAGAUAUCAGAUGCCAGAUACAAAGAUAUACAAAGUAUAUCGUAUCGGAGAUCUGGGACGUUUGUCAAGGACAAACAAAGUCCCUGAUAUCAAAAGCUAUCAAAAUAUAUCUAACGUAGC'
p117
aF1.0
aa(lp118
S'Tripod5'
p119
aS'AACUUGACUGUACAUCGGUGUCCAAAAGGGACCAGGGA'
p120
aF1.0
aa(lp121
S'Shortie 6'
p122
aS'GCGAAAGCAGCGAAAGCAGCGAAAGCAGCGAAAGC'
p123
aF1.0
aa(lp124
S'Runner'
p125
aS'AAAAACAUCAAUGUGAAAGGCUUAAUAGGCAGCAUGGGGUCAUGCUUCUAAGGCUAGCAGCGGCGUAAAGAACAAAUUGAGGCAAGUUUAAGGUUAAAGGACAGUGAGGUGAAAAA'
p126
aF0.9137931034482759
aa(lp127
S'Recoil'
p128
aS'AAAAAGAUACAAGCAAGCAAGACAAGACAAGCAAGCAAAGCAGCAGUCAGUCAGCAGCAGUAUCAAAAAAAAAAAAAAAAAAAAA'
p129
aF1.0
aa(lp130
S'[CloudBeta] An Arm and a Leg 1.0'
p131
aS'AAAAAGACAGACUCGAAAGGCGUCGUCAGCUAAUGCGACGGUCAAAAAAAAAAAAAAAAAAAA'
p132
aF1.0
aa(lp133
S'[CloudBeta] 5 Adjacent Stack Multi-Branch Loop'
p134
aS'GAUAGGAGCAAAGGCUCGAUACGAAAGUAUCGUUACGAAAGUAACCAUCGAAAGAUGCUAUCA'
p135
aF1.0
aa(lp136
S'Triple Y'
p137
aS'AAAAAGAACGGGCGAUCUAAUGAUCGCAGGAAACUGCGCCCCACCGGAGGAAACUCCGCUCGAAAGAGCGGUGGUUCAAAAAAAAAAAAAAAAAAAA'
p138
aF1.0
aa(lp139
S'Misfolded Aptamer'
p140
aS'GAUCAAAAAAGGGACAAAGUCAGCGAAAGCAAAAAAAAACCAAAAGGAUC'
p141
aF1.0
aa(lp142
S'Flower power'
p143
aS'AAAAACGUCCAUCAAGGGUGUAUUGGAGCUCUGUUCAAGAAAAAACAUCAACAUAUUUGGACUAUAAGUUGAAAGUGCGACGAAAAAAAAAAAAAAAAAAAA'
p144
aF0.8627450980392157
aa(lp145
S'Kudzu'
p146
aS'AAAAGAUGAGGUGAUGUAUAGCGUAGCAAAGACCAGCGCCAGAAAAAAUUAUUUGUUGACAAGGCCUAAACCGCUACAUAUAAAAAAAAAAAAAAAAAAAA'
p147
aF0.9405940594059405
aa(lp148
S'"1,2,3and4bulges"'
p149
aS'AAAAAGGGCUGGAUUAAAGGCGAAAUGUGGAGAAAAUUGUGCACUAAAAGCGCUGAAUAAUUAAAUCUUAGAAAGUUGUGUAAGCAAAAAAAAAAAAAAAAAAAA'
p150
aF0.9809523809523809
aa(lp151
S'medallion'
p152
aS'GAUAUCUAUAUACGAAAGUAUAUUAUCGAAAGAUUAUCGAAAGCUUAUAGACGAAAGUAUAUUGACGAAAGACAAUUUACGAAAGUGAAUAGCCGAAAGAUAUUCGAAAGUGAAUAUACGAAAGUAUAUAUCCGAAAGAAAAUAUACGAAAGUAUAUAAUUGAAAAAUAGUAGAAAGACUAUAGACGAAAGUCUAUUAUCGAAAGAAAAGAUAGGAAACUAUUUAAUCGAAAGAUAAUCGAAAGGUAAUAUACGAAAGUAUAUAAGCGAAAGCUAAUAUACGAAAGUAUCUAAUCGAAAGAUUAUCGAAAGACUAUAUACGAAAGUAUAUUGAUAUC'
p153
aF0.9643916913946587
aa(lp154
S'[RNA] Repetitious Sequences 8/10'
p155
aS'AGGAAAAAAGCAAAAAAGCAAAAAAGCAAAAAAGCAAAAAAGCAAAAAAGCAAAAAAGCAAAAAAGCAAAAAACCAAAAA'
p156
aF1.0
aa(lp157
S'Documenting repetitious behavior'
p158
aS'AAAAAAAGGAAAAAAAAAGGAAAAAAAAAGGAAAAAAAAAGGAAAAAAAAAGGAAAAAAAAAGGAAAAAAAAAGGAAAAAAAAAGGAAAAAAAAAGGAAAAAAAAAGGAAAAAAAAAGGAAAAAAAAAGGAAAAAAAAAGGAAAAAAAAAGGAAAAAAAAAGGAAAAAAAAAGGAAAAAAAAAGGAAAAAAAAAGCAAAAAAAAAGCAAAAAAAAACCAAAAAAAAACCAAAAAAAAACCAAAAAAAAACCAAAAAAAAACCAAAAAAAAACCAAAAAAAAACCAAAAAAAAACCAAAAAAAAACCAAAAAAAAACCAAAAAAAAACCAAAAAAAAACCAAAAAAAAACCAAAAAAAAACCAAAAAAAAACCAAAAAAAAACCAAAAAAAAACCAAAAAA'
p159
aF1.0
aa(lp160
S'7 multiloop'
p161
aS'GAUGGAUACGAAAGCGUCGUUGCUCAUGUGAUAUUUGUAAUGGAAUUAUGUGAAAGCGUGGCUGAGAAAUCAGCGAUCAUAAUUUGAAGGCC'
p162
aF0.8913043478260869
aa(lp163
S'Kyurem 7'
p164
aS'AAAAGGAAUUAGGGCGAAAGUUGCGUGAAGGUUAGACGAAAACUCGUAUCAUUAAAAUAUGAAAAAAUGGUUACUUGUGAUCAAAAAAAAAAAAAAAAAAAA'
p165
aF0.9411764705882353
aa(lp166
S'JF1'
p167
aS'GAUACAUGUAUUAUAUGGAGAUACGAAAGAUAUCAAGAUACAAAGAUACAAGAUAUCAAUAUAUAUAUAUACGAAAGUAUAUAUAUAUAUAAGACGAAAGUCAAUAUAUGUCGAAAGACAUAUAUAAAUAUCGAAAGAUAUAGAUAUCAGUAUCAGUAUCAGAUAUCAAAGAUAUGGCAAAAAGUCAAUAUCAAGAUAUAUAUAGUAUGUAUGUAUGCGAAAGCAUAUAUAUAUACAUAUAUAUAUCAAAGAUACUAAAAUGUAUCCGAUGUAUGCGAAAGCAUAUAUCGAAAAUAGAAAACUAUAAGUAUCAACAUAUUGAUCAGACAGACGAAAGUCGUCGAUCAGAUAAGUACGAAAGUACUAUAUCAAUACAAUGUUAUCAAA'
p168
aF1.0
aa(lp169
S'multilooping fun'
p170
aS'GCACAGUACAAAGGGGGAAACAGAGGAUAAAAGAGC'
p171
aF0.8333333333333334
aa(lp172
S'Multiloop...'
p173
aS'GAUCAGAUCAGACGAAAGUCAGACGAAAGUCAGACGAAAGUCAGACGAAAGUCAGACGAAAGUCAGACGAAAGUCAGAUCAGAUGCAAAAAAGCAUCGACGAAAGUCGAUC'
p174
aF1.0
aa(lp175
S'hard Y'
p176
aS'AAAAUCGUUGGAGGGUUUUCGAAAGGAAACCGGCCGAUAGAUAUCAAAGGGUAUCUAUCAAUGUAAAA'
p177
aF0.9705882352941176
aa(lp178
S'Mat - Elements & Sections'
p179
aS'AAAAGAAACUCUAAGGGUUCAGCUGUGGAGUUGGCAGGGCGUUAAAGUGAUACGCCACGUCACGAAAAGGGAAUACGAUGUGUUUAAAAAAAAAAAAAAAAAAAA'
p180
aF0.9619047619047619
aa(lp181
S'Chicken feet'
p182
aS'AAAAAAGAGAAUGUAUUAAUCGAAGCGAAUCCUGGUAGCGGCAAGUUGGUUAAGCACAGCGGAAAAA'
p183
aF0.9104477611940298
aa(lp184
S'Bug 18'
p185
aS'AUGAAAUGGGGUAAGUGAGUAGGGAACCAAGUAGCGACCAUCGUAGAAAGUGA'
p186
aF0.9622641509433962
aa(lp187
S'Fractal star x5'
p188
aS'AAAAAAUAUUUAGUAAUACGAAAGUGUGAGUACGAAAGUACAAAUACGAAAGUAUAAAUACGAAAGUAUAUCUAAAUAUAAAAGAUAUAUACAUAUACGAAAGUGUUAAUACGAAAGUAUACAUACGAAAGUAUAAAUGCGAAAGCAUAAGUAUAUAUAAAAUAUAUAGAGAAAUAGGAAACUAUAAAUACGAAAGUAUGAAUACGAAAGUAUAAAUACGAAAGUAUAAUUCUAUAUUAAAAGUAUAUAUAAAUACGAAAGUAUAAAUACGAAAGUAUAAAUACGAAAGUAUAAAUACGAAAGUAUAAAUAUAUACAAAAAGAAUUUAUAAAAACGAAAGUUUAAAUACGAAAGUAUAAAGACGAAAGUUUAAAUACAAAGGUAUAAAUAGAUUCAAAAA'
p189
aF1.0
aa(lp190
S'Crop circle 2'
p191
aS'UAAAAUUAAAAGUAAAAGUGAAAAAAAAACGAAAAAAAAAAAAAAAAAAAAAAAAAAAAAGCGAAAAAAAAAAAAAAAUAAGAAAAACGGCAAAAAAAAGAAAAUGAAAA'
p192
aF0.9454545454545454
aa(lp193
S'Branching Loop'
p194
aS'UCUAAGAAAAAAAACGUUAGAAAUAGCCGUUAGUAAAAAA'
p195
aF0.95
aa(lp196
S'Bug 38'
p197
aS'ACUAAUAACUAGGAUCAAAGCUUGUGGAUGAAAGGA'
p198
aF0.9444444444444444
aa(lp199
S'Simple Single Bond'
p200
aS'AAAAAAGGAAAAAAAUAUGCUAAAUGCAUUAAAAAAAACGAAAAAAAAAAAAAAAAAAAAA'
p201
aF1.0
aa(lp202
S'Taraxacum officinale'
p203
aS'GCACGAAAGAUGCGGCCCAAAGGUUCCAAUCCGAAAGAGAUACACCGAAAGUAUAGAGAUAAAUGACCUAAUGGUAAUCACAUGAAAGUAUCUAUUAUACUUGUACGAAGUACAAAGUAUAGGGUGCAAAUAUAUAUUCUCGGUAUAGGAAUUAUAUCUGAAUAUAUAUGAUCAGAUGUCUAUGACAUCGAUCGUACCAAAAUAGAUACUUUAGUCAUAAUUAGCCACGCAUAAUGAGCGGAUGCGAAAGACGUAACCCGAAAGUGGUAAGCGGAAACAGCC'
p204
aF0.9929078014184397
aa(lp205
S'Headless Bug on Windshield'
p206
aS'AAUGGAAAAAAAAGCCAAGGCGGAUAAAAAAAAAAAAAAAAAAAAAAAAAAUCAGCAAAGGCAUUGAAACAAUAAAGAGGUCAAGGAAAAAAAGGUAAUUCGAAAAAACCGACAAAAAACGCUGUGGUGAAAAAAGAGUGUCAGCUGAAAUAGACUAAAAAAAAAAAAAAGUCAAAUAAGGGAAGAUGUUAAGCCUAGUU'
p207
aF0.98
aa(lp208
S'Pokeball'
p209
aS'AAAUUUAGGCAAAAGUAGGCAAGUGAAGGAAGAGAACAAUCCGACAAACUAUCCGGUUAGAGGCAUCGAGCAUACGGCGGCGCCUAAGAAAAAAAAUACAAAAAAAAGGAUGGAAUACGUCGAUGGAGGGUAGUAGUCAACCUAUGAAGAAGGCUGCACCUACAUGUAACCUUCUUUUGUAAAA'
p210
aF0.9782608695652174
aa(lp211
S'Variation of a crop circle'
p212
aS'AAAAGGGAAAACAAAUUCGUAAACAAGUAAAGUAUCCUAGGGAAACAGAAAAAUCUAAAAAGGUAAAAAAAAAUCAAAAAAAAAAAAA'
p213
aF0.9545454545454546
aa(lp214
S'Loop next to a Multiloop'
p215
aS'AUGAUGUAUGUAAAAAGGAGAGAGCGAAAGUUUUCAGAUCUAGAAAGCUAGAUCGUAAAAAAUCAUAUAUCUA'
p216
aF0.9726027397260274
aa(lp217
S'Snowflake 4'
p218
aS'GUCCUAUGGACGUUUUCCUAAUGGGAUAUUUCGUACUCGAAAGACAUAACAUCAAAGAUGCAAUACAAACAAUAUAUGCCAAAGGGGUACCAGGCAUCCCGAAAUGGGACCCGUCAAAGAUGAAAUACAAAGUAAGGUCUCUAAAGGGGGCGCAAGUUACAGAAAGUUCAAUGCAGCGAAGAUGAAGGACUAUGUCCCGUUGACAAAGGUGUAACGAAUCUCCCGAAAGGCGUGCCUACAAGGUGGAAGUACAAAGUACGUAUGACGAAAGGGAGAUAUUAUACGCGAAAACCAUAUUUUUAAAGAAGAAAUGUAAAGUCUGUAUGCUGAAAAGGUACAGUGUUUCCCGAAAGGAGAGGCCUCAAGGAGU'
p219
aF0.8081081081081081
aa(lp220
S'Mat - Cuboid'
p221
aS'GUAGCAAAACGAAGAAAAAGGAAGUAAAAGAAGGUAGCAAAAGGAACGAAACAAAACAAGGUAGGAAGCAAAAGGAAGGAACGAAUCAAAAGGAAGGAAGGAAGCAACCAAAACAAAGCAGGUAGUCAAGCAAAAGCAAGCAAUCAAGCAAGCGAGGAAAAUCAAUGAAGUGAGCAACCAAGCAAAACCGAGCAAGCAAGCAAGCAACCAAAAAAGGAGGCAAGCAAGUAAGCAAACGCAAGAAAGUAAACAACGAGGAUCAAGCAAGCAAGCAAGUAAGCGCAGGGAAGGAAGCAAUGGGAAGCAACCAACUAACCGCAACGAACCAACUGCAACCACCCAAGGUAACGAGCCGCAUCCAACGAAGCCGCAACCGCAUC'
p222
aF0.9052631578947369
aa(lp223
S'Misfolded Aptamer 6'
p224
aS'AAAAAAGCCAAAAAAGAUCAAGUAAUGACAAAAAAAAGUCUAAUCGAAAAGAUCAAAAAAAGGUAAAAAAAAAAA'
p225
aF1.0
aa(lp226
S'Snowflake 3'
p227
aS'GACCAGAAAGUAGUCUAGGAAACUAAAGUUCGGAUCAAUACGAAAGUACGCAGUGAAAGUGCUAAGGUCGCGAAAGCGACGUACGAAAGUAAAUAUCAGAUCAAGACAAAGGACCACAUCUAAUGAGACAAGGUCUCGAAAGAAGUGAAAGAAAUUUAAGAUCAGAGCAAGCCGAAAGGCCACAGAGAAAGUGACGAUGUCGAGAAAGCAGUGUACGAAAGUGAGGUUCGGCUCAAGACGAAAGUCCGCAUCAAAGGAGCUAAGGGCGCGAAAGUAGCGCGCGAAAGUGAGGGUUACAUCAACUUGAAAAGACUAAGUAAAGACAGCAAGGCUGCGAAAAUAUGGCACUAAUGAGAAGACGAGGUCGAGACGAAAGUCGGCGACGAAACUGUC'
p228
aF0.8778625954198473
aa(lp229
S'Hard Y and a bit more'
p230
aS'AAAAGGAUGCGUGGAGACUAAUGUUUUCGCGAUACAGCAGGCUCGAAAGAGCAGGAUACAAAAAAGUAUCAAGCGGUAUCGCAUCAAAAAAAAAAAAAAAAAAAAA'
p231
aF0.9716981132075472
aa(lp232
S'Mat - Lot 2-2 B'
p233
aS'GAGGGCAAGACCAAGCAAAAGCGAGACAGAAAUGAAAAUCAAGCGCAGGGAAAAUCGAGUCGAGGCAAGCAAUUUCAAGGAAAAGUAAGAGCAAGAAAAAGAAAAGUUUCAAUCAAAAUCGAACCCAGGCACGGGCAAAAGAAAUUGCAAGAGCUAGGAAAAGUAAGAGUGAAAACAAAAUCAAGCUCAUGCAAAAGCAAUCGCAAGCAAACGAGCACAAAUAAAAGCAAGAUCGUGCAAAAAUGAAAGUGUUAUAAAAAUCAAGCACAGGGGUAAGGAAGAAC'
p234
aF0.7992957746478874
aa(lp235
S'Shapes and Energy'
p236
aS'AAAAAUGUUUGGCUCUGAAAAGAAAGCUAAGGAAACGGAGUGAGAGGGACUAAGGUACAGACAAAAGUGUCGCACUGAUGGAAAAAAAAAAAAAAAAAAAA'
p237
aF0.9207920792079208
aa(lp238
S"Spiral of 5's"
p239
aS'AAAAAGAAACGAAGUUACAAAGAUACGAAAGUUACGAAGAUACAAAGAUACGGGAUACAAAAGAUACGAAGAGACAAAGAUACAAGAUCCUAAGGUACAAAGCUACAGGAGAAAAAGAUACAAGAGGCAAGAUACAAGAUACUUGACAGAGGUACAGAUGAGUCUAUAAAUUAGAUCAGGAUCGUCAAAAAGUACUGAAAAUUGUCUAAAUGUAUCAAAAAGUAUCAAAAAGUUUCAAAAAGUAUUAAAAAUUCUCAAAAGGUAGCAAAAGGUACCAAAAUGGAUCGAAAAGUAUCAAAAAGUUUCAAAAAGUAUCAAAAGGUAUCAAAAAGUAUCAAAAAGUAUCAAAAAGUAACAAAAAGUGUCGAAAAGUAGCAAAAAGUUUCAAAAAUAAAAA'
p240
aF0.9949622166246851
aa(lp241
S'Campfire'
p242
aS'AAAAGAUCAAAUAGCAAGGUUAAGAUCAAAAGGAUCAAUCUCAAGGCUAACUGGCUAAGAUCCUCAGUGGAAGCAAAGGUAUCCGCGCCACACUACAGCAGAGCAAUCGCGUGAUGCGACGAAAGUACAAAUCAUGCAGUGGAUACUUCCUACCCCGGGCAGAAAGAAGAAAGUUUCUUCGCCGACGUGUCGAUGACAACAGGCAGUGGAUC'
p243
aF0.9056603773584906
aa(lp244
S'Anemone'
p245
aS'AAAACUAUCGAAAGAUAGUGCUGCGAAAGCAGCGAUCUCGAAAGAGAUCGAUACUAAUGUAUCGACAGCGAAAGUUGUCGCCGCGAAAGCGGCGUUACGAAAGUAGCCAUAUUGAAAGAUAUGACUACGGAAAUGUAGGAGGUCGAAAGACUUCGAGACGAAAGUCUCGGGAUCGAAAGAUCCCCAUGCGAAAGCGUGGAUUUCAAAGGAGAUC'
p246
aF1.0
aa(lp247
S'Fractal 3'
p248
aS'AAAAAUAUUUGCCCCAGAAAGAGCGAAAGCCGGUUUUGAUCGAAAGAGAGACAUCAUUAUGGAAGUUAAGAUGCGAAAGUAGUAUGCCGGGGAAAUCGGGAAAUCAAGCUAAUGAAAAA'
p249
aF0.9495798319327731
aa(lp250
S'Kyurem 5'
p251
aS'AAAAAGGAAUGCUGCGAAAGCACACUAAAGAUCUAUCAAAUAUUAAAUGUGGGUGGUCGAAAAAGUUAGAUCGUCACAUAUGUUCAAAAAAAAAAAAAAAAAAA'
p252
aF0.9230769230769231
aa(lp253
S'Snowflake Necklace ( or v2.0 )'
p254
aS'UCUACAUAGGUAUUCAGACAUAGGAAAAACUGAGAAAAACCAGGAAAAAUUAACAAAAAGUACCAAAACGGGACGUCAGACAAAAAGUCGGGGCUAGCAAAAUGCAUCUAAAUGGAGCAAAAAGCGACAAAAAGGAAGUAAAUCCAGUACCAGACAAAAACUCGGUUAAAGCAAAAACUAGGGAAAACCAGCAAAAAGUAUCAAAAAGAGACAAAAGGCAUUAGGACACAAAAAGCGAGCUCUUGCGAAAAGCUAUAAAAAACUGAAAAAAUCAUCAAAAAGAAACAAAAAACAAGAGCAGGCAAAAAGUCUUGUAUACCAAAAAGGAUCAAAAAGAAACAAAAGGCGAGGAAAAUCAUCAAAAAGGAAUAUACGAAUAUUUAUGUAGG'
p255
aF0.8354755784061697
aa(lp256
S'Methaqualone C16H14N2O Structural Representation'
p257
aS'AAAAAAAGUUCAUCUCACACGGACGAAAGUCAGAUAAUCGAAAGAUGAGCUCACGAAAGUGAGAUAAUCGAAAGAUAAGCAAAAAAAUCUAGUCUGUAAAUCAGGGACCAACAGAGGAUGUCUAAAGAGUCAAAGCAAAGCAAAAAAAAGACAGAGAAUCGAAAGAUGACGAAAGUCCACGAAAGUGCUCGCCAAAGAUCUAAAACUGGCCGACAAUCGGAGAAUCAAAAGACGAAAGUCAGGUGAUCGAAAGAUACUCAGACGAAAGUCAAAUAGACGAAAGUCAGUCUCACCAGGAAAUUGAUCGAAAGAUAAUCGAAAGAGGGUAGCCCGAUCAAUAACGAGAACAAAAAAA'
p258
aF0.9774647887323944
aa(lp259
S"Cat's Toy 2"
p260
aS'AAAGGGUAUAGCUAAAAUUAGAAAAAAAAAAAAAAAAAAGUAUGGAAACCAAAGGUAAAGGAAAGUCGAAAAAAAAUUAAAAUACGUUAUACCAAAA'
p261
aF0.9587628865979382
aa(lp262
S'Zigzag Semicircle'
p263
aS'AAAGGAGUCGCGUGAAAAUUGGAAAGGUUCAAAA'
p264
aF0.9411764705882353
aa(lp265
S'Short String 4'
p266
aS'AAAAAUGCAUGAAGCGACAAAGGGUACCGAAAGGGCAUCAAAUUGUUAGUUAAUACAUGCAUAAAAGAGCAAUGCCUAAAAAAAAAAAAAAAAAAAA'
p267
aF0.9381443298969072
aa(lp268
S'Gladius'
p269
aS'GGAAACAAGAAAAUAAACAAGUGAAGAAAGUCUUUCGAACAUUGAAAAAUGAGAUCCGAGAGACGUAAGAUCAGGUUAAAGAGAGAUCUAGCAGAUUUCAGAUACAGGUGAGAUCAGGAUUAAAGAUCAGAUACUAUCGAUGUCGAAAAUCGACUAGAUCAGCAUUUCUACAGAUCAAUUGUCAUCAGGAUUAGUGAAUUAAGUAUAGUGAUUAUAUAAGAUGUGGGGAUCAGUUGUUUAACAGGAUUGAGAUACACGACGCAGACAUAUAUCAAAGGAUAUAAAGUCGACGUCAGGUAUACUGAUCACGUUAAGCUCGAGAUCAGUAUAUCGGAAGUGUUAUCUAUGAGCUUGAAAAAGCAAAGUACGACGAACAACUGAGGAAAAAAAGUAAUAAAAA'
p270
aF0.88
aa(lp271
S'Thunderbolt'
p272
aS'GCAAGAUACAAAAAAAAAUCCAAGCUUAGGAGGGAAAGACGUAUAUCAAAAAAAAAGUAAAAAAGAUUAAAAAGAUCAAAAAACCGAGCAAAGGUAAAAAAUAAGAAAAAAUAAAAAGUAAGCAAAAAGAAAACAGAACGAAAGGAUGAAAAGAGGCAUAAAGAGCAACAAAAAAUCAGAUCAAGGAGAAAAAGGAGAGCAAAGCACAACAAAAAAACAGAGAUCAAAAAAAAGUUCAGAGGGAUAUCAAAGAUAUCAGCAAACAUAAAAAAAAUUUAAGGAAAAAAAAAUUAUCGAAAGUGAAGCAAAAAGGAAAAAAACAAAAAGCUUCUAAGAUGAAAGAUAUAUGAAAAAAAAGCGUAAGGUUAAAAAGAAAAAAACGGUAUCAAGCA'
p273
aF0.9591836734693877
aa(lp274
S'Mutated chicken feet'
p275
aS'AAAAAAGUCAGUACGAAAGGACUAAAAGAAAACCGACGCCCAUCAAGGGAGGAAAUCAAAGGACGGCAGCUAGAAACCAGGAAAUCGAAGCGCAAAAAAA'
p276
aF0.88
aa(lp277
S'Chicken Tracks'
p278
aS'AAAAAAAAGAUAUACUAUUAAAGGAGGAAGUUCAAAGGAACGAGAUCGAAAGAUCGUAUGUCAACAAGUCGAAAGAACGUGGUCAAAGAGGUAUUGUGAAAAAGAGGGAAAAAAAA'
p279
aF0.9482758620689655
aa(lp280
S'Looking Back Again'
p281
aS'GGCAAAAAGCUCGAAAAGCCAUCGAAGUGAACAGAGCAAGAGCACAAGACAAAGUCGGGAGAGGCAAAAUUCAAAGGAAUGAAAGUUUCAAGUCGAGUUGUAAAUGCCUAAAAUAUAUAAAGGUGUGAAAAAUGGCCCUUAGGUACAAAGUACCGAUAUAAGAGAUCCGUAUGAUAGCAAGAAGGAGAAGAAGAUCGAAAGAUCGGCGCAACCGACAAUCAUGAAAAUGUAUAUAUCAAAGAUGGAUUCCGAGGAAAUACAAAAAAGAGAUAGAAAAAAAAUACAAAAAGUGUCCUAUGAAAUCACUACGCUCAAAAAAGCCGAUGUGAAAACAUCGAAGAACCUAUGGAUAUGCGAAGAGUAAAGUGGCAAAAGAUCCUAUCAAGAUC'
p282
aF0.8046272493573264
aa(lp283
S'Multilooping 6'
p284
aS'AAAUUGACGCAGACGAAAGGGAAAGUUAAGAAAUUAAUGUGGGAGAUACAAAGGUAUCUUCGGAAAGUCAUGUUGUCGGCGG'
p285
aF0.9024390243902439
aa(lp286
S'Cesspool'
p287
aS'UAAGAAGGAAAAAGGGGUAGAGACCCAAACGAAAUAAUAGACGAUUAAGAAAACAAAUAAAUAAAAGAAUGAAAAAAAAAUAACAAGAAGAUGAAUGAAAGAAAUGAAGAGGCGGAAAGUGAACUACAACAUGAAAAGAAAGCAAUAAAAGAAAACAAUAAAAAUAAAAAAAUUACAAGCAAGAAGGAAACAAGGGAAGAGAUGAAAAUCGAACAAUAACUCAAAAAGAAAAUAAUAAAAGGAAACAAUAAAAAAAAAAUAACAAGCAAAUAAGAUGAAAACUAAUCAAGACACACAAAAACAAGGAGAACAUAAAAAGAAAACAAUAAAAGAAAACGAUAAAAAAAAAAUAACAAAC'
p288
aF0.7793296089385475
aa(lp289
S'Hoglafractal'
p290
aS'AAACGCAAGAUACAAAAUAUACUAAAAUGUAUAGUAUCGAUCAAAGAUCUAAAUUGUCGAUCCACAAGUUGAAAGACGUGGGACAAAUAUCAAAGAUCAAAAAAGAUCGCUCAACAAGACAAAAAGUCGUUGCAACGAAAGCGCAAGACAAAAGACAAGACAAAAAAGUCGUCUCAGCAAAAAGCGAGACGCAAGUCAGAUACAAAAAGCAGCAAAAAAGCGCACCAAAAGGGGCCGAAAGGUGAUAUCGAAAAAGACUAAAAUGUCGCAAAAAGCAAAAUAUAGCUAUGCUAUAUAAAAAAAGAUAUCUAAAAAGUAUCAAAAAGUAUGAAGGUGAAACCAAUAAAUGAUAGAUAAAAAUCGAAAGAAGGAAACAUAUAUCAAAGAUAUAAUAUCACAA'
p291
aF0.91
aa(lp292
S'Bullseye'
p293
aS'AAUGUUGAUAAAAGAUCAAGUUCAAAGAACGAGACCAAGGAUCAACUAAAAAAAGACGAACAAGAUGCAAAGACAAGAUAUAACCGGUAUCCGGGCUGAAAAAAUGUCAAGCAACGCUCAAUUCCAAGGGAGAAUAUAAAAGUGGAACUAAAAAAUGUGGGUUAAGGAUCAAGCUCAAAGAGCAAAUUGUAUGAGAGACUAA'
p294
aF0.8465346534653465
aa(lp295
S'Shooting Star'
p296
aS'GGUAUCGCACGAUAUAGGAAGAGAAUGUGACAGUUUGCGAAAGACAAACGUCCCACAAUCAACUAUAUCAGAUACAAGAUAAUCACAGAGAUACAGUGAAGACAGUCAAUAACGUCAGCGCCAUAUACCUGAGAUAACCCGGCAAAAGAGCAUCGAGCCACAUAAAAUGGGAAUAUCAAAGAUAUGUGAAAACUUAGCUCAGUGUAGAUACGAGCAAAAAAUAUAGAAUGUAUUUAAUUGCAAAAUGAAGCUCGAUACAGAAACUGUAUCAAUCCUAAAAGGAAAAUCGAGAAAUAAAAAAUAGAUCAUGAGAGACAGGUCAGCGAAAGACGACACGUCGCAACUAGUAGUUUUUAAGAUACCA'
p297
aF0.8351648351648352
aa(lp298
S'Teslagon'
p299
aS'AAAAAAGGAAAAAAAGGAGGAAAAAAUGCAACAAAAAAAAAAAAAAAGUAAAAAAAAAUCAAAAAAAAAAAAAAAAGAGAAAAAAAACCAUGAAAAAAAGUAAAAAAAAAAAAAAAGCAAAAAAACAAGGAAAAAAACGGCCAAAAAAAAAAAAAAAGCAAAAAAAAAGCAAAAAAAAAAAAAAAGCAGCAAAAAAACAAAGGAAAAAACCAAAAAAAAAAAAAAAGCAAAAAAACUGCGAAAAAAACCAGUAAAAAAAAAAAAAAAGCAAAAAAAACGGGAAAAAAAAAAAAAAGCUGCAAAAAAAACAGGAAAAAAACAAAAAAAAAAAAGGGAAAAAAAAAAAAAAACCAUGGAAAAAACCAUCAAAAAAGCUAGAAAA'
p300
aF0.9136125654450262
aa.