(lp0
(lp1
S'Simple Hairpin'
p2
aS'GAUACAAAAAAGUAUC'
p3
aF1.0
aa(lp4
S'Arabidopsis Thaliana 6 RNA - Difficulty Level 0'
p5
aS'GAUAUACGAACGACAAAAAAAAAAAGUCGAUAUAUCAAGAUAUAUAUAUAUAUAUACAAAGAUACAAAAAAGUAUCAGUAUAUAGUAUAUAUAUAUCAAGAUAUAUCAAGUAUAUC'
p6
aF1.0
aa(lp7
S'Prion Pseudoknot - Difficulty Level 0'
p8
aS'GAAGUCAGAUCAAAGGAUCGACAUUCAAAAAAAAAA'
p9
aF1.0
aa(lp10
S'Human Integrated Adenovirus - Difficulty Level 0'
p11
aS'GAUAGAGAUAUAUCAGAUAUGAAAAAAAAAAAGCUCCAGACCCUGAGGGCCCGUAUCAUAAGACAUUGAUAUACAAAAAAAAGUGUAUCAAUUAAAGUCGAUACAAAAGGGGGGACAUGUCUGAAAAUUUCCGAAAAAAGGAGAUGAGCGAAAAAAAAAAGCAUAUCGGAUAAAAAUAUCUCAAAUAUCAAA'
p12
aF1.0
aa(lp13
S'The Gammaretrovirus Signal - Difficulty Level 0'
p14
aS'AACUGAAUGUAUCUAAUGAUACGGGCUGGAAAAAAACCAACAUAGAUUCAGAGGAAACUCUGCAAAAAUCGUGGGUUAAGAUAUAUCAAAGGAUGUAUCAA'
p15
aF1.0
aa(lp16
S'Saccharomyces Cerevisiae - Difficulty Level 0'
p17
aS'GAUAAAGGGAUAAAAAAAAGUCCGCUAAGAAAAAAAAAAAGAGAAAAUACGUUAAAAAUAUGUGCUUUAUCAAAAAAUCUACAAGGUGAAAAAAAGCACCGCCGAAAAAAAAAAAAGGCAAAUGACACAAAAAAGGUGUCGUAGAUUGAAACAGGUUCAAGAGGAAAAAAAACUUCGUUAUCAAAAAAGGAUAGCAAAUGGUAGAAAAAAGUUGCCGAACUUGAAAGCAUAUAGACGGUCGAAAAAAAGACCUGUAUCGAAAAAAGAUAUAAAAUGUGAGUAAAAAUUUUAGCUAUGUGAAAUGUCUCUCCAGCGCGAAAAAAAGUGCGAUAUAUAAAAAUUAUAUCAAAUGUUGGAAAAAAGUCAACGGGAGACUAAA'
p18
aF0.9947229551451188
aa(lp19
S'Fractal 2'
p20
aS'AAAAAGAUAUAUCAAAGAUAUAUAUGAAGAGCAAAAAAAAAAGCUCAAGAGCAAAAAAAAAAGCUCAAGAUCAAAAAAAAAAGAUCAACAUAUAUAUCAAAGAUCUAUAUGAAGAGCAAAAAAAAAAGCUCAAGAGCAAAAAAAAAAGCUCAAGAUCAAAAAAAAAAGAUCAACAUAUAGAUCAAGGAUAUAGAUGAAGAGCAAAAAAAAAAGCUCAAUUGCAAAAAAAAAAGCAAAAGAUCAAAAAAAAAAGAUCAACAUUUAUAUCAAAGAUAUAUCAAAAA'
p21
aF1.0
aa(lp22
S'G-C Placement'
p23
aS'GUACAAAGUACA'
p24
aF1.0
aa(lp25
S'The Sun'
p26
aS'GAUAGAAGGACAAAGUUCAUUUCAUCAAGGCCAUAUGUACAAAGUACAAGUAGGCAAAUAUAGCUCCAUAAGAUAUAAAGCGUAGAAAACUGAGCUACAAGGUAGAAUUCGGUGAAGACAUAUGGUGAAGCAUUAAGUAGUCAAGGUUAGAGGUUCAAAGUAUGAUUCGGCAAGGACAAACGACCAAAGGUCAAGUUGUCAAAGGAAGAAGGUCGAAGUUCCAAUCGUCAAAGCCAGAGAUUCAAGGAACGAAUCGGC'
p27
aF0.8333333333333334
aa(lp28
S'Frog Foot'
p29
aS'AAAAAAAAAAGAUCAAAAGAUCGAUCGAAAGAUCGCCCAAAGGGC'
p30
aF1.0
aa(lp31
S'InfoRNA test 16'
p32
aS'GAUAGCGGAGGUAUCAAAAGAUACACUACGGUUAUC'
p33
aF1.0
aa(lp34
S'Mat - Martian 2'
p35
aS'GAUCAAAAGAUCAAAGACAUAUAAGAUAUACAAAAAAAGUAUAUCAUAUGUCAAAGAAUAUACAAAAAAUAUAUACAGAUAUACAAAAAAGGUAUAUCGUAUAUAAAAGAUAUAGGUAUAUGAAAAAAACAUAUACACUAUAUCAAAAAAGUAUAUUCAAAGAAAAACGUAUAUGAAAAAAACAUAUACCAGUUUUUCAAAGAGGGAAAUCUC'
p36
aF1.0
aa(lp37
S'square'
p38
aS'GAUAUACCAGAUCCAGAUACCAGAUCAAAGAUCUGAAAAGUAUCUGAAAAGAUCUGAAAAGUAUAUC'
p39
aF1.0
aa(lp40
S'Six legd turtle 2'
p41
aS'AAAAAGAAAUGGAAAACCUAUGUAAAAUCUAAGUUAAUGUGAAUGAAAAGAAAAAUAAAAAUAAUAGGAAAUUUAAGUAAAAAAAAAAAAAAAAAAAA'
p42
aF0.9591836734693877
aa(lp43
S'Small and Easy 6'
p44
aS'GGAAAAAUAGGUUAAAUAAAAAAAUUCUCC'
p45
aF0.8666666666666667
aa(lp46
S'Fractile'
p47
aS'AAAAAAAAAAAAGAAAAGGCAAGGGCAAGAAAAGUAACGCAAAUGGAAAUGAAAGAUGGUAAAAGCAAAUUAAGCGAAAGCAAAAAAAAAAAAAAAAAAAAAAAA'
p48
aF0.9619047619047619
aa(lp49
S'Six legd Turtle'
p50
aS'AAAAUGAAAAAGCGAAAGGAAAAGGAAACCGAAAGCCAAAAGGAAAAUUAAAGGAAAAAUGAAAACAAAAAGGAAAAGCGACCCGUAAAAAAAAAAAAAAAAAAA'
p51
aF0.9619047619047619
aa(lp52
S'snoRNA SNORD64'
p53
aS'GAUAUCAAAAAGACAAAAGACAAAGAUACAAAAAAAAAAAAAGUAUCGAAAGUCAAGUCAAGAUAUC'
p54
aF1.0
aa(lp55
S'Chalk Outline'
p56
aS'AAAAAAAUAAUCCACUAAUGGGGAGUCUGUCGGAAAGCAGUGGUCCUCCCGAAAGGAGAGGGGAGCUUAAUGGCCGAGAUGGCAAAAAAAAAAAAAAAAAAAAA'
p57
aF0.9615384615384616
aa(lp58
S'InfoRNA bulge test 9'
p59
aS'GGUAUACCGAGAGAGAGAUACUAAUGUAUCUCCCCGUAUACC'
p60
aF1.0
aa(lp61
S'Tilted Russian Cross'
p62
aS'AAAAACGCUGUACGAAAGUGACGUGAGUCCUACUCGACGGUGCAAAGGUAUUAAGUAGGAAUAUGCCCGCUUCAAAGGAGGGACGGCAAAAAAAAAAAAAAAAAA'
p63
aF0.9809523809523809
aa(lp64
S'This is ACTUALLY Small And Easy 6'
p65
aS'GAAAAAAAAAAAAAAAAAAAAAAAAAAAAAAAAAAAAAAAAAAAAAAAAAAAAAAAAAAAAAAAAAAAAAAAAAAAAAAAAAAAAAAAAAAAAAAAAAAAAAAAAAAAAAAAAAAAAAAAAAAAAAAAAAAAAAAAAAAAAAAAAAAAAAAAAAAAAAAAAAAAAAAAAAAAAAAAAAAAAAAAAAAAAAAAAAAAAAAAAAAAAAAAAAAAAAAAAAAAAAAAAAAAAAAAAAAAAAAAAAAAAAAAAAAAAAAAAAAAAAAAAAAAAAAAAAAAAAAAAAAAAAAAAAAAAAAAAAAAAAAAAAAAAAAAAAAAAAAAAAAAAAAAAAAAAAAAAAAAAAAAAAAAAAAAAAAAAAAAAAAAAAAAAAAAAAAAAAAAAAAAAAAAAAAAAAAAAAAA'
p66
aF1.0
aa(lp67
S'Shortie 4'
p68
aS'GCAAAAGCAACGAAAGU'
p69
aF1.0
aa(lp70
S'Shape Test'
p71
aS'AAAAACGGAUCAAGAUACAAAAAAAAGUAUCAAGACAGGCUGAUACAAAAAGUAUCUGAUCGAAAGAUCAGCCGUCAAGAUCGGAAAAAAAAAAAAAAAAAAAA'
p72
aF1.0
aa(lp73
S'The Minitsry'
p74
aS'GACGUAAGGUGGAAAGGUCAAAAAAACAAAAGGUUAAAAAAAAGACAGUUGGGCACACAGUC'
p75
aF1.0
aa(lp76
S'stickshift'
p77
aS'AAGAUAUCCCAAAAAGGAGAUAUCAA'
p78
aF1.0
aa(lp79
S'U'
p80
aS'AAAAAGAUACAGAGAGCAGAGAUAUAUACAAAAGUAUAUAUCCGCCCGUAUCAAAAA'
p81
aF1.0
aa(lp82
S'Still Life (Sunflower In A Vase)'
p83
aS'AAAGAUUAAUAAUCAAAAAGAUUGAACAGGUAAAAUCUGAACAGACUAAAUGUCUGAACAGCCAAAAGCUGGAGGUCGAAAAAUUCUUAACAUUCAAAAGGAAUGAGAUAUAUAUAUAUAUAUGUGCACGGAACAAAAAAGUUUCAGAUACAAAAAAAAAAAAGGAACCAAAAAAAAAAAAAAAAAAAAAAAAAAAAAAAAAAAAAACCGUUCACAAAAAAAAAAAGUAUCGAAUCAAAAGAUUCAGUGUAUAUAUAUAUAUAUAUAUCAAGGUGCUAAAUAUAUCAAGAAUCAAAAAGAUUCAAUGUUGAAAAGGAAUAAUGAUACAAAAAAUAUCUAGACAGUAAUGUAUCAAGUAUGAAAAACAUGCAAAUCGAA'
p84
aF0.9735449735449735
aa(lp85
S'Quasispecies 2-2 Loop Challenge'
p86
aS'AAAAAUAGCGAGUAAGAACAAAAGUUCAGGCUCGGCGCAACUAUGGGGCGCAAUACAACAGCACGAAAAGUGAAGAAGUAUGCUAAAAAAAAAAAAAAAAAAAAA'
p87
aF1.0
aa(lp88
S'Corner bulge training'
p89
aS'AGAUAUGGAUACAAAGUAUCAAAACAUAUCA'
p90
aF1.0
aa(lp91
S'Spiral'
p92
aS'AAAAAGAUCAGAUAUCAGACAGAUACAGAUCAGAUCAGCAGCAGCAGCAGCAGCAAAAAGCGCGCGCGCGCGAUCGAUCGUAUCGUCGAUAUCGAUCAAAAA'
p93
aF1.0
aa(lp94
S'InfoRNA bulge test'
p95
aS'AAAAAAAAAAAAAAAAAAAAAAAAAAAAAGCGGAAAAACGACCAAAACCCGAAACACCAGGACCGGACAAAAAAUGAUCAGGAUCAGGGAUGGCACGAGGAAAAGGGAUCAAAAAACCAGCA'
p96
aF1.0
aa(lp97
S'Worm 1'
p98
aS'AAAAAAAGGGGGGGAGAGCAGAACAAAAGAUCAGCACACGCGCGC'
p99
aF1.0
aa(lp100
S'just down to 1 bulge'
p101
aS'AAAAAGACCAGAUACAAAAGUAUCAGACAAAAGUCAGGAUCAAAAGAUCAGACAAAAGUCAGACAAAAGUCAGAUCAAAAAAAAAAAAAAAAAAAA'
p102
aF1.0
aa(lp103
S'Iron Cross'
p104
aS'ACACAGACGAAGGAAGCCAAAGGCAGAUAAAAGUCAUCCAAACACAGACAAAAGUCAGACAAAGUCAGUGAAAGGCAGACGAAAGUCAGGCAAAGCCAGCCAAAGUCGGAGAAACUCAGUGGA'
p105
aF1.0
aa(lp106
S'loops and stems'
p107
aS'AAAAAGAUAUAUGAGUAUCAAAGGUCAAAGUGCUAAAAAAAAGAUUCAAAAAAAAAAAAGGAUCAAUGCACGAAUGAGCUAAAAAAAAUGCUCUAAGAUCAAAGACAAAAAAAAGUCAAAGAUGAAGCAAAAAAGCGAAAUAUAUCAAAAA'
p108
aF1.0
aa(lp109
S'Water Strider'
p110
aS'AAAAGGCUCCAACCAGCAGUGUAAUCGCUAGGAAAUUAGCUGAGGGGGUUACUAAUGUGGACAAAGCUUAACCGCGGGUUGAAAAAAAAAAAAAAAAAAAAAA'
p111
aF0.941747572815534
aa(lp112
S'The Turtle(s) Move(s)'
p113
aS'AAAGGAAAGCCGGAUGAUAUAUACGAAAAAAAAGUAUAUAUCUAAAGAUUAAAAAAAUCGCAAGGACAAAAGUCAGAGAUACAAAAAAGGUAUCAAAAAACGUAGCAAAAUCGAAAGCCCGAAAGGGAAAAGGUAUCAAAAAAAGAUAUCAAAAGACAAAAGUCAAAAAGCUAUGAAAAGACCAAAAAAGUCAAGACCAAAAAAACUCGAAGAUGCAAAAAAGCAUCGAAGAAGAAAAACUUCAACAUAGCAAAAAAAAAUUAAAAGAGAAAAUUAAAAAGAAAAUCGAAGGAAAAAAAAAAUUGUCAAAAAAGUU'
p114
aF0.9873417721518988
aa(lp115
S'Adenine'
p116
aS'GAUACGGAUAUCUGGUGUCGGCGAUCAGACAUAAAAGGUCAAAGGAUAUCAAAAAGGAUAUCAGAUCUUGUAUACCAAAAUUUACAAAGUAGAUUGUAUAAUAUGUUGGAUAUGUAUAUCAAAGAUAUACCAAGUAUCAGAUUGCAAAAGAUACCUAAUGAUAUCAAAAGUAUC'
p117
aF1.0
aa(lp118
S'Tripod5'
p119
aS'AUAACCGGUGGAAAAGACUCAUUCAAACGGUGGACCUA'
p120
aF0.9473684210526315
aa(lp121
S'Shortie 6'
p122
aS'GUAAAAACAUGGAAAUAGUGUAAUUAAACAAAACU'
p123
aF0.8857142857142857
aa(lp124
S'Runner'
p125
aS'AAAAUGAACAUGGCGAAAAGAUGAAACAUCGACUAAAGAACAAAAUAUCAAAGAUAAAAUCAGGGACAAGGACACCCGUAGACAAUGGGAAUAACAAAAGUGUGGAUGUUCUAAAA'
p126
aF0.9137931034482759
aa(lp127
S'Recoil'
p128
aS'AAAAAGAUACAAGCAAGCAAGACAAGACAAGCAAGCAAAGCAGCAGUCAGUCAGCAGCAGUAUCAAAAAAAAAAAAAAAAAAAAA'
p129
aF1.0
aa(lp130
S'[CloudBeta] An Arm and a Leg 1.0'
p131
aS'AAAAAGACUGGCCCAAAAGGUGCCCUCAGAUAAUUCGGGUGUCAAAAAAAAAAAAAAAAAAAA'
p132
aF1.0
aa(lp133
S'[CloudBeta] 5 Adjacent Stack Multi-Branch Loop'
p134
aS'GGUUCGGUCUAAUGACCCCUGCAAAGGCAGGCACGUAACGACGUGGCGGUAAUCCGCGAGCUA'
p135
aF1.0
aa(lp136
S'Triple Y'
p137
aS'AAAAACAUCGAAAAUGCUAAUCUGUGCUUUAAUAAGCUAACAAAUGCGUGAAAGCCUAAUCAAAGGUCCCUCUGGUGCAAAAAAAAAAAAAAAAAAA'
p138
aF0.865979381443299
aa(lp139
S'Misfolded Aptamer'
p140
aS'UAUCGAAAAACCGGGUACCCCAGUAAAGGCAAAAAAAAAGGGAAAAGAUA'
p141
aF1.0
aa(lp142
S'Flower power'
p143
aS'AAAAAAAUCGUGAAAAUCACUCAUAAAGCAACGUAUAAAAUGUAACCUUGACUCCAAGGAACGGACAUUCCGAAGAGAAGUGGAAAAAAAAAAAAAAAAAAA'
p144
aF0.9117647058823529
aa(lp145
S'Kudzu'
p146
aS'AAAAGGACGGAAGUUAUUCGGACGCGUUUUGCCCAUCUGGACACCUAUGUAUGUGAGUACAAGAGCAAAAUGUCGAAGGUAAAAAAAAAAAAAAAAAAAAA'
p147
aF0.9603960396039604
aa(lp148
S'"1,2,3and4bulges"'
p149
aS'AAAAUUAUUUGUGGAAAAGUCGACACACAAACAAAAGUUGAGAUAUAAUGCCCGUCAAAAAUGAAGCGGAGAAAACUCACAAACCUAAAAAAAAAAAAAAAAAAA'
p150
aF0.9619047619047619
aa(lp151
S'medallion'
p152
aS'CAUAUUAUAUAUGAAAAAAAAUCACUCAAAAGGGAGAGAAAGUUCAGAGCCCAAAAGGGCUCAAAGAAAAAUCUCGUAUCAAAAGAUACGAUACAAAAGUAGGACGAAAGUCAGCUAUCAAAAGAUAGCAUGUAGAAAUUAUAAGACAAAAGUUUUAAAAGGAAAUUUAGACAAAGGUCAGAUAUAAAAAAGUAUCAGCCAAAAGGCGGAGACCUAAUGGUUUCAGAAAAAAUUUACACAAAAGUAGUAUAUUGAAAGAUAUGACACGAAAGUGGUGUAUCUAAUGAUAUAAGACGAAAGUUAGAAGAAAGUCAGUUAUAGAAAUAUAACAGAUAUC'
p153
aF0.8753709198813057
aa(lp154
S'[RNA] Repetitious Sequences 8/10'
p155
aS'AGGAAAAAAGCAAAAAAGCAAAAAAGCAAAAAAGCAAAAAAGCAAAAAAGGAAAAAACCAAAAAAGCAAAAAACCAAAAA'
p156
aF1.0
aa(lp157
S'Documenting repetitious behavior'
p158
aS'AAAAAAAGGAAAAAAAAAGGAAAAAAAAAGGAAAAAAAAAGGAAAAAAAAAGGAAAAAAAAAGGAAAAAAAAAGGAAAAAAAAAGGAAAAAAAAAGGAAAAAAAAAGGAAAAAAAAAGGAAAAAAAAAGGAAAAAAAAAGGAAAAAAAAAGGAAAAAAAAAGGAAAAAAAAAGGAAAAAAAAAGGAAAAAAAAAGCAAAAAAAAAGCAAAAAAAAACCAAAAAAAAACCAAAAAAAAACCAAAAAAAAACCAAAAAAAAACCAAAAAAAAACCAAAAAAAAACCAAAAAAAAACCAAAAAAAAACCAAAAAAAAACCAAAAAAAAACCAAAAAAAAACCAAAAAAAAACCAAAAAAAAACCAAAAAAAAACCAAAAAAAAACCAAAAAAAAACCAAAAAA'
p159
aF1.0
aa(lp160
S'7 multiloop'
p161
aS'AGGAGACUCGAAAGGGUCCCAUCAAAGUAUGGUAGGCUGAUGUCUGUAGCACAAGGGCUGCUACUUAAAAGUAUCGUGGAAAGUUAUGUCAU'
p162
aF0.9782608695652174
aa(lp163
S'Kyurem 7'
p164
aS'AAAAAGAUACAGGACGAAAGUCGGGAAAAGAGCAGGAAAAAAUCCGGACCACCAAAAUGUGCAAGUCGCUCCCCCUGAUAUCAAAAAAAAAAAAAAAAAAAA'
p165
aF1.0
aa(lp166
S'JF1'
p167
aS'GAUACAGAUAUAGAUACAAGAUACAAAAGAUAUCAAGGUACAAAGAGACAAGGUAUGAGAUAUAUAUAUAUGAAAACAUAUAUAUAUAUCAAGACAAAAGUCGGAUAUAUACAAAAGUAUAUAUCAACAUACAAAAGUAUGACAUGCCAGUCUCAGUACCAGAUAUCAAAGGUAUGUCAAAAAGACAAUACCAAGAUAUCUAUAAAUAUAUAUAUAUGAAAACAUAUAUAUAUAUUAUAUAGAUAUCGAAGAUACAAAAAAGUAUCGAUAUAUAUGAAAACAUAUAUAUCAGAGAUAAAAAUAUCGAGUAUCAAGUAUCAGAUCAGACAGACAAAAGUCGUCGAUCAGAUGCAGACAAAAGUCUGACAUCAGUAUACUGAUAUCAAA'
p168
aF1.0
aa(lp169
S'multilooping fun'
p170
aS'UAAAAAAUUGAAAGGCGAAAGAUAGUGUAAAAGUUC'
p171
aF0.8888888888888888
aa(lp172
S'Multiloop...'
p173
aS'UGCUAGUUAUUUAUAAUUGAAGAUUAAUACUGGAGAAAAUUCAAAGAAAACUCGUAUAAAAAUAAAAUAAAGGCCCGGUCAGGGAUAAAAAAAUUCCCGUAAAGGCCAGUA'
p174
aF0.9459459459459459
aa(lp175
S'hard Y'
p176
aS'AAAAGGCUCUUCGUUGUAGUGAAAAUUAUAAGCAGUAUAUAUAUGGAAACAUAUAUAUGCAGCAAAAA'
p177
aF0.9705882352941176
aa(lp178
S'Mat - Elements & Sections'
p179
aS'AAAAAGACCAGUAAGUAGGGGCAGAUCAGCAGGCCACCGGACAAAAGUCAGUAGGCUAACGAUCCAAGGAGCUUUCAAUCGGGUCAAAAAAAAAAAAAAAAAAAA'
p180
aF0.9619047619047619
aa(lp181
S'Chicken feet'
p182
aS'AAAAAGCCUCAGGAAAUCGAUUAAGUAAAGAGCGGCAGCGGUGUAGCGUAAAGUAUAGGCGCAAAAA'
p183
aF0.8805970149253731
aa(lp184
S'Bug 18'
p185
aS'AGCAGAUGCUGUAAGCAAAGAUCUAUGCUACUGUCGAGAAGCAAUGAAAGGCA'
p186
aF0.9245283018867925
aa(lp187
S'Fractal star x5'
p188
aS'AAAAUGCCUUUUGAAGAUCGAAAGAUCAGGAUCAAAAGAUCAAAAUCGAAAGAUUAAGUUAAAAAUAGCGACAAAAGGCUAAAGAACAUAUGAAAGGCAAAAGCCUAAUGGGAAAACUCGGUUAACAAAAGUUAUAGGUAAAAAUACCAAUAUAUGUUGAAAAGUUCUGCGUAGGUUUAAUAACUAUGUCCAAAAGGAUUAUCUAAAAAUAGAGAGUCAGAAAUGACAUCGCAGAACAAAAAGAUAAGUGAAGCCUAAAAGGGCAAGGUCAAAAGACCGAAAGCAAAAGCUUAAGAGGAAAGCCUUGGCAUUUAUCAAAAGGAUAGACGGAGGACAAAAGUCCGGGAUCAAAGGAUCAAAAUCGAAAGAUUAAGCUGAAAAUAGCAACGUUUAUCAAAAA'
p189
aF1.0
aa(lp190
S'Crop circle 2'
p191
aS'CCUAUGGCAAAACGAAAUACUAAAAAAAAGAAAAAAAAAAAAAAAAAAAAAAAAAAAAAAAUCAAAAAAAAAAAAAAUGAUAAAAAAAAGAAAAAAAACCUAAUGUAAAA'
p192
aF0.9636363636363636
aa(lp193
S'Branching Loop'
p194
aS'UAUGUAAACAAAACCUCUAUAAUGGAAAAGAGUUAAAAAA'
p195
aF0.95
aa(lp196
S'Bug 38'
p197
aS'GCGAGCGUAAAUAUGAAACUUAGUAAAGCAAAACAA'
p198
aF0.9444444444444444
aa(lp199
S'Simple Single Bond'
p200
aS'AAAAAAGGAAAAAAAUGAUCUAAAUGAUUUAAAAAAAACGAAAAAAAAAAAAAAAAAAAAA'
p201
aF1.0
aa(lp202
S'Taraxacum officinale'
p203
aS'GGUAUAAUUAGUCUUUUCAAAAGCGAGAGAUGGAAAUGGUCAAUAUAAAAAAGAUAGAUAAAAAUCGGCAGAAGACAACUGGGUGAUUUAUAUACGAUACAAGUUCAAGGAACAUUGUAUCGGGUACAAGAUAUAUCUGAUGCAAGCCAAAGGUUUGCUCAGGUAUAUCGAUCAGUGAUGAAGUAUUACGAUCGUACCAAAGUAUAUAAAUCUGCUUGAAAAAGGCUGAACAAAGGAUUCAGAUCAAAAGAAUCGUAGCAAAAGAUUAAUAUAAAAAGGGCG'
p204
aF0.8333333333333334
aa(lp205
S'Headless Bug on Windshield'
p206
aS'AGCAGCUAAAGGAGACAAAGCAUCGAAAAGAAAAAAAAAAAAAAAAAAAACGACGCGAAGACAUCAAUGCGGCAUUGUAAACAAGGAAAAAAUGCAAAAGCUAAAAAGACGUCAAAAAUGCGAGACACAAAAAAGGAUAAGGAAGAGAAGCACCAACAAAAAAAAAAAAAUGGAGGCAACUCAACCGAUCAAGGAGGCCG'
p207
aF0.99
aa(lp208
S'Pokeball'
p209
aS'AAAGAGGUGCAAAAGUAACGUUGACAAUCAGGCAAGGAAGGAAGAAAGCAAAGCAUCAACCACCAGCAAGAAGUCCCGAACGCAUUUCACAAAAAAAGUUUGCAAAAGUAAGGAAGACAAGGAAGCAAGGAAGGAAGCAGGCUAUGCAGCAACCACCAGCAACCAGUCACCAGCGUAAAUUAAA'
p210
aF1.0
aa(lp211
S'Variation of a crop circle'
p212
aS'AAAAUUGAAAGAAAAACCUAAAGGAAGAAGGGGAAUCAAACAAAAUUGAAAAUGCAAAAAAAUGAAAAAAAAAAAAAAAAAAAAAAAA'
p213
aF0.9545454545454546
aa(lp214
S'Loop next to a Multiloop'
p215
aS'AAGAUAUUUUUAAAAAACGGGUAUGGAAACAUAUCAUAUAUACAAAGGUAUAUGGGGAAAAAUGAAAUAUCGA'
p216
aF1.0
aa(lp217
S'Snowflake 4'
p218
aS'GUUUAAAAAUUCCGAUGUAAAAACCACCUAACAUACACGAAAGUGCACAUAUGUAUUAUCAAAUUCGAAGAAUUGUGCACAAAAGUGUAUGGAGAUACCAAAAAGGGAUUUCGGUAAAGACGAACAACUAUCAUGAAAUUUGAAAAUGGUAUCAACAUUAUGAAAGCGAAAUGACCCGAAGGGGAGCAGCUAUGCUGCAUUAGCGAAAGCUGAUGGUUACACACUAAUAUGGAUCAAGUAAUACUUGACUGGGAACCGGGAUCCGGAAAAUCGUGUGUAGAUACGUAAAAGCGAUUCGAUCGAAAAUCAAGUUAAAGGGUCGAAUCGCAAAAACGUAUCAGAGGUGGCUAAUGCAUCGGCACGAAAUGCC'
p219
aF0.8162162162162162
aa(lp220
S'Mat - Cuboid'
p221
aS'GGACGAAAAUCAAACGAAAUAAAGCAAAACAAUCAAGCAAAAUCAACAGAGGAAAAGAAGCAAGCAAGCAAAAGCAAGCAAGCAAGCAAAAUGAACCAAACAAGUAAGUAAAACCAAGCAAGCGAAUAAGGAAAACCAACAAGGCAAGCAGGCAGCCAAAAGCAAGAAUGCAAGGAGCGAAGCAAAAGCAAGCAAAUGAGGAAGCGAGAAAAAAAUCAAGCAACCGAGUAGGCAAGCGCAACGAACCAAGCUAUCAAGCGGAAGGAAGCAGGCAAUGAAGGGCAAGCAAGGGAGUAAGAGCAGGCAAGGAAGCAAUCUCAAGGAAGCAGGUGCGAGUGAUCAAUCUGAUGAAGAGGAAAAAAGGCAAUAGUGAAAUGUAG'
p222
aF0.8842105263157894
aa(lp223
S'Misfolded Aptamer 6'
p224
aS'AAAAAAGACAAAAAAGAGCAUCGAAAGUCAAAAAAAAGACAAAAGUAAAAGCUCAAAAAAAGUCGAAAAAAAAAA'
p225
aF1.0
aa(lp226
S'Snowflake 3'
p227
aS'GCCCCAAAGGGAGGGGCCAAAGGUCAAGGUAAGUUCGAGGCAAAAGUCGACAGCAAAACCCACAAAGUGGUAAAAGCAGUCGAUAAAAGUCAAGAGCAGAUCAAGACAAAAGUCGACAGCAAAAGCUACAAAGUGGCAAAAGAAGUCUUCAAAAUAGAAGAUCAGGUCAAGGCAAAAGCCCCCAGCAAAAGCCACUAUGUGGCAAAAGCAGGGGGUAAAAUUCAAGACCAGGUCAAGACAAAAGUCGACAACAAAAGCCGCAAAGCGGCAAAAGCGGUCGACAAAAGUCAAGAUCAGAUCAAAGCAAAAGCUGCCAGCGAAAUCCUCAAAGAGGCAAAAGCAGGCGUCAAAAGACAAGGUCAUAUCAAGACAAAAGGUUCCACCAAAAGGGGC'
p228
aF0.8320610687022901
aa(lp229
S'Hard Y and a bit more'
p230
aS'AAAAGGAUUGAUACUUACAAAGGUUGGGGUGAUUUAAGGGGAUUAAAGAGUCAAGGUCUAAAAAAAGGCCGGCUGCUAUCUGAGGAAACAAAAAAAAAAAAAAAAA'
p231
aF0.9716981132075472
aa(lp232
S'Mat - Lot 2-2 B'
p233
aS'GAGGAGAAAGUCAAGAAAGAUUGAGUGUAAAAACAAAAAUAACCGUAACGAAAUCCAACUUCAGCCAACUAAAAAGUAGAAAAAGGGAGGACGACCCAAACCAAAAGGGGGAGUAAAAACAAGGCCAGCCGCAAGCAAGUAAAAACACAGGACCAAGCAAAAGCAGGACAAAAAAGAAAAUCAGGCGCAGUCAAAAUCAGCGAUAGGCAAGCAAGUGCGAGAAAAAACAAGACCAAACAAAAGUUAAUACUCAAGGAAAAUCAGGUCUAAGGGCAAGAAACAAG'
p234
aF0.823943661971831
aa(lp235
S'Shapes and Energy'
p236
aS'AAAAAACGAAUCGCCACAAAAGAAUGGUCACUAAUGGGACCUAGCGUGGAAGGUAAAAAAUACAAAAGUAUCCAGAUUGGAAAAAAAAAAAAAAAAAAAAA'
p237
aF1.0
aa(lp238
S"Spiral of 5's"
p239
aS'AAAAAGAUACAAAGAUACUAAGAUGCAAAAGAUAUAAAGAUCCGAAGAUACAAGGUACAAAAGAUACAAAGAUACAAGGAUACAAGAUACAAAGAUACUAAGAUACAAGAUACAAAGAUACUAGAUACAAGAUACAAGAUACAUGAUACAGAUACAGCCGUGUCUCAAAAAGGGACGGGGUAUGGCAAAAAGUAUUAAAAAGUAUCUAAAAGUAUCAAAAAGUAUCAAAAAGUAUCAAAAUGUAUCAAAAAGUGUCAAAAAGUAUCAAAAUGUAUCAAAAAGUAUCGAAAAGUAUCAAAAAGUAUCAAAAAGUAUCAAAAGGUAUCAAAAAGUAUCAAAAAGUAUCAAAAAGCAUCAAAAAGUACCAAAAUGGCUCAAAAAGUAUCAAAAAUAAAAA'
p240
aF0.9949622166246851
aa(lp241
S'Campfire'
p242
aS'AAAAAAUGAAUGAUGAAGUUUUAGAUUUAAAUGAUCGUCCACGAAGUGAGACAAGCGUUGCCACCAGGAGACACAAAGGUCGUCACGCGAUGUAACACAAGCUAAUGCUGGUUACCAAAUGAAAGUAUGAGCGAGACAGGCGGCAAAUCAUUACACGUGGAGUCAGGUCGAAAGAUCGACCUGGAGCGGUCAAAGACAUGAUUGAGUGUAUC'
p243
aF0.8349056603773585
aa(lp244
S'Anemone'
p245
aS'AAAUGUAACUAAUGUUAUAGGCUGGAAACAGUCGCGGGAUAAUUCCCGCCCAUCGAAAGGUGGCGUAGCGAAAGCUACGGGUCCAAAGGGACCGCCUCUAAUGAGGCGAGUUGAAAGCAAUUCAGCCACGAAAGUGGCGUUAUGAAAGCGUAGCGAAACGAAGGUUUCGGCAGGGAAACCUGCCGGCGGAAAGCCGCCGCCUGCUAAUGCGGGC'
p246
aF1.0
aa(lp247
S'Fractal 3'
p248
aS'AAAAAGUGUUGAGGUAUAAUUGGCAAAAGUACUUUGACAGAAAAGGCGGAAAGUCAGUCAGACGGUUAAGACGCAAAAGCACCCUGACAGCAAAUGCGCAAAGCCGGUCUGUACAAAAA'
p249
aF0.9243697478991597
aa(lp250
S'Kyurem 5'
p251
aS'AAAAAGAGCGACGGGUAAUUACAACAAAAGACUGAUCAAAGAUGAAAAAUCGAUCGAUGAAAAAGUCAGGUCCUGGUUAAGCUCGAAAAAAAAAAAAAAAAAAA'
p252
aF0.9230769230769231
aa(lp253
S'Snowflake Necklace ( or v2.0 )'
p254
aS'GACAGAUAUAUAUACAGAGACACCAAAAAGGGGCAAAAACCAGCAAAAAGCAGCAAAAAGCAGUAAAAGGCAGUCUCGCACAAAAAGUGAGGUAUGGUAAAAAGUAGUAAAAAGCAGCGAAAAGCAGCAAAAAGCAGCAAAAAGAAGUACCAGCCAAAAAGGCAUGUUCAUUAAAAAACACUAAAAAUCAGCAAAAAGCAGCAAAAAGCAUGAAAAAUAAGAACAAAAGUAAAACCGAGUUAUAUAAAAAAUAAGCAAAAAGCGGCAAAAAGCACCAAAAAGGAGCGAAAAGCAGAAGCAGACGAAAAGUCAUGUUCAGUAAAAAACAGCGAAAAGCACCAAAAAAAAGAAAAAAGCAGCAAAAAGCAGAACAAGUAUAUAUAUCUGUC'
p255
aF0.9177377892030848
aa(lp256
S'Methaqualone C16H14N2O Structural Representation'
p257
aS'AAAAAAAAAUCAGAUCAGGCGGACAAAAGUCAGGCAGACAAAAGUCAGAGAGACAAAAGUCAGUCUGACAAAAGUCAGAACAAAAAAUUCUGGCGCUCAGUCAGCCAGAAACAGAUCAGCUGAAGGCAGCAAAAGUAACGCAAAAAAAAGGACGACAAACAAAAUUCAUCAAAAGGGCGUAAAAUUUGUCAGUAAUGAUGGGAAGCAGACAUAGUGACAGAUGGCCAAAAGACAAAAGUCGGGCAGACAAAAGUCAAUCAAACAAAAUUCGCGCAGAUAAAAGUCACUAAAACCGCAAAAGCUCUCAAAAGAGACGCAAAAGUGGUUAGUCAUAUCUAACAGCAGAUUAAAAAAA'
p258
aF0.9211267605633803
aa(lp259
S"Cat's Toy 2"
p260
aS'AAAAGUUUCUUGCAAAGCGAGUAAAAAAAAAAAAAAAAAUCAAUGAAACGUAAUCCAAUAGAAAAGUUAAAAAAGUGAAAAAAGACAGGGAACGAAA'
p261
aF0.9381443298969072
aa(lp262
S'Zigzag Semicircle'
p263
aS'AAAUAAUUAGGCGUAAAAAGACAUAUAAUUUAAA'
p264
aF0.9411764705882353
aa(lp265
S'Short String 4'
p266
aS'AAAAUGUUGUGUAGCAACCAAUAAGACAAAAAGGCUGGGGAAAAGAAAGUGAAAAUAGUCGGUAAAGGGCAUUGGUAAAAAAAAAAAAAAAAAAAAA'
p267
aF0.9381443298969072
aa(lp268
S'Gladius'
p269
aS'GGAAACAAAAAGGGUAAGAAGACGAGGAAGGCUGACAAAGAUCAAAAGAUCAGAUACAAUUGACAAUUGCUCAACAGAUCAAAGGAUAUAUCAGAUUUUAGUUACAGAUCAGGUCAAGGUCAAAGACCAGACACGAUCGCUAACGAGAAUCGAGUAUAUCAAUAGAUCAACAGAGCAUGAGUCGUCAGUAGCAGUCGAAGACAGGAUUUGAAGACAGAGCGUCAGAAGGUCAGAAGAUAUACAGCAUACAGAUUCAGGGAUUAGACAGAUAGCAAAAGUUAUCACGUCAUGUUCACGAAUACGUAUGACGUAUAUCGCAAGACCACAAGACGGCAAGCAACAUAAUUGAGAUCAAAGGAUCAAAGUCUGCCAAACAAGGCAAGAAUCAAAAUAAGAAAAC'
p270
aF0.9
aa(lp271
S'Thunderbolt'
p272
aS'ACGAGACAAAAAAAAAUCAGAAAGGGGAGCGGGAAAAGAGACAUUUUAAAAAAAAACCGAAAAGGACCAAAAGGGUCAAAAAAGGAAGUCAAGCAAAAAAACAUGAAAAAACUAGAAGCUAGCAAAAAGAAAACAGAUGAAAAAGACAAAAAGAAGCAGAAACAGCAGCAAAAAGUCAUGUAGAAAAAAAAAGUAACAACAUAGUAAAAGAAAAAAGAAACUAUAAAAAAAAACAUCAGGGGGAUAUCAAAGAUAUCAGCAUGCAAAAAAAAAAACCAAGAAAAAAAAAAAAAGCAAAAGGAUAUUAAAAAGGAAAAAAACAAAAAAAUAUCAAGAAUAAAGAGAUGUCAAAAAAAACGGCGAGCGGUAAAAGAAAAAAACAUUGUCAAGUA'
p273
aF0.9464285714285714
aa(lp274
S'Mutated chicken feet'
p275
aS'AAAAAAAGCAGCAGAAAAGCAGGAAACCAAAUUCCAGGAGCGGCAAAGUAUCGAAUAAAAGUCUGCCAUUAUCUAUGAGACAAACUAAAAGGCAAAAAAA'
p276
aF0.84
aa(lp277
S'Chicken Tracks'
p278
aS'AAAAAAAAGAUAUACGGUCAAAGGACCAGGAUGGAAACAUCAAGCAAGAAAUUGCGUAUAUCAAGCCGGUGAAUCACCAUGGUCAAAGACCUAACAGCAACUGUGGCAAAUAAAAA'
p279
aF1.0
aa(lp280
S'Looking Back Again'
p281
aS'UACGAGCCGAUCAAAAAGCUUAUAAAAUGAGCGGAUCAAGUCCACAAGCCUAUGGCGUGACAGAGGAAGACGGAAACGUCGAAACUCUGAAGGCAAGACAAAUUUGACAAAAGGAUACGAAAGUAUCAAAAAAGUCGACGAGUUGUAAAGCAGCGAUGAGAAUCAUUGACAUUCUAUGAAGAAGUACAAGAGGACGAAAACGUUAGCGGGUUCGACUAGGCAAAAAGGCAAGAUGUCAAAUCAUCGAAUGGUUGCAGGUGAAAAAAGCAGCUCAAAAAAAAGCCAAAAAAGGUUGAGCAAAUGCGCACCGCUGAAAAAAGCUAGAUCAAAAGAUCUGAACAGGCAAAGUACAGACAAAGUCUGAACUGACAAAACAGCGCGUUAAAGUC'
p282
aF0.8868894601542416
aa(lp283
S'Multilooping 6'
p284
aS'AAGUCAUCUAGAGGUAACGACCUCGUUGCCAUACCUACUGGAAUCCUGAGAAAUUGGGGGAGUGAAAGUUAAGUGAUGACGA'
p285
aF0.926829268292683
aa(lp286
S'Cesspool'
p287
aS'GAAGAAGGAAACAAGAGAGGGGAAACAAAGUGAGCAAAAACUCAAGAGAGAAACACCAGAAGAAAACAACCCAACGAAAACAACAAGAAGAAGAGGAAAACAAGAUAAGUAAGACAAAAUCAGCAUCAAAUCAAGAAGAAAACAGAAGAACGAAAGGACUAAACUAAAACAGCAAUGAGCAACGAGAAAACAAUAGAAGAGUGAAAAAUUCAUCAACAACUGAAAAAAAAAAUAAUGCAAGAAAACAAGAAAACCAAAACAAGGAGCAAGCAAGAAUAAAAAGAGGGAAAAGAGACAAAGUCGCCAACAACCCGGUAAAUAAUUAAAAGAAGAAAACAAUGAAAGGAAAACACCAAGU'
p288
aF0.7849162011173184
aa(lp289
S'Hoglafractal'
p290
aS'AGAAGGAACAGACAAAAGAUAGAAAAAAUUAUCGUCAGGGUAAAAGAUCAAAAAGAUCUACCGUUAAGACAAAGGUCUGUAGUUUAAGAUCAAAUAUCGAAAAAGAUACAUCGACAAGACAAAAGAGCGUCGCAGUAAAAACGCAGACGGGCAUAGAAGACAAAAAAGUCACUGAAUCAAAAAGAGACACAAAAGUGAGUUAUAAAAACCAGCGAAAAAGCGGGAGAAAAGUACCCUAAUGUUGAUGUCAAAAAACGCAAAAAAGUGCCGAAAAGGAACGAGAUAUAAAAUAUCUUAAAAAAGGACAUCUAAAAGAUAACAAAAAUGACAAAUGCCAAAUCAGCAAACUGCACAUGAAAAGCGGAAGUGCAAAACUAUGAACAAGGAUCGUCGAUGGCUG'
p291
aF0.9075
aa(lp292
S'Bullseye'
p293
aS'AAUGAGGCUCAACGCCCAAGGGAAAGAAAUAACUUCAAAGAGCUUCUAAAAAAAGGCGUACAAAGUACAAGUACGAAGUGUAAGAUGAACCACCGCCGAAAAAAAAACAAUCGAACAUCAGGAGUGAAAUUCAAGCCUGAAGGUCGUUAAAAAAAAGAGGCAGAAACUGCAAUAGCAAAGCUGAAUCUGAAAGAACCUCAAA'
p294
aF0.8663366336633663
aa(lp295
S'Shooting Star'
p296
aS'AUACUCGGGGGACCUAGAAACCUGAUCAUACAGCCACCAAAAGCUGGACUUGAGAGAACCGAUAAGGCCAGCAUCAAGAGAGGCAGACAUGUAGAGUCAGUCUAUCAAAGCAGGCAACCGCUAUACAGGUCACACAAUUAAGGGAAACAGGUGCGGUCCCGACAAAGUCGGAGAGUUGAAGGCUUAAUAAAGGAUAGAUCAGUCAAGAUGAGAUGAAAGAUUUGGGAACCAAAUCAUAAACGAAGUUUACAUCGAAAUCAAAGUGAUUUCAGUUUCAAAGAAGCCAUCGCUGAACGAAAGAUGGAUGGAAGGGGAAAGCUCAGCAAAAGACGAGAAUUCACAAUGACGCAUCCACCAGAGUAUA'
p297
aF0.8516483516483516
aa(lp298
S'Teslagon'
p299
aS'AAAAAAGGUAAAAAAGCGUGAAAAGAAGCACCAAAAAAAAAAAAAAAGGGACAAAUUUGGUAAAAAAAAAAAAAUCCUGCGAAAAAACGCGUAAAAAAAGUAAAAAAAAAAAAAAAGCAAAAAAAACAGGAAAAAAAGCACUAAAAAAAAAAAAAAAGGAAAAAAUUAGCAAAAAAAAAAAAAAAGCAGCAAAAAAACCAGGUAAAAAAACAAAAAAAAAAAAAAGGAAAAAAAUCUUGCAAAAAAAGCAACAAAAAAAAAAAAAAACUGAAAAAAUCGUAAAAAAAAAAAAAAAAUAGCGAAAAAAGCUAGAAAAAAAUAAAAAAAAAAAAAGGAAAAAAAAAAAAAAAUCACGGAAAAAACCAGCAAAAAAUCCAAAAAA'
p300
aF0.9214659685863874
aa.