(lp0
(lp1
S'Simple Hairpin'
p2
aS'GAUACAAAAAAGUAUC'
p3
aF1.0
aa(lp4
S'Arabidopsis Thaliana 6 RNA - Difficulty Level 0'
p5
aS'GCAUAUCAAAAGAGAAAAAAAAAAACUCGCAUAUACGAGCAUAUAUAUAUGAUAUACAAAGAUACAAAAAAGUAUCAGUAUAUACAUAUAUAUAUGCGAGUAUAUGCAAGAUAUGC'
p6
aF1.0
aa(lp7
S'Prion Pseudoknot - Difficulty Level 0'
p8
aS'GAGAUCAGAUCAAAAGAUCGAUACUCAAAAAAAAAA'
p9
aF1.0
aa(lp10
S'Human Integrated Adenovirus - Difficulty Level 0'
p11
aS'GUAGAUAUAGAUUCGGCUAUCUAAAAAAAAAUCUUCUGCAACACAGAGGCCGAUCACAAAAGCGCUAGUUUAUCUAAAAAAUGAUAAACUAGAAAACGCGUGAUAAAAUGAAAGGAAACUGGAAAAGCGAUCUAAAAAUGAUUGCGAAGUAAAAAAAAAAUGAUAGCAGAGUAAAACUAUAUAAACUGCAAA'
p12
aF0.9791666666666666
aa(lp13
S'The Gammaretrovirus Signal - Difficulty Level 0'
p14
aS'AGGUGGAGCUAUCGAAAGAUAGCGACUCAAAAAAGAUCAAGGAAGGGUGAUAGAAAACUAUUGAAAGCUCUCCGAUCAGGAAUUAGCAAAAGCUAAUUCAA'
p15
aF1.0
aa(lp16
S'Saccharomyces Cerevisiae - Difficulty Level 0'
p17
aS'AGUUGUCGAGCGAAAAAAAGUUCAGGGAAAAAAAAAAAAAACCGAAAGUUACAAAAAAGGUAACGACAGCUAAAGGCACGUAUCGGUAUAAAAAAUUACCGGCGAAAAAAAAAAAAGCCAAAAGUUACAAAAAAAGUAAUUGCGUGCAAAAUAGUGGCAAGGUCUAAAAAAUGAUCGCUGUGGAAAAAAUACAGCAAAAGAUAUGAAAAAAAUAUCGCUACUAGAAGGUUUGGCAAGAUCGAAAAAAAGAUCUCUAUCAAAAAAGGAUAGAAAAAGAUACUAAAAAUGUAUCGCUAGACAAAUGAGAAUCAAGGACUAAAAAAUGUCCGCUAUAUAAAAAUUAUGGCAAAAUAUGCAAAAAAGGCGUGGAUUUUCUAAA'
p18
aF1.0
aa(lp19
S'Fractal 2'
p20
aS'AAAAAGCAUUUACGAAGCAUACGUAGAACGUCAAAAAAAAAAGACGAGGAUCUAAAAAAAAUGGUCAAGAUCGAAAAAAAAAGAUCAACUAUGUAUGCAAUAGGAAUGUAGAAGACGAAAAAAAAAGCGUCAAGAUCGAAAAAAAAAGAUCGUGGCUAAAAAAAAAGGGCCUACUACAUUCUUUAAGGACAGAUAGAGCGUGGAAAAAAAAAUACGAAUCACAAAAAAAAAAGUGGGACAUCUAAAAAAAAUGAUGAACUAUUUGUUCGAAGUAGAUGCAAAAA'
p21
aF1.0
aa(lp22
S'G-C Placement'
p23
aS'AGUGAAGCGCUA'
p24
aF1.0
aa(lp25
S'The Sun'
p26
aS'UAGAGCGAAACAAGGUUUAAUGCCUAAAAUACAGCGAUACAACGUAUAUCGCGUGGAAGAGAUGAAUGCAAAGUAUAAUCACUCUUAGAGAGGGAUACAAGGUAUAACUCCUCAAGGAGAGCGAUGCGAAGUAUAACGCCUCAAUAAGACAGAUACAAAGUAUAAUUCCUUUAGUAGAGCGAUACAAGGUAAAACGCUUCAAGGAUAGCGGUAUAAAGUACAACGCAUCAACGACAGUGAUACGAAGUAUAACGCCUC'
p27
aF0.8449612403100775
aa(lp28
S'Frog Foot'
p29
aS'AAAAAAAAAAGAUCGAAAGAUCGAUCGAAAGAUCGAGCAAAGCUC'
p30
aF1.0
aa(lp31
S'InfoRNA test 16'
p32
aS'GCUAUCAGAGAUAUCUAAUGAUAUACUGCAGAUAGC'
p33
aF1.0
aa(lp34
S'Mat - Martian 2'
p35
aS'GAUCAAAAGAUCAAAGCAUAUCAAGCAUAUCAAAAAAAGAUAUGCGAUAUGCAAAGCAUAUACAAAAAAGCAUAUCAGCAUAUCAAAAAAAGAUAUGCGAUAUGCAAAGCAUAUGAUAUAUCAAAAAAAGAUAUAUACAUAUGCAAAAAAGUAUAUGCAAAGCAUAUGAUAUAUCAAAAAAAGAUAUAUAACAUAUGCAAAGACCAAAAGGUC'
p36
aF1.0
aa(lp37
S'square'
p38
aS'GCAUAUCUAUAUUUAUAUACUAUAUCGAAGAUAUAAAAUGUAUAUAAAAAAAUAUAAAACGAUAUGC'
p39
aF1.0
aa(lp40
S'Six legd turtle 2'
p41
aS'AAAAAGUGAAGCAAAAGUAAGUCAAAAAGAAAUCAAAGGAAAAGGAAAAUCAAAUCAAAAAAAAAGCAAAAGCGAAGUCAAAAAAAAAAAAAAAAAAA'
p42
aF0.9591836734693877
aa(lp43
S'Small and Easy 6'
p44
aS'GUAGAGAAAAGCAAUCGAAAAAAAAGAGGC'
p45
aF0.8666666666666667
aa(lp46
S'Fractile'
p47
aS'AAAAAAAAAAAAGGGAAACCAAAUCGAACAUAAUUCAAGGAAAUAAAAAUGAAAUAAAUUGAAAACGAAGAAAACAAAAUUGAAAAAAAAAAAAAAAAAAAAAAA'
p48
aF0.9619047619047619
aa(lp49
S'Six legd Turtle'
p50
aS'AAAAAGGAAAAGGAAAACUGAAGCAAAAAAGAAAAGCUAAUGUAAAACCAAAUUGAAAAACUAAUGUAAAAUUAAACGCAAAAUCAAAAAAAAAAAAAAAAAAAA'
p51
aF0.9619047619047619
aa(lp52
S'snoRNA SNORD64'
p53
aS'GCUAUCAAAAAGAGAAAAGAGAAAGAUACAAAAAAAAAAAAAGUAUCAAAACUCAACUCAAGAUAGC'
p54
aF1.0
aa(lp55
S'Chalk Outline'
p56
aS'AAAAAGAUCAGAGACAAAAGUACUCAGAGAGAGAAAACUCCUCAGCUGAGAAAACUACAGCAGGAUCAAAAGAUACCGAUCAAAAAAAAAAAAAAAAAAAAAAA'
p57
aF1.0
aa(lp58
S'InfoRNA bulge test 9'
p59
aS'GCCUGUUAGAGUGACCAUUUCGAAAGAAAUGGCCCGACAGGC'
p60
aF1.0
aa(lp61
S'Tilted Russian Cross'
p62
aS'AAAAGUUCAUCAGGAAACUGGCAUCAGAUAGAAAUAUCUCUUGAAAGCAAUGAGGUCUAAUGACCCGGACAUGAAAGCAUGUAGAAAAAAAAAAAAAAAAAAAAA'
p63
aF0.9809523809523809
aa(lp64
S'This is ACTUALLY Small And Easy 6'
p65
aS'AAAAAAAAAAAAAAAAAAAAAAAAAAAAAAAAAAAAAAAAAAAAAAAAAAAAAAAAAAAAAAAAAAAAAAAAAAAAAAAAAAAAAAAAAAAAAAAAAAAAAAAAAAAAAAAAAAAAAAAAAAAAAAAAAAAAAAAAAAAAAAAAAAAAAAAAAAAAAAAAAAAAAAAAAAAAAAAAAAAAAAAAAAAAAAAAAAAAAAAAAAAAAAAAAAAAAAAAAAAAAAAAAAAAAAAAAAAAAAAAAAAAAAAAAAAAAAAAAAAAAAAAAAAAAAAAAAAAAAAAAAAAAAAAAAAAAAAAAAAAAAAAAAAAAAAAAAAAAAAAAAAAAAAAAAAAAAAAAAAAAAAAAAAAAAAAAAAAAAAAAAAAAAAAAAAAAAAAAAAAAAAAAAAAAAAAAAAAAAAA'
p66
aF1.0
aa(lp67
S'Shortie 4'
p68
aS'GCAAAAGCAGCGAAAGC'
p69
aF1.0
aa(lp70
S'Shape Test'
p71
aS'AAAAAGUGAUCAAGACAAAAAAAAAAUUGUCGAGAGAGCGAGAUACAAAAAGUAUCAGCUCAAAAGAGCGCGCCUCGAGGUCUCAAAAAAAAAAAAAAAAAAAA'
p72
aF1.0
aa(lp73
S'The Minitsry'
p74
aS'GCGGAAAACAGAAAAAUUGAAAAAGAGAAAAACAGAAAAAAAACUGGCUUGCGGGCUGACGC'
p75
aF1.0
aa(lp76
S'stickshift'
p77
aS'AAGCAUAGCCAAAAAGGACUAUGCAA'
p78
aF1.0
aa(lp79
S'U'
p80
aS'AAAAAGAUACAGAGAGCAGAGCAUAUAUCAAAAGAUAUAUGCCGCCCGUAUCAAAAA'
p81
aF1.0
aa(lp82
S'Still Life (Sunflower In A Vase)'
p83
aS'AAAUAUGAAGAUGCGAAAAGUCUCAAUCGAAAAGUUCGAAUGGCACAAAAAGCCCCUAGUUACUAUGUAACAAGAGUUUAAAUGGCACAACUGUGCAAAAUAUACAUUAUGCAGGUAGAUUUUUAUCUCGACACAAAAAGGUGUUAGAUAGAAAAAAAAAAAAAUCUCAAAAAAAAAAAAAAAAAAAAAAAAAAAAAAAAAAAAAAAAAGAGAAAAAAAAAAAAAGCUGUCGAUACAAAAGUAUCAGAGAUAGAAAUCUAUUUGCAUGAGAGGACGGAAUUCGUUUAAGAUACGAAAAGUAUCGGGAAACAAAAAGUUUCAGUUGGUUAAAUGCCAGAAUGACUAAAAGGUGGAAGAUACGAAAAGGAUCAUAUAAAA'
p84
aF0.9735449735449735
aa(lp85
S'Quasispecies 2-2 Loop Challenge'
p86
aS'AAAAACGACGGUUGUAAUCAAAAGAGUUAGAACAAGUCAAUCAAAGAGAUCAGAUGGAUUGGUCUAAAUUACAUGGACAUAGUCGGAAAAAAAAAAAAAAAAAAA'
p87
aF0.9809523809523809
aa(lp88
S'Corner bulge training'
p89
aS'AGCUAUCGAUACAAAGUAUCAAAAGAUAGCA'
p90
aF1.0
aa(lp91
S'Spiral'
p92
aS'AAAAAGAUCAGCUAUCAGAGAGAUACAGAUCAGAUCAGCAGCAGCAGCAGCAGCAAAAAGCGCGCGCGCGCGAUCGAUCGUAUCCUCGAUAGCGAUCAAAAA'
p93
aF1.0
aa(lp94
S'InfoRNA bulge test'
p95
aS'AAAAAAAAAAAAAAAAAAAAAAAAAAAAAGGAGAAAAAAGGAGAAAAGGAGAAAGGAGAAGGAGACGAGAAAAACUACGACUACCAACUACCAAACUACCAAAAACUACCAAAAAACUACCA'
p96
aF1.0
aa(lp97
S'Worm 1'
p98
aS'AAAAAAAAUGCAUGAGUGACCAAAAAAGCCUUCUCCUUCUUUCUU'
p99
aF0.9111111111111111
aa(lp100
S'just down to 1 bulge'
p101
aS'AAAAAGGGCACUAUCAAAAGAUAGAGAGAAAACUCAGCUCCAAAAGAUCAGAGAAAGCUCAAAGAAAACUUAGAUCAAAAAAAAAAAAAAAAAAAA'
p102
aF1.0
aa(lp103
S'Iron Cross'
p104
aS'AGUCGGAAUAAGACGCUAAAAUAGAGAAAAAAGUCGCUCAAAGCCUUGGAAAAUCAGAUGCAACUUUCGCCAAUAGAAUCAAAACAGAAUGAAACAUACUCAAUGCCACACAAAGAGGGUCAA'
p105
aF0.8861788617886179
aa(lp106
S'loops and stems'
p107
aS'AAAAAGCAUAUCAAAGGUCAAAGAACAAAGCGCGAAAAAAAGGAGACAAAAAAAAAAAAGUUUCAAAGUGUCAAAGAUCAAAAAAAAAAGAUCAAAGUUCAAAGAGAAAAAAAGCUCAAAGAUCAAGCAAAAAAGCGAAGAUAUGCAAAAA'
p108
aF1.0
aa(lp109
S'Water Strider'
p110
aS'AAAACUCUCGGUCGGCUCUAGUGAUCUGAAGGAUAUAUAUAGUGAGGAACUCGAAAUACGACGAAAGUCACAGCAAAUGUGGUAAAAAAAAAAAAAAAAAAAA'
p111
aF0.941747572815534
aa(lp112
S'The Turtle(s) Move(s)'
p113
aS'AAAGCAAAAACAAAAGCAGAUUUCUAAAAAAAUGAGAUUUGCAAAAGAUCAAAAGGAUCAAAAGGGUCAAAGUGAAAGAUACAAAAAAAGUAUCAAAAGAGGAAUUAAAAGAGAAAAGUAGAAAUACAAAAGCUAUCAAAAAAAGAUAGCAAAAAAGAAAACAUAAAAAGCUAUGAAAACAGAAAAAAGCUGAAGGGGAAAAAAACCCGAAGAUACAAAAAAGUAUCGAAGAGCAAAAAGUUCAACAUAGCAAAAAAAAAGCAAAAGCAAAAAUGAAAACCAAAAAAGAUGAAAAAAAAAAAUUAUCGAAAAACUC'
p114
aF0.9810126582278481
aa(lp115
S'Adenine'
p116
aS'GAUACAGCUAUCAGCUAUCAGCUAUCAGCUAUCAGCUAUCAAAAGCUAUCAAAAAAGAUAGCAGAUAGCAGAUACAAAGCAUAUCAAAGAUAUGCGUAUCAGAUAGCAGCAUGAUAUAUCAAAGAUAUAUAAACAUGCAGAUAGCAAAAGAUAGCAAAAGAUAGCAAAAGUAUC'
p117
aF1.0
aa(lp118
S'Tripod5'
p119
aS'AAGAUCGAGCAAAAAGCUCCAUCGAAAAGAUGGAUCAA'
p120
aF1.0
aa(lp121
S'Shortie 6'
p122
aS'GGAAAGCCAUCGAAAGAACGGAAACGCGCGAAAGU'
p123
aF1.0
aa(lp124
S'Runner'
p125
aS'AAAAAGCUCAGAUCAAAAAGGGCAAAGUUCAGAUCAAAGAGAAGAGACCAAAGGUAAACUCGCCGACAAAGUCAAAGGCACUCAAAGAGGAAGCGAAAACGCACUCAGAGCAAAAA'
p126
aF1.0
aa(lp127
S'Recoil'
p128
aS'AAAAAGAUACAAGCAAGCAAGAGAAGAGAAGCAAGCAAAGCAGCACUCACUCAGCAGCAGUAUCAAAAAAAAAAAAAAAAAAAAA'
p129
aF1.0
aa(lp130
S'[CloudBeta] An Arm and a Leg 1.0'
p131
aS'AAAAAGAGAGAGACAAAAGUACUCGAGAGCAAAAGCCUCACUCAAAAAAAAAAAAAAAAAAAA'
p132
aF1.0
aa(lp133
S'[CloudBeta] 5 Adjacent Stack Multi-Branch Loop'
p134
aS'GGCGGCAGCUAAUGCUGUCUACGAAAGUAGAGGUCCGAAAGGAUCGAUCGAAAGAUCCCGUCA'
p135
aF1.0
aa(lp136
S'Triple Y'
p137
aS'AAAAGGAAUAAUUUACCAAAGGGUGAUGAAAAAAAUCAAUACAUUAAUGAAAGUGUUUGUCAAAGAGUCGAAGGGUCAAAAAAAAAAAAAAAAAAAA'
p138
aF0.9175257731958762
aa(lp139
S'Misfolded Aptamer'
p140
aS'GAUCUAAAAAGGGCGUAUCGCAGCGAAAGCAAAAAAAAACCAAAAUGAUC'
p141
aF1.0
aa(lp142
S'Flower power'
p143
aS'AAAAGGCCCGGUCAAAGACCAGGUGCAUCAAAGAUGAAGAUAAAAUAUCAAGGGCAAAGCUCCACCAUAGCUACGCUAGGGCAAAAAAAAAAAAAAAAAAAA'
p144
aF1.0
aa(lp145
S'Kudzu'
p146
aS'AAAAAGAGAGUAGAGGAGGAUUAAAAUAAAGUUUAAAUUUAUUCGUAUUCGAGUCAAGAUUAUUUCGAAUCCACAUCGUUUAAAAAAAAAAAAAAAAAAAA'
p147
aF0.9504950495049505
aa(lp148
S'"1,2,3and4bulges"'
p149
aS'AAAAGGCAGAGUCAGAAAGCCGAAAGGCUCCGUAAUUGAGAUAGAUAAACCUAGAUGUAAUCAAAACAGAGAAAGCUUAUUGAGCAAAAAAAAAAAAAAAAAAAA'
p150
aF0.8666666666666667
aa(lp151
S'medallion'
p152
aS'GGUAUUAUAGUUCAAAAGAACUGAAUCAAGUGAUAGAGAAAGCUUAAAUACCGAAAGGUAUAAUAGAAAACGAAUAUAUCAAAAAAUAUAGUAGGAAACCAAUAGAAAACUAAUAGAUGAAAAUAAAUAAUAGAAAACAAAUAUAUGAAAACAUAUAUUCAAAAAAUAUUAGAAAACUAGUUUAUGAAAAGAGAAAAUGCAAAAGCAAUAUGUCAAAAGAUCUAAUAAAAAACUAAUACAAAAGUAAUAAAUCAAAAGAUUUAAUAUGAAAAUCAUCACUCAAAAGAGUGAGUAGAAAAGUAACUGUAAAUUAAUGUGUCAAAAGAUAUAGAAUAUC'
p153
aF0.8308605341246291
aa(lp154
S'[RNA] Repetitious Sequences 8/10'
p155
aS'AGGAAAAAAGCAAAAAAGCAAAAAAGCAAAAAAGCAAAAAAGCAAAAAAGCAAAAAAGCAAAAAAGCAAAAAACCAAAAA'
p156
aF1.0
aa(lp157
S'Documenting repetitious behavior'
p158
aS'AAAAAAAGGAAAAAAAAAGGAAAAAAAAAGGAAAAAAAAAGGAAAAAAAAAGGAAAAAAAAAGGAAAAAAAAAGGAAAAAAAAAGGAAAAAAAAAGGAAAAAAAAAGGAAAAAAAAAGGAAAAAAAAAGGAAAAAAAAAGGAAAAAAAAAGGAAAAAAAAAGGAAAAAAAAAGGAAAAAAAAAGGAAAAAAAAAGCAAAAAAAAAGCAAAAAAAAACCAAAAAAAAACCAAAAAAAAACCAAAAAAAAACCAAAAAAAAACCAAAAAAAAACCAAAAAAAAACCAAAAAAAAACCAAAAAAAAACCAAAAAAAAACCAAAAAAAAACCAAAAAAAAACCAAAAAAAAACCAAAAAAAAACCAAAAAAAAACCAAAAAAAAACCAAAAAAAAACCAAAAAA'
p159
aF1.0
aa(lp160
S'7 multiloop'
p161
aS'GGGCUAUGUGAAUAAAUGGUAGCGAAAGCUACAACAUGAAAAUGUUUUGGCGAAAGUCAAGCUAAUAAUUUAGCUGAUGAGGGCGACAGCUC'
p162
aF0.8695652173913043
aa(lp163
S'Kyurem 7'
p164
aS'AAAAAGUAGAUCGAGAAAGAACAAUAAAAACUCUGUAAAAAUAACUGAGCUCUAAAAUGAGAAACUCGGGUGUUGAUAAUACGAAAAAAAAAAAAAAAAAAA'
p165
aF0.9215686274509803
aa(lp166
S'JF1'
p167
aS'GCAGAUGAUAGGGAUCCAAGAUACAAAAGCUACCAAGAUACAAAGAUACAAGCUGUGAGCAUAUAUAUAUACAAAAGUAUAUAUAUAUGCAAGAGAAAACUCAGCAUAUAUCAAAAGAUAUAUGCAAGAUACAAAAGUAUCACACAGCAGUAUCAGUAUCAGGUAGCAAAGCAUGAUCAAAAAGAUACAUGCAAGCAUAUAUAGAUAUAUAUAUAUACAAAAGUAUAUAUAUAUAUACUAUAUAUGCAAAGGUACAAAAAGGUACCGCAUAUAUACAAAAGUAUAUAUGCGAAGAUCAAAAGAUCAAGUAUCAAGGAUCAGAUCAGAGAGAGAAAACUCCUCGAUCAGCAGAUAUCAAAAGAUAUACUGCACUAUACAUACUGCAAA'
p168
aF1.0
aa(lp169
S'multilooping fun'
p170
aS'AAAGUCUACAAUAGUUCAAUAGAAACUAAAAAUGGC'
p171
aF0.8888888888888888
aa(lp172
S'Multiloop...'
p173
aS'AUUCAAAGCGGUAUAAAUGAUGAUGAAAGUCACAUGAAAGUCUGAAAAAAUCCUCUGUAAUCAGAGGCGAAAUCCAGCUUAUUUAAAAAAAAUUAAAAGUAAAGAUUGAAU'
p174
aF0.9459459459459459
aa(lp175
S'hard Y'
p176
aS'AAAAGUAUCGGAUAUGUAAGGAAACUUACAUUGCUGCAUAAUUACGAAAGUGGUUAUGCGAUAAAAAA'
p177
aF0.9705882352941176
aa(lp178
S'Mat - Elements & Sections'
p179
aS'AAAAAGGUCAUCAGGUGUAAAGGCAGAAAGAGAUCCUUACUAGAAAUAGAAAAGAUCCGGUCUGAAAAUGUUACUCAAAGGGACCAAAAAAAAAAAAAAAAAAAA'
p180
aF0.9619047619047619
aa(lp181
S'Chicken feet'
p182
aS'AAAACGUAACGUGAAAUUAACCAUCCAAAGGCCCUCAUUAGAUAUUCGUCUAUAAUAGGAGAUAAAA'
p183
aF0.8208955223880597
aa(lp184
S'Bug 18'
p185
aS'UUUGCGGAAUCAUAACAGGAGAGGAACCAACCAGUUUGUUGCAGCGUAAAAAA'
p186
aF0.9245283018867925
aa(lp187
S'Fractal star x5'
p188
aS'AAAAAGUAAAUACGAAGGCCGAAGUCUGUGACCUAAUGGUCUGGAAUUAAUAUUCAACCGCUAAUGUGGAAGUAUUUGCGAAAAGCAUGUGGUGGUUGGAAACAGCAGGUUCAAAGGGACAAUCUGUAAUCAGGAAGCGGGAAAUCGCAUCUAUGUGCAAAAUUUAUUUAGGAGGUAAAAAUACCAGGAUGAAAACAUCAAGGUCUAAUGAUCAACAGCAAAAGUUGAACUAAAUAGUAAAAUGAGAGUGACCGUAGAAAUACGAGUAUCUAAUGAUGAACCACAAAGGUGGAAGAUCGAAAGAUCGAUACUCUCGAAAAAGCCCCUAAUAGAUCUAAUGAUCAAGAUGGAAACAUCGUGCGUAAAAAUGCUAGUACUAAUGUACGUUUAGGGGCAAAAA'
p189
aF1.0
aa(lp190
S'Crop circle 2'
p191
aS'GGUAAGUAAAAGUGAAAGUAAAAAAAAAAGUGAAAAAAAAAAAAAAAAAAAAAAAAAAAAAACAAAAAAAAAAAAAAGUCAAAAAAAAAGCAAAAAAAAUGAAUCCAAAA'
p192
aF0.9454545454545454
aa(lp193
S'Branching Loop'
p194
aS'AUCUUAAAAAAAAGUGAGUAAAGGCUUAAGAGAGAAAAAA'
p195
aF0.95
aa(lp196
S'Bug 38'
p197
aS'UCGGGCGGUAAUCGUUAACAGGGGCAACCAAAUUGU'
p198
aF0.9444444444444444
aa(lp199
S'Simple Single Bond'
p200
aS'AAAAAGUAAAAAAAAGAUUCAAAAAGGAUAAAAAAAAGGAAAAAAAAAAAAAAAAAAAAAA'
p201
aF0.9672131147540983
aa(lp202
S'Taraxacum officinale'
p203
aS'CAGCUAAUGACUGGCACCAAAGCAAUCAAAGUAAAAGAAUAAUAUCGAAAGAAUGGGGGAAAAGUGCCCGGCCGAAAGCAGUCAUCAUAUUUAUCCCAUGUGACACUAUGUGUACAUAUGGAGAUACAAGCAUUUAUCGAAGCAGAGCAAAGCUUUGCGCGAUGGAUGCGAUACGCUAUGAAGCAUAGCUAUCGUAUCAAAGAUGAAUAUGGGGAGGUAAUCACGCAGUGUAAAGGACACAAAGGAAAAAAUUCGGAGGUAAUCACUCAGGGAAAAACGCCC'
p204
aF0.8865248226950354
aa(lp205
S'Headless Bug on Windshield'
p206
aS'AGCACCGAAAUUGCGCAAGGCACUGGAAAAAAAAAAAAAAAAAAAAAAAACAGAGCAAAGCGAUGAAAGGGGCAGAGAGUAAAAGGAAAAAAGUCAAAAGAAAAAAAACAUUGAAAAAAUUCGGAACGUAAAAAAGACAGGAGUGAGGACCAGGGAAAAAAAAAAAAAAACUCAAGGAACUUUAUCACUCAUCGAAGUCA'
p207
aF0.98
aa(lp208
S'Pokeball'
p209
aS'AAAUCAUAUCAAAAGCGAAGUUUAGGACCGAGCGAGCAAGCGAGCGAGCAAAGCAGCGAGCAGCAGCGAGGACUAUCUAGCGAUAUGAAAAAAAAACGCUAUCAAAAGCGAGCAAGAGAAGGGAGCGAGUAAGCGAGCGAGCAAAGCAGCGAGCGGCAGCGACCACUCAGCAGCGAUAGUGAAA'
p210
aF1.0
aa(lp211
S'Variation of a crop circle'
p212
aS'AAAAUUAAAAACUAACGGAAAGGAAAUCUAGCAAAAUUUGAAAAAUUAAAAAAUCAAAAAAUGGAAAAAAAAAGGAAAAAAAAAAAAA'
p213
aF0.9545454545454546
aa(lp214
S'Loop next to a Multiloop'
p215
aS'AAGCAUAUAUUAAAAAGCGGUUAUCAAAAGAUAGCAGCAUAUUAAAAAAUAUGCAGAAAAAAUGUAUAUGCAA'
p216
aF1.0
aa(lp217
S'Snowflake 4'
p218
aS'GGUUGAAAAUUUAUGUGCGAAAGCCAGACAAGAGACUAAAAAGCGAUAUGAUCGAAGCCCAAGGUCUAAGAUCGUAUCAGAAAAUUGUCUCAGGUUACGUAAAAGUGCAUAUCUCGAAGAGAAUCACCAAAGGUGUAUGCCAAAAACCGUAGCAAGUCACACAAAGGUGUACCAAGGGAAACUUAAUCCGUAUAACGGGUGCUGAAAAGAGUGACAGCAUUCUUUAAUGGCCAGACGUAGAAGACUAAGAUAAAAUAUUUUUGGAUUAAUUUGGAUGAAUCGGCAUAAAGAUGAGCCGAUAAAAUAUCAAGAGCAAAGCUCGGCUCGCAAACGUGUCGAAGGUUUGGUGAAAACACAUGCACCGAAGAUC'
p219
aF0.8405405405405405
aa(lp220
S'Mat - Cuboid'
p221
aS'AAAUGAAAAGGAAGCAAAAGCAACCAAAAUACGCAAACAAAAACAACCGAUCAAAAUAAUCUAUCAAGCAAAAGCAACCAGGCAGGUAAAAGCGAGCGAUUAAGAGAUCAAAAGCGAUCAGGCGGACGGACAAAAGCGAGUGAGAGGGCAGGCAGGUAAAAGCGAGUGAGGGAUGGAGCGAGAAAAAGCGUGCUAGGAAAUAAGCAAGUGAAAAAACGGGCGGCCGGUCGUGCUAGCUCGAGCGACAGAUCGAGCGAGCGCAGGCAGGAAAGCGAGCGAGCGAAAGAAAGCAAGGGAGCAGAACUAGGGAAGCAAGGACAAGCAAGCAAGAGCAAGGAUGGAACGAAAGGAAGUGCAGGCAGGGGACGUAGAAUCUGAAU'
p222
aF0.8973684210526316
aa(lp223
S'Misfolded Aptamer 6'
p224
aS'AAAAAAGUGAAAAAAGAGCAAGAAAAGAGUAAAAAAUCUCGAAGCGAAAAGCUCGAAAAAACGCAAAAAAAAAAA'
p225
aF1.0
aa(lp226
S'Snowflake 3'
p227
aS'GAGGCAAAAGUAGAGGUGAAAACGCAAUAUCAGGUCAAGAGAAAAACCGAUAGUGAAAACUUGAAACUAUCGAAAGAAAUCGGGAAAAAUCAGGACCAAAUGUAGACAAAACACAAUUGCAAAGGCUAGAAAAUAUCAAAAGAUAUUGAGAAAACUCACGAUCGGAUCAAGACAAAAAUUGAUAGCAAAAGCCUGGAACAGGCAAAAGCAAUCUAGAAAACUCAAGAUCAGUUCAAGAGAAAACUCGAUUUCAAAAAACAGAAACUGCGAAAACUUAUCGAGGAAACUCAAGAACAGGUAAAGAAAAAAUUCGAAAGUGAAAACUAGAAACUAGCAAAAGCAAUGGACAAAAAUCAAUACCAGAUGCAGAGAAAACUCCUCAGCAAAGGCCUC'
p228
aF0.8091603053435115
aa(lp229
S'Hard Y and a bit more'
p230
aS'AAAAUGGUACGUUCAUAUAAAAAUUCGGGUGAUAGACGUAGAUCUAAUGAUUAUGGUACAAAAAAGUGCCUAUGAUUAUCGUACACAAAAAAAAAAAAAAAAAAAA'
p231
aF0.9716981132075472
aa(lp232
S'Mat - Lot 2-2 B'
p233
aS'AAGGGCGGGGAUUAGGAAAACAAACGUGUAAUCGAAAUCCGGGCCAGUCUAAAACCAAUCCUCAGCAAGCGGCGGCGACCAAAACUGUGGGGAAGAAAAAUCAAAAGGACAAUCAAAACCUAGACAGAGUGGUAGCAAGCAAAAGCGCAAUGCGAUGCAAAAUGAGCGUGAAAAUUAAAAAUGGCAGCUUCCAAAAUAGGGCGGGUGCAACGAAGCCUGAAAAAAAGGUAGGAGAGGCAAAAACAAAAGUGCAGCUAAAACCCUUCUCGAGGGCAAAGACCAAU'
p234
aF0.8028169014084507
aa(lp235
S'Shapes and Energy'
p236
aS'AAAAAUGUGAUCAGUUCAAAAGGAAGCGCAGGAAACAGCGCAAACGAGCAAGGAAAAACUAUCAAAAGAUACCGGAUCUCUAAAAAAAAAAAAAAAAAAAA'
p237
aF1.0
aa(lp238
S"Spiral of 5's"
p239
aS'GAAAAGAUACAAAGUUAAAAAGCUUAGAAAGAGACAAAGAUAUAAAUAUAAAAGAUACUAAAUAUACAAAUAUAAAAAGAUAAAAAAUACAAAUAUAAAAAGAUAAGAGAUACAAAGGUAAAUGAGACAAGAUUUAAGGUUGAAGUUCAAGAUACAGUAUGAUACGAAACAGAUAUGGGGCCAUAUAAAAAGUAUUAAAAAUGAGCGAAAAUCAUCAAAAAAGAUAAAAAAGUUUCUAAAAUUACCAAAAAGUAUCAAAAAUUAUCAAAAGUUAUAAAAAAGUAUUAAAAAUUAUCAAAAAUUAUAAAAAGGUAUGAAAAUGUAUCGAAAGUUAUGAAAAAGUAUCAAAAAGUCUCAAAAAUAAGCAAAAAUUAGCAAAAAGUAUCAAAAACAAAAA'
p240
aF0.9949622166246851
aa(lp241
S'Campfire'
p242
aS'AAAACAUAAGAUCCAAAGUUGAAGAUAGAAAAGAGAGUUUUGAAGCAAAGACUGGCACGUUGAGGACCAGAGAUUAAUAUACUCGGGUGAGAGGAAAUCACAUAAGGCGGUAUCGGUGACGAAAGUACCACGAAAUUGCUCCAAACGAAAGAUGAUGGAAAGAUAGAUGAAAGCAUUGUCUUCGAUAGCUCGAAGAGACUGGUCAGUCCGUU'
p243
aF0.7924528301886793
aa(lp244
S'Anemone'
p245
aS'AAAUCGUUUGAAAAAGCGAGCUGUUAAUGCGGCGGCUGAUAAUUCAGCCGAGUGAAAGCACUCCCUUGGUAAUCCGAGGCGUGCGAAAGUACGGUUGGGAAACUAACCCCGGCGAAAGCCGGGUGAAAAGAAAUUUUCCUCGGGUAAUCCCGAGGACCUGAAAGGGUCGCAACCUAAGGGUUGCGGGAAAAAAUUCCCGCCGAAGAAAUUUGGC'
p246
aF1.0
aa(lp247
S'Fractal 3'
p248
aS'AAAAGAGCUGAAAGGGAAAGACGCAAAGGUACGCAGAGUCUAAAGAAUAUAAUUUUUUCAGAGAGCGUAAGCGGAAAAACGCUUGGCCAGGAAAGAUGAGAAAUUAGCCAGGUUAAAAA'
p249
aF0.8403361344537815
aa(lp250
S'Kyurem 5'
p251
aS'AAAAUUCAGAUCGUUGAAACGACAAUAAAACGCUAUCAAACGGGAAAAAUGGAUGGAGCAAAGUCUCGGCGCCUCGGGAACUGGUAAAAAAAAAAAAAAAAAAA'
p252
aF0.9134615384615384
aa(lp253
S'Snowflake Necklace ( or v2.0 )'
p254
aS'GCAUUUAUGUAUAUCAGUUACAGCAAAAAGCAACAAAAAGUAUCAAAAAGAAUCAAAAAGAAGCAAAAAGCAGUAGCAGAUAAAAAAUCAGAUACAGCAAAAAGCAUCAAAAAGGAUGAAAAAGGAUCAAAAAGAAUCAAAAAGAAGCAUCAGAGAAAAAGUCAAAUGCAGCAAAAGGCGUUUAAAUGAAUCAAAAAGAAUCAAAAAUAACCAAAAAGAAGCAUUAGAUAAAAAGUCGCAUUCGGAAAAAAUCAUCAAAAGCAACGAAAAAUAAUCAAAAAGAGUCAAAAAGAAGUACCAGAGAAAAACUCGGAUACAUCUAAAUGCAUCAAAAAGAUUCGAAAAGAUACAAAAAGUAUCAAAAAGUAGUAUAAGAUAUACAUAAAUGC'
p255
aF0.8380462724935732
aa(lp256
S'Methaqualone C16H14N2O Structural Representation'
p257
aS'AAAAAAUGAUAAGUCCAAAAAAUCAAAAGAUAGAAAGAGAAAACUCAGAGAUAGAAAACGGUGAUAGGUAAAAGUCUGAGAAAAAAAUUCGGUCACCCGUUCAUUUAGAAACAGAUCAGAUGAAAGCACGCAAAGAAAAUCAAAAAAAAGUGAUAGAGAGAAAAGUGUAGAAAAUUAUAGAAAACUACUAGGCAAAGCUCAGAAACAGAUAAAAGGAGAGAUAGAGAAAAUAGAAAACUGACUUAUAGAAAACUCAAUCACAGAAAACUUACUCAGAGAAAACUCAUUUAUAGGAGAAAACUCAGGAAAAUCUACAGAAAACUCCUUAGUCGGAGCAAACAUCAUAUCUAAAAAA'
p258
aF0.8591549295774648
aa(lp259
S"Cat's Toy 2"
p260
aS'AAAAUCUUAUACCACAGGUUCAAAAAAAAAAAAAAAAAACGUUUAAAACUUAAUACGAAAAAAAGAUAAAAAAAACAUAAAAUCAGUAUAAGGAAAA'
p261
aF0.9587628865979382
aa(lp262
S'Zigzag Semicircle'
p263
aS'AAAGGUGUUUUAACAAAGGUCAAAGGGGGUAAAA'
p264
aF0.9411764705882353
aa(lp265
S'Short String 4'
p266
aS'AAAAAGGUCUUGGGGAAGGAACGGGAGAAAAGUUUCAUGAAAUAUCGUCCAAAAAGUAGAGAGAAACGCCAAAGGUAAAAAAAAAAAAAAAAAAAAA'
p267
aF0.9587628865979382
aa(lp268
S'Gladius'
p269
aS'CAAAAGAACUAACGAAAAUCGCGAACAAAGCGUUAAAAAGUUCAAAAGAGCACAUUCUAGAGCAAAUAUAUCUGGAGAUCGGGGGAUUAUGGAGUUAGCAGAAUCAAAUCAGAUCAGCAUGAAACAUGAGAUACGAUUGAAUUCGACUAGCCACAUAAUCAAAAGAUCGGCUGAUGGUAAUGUAACUGAAUGACUAUAAGAGAGGUAUAGAAGAAAGAGGGGUGGAAAGUCAAAGGCAGAUGAGAUAUUAUAUACAGAUAGAAAUGAGCUACAAAAAUGUAGCAAUACAGCUAUACGUAUUAGAUAUACUAUCUGCAUAAGAUUAUAAACUCAUAAUUCGCAAGUACCAGAUCAAAAGAUCAAACUCUCGCAAACGGUCUAUAAAGCAAAUUAAAUAAAU'
p270
aF0.8825
aa(lp271
S'Thunderbolt'
p272
aS'GUAAGGUACAAAAAAAAGAUCAGGCAUUGGGAGGAAACGGGAUAGAGAAAAAAAAAGUAAAAAGGUAUAAAAAGUACAAAAAGACAAAGCGAGUAAAAAAAGAACAAAAAAGAACAAGUGACGAAAAGGGAAACAGAUUAAAAAGAGAAAAUGAAGCAGAAACAGCAACUAAAACCCUCGGCAAAGAAAAAAACAAUACGAAAUGGCGGCGAAAAAAGGAAGUCCUAAAAAAAAUUCAGGGGUCUACCUAUGGUAGGAUGGAACGAAAAAAAAAAGUGAGCAAAAAAAAAGAUCGAAAAGCCCAUCAAAAAGGAAAAAAACAAAAAGAUGGGAAGUGGAAGUUUUAUCCAAAAAAAUAAGCAAGCGCAAAAACAAAAAAAGAGUAUCAAGCA'
p273
aF0.9566326530612245
aa(lp274
S'Mutated chicken feet'
p275
aS'AAAAAAUGCAGUAUGAAAACGUAAAAUGAAAGAACUCCAUCGGCAAGGCAGAGAAGCAAAGAGGUCCAGCAGCGAGGUAGUAAAGCGAGGCACUAAAAAA'
p276
aF0.82
aa(lp277
S'Chicken Tracks'
p278
aS'AAAAAAAAACAUAACCGUUAAAAGACGAUGAGCAAAGGUUCUAGAUCGAAAGAUCGUUAUGUAAGAGCAGGAAGCCUGAAGGUCGAAGAUCAAUACCAAAGGUACUCAAAAAAAAA'
p279
aF1.0
aa(lp280
S'Looking Back Again'
p281
aS'GAAAUGAGGUAGAAAAAGCUAGCAAAGUUAGCACUACAAGCGGCGAAGGGAAGCCCCCCACAUACGAAGAUGAAAACGUCAAAAGUAUGAACUCAAGUCUAGAGGGAGAAAAAGGUACAAAAGUACCAAAAAGCCCGAUACGAUACAAAGUAUCGUUGCAAAGCAGCGCAUAGCCAACAAUAAGAAUGAGAGGAUGAAAACAUCAACAGAACGAAGGGGGAGAAAACACAAUUAUGCAAAGUAUCUCUCAGUCACAGAUCAAAAAAGCGAUAGAAAAAAAAGAGGAAAAAUUUCCUAUAAACGCAGAUCGGUCAAAAAAGCGCUAUCUAAUGGUAGCAAGAUUCAAAGAGGAUACAAAGUAGUAAAUCGAAAAGGAUCGUGACGAACUC'
p282
aF0.8920308483290489
aa(lp283
S'Multilooping 6'
p284
aS'AGGGAUGGAAUUUAUAGAGGUGCCCGCCUGAAUAGGUGAUAUGUGUCAUUAAUAUGGUGGACUGAAAGGGAAUGACGUUCAA'
p285
aF0.8902439024390244
aa(lp286
S'Cesspool'
p287
aS'GAAGAAGAAAACAUGCGAAUAAAUAGAAAUUAAACAAGAACGCUAGAAGAAAACAAUAGUAUAAAAAAUUAAAAAGAAAACAAGGACAUUGAGAAGAAAACAACUGAAUAAAGAGGAACUGAACAAAGACGCAAGAAUAAAAAAACAGAAAAAAGUAACAAAAAGAAAACAACAUAUACCGAUAACGAAAGAAGCGAAUAGAUCCAAAGGAAACAAAAACGCAAGAAGAAAACAACAAAAUAAAAAAAUAAAAGGGAAAUAACGAGGGAGCAAGAAGAAAACAUGCUAAUACUGAGAAGCUAAUCAAAAAAGCUAGAUGAAAACUACAUAAUAAAAGAAAAAAAAGAAAACAACGAGC'
p288
aF0.7513966480446927
aa(lp289
S'Hoglafractal'
p290
aS'AUGUGGUAGAUGCAAAAGAUACAAAAAAGUAUCGCAUCGACCAAAGAACAAAAAGUUCGGUCGACAAGUGAAAGCGCGACACACAAAGUUCAAAUAUCAAAAAAGAUCGAAAGACAAGAGAAAAACUCUUCCCAGCAAAAGCGGAUAUGAAAACAGAAGAGAAAAAACUCCCCGCAGCAAAAAGCGCGAGAAAACUUGGAUACAAAAAGCAGCAAAAAAGCGCAAGAAAAACUCUGAAAGGCAGCGAUUAAAAAAGAGGAAAAACUCGGAAAAACAGACGCAUAUCAAAGAUAUGCAAAAAAAAGUCGCAAAAAAGUAUCAAAAACAUAAAAACUGGAACCAUCUAAGUCUAGAUGAAAAGCAAAAUCCCAAAAGGUAUAUCAAAGAUAUAACAUCAGUC'
p291
aF0.89
aa(lp292
S'Bullseye'
p293
aS'AAGGAGUACGAAAUAUGAAUUAGAAGCUGAAAGAUCAAAGGACCUCAAAAAAAAAAUAAUCAAAGAUUAGUGGAUAUGUAAAAAAUAAAAUAUUAUUAAAAAAAAAAGCAUCAAAGAUAAUGUUCUAUGAACUAGAGCAAGGAUUCUUAAAAAAAGGGAGACCAAACAUGAAGCGCUAUGCGCGAGAUUAAAGCUCUCCAAA'
p294
aF0.8415841584158416
aa(lp295
S'Shooting Star'
p296
aS'AAAUAGGAUCGCAUAACGAAAAGAGGUACUCAAAGAGAAAAUUACCAAUGGGAGACAACUAAGAUAUGGCGAUGCGCGGCAUGGGCGAAGUUUCACCGAUUUCAGGAAAACACGAGAACGGGAGAUACUAGACACUUCCGAGAAAAGAAGUAUCGAUCAAUUCAAGGCUUCAGAGAUAAAGUUUCGUUAAAACUCACAUCAGAUCAGAUGAGGGAAAUGACUAGCAAAGCUAGUCUGAGACAAAGUCUCCUUCGAAUAUCAAAGCUAUGCAGUUAGAAACUGGCCAUCGCGGGAAAAAAGAAAUAGCAUUAGUCUUAGAUAAGGAAAACAUGAUACAAGUCAAAUAGAGAAGCCGCAUUAUUUA'
p297
aF0.7912087912087912
aa(lp298
S'Teslagon'
p299
aS'AAAAAAGGAAAAAAAAGAGGAAAAAAAAGAACAAAAAAAAAAAAAAAGAAAAAAAAAAACAAAAAAAAAAAAAAAGCAUUAAAAAAAGCAAGGUAAAAAUCGAAAAAAAAAAAAAAGGAAAAAAACUAGGAAAAAAGGCAGCAAAAAAAAAAAAAAAACAAAAAAAAAUCAAAAAAAAAAAAAAAGAGGCAAAAAAAAUUUGAAAAACAGUUAAAAAAAAAAAAAUGCAAAAAAACCCUGAAAAAAAUCAACAAAAAAAAAAAAAAAGUAAAAAAAAAGCAAAAAAAAAAAAAAAGCAGGAAAAAAAUGCGGGAAAAAAGUAAAAAAAAAAAAUUAAAAAAAAAAAAAAAGGAGCAAAAAAACAAUUAAAAAAACCAAAAAA'
p300
aF0.9162303664921466
aa.