(lp0
(lp1
S'Simple Hairpin'
p2
aS'GGGGUAAAAAAACCCC'
p3
aF1.0
aa(lp4
S'Arabidopsis Thaliana 6 RNA - Difficulty Level 0'
p5
aS'GGGGGGUAAAAGGUAAAAAAAAAAAACCCGGGGGGUAAGGGGGGGGGGGGGGGGGGUAAAGGGGUAAAAAAACCCCAACCCCCACCCCCCCCCCCCCCAACCCCCCGAAACCCCCC'
p6
aF1.0
aa(lp7
S'Prion Pseudoknot - Difficulty Level 0'
p8
aS'GGGGGUAGGGUAAAAACCCACCACCUAAAAAAAAAA'
p9
aF1.0
aa(lp10
S'Human Integrated Adenovirus - Difficulty Level 0'
p11
aS'GGGAGUUGGCGGGUGUGGGGAGAAAAAAAAAGCGGAUCUGAACUGGAGAGGCUCAAGAAAAGGAGGGGGCGCGUAAAAAAAGACGUGCCCCCAAAAUCCCUAAGAUAUGCCGGCGAAAUCGGAAAAGCGGGGGAAAAAACCCCGUGCCGAAAAAAAAAAAAUCCCCAAACCCAAAAGCCAGCAAGUCCCAAA'
p12
aF0.9895833333333334
aa(lp13
S'The Gammaretrovirus Signal - Difficulty Level 0'
p14
aS'AACGCUUUGGGGUGAAAACCCCGUUGAGAAAAAAGGGUAAGGUAGGGUUGGGUAAAAACCCAAAAAACCCAUCACCCAAGGGGGUGUAAAGACACCCCCAA'
p15
aF1.0
aa(lp16
S'Saccharomyces Cerevisiae - Difficulty Level 0'
p17
aS'CGGGGUGGGCUGAAAAAAAAGCCGGGGAAAAAAAAAAAAAACCAAAAGUGCACAAAAAAUGCAUCACCCCGAAAGUCGGGGGAACGGUAAAAAAAAACCGGGCUAAAAAAAAAAAUGCCAAAAGUGGUUAAAAAUGCCACCCCCUGAAAAGGGGCGGGAAGGGUAAAAAAAAACCCCGACAUAAAAAAGGUGUCGAAAACGCGUUAAAAAUACGCGCCCGCCCAAAAGGAGGUGAAGUCGGAAAAAAACGGCGGGGGUCAAAAAAACCCCCAAAAUAGCUGAAAAAAAGCUGCACCUCCAAAUCGUGUGGAAGGCUAAAAAAAAAGCUGGUUGAUAAAAAUUUAACCAAAAUCGGGGAAAACACCUGACCGCGCGUAAA'
p18
aF1.0
aa(lp19
S'Fractal 2'
p20
aS'AAAAAACCGGGCUAAGGUGUAUGGGGUAGCGCGAAAAAAAAAGUGCCAGCUGAAAAAAAAACCGGCGAGUCCUAAAAAAAAUGGGCGUUCCCGUGCACAAAGGGAGGUGUGAGGGGUAAAAAAAACGACCCAAGGGCAAAAAAAAAAGCCCGAUGUGGAAAAAAAAACGCAGACACGCCUCUCAAAGGGGACGCGGAGGGAGAAAAAAAAAACUCCAGGGUUAAAAAAAAAAAACCAACGUAAAAAAAAAAAUGCGAACCGCGUCCCCAAGAGCCCGGUAAAAA'
p21
aF1.0
aa(lp22
S'G-C Placement'
p23
aS'GGAUAAGAUCCA'
p24
aF1.0
aa(lp25
S'The Sun'
p26
aS'GGUAGGAGAGGUAUUCCUAAUCCACUAAUGGCAGGGGUACAAGGUGCAACCCGCCUAGGGCAGGCGUGCCAAGAACCAGCCACCAAGGCGCGGAGGUUAAGAACCAACCGCGCAAAGAUAUUGCGCUUAUGGCGAACGCAUCGAAGGAAGACGUACAAAGUGCAAGUCUCCAAAGUCAGGCGUAUUAUAUACAAUUCGGCGAUCAUAUUCGGGUGAAACCCCAAUAAGCUAAUGUACGGCGGUGAAACCGAACCGACA'
p27
aF0.9302325581395349
aa(lp28
S'Frog Foot'
p29
aS'AAAAAAAAAAGUUUGAAAAGACCACCAAAGGGUGCCCGUCUCGGG'
p30
aF1.0
aa(lp31
S'InfoRNA test 16'
p32
aS'GGGGGCUCGGGGGGUUAAUACCCCACCAGUGCCCCC'
p33
aF1.0
aa(lp34
S'Mat - Martian 2'
p35
aS'GGUUAAAAGACUAAGGGAGGGUAAGGGCGGUGAAAAAAACCGCCCGCCCUCCAAACGUGGGGAAAAAAUGGCGGGUAUGCCGGUUAAAAAUACCGGCGACCCGUCUAAGGGGGGGGGACGGUCAAAAAAACCGUCCACCCCCCCAAAAAGUCCCCGCGGAAGGAGGCGGGGGCGUCAAAAAAACGCCCCAACGCCUCCAAAGGGUGAAAGCCU'
p36
aF1.0
aa(lp37
S'square'
p38
aS'GGGGGGGGGGGGGGUGGUGGGGGGGCAAGGCCCCCAAAACCACCGCAAAACCCCCCAAAACCCCCCC'
p39
aF1.0
aa(lp40
S'Six legd turtle 2'
p41
aS'AAAAAUAGACUCGAAAGAAAGGGGAAACCAAUGCCAAAGUUAUUGGAAAUAUAAGCUAACUCGAUGGGAAAUCUAAUAAAAAAAAAAAAAAAAAAAAA'
p42
aF0.9591836734693877
aa(lp43
S'Small and Easy 6'
p44
aS'GCGUUGAAAAAAAAAUAAAAAAACGAUUCC'
p45
aF0.8666666666666667
aa(lp46
S'Fractile'
p47
aS'AAAAAAAAAAAAUCGAAAGAGAAGCAAAGCGAAAGCAAGCUAUCCAAAAGGUGUGCGAGGAAAACCGAAGCGAGGGCAACCAAAAAAAAAAAAAAAAAAAAAAAA'
p48
aF1.0
aa(lp49
S'Six legd Turtle'
p50
aS'AAAAACAAAAACCGAAAGCGAAAGGAAAGUCAAAACAUAAUUACAAACUGAAAGCGAAAUGCAAUAAAAAGUAGAAAUGAAAGUCAAAAAAAAAAAAAAAAAAAA'
p51
aF0.8666666666666667
aa(lp52
S'snoRNA SNORD64'
p53
aS'GGGGGUAAAAAGGUAAAAGGUAAAGGGGUAAAAAAAAAAAAAACCCCAAAAACCAAACCAAACCCCC'
p54
aF1.0
aa(lp55
S'Chalk Outline'
p56
aS'AAAAAUCCCAGGCGUGAAAACAGCUAGCUACCUAAAAAGGAGCAGCGGGUAAAAACACCGCACGGGUUAAUACCACGGGGAAAAAAAAAAAAAAAAAAAAAAAA'
p57
aF1.0
aa(lp58
S'InfoRNA bulge test 9'
p59
aS'GGUGGGUCGAGAGAGGGGGGUAAAGACCCCCCCCCACCCGCU'
p60
aF1.0
aa(lp61
S'Tilted Russian Cross'
p62
aS'AAAAAUGUGGGGAGAAAUCCCGGGGAGGCUAAAGAGCCGGUGGUAAUUCGCCAGGGUGAAAACCCCCCCCUGCGAAAGUAGCGCAGAAAAAAAAAAAAAAAAAAA'
p63
aF1.0
aa(lp64
S'This is ACTUALLY Small And Easy 6'
p65
aS'AAAAAAAAAAAAAAAAAAAAAAAAAAAAAAAAAAAAAAAAAAAAAAAAAAAAAAAAAAAAAAAAAAAAAAAAAAAAAAAAAAAAAAAAAAAAAAAAAAAAAAAAAAAAAAAAAAAAAAAAAAAAAAAAAAAAAAAAAAAAAAAAAAAAAAAAAAAAAAAAAAAAAAAAAAAAAAAAAAAAAAAAAAAAAAAAAAAAAAAAAAAAAAAAAAAAAAAAAAAAAAAAAAAAAAAAAAAAAAAAAAAAAAAAAAAAAAAAAAAAAAAAAAAAAAAAAAAAAAAAAAAAAAAAAAAAAAAAAAAAAAAAAAAAAAAAAAAAAAAAAAAAAAAAAAAAAAAAAAAAAAAAAAAAAAAAAAAAAAAAAAAAAAAAAAAAAAAAAAAAAAAAAAAAAAAAAAAAAAAA'
p66
aF1.0
aa(lp67
S'Shortie 4'
p68
aS'GCGAAAGCACGGAAACG'
p69
aF1.0
aa(lp70
S'Shape Test'
p71
aS'AAAAACAUGUUAAGGCGGAAAAAAAAUCGCCAAUGUAGGUAGGGAUGAAAAAUCCCAACGUAAAAGCGUAACCACAAAAGCAGGGGCGGGGGGGGGGGGGGGGA'
p72
aF1.0
aa(lp73
S'The Minitsry'
p74
aS'GGGCAAAUGGUAAAAAGUUAAAAAGGUGAAAAGGUAAAAAAAAACCAACCGAGCAACCUCCC'
p75
aF1.0
aa(lp76
S'stickshift'
p77
aS'AAUGGGGUGCUAAAUGCAAUCCCGGA'
p78
aF1.0
aa(lp79
S'U'
p80
aS'AAAAAGGGGUAGAGAGUAGAGGGGGGGGGAAAACCCCCCCCCCACCCAUCCCAAAAA'
p81
aF1.0
aa(lp82
S'Still Life (Sunflower In A Vase)'
p83
aS'AACGCGGUUGGGUGGAAAACACAUUGGAAGUGAAAACCCACAUGAGAAAAAUUCCCAAGGAGCUAUGCUCCAAAGGGUUAAAUACCCUAAAGGGUAAAAAACUCUGGUUGGGGUUGAGCGGGGGGGCGUGGUGUAAAAAGACGCCAGAGUGAGGGGGGGGGGGAGUGUAAAAAAAAAAAAAAAAAAAAAAAAAAAAAAAAAAAAAAAAAGCGUGAAAAAAAAAAAGUACUCGCGGUAAAAACCGCAGCGCCCCCCCGCUCAGCCCCGACAAAGGUUAAAAAAACCCGUGAGCUAAAAAAGCUCUACGGUGAAAAGGGCCGGGGUGGGAAAAACCUACAAGAGAUAAAAAUCUCAUGGUAUAAAAAACACUUCCGCUAA'
p84
aF0.9470899470899471
aa(lp85
S'Quasispecies 2-2 Loop Challenge'
p86
aS'AAAAAUGAGCAAUAAGGCUAAAAGGCCCGAAAGUGGGUAUGUAUGAGACCCUAAAAAUGACGCUGAAAAGGCGACUGUUCUAUCAAAAAAAAAAAAAAAAAAAAA'
p87
aF0.9809523809523809
aa(lp88
S'Corner bulge training'
p89
aS'AGGGGGGUGGGCAAGGCCCAAAACCCCCCCG'
p90
aF1.0
aa(lp91
S'Spiral'
p92
aS'AAAAAGGGUAGGGGGUAGGUAGGGGUAGGGUAGGGUAGUAGUAGUAGUAGUAGUAAAAAACACACACACACACUCACCCACCCCACCACCCCCACCCAAAAA'
p93
aF1.0
aa(lp94
S'InfoRNA bulge test'
p95
aS'AAAAAAAAAAAAAAAAAAAAAAAAAAAAAGGGCAAAAAAGAGUAAAAUGGUAAAGGGUAAGCGUAUGGUAAAAAACACAGACAGCGAACACCAAAACACAAAAAAACAUCAAAAAAGCACCA'
p96
aF1.0
aa(lp97
S'Worm 1'
p98
aS'AAAAAAAGUCACACCGUUGUACACACCAGGGAUCAUCCGAGAGUC'
p99
aF0.9111111111111111
aa(lp100
S'just down to 1 bulge'
p101
aS'AAAAAUCACAGGGGUAAAAACCCCAGGUAAAAACCAGUAGAAAAAGGAUAUUAAAAAUAAAAGCAAAGGCUAAUCCAAAAAAAAAAAAAAAAAAAA'
p102
aF1.0
aa(lp103
S'Iron Cross'
p104
aS'AGUUGGGUAAAUGGCAGAAAACCUGGGGAAAACCGGCCGAAGUGUUUUGGAAAUCAAAGUAAAACUGAGAAAAUGAAGUUAAAAAAAAAAUGAACCAAAAGGAGACCGUCUAAAAGAAAACAA'
p105
aF0.8536585365853658
aa(lp106
S'loops and stems'
p107
aS'AAAAGGGGGGGUAAAGGGGAAAGGGUAAAGCGAAAAAAAAAAGUGUUUAAAAAAAAAAUAGCACGAAUUGCAAAAGGUGAAAAAAAAAACGCCGAAACCCAAAGGUAAAAAAAGAUCAAACCCCGACUAAAAAAAGAAAAUCCCCCAAAAA'
p108
aF1.0
aa(lp109
S'Water Strider'
p110
aS'AAAAGUGUGGUUUGGGCACGCAAAGCUGACUAAAAAGGGUGAAGGGUUUGAUUAAUGUCUCGGAAACCUAAGGCGAUCCUUAAAAAAAAAAAAAAAAAAAAAA'
p111
aF0.9320388349514563
aa(lp112
S'The Turtle(s) Move(s)'
p113
aS'AAAGGUAAUCCAAAAGCGGGGGGUAAAAAAAAGACCCCCCGCAAAAGAGUAAAAAGCCCAAAAACGUAAAAACGAAAGCGGUUAAAAAUACGCCAAAAGGCAAAGUGAAAACAAAAAUCUAAAAGGAAAAAGCCGGUCAAAAAAACCGGCAAAAGAUAAAAAUCAAAAAGGGGGAAAAGAGUCAAAAAAACCAAGGUAAAAAAAAACCAAAGGGGAGAAAAAUCCCCGAAAGGGAAAAAACAUAAUCCUCCAAAAAAAAAGGAAAACCGAAAAGAAAAAAAAAAAAAGGGGUUAAAAAAAAUAUCCCGAAAAAGCC'
p114
aF0.9873417721518988
aa(lp115
S'Adenine'
p116
aS'GGGGUGGGGGCUGGGGGGUGGGCGGUAGGGGGUAGGGGGUAAAAGGUGGUAAAAAAACCGCCAACCCCCGGGGGUAAAGGGGGGCAAAGCCCCCCACCCCAACCCCCAGGGGGGGGGGGCAAAGCCCCCCAAACCCCCAACCGCCAAAAACCCCCAAAAAGCCCCAAAAACCCC'
p117
aF1.0
aa(lp118
S'Tripod5'
p119
aS'AGCGGUCAGUAAAAAACUGGCGUGAAAAACGUGCCGAA'
p120
aF1.0
aa(lp121
S'Shortie 6'
p122
aS'ACGAAAGUAGCAAAAGCGGUGAAAACACGGAAACG'
p123
aF1.0
aa(lp124
S'Runner'
p125
aS'AAAAACCGUAGAGUGAAAACGGUAAGAUCGAACUCAAGGUAAAGCGCAGAAACAGAAAUGCGGUAGCAUGCCUAACCCCGAGCAAAGUUGAAUUGGAAAAGGAAGCAACGGAAAAA'
p126
aF0.9482758620689655
aa(lp127
S'Recoil'
p128
aS'AAAAUUGGGUAAGUAAGUAAGGUAAGGUGAGUAGGCGAAGCAACAACCAACCAACAACAACCCAUAAAAAAAAAAAAAAAAAAAA'
p129
aF1.0
aa(lp130
S'[CloudBeta] An Arm and a Leg 1.0'
p131
aS'AAAAACGGUCGGCCUAAUGGAUCGGGAACAAAACUGUCCUCCGGAAAAAAAAAAAAAAAAAAA'
p132
aF1.0
aa(lp133
S'[CloudBeta] 5 Adjacent Stack Multi-Branch Loop'
p134
aS'AGAGGGGUAGAAAUGCCGGGGCGAAAGCUCCGGGCUAAAGGGCCCGGGAGAAAUCCCCCUCUA'
p135
aF1.0
aa(lp136
S'Triple Y'
p137
aS'AAAAGCUGCGAGCCGGUUAAAAAUAAGUUGAAGAGCUGCUUGCUAUUUACUGAUAGAGGUAUAAUUGACUAACGCCGAAAAAAAAAAAAAAAAAAAA'
p138
aF0.8969072164948454
aa(lp139
S'Misfolded Aptamer'
p140
aS'UUUGAAAAAUGACAGAAGCGGUGUGAAAACGGCAGGGGAAGUAAAGUGGA'
p141
aF0.92
aa(lp142
S'Flower power'
p143
aS'AAAAGAGGAUGUCACAGCUAUGUGGGAUGAAACGUCAUCGUAAAAUGGGUAAGCCUAUGGCUCCAAAUUACCAGGAACUCCUAAAAAAAAAAAAAAAAAAAA'
p144
aF0.9803921568627451
aa(lp145
S'Kudzu'
p146
aS'AAAAAACAUGGGAUUGUGCAGAGUAGGUAUAAGCGGAGCGUCAGCAAGGCAAGGCAUGCGUAGCACAAAGCAUUAACUUGUGAAAAAAAAAAAAAAAAAAA'
p147
aF0.9603960396039604
aa(lp148
S'"1,2,3and4bulges"'
p149
aS'AAAAUCUCUAGAGCCAAAAACAAAACUCAGUAAAAGUACGGGCAGGAAAGAGUGCGGAAAAAAAACAAGUGAAAACACGACAACUGAAAAAAAAAAAAAAAAAAA'
p150
aF0.9047619047619048
aa(lp151
S'medallion'
p152
aS'GGGGGGUCAGUGCAAAAUCAUUGGGGAAAAAUCCAGGUAAAAACCAGGGCGCGAAAGCCCACAGGUAAAAACCAGCGCGAAAAGUCGCGCAGCUGAAACGUGGUUAAAGAGCGGCGGGAAAAAUCCCGCAUGAAAAAAAAAGGGGCUAAAAAGCCCCAGGAAAAAACCAGGUAAAAACCAGAGUGUAAAAUCGCACAGCUAAAAGGCGUCGCGUAAAAAACAGGAGGUAAAGAAUACAUAAAAAUGAGUUGGUGAAAACCGGCGAUUAAAGACCUGCGGGUAAAAACCCGCAAGUGAAAACUAGGUAAAAACCAUGGUGCAAAAGCGUCGUCCCCCC'
p153
aF0.8486646884272997
aa(lp154
S'[RNA] Repetitious Sequences 8/10'
p155
aS'GGCAAAAACUGUAAAAUCAAAAAAACCGAAAAAUCAAAAAAGAGAAAAAGCAAAAAAGUAAAAAAGGGAAAAAGCAAAAA'
p156
aF1.0
aa(lp157
S'Documenting repetitious behavior'
p158
aS'AAAAAAAGUGGGGGGGGGUGGGGGGGGGGCGGGGGGGGGGGGGGGGGGGGGGGGGGGGGGGUUGGGGGGGGGAUGGGGGGGGGGUGAGGGGGGGGUCGGGGGGGGGUGGGGGGGGGGUGGGGGGGGGGGGAGGGGGGGGUGGGGGGGGGGUGGGGGGGGGAUGGGGGGGGGGUGGGGGGGGGAGUGGGGGGGGGAGAAAAAAAAACUAAAAAAAAAACAAAAAAAAACAAAAAAAAAACAAAAAAAAAACAAAAAAAAAACAAAAAAAAAGCCAAAAAAAAACAAAAAAAAAACAAAAAAAAAAGAAAAAAAAAGCAAAAAAAAAACAGAAAAAAAACAUAAAAAAAACCAAAAAAAAACCAAAAAAAAACGAAAAAAAAACAAAAAAAAAAACAAAAAA'
p159
aF1.0
aa(lp160
S'7 multiloop'
p161
aS'AGGCGCGGUAAAGACCGCGGGGAAAAGUCCCCGGGGUGAAAACCCCGGCUCUAAUGAGCCCAGGUGAAAGCCUGCUGUGAAAGCACAGGCCU'
p162
aF1.0
aa(lp163
S'Kyurem 7'
p164
aS'AAAAGCUGGUGAAUGGAAAUGCCCUAAAAAGGUGUAGAAAAUCAGAAGUUGCAAAAAGAAGAUCGUCACCAAGUCUCACUUGAAAAAAAAAAAAAAAAAAAA'
p165
aF0.9019607843137255
aa(lp166
S'JF1'
p167
aS'GGGGGGGGGGGAGGGGUCAGGGGUAAAAGGGGGUAAGUGGUAAAGCCGUAUGUGGUGACGGGGGGGGGGGGUUAAUACCCCCCCCCCCCGAAGGUAAAAACCAGGGGGGGGUAAAAGCCCCCCCCAAGGGGUAAAAACCCCACGCCACCAUGGCAACCACAACCCCCAAAGGGGGGGUGAAAAACCACCCCCAAGGGGGGGGGGGGGGGGUGGGGGGUAAAAACCCCCCACCCCCCACCCCCCCCCCAAAGGGGUAAAAAAACCCCGGGGUGGGGUAAAAACCCCACCCCAAAGGGUAAAAACCCAAACCCCAAACCCCAGGGUAGGUAGGUAAAAACCACCACCCAUGGGGGGGCAAAAGCCCCACCCAACCCCACCCACCUCAAA'
p168
aF1.0
aa(lp169
S'multilooping fun'
p170
aS'AAUUUAUAGAAAUUAAGAAAUGAAUAAGAAAACAUU'
p171
aF0.8333333333333334
aa(lp172
S'Multiloop...'
p173
aS'GGGUGGCGUAGGAAAAAUCCUCGAAAAAUUCGUGUAAAAACGAGGUAAAAACCAGGAAAAGACAAGCUUAAUAGCAAGGCAUGUGUAAAAAAACACGGGGAAAGUCCACCC'
p174
aF0.9459459459459459
aa(lp175
S'hard Y'
p176
aS'AAAAAGGGCGCACUGUAGGAUAAUUCCUACAAAGCCUGUGGGGGUAAAGACUCCCGCGGGCCCGAAAA'
p177
aF0.9705882352941176
aa(lp178
S'Mat - Elements & Sections'
p179
aS'AAAAAAGGAUGGGACUGGGGUCUUGGAAUUAGCAGAUUUUGAGAAAUCACCGACUGCACGUCCGAAAUGUCCCCUGGAACUUCCUAAAAAAAAAAAAAAAAAAAA'
p180
aF0.9619047619047619
aa(lp181
S'Chicken feet'
p182
aS'AAAAGAGAGGUGAAAACCUGUGAGAAUAACCCAAGUAGAGGUGAAACGGGGAAAAAAAAUACAAAAA'
p183
aF0.8059701492537313
aa(lp184
S'Bug 18'
p185
aS'AGUAGUGAUGGUGGGGAUGGUCUGAAGGUGGCUUAAACAAAUAAGGGAAAGCA'
p186
aF0.8867924528301887
aa(lp187
S'Fractal star x5'
p188
aS'AAAAAGUAGGGAGAACCGUAAAAUGGCAAUUGUAAAAACAAAUUGGUGAAAACCAUAGUGUAAAAAUGCAAGCCUCCGCGAAAUGGUCAGGGAAGAGGAAAAUCCCAAUGUCAAAAGACGAAGGGCAAAAGCCCAUAUUUUAAUAUAUACCAGGUAUUUAAAAGAAUUAGGGAGAUUGAAAAAACAAGGCUAAAGAGCUAAUGGUAAAAACUGAGAAUUAAAGAGGCAAAUUCACUCAAAAAGGAGUGUAAAGAGUAAAGACCCAGAAGUAAAAACUCAAGUUCAAAAGGACAAGUGGAAAGCCGCAGUGCGCUCCAAAAACUGGUAAGAAGUCUAAAAAGGCAAGCUUUAAUAAGCAGUUAGAAAGACCAAGCGAUUAAUAUCGAACUUGCCGGGAAAA'
p189
aF0.8875
aa(lp190
S'Crop circle 2'
p191
aS'GUGACUCGCAAUAGAAAAAGAAAAAAAAAGGAGGGGGGGGGGGGGGGGGGGGGGGCAGUGGUUGAAAAAAAAAAAAAGUUGAAAAAAAAGGAAAAAAAGGAAAAGAAAAA'
p192
aF0.9636363636363636
aa(lp193
S'Branching Loop'
p194
aS'AGGGCGAAAAAAAGCACCUGAAUAGCUAAUAACGAAAAAA'
p195
aF0.95
aa(lp196
S'Bug 38'
p197
aS'AGCUGUAGAGGCUGGGAACACGAACGGGUAAAUGUG'
p198
aF0.9444444444444444
aa(lp199
S'Simple Single Bond'
p200
aS'AAAAAAGAGGGGGGGUAGUCGAAAAGACUUAAAAAAAGCGGGGGGGGGGGGGGGGGGGGGA'
p201
aF1.0
aa(lp202
S'Taraxacum officinale'
p203
aS'GAUGUGAUCAAUUGGGUUUAAUAAUCCAGGGCGAAAGACCCAGGUCGAAAGACACAGGGUAAAAGACCCGCGGAGAAAUACCCAGGCCGGCGGGGGGGGGGGGGAUGAAAUCCGCCUCCCCGGUGGGAAGUGGGUCGGAUAGGGCGGGAAACCCGCCCUUCUGGCCCACGGGUAGGGGGUGAAACCCCCGCCCCCCGCAAACCCCGCCGGCCACAGUUAAUAAUACGGGGAUAAAUACAAGAUGUAAAAAAUCCAGUGUAAAGAACGCAGUGUAAAAAACAC'
p204
aF0.8652482269503546
aa(lp205
S'Headless Bug on Windshield'
p206
aS'GGUGGCAAAAAGGAUUAAACUUUGUGACAGGGCACGGUGGGGAGGGGGGAACAUAGGGGAAUAGCAAGGGAAAUGAGAGGGUAAGUAAAAAAAGUGAAAACGAAAAAAGCUUCAAAAAGCUCUAGCGUAAAAAAAGAUUAUGAAGGUAAGAUGCUGAAAAAAAAAAAAAAGGCUAUUGACUAAACGUAAUAAACAAGCCA'
p207
aF0.88
aa(lp208
S'Pokeball'
p209
aS'AAUCGUGGGUAAAUGAGAUAGAGGGAUCGAUGUGUGUAAGGAAAUGCGCGAAAUAAUGACCGACUACUACGUCCCAUAAUCGCCCACGUAAAAAAAUGGCGCAAAAAGGAAGGAAGCUAUCAAUGACUGGGAUGAAUACUGGGAACUUAGGACGAGCAUCUAUGACGAACAACCUGCGCCAAAA'
p210
aF0.967391304347826
aa(lp211
S'Variation of a crop circle'
p212
aS'AAAAUGGAAAGGGAAAAUAAAGAAAUGGGAGUGAAACGACCUAAGUCAAAAAAGAGACACAACCGAAAAAAAAGAAAAAAAAAAAAAA'
p213
aF0.9431818181818182
aa(lp214
S'Loop next to a Multiloop'
p215
aS'AAGCGGGAGUUAAAAAGCGGGGGGUAAAAACCCCCAGGUGGGUAAAAACCCGCCAGAAAAAAUACUCCCGCAA'
p216
aF1.0
aa(lp217
S'Snowflake 4'
p218
aS'AAGUAAUCCCCUGGGGGAGAAAAAGUGGUGAGGUGUUGGAAACAGGGCUAGGUAAAAUCUAACGUUGAAACCGAGCCCCUAAAGAUAUACCGGUAAGGGUAAAAACGGCCGUGGGAAACCCGAAGGUUAAGGACCACCCGGUAAAGAUCCUAAAAUUUGUGUAAAAAUGGGGUUGGUGAACCCAAACCGCGACGCGGACCCCGUUAAUACACGAAAAUGGUGGGAAAGUCAGAGAGGGUAAGCCGCAACGUAAAGAGCCUACUCGUAAAGACCACCAAAAUGGCAGGAAACUACGUUGGUCAAGGGUCAAGGGGAAACCCCACCCCGGAAAGUUAUCGUGAACCACCUAAAAACUCCCAAAGUAAAGCUU'
p219
aF0.8243243243243243
aa(lp220
S'Mat - Cuboid'
p221
aS'GGGUCAAAAGUUAGGAAAAGAGAGUAAAAUGAGUGAGUAAAAGUGAGUGAGAAAAAUGAUUAAGUGAGUAAAAGUGAGUAAGUGAGUAAAAGUGAGUAAGUGAGUAAACAAAAGGAAGUAGGUUAGUAGAUAAAAGUCUGCAAGUAAGGAAGUAAGCUAAAGGAAGGAAGGAUGGAACCAAUUAAAAGUAUGUAAGUAAUUUAGGAAGAAAAAAAUCCAUCGUAGGAACGAACUGACAGGGGGGAUCUACCGAUCGGUAGCGAGCGAACGAACGAGCUAAAACAGAAGAACAAGCGAACGCAAACGAACAAACAAACAAAAACGAAAAAAUACAAACAGAAAAACCAAAUGAACACAAACAAAACAAACAAAUAUGAAAC'
p222
aF0.8736842105263158
aa(lp223
S'Misfolded Aptamer 6'
p224
aS'AAAAAAGGAGAAAAGAGGUAAGAAAUCGAAAAAAAAAUCGUGGGCGAAAGACCUAAAAAAAUCCGAAAAAAAAAA'
p225
aF1.0
aa(lp226
S'Snowflake 3'
p227
aS'GGUGUAAAAACAGUUGGUAAAAGCCAAGGGUAGGGGAAGGUAAAGACCGAUAGUUAAUAAUGCAAAGCAGUAAAAACAAUCUAUGAAAGUGAGACCCAUUUUAACGGAAAGCCGGUUAGGGAAAUCUAUGAAAUAGGGAAAACAAGCGAUGAAAAUCAAAAGAGUGGUAAGGUAAAAACCGAUAGUAAAAACUGUAAGAUAGUAAAAACAAUCGGUAAAAACCAAACCAAUGGUAAGGUAAAAACCGGUAGUAAAAACUGUAAAACAAUAAAAAUAACCGGUAAAAACCAAGCCAAUGGUAAGGUAAAAAGGGGUAGUAAAAAGUGUUAUACAGUAAAAACAACCAAUUAAUACCAAGCCAAACCCAAUGGAAAAACCAACAGUAAAAACGCC'
p228
aF0.8269720101781171
aa(lp229
S'Hard Y and a bit more'
p230
aS'AAAAAUGGCUGGAUCGUCUAAUGACGCGCCCCGGUGUGUUAGUUAAAAAGGCUGGGGGCGAAAAAGCCCCAUCAAACCGGAGCCAAAAAAAAAAAAAAAAAAAAAA'
p231
aF0.9905660377358491
aa(lp232
S'Mat - Lot 2-2 B'
p233
aS'GGUGUAGAAGAUAAGAAAAACGGAGUCUAAAAAGAAAAGCAAACCCGAAUCAAGAUGAAAGGGUGUAAUAAGCGUGUAGUAAAAAUAAGGAUAAUUAAAAGCAAAGGCAGGAACAAAAUCGAAUGCGUCACGAACGAAGAUAACCAGCAGUGGGGAGUAAAAGGGAGGUGAAAAUGAAAACCGAUCACGACCAAAACAAAGCCCGGCUAAUGAAAGGAAAGUGAAAGGAAAUGCAAAUAAAAUAGAAAUGAUGGGCAAAGCUGAUCACGGUCACUACUAACUAU'
p234
aF0.823943661971831
aa(lp235
S'Shapes and Energy'
p236
aS'AAAAAUGUGUCGACGCGUAAACAAUAUAGUCGAAAGUUUGGUGCGCACGGAACUAGAGAGGCGAAAGCGUCGAGGGAUUCUAGGAGGGGACGGGGGGGGUA'
p237
aF0.9405940594059405
aa(lp238
S"Spiral of 5's"
p239
aS'UAAAAGGCGUAAAGGGGUAAAGGGGUAAAAGGGGUAAUGGGGUAAAGAGGUAAGGGGUAAAAGGGGUAAUGGGGUAAAGGGGAAAGCGGUAAAGGGGUAAAGGGGUAAGGGGUAAAGGGAUAAGGGGUAAGGGGUGAGGGGUAAGUGGGGGGGGUGGGGGGGGGGUAAAAAACCCCGGGGGCCCUCAAAAAACCCCAAAAACCCACAAAAAACCCCAAAAAACCCCAAAAAACCCCAAAAAAUCCCAAAAAACCCCAAAAAACCCCAAAAAACCCCGAAAAACCGCAAAAAUCCCCAAAAAACCCCUAAAAACCCCAAAAGACCCCAAAAAACCUCAAAAAACCCCUAAAAACCCCAAAAAACCCCAAAAAACCCCAAAAAACGCCAAAAAAAAAAA'
p240
aF0.9949622166246851
aa(lp241
S'Campfire'
p242
aS'AAAAGAGAAAGGGGGAAGUGGAAGAAUUAAAUAUUCAUCGAGGAACUCAGCUACAGGAUUGGAUUACUUGUGCUGAAAAGACAUACUAUCGGAAGGAGCAGUGAAAACGCCCGAGUAUCGAAAGCGAAAACUAAGUGACGGACAAGUCCCUCCGGCUGGUAGGUAGCAUGAAAAUGCACCACCUGGGGGUUUAUAGCACCACCAUGCCUCUC'
p243
aF0.9292452830188679
aa(lp244
S'Anemone'
p245
aS'AAACGAGAAAAAGUUCUCGCAGUUGAGAAACCGUCGGGAUAAUACUUGAUGCCCAAAGGGGCACUCCCUAAAGAGGGAGGUGGGGAAACUCACCGGGUUAAUACCCGCCAUUAAAAAAGGGGGAGAGGUAAAGACCUCCGUGGUAAAAAUCCCGUGUUGAAAGUAACAGGGUGUGAAAACACCUCGUGUGAAAAUGCGGAUGGUGAAAACUAUC'
p246
aF0.9345794392523364
aa(lp247
S'Fractal 3'
p248
aS'AAAAAUGCUUGGGAUGAAAACAUCGAAAGAGCCCAAGGGGGGAAACUUGAAAGCAAACUAGGAUGGGAAACCGAAAAAUCUACGGGGUAACAAAAGUUGGAAACGAAGCUAGCAGAAAA'
p249
aF0.8487394957983193
aa(lp250
S'Kyurem 5'
p251
aS'AAAAUGGUUCAGCGGAAAGCAGUAUAAAACAAUGUGAAAUGGGAAAAGUCUCUGAGCUUAAAAUAGCAAUCGGGUCUGAUGGCCUAAAAAAAAAAAAAAAAAAA'
p252
aF0.9038461538461539
aa(lp253
S'Snowflake Necklace ( or v2.0 )'
p254
aS'GACGGGGGGGGAUGGAGGCAGAGUAAAAAAUGGUAAAAAACAGUAAAAAACAAUAAAAGAUAGGAAAAACCACUGCCAGGAAAAAAGCCAGUCGGAGUUAAAUACAGUAAAAAACGUUAAAAAGAAGGUAAAUCCAGUAAAAAACAUCUGAGGGCAAAAAGCGUACUGGAGUAAAAGACAGUAAAAAACAUUAAAAAAAACUAAAAAAGAGUAAAAAACACCAGUUAGUGAAAAACCAGCCGUGGUUAAAAACAGUAAAAAACGGAAAAAGUCAGUAAAAAACAGGAAAAGAUAGCCGAGUCUAAAAAACGGUCGGUAUUAAAAAACAGUGAAAAGCAGAAAAAAUCAGAGAAAACAGCGAAAAAACAGCCGCACCGUUCCCCCUCGUC'
p255
aF0.8431876606683805
aa(lp256
S'Methaqualone C16H14N2O Structural Representation'
p257
aS'AAAAAAAGGCUUGGGUAUGUAUGUAAAAACAGUUUAAGUGAAAACCUUGUGGGAAAAAACCAGGUAAGUAAAAUCCGGUUCAAAAAAAGCAACCAACAUAGGAACAAGGAACAACCCAAGGAAAAGUUGGCAAAGUAAAACAAAAAAAAGCCUUGAAGGUUAAUACCCGCAAAAGCGGAUAAAAAUCUCGAACAAAUGGUAGAAACAUGAAGAUAAGUAGGUAAGAAAAAGAUAAAAGCAAACCAGGAAAAAUCCACCCAUGUAAAAACGAAGUAUUUAAAAAGAAACCAGGAUGUAAAAACAGGUAAAGACCAGGUAAAAACCACCAACCAGCCAAAAACCCUAGCCAAAAAAA'
p258
aF0.856338028169014
aa(lp259
S"Cat's Toy 2"
p260
aS'AAAAAGGUCUGUAAAAUCGAGUAAAAAAAAAAAAAAAAAACAUGAUAAGCAAAAGCAAGGGAAAAGGAAAAAAAUUAUAAAAAGGAUGGGCCUGAAA'
p261
aF0.9587628865979382
aa(lp262
S'Zigzag Semicircle'
p263
aS'AGAGGUGGCCGCAAAAAAGAACUGAGUAACAAAA'
p264
aF0.9411764705882353
aa(lp265
S'Short String 4'
p266
aS'AAAAAACUAUGGACCAUGAAAAGGUCUUGAAAAGACAAUGAAAAGAAUCCGAGAGGUAUCAGUGAACUGGGACAAGAAAAAAAAAAAAAAAAAAAAA'
p267
aF0.9381443298969072
aa(lp268
S'Gladius'
p269
aS'AUAAUCAAGAAAAGGGAGGCGGUGAGAGUGGGAACUAAAGGGUGAAAACCCAGGCGUAAGAGGUAAGAGGGUAAUAAGGUAAGAGGGGGGGUAUGGCGAAUGGGGAGGGCAGGGUAGGCGUAAAAUGUAACCACGCCUUACCCGAGCGCCGAACCCCCCCAACGACCUAGAAACCCAACGACCAACAACCAUAAGUGAGGCCACGGGUUCAAGUGAGAAGCUAAGAAGUAUAGAAGUGGGGUUGGGGUUACGGGUAGUUGGCAGGUGGGGCGUAAAAACGCCUAAACCAACCAGACACCCAGAGCCCACACCCCACACAGAUACACAGUGGCACAGCACAGACGCUCCAGAAGAAAACUUCAAGGGCUACCAAACAAAAUAACAAACAAAACAAGAAAAC'
p270
aF0.8675
aa(lp271
S'Thunderbolt'
p272
aS'GGGAGGGGUAAAAAAAAGUGAGGGAGGAUGGAGGAAACAGGUGGUGAAAAAAAAAAGCAAAAAAUGGAAAAAAUCCGAAAAAAGCAAACGAGGUAAAAAAAGAACAAAAAAGGACAAGUAAGUUAAAAUAAAAAAGCGUAAAAAGGUGAAAAGAACAGUGAAAAUGGACGAAAAACCAGGGCAAUUAAAAAAUGAAGAGUAAAACGCGACUAAAAAAGUGGGUCCAAAAAAAAGCGCAGAGUUGUUAUAAAAUGACAUACGAGCAAAAAAAAAAAACAACAGAAAAAAAAGUAGAAAAAACAACGGAAAAUGGAAAAAAACUAAAACCUUCGAAUGUGGAAUCGCCGCCAAAAAAAACAACAGCUUCAAAAAUAAAAGAAGAGCCCCAACCA'
p273
aF0.9642857142857143
aa(lp274
S'Mutated chicken feet'
p275
aS'AAAAAAUGUAGGUCUAAAGGUUUGAAAGAAUUUACUGUAGCUAACACAUGAUGAAAUAAGGUGCAGUAAGCAUAAAAUAUGAAAUAGUAUUGCGAAAAAA'
p276
aF0.75
aa(lp277
S'Chicken Tracks'
p278
aS'AAAAAAAUGGGGCGGGUGUCAAACCGUAGGUGGUAAUUAACAAAUGGAAAUCGAGCCGCCCCUAGUUAGAAAAAUCCCAAGGAGUAUCUCCGAGCUUGAAUAUGGGCAAAAAAAAA'
p279
aF0.9482758620689655
aa(lp280
S'Looking Back Again'
p281
aS'GGUGAGGACCGUGAAAACGGGGCAAGGCUCCGAACGGCAUGUGUGAAGGCAAAGCCAUUAUUGGAAAAGGUUAAAGAACCAAAGUCCGAAAAUCGAAAAAACGAGGGUAAAAAGGGGUAAAAACCCCGAAAAGACCCUCUGGGUGUGAAAUACCGGGGGAAAUCCCCGGCGAUCGAAGUAGAACAAGAACAAUGGUAAAAAGCGCGGACGCCCGUCACGUGUAAAGACAAAACCCUAAAACGCGGACCCGGGGGAAGGGGAAAAAACGUGGUCGGGGGGGGGGGAAAAAAUCCCCAUCAAAAACAUCACGGGUAAAAAAGGGUAGAUAAAAAUCUACAAGGUUCAAGCGAGGCGCAAAGCGCUAAACCUCAAAAGCCCUCCCCAAAACC'
p282
aF0.8560411311053985
aa(lp283
S'Multilooping 6'
p284
aS'AUGGGUGCAAUUUCUGAAAAGAAGGUGGGAAAGAGCGCAUCGUCGGGGUAAAGAUAGAUCCAGAAAGCUGGGGGCCACUCUA'
p285
aF0.9146341463414634
aa(lp286
S'Cesspool'
p287
aS'AAAGAAUAAAAAAAGGUGAGAGACGUAAAACGAACAACGAACCAAGAACAAAAUGACAAAAGAAAACGACAAAAAGGAAACAACAACAAGAAGAAUAAAAAAAGGUAAGAGAGGGAAACCCGACAACGAACCAAGAACAAAAUGACAGAAGAAAACGACAAAAAGAAAAUAAUGACAACUAAGAAUAAAAAAAGGUAGGAGAAGCAAAGCUAACAACAAACCAAGAAUAAAAGGACAAAAGAAAACGACAAAAAGAAAACACCGAACAAGCAAGAAUAAAAAAAGAUAAGAGAUGUAAAACAAACAACGAAUCAAGAACAAAAUGGCAAAAGGAAACGACAAAAAGAAAACAACGAAC'
p288
aF0.7681564245810056
aa(lp289
S'Hoglafractal'
p290
aS'ACGAGGAAGUGGCAAAAGGGGUAAAAAAACCCCGCCGUAGGUAAGAGCAAAAAGUGCUACCAGGUAAGGUAAAAACCGCCAGCGAAAGGGUAAACGGUAAAAAAACCGACCCGGUAAGGAGAAAAACCCCCAAAGUGAAAACGUAGGGGAAAAUACACGGUAAAAAAAUCAAGGUAGUAAAAAACACGUUAAAAACCAGCGGUAAAAAUUAACAAAAAAGUGGGGCAAAAAGCUGGGAAACAAGGGGGGAAAAAAGAGAAAAAAUUCCGAAAAACGAAAGGAGGGUAAAACCCUCCAAAAAAACCCCCCAAAAAGGCCGCAAAAAUCCCAAAAAGCAAACCAAAAAAGAGUAGGGUAAAAGGAAAACCGUUAAUGGGUGGUCGAAGGCCACACCCCACGC'
p291
aF0.91
aa(lp292
S'Bullseye'
p293
aS'AAGUGGGGGUAAGAGACAGCGGUAAAACCGAAGCAUAAAGCGCCCAAAAAAAAACGUGAGUAACACCUAGCCGCGAAGCGGAAGUGCUAUACUCACGGAAAAAAAGGGAAGAGAAUCUCAAGAAUGAAAUUCAAGAUUAAAAUUUCCCAAAAAAAAACAUAGUAAGGACAAAAUGUAAGACGUAAGACCGAAGACCAUUGAA'
p294
aF0.8118811881188119
aa(lp295
S'Shooting Star'
p296
aS'AUGCGGGGGUCUCCGAUAAAGAGAAGUUUGUAGGGAGCGAAAGACUAACAGAUAACGACCGGAUCGGGGAGGGGAAAGAUAAGAGAUGAGGGGUAAGUAGAGAAGUAAAGAACUCUACACUAACGCACCCAGUACGAACAAAGAAAACAACCUUCGGAGUGGUAAAACCACAGGGGCAAAGCCCCGUGAAAACUCAUCCGAACACUAGUGAGGUGAAAGGGGGAUAAAAUCCUCCAAGGGGAAAUCCCUUGCCGGGUUGGGAACCGACUGAGGGUUAAAACCCACGCUAGGGAAGUAAUCGAGGGAGAUGAGUGGUAGGGUAAGAAAAAAUACCACACCUCAGCUACACAAACCCUAACACGCA'
p297
aF0.8076923076923077
aa(lp298
S'Teslagon'
p299
aS'AAAAAGAUAAAAAAAAAGGCAAAAAAAUGGGAAAAAAAAAAAAAAAUACAAAAAAAAAAGAAAAAAAAAAAAAGGCUACAAAAAAAGAAACGAACGAAACUAAAAAAAAAAAAAAACAAAAAAAUCAAUCCAAAAAACCCCUUAAAAAAAAAAAAAUACAAAAAAAAAGUAAAAAAAAAAAAAAAACGCGAAAAAAAGAACGCAAAAAGUUAAAAAAAAAAAAAGCAAAAAAAAUCAACGCAAAAAAUGUGUAAAAAAAAAAAAAAAGCUAAAAAAAAGGAAAAAAAAAAAAAAAACAUAAAAAAAACAGGCAAAAAAUUGAAAAAAAAAAAACUUAAAAAAAAAAAAAUAGAUGUAAAAAAGCAUUAAAAAAAAAAAAAAA'
p300
aF0.8638743455497382
aa.