(lp0
(lp1
S'Simple Hairpin'
p2
aS'GAUACAAAAAAGUAUC'
p3
aF1.0
aa(lp4
S'Arabidopsis Thaliana 6 RNA - Difficulty Level 0'
p5
aS'GAUAUAUAAAUCAGAAAAAAAAAAACUGGAUAUAUCAAGAUAUAUAAAUAUAUAUACAAAGAUACAAAAAAGUAUCAGUAUAUAAUAUUUAUAUAUCAAGAUAUAUCAAAUAUAUC'
p6
aF1.0
aa(lp7
S'Prion Pseudoknot - Difficulty Level 0'
p8
aS'GAUAUCAGAUCAAAAGAUCGAUAAUCAAAAAAAAAA'
p9
aF1.0
aa(lp10
S'Human Integrated Adenovirus - Difficulty Level 0'
p11
aS'GAGGAACGAGCGUCUGAUAACAAAAAAAAAAAGGUCUGCACCUGCCAACAUCGCGUCAAAAGCCGUAGGAGUGCGAAAAAAAGCAUUCCUACUAAAGGCGACCCAAAAUAUCACGAUUGUGUCAACGGUAGCGAAAAAAGCCACCGACAAAAAAAAAAAAGGUUAUCUGACGCAAACUCGUUAACCCUCAAA'
p12
aF0.9791666666666666
aa(lp13
S'The Gammaretrovirus Signal - Difficulty Level 0'
p14
aS'AAGAGAAGCUAUCAAAAGAUAGCGACGCAAAAAAGGUUAAGACAGAUGCGUAGAAAACUACGGAAACAUCGUCGACCAAGAUAUAUCAAAAGAUAUAUCGA'
p15
aF1.0
aa(lp16
S'Saccharomyces Cerevisiae - Difficulty Level 0'
p17
aS'GAUUCUCCAUCAAAAAAAAGAUGAACAAAAAUAUAAUAAAAGCGAAUGUAUCAAAAAAGGAUACGGGAAUCAAAGUUUGGUCAAGAUCAAAAAAAGGGUCGGCGAAAAAAAAAAAAGCCAAAUGAAUCUAAAAAUGAUCCGCCCAGGGAAAGCUUUAGAAGAUGUAAAAAAUCAUCCUCCAGUAAAAAUUUGGAGAAAUCUAUCAAAAAAGGAUAGCUGGAGCAAAAGGUAGACAAGAGGAAAAAAAGCCUCCUGUUCAAAAAAGGGACAGAAAUCUAGAUAAAAAUUUUGGGUCUAUCAAAGAAGAUACAAGACCUAAAAAAUGGUCCUCUGCAAAAAAGGCGGAGAAAUGAGCCAAAAAAGGGCUUGUAUUUUAAAA'
p18
aF0.9894459102902374
aa(lp19
S'Fractal 2'
p20
aS'AAAAAGGGAUUUCGAUGUUCGAUAAUGGUGCUAAAAAAAAAAGGCAAACGCCAAAAAAAAAAGGCGGAGGUUAAAAAAAAAAGACCGAGUUAUUGAGCUAUGAUAUUUAGUAAUGGCAAAAAAAAAAGCUAAAGAGCAAAAAAAAAAGCUUAAUAUCUAAAAAAAAUGAUAGAAUUAAAUAUCUAUAGUCUAGAAUUACCGCUAAAAAAAAUGCGGAUGUGCGAAAAAAAAAGCACUAGGUCAAAAAAAAAGGAUCAUAUUCUGGACUUAAGAAAUCCCAAAAA'
p21
aF1.0
aa(lp22
S'G-C Placement'
p23
aS'GUACAAGGUACG'
p24
aF1.0
aa(lp25
S'The Sun'
p26
aS'GCCAGCGUUGCGAAGCAAGAACCGGCAAUCAUAUAGAUAGAAAUUCUAACUGGUGUAGCAUAGAUAUUUAAAGGAUAAAACUUGAAGCAAAAAAAUACAAAGUACAAUUUUUGUAUCACAGAAAAACAAGAUUCGAGUCGUGUAACACAGAUGAACAAGGGAUAAAUCGUGGAAGACAGAUCUACAAGGUAGGAAUCGUCAAAGCGAGGGCUUACAUUAAGAACCCCUUAAGCUCAGAACAACUAUGUAGAAAUCUAG'
p27
aF0.7984496124031008
aa(lp28
S'Frog Foot'
p29
aS'AAAAAAAAAAGUUCGAAAGAAUCCAAGAAAUUGGGGACGAAGUCC'
p30
aF1.0
aa(lp31
S'InfoRNA test 16'
p32
aS'GAACUCUCACGAAUCAAAGGAUUUAGUAGUGAGUUC'
p33
aF1.0
aa(lp34
S'Mat - Martian 2'
p35
aS'GAUCAAAAGAUCAAAGAUAUACAAGAUAUACAAAAAAAGUAUAUCGUAUAUCAAAGAAUAUACAAAAAAGAUAUACAGAUAUACAAAAAAAGUAUAUCGUAUAUCAAAGAUAUAGAAAUAUCAAAAAAAGAUAUUUACUAUAUCAAAAAAGUAUAUUCAAAGAAUAUGGAUAUACAAAAAAAGUAUAUUAACAUAUUCAAAGAUGAAAACAUC'
p36
aF1.0
aa(lp37
S'square'
p38
aS'GAUAUACCGGUACCGUAUACCGUAUCAAAGAUACGAAAAGUAUACGAAAAGUACCGAAAAGUAUAUC'
p39
aF1.0
aa(lp40
S'Six legd turtle 2'
p41
aS'AAAAAGCAAAGCAAAAGCAAAGGAAAACCAAACCAAAAGGAAACGGAAACGAAACGGAAACGAAACGGAAACGAAAGCAAAAAAAAAAAAAAAAAAAA'
p42
aF1.0
aa(lp43
S'Small and Easy 6'
p44
aS'GUUACAAAAGGUAAAUUAAAAAAAUGUAAA'
p45
aF0.9333333333333333
aa(lp46
S'Fractile'
p47
aS'AAAAAAAAAAAAAGAAAAUCAAGGUAAAGGGAAACCAAGCGAACGAAAACGAAAGCAAGCGAAAGCAAAGCAAGCAAAAUUAAAAAAAAAAAAAAAAAAAAAAAA'
p48
aF0.9619047619047619
aa(lp49
S'Six legd Turtle'
p50
aS'AAAAUAUUAAUUUAAAGGAUAAUCGAAAACGCAAAGUAAAGACAAAACUAAAAGGAAAAAGAAAAGUAAAAUGAAAACGAAAUAUUAAAAAAAAAAAAAAAAAAA'
p51
aF0.9238095238095239
aa(lp52
S'snoRNA SNORD64'
p53
aS'GAUAUCAAAAAGACAAAAGACAAAGAUACAAAAAAAAAAAAAGUAUCGAAAGUCAAGUCAAGAUAUC'
p54
aF1.0
aa(lp55
S'Chalk Outline'
p56
aS'AAAAAGAUCAGAUCCAAAAGGAAUCAGACAGACAAAAGUCGUCAGAUGGCAAAGGCACAUCAGCUACAAAAGUAUGCGAUCAGAAAAAAAAAAAAAAAAAAAAA'
p57
aF1.0
aa(lp58
S'InfoRNA bulge test 9'
p59
aS'GAUACUCAGAGACGUCCUUACAAAGGUAAGGGGCCGGGUAUC'
p60
aF1.0
aa(lp61
S'Tilted Russian Cross'
p62
aS'AAAAAAACAGUAAAAAAUUACCAUUAGGUCGAAAGGCCGAUAGAAAGGAAUCAGACCAAAAGGUUAAUGUUUAAAAGUAAGCGUCGAAAAAAAAAAAAAAAAAAA'
p63
aF0.9238095238095239
aa(lp64
S'This is ACTUALLY Small And Easy 6'
p65
aS'AAGAGAGAGAGAGAGAGAGAGAGAGAGAGAGAGAGAGAGAGAGAGAGAGAGAGAGAGAGAGAGAGAGAGAGAGAGAGAGAGAGAGAGAGAGAGAGAGAGAGAGAGAGAGAGAGAGAGAGAGAGAGAGAGAGAGAGAGAGAGAGAGAGAGAGAGAGAGAGAGAGAGAGAGAGAGAGAGAGAGAGAGAGAGAGAGAGAGAGAGAGAGAGAGAGAGAGAGAGAGAGAGAGAGAGAGAGAGAGAGAGAGAGAGAGAGAGAGAGAGAGAGAGAGAGAGAGAGAGAGAGAGAGAGAGAGAGAGAGAGAGAGAGAGAGAGAGAGAGAGAGAGAGAGAGAGAGAGAGAGAGAGAGAGAGAGAGAGAGAGAGAGAGAGAGAGAGAGAGAGAGAGAGAGAGAGAGAGAGG'
p66
aF1.0
aa(lp67
S'Shortie 4'
p68
aS'GCAAAAGCAGCGAAAGU'
p69
aF1.0
aa(lp70
S'Shape Test'
p71
aS'AAAAAGAGAUCAAGAUGCAAAAAAAAGCAUCAAGACACUCUGAUACAAAAAGUAUCGGUUCAAAAGAACUGAGGUCAAGAUCGCAAAAAAAAAAAAAAAAAAAA'
p72
aF1.0
aa(lp73
S'The Minitsry'
p74
aS'GCCAAAAAGACAAAAAUGCAAAAAGACAAAAAGACGAAAAAAAGUCGGUUGGCAAGUCGGGC'
p75
aF1.0
aa(lp76
S'stickshift'
p77
aS'AAGAUAUCCGAAAAACGAGAUAUCAA'
p78
aF1.0
aa(lp79
S'U'
p80
aS'AAAAAGAUACAGAGAGCAGAGAUAUAUACAAAAGUAUAUAUCCGCCCGUAUCAAAAA'
p81
aF1.0
aa(lp82
S'Still Life (Sunflower In A Vase)'
p83
aS'AAACGCUUACGAUUAAAACGAUUGGGACCACGAAGUAACAACUUGGAAAAAUUGAAGACUAUGAAACAUAGAUGGAAGGAAAAUUUUCUACUAUCAAAAAGAUAGAAUAUAUGUAUAUAUACAUAUAUGGAUGCAAAAAGGCAUCAGACACAAAAAAAAAAAAAGAUGUAAAAAAAAAAAAAAAAAAAAAAAAAAAAAAAAAAAAACCUCAUCAGAAAAAAAAAAAGUGUCGAUAUGAAAGUAUCACAUAUAUGUAUAUAUACAUAUAUAGGACGCUAAAUGCGUCAACUACUGAAAAAGUGGGACUAGCGAAAAGCUAGAGCGAGUUAAAUACUCGAUCCUUUGAAAAAAGGUACAUACAAACAUUGAGAGAGGGAA'
p84
aF0.9735449735449735
aa(lp85
S'Quasispecies 2-2 Loop Challenge'
p86
aS'AAAAAGAUCCACCAAGAUUAAAGGAUCAAGGUGAGGUCGACAAAGGAGACCAAUACGAGAAGACAAAAAGUCAACAAGUAUGAUCAAAAAAAAAAAAAAAAAAAA'
p87
aF1.0
aa(lp88
S'Corner bulge training'
p89
aS'AGAUAUCGAUACAAAGUAUCAAAAGAUAUCA'
p90
aF1.0
aa(lp91
S'Spiral'
p92
aS'AAAAAGAUCAGAUAUCAGACAGAUACAGAUCAGAUCAGCAGCAGCAGCAGCAGCAAAAAGCGCGCGCGCGCGAUCGAUCGUAUCGUCGAUAUCGAUCAAAAA'
p93
aF1.0
aa(lp94
S'InfoRNA bulge test'
p95
aS'AAAAAAAAAAAAAAAAAAAAAAAAAAAAAAGGAAAAAAAAGGGGAAAGCGCGAAGUGCGGGGACACCUCUAAAUGACGGAGUACCAAGCAACGAAGCAGCAAAAACCACUAAAAAGUCACUA'
p96
aF1.0
aa(lp97
S'Worm 1'
p98
aS'AAAAAAACGGUGGUGUGAGAGGGAAAAAUAUCCUGAAAAAUUUUG'
p99
aF0.9111111111111111
aa(lp100
S'just down to 1 bulge'
p101
aS'AAAAAGCCUGCUAUCAAAAGAUAGAGACAAAAGUCAGGAGCAAAAGAUCAGACUAAUGUCAGACAAAAGUCAGAUCAAAAAAAAAAAAAAAAAAAA'
p102
aF1.0
aa(lp103
S'Iron Cross'
p104
aS'AGUCAUCAUAGUGUGCUGUAUGAGAACCAAAAACCGACACCAAGGGAUAAAAAUAUAGGUGUAGUGGCCUAAUGGCAACCAAAGGAUAUAUCAGGUGAUCCUAUAGAGAGCAAAGUUAGAUGA'
p105
aF0.9349593495934959
aa(lp106
S'loops and stems'
p107
aS'AAAAAGGUAUACAAAGAUCAAAGAUAAAAUGCUAAAAAAAAAGCUGCGAAAAAAAAAAAGCAGCAAGGGCGGAAAUAAGGAAAAAAAAACUUGAAAUAUCAAAGACAAAAAAAAGUCAAAGGUCAAGCAAAAAAGCAAAGUAUAUCAAAAA'
p108
aF1.0
aa(lp109
S'Water Strider'
p110
aS'AAAAUAAGAGAAUACAUAGUUUAAUGACCUCAAAAGUGAUGGGAGAGAGCAAAAAGUUGUACUAAUGUGAACAUCGACUGUUUAAAAAAAAAAAAAAAAAAAA'
p111
aF0.941747572815534
aa(lp112
S'The Turtle(s) Move(s)'
p113
aS'AAAACGAAAGCAAAAGAUAUAUACGAAAAAAAAGUAUAUAUCAAAAUAUCAAAAAAGUAGGAGUGUUAAAAGGCUAACUAUGUAAAAAUCAUAGAAAAGCAAAGAUAAAAACAGAGGCAAAAAAUUGAAAAAUAUGCAAAAAAAGCAUAUAAAACGCAAAGGCGAAAAACAGUAGAAAAGACAAAAAAAGUCAACACAAAAAAAAGUGAAGGUAUCAAAAAAGAUACAAACAGCAAAAGGCUGAACUACUGAAAAAAAAAGUUAAUGCAUAGUCCAAAAGGAAAAGGGUAACAAAAAAAAAAGUUGCAGAAAACCU'
p114
aF0.9746835443037974
aa(lp115
S'Adenine'
p116
aS'GAUACAGAUACCAGUUAUCAGAUAUCAGAUAUAAGAGAUCAAAAGAUAUCAAAAAAGAUAUCAGAUUUCUGAUACAAAGAUAUACAAAGUAUAUCGUAUCUUAUAUCAGAUAGAUAAAUCAAAGAUUUAUAAACUAUCAGAUAUCAAAAGAUAGCAAAAGGUAUCAAAAGUAUC'
p117
aF1.0
aa(lp118
S'Tripod5'
p119
aS'AAGAGGCCCAGAAAAUGGGGGUUGAAAAGACCCCUCGA'
p120
aF1.0
aa(lp121
S'Shortie 6'
p122
aS'CAGAAAUGAUCGAAAGAAGCAAAAGCACCGAAAGG'
p123
aF1.0
aa(lp124
S'Runner'
p125
aS'AAAAAGUUCAGUCCGAAAGGUUCAAAGAGCAGGUAGAAUGCAACCCAUCGAAGAUAAAGGCGGACUAAAGUAGAAAUCCAGCAAAGGACAAGGUCAAAAGACGCUAAGAGUAAAAA'
p126
aF0.9310344827586207
aa(lp127
S'Recoil'
p128
aS'AAAAAGAUACAAGCAAGCAAGACAAGACAAGCAAGCAAAGCAGCAGUCAGUCAGCAGCAGUAUCAAAAAAAAAAAAAAAAAAAAA'
p129
aF1.0
aa(lp130
S'[CloudBeta] An Arm and a Leg 1.0'
p131
aS'AAAAAGACAGAGACAAAAGUACUCGACAGCAAAAGCGUCAGUCAAAAAAAAAAAAAAAAAAAA'
p132
aF1.0
aa(lp133
S'[CloudBeta] 5 Adjacent Stack Multi-Branch Loop'
p134
aS'GGAUGCAUCUAAUGAUGGAACUGAAAGGUUCGAUACGAAAGUAUCGUGCAAAGGCACCGUCCA'
p135
aF1.0
aa(lp136
S'Triple Y'
p137
aS'AAAAUAUUGGCUUGUUCGAAAGCUCGAUGAAAGUAUCCAUAGAACAAUGAAAGGUGCGGUAGAAAUAUCGGCCUAUCUAAAAAAAAAAAAAAAAAAA'
p138
aF0.9175257731958762
aa(lp139
S'Misfolded Aptamer'
p140
aS'ACAAUAAAAAGCCGGUAUAUGAUGUAAUGGGAGAAAGUUGCCAAAUUAGU'
p141
aF0.96
aa(lp142
S'Flower power'
p143
aS'AAAAUCAUCGCAGAAGCUGCGACGUAAGCUAUCAUUAAGAUUAAAGAUCGAUGUCUAUGACGGGGGAACGUAAAGUAUGAUGUAAAAAAAAAAAAAAAAAAA'
p144
aF0.8823529411764706
aa(lp145
S'Kudzu'
p146
aS'AAAACUGCGGGAUAGCGCCAGGCUCAGAAAUUGGCGCGGGACUCGGAACCUGGUUAUGGUAAAACCUAAUGCAGAAAACCAAAAAAAAAAAAAAAAAAAAA'
p147
aF0.9603960396039604
aa(lp148
S'"1,2,3and4bulges"'
p149
aS'AAAAAGUUCAACGCAAAACUCCAAACGUGGAAAAAAGCCAGAAGUAAAAAUAGAUGCGAACGCGAUCAGUCUAAUGUCGCAAAGUAAAAAAAAAAAAAAAAAAAA'
p150
aF0.9428571428571428
aa(lp151
S'medallion'
p152
aS'GAUUUGGAUAUUCAAAAGAAUAAAAUCAAAAGAUAGUAAAAAGGUAUUAAUCAAAAGAUUAGAAGCAAAAGAUUAUAUAUGAAAGUAAAUUAUUAAAAGAUAGUCAAAAGACUAUAUACAAAAGUAUAUUAUCAAAAGAUAAGAAACAAAAGUUUUUUAUCAAAAGGGUGGAAAAAGCUGUUGUACAAAAGUAUAAAAUAAAAGUAUGAUAAGUAAAAACUUAUAAUCAAAAGAGAAUUAAAAAAGGAUAAAAAAAAGUUUAUAAUCAAAAGAUCUUAUACAAAAGUAUAACAUCAAUAGAGAAUUAAAAGAAGAUUGACAAAGGUCAAUACAGAUC'
p153
aF0.7952522255192879
aa(lp154
S'[RNA] Repetitious Sequences 8/10'
p155
aS'AGCAAAAAAGCAAAAAAGCAAAAAAGCAAAAAAGUAAAAAAGCAAAAAAGAAAAAAAUCAAAAAAGCAAAAAAGCAAAAA'
p156
aF1.0
aa(lp157
S'Documenting repetitious behavior'
p158
aS'AAAAAAUACAAAAAAAAAGAGAAAAAAAACUAAAAAAAAAGGAAAAAAAAAGCAAAAAAAAAGCAAAAAAAAAGCAAAAAAAAAGGAAAAAAAAAGCAAAAAAAAAGGAAAAAAAAAGUGAAAAAAAAGAAAAAAAAAACCAAAAAAAAAGCAAAAAAAAAGAAAAAAAAAAGGAAAAAAAAGUCAAAAAAAAGCAAAAAAAAAAUAAAAAAAAAAGGAAAAAAAAACAAAAAAAAAAGAAAAAAAAAAACAAAAAAAAAGGAAAAAAAAAACAAAAAAAAAGCAAAAAAAAAGCAAAAAAAAACCAAAAAAAAAUCAAAAAAAAAGCAAAAAAAAAGCAAAAAAAAAACAAAAAAAAAGCAAAAAAAAAGGAAAAAAAAACCAAAAAAAAAGGUAAAAA'
p159
aF0.96
aa(lp160
S'7 multiloop'
p161
aS'GCGAGUCCAGAAAUGGAUCCCACAAAGGUGGGCGAUGUAACCAUCGGGUGCGAAAGCACCGGACCGAAAGGUUCCAUGCUAAUGCGUGUCGC'
p162
aF1.0
aa(lp163
S'Kyurem 7'
p164
aS'AAAAGAGUUCCGGACGAAAGUCGUUCAAAGAGUAGGCUAAAUGCCGGUCAUAGAAAAAGAACAUGACACUUAGUCGGACGCCAAAAAAAAAAAAAAAAAAAA'
p165
aF0.9803921568627451
aa(lp166
S'JF1'
p167
aS'GAUGUACUAACACUAUGAAGAUACAAAGGUUAUCGAUUAACAAGGAAUUUCUUUAUGAUUAUAGAUAUAUACAAAAGUAUAUAUCUAUAGGACACGAAAGUGACUGUAUGUCUAAUGACAUACAGAACUACAAAAAUGUAGAUAUAGAUGAUUCAGUUAAAGAUAGCAAAGAUAGAUCUAAAUGAUACUAUCGACUAUAUAUAUAUCUAUAUAUAUACAAAAGUAUAUAUAUAGAUAAUAUAUAUAGAAAGAUAUAAAAAAAUAUCCUGUAUAUAGAAAAUUAUAUACAGAAGCAUCGAAAGAUGAGGUAUCGACAUAGAGAUCAUAGAGCCGAAAGGCCUGGAUCAGAUGAACACAAAAGUGUUGCAUCAGUUACGUACCAUCAAA'
p168
aF1.0
aa(lp169
S'multilooping fun'
p170
aS'UCGUGAUAGAAAGUGGAAAACGGGAAGGAAAACAGG'
p171
aF0.8055555555555556
aa(lp172
S'Multiloop...'
p173
aS'GAUGAGAUCAGCCAAAUGGUAGCUAAAAAGCAGGGAAAACCCAGACAAAAGUCAGUCAAAAGACAGGCGAAAGUCGGAUCAGAUACAAAAAAGUAUUGCCAAACGGCCAUC'
p174
aF1.0
aa(lp175
S'hard Y'
p176
aS'AAAAUGACCCUAAAUUUAUCGAAAGAUAAGUAAGUGGUAGAGGUCAAAAGAUCUAAAUCGAUACAAAA'
p177
aF0.9705882352941176
aa(lp178
S'Mat - Elements & Sections'
p179
aS'AAAAUGUUCUGAAAAAUAAUAGGGAUCAGCAAGUCAUCAGGUGAAAGUCGGAGGGCAGACGAUCAAAAUAAUUAAUAAACUGAACUAAAAAAAAAAAAAAAAAAA'
p180
aF0.9619047619047619
aa(lp181
S'Chicken feet'
p182
aS'AAAAAGCAACGGCUAUAAUGUAAAACAAAGCGUAGGUCCGAGUAUUAAAAUAUUUGAAGGGCAAAAA'
p183
aF0.8805970149253731
aa(lp184
S'Bug 18'
p185
aS'AGAUCGAGCAGCAGUCAAGCAACAAAGUGGGUAGAAAGAUAUGGGGGAAUACG'
p186
aF0.8867924528301887
aa(lp187
S'Fractal star x5'
p188
aS'AAAAGAUCUAUAGAUGAUUAAAAAAUCUACAUCAAAAGAUGAACUCCAAAAGGAGAACAUAAAAAUAUGAACUAUAGAUAAAAACUGUAUAUAAGCUCAAAAGAGUAACAUCAAAACAUGAACGUAAAAAUGUGAAGAUAAAAAUAUCAGAUGUACAGAAAAACGAACGACAGGAGCAAAAGUUCAACAUGCAAAUAUGGCUAAGAAAACAUAAAGAGAAAAAUAUCAAGUCGUUUGAAAAUGGGUCCACAAGGUAGAAAUACCAUUAUCGAAAGGUGUAGAUAAAAAUAUUAACAUAAAACUAUGAAGUGGACUCUAAAAUUGAUGAUAUGAUCAAAAGGUCUAAGACUAAUCCGGAAGUUCAAAGGAAUGAGACAGAAAGGUGUGAUGUUCACAAAAA'
p189
aF0.96
aa(lp190
S'Crop circle 2'
p191
aS'CCACGCUGAAUCCAAAAGUGGAAAAAAAAUUGGAAAAAAAAAAAAAAAAAAAAAAAAAAAAAAGAAAAAAAAAAAAAAGAAAAAAAAAAGGUAAAAAAGGAAAACGAAAA'
p192
aF0.9454545454545454
aa(lp193
S'Branching Loop'
p194
aS'ACUGAGUAAAAAAUUUGUUGGAAGACGGAUCAGGAAAAAA'
p195
aF0.95
aa(lp196
S'Bug 38'
p197
aS'AGUAACAAGGGGCUGAAAGUUCACUCGGUGAAACCA'
p198
aF0.9444444444444444
aa(lp199
S'Simple Single Bond'
p200
aS'AAAAGAGGAAAAAAAUAAUCAAAAAGAUUUAAAAAAAACAAAAAAAAAAAAAAAAAAAAAA'
p201
aF1.0
aa(lp202
S'Taraxacum officinale'
p203
aS'ACGUAAAAGAUGAACCGCAAAAAACGGGCAGCGAAAGACUGACAGUUAACAACUGACCGCAAAGCACGGGAAUUGAAAGAAAGAGAUAUUUAAACGAUAUAGAAACAAAGUUUACUAUAUCUGAUACAAGAUAUAUAGCGACAUAUACAAAGUAUGUGAGCUAUAUAUCGAUCAGAAAAAAAAUUUUUCGAUCGUAUCUAAGUUUAAAUAUCGGAUAGAAAUAAUCACUACAAAAGAUAGACAGCAAAAGAGUGACGGGAAAGCACCGACGGGAAAAGACCG'
p204
aF0.8936170212765957
aa(lp205
S'Headless Bug on Windshield'
p206
aS'UUGAGCAAAAAGCAGCAAAGCAAAGAUAAAAAAAAAAAAAAAAAAAAAAGCUUGGCAAAGCUAGCGAAGCACAUUGUAGGGUAAGGAAAAAAGGGAAAACAAAAAAAACCGCCAAAAAAAUUAGAUACAAAAAAAGACAAGAGAGCGGAUCAGUGAAAAAAAAAAAAAAACGUAGGCAAUGCAAUUAGUCAAGAAAAUCG'
p207
aF0.97
aa(lp208
S'Pokeball'
p209
aS'AAAGAUUUACAAAAGCGAGGAAUACAAGAAUGCAAGGAAGAAAGAGACGAAACGAUCAAUCACCGGCUAUCAGUGACCAGCGUAGAUCAGAAAAAUGUUAUACAAAAGGGAGGAAGGCAAGAAAGCAAGGAAGAAAGCGAGCAAAGCAGCAAUCACCGGCAAUCAGCCACCACCGUAUAGCUAA'
p210
aF1.0
aa(lp211
S'Variation of a crop circle'
p212
aS'AAAAAGAAAACGUAAAGCGAAAAAAAUAAUCAGAAUGUAUAAAAAUUAAAAAAAUAAAAAACCGAAAAAAAAACUAAAAAAAAAAAAA'
p213
aF0.9545454545454546
aa(lp214
S'Loop next to a Multiloop'
p215
aS'AAGAGUUAUGGAAAAAAUUGAUAUCAAAGGAUAUCACAUUUAGUAAUUUAAAUGUAAAAAAAACAUAAUUCAA'
p216
aF0.9726027397260274
aa(lp217
S'Snowflake 4'
p218
aS'GGUCAAGGACUCUAUUCAUAAUCGCGAUCGAGACAGGCGAAAACGUACAGAUCAAGGAUCAACCUCAAAGAGGAGUACAUAAAAGUUUGUCGAACUACCGGAAAGGCGGUAGAACAAGGUUCAAUUUCAAGGAAAUACUGCGAAAGCGGUAGUAAGAUACCGAAAAGACUGAGGCUUAAAGGUCAACAUCAAGGAUGCUCAGCAAAAACGGUGUCAAGGUACGGAAAACUCCGUCGAUAAAAUAUCAACAGCAAAGCUGGACGGGGAAAAGUGUGCCAAGUUACGAAAAGGCGUAUCGAAUAAAAUUCAAGGUCAAAGACCGAUGCGUAAAAACGUGGCGAGAUUGCGUAAUGGGAUAGCGGAGAAGCUC'
p219
aF0.8864864864864865
aa(lp220
S'Mat - Cuboid'
p221
aS'GAUGCAAAAGGUAGCAAAAGGGAACAAAAGGAGGACCCAAAAGGAAGGAGGCAAAAAAAUGAAGGUAGCAAAAGGAAGGAAGGAUGUAAAAGGAAGCAAGGAAGCAAGCAAAAGCAAUCAAGCAAGCAAGAAAAAGCAAGAAGUCAAACAAGCAAGGAAAAAGUAGCAAGCAAGCAAGCAACCAAAAGCAAGGUAGCAAUCAAGGAAAUAAAAAAAUAACCAAGGAAGUAUCCAAGCGGAAGGAAGCAAGCAACCAACUUCAAGCAGGUAAGGAAGUAAGCGCAAGCAACCAAGCAAGAGCAAGCAACCAACCAACGGCUACCGAACAACCUCAUCCAACAAAUGCAACCAACCGGAACCAACGCAACCGCACCCUCUAU'
p222
aF0.9263157894736842
aa(lp223
S'Misfolded Aptamer 6'
p224
aS'AAAAAAGAGAAAAAAGGACUAGUAAGCAUAAAAAAAGAUGAGAUCGAAAUGUCCAAAAAAGUUCAAAAAAAAAAA'
p225
aF1.0
aa(lp226
S'Snowflake 3'
p227
aS'GGCGUAAAAGUAGACUACAAAAUUAAAGAUCUGAUCAAGACUAAUGUCCAUAGGAAAACCUACAAAGUAUCAAAGGAAGUGCACAAAAGUGAAGAUCAGAACAAGACGAAAGUCCAUAGCAAAAGUUUUGAAGUACCAAAUUGAAUGCAGAAAACUGAAGUUCGCAUUAAGGCAAAAGCCGAACACGAAAGUCACAAAGUAUCGAAAGAAUUCGAUGAAAAUCCAAAUGAUAUAAAGACAAAAGUCCAUAGCAAAAGCUACAACGUAUCAAAAGAAAUGCACAAAAGUGAAUAUAAGAUGAAGACUAACGUUCACACCAAAAGGUAGAAAUUAUCAAAAGAAAUGCGCAAAAGCGAACAUCUGAUUAAGACGAAAGUUGUCACCAAAAGCGUC'
p228
aF0.7735368956743003
aa(lp229
S'Hard Y and a bit more'
p230
aS'AAAAGGUUUUCUAGGGAUAGAAGUGCAGGGGAUUAAACCAGACCGAAAGGUCGAGAUAGUUAAAUCUAUCUGGUGUCGUCAGAUCAAAAAAAAAAAAAAAAAAAAA'
p231
aF0.9716981132075472
aa(lp232
S'Mat - Lot 2-2 B'
p233
aS'GAAUGCAAGCUCAAGCAAAAGUAGUGUAAAAAUAAAAACGAAUCACAGGAAAAAGGAAGCAGAUACAAGCAAAGGCACGCAAAAACAAUAGCGAGGAAAGGCAAAAGCGCAAGAAAAAUGAACCGCAAUCGAAAUCAGGCAAAAGCACAAGCUGUAGCAAAAGGAAGAAUGAAAGAAAAGUCAGCCGCAUUAAAAAGAAAAGGCAAGCAAUCAAGCGUGAGCAAAAGAAAGCAGAUGCAAAAACAAAAGGGCUAAAAAAAGCAAUCGCAAACGGAAUUAAAAAU'
p234
aF0.7640845070422535
aa(lp235
S'Shapes and Energy'
p236
aS'AAAAAAGUGUUCACUACAAAAGAAAGUCCAAGAAAUGGGGCGAGCGUAGAAGGCAAAAAAUAUGAAAAUAUCCAGAACUCAAAAAAAAAAAAAAAAAAAAA'
p237
aF1.0
aa(lp238
S"Spiral of 5's"
p239
aS'UGAAAGGUACAAAGAUAAAAAGGUAAAAAAGAUACAAAGAUAAAAAGAUUAGUGAUACAAAGGUUACAAAGAUAAAAAGAUAAAAGAUACAAAGAUAAAAAGAAAAAAGAUACAAGGAUAAAAGAUACAAGAUACAAGAUACAAGAUACAUAUGCAGAUGAAUAACAAAAAGUUAUGGCGCUCAUUAAAACGUAUAAAAAAGUAUCAAAAAGUAUCAAAAAGUAUCAAAAAGUAUCAAAAAUUAUCAAAAAGUAUCAAAAAUUUUCAAAAAUUAUCGAAAAGUAUCGAAAAUUAUCAAAAAUUAUCAAAAGGUAACAAAAGGUAUCUAAAAUGAUCAAAAGUUAUCAAAAAGUAUCAAAAGUUAUCAAAAAUUAUCGAAAGGUGCCAAAAAGAAAAA'
p240
aF0.9949622166246851
aa(lp241
S'Campfire'
p242
aS'AAAAGAUCGAGAUCGAAGAAGAAUGUAGAAAAUACGGAGCUUGAAGAUACUCGAUUACGAGCAGCACUAUACCUAAAGGGAGUGAGUCGCAACGGCACGAGCGAAAGCCGGCGAUUAGUUAAUGGGACAAAUCAAGUAUUCGCUAGGAGGAUUCCCAGUCAGGCAGAUCUAAUGAUCGUCGACUCUAAAUCAAGGAUAUUAAGCGGUGGAUC'
p243
aF0.8726415094339622
aa(lp244
S'Anemone'
p245
aS'AAAGUCACGAAUGCGUGAUGAUAGGAAAUUGUCAUCGUCAAAGCCUGGCGAGCUGAAAGGCUUGUGAAAUACUCAUAAUACUACUACUUUAGUGGUUCGACAGGAUCAAUAAGGAUAUCCGCCAAAUAUUAAGGAUUUGGAGCCAAAGGGCUCCGGUUUAAAGGAACCGUUCCAUAAUUGGGGCAGGAUGCAAAUCAUGUUAUCUAAUGAUGGC'
p246
aF0.8364485981308412
aa(lp247
S'Fractal 3'
p248
aS'AAAAAGAGAAGAGAGGAAAAUCUGAAAACAGCUGAGAAAGCAAAACCGUAAAAACUAUAAUAGGUUAAAAGGGUAAAAGCAAUAGUACCGCGCAAGCGGGAAAUCAGAGGUCUCAAAAA'
p249
aF0.9159663865546218
aa(lp250
S'Kyurem 5'
p251
aS'AAAAAAAUUCUGGAGAAAGUUUAACAAAAGGUGGCUCAAAGACUAAAUGUCGAGCUUGUAAAAUCACACGUUGUUCGGACAAUUGAAAAAAAAAAAAAAAAAAA'
p252
aF0.9615384615384616
aa(lp253
S'Snowflake Necklace ( or v2.0 )'
p254
aS'GAUAUAUUAGAAUGCAUAACCAGCAAAAAGCAGGAAAAACCAACAAAAAGGAUCAAAAAGAGACAAAAAACAGGUUGAUUUGAAAAGGGAUGUACACCGAAAAAUACCAAAAAGGGGCUAAAUGCAGGGAAAAUUAGCAAAAAGCAGUAUGAGGCAAAAACUCGGAUACAGCAAAAAGCGGCAAAAAGCAGUAAAAGACGGCAAAAAGCAGGAAAAACCGGUAUCAGAAAAAAAUUCGGAUUCAGCAAAAGGCAAUUAAAUGUGGCAAAAGGUGGCAAAAAGGUGCAAAAAACUGAAUCAGACAAAAAGUUAAGUGCAUCGAAAAAAGGCAAAAAGCAGAAAAAACCAGCAAAAAGCAGUAAAAAGCGGAAGUAGCAUUCUAGUAUAUC'
p255
aF0.8817480719794345
aa(lp256
S'Methaqualone C16H14N2O Structural Representation'
p257
aS'AAAAAAUGUUCGCAUCGGGCAUACGAAAGUAAGAGACACAAAACUGAGGGAGAUAAAAGCCAUACAAGGAAAAUCUAGACGAAAAAAGUUAGUGACCCACUCGGCCAGAAUCAGAUGAGGACAAAGAAUUCCAAGCAAAGCAAAAAAACGAGAGAGCCGCGAAAGCUUUGGAAAUAACUUCUAUAAGAUGAUCAAAGACUUGAAACUGACGGGUAUAGUGUGGGACAAAAAACGAAAGUUGGUCACGAAAAGUCGGUACUGGUAAAAGCCGCUAAGCCAAAGGUCAACCAGACCACAAAAAUGAUCAAAGGAUACACAAAAGGGGUCAGUCACUUCAAAGUUUGGAGCUAAAAAA'
p258
aF0.9211267605633803
aa(lp259
S"Cat's Toy 2"
p260
aS'AAAUUGCCUAGUAAAAGGAUGGAAAAAAAAAAAAAAAAAAUUAUCAAAGAGCAAUCAAAUCAAAAGAAAAAAAACAUGAAAAACUGUUAGGUGUAAA'
p261
aF0.979381443298969
aa(lp262
S'Zigzag Semicircle'
p263
aS'AACAUUGUACUAGUGAAAAUAGAGAUGUGGGAAA'
p264
aF0.9411764705882353
aa(lp265
S'Short String 4'
p266
aS'AAAAAUACAGAAAGCGACGAAGACCAGAAAAAGACAAAAAAAGUGCAAGAAAAAUCGAGCGUCAAAGAGCAAUCAUUAAAAAAAAAAAAAAAAAAAA'
p267
aF0.9381443298969072
aa(lp268
S'Gladius'
p269
aS'GGAAACAAGGAAUUAAAGAAGAGGAGGAAGUCGGUCAAGGAUCGAAAGAUCAGGUACAAGAGAGGAGAGAUAACAAGAUCAAAUGAUCAGGAAUAGAGGAGAAUACGAUCAGAUCAAACUCAAAGAGUAGAUACGAUCUAAUUCCACUUUGAGCCUGAUCAUUAGAUCAGAAUAUCAGAGCUCAGCAGUAUCGGACGAGGCCGGAUGCACAGGACAAAAGGUCAGGAGGUAAUAAGAUAUAGUGAUUACAGAAACCGUAGGCAGAGAUAAAUCGAAAGAUUUAAGCUCGUAAAGAUGUUUACGUAAUUUUUAUAUCAAAAUACCACAAGAUCGUAAGUCAGCAGUAUCAGAAUAAAAGUUCAAAGGCAGGCGAACAACGCAACAAAAUGAGUAAUAAAAA'
p270
aF0.905
aa(lp271
S'Thunderbolt'
p272
aS'CUGAGUUACAAAAAAAUAAGGAACAGGAGUGGGAAGACAGAUAAAGCGAAGAAAACGCAAAAAGCAUCUAAAUGAUGAAAAAAGCAAAGCAACGAAAAAAACGACAAAAAAGGAGAAGCAAGCAAAAUGGAAACUGAGCAAAAAGACUAAAAGAAGCGCAAAGAGCAACAAAAUGUCAUACCAAAAAUAAAAACAUGAGUAAAACACAAGAAAAAAAUAGCGGUAAAAAAAAAGCUCGGGGGUAUAUCAAAGAUAUAAGCAAGCAGAAAAAAAAAUGAGGCAAAAAAAAGUAACCAAAAGCUCUACAAAAAAAAAAAAAAUAAAAAGUAGAGAAGAAGAAAGCUUUAUCAAAAAAAACGUGAACCAUUAAAACAAAAAAAGAGUAACAAAGA'
p273
aF0.9540816326530612
aa(lp274
S'Mutated chicken feet'
p275
aS'GAAAAAUGCAAUAGCAAAGCUGAAAAUCAAAGUACUGCAGCUACUAUCUAGAAAGGCAAAGAGCACUUGCGGAGAAUCAUCGAAGGAAACUAGAAAAAAA'
p276
aF0.84
aa(lp277
S'Chicken Tracks'
p278
aS'AAAAAAAUGAGUCAGCUCCGAAAGGAGAAGAUCGAAAGAUCGAGAUCAAAAGAUCCUGAUUCUAGACUAUGGAUAGAGAAGCGCAAAGCGCUAUAGGAACACUAGGCAAAAAAAAA'
p279
aF0.9655172413793104
aa(lp280
S'Looking Back Again'
p281
aS'GACAAUACGCUCAAAAGAUUGGCAAAGUUAGUAGAGCAGGAUCCCAAGACGAAGUCUGAUGAUACAAAGUUUGAAAAAACAAAAGUGUCUAGUCCAAUGGUGAUUGACUAAAAGGUACAAAAGUACCAAAAAUGACGAUACUAUAGUAUUUACCGAUCCAAAGGAUCGCUAGUGGAAGUACAAUAAGAAUGAGAUAAAAAUAUUAAAACAAGGAUCACCGACAAAAGUCAAAUUAGCAAUGUAUCAAUCUCCCACACAUCGAAAAAGAUGAACAAAAAAAACAUCGAAAAGAUGGUAUAAAGUGAGGUGCGACAAAAAAUCCUGUACAAAAGUACAGAAGACGCGAAGGGUAUCCAAAGGAUAAAGUGGGAAAAGUCAGACUCGAGGUC'
p282
aF0.8431876606683805
aa(lp283
S'Multilooping 6'
p284
aS'AAUAUGCACUUACAGUAAUUGCUAUUGGCAAAGGCUAACGAGUCAUUGGUAAUUCAAUCAAAAAAAGUUGUCCUUGUGCAGA'
p285
aF0.8658536585365854
aa(lp286
S'Cesspool'
p287
aS'GAAGAAGAAAACAACAGAACAGAGAUGAAUGCAGCAAGAACAGAAGAAGAAAACAACAGAACAAAAGAACAGAGUGAAAAUAACAACAAAAAGAAUGAAAGAACGGAACAGAUAAAAAUUGAAUAAGAAUCGAAGAAGAAAACGAGACUAGGAAACAAGUGAGUGAAAACACCAAUAAGAAAGUAGGAAACAAGAGGAGAGGGAAAAAGAUAGCAACAAAUUAAGAAGAAAACAACACAACAAAAGAACCGAGGGAAAAUAUCAAGCAAGUAAGAAGAAAACAACAAAACAGAGGCAAAGUCAACAAGAAUUGAAGGAGAAAACAAGAGAAGAAAACAACAGAAUGAAAACACUAAAC'
p288
aF0.7374301675977654
aa(lp289
S'Hoglafractal'
p290
aS'UAUGAUAACUAACAAAAGAUAUAAAAAGGUAUCGUUAGGAGAAAAGAUGAAAAGGGUACCUCCUCCAAACAAAGGUUGAGUGAACAAGGACAAAUACCAAAAAGGGUAGUCCCACAAGACGAAAAGUCGUGUGAGCAAAAGCCAAGUGCAAAAGAUGAGGAAAAAAAUCCGUCCGAGCGAAAAGCUCCCCAAAAGGGUGUGAUAAAAAGCAGCGAAAAAGCGCCAUUAAAUAAGACUAAUGUAGAUAGUGAAAAAAUCAAAAGAAGAUCACAAAGAGAACCGUAUCAAAGAUGCGGGAAAAAAACUAUCAAAAAGAUGGCUAAAAGCACAAAGGUCAAGACAAGGACAUACCACAGUAAACGAAAAUGCGAAAGUCAUAAACGAAGUUUAUACUGGGCGU'
p291
aF0.8475
aa(lp292
S'Bullseye'
p293
aS'AAAUUCGAACAAACAUCAAGUGCGAAGUGCGAGAGUAAGGCUCGGGAAAAAAAAUGGGUUGGAAAAACACGAUUAAGCACCUAGAGCAAGAUUGCCGAAAAAAAAAGGGAUCAAGGACCAGGAUGUAUCAUCAAGAACAAAGUGCCUUUAAAAAAAUAGAGUCAAAGUUCAAUUUUAAGGAACGAGUUGAAACAACAUGGAA'
p294
aF0.7722772277227723
aa(lp295
S'Shooting Star'
p296
aS'AUUUACGUUCGAUUUUCAAAAAGAAGCAGACAGCCAGCAAAAGACUGACGUUGGACGACUAAGAAAAUCAGAUGAAGGAGAGUCAGGCAGAUGCAGACAUAUCAGCAAAGGAGGAUAAGUCGACAUACGUCAGACAAUCAAUAAAAAUACAAACGAUUCACGCAAAGUGUGACUAUCAAGGAUAGCAGAAAAUCGACAUCAACACAGAUGAUACAAAAGAUUUUCAAAGAAGAUCACACGCUAUAUGUGUAAGGAUGUACAAAGUAUAUCACUGUCAUAGACAGCAUCAUAGAACAAAAGGGAGAAGAACAGGGUCAGUUCAGCAAAAGACGAACUGGCACGAGAAUGAAACCUACAGUAAAUA'
p297
aF0.8241758241758241
aa(lp298
S'Teslagon'
p299
aS'AAAAAUGCAAAAAAAGGAGAAAAAAAAGCAACAAAAAAAAAAAAAAAGUAAAGAUUGUCGAAAAAAAAAAAAAAACGGGCAAAAAAGGCAGAUAAAAAACCGAAAAAAAAAAAAAAGGAAAAAAUUCAGAAAAAAAAUGAGUUAAAAAAAAAAAAAUUCAAAGAGGUUCCGAAAAAAAAAAAAAAGGACCAAAAAAAUCAGAAAAAAAAUCAAAAAAAAAAAAAAAGGAAAAAAAUAAACAAAAAAAGCAGUAAAAAAAAAAAAAAAGCAAACAGGGUUGAAAAAAAAAAAAAAACGAGCAAAAAAAGUAGGAAAAAAACUAAAAAAAAAAAAGCAAAAAAAAAAAAAAAGCAAGGAAAAAACCACAAAAAAAAGCUGAAAA'
p300
aF0.8848167539267016
aa.