(lp0
(lp1
S'Simple Hairpin'
p2
aS'GAUACAAAAAAGUAUC'
p3
aF1.0
aa(lp4
S'Arabidopsis Thaliana 6 RNA - Difficulty Level 0'
p5
aS'GUGAUUCAGAUGACAAAAAAAAAAAGUCGUGUGUGCUACUAUAUUUUUGUUACUUUCGAACAUACAAAAAGGUAUGAGAAAGUAAACAAAAAUAUAGCUGCACACACAAGAAUCAC'
p6
aF1.0
aa(lp7
S'Prion Pseudoknot - Difficulty Level 0'
p8
aS'GAGAUCAGAUCAAAAGAUCGAUACUCAAAAAAAAAA'
p9
aF1.0
aa(lp10
S'Human Integrated Adenovirus - Difficulty Level 0'
p11
aS'GAUGUCGGUGGGACAGUAUGGGAAAAAAAAAACAUCCGUGACCAGGGGCCCAACUGAAAAACGCAUGGUUUUAAGAAAAAAAUUAGGGCCAUAAAAGCGUCAGUACAAUGGUGGAAUAUCACGAAAGGAUGCAAAAAAGGCAUCUGAUGGAAAAAAAAAAACCAUACGGUCUAAAAUACCGGAACCAUCAAA'
p12
aF1.0
aa(lp13
S'The Gammaretrovirus Signal - Difficulty Level 0'
p14
aS'AUCUCGACAAGGUAAAAACCUUGGAGUGUAAAAGGAUCCAGACAGAUUCGUUGAAAGCAACGUAAAGAUCGUCGAUCAAUUGUCUGUAAAAACAGACAGGA'
p15
aF1.0
aa(lp16
S'Saccharomyces Cerevisiae - Difficulty Level 0'
p17
aS'CUUAUUCCAUCUAAAAAAUGAUGACCAAAAAAAAAAAAAAAGGGGAUUGUACAAAAAAGGUACAGAAUAAGAAAAGUGGUGGAAGUCUUAAAAAAUGGACGUGAAAAAAAAAAAAGUGCAGCUCAUACAAAAAAGGUAUGCCACCACGAAGCUGGUUGAAUCGCGAAAAAUAGUGAGUAUACUAAAAAUGUAUGCAGAUCAUAAAAAAAAGUUAUGCGACCGGAAAAUAGAUUAAAGAACGAAAAAAAGUUCCGAUACAAAAAAAGUAUCGAGAUCAUACUAAAAAUGUAUGUAAUCUAAAAAGUGAUUGAAGGUAUAAAAAAUUACCCGAUGCAAAAAAGGCAUCGAGACCAUUCAAAAAAGGGAUGCAAUCACAAAA'
p18
aF0.9894459102902374
aa(lp19
S'Fractal 2'
p20
aS'AAAAAGUGUGGUUUAUGGAUGUGUUCUCUGGGAAAGAAAAAACUCACGGACUUAAAAAAAAUAGUCAUCGUUGCAAAAAAAAAACGUUGAACACAUCCUAAGUGCGUGAUCUACAGGAAAAAAAAAACUUGGAGAAGAAAAAAAAAACUUCGAGAUGGAAAAAAAAACAUCGUGAUCACGCACAAAGCGUGUGAACAAGUUGAAAAAAAAAGCAACAGGAUCAAAAAAAAAAGAUCAAGAUGUAAAAAAAAUCAUCAAGUUCAUACGUAAUGGCCACACAAAAA'
p21
aF1.0
aa(lp22
S'G-C Placement'
p23
aS'GAUCAAAGAUCG'
p24
aF1.0
aa(lp25
S'The Sun'
p26
aS'GGGAGUGAUGCAAGGCAUAAUACGCCAAACGCCGGGAUUCUAUGAGUAACUCGCGAAACACACUUUUUUAAAGAGGCAAACGUCAAGAACAGUGAUCCUAUCAAUAUCGCGUAAAUCAGAGUGAGCAAAAUGCUAACACCUGUAGAGCAUUUUUAGAAAAUAAAGAGCGUUAAAAACAGUGCUUCAAGGAAGAACACGAUGAGCACACUACGGCAAAGUUGAACAGGUGAAAUACAUUGAUGCAAGGCAUAACAAGUA'
p27
aF0.872093023255814
aa(lp28
S'Frog Foot'
p29
aS'AAAAAAAAAAGAUCUAAUGAUCCAUCAAAAGAUGCCUAAAAUAGG'
p30
aF1.0
aa(lp31
S'InfoRNA test 16'
p32
aS'GUAUGCGGAGAUUGCAAAAGCAAUACUACGGCAUAC'
p33
aF1.0
aa(lp34
S'Mat - Martian 2'
p35
aS'GAUCAAAAGAUCAAAGUGAUUCAAGUGAUUCAAAAAAAGAAUCACGAAUCACAAAGUGUGUGGAAAAAAGUGAUUCAGUGAUUCAAAAAAAGAAUCACGAAUCACAAAGUAUUUGAUUAUUCAAAAAAAGAAUGAUACAAAUACAAAAAACCACACACAAAGUAUUUGAUUAUUCAAAAAAAGAAUGAUAACAAAUACAAAAUACAAAAGUAU'
p36
aF1.0
aa(lp37
S'square'
p38
aS'AUGUGUCUGUGUCGGUGUCCGGAUUCUAUGAAUCCAAAAGGACACCAAAGGACACAAAAUGACACAU'
p39
aF1.0
aa(lp40
S'Six legd turtle 2'
p41
aS'AAAAAACAAAGAAAAGUCGAACGAAAAUGAAUACUAAUGUUAAGGAAAGUUGCAUGAAAAGAGAGGCGAAAGAAAAGUAAAAAAAAAAAAAAAAAAAA'
p42
aF0.9591836734693877
aa(lp43
S'Small and Easy 6'
p44
aS'GCCCCGAAAAGGAAGCUAAAAAAAUGCGGC'
p45
aF1.0
aa(lp46
S'Fractile'
p47
aS'AAAAAAAAAAAAGUUAAUGCAACGAAAAGAAAAGGUAUGCGAAGUGAAAACAACGUUAGUAAAAACCAAUAAUGAAAAAUCUAAAAAAAAAAAAAAAAAAAAAAA'
p48
aF0.9619047619047619
aa(lp49
S'Six legd Turtle'
p50
aS'AAAAGGGGAAAUUAAAGGGGAAAGGAAAGGCAAAAUUGAAAGGAAAAUGAAAACAAAAACGGAAACGGAAACAGAAACAGAAAACAAAAAAAAAAAAAAAAAAAA'
p51
aF0.9619047619047619
aa(lp52
S'snoRNA SNORD64'
p53
aS'GUAUGCAAAAAGACAAAAGACAAAGAUACAAAAAAAAAAAAAGUAUCAAAAGUCAAGUCAAGCAUAC'
p54
aF1.0
aa(lp55
S'Chalk Outline'
p56
aS'AAAAAGAUGAGAUACAAAAGUAAUCAGACAGACAAAAGUCGUCAGUAGGCAAAAGUACUACAGGAUCAAAAGAUACCCAUCAAAAAAAAAAAAAAAAAAAAAAA'
p57
aF1.0
aa(lp58
S'InfoRNA bulge test 9'
p59
aS'GUGAUUCAGAGAGAGUGAUUCAAAAGAAUCACCCCGAAUCAC'
p60
aF1.0
aa(lp61
S'Tilted Russian Cross'
p62
aS'AAAAGGCGGACCAUAGUUCGGUAUUAGCGCAAUUGUGCACGCGAAAGUUCCCACACCAAAGCGGGGAUAGGUAUAAUUGUUCUGUAAUAAAAAAAAAAAAAAAAA'
p63
aF0.9809523809523809
aa(lp64
S'This is ACTUALLY Small And Easy 6'
p65
aS'AAAAAAAAAAAAAAAAAAAAAAAAAAAAAAAAAAAAAAAAAAAAAAAAAAAAAAAAAAAAAAAAAAAAAAAAAAAAAAAAAAAAAAAAAAAAAAAAAAAAAAAAAAAAAAAAAAAAAAAAAAAAAAAAAAAAAAAAAAAAAAAAAAAAAAAAAAAAAAAAAAAAAAAAAAAAAAAAAAAAAAAAAAAAAAAAAAAAAAAAAAAAAAAAAAAAAAAAAAAAAAAAAAAAAAAAAAAAAAAAAAAAAAAAAAAAAAAAAAAAAAAAAAAAAAAAAAAAAAAAAAAAAAAAAAAAAAAAAAAAAAAAAAAAAAAAAAAAAAAAAAAAAAAAAAAAAAAAAAAAAAAAAAAAAAAAAAAAAAAAAAAAAAAAAAAAAAAAAAAAAAAAAAAAAAAAAAAAAAAA'
p66
aF1.0
aa(lp67
S'Shortie 4'
p68
aS'ACGAAAGUAGCGAAAGC'
p69
aF1.0
aa(lp70
S'Shape Test'
p71
aS'AAAAGGGGAUGAAGAUACAAAAAAAAGUAUCAAGACAUUCACAUGCAAAAAGCAUGAGAUCAAAAGAUUAGAGGUCAACAUCGCAAAAAAAAAAAAAAAAAAAA'
p72
aF1.0
aa(lp73
S'The Minitsry'
p74
aS'CACAAAAAGAGAAAAAGACAAAAAGACAAAAAGGCGAAAAAAAGCCAGUCGGUCACUCGGUG'
p75
aF1.0
aa(lp76
S'stickshift'
p77
aS'AAGGUAUCUCAAAAAGAUGAUACCAA'
p78
aF1.0
aa(lp79
S'U'
p80
aS'AAAAAGAUACAGAGAGCAGAGUGUGUGUCAAAAGACACACACCGCCCGUAUCAAAAA'
p81
aF1.0
aa(lp82
S'Still Life (Sunflower In A Vase)'
p83
aS'AAAGAUGGAUGAUCGUAAAGGACAAAAAGGCAAACUUUGAACUUACAAAAAGUAAGAAUACGCAAAGCGUCGAAGUUAUCAACCGAUUAACGCACAAAAAGUGCGAGUAGUUUUUUCUUUUGUUAUUUUGAAACAAAAAAGUUUCAGCUACAAAAAAAAAAAAUGUUGUAAAAAAAAAAAAAAAAAAAAAAAAAAAAAAAAAAAAACCUCAACUAAAAAAAAAAAAGUGGCGAAUCAAAGGAUUCAAAAAUAAUAAAAGAAAAAACUACGAGUUACAAAAAGUAGCGACCGCUAAAAGGGCGGAACAUACAAAAAGUAUGAGCAUACAAAAAGUAUGAACUUUCAAAAGAAGGGACUUGCGAAAAGCAGGACAUCGAA'
p84
aF0.9735449735449735
aa(lp85
S'Quasispecies 2-2 Loop Challenge'
p86
aS'AAAAAGAUCCAUGAACAUGAAAACAUGGCCAUGUCAACAAAUAUUGCGUUAUGAUCAACAAUAAGAAAAGUGGGGCCGAUCGAUCAAAAAAAAAAAAAAAAAAAA'
p87
aF0.9809523809523809
aa(lp88
S'Corner bulge training'
p89
aS'AGUAUGCGAUACAAAGUAUCAAAAGCAUACA'
p90
aF1.0
aa(lp91
S'Spiral'
p92
aS'AAAAAGAUCAGUAUGCAGACAGAUACAGAUCAGAUCAGCAGCAGCAGCAGCAGCAAAAAGCGCGCGCGCGCGAUCGAUCGUAUCGUCGCAUACGAUCAAAAA'
p93
aF1.0
aa(lp94
S'InfoRNA bulge test'
p95
aS'AAAAAAAAAAAAAAAAAAAAAAAAAAAAACAGCAAAAAAGGAGAAAAGGCCAAGGCAUACCGACUGGACAAAAAGUACCUGUACGACAUAGCAAAGGACCAAAAGCUACCAAAAAAGCAUGG'
p96
aF1.0
aa(lp97
S'Worm 1'
p98
aS'AAAAAAAGGUUGUUAGUGGUUCUAAAAAACGAUUUUCGAUUUGAU'
p99
aF0.9555555555555556
aa(lp100
S'just down to 1 bulge'
p101
aS'AAAAAGGACAGAUACAAAAGUAUCAGACAAAAGUCAGUACCAAAAGAUGAGACAAAAGUCAGACAAAAGUCACAUCAAAAAAAAAAAAAAAAAAAA'
p102
aF1.0
aa(lp103
S'Iron Cross'
p104
aS'AGACGGAGAAAGGAAGCGAAACGCGGGUAAAGACCAUCUAAAGGCAGGGAAAACCCAGACGAAGUCAGCCAAAGACAUACAAAAGUAAGACAAAGUCAGUCAAACUCAUACAAAGUAAGUCGA'
p105
aF1.0
aa(lp106
S'loops and stems'
p107
aS'AAAAAGUGAUUCGAAGAUCAAAGAUGAAUGCGGAAAAAAAAAGAUACAAAAAAAAAAAAGUAUCAAACCGUCAAAGUUGAAAAAAAAAACAACGAACAUCAAAGAUAAAAAAAAAUCAAAGAUCAACCAAAAAAGGGAAGAAUCACAAAAA'
p108
aF1.0
aa(lp109
S'Water Strider'
p110
aS'AAAAGACAGUGGUUAUAAGUUAAAGAAGAGGAAAUUUUUGAGGGGGACGCCCGAAGGAGAGUAAAGAUGAGUUGAAAGCGGUAAAAAAAAAAAAAAAAAAAAA'
p111
aF0.9223300970873787
aa(lp112
S'The Turtle(s) Move(s)'
p113
aS'AAACAAAAACCAGAAGUUCGGUGCGAAAAAAAAGCAUUGAACGGAAGAUCUAAAUGAUCGGACAUGGAAAAUAAAGACAGCCAAAAAAACGAUGGAAAGAUAACGAAAAAGUAAAGGCACGAAAGUGAAAUCCAUCUAAAAAAAGCGUGGUAAAUCCAAACGGAAAAAAAGGCGCAAAAGACAAAAAAAGUCAACGCAAAAAAAGGCGGAGCAUACAAAAAAGUAUGAAACAUCAAAAGGAUGAGGCGCCUAAAAAAAAGCUUAAUGGACAAUCUAAAAGCAAAAUGGAGACAAAAAAAAAAGUUUCAUAAAAAUU'
p114
aF0.9873417721518988
aa(lp115
S'Adenine'
p116
aS'GAUACAGUAUGCAGUAUGCAGUAUGCACGAUGCACGAUGCAAAAGUAUGCAAAAAAGCAUACAGCAUCGAGAUACAAAGUGAUUCAAAGAAUCACGUAUCAGCAUCGAGUAUGAUUUUACAAAGUAAGAUAAACAUACAGCAUACAAAAGCAUACAAAAGCAUACAAAAGUAUC'
p117
aF1.0
aa(lp118
S'Tripod5'
p119
aS'AUGGUGUACAUAAAUUGUAGUUCGAAAAGGACCACCUA'
p120
aF1.0
aa(lp121
S'Shortie 6'
p122
aS'GCAAAAGCAGGAAAGCCGUCGAAAGGAACGAAAGU'
p123
aF1.0
aa(lp124
S'Runner'
p125
aS'AAAAACAUGAGCUCAAAAACAGCAAAGCUGGGAGCAAAGCCAAUGCAGGAAACCUAAAGCAGAGACGAAACGUAAACUCGGGCGAUGUCAAGGGCGAAAGCUAGACUCAUGAAAAA'
p126
aF1.0
aa(lp127
S'Recoil'
p128
aS'AAAAAGAUACGACCAACCAACACAACUCAACCGGGCAAAGCAGGAGAGAGUGAGGAGGAGUAUCAAAAAAAAAAAAAAAAAAAAA'
p129
aF1.0
aa(lp130
S'[CloudBeta] An Arm and a Leg 1.0'
p131
aS'AAAAAGACAGAGACAAAAGUACUCCACAGCAAAAGCGUGAGUCAAAAAAAAAAAAAAAAAAAA'
p132
aF1.0
aa(lp133
S'[CloudBeta] 5 Adjacent Stack Multi-Branch Loop'
p134
aS'GUUGGGCCCAAAAGGGCGCUACAAAGGUGGCGAUACAAAGGUAUCCAGCGAAAGCUGCCAACA'
p135
aF1.0
aa(lp136
S'Triple Y'
p137
aS'AAAAUGAUUGAUAAUUGUACUUAGUGAGCGAAAGUUCGGUGGAGGCAUGGAAAUAUGAAGCGAAAGCUGGCUCAAUCUAAAAAAAAAAAAAAAAAAA'
p138
aF0.9175257731958762
aa(lp139
S'Misfolded Aptamer'
p140
aS'GGCGGAAAAUGUAUUAAAGAGAGGAAAGCCGGGGGGGGCAUUAAAACGCC'
p141
aF0.92
aa(lp142
S'Flower power'
p143
aS'AAAAUCACGGUUAUAUUAACACACCGCGCAAGGCGCAGGUAGCAGCUCCAAAGAAUAGUUCUGGUCGGGACAAAGUCCUGGAUAUAAAAAAAAAAAAAAAAA'
p144
aF0.9019607843137255
aa(lp145
S'Kudzu'
p146
aS'AAAAAUACAAAGGAGACAGAGGAGUGCAAGGCCUACAUUGUACUCAAAGAAGUGUAAGACAAUGUUAAAGUUGCAAAGCUCGAAAAAAAAAAAAAAAAAAA'
p147
aF0.9801980198019802
aa(lp148
S'"1,2,3and4bulges"'
p149
aS'AAAAAGACCGGACGCAAAAGCCAAAGUUGCCCGAAAGGGAGUAUCAAAUAUGGACAAAAAAUAAAAGGCGCGAAAGCGAUUAAAAUAAAAAAAAAAAAAAAAAAA'
p150
aF0.9619047619047619
aa(lp151
S'medallion'
p152
aS'AUAUUGAUGAUUCUAAUGAAUCAAGACAAAGGUCAUACCAAAAUAUUGAUUCAAAAGAAUCAUUUGAAAACAUACGAUGCAAAAGCAUCGAUACUAAUGUAAUGCAAAAGCAAUGAUUCAAAAGCAUCGAUACGAAAGUUAGGAUUCAAAAACGUCUGUACAAAAGGAAUACGAAAACAAAGAUUCAAAAGAAUCUGUAAGAAAGUGUAGUUUCUAAUGAAGCUUUUAUAAUUAAAUACGAAAGUAAUGAUUCAAAAGAGUCAAUAGUAACGAAAUGAUUGAAAGGAAUCUAGUUAAAAAACGCACAAAAGCAAUGCGUCAAAAGAUGCGGCGAUAU'
p153
aF0.8427299703264095
aa(lp154
S'[RNA] Repetitious Sequences 8/10'
p155
aS'AGGAAAAAAGCAAAAAAGCAAAAAAGCAAAAAAGCAAAAAAGCAAAAAAGCAAAAAAGCAAAAAAGCAAAAAACCAAAAA'
p156
aF1.0
aa(lp157
S'Documenting repetitious behavior'
p158
aS'AAAAAAAGGAAAAAAAAAGGAAAAAAAAAGGAAAAAAAAAGGAAAAAAAAAGGAAAAAAAAAGGAAAAAAAAAGGAAAAAAAAAGGAAAAAAAAAGGAAAAAAAAAGGAAAAAAAAAGGAAAAAAAAAGGAAAAAAAAAGGAAAAAAAAAGGAAAAAAAAAGGAAAAAAAAAGGAAAAAAAAAGGAAAAAAAAAGCAAAAAAAAAGCAAAAAAAAACCAAAAAAAAACCAAAAAAAAACCAAAAAAAAACCAAAAAAAAACCAAAAAAAAACCAAAAAAAAACCAAAAAAAAACCAAAAAAAAACCAAAAAAAAACCAAAAAAAAACCAAAAAAAAACCAAAAAAAAACCAAAAAAAAACCAAAAAAAAACCAAAAAAAAACCAAAAAAAAACCAAAAAA'
p159
aF1.0
aa(lp160
S'7 multiloop'
p161
aS'GAUCGCGAUUAAUAUGGAAUAUCAAAGAAUACCAUCGUAAUCGAUCUAAGGUAAUGUUUAGACUGGAAAUGGUCAACCUAAAAAGGUCGGUU'
p162
aF0.9565217391304348
aa(lp163
S'Kyurem 7'
p164
aS'AAAAUCGCGACGUGCGAAAGUGUUUAAAACAUGGGAAAAACUUUCAUCGCCCGAAAAAGGGAAACGGCAGGGGCUUACCGCGUAAAAAAAAAAAAAAAAAAA'
p165
aF0.9411764705882353
aa(lp166
S'JF1'
p167
aS'UAUGAUGACAGACAUAGAACAUAGAAAAGUAUGCAACAUACAAACAUACGACGAUGCAAUAUUUUUAUAUUCUAAUGAAUAUAAAAAUAUAACACAAAAGUGACGUGUGUGCAAAAGCACACACGGACAUACAAAAGUAUGAGCAUCGAGUAUGAGUAUGAGCAUACAAAGUGUGAUCAAAAAGAUACACACAACUAUAUUUUUAUAUUUUUAUAUUCAAAAGAAUAUAAAAAUAUAAAAAAUAUAGAAAGCUACAAAAAAGUAGUCUGUGUGUUCAAAAGAACACGCAGCAACAUCAAAAGAUGAACUAUGAACUAUGAGAUCAGACUGACAAAAGUCGUCGAUCAGUGGGUGUCAAAAGACAUGCCACACUGUACAUACAUAAAA'
p168
aF1.0
aa(lp169
S'multilooping fun'
p170
aS'GCAAAUGAGUAAUAGGUAAUUACUUCCUAAAAGGGU'
p171
aF0.8333333333333334
aa(lp172
S'Multiloop...'
p173
aS'GAUCAGAUCAGUCAAAAGGCAGGGAAAACCCAGACAAAAGUCAGGGGAAACCUAGAUGAAAAUCAGACGAAAGUCGGAUUACGUACAAAAAAGUACGGACGAAAGUCGAUC'
p174
aF1.0
aa(lp175
S'hard Y'
p176
aS'AAAAUGAAGUAGAGUGCUUGAAAGCAAGCACAUCAUUAGGUGUGCAAAGGUACAUCUACUUUCUAAAA'
p177
aF0.9705882352941176
aa(lp178
S'Mat - Elements & Sections'
p179
aS'AAAAGGUGCCUUAAGGGACGUGAGAUUAGGUGAUCAUAGUACAAAAGUGAGAGGAUCCACAAUCAAAAUUCCUCACAAUGAGUGCAAAAAAAAAAAAAAAAAAAA'
p180
aF0.9619047619047619
aa(lp181
S'Chicken feet'
p182
aS'AAAAAGCAACCCCUACCGAAAGAAGUAAACAGUGACAGGACUAAAAGACCAAAGUAAACCGUGAAAA'
p183
aF0.8805970149253731
aa(lp184
S'Bug 18'
p185
aS'AUCACGAGAAGCGACUAAUCAGCUACGAAAAGAGCAGCUAUCAGCGUAAAGGA'
p186
aF0.9622641509433962
aa(lp187
S'Fractal star x5'
p188
aS'AAAAACGUCAGGGAAGAUCAAAAGAUCAACAUCAAAAGAUGAACAUCAAAUGAUGAACAUGAAAGUAUGAACUCUGACGAAAAACGUCUAGGAAGAUCAAAGGAUCAACAUCAAAAGAUGAACAUCAAAAGAUGAAGAUCGAAAGAUUAACCUAGACGAAAAGCGUGUGUGGAGAUCAAAAGAUCAAGAUGAAAAUAUCAACAUCAAAAGAUGAACAUCAAAAGAUGAACACACACGAAAAACGUGUUUGAAGGUCGAAAGAUCGACAUUAAAAAAUGAACUCCAAAAGGGGAGCGCCAAAAGGUGAACAAACACGAAAAACGUUUGUGAAGAUUAAAAAAUCAAUAUCAAAAGAUAAACGUCAAAAGACGAACAUCAAAAGAUGAACACAGACGAAAAA'
p189
aF1.0
aa(lp190
S'Crop circle 2'
p191
aS'UCAAUAUUAAACCGAAAAGUAAAAAAAAACCAAAAAAAAAAAAAAAAAAAAAAAAAAAAAGGGAAAAAAAAAAAAAAAGUAAAAAAAAAGGAAAAAAUAUUAAAAAAAAA'
p192
aF0.9454545454545454
aa(lp193
S'Branching Loop'
p194
aS'GAUAUAUAAAAAAUCAAUUGAAAGAUUAAAUAUAAAAAAA'
p195
aF0.95
aa(lp196
S'Bug 38'
p197
aS'ACCAACGCCAGUUAUAAAGAGAUGGAGGUAAAGCCA'
p198
aF0.9444444444444444
aa(lp199
S'Simple Single Bond'
p200
aS'AAAAAAGAAAAAAAAUGAUCAAAAAGAUUUAAAAAAAGCAAAAAAAAAAAAAAAAAAAAAA'
p201
aF1.0
aa(lp202
S'Taraxacum officinale'
p203
aS'CCGCAAAAGACGGGCUGGAAAAUACAUACGGGAAAACACUUGCUGCUAAUGACGGACAUCAAAAGAAUGACCGCAAAAGACUGAGUAUGUGUUUAGUCGGUGAUCCUAUGGAUACACUGACAGAUACAAAUGUUUGGACGUCGUAUGCAAGGCAUAUGAGUUCGAACAUGAUCAGUAUGCAAGGCAUACGAUCGUAUCCAAUAAAUACGUACUGGAGGAAACAUCCUCGCGAAAAUAGUGAGACCAAAAGUGCCACCGCGAAGGACGGACGGGAAAAGACCG'
p204
aF0.900709219858156
aa(lp205
S'Headless Bug on Windshield'
p206
aS'AAUAACAAAAACGAGCAAAGCAGACAAAAAAAAAAAAAAAAAAAAAAAAAGUCGGCAAAGCUACGGAAGCAAUAAAUGUAACAAGGUAAAAAAUGUAAUGGAAAAAAUCCGUUUAAAAAGGGAGCAGAUAAAAAAUCAGACCAAUAUAUCCAGAUAAAAAAAAAAAAAAAAUCAAGGUCGUAAAGGGUGAAUGUAAUAUA'
p207
aF0.98
aa(lp208
S'Pokeball'
p209
aS'AAAGUGAUGAAAAACCAACCAAGACUACGAACUAACUAACCGCAAGACCAAAGGGUUCAGGCGGAACACGGUGCUAGGACGUUAUGACAAGAAAAGAUGAUGCAAAACUUACCAAUACAACCAACCAAUAAACAAGGCGAUCGAAUGAGCACUGAUGAGGGCGGAGUGAGGUGCGUAUAAUAAA'
p210
aF0.9565217391304348
aa(lp211
S'Variation of a crop circle'
p212
aS'AAAACUCACUACAAAUCGUAAUGCGACGAUUCAAAGUUCCGGAAAGCUAAAAUUCUAAAAAAGAUAAAAAAAAACAAAAAAAAAAAAA'
p213
aF0.9545454545454546
aa(lp214
S'Loop next to a Multiloop'
p215
aS'AACGUUUGUCGAAAAAAGGUGGUACAAAAGUAUCAAGUGAUUCUAAUGAAUCACUUAAAAAAAGACAGACGAA'
p216
aF0.9726027397260274
aa(lp217
S'Snowflake 4'
p218
aS'CCUCUAUGAGGUCUGACCGAACCGUAUUGAAUCGAAGAGAAAAUCAUCGACUAGAAAGAGAACCUUAAGGGAACGAUGUCGAAAGUUUCGAAUGUUACUCCAAUGACGCUCCCACAAAGGUGAACGACAAGGACGGAGCGCUGACACCGUAGCUACAUAUUCUAAUAUCGUGCCAGCUACGUUGAAUACAAAAAGUGCCACGCGAAAGUCGUGUGAUGCCCCUCUAAUGACAUAGCUUCAAGGAAGAACAGGUAUCCUGUUACGCCGAAAGGGGGUCUAGGCAGGCAAAAGCCAUAGCCACUAUGUGGACUCGACAAUCUAUUACGAAUAAUGAUAACAGGCAAUGUGGAAAGGUCAGGGGGCAAGGCCC'
p219
aF0.7972972972972973
aa(lp220
S'Mat - Cuboid'
p221
aS'GAGACAAAAGGAACCAAAAGGAACCAAAAGAAGCAACCAAAAGGGACUAACAAAAAGAACGAACGAACGAAAAGAAAUGAAGCAACAAAACGGUACGAACGAACGAACCAAAACCAACCUACCAAUGAACCAAAACCAGCUUUCCUCCCAACGAACCAAAACCCUCCAUGCUCCCAUCCAUCCAAAACGAGCUUGCCUACCAUCCUUCCAAAAAAGGUCGGUCGGAUGGAUAGACUGGGACGGACGGUUGGACGAUCCGGGACAGGCGGUUGGAUAGUCGGGGGCUAGCGGAUGGACGGGGAACGAAUGAACGAUCCAGAAGUAGCAAAUCUGAACGAGCGGACUGAAAGAACCGGAAGUAACCGGACCGGAACCGUAAC'
p222
aF0.9052631578947369
aa(lp223
S'Misfolded Aptamer 6'
p224
aS'AAAAAAGGGAAAAAACAACUAGGGGAAGCAAAAAAAGGUUGGAACGAAAUGUUGGAAAAAGCUCAAAAAAAAAAA'
p225
aF1.0
aa(lp226
S'Snowflake 3'
p227
aS'GAGUUAAAAGAAGAGGAUGAAAAUCAAUGGGAGAUAAAGUCAAAAGACCAGUUCGAAAGAUACCAAGUAUCAAAGGGUCCGCACAAAAGUGAAUAUUAGAUGAAGUUGAAAAGCCGGAUCGAAAGGGAGAAAGUUUGAAAACACCUGCAAAAAAUUGAAUGUUAGAUUAAGGCAAAGGUCCAGACUAAAAAGCAGAAGCAAUCAAAGGAGCUGGCCAAAGGGUAACCUCGGAUGAAGACAAAAGUCUGUUACAAAUGUUACAAGGCAUCAAAAGAUAUGCACGAAAGUGAACAUCUCAUUGAAUAAAAAGGUCAAAACGAAAGUACGUAUUUUUUAAAAGAAUUGCUAAAAAUAGAACAAAUCCUAAAUACGAAAGUACUCGUCAAAAUAUUC'
p228
aF0.7862595419847328
aa(lp229
S'Hard Y and a bit more'
p230
aS'AAAAUGAAACGCACAUACAAAAGUAUCAUCGAUUCUGCGUGAUCAAAGGAUCUAAAUACAAAAAAGUAUUGAGCUGAAUCGUUUCUAAAAAAAAAAAAAAAAAAAA'
p231
aF0.9716981132075472
aa(lp232
S'Mat - Lot 2-2 B'
p233
aS'UAAGGGAGGGUCAACCAAAACGAUCGGCAAAAGCAAAACAAGUGGGUAGGAAAACUGCCCCGAGUUAACCAUCCGUAAGCAAAACCAACGGCAUCCAAAAGCAAAAGCGGAGGUAAAACGGCGGGGGCGCACAUAGAACCAAAAGGGCUCUGACAGCCAAAACCAGCGAGUAAUCUAAAACGACGGGGACUUAAAACGAUGCCGACGGAAGGCCGCGGAUUAAAAACGGACGACAGCCAAAACCAAAAGGGGACGUAAAACGGAGGUGACACGGAACAAAGAAA'
p234
aF0.8063380281690141
aa(lp235
S'Shapes and Energy'
p236
aS'AAAAAAGUCGGGGGGUCAAAAUAAAGGUCGAUGAUUAGAUUGAGCGACCAUACCCCCCCUGAGAACGUUCCGUACCCAUCGAAAAAAAAAAAAAAAAAAAA'
p237
aF0.9405940594059405
aa(lp238
S"Spiral of 5's"
p239
aS'CAAAAGAUUCAAAGAUAGGAAGAUAGAAAAGAUACAAAGAUAAAAAGAUAGGACAUGCUAAAGAUACAAAGAUAGAAAGAUAGAACAUACAAAGAUAGGAAGAUAGAACAUAUAAAGAUAGAACAUAGAACAUGCAACAUAGAACAUACAGAUACAGUGUGCUUUCAAAAAGAAAGAGGACCACACAAAAAGUAUCAAAAAGUAUGAAAAAUUAUGAAAAAGUAUGAAAAACUAUGAAAAACUAUCGAAAAGUAUGAAAAACUAUCAAAAACUAUCAAAAAGUAUGAAAAACUAUCAAAAACUAUCAAAAAGUAUCGAAAUGUAUGAAAAACUAUCAAAAAUUAUCAAAAAGUAUCAAAAACUAUCAAAAACUAUCAAAAAGGAUCAAAAAGAAAAA'
p240
aF0.9949622166246851
aa(lp241
S'Campfire'
p242
aS'AAAACAUCGCUCAACAACGUGAAGAUCAAAAAGGUCGUCAGCGAAGCUUAACCACGGUGGUGAAGAGCAGAGACAAAAGUACUCGUUUGAGCGAAGACUACCAAACGGAUUUAAGCAUGCGAAAGCAGGACUUAAUGACUCCACACACUUUGCAGCGUACAAACAGAUCAAAGGAUCGUUGUAGAGAGCUCAAGAAAACUACUCACCGGAUG'
p243
aF0.9339622641509434
aa(lp244
S'Anemone'
p245
aS'AAACUGCUCUAAUGAGCAGCAGCCAAAACGCAAAAAGGUGAAAACUUUUUAUGCGAACGUGUGAUUUGCUAAUGCAGAUCCUUUGAAAGAAGCAUAACGAAAGUUAUCUAUUGGAAAUAAUAGAAUCCAUAAUUCUGUGGGCUGGAAACGGCUCGCUUAAAAGGAAGUCAAGGCGAGAGCUUUGUUGUUAAAGAAUAUCUUGAUGCAGGUCGAA'
p246
aF0.9018691588785047
aa(lp247
S'Fractal 3'
p248
aS'AAAAAGCUGUUAACCCGAAUGAUCAAAAGGAGCAAUACAACAAAGGAGCAAAAGCAGUGAAAAUGUGAAAGCACAAAAGAUGCGGGACCGGAAAAGCAUAAAAAUACUCUCAGCAAAAA'
p249
aF0.9327731092436975
aa(lp250
S'Kyurem 5'
p251
aS'AAAAAAUCGGGCGGCUAAUGUCGAAAAAACGUCCAAGAAACGCGAAAAGGGCUUCGAGAAAAAGUUCAGAGGUUCACAAGCGAAGAAAAAAAAAAAAAAAAAAA'
p252
aF0.9134615384615384
aa(lp253
S'Snowflake Necklace ( or v2.0 )'
p254
aS'GGAUUUUUUUUUUUUUGAUCUAUCAAAAAGAAUCAAAAAGGAUUAAAAAAAAACAAAAAGAAGCAAAAAGUGGGUUCAGGCAAAAGGUCGUGUGCAUCAAAAAGGAUUAAAAAGAAUGAAAAACAAUCAAAAAGUAUCAAAAAGAAGCAUCGUGGAAAAACUGAGACACGUUAAAAAAAACUAAAAAAGAUCAAAAGGAGUCAAAAAGAAUCAAAAAGAGGUGUCGGACAAAAAGUCGCAUACGUCAAAAAGAAUUAAAAGGAGUAAAAAAAAAGCAAAAAGCAUAAAAAAGAAGUAUGAGUCAAAAAGACACAUAAAGCAAAAUAAAUCAAAAAGAUAGAAAAAGUUACAAAAAGUAGCAAAACGCAUUAUGUAAAAAGAAAAGAUUC'
p255
aF0.8483290488431876
aa(lp256
S'Methaqualone C16H14N2O Structural Representation'
p257
aS'AAAAAAAGAUGAGAGCAGAGAGACAAAAGUCGGGGACACAAAAGUGAGAGAGAAAAAAUUCGGAGAAUCAAAAGAUACACUAAAAAUGUGGUUCGCUCACCCACUCGGAAACAGCUCAGUCAUAUCCUCGGAAAGGAACUCAAAAAAAACCAAGAGAAUUAAAAAGGUACAAAAGUAGACAAAAGUUCUCAGGUAAGAUCAUAAAAAGACACCCAUAUACACAGACAAAGGCCAAAAGGCAGUCACAUGAAAAUGAGUGAGUCAAAAGAUCGUGUGAUAAAACACUAUCGGGGGUCAAAAGACCGCGAAAGUGACACAAAAGUGCCUAGUUAGCUCAAUUGACACAUCAAAAAAA'
p258
aF0.8845070422535212
aa(lp259
S"Cat's Toy 2"
p260
aS'AAAGUUCUAUGCAGAAACGUGAAAAAAAAAAAAAAAAAUGCUAGUUAAACCAAUCCGAAGCAAAAGCGAAAAACUAGAAAAAAGUGUGUAGGAAAAA'
p261
aF0.9587628865979382
aa(lp262
S'Zigzag Semicircle'
p263
aS'AAAGGAUUGAUAAAAAAAUUAAUACCAGUCAAAA'
p264
aF0.9411764705882353
aa(lp265
S'Short String 4'
p266
aS'AAAAAAGUAGUAAACAACUAUCGGCAUCAAAAGAGCACGUAAGACCCUUCAAAAGGUUGGAACGAUGUGUAGGCACGAAAAAAAAAAAAAAAAAAAA'
p267
aF0.9381443298969072
aa(lp268
S'Gladius'
p269
aS'GUAAUUAAUGGCUCAAACAAUAGAAGAAAGACAGUCAAAGAUCGAAAGAUCGGGUCCAACAGACAAGGUAUCAAUUGAUAAAGAGUAUUUGCCGUAAUAAAAUUGAGAUGACAUCAACAUCAAAGAUGGGAUAGCAUCGGAAUUUAAUUACGACAAAUACAACAUAUCUAGGGGUAAGUGGUCAAGGGGACCAGACAAAGAGACAGUCAGAGCACAGAACAUCGCAACAACAGCACUUUAGCAAUUAUCAGAGAGAUAUAUGCGGCAGUAUGUAAAAACAUACGAGCCCAAUAUAAUUCUAUGAUAAAGGUUAAAGACAAGUUGAGAAGAUGACAAGUGACGAGACUGGGAUCAAAAGAUCAAACUCAGUCAAAUAACGCAAGGAAGUAGGAAAGAAAAC'
p270
aF0.89
aa(lp271
S'Thunderbolt'
p272
aS'GUAAGAGUCAAAAAAAAGGGGAAUGGUAUGAAGAAAACAGUGUAAGCAAAAAAAACGCAAAAAAGAUCAAAAAGAUCAAAAAAGCAAAGCAUCGAAAAAAAGACUAAAAAAGUGUAAGUUUCGAAAAAAAAAAUAGCUGAAAAAGAGAAAAUUACCCUAGAACUGGAUAUAAAACUCCCGUAUAGGAAAAAAAAAACAACAAAGCGGGCUGAAAAAACAAUUAUGAAAAAAAACAGCAGGGCGUAAGCAAACCUUACACGUUGCGAAAAAAAAAACGUCGCAAAAAAAAAUAUUUAAAAGCGGUACAAAAGGAAAAAAAGCAAAAAGUACCGAAAACGAAAGCUUACACAAAAAAAAGGCAGACCCCGAAAACAAAAAAAGAGGUUCAAGCA'
p273
aF0.9642857142857143
aa(lp274
S'Mutated chicken feet'
p275
aS'GAAAAAAGGAUCAGGAAGCCAGGAAAUCGAAGAACGCCAAAAAGAACCCGGUAAAGCAAUGUAGAAGAGGAGAAAACCAGGAAACCAAACUUGGAAAAAA'
p276
aF0.84
aa(lp277
S'Chicken Tracks'
p278
aS'AAAAAAAGGCCAUGAGAUAAAAGGAUCAAGGUGUAAUUACCGAGGUUGAAAAACCUUAUGGCAGGCGUCGCGAAGCAUCAGCCCUAUGGGCGAGAGCUAUAAUCUGCAAAAAAAAA'
p279
aF0.9827586206896551
aa(lp280
S'Looking Back Again'
p281
aS'GAGAAGCAGAUGAAAAAGUAUGCAAAGCAUACGGAUCAAGACCACAAGAAUAUUUCGUGAGAGACAAUGAUAAAAAUAUCUAAAGUUUCGAGUCAAUGCGAGAUGGUCAAAAAGAUACAAAAGUAUCAAAAAAGGCCAUACGAUACGAAGUAACGAUAUCAGAUGUCGUGGGCCCUAGGGCAAGGACAAUGGCAUGAAAACAUGAACGGGACGAACUGGGGCGAAAGCCAAGCUCACAAAGUACGUAUCGUACAGAAGACUAAAAAGGUAUUCAAAAAAAAGAUCAAAAAGAUCCAAUAAACCCAGUGUGUAGAAAAAAGCCGAUGCUAAUGCAUCGAAGACUCUAUGAAUAUACAAAGUAUAAAGUCGCAAAACUACCUGUGAAGCUC'
p282
aF0.9203084832904884
aa(lp283
S'Multilooping 6'
p284
aS'AAGUGUACAUUGUCGAAAGCGGCAGUCGAGAAAUUGACGCCGAGUUCUCGAAAGAGAAAUGUGAAAGGACACUGUAAUUCGA'
p285
aF0.926829268292683
aa(lp286
S'Cesspool'
p287
aS'GUAGGAUGAAAAGCCAGAACAGACUCAAAGAGAACAAGGGCUGAACAACAAAAGAAGAAAUCAAAAGACCAAAGUAAAAAUAACAUCAAAGGUAAGAAAACAACAGAUCAGAGUAAAGCACAACAAGACCUCAGAGUCAAAAGAACAAAUCAAAAUUCCAGAAUUAAAAGAAAAAUAAGAAUUAAGUAAUCAAUAGUACGAUGGCAAAGCCACCAAGCUCUAAAAAUCAAAAGUACAAAUCAAAAGUCCAUAGUCAAAAGAGAACUCAAGCAAUAAGAAAAUAACAGUGCAUAUAGAAACUGAAAAAGAUCUGAAAAUGAAAACACCGUGUCAAAAGAAGAGACUCAAAAGACAACGC'
p288
aF0.7150837988826816
aa(lp289
S'Hoglafractal'
p290
aS'AAUAGGAACACGGAAAACAUGCAAAAAAGCAUGCCAGGGAUUAAAGAACAAAAAGAUUGAUCGGCCAGACAAAAGUCGUUAGUGAAAGAUGAAAGCUCGAAAAAGAGCCAUCUAUAAGAUAAAAAAUCACACGACCAAAGCGCGAGAUGAAAAUGCAAGUCAAAAAAGGCCCGCCAGCGAAAAGCGGCAAAAAAGUAAGAUACAAAAACGAGCAAAAAAGCUCCACAAAAAGUGAAAAAAUAAGUAGUGAAAACCCUCAAAAGAGAGCCAAAAAGAGAUCGUAUCCAAAGGAUACGUAAAAAACACUACAAAAAAGUAUCAAAAACAUCGAAACACGAACCAAGAAAGUGCAGAUGAAACCAUAAUGGCCAAAAGAGAUAUCAAAGAUAUUCCAUCGCUC'
p291
aF0.905
aa(lp292
S'Bullseye'
p293
aS'AAAGAGGAUCAAAACUCAUUAUCGAAGAUAUAGACGGAAGAUCCUCGAAAAAAAAGCCUACAAAGAGGAAGAUGAAGUAUCAAGGUGAAGUACCGUUAAAAAAAACAGGCUCAAAGAUCAGGAUAAAGUAUUAAGUCCGAAGAGCCUGGAAAAAAACCCUUGUUAUCCUGGAUGUUAAAGAUAGAUAUGAAAUUCAGUGGAA'
p294
aF0.8514851485148515
aa(lp295
S'Shooting Star'
p296
aS'GUUUAUCGUCGGGAUUCAAUGAUGUAGAUACACACGGAUAAAGACGGAGGUAGUCAUAGCUAGAAUCCCAUAUGGAGCAUAUGCAGACAGCUGCAAUCUGGACAAGUAAUAAUGAUACGAUGACGGACGUCGGAUAGCGCCCCAAAACAGCAACGCCCGAGCCAAAGGUUUAAAUACAAAGUAUUAUAGAAAUUUAGGGAAGGCGAGCGGCGAUGAAAGUAAUUUAAAGAAUUACUCACACAAGGUGUGUAUCGUGCUUGAAACAAGCACACGUACUAUGUAUGCAUCAACCAAGGAAACGGUCAAGAACAGAGUUACACAAGCAAAAGAAUGUAGGACACAGGGCCAGAACCAGAAAUAGACA'
p297
aF0.8159340659340659
aa(lp298
S'Teslagon'
p299
aS'AAAAAAAGAAAAAAAACUAGAAAAAAAUGAGUUAAAAAAAAAAAAAUGAAAAGAGUAGACAAAAAAAAAAAAAAGGCAUAAAAAAAGCCAGGAAAAAAAGCGAAAAAAAAAAAAAAGUAAAAAAACCAGGAAAAAAAUCUAGAAAAAAAAAAAAAAAGUUAAGAAUAGCGAAAAAAAAAAAAAAACGAGCAAAAAUACCAGAAAAAAAAGCAAAAAAAAAAAAAAAGGAAAAAAAUCAGUAAAAAAAGCAUUGAAAAAAAAAAAAAAGAAAAGAGUAGACAAAAAAAAAAAAAAAGUAGCAAAAAAAGCGGGGAAAAAAGAAAAAAAAAAAAAGCAAAAAAAAAAAAAAAGCACCGAAAAAACCAGUAAAAAAAUUAAAAAA'
p300
aF0.9109947643979057
aa.