(lp0
(lp1
S'Simple Hairpin'
p2
aS'GAUACAAAAAAGUAUC'
p3
aF1.0
aa(lp4
S'Arabidopsis Thaliana 6 RNA - Difficulty Level 0'
p5
aS'GAUAUACAAAAGAGAAAAAAAAAAACUCGAUAUAUCGAGAUAUAUAUAUAGAUAUACAAAGAUACAAAAAAGUAUCAGUAUAUACUAUAUAUAUAUCGAGAUAUAUCAAGUAUAUC'
p6
aF1.0
aa(lp7
S'Prion Pseudoknot - Difficulty Level 0'
p8
aS'GAGGUCAGUACUAAUGUACGAUACUCAAAAAAAAAA'
p9
aF1.0
aa(lp10
S'Human Integrated Adenovirus - Difficulty Level 0'
p11
aS'CAUAUAUGUGGAUCGGACAUCUAAAAAAAAAGGUUCCAUGGCUGGACAACGGGAGAUAAAAGACGAUAUAUAUCAAAAAAAGGAUAUAUAUCAAAAGUCAUCUCAAAACCGCAGAAAACCAUGAAAAUAUACAAAAAAGGUAUAUGGACAAAAAAAAAAAUGAUGUCAGAUCAAAACACAUAAAAUAUGAAA'
p12
aF1.0
aa(lp13
S'The Gammaretrovirus Signal - Difficulty Level 0'
p14
aS'AAGAGAGGAUAUCAAAGGAUAUCAGCGCAAAAAGGUAUAAGGCAGGUAGUGUCAAAGGACAUCAAAUAUCGUCGUACAUGAUAUAUUGAAAGAUAUAUCUA'
p15
aF1.0
aa(lp16
S'Saccharomyces Cerevisiae - Difficulty Level 0'
p17
aS'GCUAGACUGACAAAAAAAGGUCGUAGAAAAAAAAAAAAAAACAAAAAGAUGCGAAAAAAGUAUCGUUUAGUAAAGGAUAAAGAAGUACAAAAAAAGGUACAGGUGAAAAAAAAAAUCUUAAAAUAUACAAAAAAAGUAUGCUUUAUCAAAAGAUGUGGAAGUACUAAAAAAUGUACGAUGCCAAAAAAAGGCAUCAAAAGUUACAAAAAAAGUAGCCUACAUCAAAUUAUAUAGAAGUACAAAAAAAGGUAUGCUAUCAAAAAAAGAUAGCAAAAGAUACAAAAAACGUAUCCUAUAUGUAAAGCUUUAGAAGUACAAAAAAAGGUACGAGCUCAAAAAAAGAGCUCAAAAGAUACGAAAAAACUACGCUAAAGCGAAA'
p18
aF0.9894459102902374
aa(lp19
S'Fractal 2'
p20
aS'AAAAGGACAUCUCGAAAAUGUAUAUUGAGUGCAAAAAAAAAAGCACAGGUACAAAAAAAAAGGUACAGGAGUAAAAAAAAAAGCUUAAAAUAUAUAUUAAAGAUAGAUAUUAUGGGGUAACAAAAAUCUCCUGGUACGAAAAAAAAAGUACAACGUGUAAAAAAAAUUACGGAAAUAUUUAUCAAACGUAGAUAUCAAGUCCAAAAAAAAAAGGACAAGUAUGAAAAAAAAAAUACAGCAUCAAAAAAAAAAGGUGAAGAUAUUUACGAAAGAGAUGUCAAAAA'
p21
aF1.0
aa(lp22
S'G-C Placement'
p23
aS'CCUUAAGGAGGA'
p24
aF1.0
aa(lp25
S'The Sun'
p26
aS'GAUAGGGGACUUAUAGUCAACCCAUCAAAGCUAUAGGGACUAUGUCUAACUAAGUAAAGACAGAGUAUCGAAGGUAAAAUCAUUGAGGCCAGCUUAUCGAAGAUAAAGGCGGCAAACGCAUACUAUAUAACAAAAAGUGUCGAAUAUUAAUCUACCAAAGGUGAAAGCGGUUAGGUCAGAGUGUUUACGACAAACUCGACAAAGCGAGCCUUACAAGGUAAAAGUCUGCGAAGACAGAGUAUCAAGGAUAAACUCGGC'
p27
aF0.8565891472868217
aa(lp28
S'Frog Foot'
p29
aS'AAAAAAAAAAGUACAAAAGUACGUGCAAAAGCACCAGCAAAGCUG'
p30
aF1.0
aa(lp31
S'InfoRNA test 16'
p32
aS'GAUAUCGGAGCAUACAAAAGUAUGACUACGGAUAUC'
p33
aF1.0
aa(lp34
S'Mat - Martian 2'
p35
aS'GUACAAAAGUACAAAGAUAUACAAGAUAUACAAAAAAAGUAUAUCGUAUAUCAAAGAUAUAUCAAAAAAGAUAUACAGAUAUACAAAAAAAGUAUAUCGUAUAUCAAAGAUAUAGAUAUAUCAAAAAAAGAUAUAUACUAUAUCAAAAAAGAUAUAUCAAAGAUAUAGAUAUAUCAAAAAAAGAUAUAUAACUAUAUCAAAGUGCAAAAGCAC'
p36
aF1.0
aa(lp37
S'square'
p38
aS'GAUAUACCUGUACCUGUAUCCUGUACAAAGUACAGAAAAGAUACAGAAAAGUACAGAAAAGUAUAUC'
p39
aF1.0
aa(lp40
S'Six legd turtle 2'
p41
aS'AAAAUUGAAUGGAAAAUCUAAAGUAAACUAAAUGGAAACGAAAGGGAAACCGAAGGGCAAGGGAAAAGAAAUUAAAACUAAAAAAAAAAAAAAAAAAA'
p42
aF0.9591836734693877
aa(lp43
S'Small and Easy 6'
p44
aS'AACGGUAAAUCCCAGUAAAAAAAAGGUGUU'
p45
aF0.8666666666666667
aa(lp46
S'Fractile'
p47
aS'AAAAAAAAAAAAGUAAAACCAAUGUUAAGUAAAAGAGAUCAAAGAAAAAUUAAAGGAAAGAAAAUUAAUAAGAAAGAAAUUAAAAAAAAAAAAAAAAAAAAAAAA'
p48
aF0.9619047619047619
aa(lp49
S'Six legd Turtle'
p50
aS'AAAAAGCAAAGCGUAACCCAAAAACAAAAGUAAAGCGAAACUGAAAAAAUAAUUUAAAGGCCAAGGUAAAUACAAAAGUUAAAGCAAAAAAAAAAAAAAAAAAAA'
p51
aF0.9238095238095239
aa(lp52
S'snoRNA SNORD64'
p53
aS'GAUAUCAAAAAGAGAAAAGAGAAAGAUACAAAAAAAAAAAAAGUAUCAAAACUCAACUCAAGAUAUC'
p54
aF1.0
aa(lp55
S'Chalk Outline'
p56
aS'AAAAGAAGCAGCAUCGAAAGGUUGCGGUGCGACGAAAGUCUACAGAUCGCAAAAGCAGAUCGGCGGGGAAACCCUGCGCUUAAAAAAAAAAAAAAAAAAAAAAA'
p57
aF1.0
aa(lp58
S'InfoRNA bulge test 9'
p59
aS'GAUCUACAGAGAGAGAUAUACAAAAGUAUAUCCCCGUAGAUC'
p60
aF1.0
aa(lp61
S'Tilted Russian Cross'
p62
aS'AAAAGGAAGGGUCGAAAGGCCGGACAGUACAAAGGUACGAUACUAAUGUAUCAGUCCAAAAGGACGUCCGCACGAAAGUGCCUUCGAAAAAAAAAAAAAAAAAAA'
p63
aF1.0
aa(lp64
S'This is ACTUALLY Small And Easy 6'
p65
aS'GGGGGGGGGGGGGGGGGGGGGGGGGGGGGGGGGGGGGGGGGGGGGGGGGGGGGGGGGGGGGGGGGGGGGGGGGGGGGGGGGGGGGGGGGGGGGGGGGGGGGGGGGGGGGGGGGGGGGGGGGGGGGGGGGGGGGGGGGGGGGGGGGGGGGGGGGGGGGGGGGGGGGGGGGGGGGGGGGGGGGGGGGGGGGGGGGGGGGGGGGGGGGGGGGGGGGGGGGGGGGGGGGGGGGGGGGGGGGGGGGGGGGGGGGGGGGGGGGGGGGGGGGGGGGGGGGGGGGGGGGGGGGGGGGGGGGGGGGGGGGGGGGGGGGGGGGGGGGGGGGGGGGGGGGGGGGGGGGGGGGGGGGGGGGGGGGGGGGGGGGGGGGGGGGGGGGGGGGGGGGGGGGGGGGGGGGGGGGGGA'
p66
aF1.0
aa(lp67
S'Shortie 4'
p68
aS'GGAAAACCAGGGAAACC'
p69
aF1.0
aa(lp70
S'Shape Test'
p71
aS'AAAAAGGGUACAAGAUACAAAAAAAAGUAUCAAGACAGACAGAUACAAAAAGUAUCAGUACAAAAGUACAGUCGUCAAGUACGCAAAAAAAAAAAAAAAAAAAA'
p72
aF1.0
aa(lp73
S'The Minitsry'
p74
aS'GACAAAAAGGGGAAAAGAGGAAAAGAGAAAAAGCCUAAAAAAUGGCGCUCACUCACCCGGUC'
p75
aF1.0
aa(lp76
S'stickshift'
p77
aS'AAGAUAUCCGAAAAACGAGAUAUCAA'
p78
aF1.0
aa(lp79
S'U'
p80
aS'AAAAAGAUACAGAGAGGAGAGAUAUAUACAAAAGUAUAUAUCCCCCCGUAUCAAAAA'
p81
aF1.0
aa(lp82
S'Still Life (Sunflower In A Vase)'
p83
aS'AAUGUUCAAGAAUCAAAAAGGAUCAAGGUGGGAACUACCAAGAUAAGAAAAUUAUCAAGAUACAAAGUAUCGAAUGACGAAAACCCAUAAGUCGCAAAAAGUUUCUGUUAUAUACAUAUAUAUUCAUACGAUUCAAAAAAGGAUCAGAUAGUAAAAAAAAAAAAGCAGAAAAAAAAAAAAAAAAAAAAAAAAAAAAAAAAAAAAAACCCCUGCAAAAAAAAAAAAUCUAUCGAAUGAAAACAUUCAGUAUGGAUAUAUAUGUAUAUAGCUAGGAAAAAAAAUUAUCAAUACUCAAAAAGGGUAGAGAAACAAAAAGUCUUAAGAUACAAAAAGUAUCAAGCUACAAAGGUGGCAAGAGUAUAAAUCUUUCAGAACUAA'
p84
aF0.9603174603174603
aa(lp85
S'Quasispecies 2-2 Loop Challenge'
p86
aS'AAAAAGCGGCUAGAUGUACAAAGGUACUACUAGAGUACGACUAUGGAGUACAGUACGAGAGGACAAAAAGUCAACGAGUACCCGCAAAAAAAAAAAAAAAAAAAA'
p87
aF1.0
aa(lp88
S'Corner bulge training'
p89
aS'AGAUAUCGAUACAAAGUAUCAAAAGAUAUCA'
p90
aF1.0
aa(lp91
S'Spiral'
p92
aS'AAAAAGUACAGAUAUCAGACAGAUACAGUACAGUACAGGAGGAGGAGGAGGAGGAAAAACCCCCCCCCCCCGUACGUACGUAUCGUCGAUAUCGUACAAAAA'
p93
aF1.0
aa(lp94
S'InfoRNA bulge test'
p95
aS'AAAAAAAAAAAAAAAAAAAAAAAAAAAAAGGGCAAAAAAGGGCAAAAGGGCAAAGGGCGAGGGCAGGGCAAAAAGCACCAGCACCGAGCACCAAAGCACCAAAAAGCACCAAAAAAGCACCA'
p96
aF1.0
aa(lp97
S'Worm 1'
p98
aS'AAAAAAAGGGGGGGAGAGGAGAACAAAAGAUCACCACACGCGCGC'
p99
aF1.0
aa(lp100
S'just down to 1 bulge'
p101
aS'AAAAAGGGCAUAGACAAAAGUCUAAGACAAAAGUCAGCACCAAAAGUACAGACAAAAGUCAGACAAAAGUCAGUACAAAAAAAAAAAAAAAAAAAA'
p102
aF1.0
aa(lp103
S'Iron Cross'
p104
aS'ACCGAGAGAAAGAGAGAGAAACAUUAACAAAAUUUUUUCAAAGACUGAUAAAGAUCAUUCAAGCGGUGACGAAGUAAUUGAAAACAAAUUAAAAAUAACACAAACUUGAUGAAACAUACGGAA'
p105
aF0.9105691056910569
aa(lp106
S'loops and stems'
p107
aS'AAAAAGAUAUACAAAGUACAAAGUACAAAGUCCAAAAAAAAAGUUAGAAAAAAAAAAAACUAGCAAAGGACGAAAUUGCAAAAAAAAAAGUAAAAAGUACAAAGAGAAAAAAAACUCAAAGUACAAGGAAAAAACCGAAGUAUAUCAAAAA'
p108
aF1.0
aa(lp109
S'Water Strider'
p110
aS'AAAAAGAAUGAUCUUCCGGCCGAAAGGUAGUAAAGGUGAUAGAGGGGUCUCCUAAUGGGGGCAAAGGCUAGAUAGUGCGGGUUAAAAAAAAAAAAAAAAAAAA'
p111
aF0.941747572815534
aa(lp112
S'The Turtle(s) Move(s)'
p113
aS'AAACUAAAAAGAAAAGUUCUACAGAAAAAAAAACUGUGGAAUAAAGGUACAAAAAGUACAAAAACCCGAAAGGGGAAGAUACAAAAAAAGUAUCGAAAGAGUAAAGAAAGACAAAAACGCAAAAGUGAAAAUGUAUGAAAAAAAUAUAUAGAAAGGUUAAUGCUAAAAAGCUAUGAAAAGGGCAAAAAACCCAACAGAAAAAAAGCUGGAAGAUACAAAAAAGGGUCGAUUGACAAAAGGUCAUACAUAUCAAAAAAAAAUUAAAAGGAAAAAUAAAAAUGAAAAAAGAUAAUAAAAAAAAUUUAUCAAAAAUCUC'
p114
aF0.9810126582278481
aa(lp115
S'Adenine'
p116
aS'GAUACAGAUAUCAGAUAUCAGAUAUCAGAUAUGGGAUAUCAAAAGAUAUCAAAAAAGAUAUCAGAUAUCAGAUACAAAGAUAUACAAAGUAUAUCGUAUCACAUAUCAGAUAGAUAUAUCAAAGAUAUAUAAACUAUCAGAUAUCAAAAGAUAUCAAAAGAUAUCAAAAGUAUC'
p117
aF1.0
aa(lp118
S'Tripod5'
p119
aS'AGUUGGGGACUAAAUGUCCGCCCUAAAUGGGCCCGAAA'
p120
aF1.0
aa(lp121
S'Shortie 6'
p122
aS'GGAAAACCAGGAAAACCGGCUAAUGCAGGGAAACC'
p123
aF1.0
aa(lp124
S'Runner'
p125
aS'AAAAGGUACGGGACUAAAAGUAGAAACUACUGUUUAAGAAGAAGGAUAAAAAGUGAACUCCUCGCGCGAAGCGAAACGGACUUAAAGGGAAUGAGUAAAUCCUCCCAGUACAAAAA'
p126
aF0.9568965517241379
aa(lp127
S'Recoil'
p128
aS'AAAAAGAUACAAGGAAGGAAGACAAGACAAGGAAGCAAAGCACCAGUCAGUCACCACCAGUAUCAAAAAAAAAAAAAAAAAAAAA'
p129
aF1.0
aa(lp130
S'[CloudBeta] An Arm and a Leg 1.0'
p131
aS'AAAAAGAGAGAGUCAAAAGAUCUCGACAGGAAAACCGUCGCUCAAAAAAAAAAAAAAAAAAAA'
p132
aF1.0
aa(lp133
S'[CloudBeta] 5 Adjacent Stack Multi-Branch Loop'
p134
aS'GCUGGUAGCGAAAGCUACCUCGUAAUCGAGGGAGUUAAAGGACUCGCGGGAAACUGCCUAGCA'
p135
aF1.0
aa(lp136
S'Triple Y'
p137
aS'AAAAAGAUAGUACGGAUAAAGCUACGUAGAAAGUUGAAUGCAGUCAUAUAAAAGUAUGCGGAAAACCGCUACUGAUUGAAAAAAAAAAAAAAAAAAA'
p138
aF0.9175257731958762
aa(lp139
S'Misfolded Aptamer'
p140
aS'GUAUGAAAAAGCGGCAAGGCCAACGAAAGUAAAAAAAAAGCAAAAAGUAC'
p141
aF1.0
aa(lp142
S'Flower power'
p143
aS'AAAAGGUAGAUAACAGUUAUAUCGCAGUUAAACGCUCAUGUAAAGUUCGGAAAAGUUUGUACGCGGGGACCUAUGGUUCUACAAAAAAAAAAAAAAAAAAAA'
p144
aF0.9215686274509803
aa(lp145
S'Kudzu'
p146
aS'AAAAAGACGGGACCGAUGGCCGACAGGAAGCCGUAAAUCUGCGUAAAAAGACUCCAACACGCAGUAAAAGUCAGAACAGUUGAAAAAAAAAAAAAAAAAAA'
p147
aF0.9603960396039604
aa(lp148
S'"1,2,3and4bulges"'
p149
aS'AAAAAAUAGGGGGAGAAACCGUGAAUUCUGAUUAAUGCUUUAAACUACAGGUGGCCCUAAUGAAACCGGGUGAAAGCUACAACCGAAAAAAAAAAAAAAAAAAAA'
p150
aF0.9238095238095239
aa(lp151
S'medallion'
p152
aS'GAUUUCACACUUCAAAAGAAGUGAAGGGAAACUUGCCGAAAAUGGAUAAGAAAAAGUUCUUAAUUGGAAACCCGUAUGUUGAAAGACAUAACAGGAAACGGGAUUAAAAGGUUGAUGCUAAAAAGCAUUAUAGCAAUCUGACAUUUCUAAUGGAAUGGCGGAAAACCGAGUCGAAAGACGCAUUUCAAAAGAAAUGACACCAAAGGGGCUCGUCAAAAGGCGGGGAAGUAACGUGGUCGAAAACGGACUUCUCAAAGGAGAGGGUUGAAAAUGAAUCUGGAAAAAUUCAGGAGAGAAAACGGAUAUAAAACAAGCAAGUAGAAAUAUUUGGGAAAUU'
p153
aF0.8961424332344213
aa(lp154
S'[RNA] Repetitious Sequences 8/10'
p155
aS'AGGAAAAAAGGAAAAAACCAAAAAAGGAAAAAAGGAAAAAACCAAAAAAGGAAAAAACCAAAAAACCAAAAAACCAAAAA'
p156
aF1.0
aa(lp157
S'Documenting repetitious behavior'
p158
aS'AAAAAAAGGAAAAAAAAAGGAAAAAAAAAGGAAAAAAAAAGGAAAAAAAAAGGAAAAAAAAAGGAAAAAAAAAGGAAAAAAAAAGGAAAAAAAAAGGAAAAAAAAAGGAAAAAAAAAGGAAAAAAAAAGGAAAAAAAAAGGAAAAAAAAAGGAAAAAAAAAGGAAAAAAAAAGGAAAAAAAAAGGAAAAAAAAAGGAAAAAAAAACCAAAAAAAAACCAAAAAAAAACCAAAAAAAAACCAAAAAAAAACCAAAAAAAAACCAAAAAAAAACCAAAAAAAAACCAAAAAAAAACCAAAAAAAAACCAAAAAAAAACCAAAAAAAAACCAAAAAAAAACCAAAAAAAAACCAAAAAAAAACCAAAAAAAAACCAAAAAAAAACCAAAAAAAAACCAAAAAA'
p159
aF1.0
aa(lp160
S'7 multiloop'
p161
aS'GCGCUUAACUAAUGUUAGCUUGCAAAGGUGAGCGACUUAAUGGACGUCUACUUAUGUAGAUGGAUGCAAAUCUAAAGCCAGAGGGCUUGACU'
p162
aF0.9782608695652174
aa(lp163
S'Kyurem 7'
p164
aS'AAAAGGACGCGUGAAGAAAUUCCCGAAAACUAGUGACAAAAAGUCUGCCCUGGAAAAACAGAAAGGCCUAGCGGACGACGUCAAAAAAAAAAAAAAAAAAAA'
p165
aF1.0
aa(lp166
S'JF1'
p167
aS'CAUAGAGAUAGAGAUAGAAGAUACAAAAGAUAUCAAGAUACAAAGAGACAAGAUAUCAGAUAUAUGUAUAUCAAAAGAUAUACAUAUAUCAAGACAAAAGUCAGAUAUAUACAAAAGUAUAUAUCAAGAUACAAAAGUAUCAGAUAUCAGUCUCAGUAUCAGAUAUCAAAGAUAGAUCAAAAAGAUACUAUCAAGAUAUAUAUGGAUAUAUAUAUAUCAAAAGAUAUAUAUAUAUUACAUAUAUAUCAAAGAUACAAAAAAGUAUCGAUAUAUAUCAAAAGAUAUAUAUCAAAGUACAAAAGUACAAGUAUCAACUAUCAGUACAGACAGACAAAAGUCGUCGUACAGAUGGAUACAAAAGUAUCACAUCGCUAUACUUAUAUGAAA'
p168
aF1.0
aa(lp169
S'multilooping fun'
p170
aS'CUAGCUCGGGAAACAGUAAGCAAUGUGUGAAAAGAG'
p171
aF0.8333333333333334
aa(lp172
S'Multiloop...'
p173
aS'GGACAGAACUAAGAAAACUCUGACGACAGAGUGGGAAAAGUUAGUCAAAAGGAGGACAAAAGUCAGUGAAAAGCAUGUUCACAUUGAAAAAACGAUGUCCGAAAAGGGUCC'
p174
aF0.9459459459459459
aa(lp175
S'hard Y'
p176
aS'AAAAAGUACGGUAUAUAAGUGAAAGCUUAUAUUCUGUUGUAUGUCAAAGGACAUACAACGUACGAAAA'
p177
aF0.9705882352941176
aa(lp178
S'Mat - Elements & Sections'
p179
aS'AAAAAGUACGGAAAGGGUUAAUGGGUGAGAAGUACAGCAGUCAAAAGGCGGACGUACAACGAUGAAAUGGUAACAAAAACGGUAUAAAAAAAAAAAAAAAAAAAA'
p180
aF0.9619047619047619
aa(lp181
S'Chicken feet'
p182
aS'AAAAAACAGCAUUAAAUGAAGAAAACUAAGCCUAGCAGCAAAGAAUCGAUAAGAUAAAGCCUAAAAA'
p183
aF0.9104477611940298
aa(lp184
S'Bug 18'
p185
aS'AAGACAAAGUUCACUCUAUCAUGAAACAAAGCUGGAAACUAUGAUGGAAACUA'
p186
aF0.9622641509433962
aa(lp187
S'Fractal star x5'
p188
aS'AAAAAGAUGCGUGAAUAACAAAAGUUAAGGUACAAAGGUACAGGACCGAAAGGUCAACUCCAAAAGGAGAACACGCGUCAAAAUUAUACAUGAAAAACGAAAGUUUGAACACAAAAGUGUAACUACGAAAGUGGAAGUAGUAAUCUACAAUAUGUAUGUAAAAGAUUUAUGAGGUACGAAAGUACAAUGACAAAGGUCGAAGUAAAAAAUUACAAGUUGGAAAUAACAGCAUAGAUCGAAAAGAUAUAUCAAUGGAAAAAUCUAAAGUUCAAAAGAACAUCUUCAAAAGAAGUUGUGCAGCAGUACUAGAUAUAUCAAAAUGAUACUGGAAUCAAGAAAUUGGAAGUAAAAAAUUACGAGGGCGAAGGUUCAAGUCCAAAAGGACAACCAGUAUCUAAAA'
p189
aF1.0
aa(lp190
S'Crop circle 2'
p191
aS'UUAAUUUAAAGGUUAAACCGGAAAAAAAGGGUAAAAAAAAAAAAAAAAAAAAAAAAAAAAUCUAAAAAAAAAAAAAAACCAAAAAAAAUCUAAAAAAUGCUAGGAGAAAA'
p192
aF0.9636363636363636
aa(lp193
S'Branching Loop'
p194
aS'UGGUUCGAAAAAAAGGUCGGAAAUGACAAAAUCUUAAAAA'
p195
aF0.95
aa(lp196
S'Bug 38'
p197
aS'AACGGGAACAAAUUAAAAUUGUGGGGAACGAAAGUG'
p198
aF0.9444444444444444
aa(lp199
S'Simple Single Bond'
p200
aS'AAAAAAGAAAAAAAAUGUAGAAAAACUAUUAAAAAAAGCAAAAAAAAAAAAAAAAAAAAAA'
p201
aF1.0
aa(lp202
S'Taraxacum officinale'
p203
aS'CUGCGAAAGACAGAGCGGAAAACAUGCAGAGCAAAAGACUCAGACGAAAAUAGACAGUGGUAAUUACACGGGGCAAAAAAUAUGGAUAUAUAUACGCGAUAGAUGCAAAGUAUACUAUCGCUGACAGAAGAUAUCUAUCGAGAUAUACAAAGUAUAUCGGAUAGAUAUCGUACAGAUAUCAAAGAUAUCGUACCUGUCUAAGUAUAUAUAUCAUUUUAAAAGAAAAGGUGCAAAAGACGCAAUCCAAAAGAAACGAUGUAAAAGACAGAGAGCACAAGACCC'
p204
aF0.9148936170212766
aa(lp205
S'Headless Bug on Windshield'
p206
aS'GGGAGAAAAAAGGGUCGAAGGAGAGAAAAAAAAAAAAAAAAAAAAAAAAACUCACCAAAGACACCGAACCACCGGAGAACUCAAGCGAAAAAUCCAAAAUUUAAAAAAGGGGGAAAAAGCGCAUAGUUGAAAAAAGAAAGGAAAGGCGGGGAAAGAAAAAAAAAAAAAAACUUAACCAAGUCAAUCAUUUAAGGAAUUUA'
p207
aF0.98
aa(lp208
S'Pokeball'
p209
aS'AAAGUUAUACAAAAGGGGGGAAGAUAGGAAUGGAGGCAAGUAACUAAAGAAAAUAAGAAGCAGCACCUAUAAAUCACCACCGUAUAGCGAAAAAAAGAUAUCCAAAAGGAAGUACCUCAAAAAAGGAUAAAAGAAAGACUGGAGCGCUUAAAGCCGUUCCGAUUAGAGAACACCGGAUAUCAAA'
p210
aF0.9891304347826086
aa(lp211
S'Variation of a crop circle'
p212
aS'AAAAGGUAAAGGAAAAAGAAAUGUAAGUGAGUAAACCGAGCAAAAGCAAAAAACCGAAAAACGCAAAAAAAAUCCAAAAAAAAAAAAA'
p213
aF0.9545454545454546
aa(lp214
S'Loop next to a Multiloop'
p215
aS'AAUAUUUUUCAAAAAAAAAUAUAUCAAAGGAUAUGGGAUGUUCGAAAGAAUGUCGUAAAAAAAGAGAGAUGGA'
p216
aF0.9726027397260274
aa(lp217
S'Snowflake 4'
p218
aS'GGCCGAAGUUCGAUGGGCAAAAUCGUUACUGGAGACUGAAAAUCGAAUGGUCCAAAGGACAAAUACAAAGUAUCAUUCGUAAAACUGUCUCAAGAUUCGGAAAACCGAUUCCUGCAAGGCAGAAAUACAAGGUAUGAGUCGGAAAACCGGAUCAAAAGACGGUAACCCGUAUCCAGUAAGGCUGAAGUACAAAGUACGAUACGGCAAAUCGUUUUGAGGUUCGGAAAACGAAAUCCGUCAAAGACGAAGAACAAAGUUCGAUUUAGAAAACCGAACCAAGAUACGGAAAACCCAAUGGCACAAAGUGCAAUUACGAAGUAGCAUGGCUAAAAGCGUAUCGUGUAGCGCAAAAUACUAUUGUACAAAGCCC'
p219
aF0.8864864864864865
aa(lp220
S'Mat - Cuboid'
p221
aS'GAAGGAAAAGGAAGAAAAAGGAAGGAAAAGAAGGAAGGAAAAGGAAGGUAGGAAAAGAAGGAGGGAAGGAAAAGGAAGGAAGGAAGGAAAAGGAAGGAAGGUAGGAAGGAAAAGGAAGCAAGGAAGGAAGGAAAAGGAAGGAAGGAAGGAAGGAAGGAAAAGGAAGGAAGGAAGGAAGGAAGGAAAAGGAAGAAAUGAUGGAAGUAAGGAAAAAACCAAGCAACCUACAAAUCAACCCCAACCAACCAACCAACCAACCCCGACCAACCAACCAACCAACCCCAACCAACCAAGCAACCGCAACCAUCCACCCAACCCCAACCAACCAACCCCGACCAACCAACCCAUCCAACCCCAACUAACCCAACCUCAACCCGAAC'
p222
aF0.9947368421052631
aa(lp223
S'Misfolded Aptamer 6'
p224
aS'AAAAAGAUGGAAAAAGUACAUGAAAUGAGAAAAAAAACUCUAAGCUAAAAGUACGAAAAAACGUAAAAAAAAAAA'
p225
aF1.0
aa(lp226
S'Snowflake 3'
p227
aS'GGGGGAAAACGAGACGCUAAAAAGGAACUAUAGUGCGAGACAAAAGACUUUACGAAAACGGACAAAGUCCGAAAACGGGAGGAGAAAAUUCAACUACAGGACUAGAGAAAAGGCGAGGUGAAAACGCAGAAACUGCGAAAACGAUUCGGCAAAGAUCAUGUCCGAUUCAAGUCAAAAGUCGAUAGGGAAACCCUGUAUCGGGAGAAAUUAGUCGACAAAGGCCAAGAACAGAACAAUACUAAUGUGGUGACGAAAAGCAAGAAACUGCGAAAACGAUUCGACAAAAGACAAGUACAGUAAGAUACAAAAGAGGUGAGGAAAACCGUGUAUCACAGUAAUCGACACGGCGAAAGUCAAGUACGGUAGAAAACAAAGAUCGUCGGGAAAACCCUC'
p228
aF0.7633587786259542
aa(lp229
S'Hard Y and a bit more'
p230
aS'AAAAAGAUACGAACUAUCAAAAGAUAUAUCGUUACUGGAUGUACAAAGGUACUAGUCAGAAAAAGUUGGCGACCUGUAACGUAUCGAAAAAAAAAAAAAAAAAAAA'
p231
aF0.9716981132075472
aa(lp232
S'Mat - Lot 2-2 B'
p233
aS'GUAGAGAAGGACGAGGAAAAGUAAGGGCAAAAGCAAAACCAACCCCGAGCAAAACCAACAAGAAGCGAGGAAGGGGAGGGAAAAGGGAGGGCGAGGAAAAGGAAAGCUCCGAGCAAAACCAACCCCAGCCGGUAGGAAGGAAAACCGGAAGUGUGAGCAAAAGGGAGGACGAAAGUAAAACCGACGGCGAGCAAAAGCAACCCCAUCUAAACAACCGGAAGGAAAAGGAAGAGCAAGGAAAAGGAAAACCCCGGGCAAAACCAACAUCAACACCAACGAACAUC'
p234
aF0.8626760563380281
aa(lp235
S'Shapes and Energy'
p236
aS'AAAAAAGGGAAUGGAUCAAAAUGAAGAAUGUAAAGGAGGUCGAAAGAACAGGACAAAAGAUAAGAAAUUAAACAGUGCACAAAAAAAAAAAAAAAAAAAAA'
p237
aF0.9801980198019802
aa(lp238
S"Spiral of 5's"
p239
aS'GAAAGGAAACAAAGAGAAAAAGAUAAAAAAGAUACAAGGAUAAAAAGAUAAAAGAUACUAAUGACACAAAGAUAAGAGGAUAAAAGAUGAAAAGAUGUAAGGAUAAUAGACAGAAAGAUACAAGAUACAAGGUACAGUGGACAAGAAGCUGCUACGGAGGCAGGGAAAAAAUCUCUGGGACGCCUCAAAAAGUAGCUAAACGCUUCGAAAAGUUCAAAAAGGUAUCAAAAGGUAUCAAAAAGUAUCAAAAAUUGUCAAAAUUUAUCAAAAAAUAUCAAAAAUUAUCAAAAAUUAUCAAAAAUUAUCAAAAAGUGUCUAAAUGUAUCAAAAAUUAUCAAAAAUUAUCAAAAAGUAUCAAAAAUUAUCGAAAAUUUUCAAAAAGUUUCAAAAAUAAAAA'
p240
aF0.9949622166246851
aa(lp241
S'Campfire'
p242
aS'AAAAGAACAAGGUUGAAUCAUAAGUAGUAAAUUUACGGCUACAAAGUACCUUGCCAGAAGUAACGAGUAGGAUCUAAUGAAUUUCUCGGUGUUAGGACGAGGGAAACCCGCUGCGCAGCCAUAGGUACGACGCAGGCACACGACCUCCCAGCCGCGGGCCAGACAGAACGAAAGUUCGUCGGUGGGAAAGCAAGGCUAUUACCCACGCAUUC'
p243
aF0.9433962264150944
aa(lp244
S'Anemone'
p245
aS'AAAGAGGUUGAAAGACCUCGGUGGGAAAUCACCGAUAAUGAAAGUUAUCGCUUCAAAGGAAGCCUCUAUGAAAAUAGAGCAUCCGAAAGGAUGGACAGUAAUCUGUCGAUAUUAAAGAAUAUCUUACGUGAAAACGUAGAUAUCGAAAGAUAUCCCGACGAAAGUUGGCACGGGGAAACCUGUGUCUCUGAAAAGAGAGCGCUAAAAUUAGUGU'
p246
aF1.0
aa(lp247
S'Fractal 3'
p248
aS'AAAAGGCACACUUAAUGAAAGUUCAAAGGAAGAGAUAGCUCUAAUGUAAGAAAUAACAAUCUGAAUGAAAGUGGAAAAUCACGGGAAGAGUAAAACCGGAAAACAGUUCAGUGCAAAAA'
p249
aF0.865546218487395
aa(lp250
S'Kyurem 5'
p251
aS'AAAAUAAUGCCAGCUUAAUGUUGCAAAACAGUCUGACAAACUCAAAAGGGGCUCAGCAGAAAAAGGCCGAUCAGUAGCAACAUUUAAAAAAAAAAAAAAAAAAA'
p252
aF0.9423076923076923
aa(lp253
S'Snowflake Necklace ( or v2.0 )'
p254
aS'GAUAAUUAAGUAUGGAGCUAGAGGUAAAACCAUGAAAAGCAAUGAAAAAUAGAAAAAAACAGCGAAACAUGACUAGCAGGCAAAAAGCCAGGACGACGAAAAACGAGGGAAAACAGUAGAAAAUAAUCAAAAAUAUUGAAAAACAACGACCUGAGAAAAACACUGAUUGAUCAAAAAGGCCCGAAAAGGUUGAAAAACAGUGAAAAACAACGUAAAUCAGCAAUCAGUGAAAAACACGGGGUAAGGAAAAACCGUGAAAAACCAUGAAAAACAGGAGAAAACCAGGAAAAACCAUACUAAGUAAAAAAUACACAUGAAUGAAAAACGAGGGAAAACCGUAAAAACUAAAGAAAAACUAUACAAAUCAGUCAUGACUAUGUUUGGUUAUU'
p255
aF0.8457583547557841
aa(lp256
S'Methaqualone C16H14N2O Structural Representation'
p257
aS'AAAAAAAGUACAGGACAGAGGCUGAAAACAGACAGAGCCAAAAGGCGGAGAGACAAAAGUCAGAGAGUCAAAAGACAGAGGAAAAAACUUACUCACUCACUGACUCAGAAACAGUUCAGUACAAAAGGCUGAAAGGAAACCAAAAAAAAGGGGGAGAGACAAAAGUCUAGUAAUCUGCAUAAAAAUGCUUACCAAAGUACAGAAAGGGACAGAAAGAGAUCUAGAGAAAAGCCAAAAGGCACUCAGUCAAAAGGCAAGAGGACAAAAGAUACUCAACCAAAAGUUGUUCUGUGUAGAAAACUGCUGAAAACAGAGACAAAGGUCCGCUGGCAGUACAAAGUGCAGUACAAAAAAA'
p258
aF0.8760563380281691
aa(lp259
S"Cat's Toy 2"
p260
aS'AAAGGUGAUAUCCAAAGUAUAAAAAAAAAAAAAAAAAAAGAAAUAAAGUAAAAGUAGAAGAGAAAUCAAAAAAAUUAGAAAAAACGAUAUCGCAAAA'
p261
aF0.9587628865979382
aa(lp262
S'Zigzag Semicircle'
p263
aS'AAAAUGUACAGCAUAAAAGACGAUAGUACAGAAA'
p264
aF0.9411764705882353
aa(lp265
S'Short String 4'
p266
aS'AAAAAAUUAGUAAAGUAGAAAGGGCAUGUAAUCGGUUACAAUGACGUAGGAAAACUAGCGAACUAACUCUAAGCAGAAAAAAAAAAAAAAAAAAAAA'
p267
aF0.9381443298969072
aa(lp268
S'Gladius'
p269
aS'GGAAACAGAAAAAGGAAAGUGGGAAAAAUCCGAGUCUAAGCACAAAAGUGCAGAUACAAUAGACGAGAUUAUAACAGAUUGACAGAAAUAGGAGAUAGAGGAUGCAGUGCAGUCAAAGAUCUAUGAUCAUGAACGCACGUCAUCAACUAUCCACUAUUUCAAGAGGUCAAGGGUGAAACAGUCAAAAGUAUCUGACAAAGGCACUAUAAGAAGACAGUAGAUCAGAAGAUAAGAAUUUGUUCAGUAUAAACAAGUACUAUGGUGACUGAUUUCUAAUGAAAUCUUGUCUACAUAAGGCUUAGUUAUAACGGAUAAAACAAUAUCACAAGAUUUCGAGUCACAGUAUGGCGAAGUAAUCUUCCAGGCCACGGAAAUAACGGUAGAAACAAAAUAAGAAAAU'
p270
aF0.905
aa(lp271
S'Thunderbolt'
p272
aS'CCUAGAUGCAAAAAAAACUGGGAGGGGAAAAAGAAAGCAGAGAUAUCAUAGAACACCGUAAAAUGUAUGAAAAAUACUAAAAGACAAAGGAGGAAAAAAAACAACAAAAAAGGAGAAGGAAGGAAAAGGAAAGCACAUCAAAAUGCGAAAAGGAAAGAGACGCGCUAACAAAAACGCGGUACGAAAAAAAAAAGGAAGCAAAAGGAAAACAAAAAAGUGAAGUACAAAAAAAAGAUGAAAAAGAUAUAAAAUAUAUCACCAACCGAAAAAAAAAAUCAACCAAAAAAAAAUUAGAAAAACGAUGUUGAAAAGAAAAAAAAUAAAAAGACAUCAAUAAAAAAGAUAUCUCGAAAAAAACGCCAACCUGAAAAACAAAAAAAGGGCAUCAUGGA'
p273
aF0.9744897959183674
aa(lp274
S'Mutated chicken feet'
p275
aS'AAAAAAGACAUUAAGAAACCAGUAAAUCAAGACGCAGUAGGACGAAAACUGCAAAGCUAGCCACAAUAGCAUCAAACCAGGAAACCAAAGCACAAAAAAA'
p276
aF0.9
aa(lp277
S'Chicken Tracks'
p278
aS'AAAAAAAUUUUAGGACGGGAAAAACCGAACACGUAAUCGUGAAGUACAAAGGUACCCAUAUUUGGACGUUCGAAGGAAAUCCUCAAACAGGUACCAAUGUUCAUGUUAAAUAAAAA'
p279
aF0.9827586206896551
aa(lp280
S'Looking Back Again'
p281
aS'GAGAAUACAGCCUAAAGUAGUUCUAUGAAUUGUGGGAAAGUCGACAAUAUAAAGUAGACAGAUACAAAGUCCAAAAGGACAAAAGUAUCAAGGCAGGUAAAGUACGAUCAAAAGAUGCAAAAGCGUCAAAAAAAUAAAGAUGGUACAAAGUACCGAUACAAAGUAUCGGAGUCCCGAGAGGAGGGAGAAGAAGCAGGAAACUGCGGCGCAACCAACAGGCCCAAAAGGGAAGAUAUCAAAGUAUCGUGCUGAUAGAGUUCGAAACGAAGUAUGAAAAAAAAGUAUAAAAAAUACCAUAAAACGCAGAGCGAGAUAAAAAAGGAUGUCAAAAGACAUUGAGCCGGAAACUGUAUACAAAGUAUGAAGGCGCAAAUUCUCCGAUCGAACUC'
p282
aF0.8766066838046273
aa(lp283
S'Multilooping 6'
p284
aS'AGGAGUGUGCCGCUCAAAGGUCCGGAAGCGAAAGCUUCGCUUUGGUGACAAAGGUCAACUUAGGAAAUCAUCCGAUAUUCAA'
p285
aF0.926829268292683
aa(lp286
S'Cesspool'
p287
aS'GAUGAAUUAAUGAAGACGAGAGAGUCAAAUGCAAUAAGGACUAAUGAAGAAAACAACAGAAGAAAACAACAAAAAUGAAAGAACUACAAGAAGAGGUAAUCAAGGCGGGUAAGGAAAAGACGGCAUCAAACCACGAAUAAAAAAACAGAAAAAAAUAACAAAAAGAAAACAACAACAAGAAAGAGGAAAACAAGACGAGAGAACCAAAGUUAACAACAAACCAUCAAGAAAACGAGUGUAUAAAAGAUCAAAAACAAAAGACCAACCAAUUAACAACAAAAGAAGAUGAGAUACCCAAAGAGAAGAACGAAUCAACAAGAAAACAAGAGAAGGAAAUAACAAAAAGAAAAUACAAACG'
p288
aF0.7681564245810056
aa(lp289
S'Hoglafractal'
p290
aS'ACAGGGCACAUGCAAAAGAUACAAAAAGGUAUCGCAUGGACGAAUUCUCAAAAAGAAAUGACAACAAGACAAAAGUCGUGUGAGAAAGUCGAAAGUACAAAAAGGUACGUACGAGAAGGUAAAAAACCUUAGGACGAAAACGCCACACCUAAAGAUAAGGCAAAAAAGCCACCGCAGUAAAAAACGCAUCGAAAAGUGGAUAGAAAAAGGAGGAAAAAACCCCGGCAAAAGGCCUGAAAACAAGAUGUUAAAAAAGACUAAAAUGUCAGAAAAACUAACGAUAAGCAAGGCUUAUCAAAAAAAGAUGUCAAAAAACCAUCAAAAUGAUCGAAACUCUAACCAACUAAGAGUAGUACAAAAGGGAAACCGGGAAACCCAGGUCGAAGACCUGGAUACGUUC'
p291
aF0.93
aa(lp292
S'Bullseye'
p293
aS'AAAUAAGUAUUAUAUACAAGUAGAAACUACAAGUACAAAGUACUUAGAAAAAAGGAUGUAGGAAUUAUAGGUACAAAGAACAAGUACUAUGUUCAUCAAAAAAAAGAGGUACAAAGUACAAGUCCAAAGUACAAGAACAAAGUUCCUCAAAAAAAAGUCGUACAAAGCAGAAUAACUAUGUUAAAAUCCAAGGUACGACAAA'
p294
aF0.8415841584158416
aa(lp295
S'Shooting Star'
p296
aS'UUAUACAUACCAUAUUCGAUGAUGAGCUUACAGAGAGCAAAGGACUUACGUGAGAUGAUCUAGAAUAUCCGAUGGAAUAGUAGCGGAGAGGAUCACUUAGUACAGCAAAAGAUGUAACAAGGAGUUCCUUCAGAAAUUAGGUAAAAAUGGUAUCUUGCGCGACGAAGUUGCAAUUACAAAGUAAAGAGGAAACGUCGUAAAGUAUAUUAGACCAGAAAGAAAUACGAAGUAUUUCGGCUAGAAACUGUCCAACCAGGAUCGAAGACUUUGAGAUAAAACUUAUGCGAAGCAGAACAAAAGGAAGAAAAGGAAAGACAGUACCUCAAAAGAAGUAACGUCCUAACAAUACAGCCAGCAGUAUAAA'
p297
aF0.7527472527472527
aa(lp298
S'Teslagon'
p299
aS'AAAAAAUGGAAAAAUGAUGAAAAAAAGAGUAUAAAAAAAAAAAAAAAGGUAAAAAAAUAAAAAAAAAAAAAAAAAUCAUCAAAAAAACUUGUAAAAAAGCGAAAAAAAAAAAAAAAACAAAAAAAAUAGGAAAAAAUGUACGGAAAAAAAAAAAAAACGAAAAAAAAUAGAAAAAAAAAAAAAAACCAACUAAAAAACGAGGAAAAAAAAGAAAAAAAAAAAAAAACUAAAAAAAACGGGAAAAAAAGGAGGAAAAAAAAAAAAAAAUCAAAAAAAAGGUAAAAAAAAAAAAAAACCACCAAAAAAGCUAUGGAAAAACGGAAAAAAAAAAAAGUAAAAAAAAAAAAAAAGCACCAAAAAAACCGUCUAAAAAACAAAAAAA'
p300
aF0.9109947643979057
aa.