(lp0
(lp1
S'Simple Hairpin'
p2
aS'GAUACAAAAAAGUAUC'
p3
aF1.0
aa(lp4
S'Arabidopsis Thaliana 6 RNA - Difficulty Level 0'
p5
aS'GCAUAAUCAACGAGAAAAAAAAAAACUCCAUAAUAGUGGAUAUUAUAAUAUCAUAUCAAAGAUACAAAAAAGUAUCGGAUAUGAAUAUUAUAAUAUCUGUUAUUAUGAAAUUAUGC'
p6
aF1.0
aa(lp7
S'Prion Pseudoknot - Difficulty Level 0'
p8
aS'AUGCUCAUAUCGAAAGAUGGAGACAUAAAAAAAAAA'
p9
aF1.0
aa(lp10
S'Human Integrated Adenovirus - Difficulty Level 0'
p11
aS'GAUAGUGAGACGUCGGCUAUGAAAAAAAAAUAUGUGUUUAAGUUAACAAGAGGUGUCAAAAGUGCGUAAGGUACGAAAAAAAGUAUCUUACGAAAAUACGACAUAAAACACAACAAAAUUAGGAACAUAUAGAAAAAAGCUAUAUCACAUAAAAAAAAAAGCAUAGCAGACGAAAAUCUCACAAAUAUCAAA'
p12
aF0.9791666666666666
aa(lp13
S'The Gammaretrovirus Signal - Difficulty Level 0'
p14
aS'AAGUCUCGCUAUCAAAGGAUAGCCUGUCAAAAAAGGUCAAGGGAGCUGCUAAGAAAGCUUAGGAAAUGGCCCCGAUCAAGCAUAAUUGAAAGAUUAUGCAA'
p15
aF1.0
aa(lp16
S'Saccharomyces Cerevisiae - Difficulty Level 0'
p17
aS'GUUUGAGGAACGAAAAAAAGUUCUCUGAAAAAAAAAAAAAAAGUAAAUAUACAAAAAAGGUAUGCUCAAACAAAGGCCUAAUAAGAGUAAAAAAAGAUUCGUGAAAAAAAAAAAAACAUGCAGGUAUAGAAAAAAUAUAUGUUAGGCAAAAGCCGCUCAAAAUCUAAAAAAUGAGUCAUACUGAAAAAAGGUAUGCAAAUUAUGAAAAAAUUAUAAGGGCGGCGAAUAUUCUAGAAUGACGAAAAAAAGUUAACCACAUAAAAAUUGUGGUAAAUCUGGGGAAAAGAUCUAGCUAAAAGUAAGUGGGUAGAAGAUGGAAAAAAACAUCGGUAGUUAAAAAUGCUACCCAAUCGUUCAAAAAAGGAAUGUUAUCCGAAAA'
p18
aF0.9736147757255936
aa(lp19
S'Fractal 2'
p20
aS'AAAAAGCAUAAUCAAAGAUAGAUAUCAAGAGGAAAAAAAAAACCUCAAGAGGAAAAAAAAAACCUCAAGAUCAAAAAAAAAAGAUCAAGAUAUUUAUCAAAGAUAUAUAUCAAGAGGAAAAAAAAAACCUCAAGAGGAAAAAAAAAACCUCAAGAUCAAAAAAAAAAGAUCAAGAUAUAUAUCAAAGAUAUAGAUCAAGAGGAAAAAAAAAACCUCAAGAGGAAAAAAAAAACCUCAAGAUCAAAAAAAAAAGAUCAAGAUUUAUAUCAAAGAUUAUGCAAAAA'
p21
aF1.0
aa(lp22
S'G-C Placement'
p23
aS'GUAGAAGCUACA'
p24
aF1.0
aa(lp25
S'The Sun'
p26
aS'ACUAGACGGUGAAAUACCAAGUCAGUAAUGAGAACGCAUCGAAGAGGAUCGUCUCUAUGAGAGCAUGCGGAACGCAAAUGCCUCUAAAGGACCAGUGCUAUGCACAAUGGCCUGAAUGGACCCGUUGAAGCGACUAGGGCGAAAAGUGAGGUGUGGAAGCCACAAGCCCACAAAGAUAGCCGAACGAAGUUCAAGGCAUCGAAUCGAGCACUCCAAGGGAGAAUGCCGGGAAAACAUCAGGGGAAACCUCAAUGAGGU'
p27
aF0.9922480620155039
aa(lp28
S'Frog Foot'
p29
aS'AAAAAAAAAAACUUGAAAAAGUCUAUGAAAAUAGCACGAAGCGUG'
p30
aF1.0
aa(lp31
S'InfoRNA test 16'
p32
aS'GCUAUGAGCGGAAUCGAAAGAUUCACGACACAUAGC'
p33
aF1.0
aa(lp34
S'Mat - Martian 2'
p35
aS'GAUCGAAAGAUUAAAGCAUAAGAAGCAUAAGAAAAAAACUUAUGCCUUAUGCAAAGCAUAAUCAAAAAAGCAUAAGAGCAUAAGAAAAAAACUUAUGCCUUAUGCAAAGAUAUUAGUAUAUCAAAAAAAGAUAUACAUAAUAUCAAAAAAGAUUAUGCAAAGAAUAUGCUAUGACAAAAAAAGUCAUAGAACAUAUUCAAAGAUCGAAAGAUU'
p36
aF1.0
aa(lp37
S'square'
p38
aS'GCAUAAGCAGUGGCAUAAUCCAUGUCAAAGACAUGAAAAGAUUAUGAAAACCACUGAAAAUUUAUGC'
p39
aF1.0
aa(lp40
S'Six legd turtle 2'
p41
aS'AAAAAGGUAAAGAAACCCAAAGAUAAUUAAAACGAAAACGAAAGGAAAAUCAAUUGGAAACCUAGCGGAAAUAAAGCGAAAAAAAAAAAAAAAAAAAA'
p42
aF0.9591836734693877
aa(lp43
S'Small and Easy 6'
p44
aS'UAUGUAAAAGACUAGCAAAAAAAAGGGGUA'
p45
aF0.8666666666666667
aa(lp46
S'Fractile'
p47
aS'AAAAAAAAAAAAGAGAAAUCAAACCAAAUGGAAACGAAGGAAUGGAAAACCUAACCACGGAAAACCAAAGGGAGGGAAACCAAAAGAAAAAAAAAAAAAAAAAAA'
p48
aF1.0
aa(lp49
S'Six legd Turtle'
p50
aS'AAAAAGCAAAAGAGAAAUCAAAUGGAAUAUUUAAAACUAAUGUAAAGGCAAAGGCAAAUGUAAAGGUCAAAAGAAAGAUAAAGGCAAAAAAAAAAAAAAAAAAAA'
p51
aF0.9619047619047619
aa(lp52
S'snoRNA SNORD64'
p53
aS'GCUGUCAAAAAGCGAAAUGAGAAAGAUACAAAAAAAAAAAAAGUAUCAAAACUCUAUGCAAGACAGC'
p54
aF1.0
aa(lp55
S'Chalk Outline'
p56
aS'AAAAAGAUCAGAGCCGAAAGGACUCAAUCAGAGAAAACUCGAUAGCUGCGAAAACGACAGCAGGCUCGAAAGAGACCGAUCAAAAAAAAAAAAAAAAAAAAAAA'
p57
aF1.0
aa(lp58
S'InfoRNA bulge test 9'
p59
aS'GCAUAAGAGAGAGAGCAAAAGAAAGCUUUUGCCCCCUUAUGC'
p60
aF1.0
aa(lp61
S'Tilted Russian Cross'
p62
aS'AAAAGAAUCAGGUAAAGGCCGCUAUACCAAGACAAUGGAGGGUGAAAAUAAUACAUGAAAGUAUCAUGGAAUGGAAAUGUUUGUUAAAAAAAAAAAAAAAAAAAA'
p63
aF0.9047619047619048
aa(lp64
S'This is ACTUALLY Small And Easy 6'
p65
aS'AAAAAAAAAAAAAAAAAAAAAAAAAAAAAAAAAAAAAAAAAAAAAAAAAAAAAAAAAAAAAAAAAAAAAAAAAAAAAAAAAAAAAAAAAAAAAAAAAAAAAAAAAAAAAAAAAAAAAAAAAAAAAAAAAAAAAAAAAAAAAAAAAAAAAAAAAAAAAAAAAAAAAAAAAAAAAAAAAAAAAAAAAAAAAAAAAAAAAAAAAAAAAAAAAAAAAAAAAAAAAAAAAAAAAAAAAAAAAAAAAAAAAAAAAAAAAAAAAAAAAAAAAAAAAAAAAAAAAAAAAAAAAAAAAAAAAAAAAAAAAAAAAAAAAAAAAAAAAAAAAAAAAAAAAAAAAAAAAAAAAAAAAAAAAAAAAAAAAAAAAAAAAAAAAAAAAAAAAAAAAAAAAAAAAAAAAAAAAAAA'
p66
aF1.0
aa(lp67
S'Shortie 4'
p68
aS'AGGAAACUAGGGAAACC'
p69
aF1.0
aa(lp70
S'Shape Test'
p71
aS'AAAAAGUGACCAAGAUACAAAAAAAAGUAUCAAGGGACUCAGAUACUAAAUGUAUCAGAUCGAAAGAUUGGAGCCCAAGGUCUCAAAAAAAAAAAAAAAAAAAA'
p72
aF1.0
aa(lp73
S'The Minitsry'
p74
aS'GACAAAAAGAGAAAAAGCGGAUAGUAUAAAAAGGUAAAAAAAAGCCGAUGACGCACUCGGUC'
p75
aF1.0
aa(lp76
S'stickshift'
p77
aS'AAGCAUAGCCAAAAAGGACUAUGCAA'
p78
aF1.0
aa(lp79
S'U'
p80
aS'AAAAAGAUACAGAGAGGAGAGCAUAAUAUUUAAGUAUUAUGCCCCCCGUAUCAAAAA'
p81
aF1.0
aa(lp82
S'Still Life (Sunflower In A Vase)'
p83
aS'AAAGCUGGAGUUACAAAAAGUAGCAUGGCUCAAGGAGCCUAGAUAUGAAAAAUAUCAACCUCCAAAGGAGGAAGAUUCAAAAUGGAUCAAGAUCCAAAAAGGAUCGGAUAUUACUAGAUUAUAAUAUUCCUAUCAAAAAAGAUAGACAUACUAAAAAAAAAAAAGAUCAAAAAAAAAAAAAAAAAAAAAAAAAAAAAAAAAAAAAAAAGGAUCAAAAAAAAAAAAUGUAUGCCAUGGAAACAUGGAGGAUAUUAUAAUUUGGUAAUAUCAGCACGGGAAAAUUGUGAAGACACGAAAAGUGUCAGGAUCAUAAAUUGAUCAAGAAAUGAAAAAUUUCAAGAUACGAAAGUAUCAUGAUGCAAAAAGUAUCGCAGCAAA'
p84
aF1.0
aa(lp85
S'Quasispecies 2-2 Loop Challenge'
p86
aS'AAAAAGCUGGCAGUGCAUCAAAGGAUGUGUUGCAGAUCAACAAGGGGGAUCAGAUCAGGAGGAUAAAAAAUCAACAGGAUCCAGCAAAAAAAAAAAAAAAAAAAA'
p87
aF1.0
aa(lp88
S'Corner bulge training'
p89
aS'AGCUAUCCUAUCAAAGAUAGAAAAGAUAGCA'
p90
aF1.0
aa(lp91
S'Spiral'
p92
aS'AAAAAGAUCAGCUAUCAGAGAGAUACAGAUCAGAUCAGGAGGAGGAGGAGGAGGAAAAACCCCCCCCCCCCGAUCGAUCGUAUCCUCGAUAGCGAUCAAAAA'
p93
aF1.0
aa(lp94
S'InfoRNA bulge test'
p95
aS'AAAAAAAAAAAAAAAAAAAAAAAAAAAAAGACCAAAAAUGGCCAAAACGCCGAAGGCCAGCGCCAGGCCAAAAAGGACCGGGACGAAGGACCAAAGGACGAAAAAGGACCUAAAAAGGAUCA'
p96
aF1.0
aa(lp97
S'Worm 1'
p98
aS'AAAAAAACUUCUAGAUCGGGCGAGAAUAUACGAUAAAGCAAUGAA'
p99
aF0.8222222222222222
aa(lp100
S'just down to 1 bulge'
p101
aS'AAAAAGGCCAGAUACGAAAGUAUCAGAGAAAACUCAGGACCAAAAGAUCAGAGAAAACUCAGAGAAAACUCAGAUCAAAAAAAAAAAAAAAAAAAA'
p102
aF1.0
aa(lp103
S'Iron Cross'
p104
aS'AUAGGGACAAAGGGACUCAAAGAGAGACAAAAGUCACCCAAAGGGACUCGAAAGAGAGAGAAACUCACCCAAAGGCACUCGAAAGAGAGAGAAACUCAGCCAAAGUCACUCAAAGAGACUAGA'
p105
aF1.0
aa(lp106
S'loops and stems'
p107
aS'AAAAAGCAUAAGAAAGAUGAAAGAUCAAAUCCUAAAAAAAAACAUACAAAAAAAAAAAAGUGUGGAAAGGGCAAAGAUCAAAAAAAAAAGAUCAAAGAUCGUAGAUGAAAAAAAGUCAAACAUCAAGUAGAAAAACAAACUUAUGCAAAAA'
p108
aF1.0
aa(lp109
S'Water Strider'
p110
aS'AAAAAGCAGUAUUUCCUAAGGGAAACCUGUCAAAGGACGGGCUUUUUUUCAUGAAAAUGAAGUAAACUUCAGGAAUAGCGGCAAAAAAAAAAAAAAAAAAAAA'
p111
aF0.941747572815534
aa(lp112
S'The Turtle(s) Move(s)'
p113
aS'AAAGGGAAACCGAAUGCGCGCUGCUAAAAAAAUGCAGCGCGCUAAAGGUCGAAAAGACCAAAAAGUCAAAAGACGAAGAUACAAAAAAAGUAUCAAAAUGUAAACCAAAAGGGAAAGGCAUAAGUGCAAAAGCUACCAAAAAAAGGUUGCAAAUGCGAAAACGCAAAAAACCAUGAAAAGAGAAAAAAACUCGAUGGGAAAAAAACCGAAAGAUGUAAAAAAACAUCAAAGAGAUAAAUUUCCAACGUGGUAAAAAAAAGGGGAAACCAAAAAGUAAAGACAAAAAUGGUACAAAAAAAAAGGUAUCUAAAAAACC'
p114
aF0.9873417721518988
aa(lp115
S'Adenine'
p116
aS'GAUACAGCUAUCAGCUAUCAGCUAUCAGCUAUCAGCUAUCAAAAGCUAUCAAAAAAGAUAGCAGAUAGCGGAUACAAAGCAUAAGAAACUUAUGCGUAUCAGAUAGCAGAUAGGAUAUUCAAAGAAUAUCAAACUAUCAGAUAGCAAAAGAUAGCAAAAGAUAGCAAAAGUAUC'
p117
aF1.0
aa(lp118
S'Tripod5'
p119
aS'AGGCAGGGUCAAAAGGACCGAACGAAAAGUUCCUGCAA'
p120
aF1.0
aa(lp121
S'Shortie 6'
p122
aS'CGGAAACGGGGGAAACCAGGUAAUCCAGGGAAACC'
p123
aF1.0
aa(lp124
S'Runner'
p125
aS'AAAAUGUUUGAACCUGCAUGGUCAAAGAUCUAGUUUAGGUGUAAAGGGCGAAGGUAAAGUUAACCGGGAACCGAAAUGCUCUCAAAGGAAAAGCGGAAUCACGUGCGGAACUAAAA'
p126
aF0.896551724137931
aa(lp127
S'Recoil'
p128
aS'AAAAAGAUACAAGGAAGCAAGAGAAGAGAAGGAAGCAAAGCACCACUCACUCAGCACCAGUAUCAAAAAAAAAAAAAAAAAAAAA'
p129
aF1.0
aa(lp130
S'[CloudBeta] An Arm and a Leg 1.0'
p131
aS'AAAAAGAGAGAGCCGAAAGGACUCGGGAGGAAAACCCCCAUUCAAAAAAAAAAAAAAAAAAAA'
p132
aF1.0
aa(lp133
S'[CloudBeta] 5 Adjacent Stack Multi-Branch Loop'
p134
aS'AUGUCCUUCGAAAGAAGCGUUCAAAGGAACGGUGAGAAAGCUCACGGUCAAAUGGCCGACAUA'
p135
aF1.0
aa(lp136
S'Triple Y'
p137
aS'AAAACGAUCGUUGGAAGAACGCUCGGAUUUAGUAAUUGGGCACAUGGAUUAUUAUCUCCGUUACUAUGGUUAUGGUCAAAAAAAAAAAAAAAAAAAA'
p138
aF0.9175257731958762
aa(lp139
S'Misfolded Aptamer'
p140
aS'GGUGAAAAAAGGGAGGAACUCACUGAAAAGAAAAAAAAACCGAAAGUACC'
p141
aF1.0
aa(lp142
S'Flower power'
p143
aS'AAAAGUAUCUACCUAGGAUGAGAGCCUAGUAUCAAUAGGCUCAAAGAGCAUGAUGUAUCAUCACUCGCAAGAAACUCGGAUGAAAAAAAAAAAAAAAAAAAA'
p144
aF0.9215686274509803
aa(lp145
S'Kudzu'
p146
aS'AAAAAGGCGGUAGAAGGGGAGGCGAUCAAAGGCGACGCCGAUGGGAAGCGACAGCAUUCGAAACUGUAAAUCACAUCAGUCAAAAAAAAAAAAAAAAAAAA'
p147
aF0.9801980198019802
aa(lp148
S'"1,2,3and4bulges"'
p149
aS'AAAAAGGCCGGAGCCGAAAGGGAAACUCAGAGAAAACUCGGGACCAAAAGGGCAGGCGAAAGAAACCAGAGAAAACUCAGCAACCAAAAAAAAAAAAAAAAAAAA'
p150
aF1.0
aa(lp151
S'medallion'
p152
aS'GAAUUUACGAAGGGAAACCUUCGGCUCGAAAGAGAAUCGAAAGAAACUGCGGGAAACUGCAGAGCCAAAUGUCAAUGUUGAGAGCAGUACAAUUGAAAAAGACUCGAACGAGUCUUCAAAAAAUUGAUGACACGAAAGUGGCUUUAGAAAACUAAAGACUCGAAAGAGGCUCGAAAGAGAGAUAACUAAUGUUAUUGGCCGAAAGGCUCAUCACAAAAGUGGUGACUCGAAAGAGACUCGAAAGAGGUAGAAGAAAACUUCUAACUCGAAAGAGGCGAAAUAAAAAUUUCGACUCGAAAGAGGUCUGAAAGGAACAUAUGAAAACGUAUGAGAGCUC'
p153
aF0.9703264094955489
aa(lp154
S'[RNA] Repetitious Sequences 8/10'
p155
aS'AGCAAAAAAGGCAAAAACCAAAAAAGGAAAAAAGCAAAAAAGCGAAAAAGCAAAAAAGCAAAAAACCAAAAAAGCAAAAA'
p156
aF1.0
aa(lp157
S'Documenting repetitious behavior'
p158
aS'AAAAAAAACAAAGGGAAAGAGAAGGGAACGGUAAGGGAAAGCAAAGGGAAAUCAAAGGGAAAGGAAAGGGAAAGCAAAAGGAAGCCAAAGGGAAAGGAAAAAAAAAGCCAAAAAGGACAAAAAAAGGGAAAAAAAAGGGGCAAAAAAGGGCUAAAAAAGGACGAAAAAAGGACAAAAAAAGACCCAAAAAAGGAAAAAAAAAAAAGGGAAGGGAAAGGAAAGGGAAAGGGAAGGGAAACGGAAAGGAAAGGAAAGGGAAAGUAAAGGGAAAUGAAAUGGAAAGGGAAGAGAAAACGAAAAAAAACCGAAAAAGGCGCGAAAAAGGGGCAAAAAAGGGUCAAAAAAGGGGGAAAAAAGGGGCAAAAAAGGUUCUAAAAAGGAUCAAAAAAGGGGGAAAAAA'
p159
aF0.91
aa(lp160
S'7 multiloop'
p161
aS'GCCGGUGUUGAAAGACACGUAUCGAAAGGUACGGGGCUAAUGCCCCGUUUCGAAAGAAGCGCGAUGAAAAUCGCCAUGCUAAUGCAUGCGGC'
p162
aF1.0
aa(lp163
S'Kyurem 7'
p164
aS'AAAAAGCAUGGGGGUUAAUACCUCCAAAAGAUCUGCGAAAAGCGCUGUAUACAAACAGGUAAAAUGCGGUCGAGUCCAAUGGGAAAAAAAAAAAAAAAAAAA'
p165
aF0.9509803921568627
aa(lp166
S'JF1'
p167
aS'GAUAGAGGUAGAGAUACAGGAUACAAAAGCUAUCAAGAUACAAAGAUACUAGCUAUGAGAUAUUAUAAUAUCGAAAGAUAUUAUAAUAUCAAGAGAAAACUCAGCAUAAUAUGUAAAUAUUAUGCAAGAUACGAAAGUAUCACAUAGCCGUAUCGGUAUCAGAUAGCAAAGCAUAGAGAAAAACUCAUAUGCAAGGUAUUAUAACAUUAUAAUAUUACGAAAGUGAUAUUAUAAUGAUUAUAAUAUCAAAGAUACAAAAAAGUAUCCAUAAUAUACGAAAGUAUAUUAUGAAAGAUGAAAACAUCAAGUAUCAAGUAUCGAUAGAGAGAGAGAAAGCUCCUCCUAUAGCAAGUAUGAAAACAUACAUUGCACUACACUCAUAUCAAA'
p168
aF1.0
aa(lp169
S'multilooping fun'
p170
aS'UGUCCAAGUAAAGGAAGAGACGGCGGGCAAAAGUCG'
p171
aF0.8888888888888888
aa(lp172
S'Multiloop...'
p173
aS'GAUCACAUCGGUGAAAACACGGAGAAAACUCAGCGAAAACGCACUGAAAACAGAGACGAAAGUCAGCUAAAAGGCAGAUGAUAUACAAAAAAGUAUGCAGGAAACUGGAUC'
p174
aF1.0
aa(lp175
S'hard Y'
p176
aS'AAAAGGAUAGGACCCAUAGGGAAACCUAUGGCGCCCAUAAAAUUAGAAAUAAUUUUAUGUAUCAAAAA'
p177
aF1.0
aa(lp178
S'Mat - Elements & Sections'
p179
aS'AAAAAGCAAAGAAAGAGAUAAGAGAUCAUCAGGUCCUCACUUGAAAAAGGGACGACCGUGGAUCAAAGCAUAUCACAAACGUUGCGAAAAAAAAAAAAAAAAAAA'
p180
aF0.9619047619047619
aa(lp181
S'Chicken feet'
p182
aS'AAAAUAGAGGGUGGAACCGGGAAGCAAAACACCUGGAGGAGGAAACUUCUGAAAGUAACCCGUAAAA'
p183
aF0.9701492537313433
aa(lp184
S'Bug 18'
p185
aS'GGAAGUACGGUGAGGCAAGCACAUAUUGGAGCAGCAGGAACGAAACGAAAUCA'
p186
aF0.9622641509433962
aa(lp187
S'Fractal star x5'
p188
aS'AAAAAGCAUAAUCAAGAUCGAAAGAUUAAGAUCGAAAGAUUAAGAUCGAAAGAUUAAGAUCGAAAGAUUAAGAUUAUGCAAAAAGCAUAAUCAAGAUCGAAAGAUUAAGAUCGAAAGAUUAAGAUCGAAAGAUUAAGAUCGAAAGAUUAAGAUUAUGCAAAAAGCAUAAUCAAGAUCGAAAGAUUAAGAUCGAAAGAUUAAGAUCGAAAGAUUAAGAUCGAAAGAUUAAGAUUAUGCAAAAAGCAUAAUCAAGAUCGAAAGAUUAAGAUCGAAAGAUUAAGAUCGAAAGAUUAAGAUCGAAAGAUUAAGAUUAUGCAAAAAGCAUAAUCAAGAUCGAAAGAUUAAGAUCGAAAGAUUAAGAUCGAAAGAUUAAGAUCGAAAGAUUAAGAUUAUGCAAAAA'
p189
aF1.0
aa(lp190
S'Crop circle 2'
p191
aS'UGAAUGGAAAAACAAAAAUAGAAAAAAAGGUUAAAAAAAAAAAAAAAAAAAAAAAAAAAAUGAAAAAAAAAAAAAAAAUGAAAAAAAAGAUAAAAAAAACUAAAUAAAAA'
p192
aF0.9454545454545454
aa(lp193
S'Branching Loop'
p194
aS'UCCCAGUAAAAAAUUUUGCAAAGGUAAAAUGGGUAAAAAA'
p195
aF0.95
aa(lp196
S'Bug 38'
p197
aS'GGGAGAAGGAGUAAAAAAUAGAAUUCAUCGAAAUCA'
p198
aF0.9444444444444444
aa(lp199
S'Simple Single Bond'
p200
aS'AAAAAAGGAAAAAAAUAAGCGAAAAGCUUUAAAAAAAACAAAAAAAAAAAAAAAAAAAAAA'
p201
aF1.0
aa(lp202
S'Taraxacum officinale'
p203
aS'GAGCGAAAGACUUAGAGCGAAAGACUUAGAGCGAAAGACUUAGAGCGAAAGACUUAGAGCGAAAGACUUAGAGCGAAAGACUUAGAUAUAUAUACCAUAAUAGUACAAAGUACAUAUUAUGCGAUACAAGAUAUAUAUCAAGCAUAAGAAACUUAUGCAGAUAUAUAUCGAUCAGCUAUCAAAGAUAGCGAUCGUAUCCAAGUAUAUAUAUCAGAGCGAAAGACUUAGAGCGAAAGACUUAGAGCGAAAGACUUAGAGCGAAAGACUUAGAGCGAAAGACUU'
p204
aF1.0
aa(lp205
S'Headless Bug on Windshield'
p206
aS'ACUAAGAAAAAGGCAUAAAUGAGACAAAAAAAAAAAAAAAAAAAAAAAAAGUCACAAAAGUGACCAAACUAAGCCAGUAAGGAAGCAAAAAAAGAAAAAUUAAAAAAGGCACCAAAAAUCUGGACACGGAAAAAAUAGAAGGUGUAGACGGGGGGAAAAAAAAAAAAAAGCUCAACCUGUUAUGUCACUAGAGUAAUGAA'
p207
aF0.96
aa(lp208
S'Pokeball'
p209
aS'AAAACGUAGGAAAAGGAGAUAAGGAAAGUAAACGAAUAAAGUGACAAGGAAACCAGUAGAUGGUAGCGGAUGUCCGAUACCUCUAUGUAAAAAAAACCUUUAUAAAACGAUGUUAAAGAGGGUAGAAAGGAACGUGGGAAACAAGGCACGAGCGCCAAUCGGCCACUUUACUCGAUCGAGGAAA'
p210
aF0.9130434782608695
aa(lp211
S'Variation of a crop circle'
p212
aS'AAAUGUAAAAGUAAAUUAAAAGUGAAGAAAGGAAAGCGACUGAAACGAAAAAAUAUAAAAACUCAAAAAAAAAACUAAAAAAAAAAAA'
p213
aF0.9318181818181818
aa(lp214
S'Loop next to a Multiloop'
p215
aS'AGUCAUAAAGAAAAAAACAUCUAUCGAAAGAUAGGGUCAUAAGGAAACUUAUGAAGAAAAAAACUUUAUGGAA'
p216
aF0.9726027397260274
aa(lp217
S'Snowflake 4'
p218
aS'GAUCAAAGGUUCUAACCCUAAUGGCUAUAAAAAGGGUUGAAAAGAUAAACGUGAAAUAUGAAUAGGGAACUUCCUGAUCCGAAAGGCUCUUAGGAGACUUGAAAAAGAUAGCAACAAAGUUGAAGAUCAAAGCUCUUGUUCCAAAGAGGUCUCAGGAUACCCGAAAGGCAUGGCUACUAUGUAGAAGGUCGAAGACCCCAUGUCGAAAGAGUAUCAUGAUACCCGAAAGGGCGAGCGACAAAGUCGAAGGUCGAAGAUUCUCGUCCGAAAGAGUGUCUUUAUGCACAAAAGGCAAAGUAUCGAAGAUAAAGAUAAAAUUUCCUUUGUCAUACGGGCAUAUAUAUAGGGUAAUUCGCUUGUAACAAAGAUC'
p219
aF0.8918918918918919
aa(lp220
S'Mat - Cuboid'
p221
aS'GAAGGAAAAGUAAAGAAAAGCAAUGAAACGAACCAAGGAAAAGCAACCAAGGAAAAGAAGCAAGAAAGGAAAAGCAUGAAAGCAAGGAAAAGCAAGCAGGCAAGGAAGAAAAAGGUGGGUGGGUGGGUGGGAAAAGGAGGUUGGGUGGGUGGGUGGGAAAAGGUGGGUCGGUAGGUGGGUGGGAAAAGCUGGGUGUGUGGGUUCGGGUGAAAAAAUGGGUGUGUUUGUAUGUCUGGCCCUGUCUGUCGGUCAUUCUGUCCCUGUCUGUUUGUCUGACUGUCUCUGUCUGUCUGUCUGUCUCAACCAAGCAAGCAAGCCCAAGCAAUCUAGCCCAAGAAGGCAAUUCAAGGGAGCCGAAGCAAUUAAAGCCGAAAGCAAAG'
p222
aF0.9763157894736842
aa(lp223
S'Misfolded Aptamer 6'
p224
aS'AAAAAAGUGAAAAAAAGUAAACAAAACAUGAAAAAAAAUGAAAGGGAAAGUAUUGAAAAAGCACAAAAAAAAAAA'
p225
aF1.0
aa(lp226
S'Snowflake 3'
p227
aS'GAGCCGAAAGGAGAGCUCGAAAGAGAAGAUGGGAUCAAAGGGAAACUUGUCAGGGAAACUCUUAAAGAGCAGAAAUGAGAGCUCUAAUGAUAAGAUAAGAUCAAGGGAAAAAUACUCUGGAAAACCCUCAAAGAGCCGAAAGUUCAGCUCGAAAGAGAAGAUCAGAUCAAGAGAAAACUCCUCUAGUAAUCCCUGUAAGCGCGGAAACGUGAGUUCGAAAGAAAAGACCGGAUGAAGAGUAAUCGCCCCAAGAAAACCCGCAAAGCGCCGAAAGGAGGGCGCGAAAGCGAACAUCUGCACAAAAGGAAACCUCUCGGGAAAACCCUGAAGCAGCCGAAAGGAGAGCUCAAAGGAGAAGAUCUAAUCAAGAGAAAACUUCUCAGGUAAUCCCUC'
p228
aF0.7684478371501272
aa(lp229
S'Hard Y and a bit more'
p230
aS'AAAACGCGACGCUUCUAGGAAACUAGUAGCGAGACAGGUGGAGCGAAAGCUCAAGAUACAAAAAGGUAUCAUUCGGUCUCGUUGCUAAAAAAAAAAAAAAAAAAAA'
p231
aF0.9716981132075472
aa(lp232
S'Mat - Lot 2-2 B'
p233
aS'GAAGCCUAGGCCUGGUAAAUGUUGGACGGAAACGAAAAUCUGGUGUUGGGAAAACCUUGGCGAAGGAAGGUAGGGGAGGUAAAAGGGGCUGCUGGGAAAAGUAAAAACCCUGGCAAAAGGUACCCCUGUCCCUUGCAAGGAAAACCGGUGGGCCUGUUAAAAGGUGGUGCGAAAGUAAAAACUGUCGCUGAGAAAAGCUCCCCCUGGGAACAGGUCCCUCAGAAAAGAUGUAAAUGGGAAAAGGAAAACCCCUGGUAAAAUAUGUCAGUGGGCAAAUUAACGAG'
p234
aF0.8838028169014085
aa(lp235
S'Shapes and Energy'
p236
aS'AAAAACGAGAUCGGGUCAAAAGGAGGAUCAUGAAAAGGAUCAAACGGCCAAGGUGCGUUGAUCGAAAGAUUCCAGAUCGCAGAAAAAAAAAAAAAAAAAAA'
p237
aF1.0
aa(lp238
S"Spiral of 5's"
p239
aS'GAAAAGAUACAAAGAUACAAAUAUACAAAAGAUUCAAAGAUAGAAAUAUAUUAGAUACAAAAGAUACAAAGAUACUAAGAUCCGAGAUACAAAGAUACAAAGAUACAAGAUUCAAAGAAACUAGAUACAAGAUACUAGAUACAAGAUACAGAUACAGCUAGUAUUCAAAAAGAAUGUUUUACUAGCAAAAAGUAUCGAAAAGUAUCAAAAAGUAUCAAAAAGUAUCAAAAAGUAUCAAAAUGUAUCAAAAAGGAUCAAAAAGUAUCGAAAAGUAUCAAAAAGUAUCAAAAAGUAUCAAAAUGUAUUAAAAAGUAUCAAAAAGUAUCAAAAUGUAUGAAAAACUAUCAAAAAGGAUCAAAAAGUAUGAAAAAGUAUCGAAAAGUAUCGAAAAUAAAAA'
p240
aF0.9949622166246851
aa(lp241
S'Campfire'
p242
aS'AAAAGAUCAAGCUGCAAGAUGAAGAGGGAAAAUCUCGCGGUCGAAGACACGCCAUCUGGCUGAGGACGUGAGCCGAAAGGACUCCGCCUCGCCUGGACGAGGAAAACCCCCCGAUGAAGCGAAAGCCAUCGUCAUGGACGACAGACUCGCAGCCUCGUUGAGAGUCAUCUAAUGAUGCUCCAAGAAGGGACUAUGUCACCAUUCAGAGGGUC'
p243
aF0.9905660377358491
aa(lp244
S'Anemone'
p245
aS'AAAGUAAGCAAAGGCUUACGCUAUAAAGAUAGCGCUAUCGAAAGAUAGCGAUAGGAAACUAUCGGUAGCGAAAGUUACCGCUACGAAAGUAGCCAUGCGAAAGCAUGUCUAUGAAAGUAUAGAACUACAGAAAUGUAGGAUAUCGAAAGAUAUCCUUACGAAAGUGAGUCUCGGGAAAUUGAGACUAUGGAAACAUAGCGGGCGGAAAUGCCUG'
p246
aF1.0
aa(lp247
S'Fractal 3'
p248
aS'AAAAGUACCACGGAAGAAAACUCGGAAAUCGCUGAAAUAAGAAAAAUUCAAAAGGAGUGAGAUUUGAAAACCGCGAAAGCUAUCGAGGACUGAAAGGCGUAAACGACUCACGUCAAAAA'
p249
aF0.8823529411764706
aa(lp250
S'Kyurem 5'
p251
aS'AAAAAACAUUGGGAGUAAUUUCGUUAAAAGAGCCAGGAAAGCCGAAAAGGCCGUGGUAAAAGGGUACAGCACAUCCGGAAUUGUGAAAAAAAAAAAAAAAAAAA'
p252
aF0.9134615384615384
aa(lp253
S'Snowflake Necklace ( or v2.0 )'
p254
aS'GAGAUUAGAAUAUUAAGAUCUAGGAAAAAUCAGCUAAAUGUGCCCAAAUGGACCAAAAAGGACCAAAAAGCAGGAUCAGAGAAAAACUCAUGCAGAGGAAAAACCACCAAAAAGGAGCAAAAAGUACCAAAAAGGGACAAAAGGGACUGUAGAACAAAAAGUUAGAUACUGGAAAAACCAGCAAAAGGGGCCAAAAAGGACCAAAAACGACCUAAAUGAUGUAUCAGAGAAAAACUGAUUCGGAGGAAAAACCACCAAAAAGGACUAAAAAGAAGGAAAAGUGACCAAAAAGGACCGGAAAAGAAAAGCUCAGCUUCAGGGAAAACCAACAAAAAGGACCAAAAGGGCCCAAAAUGGACUAAAAAGGAGGAUCAUGAUAUUCUAAUCUC'
p255
aF0.8766066838046273
aa(lp256
S'Methaqualone C16H14N2O Structural Representation'
p257
aS'AAAAAAAGUGAAGAUCAUACGGCGAAAACUCAGAGGGAGAAAAUUCAGAGGGAUAAAAGUCACAGAGAGAAAGCUCAUAGAAAAAAACCGGCUGACUCACUCACUCAUAAAGAGAUCAGACCAAAGGACCCAAAGGAAACCAAAAAAAAAUGGCAUAGAGAAAACUCAUGGAAAAAGCACAAAGGUGGUGACCAAAGGUUAGAAACUGAGAGAUGCAGAUAGAAAGAAAAGAGAAAAUUCACUGAGAGAAAACUCACUCACAGAAAACUCAAAGAGAGAAAACUCACUCAGAGGACAAAACUAUGGUAAUCCGACAGAAAACUCCUCACUCGGAGCAAAGGUCAUCACAAAAAAA'
p258
aF0.8704225352112676
aa(lp259
S"Cat's Toy 2"
p260
aS'AAAGGCAGGCUCUAAAAAUGUAAAAAAAAAAAAAAAAAAUAAAUGGAAUAUUAUUUAAUGGAAAGACUAAAAAGACAGAAAAAUUGAGUUUGCAAAA'
p261
aF0.979381443298969
aa(lp262
S'Zigzag Semicircle'
p263
aS'AAAAUGUUGUGCUCAAAAUGGAAGACAACGGAAA'
p264
aF0.9411764705882353
aa(lp265
S'Short String 4'
p266
aS'AAAAAUGGAGGAAUGAGGAAUAAGGAGGAAAACCCCGCCUAAGUUAGAGGAAAAUCCAUAAACAAACGCAGAUCCUUAAAAAAAAAAAAAAAAAAAA'
p267
aF0.9381443298969072
aa(lp268
S'Gladius'
p269
aS'CGAAAGAAUAAAAGAAAGAGCAAAACAAACGGAUAGGAGGAUAGGAAUAUUGGAUACAAUAGAGAAAUGAUCAAGAGAUCAAGAGAUAUUAGAGCGUGAUGAUAGCGAUAACCUCUAGGCCAAAGGUCUGAGAGUAUCAAUAUCCACACGCCAUAAUAUCAACUGAUCAACAGAGCUACACUCAACAGUGUCGCUAAAAGUGAUAAUCAUGAGAGUGAGGAGUAGAAGGUCGCAGGAUAUAGAGCUGUCAGCUACAGGAUAGAGAUAGGUAUCGAAAGAUACCAAAUCCAUAUCACGUAGACGAUAGACCUAUAUCGGAGGAUCACAAGCUCACAUCUCAUAAGACUGAUAUCGAAAGAUGAAACACACCGAAAGAAUAGAACGAGGAAAGGAAGAAAAC'
p270
aF0.9
aa(lp271
S'Thunderbolt'
p272
aS'GGAAGUUUCAAAAAAAAGUGCUAUGCAAAAAGGGAAACAGCAUAAUCAAAAAAAAAAGGAAAAAGGUCAAAAAGGUCAAAAAACGAAAGGAGCUAAAAAAUAACGAAAAAGCAGUAAGGUGGUAAAAAGGAAACACCGUGAAAAGAGAAAAAGGUAUAAAAAUAGUUAUGAAAACUCAGAUGAAUUAAAAAAAGUUGCUAAAUUGUCUGUAAAAAAACUAACAUCAAAAAAAAACGGAAAAGGCUAUCUAUGAUAGCAGCUGCCAAAAAAAAAAACCGAUCAUAAAAAAAGGGGAAAAAUCAUACGAAAAGGGAAAAAAACAAAAGCGUAUGAACAACAAGGAUUGUGCAAAAAAAACAAGAUGCGCAAAAAGAAAAAAACGGGAACAACCA'
p273
aF0.9591836734693877
aa(lp274
S'Mutated chicken feet'
p275
aS'AAAAAAAUGAGAAUGAAGGCGAGAAACCAAACCCGAGGAAGAUAUAUACAGUAAAAUAGAUCAUAGGAGCUGAAAAUUAGGAAACCAAUGCCCAAAAAAA'
p276
aF0.86
aa(lp277
S'Chicken Tracks'
p278
aS'AAAAAAAUAUAUAUCUUAGAAAACUGGAUGAUCAAAGGGUUUACGUCGAAAGAUGGCUACAUUAGAGCGAGAAACUUGAACAUCAAAGAUGGAUUCAUAUAGGGCUCAACUAAAAA'
p279
aF0.9655172413793104
aa(lp280
S'Looking Back Again'
p281
aS'UUGAAGAGAGAGAAAAAUCUAUCAAAGAUAGAGCUCUAAGCGCCCAUGAGGAACUCGGGAGAUACAAAGAUCGAAAGAUCAAAAGUAUCAACGCAACUCAAGGCGGAGGAAAAGCUACGAAAGUAGCAAAAAACUCGAGACCUAUUAAAGAUAGCAUACAAAGUAUAGAUUAGCAAAGUGGAGGUGUAAGUGGAGCGAAAGCUCUGUAAGGUCUGUGUGCUCGAAAGAGAACUAGUCAAAGUAUCCGCCGGAUACAGGUCAAAAAUCAAGCAUAAAAAAAAUUAGUAAAUCUAAAUGCAAAUUGAGGCCGAACAAAAAGGUCAUAUGAAAACAUAUGAAUACCCGAAGGAGUGUCAAAGACACAAGGGGCAAAAGUUCGUAUCAAACGC'
p282
aF0.9203084832904884
aa(lp283
S'Multilooping 6'
p284
aS'AGCAAAGGGGGCUUUGAAAGAAGCGCAGCAAAGGCUGCAAGCGCCUUUCGAAAGAGAGCAAACAAAGGUUUGGUGUGUUCAA'
p285
aF0.9146341463414634
aa(lp286
S'Cesspool'
p287
aS'GAAAAAAAAAAUAAGUGUGGAGAGACAAAGUUAUCGACUGCGCAAGUAGGAAACCGGAGUGGAAAAUAGUAAAAAGAAAACAAUAAGAAUUGGAGGAAAACAAUAGUGCAUAGAGAAACUCAAAAAGUUUUAAUUUGAAAAAUAGGUGUGGAAAUCUGCAAAAUGAAAACUAGUGAAAGGUGUUAGAAAACAAGCGUGUUGAGGAUAUUUUAGUAAGUGUGCAAGUGGAAAACUGCAAUGGAAAAAUGUAAAAAAGAAAUAUAUGUCAAGGUGGAAGAAAACAAGACUGUAGAGACAAAGUCGACAAAGGGUCAACUAAAAAAUGGUAUUGUGAAAAUGGAAAAAGAAAACAAAUGUA'
p288
aF0.7737430167597765
aa(lp289
S'Hoglafractal'
p290
aS'AAGAUGAAGUGACAAAAGAUAAUAAAAUUUAUCGUCACGAUGAAAGAGCAAAAAGCUCCAUCUUCAAGAGAAAAGUCGAAUGAAAAAGAUCAAAGAUGAAAAAACAUCGAUCCUCAAGUGUAAAUCGCGAGCCAAGGAAAUUGGACUAGAAAAGAAAAGAAAAAAAAUUCAUCUCAGGGAAAACCGGGGCUAGUGCUUGAGACAAAAACUACGUAAAAUUAAGCUAAAAAAUAGCAGAAAUGAUCUAUGAAAAAAGUUGAAAAAAACGCAAAAGAGAAAGUUAAACAAAGUUUGACGAAAAAACAUGGGAAAAAAGUCUAUAAAAGUAAAAAGUUCUAACCGACGAAGAGGAGGUGAAAAGGGAAACUCCGAAAGGCUUAAGUAUCUUAGGACAUCCCGC'
p291
aF0.84
aa(lp292
S'Bullseye'
p293
aS'AAAGCGGAGCUAUGAUCAUGCUGGAACAUCUAGACGGAAGGUACGCAAAAAAAAGCGCGAGGAACAUGAAUGGUGAAGCCGGAGCACGAAGCGUCGGGAAAAAAGCGGCCUCAAAGAGCAGGAUGGAACAACAAGAUCAAGGAGCCCGAAAAAAAUGAGCUAGAAGCUGGAAGUUCAAAGGACAAUUUGGAAUUAGCUCUAA'
p294
aF0.8415841584158416
aa(lp295
S'Shooting Star'
p296
aS'AAAUAGGGAAGUGUAAGAAAUAAUGCAGGAGAGCGAGCGCAAGACCGACUUCAGAAUGUAAAUUUAUACAGAUGCUGGUGAAAGGUAGAGCUGCAUGGAGCUCAACGAAAGAUGAGACCUGGACAGACUUGACAUAGUCAUGGGAAACAACAUCGAUCGCCUCUAUGAAGUAGUUACAAAGUAGCGAGAAAACACAGAUCAACCCAGAACAGAAUAAGGCAUAAGAAACUUGUGCAGGCACGAAGUGCCAUUCAGUUAAGGAACGUGAUUAGGUACAAAGUAUCGUUCGAUUAAGGAAACGUGGGAGUAGAGAGUGAUGUGAGCGAAAGACCACAACGCACAACGAUACUGGAAGCACUAUUUA'
p297
aF0.8131868131868132
aa(lp298
S'Teslagon'
p299
aS'AAAAAAGUAAAAAAAGUAGCAAAAAAACGAUGAAAAAAAAAAAAAAACCGAAAAAAAAGGGAAAAAAAAAAAAAACCACGAAAAAAAGCAGCAAAAAAAGAAAAAAAAAAAAAAAGCCAAAAAAGUAAGCAAAAAAAGUAGGAAAAAAAAAAAAAAUCUAAAAAAAAAGAAAAAAAAAAAAAAAAUCGACAAAAAAAGCACAAAAAAAAAGAAAAAAAAAAAAAAAUUAAAAAAAUGGGAAAAAAAAAGAGGAAAAAAAAAAAAAAACCAAAAAAAAAGGAAAAAAAAAAAAAAACCACUAAAAAAAUGAAAAAAAAAAAGAAAAAAAAAAAAAGAAAAAAAAAAAAAAACCACAGAAAAAAUUAACAAAAAAAGCAAAAAA'
p300
aF0.93717277486911
aa.