(lp0
(lp1
S'Simple Hairpin'
p2
aS'GAUACAAAAAAGUAUC'
p3
aF1.0
aa(lp4
S'Arabidopsis Thaliana 6 RNA - Difficulty Level 0'
p5
aS'GAUAUAGGAAUGACAAAAAAAAAAAGUCGAUAUAUCUAGAUAUAUAUAUAUAUAUACAAAGAUACAAAAAAGUAUCAGUAUAUAAUAUAUAUAUAUCGUGAUAUAUCAACUAUAUC'
p6
aF1.0
aa(lp7
S'Prion Pseudoknot - Difficulty Level 0'
p8
aS'GAGAUCACAUCAAAAGAUGGAUACUCAAAAAAAAAA'
p9
aF1.0
aa(lp10
S'Human Integrated Adenovirus - Difficulty Level 0'
p11
aS'GCUAUUUAUGUGUCAAGCAGUUAAAAAAAAAGGAUCCGUACCAUGGGGGCGGCUAAGAAACGACAAGGAUAUAGGAAAAAAAUUAUAUCUUUAAAAGCCCAGAGGAAAAUAGGGAAAAAUAUGACGGUUGGCGAAAAAAGCCAGCGAUAAAAAAAAAAAAUGCUGUUGGGUAAAAAUAUAAAAAAUAGCAAA'
p12
aF0.9791666666666666
aa(lp13
S'The Gammaretrovirus Signal - Difficulty Level 0'
p14
aS'ACGCCUACAUAUCAAAAGAUAUGCUGUCAAAAAAGAGGAAGACACACUGAUAGAAAGCUAUCGAAAAGUGGUCCCUCGACAUAGAUCAAAGGAUUUAUGGA'
p15
aF1.0
aa(lp16
S'Saccharomyces Cerevisiae - Difficulty Level 0'
p17
aS'GUUUUAGGAACAAAAAAAAGUUCGGGGAAAAAAAAAAAAGACCAAAAUGUACAAAAAAAGUACACUAGAACAAAGGAUUUAGAAGAUCUAAAAAAUGAUCGGCAAAAAAAAAAAAAGCCAAAUGAUACAAAAAAAGUAUCCUAGAUCAAAAUAGAUGGAAGCUCGAAAAAAAGAGUGAUAUCAAAAAAAGAUAUCAAAUGAUACAAAAAAGGUAUCCUAUCUGAAAAAAUUUAGAAGGGCGAAAAAAAGUUCUAUAUCAAAAAAAGAUAUAAAAUCAUACGAAAAAAGUAUGCUAGAUUAAAGGAUAUAGAAUCUGAAAAAAAACAGAGUUAUCAAAAAAAGAUAACAAAUGAUCCAAAAAAAGGAUCCUAUAUCAAAA'
p18
aF1.0
aa(lp19
S'Fractal 2'
p20
aS'AAAAAGAUUUUUUAAGAAGAUAUGUGAAGAUCAAAAAAAAAAGAUCGAAAUCGAAAAAAAAAGAUUGAGCUCAAAAAAAAAGGAGCAAUACAUAUCUUAAAGAUAGAUACAAAUAGAGAAAAAAAAAUCUAGAGUUCAAAAAAAAAGGAACGGACUGAAAAAAAAAACAGUAGUGUGUUUAUCAAAGUUAUAGAUCAACCUCAAAAAAAAAGGAGGGAGAUCAAAAAAAAAAGGUCGUACCGAAAAAAAAAACGGUUGGAUUUAUAGCAAAAAAAGAUCAAAAA'
p21
aF1.0
aa(lp22
S'G-C Placement'
p23
aS'GAUCAAAGAUCU'
p24
aF1.0
aa(lp25
S'The Sun'
p26
aS'GACAUGGAGACGAAGUUUAACCGGUCAAAGUCACCGGAUUGAAAAAUAACGGGGCGAACGCAUGAAUGCGAAGCAUAAUCAGCCGAACCAAGGGCUACAAGGAACACCCCUUUAAAAACAGAGAUACGAACUAUAACUGGUCGAGGAUAGACGUACAAAGUGCAAGUUGCCAAAGUCAGAAAAAAAAAUUUUAAUUCGCCAAGGGCACGGAUACAAAGUUUACCCGGUCAAAGACGGAGAUACGAAGUAUAACUUUCA'
p27
aF0.875968992248062
aa(lp28
S'Frog Foot'
p29
aS'AAAAAAAAAAGAACUAAUGUUCGAUGGAAACAUCGCGGAAACCGC'
p30
aF1.0
aa(lp31
S'InfoRNA test 16'
p32
aS'GAUAUCGGAGAUAUCAAAAGAUAUACUACGGAUAUC'
p33
aF1.0
aa(lp34
S'Mat - Martian 2'
p35
aS'GAUCAAAAGAUCAAAGAUAUACAAGAUAUACAAAAAAAGUAUAUCGUAUAUCAAAGAAUAUAGAAAAAAGAUAUACACAGAUACAAAAAAAGUAUCUGGUAUAUCAAAGAUAUAGAUAUAUCAAAAAAAGAUAUAUACUAUAUCAAAAAACUAUAUUCAAAGAAUAUGAUAUUAUAAAAAAAAUAAUAUAACAUAUUCAAAGUUCAAAAGAGC'
p36
aF1.0
aa(lp37
S'square'
p38
aS'GAUGUUGAUUGACAUGGAUUGGAUGCAAGGUGUCUAAAGGAUCCGUAAACGUCGGUAAAGCAACAUC'
p39
aF1.0
aa(lp40
S'Six legd turtle 2'
p41
aS'AAAAAGUAAAUGAAAAUGAAAGUAAAAGUAAGCGAAAAAGAAAACAAAGGCGAAGGAAAGUCAAUGUAAAGGCUACACAAAAAAAAAAAAAAAAAAAA'
p42
aF0.9591836734693877
aa(lp43
S'Small and Easy 6'
p44
aS'GUCUCUAAAUAGAAGUAAAAAAAAGAAGAC'
p45
aF0.8666666666666667
aa(lp46
S'Fractile'
p47
aS'AAAAAAAAAAAAGGAAAACCAAAGCAAAGCAAAAGCGAGGAAAGAAAAGUCGAACCAAGGAAAACCAAAGCAAGCAAAAGCAAAAUAAAAAAAAAAAAAAAAAAA'
p48
aF1.0
aa(lp49
S'Six legd Turtle'
p50
aS'AAAAAUUAAAGCCAAAAGAAAAUUUAAAAAAUAAGUCAAAAAGAAAACGAAAACAAAAAAAUAAUUUAAAAGGAAAAGUAAAGGGGAAAAAAAAAAAAAAAAAAA'
p51
aF0.9428571428571428
aa(lp52
S'snoRNA SNORD64'
p53
aS'GAUAUCAAAAAGACAAAAGACAAAGAUACAAAAAAAAAAAAAGUAUCAAAAGUCAAGUCAAGAUAUC'
p54
aF1.0
aa(lp55
S'Chalk Outline'
p56
aS'AAAAAGAUCAGAGACAAAAGUACUCAGACACACAAAAGUGGUCAGAUACCAAAAGGAUAUCAGCAACAAAAGUUAGCGAUCAAAAAAAAAAAAAAAAAAAAAAA'
p57
aF1.0
aa(lp58
S'InfoRNA bulge test 9'
p59
aS'GAGAUGCAGAGCGUCCGAUUCUAAUGGAUCGGCCCGUAUCUC'
p60
aF1.0
aa(lp61
S'Tilted Russian Cross'
p62
aS'AAAAAUACGUUCCGAAAGGAGUCGCAGGCUAAAAAAUUCAUAGGAAACUGUGAGUGCAAAAGUACGCGACAUUGAAAAUUGCGUAGAAAAAAAAAAAAAAAAAAA'
p63
aF0.9809523809523809
aa(lp64
S'This is ACTUALLY Small And Easy 6'
p65
aS'GAGAAAAAAAAAAAAAAAAAAAAAAAAAAAAAAAAAAAAAAAAAAAAAAAAAAAAAAAAAAAAAAAAAAAAAAAAAAAAAAAAAAAAAAAAAAAAAAAAAAAAAAAAAAAAAAAAAAAAAAAAAAAAAAAAAAAAAAAAAAAAAAAAAAAAAAAAAAAAAAAAAAAAAAAAAAAAAAAAAAAAAAAAAAAAAAAAAAAAAAAAAAAAAAAAAAAAAAAAAAAAAAAAAAAAAAAAAAAAAAAAAAAAAAAAAAAAAAAAAAAAAAAAAAAAAAAAAAAAAAAAAAAAAAAAAAAAAAAAAAAAAAAAAAAAAAAAAAAAAAAAAAAAAAAAAAAAAAAAAAAAAAAAAAAAAAAAAAAAAAAAAAAAAAAAAAAAAAAAAAAAAAAAAAAAAAAAAAAAA'
p66
aF1.0
aa(lp67
S'Shortie 4'
p68
aS'GCAAAAGCAGCGAAAGC'
p69
aF1.0
aa(lp70
S'Shape Test'
p71
aS'AAAAAGGGAUCAAGAUACAAAAAAAAGUAUCAAGACACACAGAUACAAAAAGUAUCGGAUCAAAAGAUCAGUGGUCAAGAUCGCAAAAAAAAAAAAAAAAAAAA'
p72
aF1.0
aa(lp73
S'The Minitsry'
p74
aS'GACUAAAUGAGAAAAAGAUAAAAAGUAAAAAAGACGAAAAAAAGUCGUGCGGUCACUCUGUC'
p75
aF1.0
aa(lp76
S'stickshift'
p77
aS'AAGAUAUCGCAAAAAGCAGAUAUCAA'
p78
aF1.0
aa(lp79
S'U'
p80
aS'AAAAAGAUACAGAGAGCAGACAGAUAUACAAAAGUAUAUCUGCGCCCGUAUCAAAAA'
p81
aF1.0
aa(lp82
S'Still Life (Sunflower In A Vase)'
p83
aS'AAAGAUUUGGACUGGAAAACAGUCAACCGAUAAUUUUCGGAGUUACAAAAAGUAACGUUCGACGAAGCUUAUAGCUACAAAAAGUAGCGAGCAGAGAAAAUCUGCAGAUAUUUAUAGAUAUAUAAAUCCCAAACAAAAAGGUUUGAUAUAUUAAAAAAAAAAAUGAGCAAAAAAAAAAAAAAAAAAAAAAAAAAAAAAAAAAAAACCCCGUUCUAAAAAAAAAACUGUAUGGCAUCGAAAGAUGCAGGAUUUAUAUAUUUAUAAAUAUCGAGAUAUAUAAGAAAUCGAGGGAUGAAAUAAUCCCAUCCAUAAAAGAUGGAAGCAGUAAAAAAUACUGAAGCUUAAAAGUAAGCGUGAUUCGAAAAGAAUCAGAUCAAA'
p84
aF0.9735449735449735
aa(lp85
S'Quasispecies 2-2 Loop Challenge'
p86
aS'AAAAUGAUCCGCCGGUGUAGGAAUACAAAGGCGUGGACUAAAAGUGUGUCCUCUAGUUUUUGACAAAAGGUCUUAUUUUAGGAUCUAAAAAAAAAAAAAAAAAAA'
p87
aF0.9809523809523809
aa(lp88
S'Corner bulge training'
p89
aS'AGAUAUCGAUACAAAGUAUCAAAAGAUAUCA'
p90
aF1.0
aa(lp91
S'Spiral'
p92
aS'AAAAAGAUCAGAUAUCAGACAGAUACAGAUCAGAUCACGACGACGACGACGACGAAAAACGCGCGCGCGCGGAUCGAUCGUAUCGUCGAUAUCGAUCAAAAA'
p93
aF1.0
aa(lp94
S'InfoRNA bulge test'
p95
aS'AAAAAAAAAAAAAAAAAAAAAAAAAAAAUGCGCAAAAAGGCAUAAAGUGAUGAAUGACAUGCUAGUGUCAAAAAGAACAAUACGCUCCUCGGAAAGAAGCAAAAGAUAGCAAAAAAGCAGCU'
p96
aF0.9016393442622951
aa(lp97
S'Worm 1'
p98
aS'AAAAAAAGGGGAGGAAACGAUGGGAAAAUACGACGGUAAAUACGU'
p99
aF0.9555555555555556
aa(lp100
S'just down to 1 bulge'
p101
aS'AAAAAGCUCAGAUUCUAAUGAAUCAGACAAAAGUCAGACGCAAAAGAUCAGACAAAAGUCAGACAAAAGUCAGAUCAAAAAAAAAAAAAAAAAAAA'
p102
aF1.0
aa(lp103
S'Iron Cross'
p104
aS'ACACAGCUAAAGAGACACAAAGUGAGCCAAAAGGCGCUCAAAGGCAAACAAAAGUUAGACAAAGUCAGCCAAGGACAAACAAAAGUUAGAGAAACUCAGUCAAAAGCAACCAAAGGUAGUGAA'
p105
aF1.0
aa(lp106
S'loops and stems'
p107
aS'AAAAAGAUAUACAAAGAUCAAAGAUCAAAGAUCAAAAAAAAAGAUACAAAAAAAAAAAAGUAUCAAAGAUCAAAAGAACAAAAAAAAAAGUUCAAAGAUCAAAGACAAAAAAAAGUCAAAGAUCAAGCAAAAAAGCGAAGUAUAUCAAAAA'
p108
aF1.0
aa(lp109
S'Water Strider'
p110
aS'AAAAAGCACGGGCCGGGAGGAUAAUGUGGUCAAAGGGCCACGGGGGGUGUGCAAAACAGAAUAAAAGGAAUGCGGAACGGGUAAAAAAAAAAAAAAAAAAAAA'
p111
aF0.9320388349514563
aa(lp112
S'The Turtle(s) Move(s)'
p113
aS'AAAGCAAAAGCAAAGGAUAUAUACAAAAAAAAAGUAUAUAUCAAAAGAUCAAAAAGAUCCAAAACACAAAAGUGGAAGAGACAAAAAAAGUUUCAAAAGACAAACCAAAAGGAAAAGCACAAAAGUGAAAAGAAGUCAAAAAAAGACCUCAAAGGACAAAAGUCAAAAAGGCGUCGAAACUCGAAAAAAGAGGAGACAAAAAAACGUCGAAGAUAUAAAAAAGUAUCGAGGGGCAAAAAGUUCAAGAUUCCAAAAAAAAAGCAAAAGCAAAAUCGAAAACGAAAAUGCAUGGAAAAAAAAAGCUAUGAAAAAAGUC'
p114
aF0.9810126582278481
aa(lp115
S'Adenine'
p116
aS'GAUACAGAUAUCAGAUCUCAGAUAUCAGAUAUAAGAUAUCAAAAGAUAUCAAAAAAGAUAUCGGAUAUCAGAUACAAAGAUAUACAAAGUAUAUCGUAUCAUAUAUCAGAUAGAUAUAUCAAAGAUAUAUAAACUAUCAGAUAUCAAAAGAGGUCAAAAGAUGUCAAAAGUAUC'
p117
aF1.0
aa(lp118
S'Tripod5'
p119
aS'AUGCUCGGGCGAAAAGCCCCUCAGAAAAUGGGGAGCUA'
p120
aF1.0
aa(lp121
S'Shortie 6'
p122
aS'GCGAAAGCAGUGAAAGCGGCAAAAGCACCGAAAGG'
p123
aF1.0
aa(lp124
S'Runner'
p125
aS'AAAAGAAUCGCAUGAUAAAACUCUAUGAGUGUAUGAAACUAAACAGCCCAAGGGAAAACUCCAGCCGCAUCGGAAACAGAUUGAAGGCCUCUAGGGAAACCUUGGCAGAUUAAAAA'
p126
aF0.9741379310344828
aa(lp127
S'Recoil'
p128
aS'AAAAAGAUACAAGCAAGCAAGACAAGACAAGCAAGCAAAGCAGCAGUCAGUCAGCAGCAGUAUCAAAAAAAAAAAAAAAAAAAAA'
p129
aF1.0
aa(lp130
S'[CloudBeta] An Arm and a Leg 1.0'
p131
aS'AAAAAGACAGAGACAAAAGUACUCGACACGAAAACGGUCAGUCAAAAAAAAAAAAAAAAAAAA'
p132
aF1.0
aa(lp133
S'[CloudBeta] 5 Adjacent Stack Multi-Branch Loop'
p134
aS'GAUACCAUCGAAAGAUGUACGCAAAGGUGUACCUAGGAAAUUAGGGCUGUAAUCAGCGUAUCA'
p135
aF1.0
aa(lp136
S'Triple Y'
p137
aS'AAAAUGAUCGAUAGAAGAAAUUCUCGAGCUAAUGUUCGAUCGAAUAAGAGAAAUUUUUAUGUAAUCCUCCUUGAAUCUAAAAAAAAAAAAAAAAAAA'
p138
aF0.9175257731958762
aa(lp139
S'Misfolded Aptamer'
p140
aS'GGGCUAAAAAGGGACAAAGUCAGCAAAAGCAAAAAAAAACCAAAAUGUCC'
p141
aF1.0
aa(lp142
S'Flower power'
p143
aS'AAAAUAGUAGACCAAAGAUCUGAUGGAUCAAAUAAACUGACGGCACGCGUUCAACGAAGAUUAAUUUCGUUAAGCAUGUGCCUAAAAAAAAAAAAAAAAAAA'
p144
aF0.8431372549019608
aa(lp145
S'Kudzu'
p146
aS'AAAAAAGGAAAUCGUAAUAAGUUCAAGAAACUGGUGGUGGAUACUAAAUGAUAUCGAACAAAGGGUAAAUUAACAAUGCUUGAAAAAAAAAAAAAAAAAAA'
p147
aF0.9207920792079208
aa(lp148
S'"1,2,3and4bulges"'
p149
aS'AAAAACCUUAAGGUAUAAUGAGAAACUUGUUAAAAAAGAAGAAGUAAAUGCACUAUGAAAGCAAAAGUGACAAAAAGCAGUAAGCUAAAAAAAAAAAAAAAAAAA'
p150
aF0.9428571428571428
aa(lp151
S'medallion'
p152
aS'GGUAUCAAGAUAGAAAGCUAUCUAGACAAAAAUCAAACGAAAGUUGUGAAAGAAAACUUUUAGAGCAAAAUCAAACAUGGAAAACCAUGUAGCCAAAUGAUAUAGAAAACUUACCAUAUAAAAAAAGGGACGAAAAGCUUUAACUAGGAAACUAGUUUAGCAAAACCAAAAUAAAAACGGUCGUAUAAAGAUACGAAGACAAAAGUCAACGUGGGAAACCAUGUACACAAAAGUGAAAUAAACAUGGAAAUAGUAAUCUGUUUAAACAAAAGUUGGAAGGUUAAUGCCUUUAGCCCGAAGGAAAACAAAAGUUGAAAUAGGAAACUAUAUAGAUAUC'
p153
aF0.8516320474777448
aa(lp154
S'[RNA] Repetitious Sequences 8/10'
p155
aS'AGCAAAAAAGCAAAAAAGCAAAAAAGCAAAAAAGCAAAAAAGCAAAAAAGCAAAAAAGCAAAAAAGCAAAAAAGCAAAAA'
p156
aF1.0
aa(lp157
S'Documenting repetitious behavior'
p158
aS'AAAAAAAUGAAUAUUAACUUAAAUUUAAGCGAGAAUUAAAGCAAUUUUAAAGCGUAUUUAAACGACAUUAAAUGUAAAUUUAAUGCAAAUUUAAUGUAAAAAAAAAGGAAAAAUGUGCCAAAACCAUUGGGAUAAAUUGGGAAAAAAUUUCUGAAACAUUCGGUAAAAAUCGUCAAAAAAUAUGUUAAAAAUUUCUAAAAAAAAAGGUAAUCUAAUAUACAUUGAAAGAUAAUUGAAUUUAAAUUCAAAGGUAAUUUAACUCAAAUAUAAACCUAAACAAAAGCAAAUUUAAACCGAAAAAAAAACUAGAAAGUGGCAAACAGUUAACUAAAAACCUCGAAAAAAUCAGCGAAAAAAUGACCAAAAACGUCGAAAAAACUAGAUAAAUCUUUUAAAAAAA'
p159
aF0.755
aa(lp160
S'7 multiloop'
p161
aS'GGCCGUUACGAAAGUAGCCAAUCGAAAGAUUGCGACGUAAUCGUUGUAGAUGAAAGUCUAGGGAGGAAACUCUCCAGACGAAAGUCUGGGCC'
p162
aF1.0
aa(lp163
S'Kyurem 7'
p164
aS'AAAAAGACGAAGGCCUAAUGUCGACAAAGUUUCAGACAAAAGGUCGGGCGUGGAAAAAUGAAAAAUCCAUAGUCCUUAUGUCGAAAAAAAAAAAAAAAAAAA'
p165
aF0.9215686274509803
aa(lp166
S'JF1'
p167
aS'GGUACAGAUAUUGAUACAGGAAGCAAAAGAUAUCCUGAAAUAAAGAAUCAACAUAUCAGAUAUAUGUAUAUCAAAAGAUAUGCAUAUAUCGAGACUAAUGUCGUAUAUAUACAAAAGUAUAUAUAAUGAUACGAAAGUAUCUGAUAUGAGAUUCAGUUUCUGAUAUCAAUGAUAGAUCAAAAAGAUACUAUUUGGAUAUAUGUAAAUAUAUAUAUAUCAAAAGAUAUAUAUAUAUUCUAUAUAUAUCAAAGAGACAAAAAGGUCUCGAUAAUAUACAAAAGUAUAUUAUCAAAGAUCAAAAGAUCAAGCUUCAAGUGUCAGUUCACACACACUAAUGUGGUGGAGCAGAUGAUAUCAAAAGAUAUACAUCUAUAUACUGAUAUCAAA'
p168
aF1.0
aa(lp169
S'multilooping fun'
p170
aS'AGAAUCUGCAAAGGACCAAAGUAUUUGGAAAACGUU'
p171
aF0.8888888888888888
aa(lp172
S'Multiloop...'
p173
aS'GAUCAGUUCACUCGAAAGGGGCCUAAAAGCAAGUGAAAACGCGUGCGAAAGCGAAGUAAAACCCGCACAAAAGUGAGACCAGGAACUAAAAUGUUUCCAGAAAAUUGGACC'
p174
aF0.8918918918918919
aa(lp175
S'hard Y'
p176
aS'AAAAGGAACUCAGACCUAUGGAAACAUAGGUAGGGGAAUUAUAUCGAAAGAUAUAGUUUGUUCAAAAA'
p177
aF0.9705882352941176
aa(lp178
S'Mat - Elements & Sections'
p179
aS'AAAAAGAACGGAAAGAGUUGAUAGAGGCCUACGUUAAGAUAAAAAAUCUGCACAAUUAUGCUUUAAAGGACAACGCAAACGGUUCAAAAAAAAAAAAAAAAAAAA'
p180
aF0.9619047619047619
aa(lp181
S'Chicken feet'
p182
aS'AAAAAGCGGAAGCUAGCCAAAUAUUCAAAUCGCGACAACGGCAAAGUUGAAAAUCAAACAGAUAAAA'
p183
aF0.8805970149253731
aa(lp184
S'Bug 18'
p185
aS'AGCUCAGUGAGCAGGCAAGCAUGAAAUGGUGGGACAACAGAGACGUAAAUUCA'
p186
aF0.9622641509433962
aa(lp187
S'Fractal star x5'
p188
aS'AAAAUGAUAUAGUAAGGUUUAAUGACCGAGGACAAAGGUUCGAGAUCUAAUGGUCGAGAUAAAAGUAUCGAAUUAUGUCUAAAAGAUACAACUCGGCUUACUGGCCAAGGUAUAAUUACCGAUAGUAAACGCUAGAGAAAUAAUUUUCGUGUUGUAUCGAAAAUAUAUACCAUGUGCAAAGGCACUUGAACAAAAGUUCUAUAACAAAGGUUGGAGAUAAAAAUAUCAAGGUAUAUGGAAAUGAUAUCUCAAGACCGAAAGGUCGAUAGCAAAAGCUAGAGACUUAAUAGUCGAGAUAAAAGUAUCAGGAGAUAUCUAAUGUUUAGACCAGUAUCGAAAGGUAAAGACAAAAAUGUCGUAACGAAAACGUUUAGAUCAAAGGAUCAGGGUCUGAGAAAAA'
p189
aF1.0
aa(lp190
S'Crop circle 2'
p191
aS'UCAAGCCAAAAUUGAAAUCCAAAAAAAAAAUAAAAAAAAAAAAAAAAAAAAAAAAAAAAAAGUGAAAAAAAAAAAAAAGGUAAAAAAAAGAGAAAAAAGGAAAAGAAAAA'
p192
aF0.9636363636363636
aa(lp193
S'Branching Loop'
p194
aS'GGAUCUAAAAAAAAAGUUAUAAUUGACACGGUCUAAAAAA'
p195
aF0.95
aa(lp196
S'Bug 38'
p197
aS'GGUACGAACGAAUGAAAAUAGUAGGGAUGGAAGGUA'
p198
aF0.9444444444444444
aa(lp199
S'Simple Single Bond'
p200
aS'AAAACACAAAAAAACAGCUAUAAACUCGCUAAAAAAAGGGAAAAAAAAAAAAAAAAAAAAA'
p201
aF0.9672131147540983
aa(lp202
S'Taraxacum officinale'
p203
aS'CGGCGAAAGACCGAGAGUGAAAAACUCACGACACAGGACUCUUAGAUAAUUACCCGGGGGAAAACACCCGGAACAAAUGUCCCAGUUAUAUAUACGAUAUAGAUAGUAUUUAUACUAUAUCAGAUACAAGAUAUAUGUCAAGAUAUACAAAGUAUAUCAGACAUAUAUCGAUUACAGAGCGAAGCUUUGGAUCGUAUCGAAGUAUAUAUAACAGAUCGAAAGAAUCAGAGCAAAAGACUGAGAGCAAAAGACUCAGCGUAAAAAACACACUUGAAAAUUGCG'
p204
aF0.9148936170212766
aa(lp205
S'Headless Bug on Windshield'
p206
aS'AGCGUCAAAAACCAUCAAAGCAACGAAAAAAAAAAAAAAAAAAAAAAAAAUGUAGCGAAGAUAGGAACGAAGCAGCCAGGACAAGCAAAAAAAACAAAGGUAAAAAAAGCGUCAAAAAGGGCAGGGCCAAAAAAACACGAGAUUUAUCCGCAGACGAAAAAAAAAAAAAAGUCAAGCCAAUAUUUCAGUGAAGGAACCCA'
p207
aF1.0
aa(lp208
S'Pokeball'
p209
aS'AAAGUUAUAUAAAAGGUGGCAAGAUAUGAGAGGUUCAGAGACUGCUAGCAAAGCGGUAGUCGCUUCCGAUCUAUUGGCUCCAUAUAACAAAAAAAAGGCGACCCAAAUCGGUCAGGGCAGUCGUUUCAUAAUGUACGAAUUAAAACGCUCUGAAGUGGUGUAGAGGCCGGAAGAGGUCGCCGAA'
p210
aF0.9456521739130435
aa(lp211
S'Variation of a crop circle'
p212
aS'AAAAGUAAAAUUAAAAACAAAAGUGAACGACUAAAAGUGGAGAACCCGAAAAGCUAAAAAAAAAAAAAAAAAGGCAAAAAAAAAAAAA'
p213
aF0.9545454545454546
aa(lp214
S'Loop next to a Multiloop'
p215
aS'AAGAUUUAUUUAAAAAGCGGAUAUCUAAUGAUAUCAGAUAUACAAAAGUAUAUCAGAAAAAAUGAUGGAUCAA'
p216
aF1.0
aa(lp217
S'Snowflake 4'
p218
aS'GAACGAAGUACGAAUGACAAAACUGGCAGAAGAGAAUUAAAAAAGAGCAGAUGAAACAUCGAGUUCAAGGAGCUGUUCUCAAAGCAUUUUUAAGAAACGCAAAGGCGGGUCGGUGAAACACCAAGAUCAAAGAUCGGCCCUCAAAAGUGUUUCAAGAGACGAUAAUUCGAGUCUUUCAAAGAAAAAGAUAGAAUAUAGGCUCGAUAAUGCGUUUCAAGCUACGCAAAGGGGAGUUUAGGAAACCUAAAGAGCAAGGUUCGGCUCGCGAAAGAGUAGCACGAUACCCAAAAGUUAUACAGUCAAAAAUGGAACUGAAGGAGCGUAUAUUAAAGGCGUAUCAACUGUCACAAAAGUCAUUCGGUCAAGGAUC'
p219
aF0.8432432432432433
aa(lp220
S'Mat - Cuboid'
p221
aS'GUAGAAAAAGAAAGUAAAAAGUACGAAAAGGACCAGGCAAAAUUACGCGGGCCAAAGUAGUAGGCAGACAAACUCCAGACAGCAAGUAAAAGCAAUCGAAUAAGCUAGUAAAAGCUCCUAUUGUUGGGUGCAAAAACUGGCACUCGUGAAGGUGAUCAAACGCGUCCUCGGGGCCGCAAAUCCUAAAUGGCGUGUUGUUACAUAGAGAUGAAAAAAUAAUUUGGUUUGCUCGCUUUAGCUGUUUAGUAACGUUGGUAACGAGAGCAGUAGAGCCGGCGAGCCCUAUGUUUAUUAGAUGCGCAAGCGGGUAAGAAGGUGAGGGCAAUCAUGAGUAGGCAGACGUUGAAAGAAAAGGGAAGGUUCGCGUUUACGGUCUAAUC'
p222
aF0.6526315789473685
aa(lp223
S'Misfolded Aptamer 6'
p224
aS'AAAAAAUACGAAAAAGGGCAAGGAAAGACGAAAAAAAGUCAAAACGAAAAGCUUAAAAAAAGUAGAAAAAAAAAA'
p225
aF1.0
aa(lp226
S'Snowflake 3'
p227
aS'GCCCCAAAGGGAGACGACAAAAGUUAAUGUCAGAGCAACUCAAAAGAGGGCAGUAAAAACUACAAAGUAGAAAAAUCAGUCGACAAAAGUCAAGUUCAGAUCAACACUAAUGUGGACACCGAAAAGUACAAAGUAGAAAAGUCAGUUGACAAAAGUCAAGAUCAGAUCAACUGAAAACAGGACAGCAAAAGCUUUAAGGAAGGUAAUCCACACGACAAAAGUCAAGAUUAGAUCAACACAAAAGUGGUGACUAAAAAGGACAAAGUGGCAAAAGCAUGCGGUAAAGAUCAAGAUCAGAUCAACACGAAAGUGGACAGUAAAAACUACGAAGUAGCAAAAGCAGUCCACAAAAGUCAAGAUCGGAUAAACACAAAAGUCGUCACCAAAAGGGGC'
p228
aF0.8473282442748091
aa(lp229
S'Hard Y and a bit more'
p230
aS'AAAAAGUGAGGCCCAAAAUAAUUUUUAGACCAUAUAAUGUGAGCGAAAGUUCUAGGUACAAAAAAGUAUCGAGUGAUAACCGCAAGAAAAAAAAAAAAAAAAAAAA'
p231
aF0.9716981132075472
aa(lp232
S'Mat - Lot 2-2 B'
p233
aS'GAGGGUGUCCAGUGGCCAAAGCUGGGACAAAAGUAAAACCAUGCGUAUCAAAAAGGCGGAGGACGCAAGCAAACGGUGGAAAAAGUGAGUGUUUACCAAAUUAAAAAGGUUUGUACGAACGAACUCAUCACGUAUUAACAAAAAUGUAGGUCCCUUGUAAAGGCGGAAUUAAAGUAAAGCUAAAACGGUUGAAACACAAACUAAGAAUGAGUGGGCAGAUACAAAAUGAUGACCGUACAAAAUCAAAAGAUCUAGAAAAUUCUGUGGCUGCUCCUGACAAUAGC'
p234
aF0.7429577464788732
aa(lp235
S'Shapes and Energy'
p236
aS'AAAAAGGAAAUCGGUUCAAAAGGAAGCUUACUAAUGGAGGCAAACGAACAAGGAAAAAUCGAAGAAAUUCGCCAGAUUGCAAAAAAAAAAAAAAAAAAAAA'
p237
aF1.0
aa(lp238
S"Spiral of 5's"
p239
aS'UAAAAGAUACUAAGAUAUAAAGAUAGAAAGGAUACAAUGAUAGAAAGCUAGUAGAUACAAAAGAUACGAAGAUAGAAUGAUUGGAGAUACAAUGAUUGAAAGAUAGAAGAUACAAUGACAGAAGAUAGAAGAUAGAGGAUACAGGAUACGGAAUCAGACGCAUAUUAAAAAAAUAUGUUAGGCGUUGAAAAGAUUCAAAAAGUAUCAAAAAGUAUCAAAAAUUAUCAAAAAUUAUCGAAAACUGUCUAAAAGUAUCAAAAGCUAUCAAAAACAAUCUAAAGGUAUCAAAAACAAUCUAAAACUAUCAAAAAGUAUCAAAAAGUAUCAAAAUCUAGUAAAAGCUAUCUAAAGGUAUCAAAAACUAUCAAAAAAUAUCAAAAUGUAUCAAAAAAAAAAA'
p240
aF0.9949622166246851
aa(lp241
S'Campfire'
p242
aS'AAAAUGCCAAGAUCCAACACGAAGCCAUAAAUUAUUGCUAGGAAGCGUAAGCAGUCGAGGUCUUUAGGACUGGGUAAUCCACAGCCGAUAGACACAAGGAGGUAAUCGUCUAGACAAGACAAAGCUACUACUCAGAUACUGGAUACAUGGACUGAGUAAGAGGCACCGCUAAUGUGGGUCCCGUCAUUAUCAAGGAUAAAAGCAUCUCGGUA'
p243
aF0.7924528301886793
aa(lp244
S'Anemone'
p245
aS'AAAAAUAGAAAAGUCUAUUGACUCAAAAGAGUCGUCUUCAAAGGAGGACCUUGCUAAUGCAGGCUGAGAGAAAUUUCGGGAUACGAAAGUAUCGCUACUAACGUAGCGAUAUCGAAAGAUAUCAGGCACAAAGGUGUCGGCAGAUAACUCUGCCCACGGGAAACCGUGCAUACCGAAAGGUAUGCACUGGAAACGGUGCAUUCCGAAAGGAGUG'
p246
aF1.0
aa(lp247
S'Fractal 3'
p248
aS'AAAAAUUGCGCACAGCAAAAGUUCAAAAGACUUCAGUCAUCAAAAGGCGAAAACGAGGCGGCCACUUAAUGCGCUAAUGCAGGCAGUAAGAAAAAUCACAAAAGUCUGCAGCAAAAAAA'
p249
aF0.8823529411764706
aa(lp250
S'Kyurem 5'
p251
aS'AAAAAAAUAUUGGACAAAGAUCUUCAAAAGAGCCUCAAAACUCUAAAUGAGUGGCGAGGAAAAAGUUAGCACGGGCGAAAUAUUGAAAAAAAAAAAAAAAAAAA'
p252
aF0.9230769230769231
aa(lp253
S'Snowflake Necklace ( or v2.0 )'
p254
aS'GGUGUAUAUAUGUAGAGAUACAUCAAAAAGAAGGAAAAACCACUAAAAGAGAACGAAAAGCAGCGAAAAGCGGUAUCAGAUAAAAAAUCAGAGACGCCGAAAAGAAGCAAAAAGCAGCAAAAAGCUGUGAAAAACUGCCAAACGAAGUUUCAACCAAAAAGGAAUAUACUGCUAAAUACGCGGAAAAUGGGGAAAAAGCAGCAAAAUGCAGCAAAAAGCUGUAUGGGACGAAAAGUCAUAUUUAGCAAAAACCGGAAAAAAAUAGAAAAAAUCAGCAAAAGACAGAAAAAAUGAGAAUGAGCGAAAAAGGCAUCCGCAGAAAAAAGCAACAAAAAGUAGCAAAAGGCAGCAAAAAGCACCAAAAAACGUCGGGAUUACAUAUAUAUAUC'
p255
aF0.8766066838046273
aa(lp256
S'Methaqualone C16H14N2O Structural Representation'
p257
aS'AAAAAAAGAUCAGAUCAGGAAUACAAAAGUAAUGCACUCAAAAGAGAGACAGGCAAAAGCCGGACAGUCAAAAGGCAGCUGAAAAAAAGUAAUCAGUCAGCCAGUUAUUAUAAGAUCAGCUCAAAGAGAAGAAGGCUAUGCAAAAAAAAUUGUGAGAUCGAAAAUGACACAAAAGUGCAGAAAACUCGCUUUCAGAUAGCAAGAACAAUUAGAGUGACAGACGCACUAAGCACGAAAGUGUGUGGGGCAAAAGCCAGUCAGAUAAAAGUCGGUCUGCCAAAAGGUACUCAGACCACAAAAGUGCUCAAAAGAGAUGCAAAAGUCGUCGGACAGCUAAAAGGGCAGAUCAAAAAAA'
p258
aF0.9154929577464789
aa(lp259
S"Cat's Toy 2"
p260
aS'AAAGUCUUCAGGUAAAGCGUUAAAAAAAAAAAAAAAAAAGAUUAUAAACGGAAAGGCGGAGAAAACUUAAAAAACGUUAAAUAGCCUUGAAGAAAAA'
p261
aF0.9381443298969072
aa(lp262
S'Zigzag Semicircle'
p263
aS'AAAUCAGUUUAGUGCAAAUCAUAGCAACUCUAAA'
p264
aF0.9411764705882353
aa(lp265
S'Short String 4'
p266
aS'AAAACACGAUGAAUUAAGAAGGGGCCCGAUAACCGCAACAAAGUAUUUUCAAAAGAUCGUCGCAAGUGACAGUGCGAAAAAAAAAAAAAAAAAAAAA'
p267
aF0.9381443298969072
aa(lp268
S'Gladius'
p269
aS'GGAAACAGCGAAUCAAGGAGUGGGGAGAACGCAGACAAAGACCAAAAGGUCGGAUCGGUUAGGGCAGACUUGAUGGGCGUAAGAGAUAUAGUAUAUAGGAUUCAGUCGUCACUUCGAGAUCUAUGAUCAGAAAGGGCGCAUGGGUACUAUGAACUGUAUCAACCAUGCAAUGCGAGAACACCCAAAGUGAUUAGUCAAGGUCAGAAUCUCAAGACAAUAGAUUAGAAGAUUUGGUGAUAUGCACAGUGAGCAGAGACGUAUCAUACAGUUAUCGAAAGGUAACAGGUGGAGGAUAGUUUUCGUUAUUAGGUAUAUCUCAUAAUUAUAAGAUCAUAAGACAGAUGAUUUAGAACAAAAGUUUAAAUACAGUGGAAUAACGAAGCAAGGUAAAGAAUAAAAG'
p270
aF0.915
aa(lp271
S'Thunderbolt'
p272
aS'GCAAAUUCGAAAAAAAAAGACAAGGUGAGAGGGGAAACGUAUAGUCCGAAACCAGAGGAAAAAGGAUCGAAAAGAUCAAAAAACCGAAGCUUACAGAAAAAGUUUAAAAAAGUACAAGCAUGCAAAAAUAAAAAACAUUUAAACGGCAAAAUCUAGCAAAAAUGGCGUGUAAAAGUCAGAUGAAAGAAAAAAGGGGUGUAUAUUAAGAACAAAAGAAAGAGCAUGGAAAAAAUGAUGCGGGGAAUGUCAAAGAUGUUAGCUGGCAAAAAAAAAAAGUCAGCAAAAAAAAUUAAGUGAAUAGGUAACAAAAACGAAAAAAAGAAAAGGUUACCAAACUAUAAGGACUAUAAAAAAAAACUUCGGGUGUAAAAAGAAAAAAACAUGAAUAGGCA'
p273
aF0.9336734693877551
aa(lp274
S'Mutated chicken feet'
p275
aS'AAAAAAGGGAGGAGCAAAGCGUGAAAGCGAACAUCAUUAGGGCAAAAUGACCAAAUGGAAUUGGAACAGGAGAAAAUCGGUGAAGCAGUCUGUAAAAAAA'
p276
aF0.86
aa(lp277
S'Chicken Tracks'
p278
aS'AAAAAAAGUUGGGGGACACAAAAGUGUGAGAUCAAAGGAUCGAGGGCAAAGGCCCCCCUCAAAACUCGGUCGAUUAUCGAAGUAUAUGAUUUGCCUAGAAUAGGGAGAAAUAAAAA'
p279
aF0.9827586206896551
aa(lp280
S'Looking Back Again'
p281
aS'GACAAGAGAACCAAAAAGGUUUCAAAGAGAUCGAGGUAAGACGGCAAGUCAAAGGCGCGAGAUAAAAAGAUCAAAAGAUCAAAAGUAUCGAGUCAAUUCAAGAUCGAUAAAAAGAUACAAAAGUAUCAAAGAAGUCAAGAGCAUGCAAGGUAUGUACCCUAUGGAUGGGUAUUGCAAGUAUAAUUCUAAGACGAUGGAAACAUCAGUGGUUGCUGCAGCGCUAAAAGGCAAAAUAUCAAAGAUUUCAUCGGAUAGAGGUCAAAAAAGUGAUAGAAAAAAAAGAUCUAAAUAAUUCUAUAAACGCGGACCGCUCAAAAAAGUGAUAUCAAAAGAUAUCCAGACCCAAAGGAGAUACAAAGUAUCAAGUCGCAAAAGAGCCAAUCAAAGUC'
p282
aF0.9074550128534704
aa(lp283
S'Multilooping 6'
p284
aS'AUUCGCUCUGGGGGAGAAAUCCUCGUUUUAAAGGGUACGGGGGAGGUAGUAAUCUACCAGCUUUAAUAAGCGCCCAAUUUUA'
p285
aF0.9146341463414634
aa(lp286
S'Cesspool'
p287
aS'UACGGAAAUAGUGAGAUUUCACAGUCAAAGGCAACAGACUGCCGUUUUCAUAACUGGACCUAAAAAUUUCAAAAUCUAAUCAACAAGAAGGUUUACAAAAGAAGGUUAUCGAGCAAAAUGCAAUAAAUUGCCGAGAUUGAAAGUGCGGUUUAAAAAUUAAAAAGGAAAAUCUAUAGGAGUGUGGAGAAAACGACCCUUUAAAGUGAAACGCAGUAAAUUAUGGAGUUCAAAAGUCAGGGGCGAAAAACUUAAAUGACAACAACAAGCAACCUUAAAGAAAACCAGCCGAUACACGCAAAGCAAACAGAGAGUCGGGUUGAAGAUUUCAAAUUAAAGAUGUAACAUGAAAACACUUUUG'
p288
aF0.6312849162011173
aa(lp289
S'Hoglafractal'
p290
aS'AAGUAAAAAAUAGAAAAGUGACAAAAAAGUCACCUAGUGUUAGAUGCUCAAAAAGAUCCGACGGUAAGACAAAAGUCGCCAGAGAAAGAGCAAAGAUCUAAAAUGAUCCUUAGAUAAGCUAAAAAAGCAUCGCAGAAAAAUUCUAGGUCAAAAGUCAAGAUAAAAAAGUCGGGUCACGAAAAACGGAAAAAAGAUUCAGAUAAAAAAAGGAUCAAAAAAGAUCAACUAAAUGUAUGGAAACAAGAAUGCAAAAAGGACUAAAAUGUCGCUAAAUGAGAAGUUAAACAAAGUUUAACAAAAAAAGUAUUCAAAAAAUUAUCAAAAAGACCAAAACUCAAAAUAUCGAAGGACACAUGAAAUGCAAAAGCCGAAAACAGAUAACAAAGUUAUCCCGUGGUAA'
p291
aF0.89
aa(lp292
S'Bullseye'
p293
aS'AAAAUUGUGCAAGGUGCGGCCUUAAAAAGGAGGCACAAGGCGCGGUGAAAAAAGGUAGAUUGAAGCUCGGUGAGGAACUUAAACAACUAUGAUGUAUAAAAAAACAAGGAUCGAAAAUCGAUAGGGAACUUGGAGAUCGAAGAUUAUUAAAAAAAUGACGAUUAAGCAUUGAGCAUAAAGUGCGAGAUAUAUUCUCAUCUAA'
p294
aF0.8415841584158416
aa(lp295
S'Shooting Star'
p296
aS'GAUGUCGAUCUAUAUACAAAGAGGUUAAACCACACAGGAAAGCGAGUAGGGUAUAAGUCCAAGUAUAUCAAGUACAGGAGAGUCACACAGGUGGAGAUACAUCACUUAAUGAGGAUAGGUUCACACACGUGAGAAUGCCAGGGAAAACAGUAUUGAUGUGUACAAAGUACGACAUAAUAUUUAUGUAUAAAAAGGGGAUCAAAUCAGUCCAGGUGAAAGAGAUACGAAGUAUCUCAGAUACAAAGUAUCCAUCGUUUUACUAUGUAAAACAGAUCCAAGGGAUCGGACGAUGGCCAAAAGAUUUAAGCAUAGACUCACAGAACAAAAAUACGCUAGGAGAGGAGGACAGUCACAGCAGACAUCA'
p297
aF0.8186813186813187
aa(lp298
S'Teslagon'
p299
aS'AAAAAAGGUAAAAAAGAGGUAAAAAAAGGAGCAAAAAAAAAAAAAAAGUAAAAAAUUAACAAAAGAAAAAAAAAACCAGCAAAAAAAACAGCAAAAAAAGCAAAAAAAAAAAAAAAGCAAAAAAAGCAUCAAAAAAAGCAUCAAAAAAAAAAAAAAAGAGAAAAAUAUACGAAAAAAAAAAAAAAGCUCCGAAAAAAGAGAUAAAAAAUGGAAAAAAAAAAAAAAGCCUAAAAAAAUAACAAAAAAAGUAGGAAAAAAAAAAAAACCUAAAAAAAGUUGGAAAAAAAAAAAAAAAUUAACAAAAAAAGAAAGAAAACAAGAAAAAAAAAAAAAUCAAAAAAAAAAAAAAAGCAACAAAAAAACUCUCAAAAAAUUUAAAAAA'
p300
aF0.8900523560209425
aa.