(lp0
(lp1
F41.7
aF0.5
aa(lp2
F60.0
aF0.0
aa(lp3
F15.0
aF1.7
aa(lp4
F43.5
aF2.4
aa(lp5
F175.2
aF0.1
aa(lp6
F15.0
aF2.2
aa(lp7
F30.5
aF1.1
aa(lp8
F15.0
aF1.1
aa(lp9
F36.4
aF1.6
aa(lp10
F35.1
aF0.8
aa(lp11
F15.0
aF2.9
aa.