(lp0
(lp1
F254.7
aF1.0
aa(lp2
F175.2
aF0.1
aa(lp3
F15.0
aF3.0
aa(lp4
F39.6
aF1.2
aa(lp5
F15.0
aF2.6
aa(lp6
F15.0
aF2.7
aa(lp7
F15.0
aF2.9
aa(lp8
F43.5
aF2.4
aa(lp9
F41.4
aF2.1
aa(lp10
F36.4
aF1.6
aa(lp11
F15.0
aF2.3
aa.