(lp0
(lp1
F175.2
aF0.1
aa(lp2
F15.0
aF1.8
aa(lp3
F60.0
aF0.0
aa(lp4
F15.0
aF2.5
aa(lp5
F21.2
aF0.8
aa(lp6
F38.7
aF0.6
aa(lp7
F35.1
aF0.8
aa(lp8
F15.0
aF2.8
aa(lp9
F41.7
aF0.5
aa(lp10
F73.6
aF2.7
aa(lp11
F45.0
aF0.0
aa(lp12
F30.5
aF1.1
aa(lp13
F15.0
aF1.7
aa(lp14
F15.0
aF2.6
aa(lp15
F15.0
aF2.1
aa(lp16
F30.0
aF0.0
aa(lp17
F43.5
aF2.4
aa(lp18
F15.0
aF1.1
aa(lp19
F254.7
aF1.0
aa(lp20
F35.3
aF1.6
aa(lp21
F15.0
aF0.8
aa(lp22
F120.0
aF0.0
aa(lp23
F37.2
aF0.3
aa(lp24
F15.0
aF2.3
aa.