(lp0
(lp1
F15.0
aF2.0
aa(lp2
F30.5
aF1.1
aa(lp3
F21.2
aF0.8
aa(lp4
F15.0
aF1.8
aa(lp5
F30.0
aF0.0
aa(lp6
F73.6
aF2.7
aa(lp7
F38.7
aF0.6
aa(lp8
F15.0
aF2.2
aa(lp9
F60.0
aF0.0
aa(lp10
F35.3
aF1.6
aa(lp11
F32.3
aF1.0
aa(lp12
F35.1
aF0.8
aa(lp13
F15.0
aF3.0
aa(lp14
F15.0
aF2.7
aa(lp15
F15.0
aF2.4
aa(lp16
F15.0
aF2.9
aa(lp17
F45.0
aF0.0
aa(lp18
F120.0
aF0.0
aa(lp19
F15.0
aF2.1
aa(lp20
F15.0
aF2.8
aa(lp21
F15.0
aF0.8
aa(lp22
F254.7
aF1.0
aa.