(lp0
(lp1
F30.0
aF0.0
aa(lp2
F15.0
aF0.8
aa(lp3
F37.2
aF0.3
aa(lp4
F15.0
aF2.7
aa(lp5
F30.5
aF1.0
aa(lp6
F36.4
aF1.6
aa(lp7
F15.0
aF1.6
aa(lp8
F31.0
aF0.4
aa(lp9
F41.4
aF2.1
aa(lp10
F15.0
aF1.1
aa(lp11
F63.5
aF0.4
aa(lp12
F73.6
aF2.7
aa(lp13
F43.5
aF2.4
aa(lp14
F15.0
aF2.2
aa(lp15
F15.0
aF1.7
aa(lp16
F15.0
aF2.4
aa(lp17
F15.0
aF2.9
aa(lp18
F15.0
aF2.0
aa(lp19
F120.0
aF0.0
aa(lp20
F45.0
aF0.0
aa(lp21
F254.7
aF1.0
aa(lp22
F21.2
aF0.8
aa(lp23
F35.1
aF0.8
aa(lp24
F15.0
aF2.6
aa(lp25
F30.5
aF1.1
aa(lp26
F38.7
aF0.6
aa(lp27
F39.6
aF1.2
aa(lp28
F15.0
aF2.3
aa(lp29
F27.5
aF1.6
aa(lp30
F15.0
aF1.9
aa(lp31
F35.3
aF1.6
aa(lp32
F15.0
aF2.5
aa(lp33
F32.3
aF1.0
aa(lp34
F43.7
aF0.3
aa.