(lp0
(lp1
F63.5
aF0.4
aa(lp2
F43.7
aF0.3
aa(lp3
F38.7
aF0.6
aa(lp4
F73.6
aF2.7
aa(lp5
F21.2
aF2.4
aa(lp6
F37.2
aF0.3
aa(lp7
F36.4
aF1.6
aa(lp8
F60.0
aF0.0
aa(lp9
F30.5
aF1.1
aa(lp10
F15.0
aF2.8
aa(lp11
F45.0
aF0.0
aa(lp12
F15.0
aF2.3
aa(lp13
F41.7
aF0.5
aa(lp14
F31.0
aF0.4
aa(lp15
F15.0
aF1.6
aa(lp16
F120.0
aF0.0
aa(lp17
F21.2
aF0.8
aa(lp18
F175.2
aF0.1
aa(lp19
F15.0
aF1.8
aa(lp20
F32.3
aF1.0
aa(lp21
F15.0
aF2.0
aa(lp22
F15.0
aF2.4
aa(lp23
F30.0
aF0.0
aa(lp24
F15.0
aF2.6
aa(lp25
F15.0
aF2.1
aa(lp26
F41.4
aF2.1
aa(lp27
F15.0
aF3.0
aa(lp28
F15.0
aF1.1
aa(lp29
F15.0
aF2.5
aa(lp30
F35.3
aF1.6
aa(lp31
F15.0
aF2.7
aa(lp32
F15.0
aF0.0
aa(lp33
F30.5
aF1.0
aa(lp34
F43.5
aF2.4
aa(lp35
F35.1
aF0.8
aa(lp36
F15.0
aF1.9
aa.