(lp0
(lp1
F15.0
aF0.8
aa(lp2
F15.0
aF1.1
aa(lp3
F15.0
aF0.0
aa(lp4
F15.0
aF3.0
aa(lp5
F15.0
aF2.8
aa(lp6
F15.0
aF2.1
aa(lp7
F35.1
aF0.8
aa(lp8
F15.0
aF1.9
aa(lp9
F15.0
aF2.7
aa(lp10
F120.0
aF0.0
aa(lp11
F37.2
aF0.3
aa(lp12
F41.7
aF0.5
aa(lp13
F31.0
aF0.4
aa(lp14
F175.2
aF0.1
aa(lp15
F15.0
aF2.4
aa(lp16
F15.0
aF1.7
aa(lp17
F21.2
aF0.8
aa(lp18
F30.0
aF0.0
aa(lp19
F43.5
aF2.4
aa(lp20
F15.0
aF1.6
aa(lp21
F254.7
aF1.0
aa.