(lp0
(lp1
F15.0
aF2.7
aa(lp2
F15.0
aF2.5
aa(lp3
F15.0
aF0.8
aa(lp4
F21.2
aF0.8
aa(lp5
F31.0
aF0.4
aa(lp6
F27.5
aF1.6
aa(lp7
F15.0
aF1.7
aa(lp8
F254.7
aF1.0
aa(lp9
F120.0
aF0.0
aa(lp10
F30.5
aF1.1
aa(lp11
F30.0
aF0.0
aa(lp12
F15.0
aF2.8
aa.