(lp0
(lp1
F15.0
aF0.0
aa(lp2
F15.0
aF2.6
aa(lp3
F39.6
aF1.2
aa(lp4
F15.0
aF3.0
aa(lp5
F15.0
aF1.9
aa(lp6
F15.0
aF1.8
aa(lp7
F30.5
aF1.1
aa(lp8
F21.2
aF0.8
aa(lp9
F15.0
aF1.1
aa(lp10
F21.2
aF2.4
aa(lp11
F254.7
aF1.0
aa(lp12
F15.0
aF1.6
aa(lp13
F15.0
aF2.1
aa(lp14
F38.7
aF0.6
aa(lp15
F15.0
aF2.8
aa(lp16
F30.5
aF1.0
aa(lp17
F27.5
aF1.6
aa(lp18
F15.0
aF2.4
aa(lp19
F36.4
aF1.6
aa(lp20
F41.4
aF2.1
aa(lp21
F175.2
aF0.1
aa(lp22
F120.0
aF0.0
aa.