(lp0
(lp1
F21.2
aF2.4
aa(lp2
F15.0
aF2.1
aa(lp3
F15.0
aF2.9
aa(lp4
F30.0
aF0.0
aa(lp5
F37.2
aF0.3
aa(lp6
F15.0
aF0.8
aa(lp7
F15.0
aF2.2
aa(lp8
F15.0
aF1.7
aa(lp9
F21.2
aF0.8
aa(lp10
F30.5
aF1.0
aa(lp11
F30.5
aF1.1
aa(lp12
F73.6
aF2.7
aa(lp13
F27.5
aF1.6
aa.