(lp0
(lp1
F30.0
aF0.0
aa(lp2
F15.0
aF0.8
aa(lp3
F37.2
aF0.3
aa(lp4
F15.0
aF2.7
aa(lp5
F30.5
aF1.0
aa(lp6
F36.4
aF1.6
aa(lp7
F15.0
aF1.6
aa(lp8
F31.0
aF0.4
aa(lp9
F41.4
aF2.1
aa(lp10
F15.0
aF1.1
aa(lp11
F63.5
aF0.4
aa(lp12
F73.6
aF2.7
aa(lp13
F43.5
aF2.4
aa.