(lp0
(lp1
F31.0
aF0.4
aa(lp2
F36.4
aF1.6
aa(lp3
F30.5
aF1.0
aa(lp4
F32.3
aF1.0
aa(lp5
F15.0
aF0.0
aa(lp6
F38.7
aF0.6
aa(lp7
F15.0
aF1.7
aa(lp8
F15.0
aF2.3
aa(lp9
F43.5
aF2.4
aa(lp10
F15.0
aF2.1
aa(lp11
F43.7
aF0.3
aa(lp12
F15.0
aF1.8
aa(lp13
F15.0
aF2.4
aa.