(lp0
(lp1
F73.6
aF2.7
aa(lp2
F15.0
aF2.9
aa(lp3
F15.0
aF1.7
aa(lp4
F15.0
aF2.5
aa(lp5
F60.0
aF0.0
aa(lp6
F63.5
aF0.4
aa(lp7
F15.0
aF2.7
aa(lp8
F15.0
aF2.1
aa(lp9
F41.4
aF2.1
aa(lp10
F15.0
aF3.0
aa(lp11
F30.5
aF1.1
aa(lp12
F39.6
aF1.2
aa(lp13
F32.3
aF1.0
aa(lp14
F15.0
aF2.0
aa(lp15
F15.0
aF2.6
aa(lp16
F15.0
aF2.3
aa(lp17
F120.0
aF0.0
aa(lp18
F15.0
aF2.4
aa(lp19
F30.5
aF1.0
aa(lp20
F35.1
aF0.8
aa(lp21
F21.2
aF0.8
aa(lp22
F21.2
aF2.4
aa(lp23
F175.2
aF0.1
aa(lp24
F15.0
aF2.2
aa(lp25
F15.0
aF1.9
aa(lp26
F30.0
aF0.0
aa(lp27
F15.0
aF0.0
aa.