(lp0
(lp1
F41.4
aF2.1
aa(lp2
F21.2
aF0.8
aa(lp3
F15.0
aF3.0
aa(lp4
F30.5
aF1.1
aa(lp5
F15.0
aF2.2
aa(lp6
F41.7
aF0.5
aa(lp7
F30.0
aF0.0
aa(lp8
F30.5
aF1.0
aa(lp9
F39.6
aF1.2
aa(lp10
F27.5
aF1.6
aa(lp11
F38.7
aF0.6
aa(lp12
F35.1
aF0.8
aa(lp13
F15.0
aF2.7
aa(lp14
F31.0
aF0.4
aa(lp15
F15.0
aF1.6
aa(lp16
F15.0
aF2.9
aa(lp17
F120.0
aF0.0
aa(lp18
F36.4
aF1.6
aa.