(lp0
(lp1
F15.0
aF2.1
aa(lp2
F15.0
aF1.9
aa(lp3
F41.7
aF0.5
aa(lp4
F36.4
aF1.6
aa(lp5
F63.5
aF0.4
aa(lp6
F15.0
aF2.2
aa(lp7
F15.0
aF2.0
aa(lp8
F120.0
aF0.0
aa(lp9
F32.3
aF1.0
aa(lp10
F15.0
aF2.3
aa(lp11
F39.6
aF1.2
aa(lp12
F60.0
aF0.0
aa(lp13
F15.0
aF2.4
aa(lp14
F15.0
aF1.6
aa(lp15
F21.2
aF0.8
aa(lp16
F21.2
aF2.4
aa(lp17
F15.0
aF2.6
aa(lp18
F43.7
aF0.3
aa(lp19
F35.1
aF0.8
aa(lp20
F38.7
aF0.6
aa(lp21
F15.0
aF2.8
aa(lp22
F15.0
aF1.1
aa(lp23
F15.0
aF2.9
aa(lp24
F15.0
aF0.0
aa(lp25
F15.0
aF3.0
aa(lp26
F73.6
aF2.7
aa(lp27
F30.5
aF1.0
aa(lp28
F15.0
aF2.5
aa(lp29
F254.7
aF1.0
aa(lp30
F30.5
aF1.1
aa(lp31
F15.0
aF1.8
aa(lp32
F45.0
aF0.0
aa(lp33
F175.2
aF0.1
aa.