(lp0
(lp1
F120.0
aF0.0
aa(lp2
F60.0
aF0.0
aa(lp3
F15.0
aF2.7
aa(lp4
F63.5
aF0.4
aa(lp5
F37.2
aF0.3
aa(lp6
F32.3
aF1.0
aa(lp7
F15.0
aF1.8
aa(lp8
F15.0
aF0.8
aa(lp9
F30.5
aF1.1
aa(lp10
F15.0
aF2.4
aa(lp11
F36.4
aF1.6
aa(lp12
F30.5
aF1.0
aa(lp13
F30.0
aF0.0
aa(lp14
F45.0
aF0.0
aa(lp15
F15.0
aF1.7
aa(lp16
F15.0
aF2.9
aa(lp17
F43.5
aF2.4
aa(lp18
F15.0
aF1.6
aa(lp19
F41.4
aF2.1
aa(lp20
F43.7
aF0.3
aa(lp21
F35.1
aF0.8
aa(lp22
F15.0
aF2.3
aa(lp23
F15.0
aF3.0
aa(lp24
F39.6
aF1.2
aa(lp25
F15.0
aF2.1
aa(lp26
F175.2
aF0.1
aa(lp27
F254.7
aF1.0
aa.