(lp0
(lp1
F21.2
aF2.4
aa(lp2
F15.0
aF2.1
aa(lp3
F15.0
aF2.9
aa(lp4
F30.0
aF0.0
aa(lp5
F37.2
aF0.3
aa(lp6
F15.0
aF0.8
aa(lp7
F15.0
aF2.2
aa(lp8
F15.0
aF1.7
aa(lp9
F21.2
aF0.8
aa(lp10
F30.5
aF1.0
aa(lp11
F30.5
aF1.1
aa(lp12
F73.6
aF2.7
aa(lp13
F27.5
aF1.6
aa(lp14
F63.5
aF0.4
aa(lp15
F31.0
aF0.4
aa(lp16
F45.0
aF0.0
aa(lp17
F36.4
aF1.6
aa(lp18
F41.7
aF0.5
aa(lp19
F39.6
aF1.2
aa(lp20
F175.2
aF0.1
aa(lp21
F35.3
aF1.6
aa(lp22
F43.5
aF2.4
aa(lp23
F15.0
aF2.3
aa(lp24
F15.0
aF2.7
aa(lp25
F43.7
aF0.3
aa.