(lp0
(lp1
F120.0
aF0.0
aa(lp2
F60.0
aF0.0
aa(lp3
F15.0
aF2.7
aa(lp4
F63.5
aF0.4
aa(lp5
F37.2
aF0.3
aa(lp6
F32.3
aF1.0
aa(lp7
F15.0
aF1.8
aa(lp8
F15.0
aF0.8
aa(lp9
F30.5
aF1.1
aa(lp10
F15.0
aF2.4
aa(lp11
F36.4
aF1.6
aa(lp12
F30.5
aF1.0
aa.