(lp0
(lp1
F45.0
aF0.0
aa(lp2
F15.0
aF2.5
aa(lp3
F15.0
aF1.8
aa(lp4
F41.4
aF2.1
aa(lp5
F35.1
aF0.8
aa(lp6
F254.7
aF1.0
aa(lp7
F120.0
aF0.0
aa(lp8
F15.0
aF2.9
aa(lp9
F15.0
aF2.6
aa(lp10
F35.3
aF1.6
aa(lp11
F15.0
aF2.7
aa(lp12
F39.6
aF1.2
aa(lp13
F43.7
aF0.3
aa(lp14
F15.0
aF0.8
aa(lp15
F37.2
aF0.3
aa(lp16
F15.0
aF1.7
aa(lp17
F15.0
aF2.1
aa(lp18
F30.0
aF0.0
aa(lp19
F27.5
aF1.6
aa(lp20
F15.0
aF1.6
aa(lp21
F63.5
aF0.4
aa(lp22
F15.0
aF0.0
aa(lp23
F43.5
aF2.4
aa(lp24
F73.6
aF2.7
aa.