(lp0
(lp1
F60.0
aF0.0
aa(lp2
F38.7
aF0.6
aa(lp3
F15.0
aF2.4
aa(lp4
F32.3
aF1.0
aa(lp5
F15.0
aF2.7
aa(lp6
F15.0
aF0.0
aa(lp7
F15.0
aF2.1
aa(lp8
F15.0
aF1.9
aa(lp9
F15.0
aF2.2
aa(lp10
F21.2
aF0.8
aa(lp11
F15.0
aF2.9
aa(lp12
F35.3
aF1.6
aa(lp13
F15.0
aF2.8
aa(lp14
F15.0
aF3.0
aa(lp15
F15.0
aF2.5
aa(lp16
F15.0
aF1.8
aa(lp17
F43.7
aF0.3
aa.