(lp0
(lp1
F43.5
aF2.4
aa(lp2
F15.0
aF1.8
aa(lp3
F73.6
aF2.7
aa(lp4
F15.0
aF2.3
aa(lp5
F27.5
aF1.6
aa(lp6
F37.2
aF0.3
aa(lp7
F41.7
aF0.5
aa(lp8
F15.0
aF2.9
aa(lp9
F15.0
aF1.7
aa(lp10
F120.0
aF0.0
aa(lp11
F15.0
aF2.1
aa(lp12
F15.0
aF0.8
aa(lp13
F15.0
aF2.8
aa(lp14
F15.0
aF1.9
aa(lp15
F15.0
aF3.0
aa(lp16
F21.2
aF0.8
aa(lp17
F63.5
aF0.4
aa(lp18
F15.0
aF0.0
aa(lp19
F254.7
aF1.0
aa(lp20
F15.0
aF2.5
aa(lp21
F31.0
aF0.4
aa(lp22
F30.5
aF1.0
aa(lp23
F30.5
aF1.1
aa(lp24
F39.6
aF1.2
aa(lp25
F175.2
aF0.1
aa(lp26
F30.0
aF0.0
aa(lp27
F32.3
aF1.0
aa(lp28
F15.0
aF2.7
aa(lp29
F35.3
aF1.6
aa(lp30
F38.7
aF0.6
aa(lp31
F36.4
aF1.6
aa(lp32
F15.0
aF2.2
aa(lp33
F35.1
aF0.8
aa(lp34
F41.4
aF2.1
aa(lp35
F43.7
aF0.3
aa(lp36
F15.0
aF2.4
aa(lp37
F21.2
aF2.4
aa(lp38
F15.0
aF2.6
aa(lp39
F45.0
aF0.0
aa(lp40
F60.0
aF0.0
aa(lp41
F15.0
aF2.0
aa.