(lp0
(lp1
S'GUGCGGUGGGGGUGCUAAAAGCUGCGAGGAAACUAAAACGUGGCAGUGCCAAAACCUGCCGGUGCGAAGGUGGCGGUGCUAAAACCUGCGGGUGCGAAAAGGGAAACCCGUGCCAAAACGUGGGAGUGCCGGUGCGAAAGGAAACUGCUGCGGGUGCUAAAAGCUGCGAGGAAACUAAAACGUGGCAGUGCCAAAACGUGGCCGUGCCAAGCUGCCGGUGCCAAAACCUGCGGGUGCCAAAAGCGAAAGCGGUGCCAAAACGUGGGGGUGCCCGUGCCAAGUGC'
p2
aF1.0
aa(lp3
S'GUGGGGUGCGGGUGCUAAAAGGUGCGAGGAAACUAAAACGUGCCAGUGCCAAAACGUGCCGGUGCGAACGUGCCGCUGCCAAAAGCUGCGCGUGCGAAAAGGGAAACCCGUGCGAAAACGUGGCGGUGGCGGUGCGAACCGAAAGGCGUGGGGGUGCUAAAAGGUGCGAGGAAACUAAAACGUGCCAGUGCCAAAACCUGCGCGUGCCAAGGUGCGCGUGCUAAAAGGUGCGGGUGCGAAAACGGAAACGCGUGCCAAAACGUGCCAGUGCGCGUGCCAACUGC'
p4
aF0.9577464788732394
aa(lp5
S'GUGGAGUGCGGGUGCUAAAAGGUGCGAGGAAACUAAAACGUGCCAGUGCCAAAACGUGCUGGUGCCAAGGUGGGGGUGCUAAAAGGUGCGGGUGCCAAAAGCGAAAGCGGUGCCAAAACGUGCCAGUGCCGGUGCCAACCGAAAGGCCUGCGGGUGCUAAAAGGUGCGAGGAAACUAAAACGUGCCAGUGCCAAAACGUGGGGGUGCCAACCUGCCGGUGCUAAAAGGUGCGGGUGCCAAAAGGGAAACCGGUGCCAAAACGUGCCAGUGCCGGUGCCAACUGC'
p6
aF0.9929577464788732
aa(lp7
S'GUGCGGUGCGGGUGCUAAAAGGUGCGACGAAAGUAAAACGUGCCAGUGCCAAAACGUGCCGGUGCGAACGUGCUGGUGGUAAAAGCUGCGGGUGCCAAAAGGGAAACCGGUGCCAAAACGUGGCACUGCCAGUGCUAAGCGAAAGCGGUGCGGGUGCUAAAAGCUGCGAGGAAACUAAAACGUGGCAGUGCCAAAACGUGCCAGUGCUAAAGUGCGCGUGCUAAAAGGUGCGGGUGCGAAAAGGGAAACCCGUGCCAAAACGUGCCAGUGCGCGUGCCAAGUGC'
p8
aF0.9330985915492958
aa(lp9
S'GUGGGGUGGCGGUGCUAAAAGGUGCGAGGAAACUAAAACGUGCCAGUGCCAAAAGCUGCCGGUGCGAACGUGCUGCUGCUAAAACGUGGGGGUGCCAAAAGCGAAAGCGGUGCCAAAACCUGCGAGUGGCGGUGCGAAACGAAAGUGGUGCCGGUGCGAAAAGGUGCGACGAAAGUAAAACGUGCCCGUGCCAAAAGGUGCCCGUGCCAAAGUGCGAGUGCUAAAAGGUGCCGGUGCCAAAAGCGAAAGCGGUGCCAAAAGGUGCCAGUGCUCGUGCCAACUGC'
p10
aF0.954225352112676
aa(lp11
S'CUGGGGUGCGCGUGGGAAAAGGUGCGAGGAAACUAAAACGUGCCCCUGCGAAAACGUGCCGGUGCGAAGGUGGCGGUGCUAAAAGGUGCGGGUGGGAAAAGGGAAACCCCUGCCAAAACGUGCCAGUGCCGGUGCCAAAGGAAACUGCUGGGGGUGCGAAAAGCUGCGAGGAAACUAAAACGUGGCCGUGCCAAAACCUGGCGGUGCCAAGCUGCCAGUGCUAAAAGGUGGCCGUGCCAAAACGGAAACGGGUGCGAAAAGCUGCCAGUGCUCGUGCCAACUGG'
p12
aF0.9929577464788732
aa(lp13
S'GUGCGGUGCGGGUGCUAAAAGGUGCGGCGAAAGCAAAACGUGCCAGUGCCAAAACGUGCCGGUGGGAAGGUGCCGGUGCGAAAAGCUGCGGGUGCCAAAAGGGAAACCGGUGCCAAAACGUGGCCGUGCCGGUGGGAACGGAAACGGGUGCGGGUGCUAAAACGUGGGGGGAAACCAAAACCUGCGAGUGCCAAAACGUGCCCCUGCCAAGGUGCCAGUGCGAAAAGGUGCGGGUGGGAAAAGGGAAACCCCUGCCAAAACGUGCCCGUGCUCCUGCCAAGUGC'
p14
aF0.9929577464788732
aa(lp15
S'GUGGAGUGCGGGUGCUAAAAGGUGCGCGGAAACGAAAACGUGCCAGUGCCAAAACGUGCUGCUGCCAACGUGCUGGUGCUAAAAGGUGCCCGUGCCAAAAGCGAAAGCGGUGCGAAAAGGUGCCAGUGCCGGUGGGAACGGAAACGGGUGGGGGUGCUAAAAGGUGCGGGGAAACCAAAACGUGCCAGUGCCAAAACCUGCCCCUGCCAAAGUGCGCGUGCCAAAACCUGCGGGUGCCAAAAGCGAAAGCGGUGCCAAAACGUGGGGGUGCGGGUGGCAACUGC'
p16
aF0.9929577464788732
aa(lp17
S'GUGCCCUGCGCCUGCUAAAAGGUGCCAGGAAACUAAAAGGUGCCAGUGGGAAAACGUGGGGGUGCGAAGCUGCCGGUGCUAAAACGUGCCCGUGCCAAAAGCGAAAGCGGUGCGAAAAGGUGCGAGUGCCCGUGCUAAACGAAAGUCGUGGGGGUGGGAAAAGGUGCGAGGAAACUAAAACGUGCCCCUGCCAAAACCUGCGAGUGCGAAGGUGGCGGUGCCAAAAGGUGCCCGUGGCAAAAGGGAAACCGCUGCGAAAAGGUGCCGGUGCCCGUGCCAAGUGC'
p18
aF1.0
aa(lp19
S'GUGCAGUGCCCCUGCUAAAAGGUGCCAGGAAACUAAAAGGUGCCAGUGGGAAAAGGUGCUGGUGCGAAGGUGGGCGUGCUAAAAGGUGCCCGUGCGAAAAGGGAAACCCGUGCGAAAAGGUGCCAGUGCGGGUGCUAACGGAAACGCGUGGGGGUGCGAAAAGGUGCGCGGAAACGAAAACGUGCCCGUGCCAAAACCUGCGAGUGCCAACCUGCCGGUGCUAAAACGUGGGCCUGCGAAAAGGGAAACCCGUGGGAAAACCUGCGAGUGCCCGUGCCAAGUGC'
p20
aF0.9929577464788732
aa(lp21
S'GUGGCCUGGGCGUGCUAAAAGGUGCGAGGAAACUAAAACGUGCCAGUGCGAAAACCUGGGGGUGGGAACGUGCGGGUGCCAAAAGGUGCGCGUGGGAAAAGGGAAACCCCUGCGAAAACGUGCCGGUGCCGGUGCCAACGGAAACGGCUGGGGGUGCUAAAAGGUGCGAGGAAACUAAAACGUGCCAGUGCCAAAACCUGGCGGUGCCAACGUGCGGGUGCGAAAAGGUGGCCGUGGCAAAAGGGAAACCGCUGCGAAAAGCUGCCCGUGCCCCUGCCAACUGC'
p22
aF1.0
aa(lp23
S'CUGGAGUGCGGGUGCUAAAAGGUGCGGCGAAAGCAAAACGUGCCAGUGCCAAAACGUGCUGCUGGGAAGGUGCUCGUGCUAAAACCUGCGGGUGCCAAAAGGGAAACCGGUGCCAAAACGUGGGAGUGCGGGUGGGAACGGAAACGGGUGGCGGUGCUAAAAGCUGCGAGGAAACUAAAACGUGGCAGUGCCAAAAGCUGCCCCUGCCAAAGUGCCGGUGCCAAAAGGUGCGGGUGCCAAAAGCGAAAGCGGUGCCAAAACGUGCCGGUGCCCCUGGCAACUGG'
p24
aF0.9929577464788732
aa(lp25
S'GUGGGGUGCGCCUGCUAAAAGCUGCGAGGAAACUAAAACGUGGCAGUGGGAAAACGUGCCGGUGCCAAGGUGCCGCUGCUAAAAGGUGCCGGUGCCAAAAGGGAAACCGGUGCCAAAAGGUGCCAGUGGCGGUGCCAAGGGAAACCGGUGGGGGUGCUAAAAGCUGCGGGGAAACCAAAACGUGGCAGUGCCAAAACCUGCCGGUGCCAAGGUGCCGCUGGUAAAAGGUGCCCGUGCCAAAACGGAAACGGGUGCGAAAAGGUGCCACUGGCGGUGCCAACUGC'
p26
aF0.9577464788732394
aa(lp27
S'GUGCCCUGGCGGUGCUAAAAGGUGCGCGGAAACGAAAACGUGCCAGUGCCAAAAGCUGGGGGUGCGAAGGUGGGGGUGGGAAAAGCUGCCGGUGCCAAAACGGAAACGGGUGCCAAAAGGUGGCCCUGCCCGUGCUAACGGAAACGGGUGCGGGUGCUAAAAGGUGCGAGGAAACUAAAACGUGCCAGUGCCAAAACGUGCCAGUGCGAACCUGCCACUGCUAAAAGGUGCGGGUGCGAAAAGGGAAACCCGUGCCAAAACGUGCCAGUGGUCGUGCCAAGUGC'
p28
aF0.9859154929577465
aa(lp29
S'GUGCAGUGCCGGUGCUAAAAGGUGCGACGAAAGUAAAACGUGCCAGUGCCAAAAGGUGCUCGUGCGAAGGUGCCGGUGCCAAAAGCUGGGGGUGCGAAAAGGGAAACCCGUGCCAAAACCUGGCGGUGCCGGUGCGAAACGAAAGUGGUGGCGGUGCUAAAAGGUGCGCGGAAACGAAAACGUGCCAGUGCCAAAAGCUGCCCGUGCCAAGGUGCCAGUGGGAAAAGCUGCGGGUGCCAAAAGGGAAACCGGUGCCAAAACGUGGCCCUGCUCGUGCGAAGUGC'
p30
aF0.9823943661971831
aa(lp31
S'GUGCGGUGCGGGUGCUAAAAGGUGCGAGGAAACUAAAACGUGCCAGUGCCAAAACGUGCCGGUGGGAAGGUGCGGGUGCCAAAAGCUGGGGGUGCCAAAACCGAAAGGGGUGCCAAAACCUGGCGGUGCCGGUGCUAAGCGAAAGCCCUGCGCGUGCUAAAAGGUGCCAGGAAACUAAAAGGUGCCAGUGCGAAAACGUGGGAGUGCCAACGUGCCAGUGCUAAAAGGUGCGGGUGCCAAAAGGGAAACCGGUGCCAAAACGUGCCAGUGCUCCUGCCAAGUGC'
p32
aF0.9929577464788732
aa(lp33
S'GUGCGGUGCGGGUGCCAAAAGGUGCGAGGAAACUAAAACGUGCCGGUGCCAAAACGUGCCGGUGCGAACCUGCCGGUGCUAAAAGGUGCGGGUGCCAAAAGGGAAACCGGUGCCAAAACGUGCCAGUGCCCCUGCUAAGGGAAACCCCUGCGCGUGCUAAAAGGUGCGGGGAAACCAAAACGUGCCAGUGCGAAAACGUGGGAGUGGGAAGGUGGGCGUGCCAAAAGGUGCGGGUGCGAAAACGGAAACGCGUGCCAAAACGUGCCGGUGCGCGUGCCAAGUGC'
p34
aF0.971830985915493
aa(lp35
S'GUGCGGUGCGGGUGCUAAAAGGUGCGAGGAAACUAAAACGUGCCAGUGCCAAAACGUGCCGGUGCCAAGGUGGGGGUGCUAAAAGGUGCGGGUGCCAAAAGCGAAAGCGGUGCCAAAACGUGCCAGUGCCGGUGCCAAACGAAAGUGGUGCGGGUGCGAAAAGCUGCCGGGAAACCAAAAGGUGGCCGUGCCAAAACGUGCCGGUGCCAACCUGCCAGUGCUAAAAGGUGCGGGUGCCAAAAGGGAAACCGGUGCCAAAACGUGCCAGUGCUGGUGCCAAGUGC'
p36
aF0.9929577464788732
aa(lp37
S'GUGGGGUGCGGGUGGGAAAAGGUGCGCGGAAACGAAAACGUGCCCCUGCCAAAACGUGCCGGUGCGAACGUGGGCGUGCUAAAAGCUGGGGCUGCGAAAACCGAAAGGCGUGGCAAAACCUGGCAGUGCGAGUGCCAACGGAAACGGCUGCCGCUGGGAAAAGGUGCGAGGAAACUAAAACGUGCCCCUGGCAAAAGGUGGCGGUGCUAACCUGCGCGUGCGAAAACCUGGCGGUGCGAAAAGGGAAACCCGUGCCAAAAGCUGGGCGUGCGCGUGCCAACUGC'
p38
aF1.0
aa(lp39
S'GUGCGGUGCGCCUGCUAAAAGGUGCGAGGAAACUAAAACGUGCCAGUGGGAAAACGUGCCGGUGCGAAGGUGGCGGUGCUAAAAGGUGCGCGUGCCAAAAGGGAAACCGGUGCGAAAACGUGCCAGUGCCGGUGGGAAAGGAAACUGCUGCGGGUGCUAAAAGGUGCGAGGAAACUAAAACGUGCCAGUGCCAAAACGUGGCCCUGCCAAGCUGCCAGUGCCAAAAGCUGCGGGUGGGAAAAGGGAAACCCCUGCCAAAACGUGGCGGUGCUCGUGCCAAGUGC'
p40
aF0.9929577464788732
aa.