(dp0
S'"Project : 2 multiloops with neck and branches 4nt long and tetraloops"'
p1
I16
sS'"Project : Hairpins: Hexaloop"'
p2
I23
sS'"[Gene Synthesizer] Level 8 of 14"'
p3
I6774
sS'"Project : 3-Branched Multiloop: Lonely Tetraloop"'
p4
I10
sS'"Project : Isolated Closing Pairs 3"'
p5
I18
sS'"Project : comparison series: 10-15"'
p6
I12
sS'"FMN switch Mimics: Round 91 follow-up - Shape 24"'
p7
I1
sS'"Investigation of Alternative Human tRNA Structures - Shape 31"'
p8
I1
sS'"Project : Rattus norvegicus miRNA"'
p9
I4
sS'"14-stack tetraloop hairpin"'
p10
I5
sS'"[RNA Polymerase] Level 7 of 9"'
p11
I1139
sS'"Project : Genetic Sequences: Solving Many Small Loops "'
p12
I13
sS'"Investigation of Alternative Human tRNA Structures - Shape 26"'
p13
I1
sS'"Project : Turtle project Ml 1-1-1-1'
p14
I6
sS'"Project : All red and blue"'
p15
I16
sS'"[Thermocycler] Level 5 of 11"'
p16
I3573
sS'"Example project for renewal 2 - Shape 3"'
p17
I1
sS'"Sarcin-ricin vs internal loops (redo) - Shape 2"'
p18
I2
sS'"Project : comparison series: 12-15"'
p19
I12
sS'"Project : Internal Loops: 6-3"'
p20
I21
sS'"Alternative structure space for human tRNAs - Shape 20"'
p21
I2
sS'"Alternative structure space for human tRNAs - Shape 36"'
p22
I1
sS'"Project : Bulge test"'
p23
I17
sS'"Project : 3-Branched Multiloop: Lonely Triloops"'
p24
I17
sS'"Project : Turtle project Ml 2-2-2-2-2-2'
p25
I3
sS'"Project : comparison series: 6-2"'
p26
I12
sS'"Aptamer secondary structure - Shape 0"'
p27
I1
sS'"[RNA Polymerase] Level 5 of 9"'
p28
I1188
sS'"Project : Stack With Multiple 3-nt Bulges (1B)"'
p29
I8
sS'"Project : janderson\'s LR12"'
p30
I11
sS'"Project : Natural RNAs: Barley Yellow Dwarf Virus 5\' UTR (1)"'
p31
I9
sS'"Project : comparison series: NNF 2x 1-1 NEAR"'
p32
I9
sS'""Sea Turtle" for New Players"'
p33
I1
sS'"Project : Turtle project Ml 3-3-3-3'
p34
I6
sS'"Project : comparison series: NNF x3 2-2 near"'
p35
I3
sS'"Project : Multiloop: 3 Branches'
p36
I1
sS'"Project : Genetic Sequences: Solving Multiloops Reposted"'
p37
I11
sS'"Apical Loop Comparison - Dissimilar Stem Sequences - Shape 0"'
p38
I1
sS'"Alternative structure space for human tRNAs - Shape 3"'
p39
I4
sS'"Project : comparison series: ML-I 2-2-2 x2 3NTS"'
p40
I7
sS'"[Thermocycler] Level 2 of 11"'
p41
I3956
sS'"Project : GU-pin shape test"'
p42
I12
sS'"Project : Natural RNAs: Barley Yellow Dwarf Virus 5\' UTR (3)"'
p43
I9
sS'"Project : idk"'
p44
I5
sS'"Project : comparison series: 9-2"'
p45
I10
sS'"Project :  comparison series: NNF x3 3-3 near"'
p46
I6
sS'"Project : comparison series: ML-I 10-1-1"'
p47
I15
sS'"Project : Turtle project Ml 3-3-3-3 with 3 legs (2NT)'
p48
I6
sS'"Alternative structure space for human tRNAs - Shape 8"'
p49
I1
sS'"Hairpin Loop Comparison Pilot - Stem Comparison Tests"'
p50
I1
sS'"Project : Hard Lab Fragments: Making it Up As I Go Multiloop"'
p51
I14
sS'"Improve "The Branches NUPACK bot design 2" with "Simplified Berex Test" strategy"'
p52
I18
sS'"Project : 30 Nucleotide Loop 3 - Bulge Internal Loop"'
p53
I13
sS'"Improve "The Branches NUPACK bot design 8" with "Numbers of yellow nucleotides pr. length of string" strategy"'
p54
I17
sS'"Project : comparison series: 1-15"'
p55
I19
sS'"Project : Small Sided"'
p56
I12
sS'"Project : Turtle project Ml 2-2-2-2-2 with 4 legs (2NT)'
p57
I6
sS'"test - Shape 7"'
p58
I1
sS'"[Gene Synthesizer] Level 12 of 14"'
p59
I5533
sS'"Project : Natural RNAs: Hop Stunt Viroid"'
p60
I12
sS'"Project : comparison series: ML-I 2-2-6"'
p61
I12
sS'"Project : comparison series: 1-1"'
p62
I23
sS'"P4P6 Group 1 Intron"'
p63
I1
sS'"[Microfluidic Chip] Level 4 of 7"'
p64
I823
sS'"[Next-Generation Sequencer] Level 11 of 11"'
p65
I1504
sS'"Project : Fractal RNA"'
p66
I16
sS'"Project : comparison series: 2-9"'
p67
I18
sS'"Poly (A) Structure Analysis 3 - Shape 5"'
p68
I1
sS'"Project : comparison series: 15-7"'
p69
I11
sS'"Project : comparison series: 15-12"'
p70
I10
sS'"Improve "Bulged Star NUPACK design 02" with "Repetition" strategy"'
p71
I13
sS'"Multistate RNA Structure: 3-way junction to 2-way junction - Shape 10"'
p72
I2
sS'"Project : loop test 4"'
p73
I11
sS'"Project : Quadloop Mania 1"'
p74
I10
sS'"Project : Turtle project Ml 1-1-1 with 3 legs (2NT)'
p75
I6
sS'"Alternative structure space for human tRNAs - Shape 10"'
p76
I1
sS'"Project : Isolated Base Pairs: Adjacent 2-1 Loops (2)"'
p77
I6
sS'"Hairpin Loop Comparison Pilot - Shape 4"'
p78
I3
sS'"Project : Close Multiloops (1)"'
p79
I13
sS'"Project : comparison series: 1-8"'
p80
I6
sS'"Project : comparison series: 4-15"'
p81
I12
sS'"Project : Isolated Base Pairs: 1-1 Loop Between 1-nt Bulges (3)"'
p82
I13
sS'"[Gene Synthesizer] Level 2 of 14"'
p83
I9900
sS'"Project : Headless Bug Arm 2"'
p84
I18
sS'"Multistate RNA Structure: 3-way junction to 2-way junction - Shape 5"'
p85
I2
sS'"Project : Genetic Sequences: Soving Smaller Loops"'
p86
I27
sS'"Project : comparison series: 2-2"'
p87
I20
sS'"Project : T3-3 N5 L2-2 S3 E4"'
p88
I14
sS'"Project :  comparison series: ML-I 2-2-2 7'
p89
I7
sS'"Project : Turtle project Ml 1-1-1'
p90
I6
sS'"Project : Multiloop Isolated Closing Pairs"'
p91
I22
sS'"Project : Variations on a Theme S2E4 .1"'
p92
I10
sS'"Project : comparison series: 15-15"'
p93
I14
sS'"Project : comparison series: ML-I 7-4-7"'
p94
I9
sS'"Stanford Switch Puzzle"'
p95
I23
sS'"Project : Mat - comparison series: 3-2 - D1"'
p96
I9
sS'"Investigation of Alternative Human tRNA Structures - Shape 34"'
p97
I2
sS'"Project : Isolated Base Pairs: 1-1 Loop Adjacent to 1-nt Bulge (1)"'
p98
I10
sS'"Project : comparison series: NNF x3 3-3 fused"'
p99
I9
sS'"Project : Alternative Mismatches"'
p100
I24
sS'"Project : Triloop Forked FMN"'
p101
I14
sS'"Project : comparison series: 8-1"'
p102
I7
sS'"Improve "Bulged Star NUPACK design 02" with "Numbers of yellow nucleotides pr. length of string" strategy"'
p103
I18
sS'"Project : comparison series: 2-1"'
p104
I7
sS'"test - Shape 1"'
p105
I1
sS'"Alternative structure space for human tRNAs - Shape 0"'
p106
I7
sS'"Project : Turtle project Ml 0-0-0'
p107
I6
sS'"Project : comparison series: 4-4"'
p108
I19
sS'"Project : Upside down T"'
p109
I16
sS'"Alternative structure space for human tRNAs - Shape 9"'
p110
I1
sS'"Project : Genetic Sequences: Solving Puzzles with Short Stacks Between Loops"'
p111
I11
sS'"Alternative structure space for human tRNAs - Shape 32"'
p112
I2
sS'"Project : comparison series: 14-15"'
p113
I11
sS'"Investigation of Alternative Human tRNA Structures - Shape 21"'
p114
I1
sS'"test - Shape 14"'
p115
I1
sS'"Project : comparison series:"'
p116
I19
sS'"Project : comparison series: NNF 2x 2-2 next"'
p117
I6
sS'"FMN switch Mimics: Round 91 follow-up - Shape 21"'
p118
I1
sS'"Poly (A) Structure Analysis 2"'
p119
I1
sS'"Project : Isolated Base Pairs: 1-1 Loop Adjacent to 1-nt Bulge (3)"'
p120
I9
sS'"Test - Shape 0"'
p121
I1
sS'"TEBOWNED mutation - BH"'
p122
I126
sS'"Project : Turtle project Ml 4-4-4-'
p123
I6
sS'"Project : comparison series: 6-6"'
p124
I17
sS'"Effects of nucleotide exposure on global RNA elements. - Shape 3"'
p125
I1
sS'"Project : Turtle project Ml 1-1-1-1. 2x4 NT L'
p126
I6
sS'"Project : Stack With Multiple 3-nt Bulges (1A)"'
p127
I7
sS'"Project : TetraLoop GNRA - Just One Thing"'
p128
I11
sS'"Project : Multiloop: 4 Branches Separated by Single Unpaired Bases"'
p129
I10
sS'"[Gene Synthesizer] Level 5 of 14"'
p130
I8561
sS'"Investigation of Alternative Human tRNA Structures - Shape 1"'
p131
I1
sS'"Project : FMN-RNA aptamer complex lab "'
p132
I18
sS'"Project : comparison series: 12-12"'
p133
I10
sS'"Project : Bulge Sampler: 2-nt"'
p134
I10
sS'"Project : comparison series: 13-13"'
p135
I10
sS'"Investigation of Alternative Human tRNA Structures - Shape 6"'
p136
I1
sS'"Alternative structure space for human tRNAs - Shape 25"'
p137
I3
sS'"Project : comparison series: NNF 3x 4-4"'
p138
I6
sS'"Multistate RNA Sequence - 4 Residues"'
p139
I1
sS'"Project : Coaxial Stacking: Two Stacks (ML 2-0-2-0)"'
p140
I9
sS'"Project : Natural RNAs: Barley Yellow Dwarf Virus 5\' UTR (2)"'
p141
I8
sS'"Project : comparison series: 1-3"'
p142
I10
sS'"test - Shape 13"'
p143
I1
sS'"Project : Ameoba Campaign"'
p144
I15
sS'"FMN switch Mimics: Round 91 follow-up - Shape 0"'
p145
I1
sS'"Project : comparison series: B 2-0"'
p146
I12
sS'"Nando\'s Zippers - Shape 5"'
p147
I1
sS'"Project : Turtle project Ml 0-0-0-0-0'
p148
I8
sS'"Project : comparison series: NNF  2x 3-3 next"'
p149
I9
sS'"Project : Hard Lab Fragments: Kudzu Arm"'
p150
I15
sS'"Project : comparison series: Octaloops"'
p151
I9
sS'"Project : One Step at a Time (2)"'
p152
I16
sS'"Project : Saccharomyces Cerevisiae Loop Structure"'
p153
I15
sS'"Project : Adenine Reduction"'
p154
I17
sS'"Investigation of Alternative Human tRNA Structures - Shape 12"'
p155
I1
sS'"Project : comparison series: ML-I 5-8-5"'
p156
I12
sS'"Project : Genetic Sequences: Curve"'
p157
I5
sS'"Project : Bumps"'
p158
I12
sS'"Project : comparison series: B 4-0"'
p159
I12
sS'"Project : Turtle project Ml 4-4-4 with 2 legs (2NT)'
p160
I6
sS'"[Gene Synthesizer] Level 10 of 14"'
p161
I4469
sS'"Project : Natural RNAs: Iron Response Element"'
p162
I1
sS'"Project : Testing various loop designs"'
p163
I8
sS'"Poly (A) Structure Analysis 3 - Shape 1"'
p164
I3
sS'"Reproducibility Lab 2 - Shape 19"'
p165
I1
sS'"Project : Coaxial Stacking: Two Stacks (3B)"'
p166
I6
sS'"Project : Quadloop Mania 5"'
p167
I12
sS'"Project : Tetraloop Library (3): Modified Closing Pair"'
p168
I9
sS'"Project : Test of RNAfold (4)"'
p169
I8
sS'"Project : comparison series: B 0-1"'
p170
I17
sS'"Project : Genetic Sequences: Solving Paired 1-1 and 2-2 Loops"'
p171
I13
sS'"Project : I Dont Know"'
p172
I8
sS'"Project : Headless Bug Arm 6"'
p173
I10
sS'"Project : Hooked"'
p174
I26
sS'"Project : comparison series: ML-I 4-7-1"'
p175
I15
sS'"Project : Experimental Shape - 1"'
p176
I17
sS'"Project : Isolated Base Pairs: 1-1 Loop Between 1-nt Bulges (2)"'
p177
I12
sS'"Project : comparison series: 1-4"'
p178
I9
sS'"Alternative structure space for human tRNAs - Shape 4"'
p179
I4
sS'"Project : comparison series: ML-I 6-6-6"'
p180
I13
sS'"Project : comparison series: ML-I 10-3-3"'
p181
I12
sS'"Project : comparison series: 15-11"'
p182
I10
sS'"Project : comparison series: 15-8"'
p183
I11
sS'"Project : Chain length and loop size series 1-10"'
p184
I10
sS'"Project : comparison series: 2-15"'
p185
I17
sS'"Project : Turtle project Ml 7-7-7'
p186
I6
sS'"Project : Isolated Base Pairs: 1-1 Loop Adjacent to 1-nt Bulge (2)"'
p187
I9
sS'"test - Shape 5"'
p188
I1
sS'"hHAR1"'
p189
I2
sS'"Project : Uracil Reduction"'
p190
I18
sS'"Project : Large Isolated Hairpin"'
p191
I19
sS'"Project : Example project 2"'
p192
I31
sS'"Investigation of Alternative Human tRNA Structures - Shape 22"'
p193
I1
sS'"Project : Coaxial Stacking: ??? (1-0-1-0 Multiloop)"'
p194
I9
sS'"Project : comparison series: 2-7"'
p195
I12
sS'"Hairpin Loop Comparison Pilot - Shape 1"'
p196
I3
sS'"Project : loop test 3"'
p197
I5
sS'"Sarcin-ricin vs boosted internal loops - Shape 4"'
p198
I2
sS'"[RNA Polymerase] Level 1 of 9"'
p199
I1391
sS'"Project : comparison series: NNF 2x 4-4 near"'
p200
I9
sS'"Project : comparison series: NNF x3 1-1 near"'
p201
I7
sS'"Sarcin-ricin vs boosted internal loops - Shape 3"'
p202
I2
sS'"Project : Coaxial Stacking: ??? (0-1-0-1 Multiloop)"'
p203
I7
sS'"Project : Turtle project Ml 5-5-5-5'
p204
I6
sS'"Project : Sock"'
p205
I16
sS'"Project : comparison series: ML-I 3-3-10"'
p206
I12
sS'"Project : Turtle project Ml 4-4-4-4 with 3 legs (2NT)'
p207
I6
sS'"Investigation of Alternative Human tRNA Structures - Shape 30"'
p208
I1
sS'"[Gene Synthesizer] Level 13 of 14"'
p209
I4767
sS'"Project : Turtle project Ml 7-7-7 with 2 legs (2NT)'
p210
I8
sS'"Project : comparison series: Heptaloop"'
p211
I12
sS'"Project : Genetic Sequences: Solving Hexagons without Stacks"'
p212
I28
sS'"Project : comparison series: NNF 3x 4-4 next"'
p213
I6
sS'"Project : comparison series: 8-2"'
p214
I11
sS'"Project : Stack With Multiple 2-nt Bulges (1B)"'
p215
I9
sS'"[Thermocycler] Level 10 of 11"'
p216
I3191
sS'"[Gene Synthesizer] Level 1 of 14"'
p217
I11420
sS'"Investigation of Alternative Human tRNA Structures - Shape 37"'
p218
I1
sS'"Alternative structure space for human tRNAs - Shape 28"'
p219
I3
sS'"Effects of nucleotide exposure on global RNA elements. - Shape 7"'
p220
I3
sS'"Alternative structure space for human tRNAs - Shape 31"'
p221
I2
sS'"Project : comparison series: 7-2"'
p222
I10
sS'"Project : comparison series: NNF 2x 2-2 near"'
p223
I6
sS'"Sarcin-ricin vs internal loops (redo) - Shape 3"'
p224
I10
sS'"[Gene Synthesizer] Level 6 of 14"'
p225
I8067
sS'"Project : comparison series: Hexaloop  "'
p226
I13
sS'"[Thermocycler] Level 11 of 11"'
p227
I2795
sS'"Improve "The Branches NUPACK bot design 8" with "Repetition" strategy"'
p228
I13
sS'"Project : Thicker Zigzag"'
p229
I25
sS'"Alternative structure space for human tRNAs - Shape 35"'
p230
I2
sS'"Investigation of Alternative Human tRNA Structures - Shape 27"'
p231
I1
sS'"Multistate RNA Structure: 3-way junction to 2-way junction - Shape 1"'
p232
I2
sS'"cHAR1"'
p233
I2
sS'"Project : comparison series: 4-2"'
p234
I9
sS'"Project : comparison series: NNF 3x 4-4 fused"'
p235
I6
sS'"Project : Turtle project Ml 5-5-5-5 with 3 legs (2NT)'
p236
I6
sS'"TR1B1 - Shape 3"'
p237
I1
sS'"Project : Crossroads test"'
p238
I18
sS'"Project : 3-4 and 1-2 loops"'
p239
I12
sS'"Hairpin Loop Comparison Pilot - Shape 3"'
p240
I3
sS'"Project : Isolated Base Pairs: 1-1 Loop Between 1-nt Bulges (4)"'
p241
I12
sS'"Investigation of Alternative Human tRNA Structures - Shape 2"'
p242
I1
sS'"Multistate RNA Structure: 3-way junction to 2-way junction - Shape 6"'
p243
I2
sS'"Project : comparison series: 7N ML-I 1-1-1 IL 3-3"'
p244
I15
sS'"P4P6 Scrambled"'
p245
I2
sS'"Sarcin-ricin vs internal loops (redo) - Shape 0"'
p246
I2
sS'"Project : comparison series: NNF 2x 6-6 fused"'
p247
I16
sS'"Project : comparison series: ML-I 1-1-4"'
p248
I12
sS'"Project : Bulge Sampler: 1-nt"'
p249
I11
sS'"Project : Tobramycin Aptamer"'
p250
I22
sS'"Project : Turtle project Ml 6-6-6'
p251
I6
sS'"Project : comparison series: 5-15"'
p252
I15
sS'"Multistate RNA Sequence - 2 Residues"'
p253
I1
sS'"Project : comparison series: 9-1"'
p254
I7
sS'"Project : Test of RNAfold (5)"'
p255
I9
sS'"Project : Sharklike V-2 (SHAPE data Exp-2)"'
p256
I13
sS'"[Thermocycler] Level 9 of 11"'
p257
I3207
sS'"Nando\'s Zippers - Shape 0"'
p258
I1
sS'"Improve "The Branches NUPACK bot design 2" with "Direction of GC pairs + neck area" strategy"'
p259
I19
sS'"Project : Quadloop Mania 8"'
p260
I15
sS'"Project : comparison series: 11-11"'
p261
I13
sS'"Project : Two bulges and a 1-2 loop (reverse)"'
p262
I10
sS'"Project : Turtle project Ml 5-5-5'
p263
I6
sS'"Investigation of Alternative Human tRNA Structures - Shape 11"'
p264
I1
sS'"Project : comparison series: 7-15"'
p265
I11
sS'"Project : 3-Branched Multiloop: Triloop with Short Stack"'
p266
I10
sS'"Project : chain lenth and loop size series 1-9"'
p267
I8
sS'"Project : comparison series: ML-I 1-9-1"'
p268
I9
sS'"Project : Neck Length 2 - 4 branch multiloop"'
p269
I17
sS'"Project : Turtle project Ml 4-4-4-4-4'
p270
I3
sS'"Project : (..(.(((...))).(((...))).)..)"'
p271
I9
sS'"FMN switch Mimics: Round 91 follow-up - Shape 4"'
p272
I1
sS'"Poly (A) Structure Analysis 3 - Shape 6"'
p273
I2
sS'"Project : comparison series: 15-4"'
p274
I14
sS'"Alternative structure space for human tRNAs - Shape 13"'
p275
I1
sS'"Project : comparison series: NNF 2x 5-5 fused"'
p276
I9
sS'"Test LAB - Shape 0"'
p277
I1
sS'"Project : Fisker - 2-2 loop energy challenge"'
p278
I23
sS'"[Next-Generation Sequencer] Level 7 of 11"'
p279
I2036
sS'"Project : Test of RNAfold (2)"'
p280
I11
sS'"Project : comparison series: ML-I 2-2-2 x2 10NTS"'
p281
I8
sS'"Project : Turtle project Ml 11-11-11'
p282
I7
sS'"Project : Headless Bug Arm 3"'
p283
I14
sS'"Project : comparison series: 1-7"'
p284
I6
sS'"Project : 30 Nucleotide Loop 2 - Asymmetric Internal Loop"'
p285
I19
sS'"[Gene Synthesizer] Level 11 of 14"'
p286
I4397
sS'"Project : comparison series: ML-I 1-2-1"'
p287
I12
sS'"[Thermocycler] Level 8 of 11"'
p288
I3357
sS'"Project : Isolated Base Pairs: 2-2 Loops Adjacent to Multiloop"'
p289
I8
sS'"Sarcin-ricin vs boosted internal loops - Shape 2"'
p290
I2
sS'"Project : Stack With Multiple 1-1 Loops (3)"'
p291
I10
sS'"Project : comparison series: 2-3"'
p292
I13
sS'"SHAPE Profile - G/A Hairpin Terminal Mismatch and Neighboring Base Pairs CNGgaaaaCNG - Shape 0"'
p293
I1
sS'"Project : comparison series: 15-14"'
p294
I11
sS'"Project : Turtle project Ml 6-6-6-6 with 3 legs (2NT)'
p295
I6
sS'"FMN switch Mimics: Round 91 follow-up - Shape 19"'
p296
I1
sS'"Project : comparison series: ML-I 8-2-8"'
p297
I9
sS'"Project : Natural RNAs: U1A PIE"'
p298
I12
sS'"Project : Multiloop: 3 Branches Unevenly Spaced (2)"'
p299
I10
sS'"Project : Natural RNAs: Turnip Crinkle Virus Hairpin"'
p300
I14
sS'"Investigation of Alternative Human tRNA Structures - Shape 33"'
p301
I1
sS'"[Gene Synthesizer] Level 7 of 14"'
p302
I7189
sS'"Hairpin Loop Comparison Pilot - Shape 2"'
p303
I18
sS'"Project : Turtle project Ml 4-4-4-4'
p304
I6
sS'"Project : comparison series: 15-3"'
p305
I11
sS'"Identify tRNA Mutants Subject to Alternative RNA Processing - Shape 0"'
p306
I21
sS'"Project : Whale of a Tale"'
p307
I5
sS'"Project : comparison series: ML-I 1-5-1"'
p308
I9
sS'"Project : Multiloop: 3 Branches Unevenly Spaced (1)"'
p309
I13
sS'"Project : comparison series: NNF 2x 5-5 next"'
p310
I9
sS'"[Microfluidic Chip] Level 1 of 7"'
p311
I974
sS'"Project : Stack With Multiple 2-nt Bulges (2A)"'
p312
I10
sS'"Project : comparison series: Hairpin loop with 15 nts"'
p313
I10
sS'"Project : Stack With Multiple 1-1 Loops (2)"'
p314
I11
sS'"Project : Long Leg"'
p315
I12
sS'"test - Shape 2"'
p316
I1
sS'"Project : Compact Tri Multi-Loop with Stacks of Length Five"'
p317
I15
sS'"Project : Thingamabob"'
p318
I13
sS'"Multistate RNA Structure: 3-way junction to 2-way junction - Shape 2"'
p319
I2
sS'"Project : comparison series: ML-I 10-4-4"'
p320
I12
sS'"Project : Internal Loops: 5-2"'
p321
I25
sS'"Project : Two stacks"'
p322
I20
sS'"Test - Shape 1"'
p323
I1
sS'"Project : Turtle project Ml 2-2-2-2'
p324
I6
sS'"Project : comparison series: NNF 2x 3-3 near"'
p325
I9
sS'"Project : comparison series: ML-I 1-8-1"'
p326
I9
sS'"Project : chain lengh an loop size series 1-3"'
p327
I7
sS'"Project : comparison series: 7-1"'
p328
I6
sS'"Investigation of Alternative Human tRNA Structures - Shape 24"'
p329
I1
sS'"Project : Turtle project Ml 2-2-2-2-2-2 with 5 legs (2NT)'
p330
I6
sS'"Project : chain length and loop size series 1-4"'
p331
I7
sS'"Project : PDB Jigsaw Puzzle 1"'
p332
I12
sS'"Project : Quadloop Mania 3"'
p333
I10
sS'"Investigation of Alternative Human tRNA Structures - Shape 7"'
p334
I1
sS'"Project : Turtle project Ml 1-1 with 2 legs (2NT)'
p335
I6
sS'"Alternative structure space for human tRNAs - Shape 26"'
p336
I1
sS'"Project : Isolated Base Pairs: 1-1 Loop Between 1-nt Bulges (1)"'
p337
I12
sS'"Project : Hard Lab Fragments: Water Strider Arm"'
p338
I12
sS'"Project : comparison series: 7N ML-I  1-2-3 IL 3-3"'
p339
I15
sS'"Project : Genetic Sequences: Curve 2"'
p340
I6
sS'"TR1B1 - Shape 0"'
p341
I3
sS'"test - Shape 12"'
p342
I1
sS'"FMN switch Mimics: Round 91 follow-up - Shape 8"'
p343
I1
sS'"Project : Turtle project Ml 0-0-0-0-0-0'
p344
I6
sS'"Project : comparison series: B 5-0"'
p345
I14
sS'"FMN switch Mimics: Round 91 follow-up - Shape 6"'
p346
I1
sS'"Improve "The Branches NUPACK bot design 8" with "Simplified Berex Test" strategy"'
p347
I6
sS'"Project : comparison series: 10-2"'
p348
I10
sS'"Project : Turtle project Ml 1-1-1-1-1-1'
p349
I6
sS'"Project : Compact Tri Multi-Loop with Stack Length Four"'
p350
I15
sS'"2-2 Superboost"'
p351
I6
sS'"Project : comparison series: 5-2"'
p352
I9
sS'"Project : Isolated Base Pairs: Adjacent 2-1-Loops (4)"'
p353
I10
sS'"Project : comparison series: 11-15"'
p354
I11
sS'"[Thermocycler] Level 6 of 11"'
p355
I3407
sS'"Project : comparison series: 8-15"'
p356
I12
sS'"Alternative structure space for human tRNAs - Shape 29"'
p357
I4
sS'"[Next-Generation Sequencer] Level 1 of 11"'
p358
I2407
sS'"Multiloop with 6 short stems"'
p359
I3
sS'"Project : Guanine Reduction"'
p360
I16
sS'"Project : Coaxial Stacking: Shape Test (4)"'
p361
I9
sS'"Project : Quadloop Mania 6"'
p362
I10
sS'"Project : comparison series: ML-I 1-1-1"'
p363
I19
sS'"Improve "The Branches NUPACK bot design 2" with "Repetition" strategy"'
p364
I16
sS'"[Gene Synthesizer] Level 9 of 14"'
p365
I6241
sS'"test - Shape 19"'
p366
I5
sS'"Project : Test of RNAfold (3)"'
p367
I7
sS'"[RNA Polymerase] Level 9 of 9"'
p368
I1084
sS'"Project : Genetic Sequences: 2-1 Loops"'
p369
I9
sS'"[Next-Generation Sequencer] Level 2 of 11"'
p370
I2381
sS'"[Gene Synthesizer] Level 3 of 14"'
p371
I9442
sS'"FMN switch Mimics: Round 91 follow-up - Shape 12"'
p372
I1
sS'"Project : comparison series: 7N ML-I-b 1-1-1 IL 3-3"'
p373
I15
sS'"[Next-Generation Sequencer] Level 3 of 11"'
p374
I2357
sS'"Nando\'s Zippers - Shape 3"'
p375
I4
sS'"Project : comparison series: NNF 2x 1-1 fused"'
p376
I9
sS'"[RNA Polymerase] Level 6 of 9"'
p377
I1157
sS'"Project : comparison series: 9-15"'
p378
I11
sS'"Project : tttt"'
p379
I1
sS'"Project : Tetraloop Library (1): Sequences with Known Structure"'
p380
I12
sS'"FMN switch Mimics: Round 91 follow-up - Shape 14"'
p381
I1
sS'"[RNA Polymerase] Level 3 of 9"'
p382
I1219
sS'"[Gene Synthesizer] Level 14 of 14"'
p383
I4397
sS'"Project : 3-Branched Multiloop: Lonely Pentaloop"'
p384
I9
sS'"Project : comparison series: 15-10"'
p385
I11
sS'"Project : comparison series: 15-9"'
p386
I11
sS'"Project : Turtle project Ml 2-2-2 with 2 legs (2NT)'
p387
I6
sS'"Example project for renewal 2 - Shape 4"'
p388
I1
sS'"Project : 4-4 loop"'
p389
I31
sS'"Project : comparison series: ML-I 2-2-10"'
p390
I12
sS'"test - Shape 6"'
p391
I1
sS'"Project : Stack With Adjacent Bulges (1B)"'
p392
I9
sS'"Test project - Shape 0"'
p393
I5
sS'"Shiftable puzzle test"'
p394
I1
sS'"TEBOWNED mutation - B"'
p395
I143
sS'"Project : Loop Heavy"'
p396
I21
sS'"Project : comparison series: ML-I 1-7-4"'
p397
I15
sS'"Project : comparison series: NNF 2x 2-2 fused"'
p398
I6
sS'"test - Shape 10"'
p399
I1
sS'"Project : Hairpins: Pentaloop"'
p400
I27
sS'"Project :  comparison series: 5N ML-I-b 2x 1-1-1"'
p401
I16
sS'"Project : Turtle project Ml 8-8-8 with 2 legs (2NT)'
p402
I6
sS'"Project : comparison series: 4-1"'
p403
I6
sS'"Project : Stack With Multiple 3-nt Bulges (2A)"'
p404
I10
sS'"Project : Hairpins: Tetraloop"'
p405
I25
sS'"test - Shape 16"'
p406
I1
sS'"Project : comparison series: NNF 2x 5-5 near"'
p407
I9
sS'"Chemical Mapping Comparison of G-U+ Helices to G-U- Helices - Shape 0"'
p408
I7
sS'"Project : comparison series: 2-4"'
p409
I14
sS'"Project : Isolated Closing Pairs 1"'
p410
I24
sS'"Project : Turtle project Ml 3-3-3 with 2 legs (2NT)'
p411
I7
sS'"Project : comparison series: ML-I 2-10-2"'
p412
I9
sS'"Project : comparison series: 5N ML-I 2x 1-1-1"'
p413
I17
sS'"Project : comparison series: ML-I 5-5-5"'
p414
I12
sS'"Project : Sharklike V-1 (SHAPE data Exp-1)"'
p415
I13
sS'"Alternative structure space for human tRNAs - Shape 34"'
p416
I2
sS'"Project : TRNA-Phe Yeast"'
p417
I12
sS'"Project : Green Plimsole"'
p418
I18
sS'"Project : comparison series: 10-10"'
p419
I12
sS'"Project : Bistable RNA (1): Rod or Branch?"'
p420
I7
sS'"Project : Pseudoknot 1: Minimal"'
p421
I17
sS'"Project : comparison series: ML-I 4-1-1"'
p422
I12
sS'"Project : comparison series: NNF 2x 4-4 next"'
p423
I9
sS'"Project : comparison series: 8-8"'
p424
I11
sS'"Nando\'s Zippers - Shape 8"'
p425
I1
sS'"Project : comparison series: ML-I 2-1-2"'
p426
I9
sS'"Project : Natural RNAs: U1A Polyadenylation Inhibition Element"'
p427
I2
sS'"Project : Bulge Sampler: 4-nt"'
p428
I15
sS'"Project : Test of RNAfold (1)"'
p429
I17
sS'"Project : Turtle project Ml 10-10-10'
p430
I7
sS'"Project : comparison series: 13-15"'
p431
I11
sS'"Project : comparison series: 9-9"'
p432
I10
sS'"Project : Zigzag: 1-Nucleotide Bulge (2)"'
p433
I10
sS'"Improve "The Branches NUPACK bot design 2" with "Numbers of yellow nucleotides pr. length of string" strategy"'
p434
I12
sS'"Project : Hard Lab Fragments: The Cross 0-0-0-0 Multiloop"'
p435
I11
sS'"Project : TetraLoop CUYA - Just One Thing"'
p436
I21
sS'"Project : comparison series: NNF 2x 4-4 fused"'
p437
I9
sS'"Project : Coaxial Stacking: Shape Test (1)"'
p438
I13
sS'"Project : APC IRES"'
p439
I12
sS'"Project : Genetic Sequences: Hairpin Loop"'
p440
I7
sS'"Investigation of Alternative Human tRNA Structures - Shape 8"'
p441
I1
sS'"Project : comparison series: Hairpin loop with 12 nts"'
p442
I10
sS'"Project : Half of The Branches"'
p443
I21
sS'"Project : comparison series: ML-I 2-2-2 x2 9NTS"'
p444
I5
sS'"Project : Turtle project Ml 8-8-8'
p445
I6
sS'"Alternative structure space for human tRNAs - Shape 1"'
p446
I5
sS'"Project : Compact Quad Multi-Loop 1"'
p447
I11
sS'"Project : comparison series: ML-I 3-3-3"'
p448
I12
sS'"Project : comparison series: ML-I 1-4-1"'
p449
I10
sS'"Project : comparison series: B 0-3"'
p450
I18
sS'"Reproducibility Lab 2 - Shape 0"'
p451
I3
sS'"Anaylysis of Potato Spindle Tuber Viroid - Shape 0"'
p452
I30
sS'"Multistate RNA Structure: 3-way junction to 2-way junction - Shape 8"'
p453
I2
sS'"Project : Turtle project Ml 6-6-6-6'
p454
I6
sS'"Project : jandersonlee\'s LR15"'
p455
I8
sS'"Alternative structure space for human tRNAs - Shape 6"'
p456
I1
sS'"Effects of Base Pair Mutations on the RNA Ensemble and Reverse Transcription - Shape 0"'
p457
I6
sS'"Project : Cytosine reduction"'
p458
I21
sS'"Nando\'s Zippers - Shape 7"'
p459
I1
sS'"Project : comparison series: ML-I 4-10-4"'
p460
I9
sS'"FMN switch Mimics: Round 91 follow-up - Shape 16"'
p461
I1
sS'"Project : comparison series: NNF x3 1-1 next"'
p462
I6
sS'"Multistate RNA Structure: 3-way junction to 2-way junction - Shape 7"'
p463
I2
sS'"Project : comparison series: ML-I 3-3-8"'
p464
I12
sS'"Investigation of Alternative Human tRNA Structures - Shape 10"'
p465
I1
sS'"Project : comparison series: B 1-0"'
p466
I12
sS'"Project : Turtle project Ml 3-3-3-3-3 with 4 legs (2NT)'
p467
I6
sS'"[Microfluidic Chip] Level 3 of 7"'
p468
I831
sS'"Project : Coaxial Stackng: Two Stacks (5B)"'
p469
I7
sS'"Project : comparison series: 15-5"'
p470
I11
sS'"Project : Stack With Multiple 1-1 Loops (4)"'
p471
I10
sS'"Improve "Bulged Star NUPACK design 01" with "Direction of GC pairs +neck area" strategy"'
p472
I33
sS'"Project : Five Branch Multiloop"'
p473
I13
sS'"Alternative structure space for human tRNAs - Shape 12"'
p474
I1
sS'"Project : loop test 6"'
p475
I14
sS'"Project : comparison series: 2-10"'
p476
I15
sS'"Project : comparison series: ML-I 3-1-2"'
p477
I12
sS'"Project : Hard Lab Fragments: Kudzu Neck"'
p478
I12
sS'"Project : comparison series: 1-10"'
p479
I6
sS'"Project : Headless Bug Arm 4"'
p480
I12
sS'"Project : Turtle project  Ml 1-1-1-1-1'
p481
I6
sS'"Project : chain length and loop size series 1-8"'
p482
I7
sS'"Project : comparison series: 1-6"'
p483
I10
sS'"Example project for renewal 2 - Shape 1"'
p484
I1
sS'"Effects of nucleotide exposure on global RNA elements. - Shape 4"'
p485
I1
sS'"Project : Stack With Multiple 1-1 Loops (1)"'
p486
I12
sS'"Poly (A) Structure Analysis 3 - Shape 0"'
p487
I5
sS'"Project :  comparison series: NNF x3 3-3 next"'
p488
I6
sS'"Project : comparison series: NNF 2x 6-6  next"'
p489
I15
sS'"FMN switch Mimics: Round 91 follow-up - Shape 18"'
p490
I1
sS'"Project : Coaxial Stacking: Two Stacks (5A)"'
p491
I8
sS'"Project : S&E5 Modified"'
p492
I11
sS'"Chemical Mapping Comparison of G-U+ Helices to G-U- Helices - Shape 3"'
p493
I2
sS'"Project : comparison series: ML-I 2-2-2 x2 5NTS"'
p494
I9
sS'"Project : comparison series: NNF x3 1-1 fused"'
p495
I10
sS'"Improve "The Branches NUPACK bot design 8" with "Direction of GC pairs + neck area" strategy"'
p496
I19
sS'"Project : comparison series: ML-I 1-7-1"'
p497
I9
sS'"Investigation of Alternative Human tRNA Structures - Shape 32"'
p498
I2
sS'"test - Shape 3"'
p499
I2
sS'"Exhaustive GAGA tetraloop closure test with AU Backing - Shape 0"'
p500
I36
sS'"Nando\'s Zippers - Shape 10"'
p501
I1
sS'"Project : Stack With Multiple Bulges (2B)"'
p502
I9
sS'"Alternative structure space for human tRNAs - Shape 21"'
p503
I1
sS'"Project : comparison series: 2-5"'
p504
I16
sS'"[Microfluidic Chip] Level 5 of 7"'
p505
I816
sS'"Project : Coaxial Stacking: Two Stacks (0-2-0-2 Multiloop)"'
p506
I9
sS'"Project : Turtle project Ml 1-1-1-1-1'
p507
I7
sS'"test - Shape 20"'
p508
I6
sS'"Project : comparison series: ML-I 3-1-3"'
p509
I9
sS'"Project : Turtle project Ml 2-2-2-2 with 3 legs (2NT)'
p510
I6
sS'"Alternative structure space for human tRNAs - Shape 22"'
p511
I1
sS'"Investigation of Alternative Human tRNA Structures - Shape 20"'
p512
I1
sS'"Project : 2-2 loop"'
p513
I44
sS'"FMN switch Mimics: Round 91 follow-up - Shape 23"'
p514
I1
sS'"Project : Isolated Closing Pairs 2"'
p515
I21
sS'"[Gene Synthesizer] Level 4 of 14"'
p516
I9213
sS'"Project : comparison series: NNF 2x 3-3 fused"'
p517
I9
sS'"Investigation of Alternative Human tRNA Structures - Shape 3"'
p518
I1
sS'"Project : comparison series: ML-I 2-2-2 x2 8NTS"'
p519
I7
sS'"Project : Plain Hooked"'
p520
I17
sS'"Effects of nucleotide exposure on global RNA elements. - Shape 1"'
p521
I1
sS'"Project : 3 single nucleotide bulges"'
p522
I18
sS'"Project : Blade"'
p523
I16
sS'"Project : comparison series: ML-I 10-2-2"'
p524
I12
sS'"Project : comparison series: ML-I 2-2-2 x2 7NTS"'
p525
I7
sS'"Project : comparison series: ML-I 1-3-1"'
p526
I12
sS'"Testing - Shape 0"'
p527
I1
sS'"Project : Zigzag: 1-Nucleotide Bulge (3)"'
p528
I10
sS'"Alternative structure space for human tRNAs - Shape 30"'
p529
I1
sS'"[Next-Generation Sequencer] Level 6 of 11"'
p530
I2050
sS'"Investigation of Alternative Human tRNA Structures - Shape 4"'
p531
I1
sS'"Alternative structure space for human tRNAs - Shape 27"'
p532
I4
sS'"Project : Turtle project Ml 3-3-3'
p533
I6
sS'"Alternative structure space for human tRNAs - Shape 37"'
p534
I2
sS'"Project : Lab design for newer players"'
p535
I10
sS'"Project : kARMa"'
p536
I13
sS'"Project : comparison series: ML-I 4-4-10"'
p537
I12
sS'"Project : Turtle project Ml 9-9-9 with 2 legs (2NT)'
p538
I6
sS'"Project : comparison series: 6-1"'
p539
I7
sS'"TR1B1 - Shape 1"'
p540
I2
sS'"[Next-Generation Sequencer] Level 9 of 11"'
p541
I1954
sS'"Project : Coaxial Stacking: Shape Test (3)"'
p542
I9
sS'"Project : comparison series: 10-1"'
p543
I7
sS'"Project : mnm7198\'s project"'
p544
I8
sS'"Project : Pseudoknot 2: Biotin-Binding Pseudoknot"'
p545
I15
sS'"Project : Coaxial Stacking: 4A"'
p546
I6
sS'"Poly (A) Structure Analysis 3 - Shape 2"'
p547
I3
sS'"[Thermocycler] Level 1 of 11"'
p548
I4150
sS'"Project : comparison series: 3-1"'
p549
I6
sS'"Multistate RNA Structure: 3-way junction to 2-way junction - Shape 4"'
p550
I2
sS'"Investigation of Alternative Human tRNA Structures - Shape 29"'
p551
I1
sS'"Project : comparison series: 5-1"'
p552
I7
sS'"Sarcin-ricin vs internal loops (redo) - Shape 4"'
p553
I6
sS'"Project : ajdfhld"'
p554
I13
sS'"Project : Triloop Mania"'
p555
I18
sS'"Multistate RNA Structure: 3-way junction to 2-way junction - Shape 3"'
p556
I3
sS'"Project : Turtle project Ml 5-5-5 with 2 legs (2NT)'
p557
I6
sS'"Project : Example project"'
p558
I52
sS'"Alternative structure space for human tRNAs - Shape 2"'
p559
I5
sS'"Project : comparison series: B 0-4"'
p560
I15
sS'"Project : Quadloop Mania 7"'
p561
I13
sS'"Project : chain length and loop size series 1-5"'
p562
I7
sS'"Project : Turtle project Ml 2-2-2-2-2'
p563
I5
sS'"Project : LR8"'
p564
I9
sS'"Project : Turtle project Ml 9-9-9'
p565
I3
sS'"Project : Turtle project Ml 6-6-6 with 2 legs (2NT)'
p566
I6
sS'"Project : Branching Loop - 6 nucleotides"'
p567
I12
sS'"Example project for renewal 2 - Shape 0"'
p568
I1
sS'"Project : comparison series: ML-I 2-2-2 6'
p569
I8
sS'"test - Shape 18"'
p570
I5
sS'"Project : comparison series: 15-1"'
p571
I14
sS'"Improve "Bulged Star NUPACK design 01" with "Numbers of yellow nucleotides pr. length of string" strategy"'
p572
I25
sS'"Poly (A) Structure Analysis 3 - Shape 3"'
p573
I8
sS'"Project : comparison series: ML-I 3-10-3"'
p574
I9
sS'"Project : comparison series: ML-I 2-2-2 4'
p575
I8
sS'"Project : Loop 1-1 Mania 1"'
p576
I11
sS'"Nando\'s Zippers - Shape 2"'
p577
I4
sS'"[Microfluidic Chip] Level 6 of 7"'
p578
I746
sS'"Helical Stability in a Multistate RNA System - Shape 0"'
p579
I1
sS'"Project : Zigzag: 1-Nucleotide Bulge (1)"'
p580
I11
sS'"Project : comparison series: ML-I 2-2-2 x2 6NTS"'
p581
I10
sS'"Project : comparison series: 1-2"'
p582
I9
sS'"Project : comparison series: Pentaloop  "'
p583
I14
sS'"Project : T6-5 S3 E4 (RS)"'
p584
I10
sS'"[Next-Generation Sequencer] Level 10 of 11"'
p585
I1945
sS'"Project : Cytosine Free 2"'
p586
I14
sS'"Project : comparison series: 2-8"'
p587
I15
sS'"Project : Stack With Multiple Bulges (1A)"'
p588
I9
sS'"Project :  comparison series: NNF x3 2-2 fused"'
p589
I3
sS'"Project : comparison series: 15-6"'
p590
I12
sS'"Poly (A) Structure Analysis 3 - Shape 4"'
p591
I2
sS'"Project : comparison series: 15-13"'
p592
I10
sS'"Example project for renewal 2 - Shape 5"'
p593
I1
sS'"Effects of nucleotide exposure on global RNA elements. - Shape 2"'
p594
I1
sS'"Project : loop test 5"'
p595
I11
sS'"[RNA Polymerase] Level 8 of 9"'
p596
I1127
sS'"Project : Natural RNAs: flpD RNA Motif"'
p597
I5
sS'"Project : comparison series: Hairpin loop with 13 nts"'
p598
I9
sS'"Project : comparison series: ML-I 1-1-10"'
p599
I12
sS'"Alternative structure space for human tRNAs - Shape 11"'
p600
I1
sS'"Project : comparison series: ML-I 1-10-1"'
p601
I12
sS'"Project : comparison series: 1-9"'
p602
I6
sS'"Project : Natural RNAs: Coronavirus 3\' s2m"'
p603
I9
sS'"Project : comparison series: ML-I 6-2-2"'
p604
I12
sS'"Test sequence pilot - Shape 0"'
p605
I1
sS'"Project : Headless Bug Arm 1"'
p606
I15
sS'"test - Shape 9"'
p607
I1
sS'"[Microfluidic Chip] Level 2 of 7"'
p608
I948
sS'"Example project for renewal 2 - Shape 2"'
p609
I1
sS'"Project : Isolated Base Pairs: Adjacent 2-1 Loops (1)"'
p610
I11
sS'"Sarcin-ricin vs boosted internal loops - Shape 1"'
p611
I2
sS'"[Next-Generation Sequencer] Level 8 of 11"'
p612
I1975
sS'"FMN switch Mimics: Round 91 follow-up - Shape 2"'
p613
I1
sS'"Improve "Bulged Star NUPACK design 02" with "Direction of GC pairs + neck area" strategy"'
p614
I18
sS'"Project : JerryP\'s winning design without tetraloop boost"'
p615
I28
sS'"Project : One Step at a Time (1)"'
p616
I17
sS'"Project : comparison series: Triloop  "'
p617
I14
sS'"Project : Zigzag: 1-Nucleotide Bulge (4)"'
p618
I9
sS'"Project : Small Boot"'
p619
I15
sS'"Project : Turtle project Ml 2-2-2'
p620
I6
sS'"Project : comparison series:  ML-I 2-2-2 5'
p621
I5
sS'"Project : Mat - comparison series: Hairpin loop with 9 nts- D1"'
p622
I11
sS'"Sarcin-ricin vs internal loops (redo) - Shape 1"'
p623
I2
sS'"[Thermocycler] Level 3 of 11"'
p624
I3761
sS'"Project : comparison series:  ML-I 2-2-2 8'
p625
I5
sS'"Investigation of Alternative Human tRNA Structures - Shape 35"'
p626
I1
sS'"Project : comparison series: Hairpin loop with 14 nts"'
p627
I10
sS'"[Thermocycler] Level 7 of 11"'
p628
I3376
sS'"Project :   comparison series: ML-I 4-1-4"'
p629
I9
sS'"[Next-Generation Sequencer] Level 5 of 11"'
p630
I2161
sS'"Effects of nucleotide exposure on global RNA elements. - Shape 5"'
p631
I1
sS'"Project : T5-6 S3 E4 (SR)"'
p632
I15
sS'"Project : comparison series: 14-14"'
p633
I10
sS'"Project : Turtle project Ml 4-4-4'
p634
I3
sS'"test - Shape 0"'
p635
I1
sS'"Multistate RNA Structure: 3-way junction to 2-way junction - Shape 0"'
p636
I5
sS'"Project : test"'
p637
I2
sS'"Project : Turtle project Ml 12-12-12'
p638
I4
sS'"Alternative structure space for human tRNAs - Shape 33"'
p639
I1
sS'"test - Shape 15"'
p640
I1
sS'"Project : Turtle project Ml 0-0-0. 2 legs (3 NT)'
p641
I6
sS'"Nando\'s Zippers - Shape 6"'
p642
I1
sS'"Project : comparison series: NNF 2x 1-1 next"'
p643
I12
sS'"Project : 30 Nucleotide Loop 1 - Symmetric Internal Loop"'
p644
I17
sS'"Project : comparison series: ML-I 2-1-3"'
p645
I12
sS'"Project : Coaxial Stacking: Shape Test (2)"'
p646
I10
sS'"Improve "Bulged Star NUPACK design 01" with "Repetition" strategy"'
p647
I15
sS'"Project : comparison series: 7-7"'
p648
I18
sS'"Sarcin-ricin vs boosted internal loops - Shape 0"'
p649
I2
sS'"Project : comparison series: ML-I 8-3-3"'
p650
I13
sS'"test - Shape 17"'
p651
I1
sS'"Project :  comparison series: ML-I 1-6-1"'
p652
I9
sS'"Project : Bulge Sampler: 3-nt"'
p653
I13
sS'"Project : Branching Loop - 8 nucleotides"'
p654
I7
sS'"Investigation of Alternative Human tRNA Structures - Shape 0"'
p655
I1
sS'"Project : 3-3 + 5*"'
p656
I14
sS'"Project : comparison series: NNF 2x 6-6 near"'
p657
I9
sS'"Project : Coaxial Stacking: Two Stacks (4B)"'
p658
I6
sS'"Investigation of Alternative Human tRNA Structures - Shape 9"'
p659
I1
sS'"Alternative structure space for human tRNAs - Shape 24"'
p660
I4
sS'"[Microfluidic Chip] Level 7 of 7"'
p661
I741
sS'"Project : Stack With Multiple 2-nt Bulges (2B)"'
p662
I9
sS'"Project : comparison series: N7-S6"'
p663
I10
sS'"Project : Reshiram'
p664
I12
sS'"Project : Turtle project Ml 3-3-3-3-3'
p665
I3
sS'"Project :  Chesterfield\'s-The Mousekateer"'
p666
I20
sS'"test - Shape 4"'
p667
I1
sS'"Project : comparison series: 3-15"'
p668
I19
sS'"Project : comparison series: N6-S7"'
p669
I8
sS'"Codon riboswitch [histidine]"'
p670
I12
sS'"Project : Repetitive Structures"'
p671
I20
sS'"Alternative structure space for human tRNAs - Shape 7"'
p672
I1
sS'"Project : 3-2 and 2-3 loops"'
p673
I4
sS'"Improve "Bulged Star NUPACK design 02" with "Simplified Berex Test" strategy"'
p674
I3
sS'"[RNA Polymerase] Level 4 of 9"'
p675
I1205
sS'"Project : Sample puzzle for lab"'
p676
I12
sS'"Project : comparison series: Hairpin loop with 11 nts"'
p677
I10
sS'"Project : Stack With Multiple Bulges (5)"'
p678
I10
sS'"Multistate RNA Structure: 3-way junction to 2-way junction - Shape 9"'
p679
I4
sS'"Project : Turtle project Ml 0-0-0-0'
p680
I6
sS'"Project : comparison series: ML-I 4-4-4"'
p681
I12
sS'"Investigation of Alternative Human tRNA Structures - Shape 13"'
p682
I1
sS'"Project : Large Loop"'
p683
I20
sS'"Nando\'s Zippers - Shape 4"'
p684
I2
sS'"FMN switch Mimics: Round 91 follow-up - Shape 10"'
p685
I1
sS'"[Thermocycler] Level 4 of 11"'
p686
I3620
sS'"Project : Multiloop: Two Pairs of Adjacent Stacks"'
p687
I18
sS'"Project :  comparison series: NNF x3 2-2 next"'
p688
I3
sS'"Project : Stack With Multiple 2-nt Bulges (1A)"'
p689
I6
sS'"Project : Quadloop Mania 4"'
p690
I11
sS'"Project : Hairpins: Heptaloop"'
p691
I28
sS'"Project : Hairpins: Triloop"'
p692
I26
sS'"Project : comparison series: 15-2"'
p693
I13
sS'"Project : comparison series: B 0-5"'
p694
I12
sS'"Exhaustive AAA triloop closure test with CG Deep Backing - Shape 0"'
p695
I22
sS'"Project : comparison series: B 0-2"'
p696
I16
sS'"Effects of nucleotide exposure on global RNA elements. - Shape 6"'
p697
I1
sS'"hHAR1 10mM MgCl2"'
p698
I2
sS'"Project : comparison series: ML-I 2-2-2 8'
p699
I5
sS'"Project : Headless Bug Arm 5"'
p700
I11
sS'"Project : comparison series: ML-I 2-2-2 3'
p701
I8
sS'"Project : Stack With Multiple Bulges (2A)"'
p702
I10
sS'"Project : comparison series: ML-I 2-2-2 7'
p703
I5
sS'"Project : comparison series: 1-5"'
p704
I7
sS'"Project : comparison series: ML-I 2-2-2 5'
p705
I6
sS'"Project : Nupack\'s Finger Revisited"'
p706
I17
sS'"Multistate RNA - CC/G bulge - Shape 0"'
p707
I1
sS'"Project : Coaxial Stacking: Two Stacks (3A)"'
p708
I9
sS'"Project : comparison series: ML-I 2-2-2"'
p709
I15
sS'"Project : Bug 11"'
p710
I20
sS'"Project : Turtle project Ml 7-7-7-7'
p711
I3
sS'"Project : Quadloop Mania 2"'
p712
I12
sS'"TEBOWNED mutation - U"'
p713
I128
sS'"20-stack hexaloop hairpin"'
p714
I2
sS'"Project : Isolated Base Pairs: Adjacent 2-1 Loops (3)"'
p715
I9
sS'"Project : comparison series: B 3-0"'
p716
I12
sS'"Hairpin Loop Comparison Pilot - Shape 0"'
p717
I5
sS'"Project : Mat - comparison series: Hairpin loop with 10 nts"'
p718
I12
sS'"Project : Tetraloop Library (2): Modified Stack"'
p719
I12
sS'"Project : comparison series: 6-15"'
p720
I15
sS'"Project : comparison series: 2-6"'
p721
I12
sS'"Sarcin-ricin vs boosted internal loops - Shape 5"'
p722
I2
sS'"Improve "Bulged Star NUPACK design 01" with "Simplified Berex Test" strategy"'
p723
I10
s.