(lp0
S'"[Gene Synthesizer] Level 1 of 14"'
p1
aS'"[Gene Synthesizer] Level 2 of 14"'
p2
aS'"[Gene Synthesizer] Level 3 of 14"'
p3
aS'"[Gene Synthesizer] Level 4 of 14"'
p4
aS'"[Gene Synthesizer] Level 5 of 14"'
p5
aS'"[Gene Synthesizer] Level 6 of 14"'
p6
aS'"[Gene Synthesizer] Level 7 of 14"'
p7
aS'"[Gene Synthesizer] Level 8 of 14"'
p8
aS'"[Gene Synthesizer] Level 9 of 14"'
p9
aS'"[Gene Synthesizer] Level 12 of 14"'
p10
aS'"[Gene Synthesizer] Level 13 of 14"'
p11
aS'"[Gene Synthesizer] Level 14 of 14"'
p12
aS'"[Thermocycler] Level 1 of 11"'
p13
aS'"[Thermocycler] Level 2 of 11"'
p14
aS'"[Thermocycler] Level 3 of 11"'
p15
aS'"[Thermocycler] Level 4 of 11"'
p16
aS'"[Thermocycler] Level 5 of 11"'
p17
aS'"[Thermocycler] Level 6 of 11"'
p18
aS'"[Thermocycler] Level 7 of 11"'
p19
aS'"[Thermocycler] Level 8 of 11"'
p20
aS'"[Thermocycler] Level 9 of 11"'
p21
aS'"[Thermocycler] Level 10 of 11"'
p22
aS'"[Thermocycler] Level 11 of 11"'
p23
aS'"[Next-Generation Sequencer] Level 1 of 11"'
p24
aS'"[Next-Generation Sequencer] Level 2 of 11"'
p25
aS'"[Next-Generation Sequencer] Level 3 of 11"'
p26
aS'"[Next-Generation Sequencer] Level 5 of 11"'
p27
aS'"[Next-Generation Sequencer] Level 6 of 11"'
p28
aS'"[Next-Generation Sequencer] Level 7 of 11"'
p29
aS'"[Next-Generation Sequencer] Level 8 of 11"'
p30
aS'"[Next-Generation Sequencer] Level 9 of 11"'
p31
aS'"[Next-Generation Sequencer] Level 10 of 11"'
p32
aS'"[Next-Generation Sequencer] Level 11 of 11"'
p33
aS'"[RNA Polymerase] Level 1 of 9"'
p34
aS'"[RNA Polymerase] Level 3 of 9"'
p35
aS'"[RNA Polymerase] Level 4 of 9"'
p36
aS'"[RNA Polymerase] Level 5 of 9"'
p37
aS'"[RNA Polymerase] Level 6 of 9"'
p38
aS'"[RNA Polymerase] Level 7 of 9"'
p39
aS'"[RNA Polymerase] Level 8 of 9"'
p40
aS'"[RNA Polymerase] Level 9 of 9"'
p41
aS'"[Microfluidic Chip] Level 1 of 7"'
p42
aS'"[Microfluidic Chip] Level 2 of 7"'
p43
aS'"[Microfluidic Chip] Level 3 of 7"'
p44
aS'"[Microfluidic Chip] Level 4 of 7"'
p45
aS'"[Microfluidic Chip] Level 5 of 7"'
p46
aS'"[Microfluidic Chip] Level 6 of 7"'
p47
aS'"[Microfluidic Chip] Level 7 of 7"'
p48
aS'"[Gene Synthesizer] Level 11 of 14"'
p49
aS'"[Gene Synthesizer] Level 10 of 14"'
p50
aS'"P4P6 Group 1 Intron"'
p51
aS'"hHAR1"'
p52
aS'"cHAR1"'
p53
aS'"P4P6 Scrambled"'
p54
aS'"hHAR1 10mM MgCl2"'
p55
aS'"Improve "Bulged Star NUPACK design 01" with "Direction of GC pairs +neck area" strategy"'
p56
aS'"Improve "Bulged Star NUPACK design 01" with "Numbers of yellow nucleotides pr. length of string" strategy"'
p57
aS'"Improve "Bulged Star NUPACK design 01" with "Repetition" strategy"'
p58
aS'"Improve "Bulged Star NUPACK design 01" with "Simplified Berex Test" strategy"'
p59
aS'"Improve "Bulged Star NUPACK design 02" with "Direction of GC pairs + neck area" strategy"'
p60
aS'"Improve "Bulged Star NUPACK design 02" with "Numbers of yellow nucleotides pr. length of string" strategy"'
p61
aS'"Improve "Bulged Star NUPACK design 02" with "Repetition" strategy"'
p62
aS'"Improve "Bulged Star NUPACK design 02" with "Simplified Berex Test" strategy"'
p63
aS'"Improve "The Branches NUPACK bot design 2" with "Direction of GC pairs + neck area" strategy"'
p64
aS'"Improve "The Branches NUPACK bot design 2" with "Numbers of yellow nucleotides pr. length of string" strategy"'
p65
aS'"Improve "The Branches NUPACK bot design 2" with "Repetition" strategy"'
p66
aS'"Improve "The Branches NUPACK bot design 2" with "Simplified Berex Test" strategy"'
p67
aS'"Improve "The Branches NUPACK bot design 8" with "Direction of GC pairs + neck area" strategy"'
p68
aS'"Improve "The Branches NUPACK bot design 8" with "Numbers of yellow nucleotides pr. length of string" strategy"'
p69
aS'"Improve "The Branches NUPACK bot design 8" with "Repetition" strategy"'
p70
aS'"Improve "The Branches NUPACK bot design 8" with "Simplified Berex Test" strategy"'
p71
aS'"Project : tttt"'
p72
aS'"Project : Example project"'
p73
aS'"Project : Example project 2"'
p74
aS'"Project : 2-2 loop"'
p75
aS'"Project : JerryP\'s winning design without tetraloop boost"'
p76
aS'"Project : 4-4 loop"'
p77
aS'"Project : Isolated Closing Pairs 1"'
p78
aS'"Project : Repetitive Structures"'
p79
aS'"Project : Isolated Closing Pairs 2"'
p80
aS'"Project : Fractal RNA"'
p81
aS'"Project : Loop Heavy"'
p82
aS'"Project : Cytosine reduction"'
p83
aS'"Project : Multiloop Isolated Closing Pairs"'
p84
aS'"Project : Hooked"'
p85
aS'"Project : Large Loop"'
p86
aS'"Project : Nupack\'s Finger Revisited"'
p87
aS'"Project : Plain Hooked"'
p88
aS'"Project :  Chesterfield\'s-The Mousekateer"'
p89
aS'"Project : Hairpins: Triloop"'
p90
aS'"Project : Hairpins: Tetraloop"'
p91
aS'"Project : Hairpins: Pentaloop"'
p92
aS'"Project : Hairpins: Hexaloop"'
p93
aS'"Project : Hairpins: Heptaloop"'
p94
aS'"Project : Tobramycin Aptamer"'
p95
aS'"Project : FMN-RNA aptamer complex lab "'
p96
aS'"Project : Internal Loops: 6-3"'
p97
aS'"Project : Internal Loops: 5-2"'
p98
aS'"Project : Adenine Reduction"'
p99
aS'"Project : Alternative Mismatches"'
p100
aS'"Project : Isolated Closing Pairs 3"'
p101
aS'"Project : Large Isolated Hairpin"'
p102
aS'"Project : Uracil Reduction"'
p103
aS'"Project : Guanine Reduction"'
p104
aS'"Project : Bulge test"'
p105
aS'"Project : test"'
p106
aS'"Project : All red and blue"'
p107
aS'"Project : Reshiram'
p108
aS'"Project : S&E5 Modified"'
p109
aS'"Project : Sharklike V-1 (SHAPE data Exp-1)"'
p110
aS'"Project : Sharklike V-2 (SHAPE data Exp-2)"'
p111
aS'"Project : 30 Nucleotide Loop 1 - Symmetric Internal Loop"'
p112
aS'"Project : 30 Nucleotide Loop 2 - Asymmetric Internal Loop"'
p113
aS'"Project : Two bulges and a 1-2 loop (reverse)"'
p114
aS'"Project : 30 Nucleotide Loop 3 - Bulge Internal Loop"'
p115
aS'"Project : Saccharomyces Cerevisiae Loop Structure"'
p116
aS'"Project : Half of The Branches"'
p117
aS'"Project : Pseudoknot 1: Minimal"'
p118
aS'"Project : Pseudoknot 2: Biotin-Binding Pseudoknot"'
p119
aS'"Project : Sample puzzle for lab"'
p120
aS'"Project : Lab design for newer players"'
p121
aS'"Project : Two stacks"'
p122
aS'"Project : comparison series: 1-1"'
p123
aS'"Project : comparison series: 2-2"'
p124
aS'"Project : comparison series:"'
p125
aS'"Project : comparison series: 4-4"'
p126
aS'"Project : comparison series: 6-6"'
p127
aS'"Project : comparison series: 7-7"'
p128
aS'"Project : comparison series: 8-8"'
p129
aS'"Project : comparison series: 9-9"'
p130
aS'"Project : comparison series: 10-10"'
p131
aS'"Project : comparison series: 11-11"'
p132
aS'"Project : comparison series: 12-12"'
p133
aS'"Project : comparison series: 13-13"'
p134
aS'"Project : comparison series: 14-14"'
p135
aS'"Project : comparison series: 15-15"'
p136
aS'"Project : comparison series: 15-14"'
p137
aS'"Project : comparison series: 15-13"'
p138
aS'"Project : comparison series: 15-12"'
p139
aS'"Project : comparison series: 15-11"'
p140
aS'"Project : comparison series: 15-10"'
p141
aS'"Project : comparison series: 15-9"'
p142
aS'"Project : comparison series: 15-8"'
p143
aS'"Project : comparison series: 15-7"'
p144
aS'"Project : comparison series: 15-6"'
p145
aS'"Project : comparison series: 15-5"'
p146
aS'"Project : comparison series: 15-4"'
p147
aS'"Project : comparison series: 15-3"'
p148
aS'"Project : comparison series: 15-2"'
p149
aS'"Project : comparison series: 15-1"'
p150
aS'"Project : comparison series: 14-15"'
p151
aS'"Project : comparison series: 13-15"'
p152
aS'"Project : comparison series: 12-15"'
p153
aS'"Project : comparison series: 11-15"'
p154
aS'"Project : comparison series: 10-15"'
p155
aS'"Project : comparison series: 9-15"'
p156
aS'"Project : comparison series: 8-15"'
p157
aS'"Project : comparison series: 7-15"'
p158
aS'"Project : comparison series: 6-15"'
p159
aS'"Project : comparison series: 5-15"'
p160
aS'"Project : comparison series: 4-15"'
p161
aS'"Project : comparison series: 3-15"'
p162
aS'"Project : comparison series: 2-15"'
p163
aS'"Project : comparison series: 1-15"'
p164
aS'"Project : chain lengh an loop size series 1-3"'
p165
aS'"Project : chain length and loop size series 1-4"'
p166
aS'"Project : chain length and loop size series 1-5"'
p167
aS'"Project : chain length and loop size series 1-8"'
p168
aS'"Project : chain lenth and loop size series 1-9"'
p169
aS'"Project : Chain length and loop size series 1-10"'
p170
aS'"Project : 3-4 and 1-2 loops"'
p171
aS'"Project : Multiloop: 3 Branches'
p172
aS'"Project : Multiloop: 3 Branches Unevenly Spaced (1)"'
p173
aS'"Project : Multiloop: 3 Branches Unevenly Spaced (2)"'
p174
aS'"Project : Multiloop: 4 Branches Separated by Single Unpaired Bases"'
p175
aS'"Project : comparison series: Triloop  "'
p176
aS'"Project : comparison series: Pentaloop  "'
p177
aS'"Project : comparison series: Hexaloop  "'
p178
aS'"Project : comparison series: Heptaloop"'
p179
aS'"Project : comparison series: Octaloops"'
p180
aS'"Project : Five Branch Multiloop"'
p181
aS'"Project : Mat - comparison series: Hairpin loop with 9 nts- D1"'
p182
aS'"Project : Mat - comparison series: Hairpin loop with 10 nts"'
p183
aS'"Project : comparison series: Hairpin loop with 11 nts"'
p184
aS'"Project : comparison series: Hairpin loop with 12 nts"'
p185
aS'"Project : comparison series: Hairpin loop with 13 nts"'
p186
aS'"Project : comparison series: Hairpin loop with 14 nts"'
p187
aS'"Project : comparison series: Hairpin loop with 15 nts"'
p188
aS'"Project : Mat - comparison series: 3-2 - D1"'
p189
aS'"Project : comparison series: 4-2"'
p190
aS'"Project : comparison series: 5-2"'
p191
aS'"Project : comparison series: 6-2"'
p192
aS'"Project : comparison series: 7-2"'
p193
aS'"Project : comparison series: 8-2"'
p194
aS'"Project : comparison series: 9-2"'
p195
aS'"Project : comparison series: 10-2"'
p196
aS'"Project : Fisker - 2-2 loop energy challenge"'
p197
aS'"Project : comparison series: 2-3"'
p198
aS'"Project : comparison series: 2-4"'
p199
aS'"Project : comparison series: 2-5"'
p200
aS'"Project : comparison series: 2-6"'
p201
aS'"Project : comparison series: 2-7"'
p202
aS'"Project : Crossroads test"'
p203
aS'"Project : comparison series: 2-8"'
p204
aS'"Project : comparison series: 2-9"'
p205
aS'"Project : comparison series: 2-10"'
p206
aS'"Project : GU-pin shape test"'
p207
aS'"Project : Zigzag: 1-Nucleotide Bulge (1)"'
p208
aS'"Project : Zigzag: 1-Nucleotide Bulge (2)"'
p209
aS'"Project : Zigzag: 1-Nucleotide Bulge (3)"'
p210
aS'"Project : Zigzag: 1-Nucleotide Bulge (4)"'
p211
aS'"Project : Isolated Base Pairs: Adjacent 2-1-Loops (4)"'
p212
aS'"Project : Isolated Base Pairs: Adjacent 2-1 Loops (3)"'
p213
aS'"Project : Isolated Base Pairs: Adjacent 2-1 Loops (2)"'
p214
aS'"Project : Isolated Base Pairs: Adjacent 2-1 Loops (1)"'
p215
aS'"Project : Isolated Base Pairs: 2-2 Loops Adjacent to Multiloop"'
p216
aS'"Project : 3 single nucleotide bulges"'
p217
aS'"Project : Bulge Sampler: 1-nt"'
p218
aS'"Project : Bulge Sampler: 2-nt"'
p219
aS'"Project : Bulge Sampler: 3-nt"'
p220
aS'"Project : Bulge Sampler: 4-nt"'
p221
aS'"Project : Neck Length 2 - 4 branch multiloop"'
p222
aS'"Project : Hard Lab Fragments: Water Strider Arm"'
p223
aS'"Project : Hard Lab Fragments: Making it Up As I Go Multiloop"'
p224
aS'"Project : Hard Lab Fragments: Kudzu Neck"'
p225
aS'"Project : Hard Lab Fragments: Kudzu Arm"'
p226
aS'"Project : Testing various loop designs"'
p227
aS'"Project : Multiloop: Two Pairs of Adjacent Stacks"'
p228
aS'"Project : Test of RNAfold (1)"'
p229
aS'"Project : Test of RNAfold (2)"'
p230
aS'"Project : Test of RNAfold (3)"'
p231
aS'"Project : Test of RNAfold (4)"'
p232
aS'"Project : Test of RNAfold (5)"'
p233
aS'"Project : Thicker Zigzag"'
p234
aS'"Project : Green Plimsole"'
p235
aS'"Project : 3-3 + 5*"'
p236
aS'"Project : comparison series: ML-I 1-1-1"'
p237
aS'"Project : comparison series: ML-I 2-2-2"'
p238
aS'"Project : comparison series: ML-I 3-3-3"'
p239
aS'"Project : comparison series: ML-I 4-4-4"'
p240
aS'"Project : comparison series: ML-I 5-5-5"'
p241
aS'"Project : comparison series: ML-I 6-6-6"'
p242
aS'"Project : comparison series: ML-I 1-2-1"'
p243
aS'"Project : comparison series: ML-I 1-3-1"'
p244
aS'"Project : comparison series: ML-I 1-4-1"'
p245
aS'"Project : comparison series: ML-I 1-5-1"'
p246
aS'"Project :  comparison series: ML-I 1-6-1"'
p247
aS'"Project : comparison series: ML-I 1-7-1"'
p248
aS'"Project : comparison series: ML-I 1-8-1"'
p249
aS'"Project : comparison series: ML-I 1-9-1"'
p250
aS'"Project : comparison series: ML-I 1-10-1"'
p251
aS'"Project : comparison series: ML-I 2-10-2"'
p252
aS'"Project : comparison series: ML-I 3-10-3"'
p253
aS'"Project : comparison series: ML-I 4-10-4"'
p254
aS'"Project : comparison series: ML-I 5-8-5"'
p255
aS'"Project : comparison series: ML-I 7-4-7"'
p256
aS'"Project : comparison series: ML-I 8-2-8"'
p257
aS'"Project : comparison series: ML-I 2-1-2"'
p258
aS'"Project : comparison series: ML-I 3-1-3"'
p259
aS'"Project :   comparison series: ML-I 4-1-4"'
p260
aS'"Project : comparison series: ML-I 1-1-4"'
p261
aS'"Project : comparison series: ML-I 2-1-3"'
p262
aS'"Project : comparison series: ML-I 3-1-2"'
p263
aS'"Project : comparison series: ML-I 4-1-1"'
p264
aS'"Project : comparison series: ML-I 6-2-2"'
p265
aS'"Project : comparison series: ML-I 8-3-3"'
p266
aS'"Project : comparison series: ML-I 10-4-4"'
p267
aS'"Project : comparison series: ML-I 4-4-10"'
p268
aS'"Project : comparison series: ML-I 3-3-8"'
p269
aS'"Project : comparison series: ML-I 2-2-6"'
p270
aS'"Project : comparison series: ML-I 1-1-10"'
p271
aS'"Project : comparison series: ML-I 2-2-10"'
p272
aS'"Project : comparison series: ML-I 3-3-10"'
p273
aS'"Project : comparison series: ML-I 10-1-1"'
p274
aS'"Project : comparison series: ML-I 10-2-2"'
p275
aS'"Project : comparison series: ML-I 10-3-3"'
p276
aS'"Project : comparison series: ML-I 4-7-1"'
p277
aS'"Project : comparison series: ML-I 1-7-4"'
p278
aS'"Project : Isolated Base Pairs: 1-1 Loop Adjacent to 1-nt Bulge (1)"'
p279
aS'"Project : Isolated Base Pairs: 1-1 Loop Adjacent to 1-nt Bulge (3)"'
p280
aS'"Project : Isolated Base Pairs: 1-1 Loop Adjacent to 1-nt Bulge (2)"'
p281
aS'"Project : Isolated Base Pairs: 1-1 Loop Between 1-nt Bulges (4)"'
p282
aS'"Project : Isolated Base Pairs: 1-1 Loop Between 1-nt Bulges (3)"'
p283
aS'"Project : Isolated Base Pairs: 1-1 Loop Between 1-nt Bulges (2)"'
p284
aS'"Project : Isolated Base Pairs: 1-1 Loop Between 1-nt Bulges (1)"'
p285
aS'"Project : Natural RNAs: Hop Stunt Viroid"'
p286
aS'"Project : Natural RNAs: Barley Yellow Dwarf Virus 5\' UTR (3)"'
p287
aS'"Project : Natural RNAs: Barley Yellow Dwarf Virus 5\' UTR (2)"'
p288
aS'"Project : Natural RNAs: Barley Yellow Dwarf Virus 5\' UTR (1)"'
p289
aS'"Project : Sock"'
p290
aS'"Project : comparison series: B 0-1"'
p291
aS'"Project : comparison series: B 0-2"'
p292
aS'"Project : comparison series: B 0-3"'
p293
aS'"Project : comparison series: B 0-4"'
p294
aS'"Project : comparison series: B 0-5"'
p295
aS'"Project : comparison series: B 1-0"'
p296
aS'"Project : comparison series: B 2-0"'
p297
aS'"Project : comparison series: B 3-0"'
p298
aS'"Project : comparison series: B 4-0"'
p299
aS'"Project : comparison series: B 5-0"'
p300
aS'"Project : jandersonlee\'s LR15"'
p301
aS'"Project : janderson\'s LR12"'
p302
aS'"Project : LR8"'
p303
aS'"Project : Turtle project Ml 1-1-1-1. 2x4 NT L'
p304
aS'"Project : Turtle project  Ml 1-1-1-1-1'
p305
aS'"Project : Turtle project Ml 1-1-1 with 3 legs (2NT)'
p306
aS'"Project : Turtle project Ml 1-1 with 2 legs (2NT)'
p307
aS'"Project : Turtle project Ml 2-2-2 with 2 legs (2NT)'
p308
aS'"Project : Turtle project Ml 2-2-2-2 with 3 legs (2NT)'
p309
aS'"Project : Turtle project Ml 2-2-2-2-2 with 4 legs (2NT)'
p310
aS'"Project : Turtle project Ml 2-2-2-2-2-2 with 5 legs (2NT)'
p311
aS'"Project : Turtle project Ml 3-3-3 with 2 legs (2NT)'
p312
aS'"Project : Turtle project Ml 3-3-3-3 with 3 legs (2NT)'
p313
aS'"Project : Turtle project Ml 3-3-3-3-3 with 4 legs (2NT)'
p314
aS'"Project : Turtle project Ml 4-4-4 with 2 legs (2NT)'
p315
aS'"Project : Turtle project Ml 4-4-4-4 with 3 legs (2NT)'
p316
aS'"Project : Turtle project Ml 5-5-5 with 2 legs (2NT)'
p317
aS'"Project : Turtle project Ml 5-5-5-5 with 3 legs (2NT)'
p318
aS'"Project : Turtle project Ml 6-6-6 with 2 legs (2NT)'
p319
aS'"Project : Turtle project Ml 6-6-6-6 with 3 legs (2NT)'
p320
aS'"Project : Turtle project Ml 7-7-7 with 2 legs (2NT)'
p321
aS'"Project : Turtle project Ml 8-8-8 with 2 legs (2NT)'
p322
aS'"Project : Turtle project Ml 9-9-9 with 2 legs (2NT)'
p323
aS'"Project : Turtle project Ml 0-0-0. 2 legs (3 NT)'
p324
aS'"Project : Turtle project Ml 0-0-0-0'
p325
aS'"Project : Turtle project Ml 0-0-0-0-0'
p326
aS'"Project : Turtle project Ml 1-1-1'
p327
aS'"Project : Turtle project Ml 1-1-1-1'
p328
aS'"Project : Turtle project Ml 1-1-1-1-1'
p329
aS'"Project : Turtle project Ml 2-2-2'
p330
aS'"Project : Turtle project Ml 2-2-2-2'
p331
aS'"Project : Turtle project Ml 3-3-3'
p332
aS'"Project : Turtle project Ml 3-3-3-3'
p333
aS'"Project : Turtle project Ml 4-4-4-'
p334
aS'"Project : Turtle project Ml 4-4-4-4'
p335
aS'"Project : Turtle project Ml 5-5-5'
p336
aS'"Project : Turtle project Ml 5-5-5-5'
p337
aS'"Project : Turtle project Ml 6-6-6'
p338
aS'"Project : Turtle project Ml 6-6-6-6'
p339
aS'"Project : Turtle project Ml 7-7-7'
p340
aS'"Project : Turtle project Ml 8-8-8'
p341
aS'"Project : Turtle project Ml 10-10-10'
p342
aS'"Project : Turtle project Ml 11-11-11'
p343
aS'"Project : comparison series: NNF 2x 1-1 NEAR"'
p344
aS'"Project : comparison series: NNF 2x 1-1 next"'
p345
aS'"Project : comparison series: NNF 2x 1-1 fused"'
p346
aS'"Project : comparison series: NNF 2x 2-2 near"'
p347
aS'"Project : comparison series: NNF 2x 2-2 next"'
p348
aS'"Project : comparison series: NNF 2x 2-2 fused"'
p349
aS'"Project : comparison series: NNF 2x 3-3 near"'
p350
aS'"Project : comparison series: NNF  2x 3-3 next"'
p351
aS'"Project : comparison series: NNF 2x 3-3 fused"'
p352
aS'"Project : comparison series: NNF 2x 4-4 near"'
p353
aS'"Project : comparison series: NNF 2x 4-4 next"'
p354
aS'"Project : comparison series: NNF 2x 4-4 fused"'
p355
aS'"Project : comparison series: NNF 2x 5-5 near"'
p356
aS'"Project : comparison series: NNF 2x 5-5 next"'
p357
aS'"Project : comparison series: NNF 2x 5-5 fused"'
p358
aS'"Project : comparison series: NNF 2x 6-6 near"'
p359
aS'"Project : comparison series: NNF 2x 6-6  next"'
p360
aS'"Project : comparison series: NNF 2x 6-6 fused"'
p361
aS'"Project : Turtle project Ml 0-0-0'
p362
aS'"Project : Turtle project Ml 0-0-0-0-0-0'
p363
aS'"Project : Turtle project Ml 1-1-1-1-1-1'
p364
aS'"Project : Turtle project Ml 2-2-2-2-2'
p365
aS'"Project : Turtle project Ml 2-2-2-2-2-2'
p366
aS'"Project : Turtle project Ml 3-3-3-3-3'
p367
aS'"Project : Turtle project Ml 4-4-4'
p368
aS'"Project : Turtle project Ml 4-4-4-4-4'
p369
aS'"Project : Turtle project Ml 7-7-7-7'
p370
aS'"Project : Turtle project Ml 9-9-9'
p371
aS'"Project : Turtle project Ml 12-12-12'
p372
aS'"Project : Natural RNAs: Iron Response Element"'
p373
aS'"Project : APC IRES"'
p374
aS'"Project : Natural RNAs: Coronavirus 3\' s2m"'
p375
aS'"Project : Natural RNAs: flpD RNA Motif"'
p376
aS'"Project : Natural RNAs: U1A Polyadenylation Inhibition Element"'
p377
aS'"Project : Natural RNAs: Turnip Crinkle Virus Hairpin"'
p378
aS'"Project : Natural RNAs: U1A PIE"'
p379
aS'"Project : comparison series: 1-2"'
p380
aS'"Project : comparison series: 1-3"'
p381
aS'"Project : comparison series: 1-4"'
p382
aS'"Project : comparison series: 1-5"'
p383
aS'"Project : comparison series: 1-6"'
p384
aS'"Project : comparison series: 1-7"'
p385
aS'"Project : comparison series: 1-8"'
p386
aS'"Project : comparison series: 1-9"'
p387
aS'"Project : comparison series: 1-10"'
p388
aS'"Project : comparison series: 2-1"'
p389
aS'"Project : comparison series: 3-1"'
p390
aS'"Project : comparison series: 4-1"'
p391
aS'"Project : comparison series: 5-1"'
p392
aS'"Project : comparison series: 6-1"'
p393
aS'"Project : comparison series: 7-1"'
p394
aS'"Project : comparison series: 8-1"'
p395
aS'"Project : comparison series: 9-1"'
p396
aS'"Project : comparison series: 10-1"'
p397
aS'"Project : Branching Loop - 8 nucleotides"'
p398
aS'"Project : Branching Loop - 6 nucleotides"'
p399
aS'"Project : comparison series: N6-S7"'
p400
aS'"Project : 3-2 and 2-3 loops"'
p401
aS'"Project : comparison series: N7-S6"'
p402
aS'"Project : comparison series: NNF 3x 4-4"'
p403
aS'"Project : comparison series: NNF 3x 4-4 next"'
p404
aS'"Project : comparison series: NNF 3x 4-4 fused"'
p405
aS'"Project :  comparison series: NNF x3 3-3 near"'
p406
aS'"Project :  comparison series: NNF x3 3-3 next"'
p407
aS'"Project : comparison series: NNF x3 3-3 fused"'
p408
aS'"Project : comparison series: NNF x3 2-2 near"'
p409
aS'"Project :  comparison series: NNF x3 2-2 next"'
p410
aS'"Project :  comparison series: NNF x3 2-2 fused"'
p411
aS'"Project : comparison series: NNF x3 1-1 near"'
p412
aS'"Project : comparison series: NNF x3 1-1 next"'
p413
aS'"Project : comparison series: NNF x3 1-1 fused"'
p414
aS'"Project : 2 multiloops with neck and branches 4nt long and tetraloops"'
p415
aS'"Project : comparison series: 5N ML-I 2x 1-1-1"'
p416
aS'"Project :  comparison series: 5N ML-I-b 2x 1-1-1"'
p417
aS'"Project : Upside down T"'
p418
aS'"Project : comparison series: 7N ML-I 1-1-1 IL 3-3"'
p419
aS'"Project : comparison series: 7N ML-I  1-2-3 IL 3-3"'
p420
aS'"Project : comparison series: 7N ML-I-b 1-1-1 IL 3-3"'
p421
aS'"Project : Coaxial Stackng: Two Stacks (5B)"'
p422
aS'"Project : Coaxial Stacking: Two Stacks (5A)"'
p423
aS'"Project : Coaxial Stacking: Two Stacks (4B)"'
p424
aS'"Project : Coaxial Stacking: 4A"'
p425
aS'"Project : Coaxial Stacking: Two Stacks (3B)"'
p426
aS'"Project : Coaxial Stacking: Two Stacks (3A)"'
p427
aS'"Project : Coaxial Stacking: Two Stacks (ML 2-0-2-0)"'
p428
aS'"Project : Coaxial Stacking: Two Stacks (0-2-0-2 Multiloop)"'
p429
aS'"Project : Coaxial Stacking: ??? (0-1-0-1 Multiloop)"'
p430
aS'"Project : Coaxial Stacking: ??? (1-0-1-0 Multiloop)"'
p431
aS'"Project : Hard Lab Fragments: The Cross 0-0-0-0 Multiloop"'
p432
aS'"Project : Coaxial Stacking: Shape Test (4)"'
p433
aS'"Project : Coaxial Stacking: Shape Test (3)"'
p434
aS'"Project : Coaxial Stacking: Shape Test (2)"'
p435
aS'"Project : Coaxial Stacking: Shape Test (1)"'
p436
aS'"Project : Stack With Multiple Bulges (5)"'
p437
aS'"Project : Stack With Multiple Bulges (2B)"'
p438
aS'"Project : Stack With Multiple Bulges (2A)"'
p439
aS'"Project : Stack With Adjacent Bulges (1B)"'
p440
aS'"Project : Stack With Multiple Bulges (1A)"'
p441
aS'"Project : Stack With Multiple 2-nt Bulges (2B)"'
p442
aS'"Project : Stack With Multiple 2-nt Bulges (2A)"'
p443
aS'"Project : Stack With Multiple 2-nt Bulges (1B)"'
p444
aS'"Project : Stack With Multiple 2-nt Bulges (1A)"'
p445
aS'"Project : Stack With Multiple 3-nt Bulges (2A)"'
p446
aS'"Project : Stack With Multiple 3-nt Bulges (1B)"'
p447
aS'"Project : Stack With Multiple 3-nt Bulges (1A)"'
p448
aS'"Project : Stack With Multiple 1-1 Loops (4)"'
p449
aS'"Project : Stack With Multiple 1-1 Loops (3)"'
p450
aS'"Project : Stack With Multiple 1-1 Loops (2)"'
p451
aS'"Project : Stack With Multiple 1-1 Loops (1)"'
p452
aS'"Project : Experimental Shape - 1"'
p453
aS'"Project : One Step at a Time (1)"'
p454
aS'"Project : loop test 6"'
p455
aS'"Project : loop test 5"'
p456
aS'"Project : loop test 4"'
p457
aS'"Project : loop test 3"'
p458
aS'"Project : T6-5 S3 E4 (RS)"'
p459
aS'"Project : T5-6 S3 E4 (SR)"'
p460
aS'"Project : T3-3 N5 L2-2 S3 E4"'
p461
aS'"Project : Small Sided"'
p462
aS'"Project : Small Boot"'
p463
aS'"Project : Blade"'
p464
aS'"Project : Bumps"'
p465
aS'"Project : kARMa"'
p466
aS'"Project : Long Leg"'
p467
aS'"Project : Headless Bug Arm 1"'
p468
aS'"Project : Headless Bug Arm 2"'
p469
aS'"Project : Headless Bug Arm 3"'
p470
aS'"Project : Headless Bug Arm 4"'
p471
aS'"Project : Headless Bug Arm 5"'
p472
aS'"Project : Headless Bug Arm 6"'
p473
aS'"Project : One Step at a Time (2)"'
p474
aS'"Project : Thingamabob"'
p475
aS'"Project : 3-Branched Multiloop: Lonely Triloops"'
p476
aS'"Project : 3-Branched Multiloop: Triloop with Short Stack"'
p477
aS'"Project : 3-Branched Multiloop: Lonely Tetraloop"'
p478
aS'"Project : 3-Branched Multiloop: Lonely Pentaloop"'
p479
aS'"Project : Variations on a Theme S2E4 .1"'
p480
aS'"Project : Triloop Mania"'
p481
aS'"Project : Quadloop Mania 1"'
p482
aS'"Project : Quadloop Mania 2"'
p483
aS'"Project : Quadloop Mania 3"'
p484
aS'"Project : Quadloop Mania 4"'
p485
aS'"Project : Bistable RNA (1): Rod or Branch?"'
p486
aS'"Project : Quadloop Mania 5"'
p487
aS'"Project : Quadloop Mania 6"'
p488
aS'"Project : Quadloop Mania 7"'
p489
aS'"Project : Quadloop Mania 8"'
p490
aS'"Project : Loop 1-1 Mania 1"'
p491
aS'"Project : Compact Quad Multi-Loop 1"'
p492
aS'"Project : Close Multiloops (1)"'
p493
aS'"Project : Compact Tri Multi-Loop with Stack Length Four"'
p494
aS'"Project : Compact Tri Multi-Loop with Stacks of Length Five"'
p495
aS'"Project : TetraLoop GNRA - Just One Thing"'
p496
aS'"Project : TetraLoop CUYA - Just One Thing"'
p497
aS'"Project : Tetraloop Library (1): Sequences with Known Structure"'
p498
aS'"Project : Tetraloop Library (2): Modified Stack"'
p499
aS'"Project : Tetraloop Library (3): Modified Closing Pair"'
p500
aS'"Project : (..(.(((...))).(((...))).)..)"'
p501
aS'"Project : PDB Jigsaw Puzzle 1"'
p502
aS'"Project : comparison series: ML-I 2-2-2 x2 3NTS"'
p503
aS'"Project : comparison series: ML-I 2-2-2 x2 5NTS"'
p504
aS'"Project : comparison series: ML-I 2-2-2 x2 6NTS"'
p505
aS'"Project : comparison series: ML-I 2-2-2 x2 7NTS"'
p506
aS'"Project : comparison series: ML-I 2-2-2 x2 8NTS"'
p507
aS'"Project : comparison series: ML-I 2-2-2 x2 9NTS"'
p508
aS'"Project : comparison series: ML-I 2-2-2 x2 10NTS"'
p509
aS'"Project : comparison series: ML-I 2-2-2 3'
p510
aS'"Project : comparison series: ML-I 2-2-2 4'
p511
aS'"Project : comparison series:  ML-I 2-2-2 5'
p512
aS'"Project : comparison series: ML-I 2-2-2 6'
p513
aS'"Project : comparison series: ML-I 2-2-2 7'
p514
aS'"Project : comparison series:  ML-I 2-2-2 8'
p515
aS'"Project : comparison series: ML-I 2-2-2 5'
p516
aS'"Project : comparison series: ML-I 2-2-2 8'
p517
aS'"Project :  comparison series: ML-I 2-2-2 7'
p518
aS'"Project : Bug 11"'
p519
aS'"Project : I Dont Know"'
p520
aS'"Project : idk"'
p521
aS'"Project : ajdfhld"'
p522
aS'"Project : Triloop Forked FMN"'
p523
aS'"Project : mnm7198\'s project"'
p524
aS'"Project : Whale of a Tale"'
p525
aS'"Project : Ameoba Campaign"'
p526
aS'"Project : Genetic Sequences: Solving Paired 1-1 and 2-2 Loops"'
p527
aS'"Project : Genetic Sequences: Solving Puzzles with Short Stacks Between Loops"'
p528
aS'"Project : Genetic Sequences: Solving Many Small Loops "'
p529
aS'"Project : Genetic Sequences: Soving Smaller Loops"'
p530
aS'"Project : Genetic Sequences: Solving Hexagons without Stacks"'
p531
aS'"Project : Genetic Sequences: Solving Multiloops Reposted"'
p532
aS'"Project : Genetic Sequences: Curve"'
p533
aS'"Project : Genetic Sequences: Curve 2"'
p534
aS'"Project : TRNA-Phe Yeast"'
p535
aS'"Project : Cytosine Free 2"'
p536
aS'"Project : Genetic Sequences: Hairpin Loop"'
p537
aS'"Project : Genetic Sequences: 2-1 Loops"'
p538
aS'"Project : Rattus norvegicus miRNA"'
p539
aS'""Sea Turtle" for New Players"'
p540
aS'"TEBOWNED mutation - BH"'
p541
aS'"TEBOWNED mutation - U"'
p542
aS'"TEBOWNED mutation - B"'
p543
aS'"Codon riboswitch [histidine]"'
p544
aS'"Test - Shape 0"'
p545
aS'"Test - Shape 1"'
p546
aS'"Example project for renewal 2 - Shape 0"'
p547
aS'"Example project for renewal 2 - Shape 1"'
p548
aS'"Example project for renewal 2 - Shape 2"'
p549
aS'"Example project for renewal 2 - Shape 3"'
p550
aS'"Example project for renewal 2 - Shape 4"'
p551
aS'"Example project for renewal 2 - Shape 5"'
p552
aS'"Test LAB - Shape 0"'
p553
aS'"Nando\'s Zippers - Shape 0"'
p554
aS'"Nando\'s Zippers - Shape 2"'
p555
aS'"Nando\'s Zippers - Shape 3"'
p556
aS'"Nando\'s Zippers - Shape 4"'
p557
aS'"Nando\'s Zippers - Shape 5"'
p558
aS'"Nando\'s Zippers - Shape 6"'
p559
aS'"Nando\'s Zippers - Shape 7"'
p560
aS'"Nando\'s Zippers - Shape 8"'
p561
aS'"Nando\'s Zippers - Shape 10"'
p562
aS'"test - Shape 0"'
p563
aS'"test - Shape 1"'
p564
aS'"test - Shape 2"'
p565
aS'"test - Shape 3"'
p566
aS'"test - Shape 4"'
p567
aS'"test - Shape 5"'
p568
aS'"test - Shape 6"'
p569
aS'"test - Shape 7"'
p570
aS'"test - Shape 9"'
p571
aS'"test - Shape 10"'
p572
aS'"test - Shape 12"'
p573
aS'"test - Shape 13"'
p574
aS'"test - Shape 14"'
p575
aS'"test - Shape 15"'
p576
aS'"test - Shape 16"'
p577
aS'"test - Shape 17"'
p578
aS'"test - Shape 18"'
p579
aS'"test - Shape 19"'
p580
aS'"test - Shape 20"'
p581
aS'"Aptamer secondary structure - Shape 0"'
p582
aS'"Test sequence pilot - Shape 0"'
p583
aS'"Hairpin Loop Comparison Pilot - Shape 0"'
p584
aS'"Hairpin Loop Comparison Pilot - Shape 1"'
p585
aS'"Hairpin Loop Comparison Pilot - Shape 2"'
p586
aS'"Hairpin Loop Comparison Pilot - Shape 3"'
p587
aS'"Hairpin Loop Comparison Pilot - Shape 4"'
p588
aS'"SHAPE Profile - G/A Hairpin Terminal Mismatch and Neighboring Base Pairs CNGgaaaaCNG - Shape 0"'
p589
aS'"Stanford Switch Puzzle"'
p590
aS'"Multistate RNA - CC/G bulge - Shape 0"'
p591
aS'"Testing - Shape 0"'
p592
aS'"Reproducibility Lab 2 - Shape 0"'
p593
aS'"Reproducibility Lab 2 - Shape 19"'
p594
aS'"Multistate RNA Sequence - 2 Residues"'
p595
aS'"Multistate RNA Sequence - 4 Residues"'
p596
aS'"Hairpin Loop Comparison Pilot - Stem Comparison Tests"'
p597
aS'"14-stack tetraloop hairpin"'
p598
aS'"20-stack hexaloop hairpin"'
p599
aS'"Sarcin-ricin vs boosted internal loops - Shape 0"'
p600
aS'"Sarcin-ricin vs boosted internal loops - Shape 1"'
p601
aS'"Sarcin-ricin vs boosted internal loops - Shape 2"'
p602
aS'"Sarcin-ricin vs boosted internal loops - Shape 3"'
p603
aS'"Sarcin-ricin vs boosted internal loops - Shape 4"'
p604
aS'"Sarcin-ricin vs boosted internal loops - Shape 5"'
p605
aS'"Poly (A) Structure Analysis 2"'
p606
aS'"2-2 Superboost"'
p607
aS'"Apical Loop Comparison - Dissimilar Stem Sequences - Shape 0"'
p608
aS'"Effects of Base Pair Mutations on the RNA Ensemble and Reverse Transcription - Shape 0"'
p609
aS'"Shiftable puzzle test"'
p610
aS'"Test project - Shape 0"'
p611
aS'"Investigation of Alternative Human tRNA Structures - Shape 0"'
p612
aS'"Investigation of Alternative Human tRNA Structures - Shape 1"'
p613
aS'"Investigation of Alternative Human tRNA Structures - Shape 2"'
p614
aS'"Investigation of Alternative Human tRNA Structures - Shape 3"'
p615
aS'"Investigation of Alternative Human tRNA Structures - Shape 4"'
p616
aS'"Investigation of Alternative Human tRNA Structures - Shape 6"'
p617
aS'"Investigation of Alternative Human tRNA Structures - Shape 7"'
p618
aS'"Investigation of Alternative Human tRNA Structures - Shape 8"'
p619
aS'"Investigation of Alternative Human tRNA Structures - Shape 9"'
p620
aS'"Investigation of Alternative Human tRNA Structures - Shape 10"'
p621
aS'"Investigation of Alternative Human tRNA Structures - Shape 11"'
p622
aS'"Investigation of Alternative Human tRNA Structures - Shape 12"'
p623
aS'"Investigation of Alternative Human tRNA Structures - Shape 13"'
p624
aS'"Alternative structure space for human tRNAs - Shape 0"'
p625
aS'"Alternative structure space for human tRNAs - Shape 1"'
p626
aS'"Alternative structure space for human tRNAs - Shape 2"'
p627
aS'"Alternative structure space for human tRNAs - Shape 3"'
p628
aS'"Alternative structure space for human tRNAs - Shape 4"'
p629
aS'"Alternative structure space for human tRNAs - Shape 6"'
p630
aS'"Investigation of Alternative Human tRNA Structures - Shape 20"'
p631
aS'"Alternative structure space for human tRNAs - Shape 7"'
p632
aS'"Investigation of Alternative Human tRNA Structures - Shape 21"'
p633
aS'"Alternative structure space for human tRNAs - Shape 8"'
p634
aS'"Investigation of Alternative Human tRNA Structures - Shape 22"'
p635
aS'"Alternative structure space for human tRNAs - Shape 9"'
p636
aS'"Alternative structure space for human tRNAs - Shape 10"'
p637
aS'"Alternative structure space for human tRNAs - Shape 11"'
p638
aS'"Investigation of Alternative Human tRNA Structures - Shape 24"'
p639
aS'"Alternative structure space for human tRNAs - Shape 12"'
p640
aS'"Alternative structure space for human tRNAs - Shape 13"'
p641
aS'"Investigation of Alternative Human tRNA Structures - Shape 26"'
p642
aS'"Investigation of Alternative Human tRNA Structures - Shape 27"'
p643
aS'"Identify tRNA Mutants Subject to Alternative RNA Processing - Shape 0"'
p644
aS'"Investigation of Alternative Human tRNA Structures - Shape 29"'
p645
aS'"Investigation of Alternative Human tRNA Structures - Shape 30"'
p646
aS'"Investigation of Alternative Human tRNA Structures - Shape 31"'
p647
aS'"Alternative structure space for human tRNAs - Shape 20"'
p648
aS'"Investigation of Alternative Human tRNA Structures - Shape 32"'
p649
aS'"Alternative structure space for human tRNAs - Shape 21"'
p650
aS'"Investigation of Alternative Human tRNA Structures - Shape 33"'
p651
aS'"Alternative structure space for human tRNAs - Shape 22"'
p652
aS'"Investigation of Alternative Human tRNA Structures - Shape 34"'
p653
aS'"Alternative structure space for human tRNAs - Shape 24"'
p654
aS'"Investigation of Alternative Human tRNA Structures - Shape 35"'
p655
aS'"Alternative structure space for human tRNAs - Shape 25"'
p656
aS'"Alternative structure space for human tRNAs - Shape 26"'
p657
aS'"Alternative structure space for human tRNAs - Shape 27"'
p658
aS'"Investigation of Alternative Human tRNA Structures - Shape 37"'
p659
aS'"Alternative structure space for human tRNAs - Shape 28"'
p660
aS'"Alternative structure space for human tRNAs - Shape 29"'
p661
aS'"Alternative structure space for human tRNAs - Shape 30"'
p662
aS'"Alternative structure space for human tRNAs - Shape 31"'
p663
aS'"Alternative structure space for human tRNAs - Shape 32"'
p664
aS'"Alternative structure space for human tRNAs - Shape 33"'
p665
aS'"Alternative structure space for human tRNAs - Shape 34"'
p666
aS'"Alternative structure space for human tRNAs - Shape 35"'
p667
aS'"Alternative structure space for human tRNAs - Shape 36"'
p668
aS'"Alternative structure space for human tRNAs - Shape 37"'
p669
aS'"Multiloop with 6 short stems"'
p670
aS'"Poly (A) Structure Analysis 3 - Shape 0"'
p671
aS'"Poly (A) Structure Analysis 3 - Shape 1"'
p672
aS'"Poly (A) Structure Analysis 3 - Shape 2"'
p673
aS'"Poly (A) Structure Analysis 3 - Shape 3"'
p674
aS'"Poly (A) Structure Analysis 3 - Shape 4"'
p675
aS'"Poly (A) Structure Analysis 3 - Shape 5"'
p676
aS'"Poly (A) Structure Analysis 3 - Shape 6"'
p677
aS'"Helical Stability in a Multistate RNA System - Shape 0"'
p678
aS'"Exhaustive GAGA tetraloop closure test with AU Backing - Shape 0"'
p679
aS'"Exhaustive AAA triloop closure test with CG Deep Backing - Shape 0"'
p680
aS'"Effects of nucleotide exposure on global RNA elements. - Shape 1"'
p681
aS'"Effects of nucleotide exposure on global RNA elements. - Shape 2"'
p682
aS'"Effects of nucleotide exposure on global RNA elements. - Shape 3"'
p683
aS'"Effects of nucleotide exposure on global RNA elements. - Shape 4"'
p684
aS'"Effects of nucleotide exposure on global RNA elements. - Shape 5"'
p685
aS'"Effects of nucleotide exposure on global RNA elements. - Shape 6"'
p686
aS'"Effects of nucleotide exposure on global RNA elements. - Shape 7"'
p687
aS'"Multistate RNA Structure: 3-way junction to 2-way junction - Shape 0"'
p688
aS'"Multistate RNA Structure: 3-way junction to 2-way junction - Shape 1"'
p689
aS'"Multistate RNA Structure: 3-way junction to 2-way junction - Shape 2"'
p690
aS'"Multistate RNA Structure: 3-way junction to 2-way junction - Shape 3"'
p691
aS'"Multistate RNA Structure: 3-way junction to 2-way junction - Shape 4"'
p692
aS'"Multistate RNA Structure: 3-way junction to 2-way junction - Shape 5"'
p693
aS'"Multistate RNA Structure: 3-way junction to 2-way junction - Shape 6"'
p694
aS'"Multistate RNA Structure: 3-way junction to 2-way junction - Shape 7"'
p695
aS'"Multistate RNA Structure: 3-way junction to 2-way junction - Shape 8"'
p696
aS'"Multistate RNA Structure: 3-way junction to 2-way junction - Shape 9"'
p697
aS'"Multistate RNA Structure: 3-way junction to 2-way junction - Shape 10"'
p698
aS'"Chemical Mapping Comparison of G-U+ Helices to G-U- Helices - Shape 0"'
p699
aS'"Chemical Mapping Comparison of G-U+ Helices to G-U- Helices - Shape 3"'
p700
aS'"Sarcin-ricin vs internal loops (redo) - Shape 0"'
p701
aS'"Sarcin-ricin vs internal loops (redo) - Shape 1"'
p702
aS'"Sarcin-ricin vs internal loops (redo) - Shape 2"'
p703
aS'"Sarcin-ricin vs internal loops (redo) - Shape 3"'
p704
aS'"Sarcin-ricin vs internal loops (redo) - Shape 4"'
p705
aS'"FMN switch Mimics: Round 91 follow-up - Shape 0"'
p706
aS'"FMN switch Mimics: Round 91 follow-up - Shape 2"'
p707
aS'"FMN switch Mimics: Round 91 follow-up - Shape 4"'
p708
aS'"FMN switch Mimics: Round 91 follow-up - Shape 6"'
p709
aS'"FMN switch Mimics: Round 91 follow-up - Shape 8"'
p710
aS'"FMN switch Mimics: Round 91 follow-up - Shape 10"'
p711
aS'"FMN switch Mimics: Round 91 follow-up - Shape 12"'
p712
aS'"FMN switch Mimics: Round 91 follow-up - Shape 14"'
p713
aS'"FMN switch Mimics: Round 91 follow-up - Shape 16"'
p714
aS'"FMN switch Mimics: Round 91 follow-up - Shape 18"'
p715
aS'"FMN switch Mimics: Round 91 follow-up - Shape 19"'
p716
aS'"FMN switch Mimics: Round 91 follow-up - Shape 21"'
p717
aS'"FMN switch Mimics: Round 91 follow-up - Shape 23"'
p718
aS'"FMN switch Mimics: Round 91 follow-up - Shape 24"'
p719
aS'"TR1B1 - Shape 0"'
p720
aS'"TR1B1 - Shape 1"'
p721
aS'"TR1B1 - Shape 3"'
p722
aS'"MS2 control ON"'
p723
aS'"Anaylysis of Potato Spindle Tuber Viroid - Shape 0"'
p724
a.