(lp0
cnumpy.core.multiarray
scalar
p1
(cnumpy
dtype
p2
(S'i8'
p3
I0
I1
tp4
Rp5
(I3
S'<'
p6
NNNI-1
I-1
I0
tp7
bS'\x00\x00\x00\x00\x00\x00\x00\x00'
p8
tp9
Rp10
aS'GAUGAAAAAAAAAAAAACAUCAGACAAAAGUCAAAAAAAAGCAUAGAUAAAAAAAAUCGAAUGCAGACAAAAAGUCAGCAUAUGAAACAUAUGCAAAAUA'
p11
ag1
(g2
(S'f8'
p12
I0
I1
tp13
Rp14
(I3
S'<'
p15
NNNI-1
I-1
I0
tp16
bS'\xb8\x1e\x85\xebQ\xb8\xee?'
p17
tp18
Rp19
aS'GUGCGAUGUGAGUGCAAAAAGAGGAGAGAAAACUAAAACUAGUCUGUGCUAAAACAUGUCGAUGUAAAGAUGUAAGUGCAAAAAGAUGUGAGUGCAAAAAGCAAAAGCUGUGCUAAAACAUGUCUGUGCUGAUGUAAAGCAAAAGCGAUGUGAGUGCAAAAAGAGGAGAGAAAACUAAAACUAGUCUGUGCUAAAACAUGUCAAUGUCAAAAUGUCGAUGUAAAAAGAUGUGAGUGCAAAAAGCAAAAGCUGUGCUAAAACAUGUCAAUGUCAAUGUCAAGUGC'
p20
aF0.6338028169014085
a.