(lp0
(lp1
(lp2
F23.0
aF1.6
aacnumpy.core.multiarray
scalar
p3
(cnumpy
dtype
p4
(S'f8'
p5
I0
I1
tp6
Rp7
(I3
S'<'
p8
NNNI-1
I-1
I0
tp9
bS'\xf0k\xc2\xedP\x0f\xe6?'
p10
tp11
Rp12
aa(lp13
(lp14
F20.0
aF0.0
aag3
(g7
S'\x0e\xb9\x01\xc5\xfb\xad\x89='
p15
tp16
Rp17
aa(lp18
(lp19
F23.0
aF2.0
aag3
(g7
S'k\x90\xc8\x99\x86e\xf3?'
p20
tp21
Rp22
aa(lp23
(lp24
F23.0
aF2.2
aag3
(g7
S'\x1dg\xcb1\xb2\xbe\xe2?'
p25
tp26
Rp27
aa(lp28
(lp29
F30.5
aF0.9
aag3
(g7
S'\xe7\x96%\x94?H\xdd?'
p30
tp31
Rp32
aa(lp33
(lp34
F233.4
aF1.2
aag3
(g7
S'\xd2l`J\x86P\x8f='
p35
tp36
Rp37
aa(lp38
(lp39
F23.0
aF2.3
aag3
(g7
S'F8\x0fK9x\xf3?'
p40
tp41
Rp42
aa(lp43
(lp44
F23.0
aF1.9
aag3
(g7
S'\xc4\x85\x814f*\xe6?'
p45
tp46
Rp47
aa(lp48
(lp49
F22.3
aF0.0
aag3
(g7
S'*Q\xe0NYm\xc2?'
p50
tp51
Rp52
aa(lp53
(lp54
F58.2
aF0.3
aag3
(g7
S'2\x84\x9f\x94\x12\x8f\x96='
p55
tp56
Rp57
aa(lp58
(lp59
F23.0
aF2.7
aag3
(g7
S'\x19\xe6\xb6\x19yE\xf1?'
p60
tp61
Rp62
aa(lp63
(lp64
F23.0
aF2.4
aag3
(g7
S"'Y\x9d\xe0\xe6\xd6\xe5?"
p65
tp66
Rp67
aa(lp68
(lp69
F19.6
aF2.5
aag3
(g7
S"\xac'\xf5\xe8B\x92\xc3?"
p70
tp71
Rp72
aa(lp73
(lp74
F23.0
aF2.1
aag3
(g7
S'\x8a\xe5\x17\x98h \xe6?'
p75
tp76
Rp77
aa(lp78
(lp79
F23.0
aF1.7
aag3
(g7
S'\x0e\xc2\xe2\xe9\x7f\xc2\xdf?'
p80
tp81
Rp82
aa(lp83
(lp84
F30.5
aF2.5
aag3
(g7
S'\x15\xbc"I\xf3C\xe2?'
p85
tp86
Rp87
aa(lp88
(lp89
F20.0
aF3.0
aag3
(g7
S"\xbf\xaf'~\xfc\xa5\xdb?"
p90
tp91
Rp92
aa(lp93
(lp94
F56.4
aF2.1
aag3
(g7
S'\xfc\xd03\x83a\xb8\xe7?'
p95
tp96
Rp97
aa(lp98
(lp99
F23.0
aF2.9
aag3
(g7
S'\xbbV\x04\xa6\xf1g\xf4?'
p100
tp101
Rp102
aa(lp103
(lp104
F40.0
aF0.0
aag3
(g7
S'h\xae<)\xbd\x84\xe2?'
p105
tp106
Rp107
aa(lp108
(lp109
F135.2
aF2.6
aag3
(g7
S'A\x9c\xe8\x9a~\xa5}?'
p110
tp111
Rp112
aa(lp113
(lp114
F58.1
aF0.5
aag3
(g7
S'\xc5\xc8\xd8T\x18\x18\xe6?'
p115
tp116
Rp117
aa(lp118
(lp119
F53.7
aF2.0
aag3
(g7
S"\x9e\x87'\xf6w\xc2\xd3?"
p120
tp121
Rp122
aa(lp123
(lp124
F39.1
aF1.2
aag3
(g7
S'(\xe6\xdb\x02I\xd5\xed?'
p125
tp126
Rp127
aa(lp128
(lp129
F64.3
aF2.8
aag3
(g7
S'\x91gk}\x92\x82\xa9='
p130
tp131
Rp132
aa(lp133
(lp134
F30.5
aF2.3
aag3
(g7
S'\xcdi\x19x\xbf+\xe5?'
p135
tp136
Rp137
aa(lp138
(lp139
F146.4
aF1.5
aag3
(g7
S'x\xf3\xa4\x1a\xb7\x04\xac='
p140
tp141
Rp142
aa(lp143
(lp144
F21.8
aF2.1
aag3
(g7
S'\x08\xdd\xf9\x84\xf7{\xad='
p145
tp146
Rp147
aa(lp148
(lp149
F41.1
aF0.2
aag3
(g7
S'\xb7\xe1\xa8+:\xae\xad='
p150
tp151
Rp152
aa(lp153
(lp154
F23.0
aF2.5
aag3
(g7
S'~\xd7\xe9H\x01u\xea?'
p155
tp156
Rp157
aa(lp158
(lp159
F19.8
aF0.0
aag3
(g7
S'\xfd\xe3\xa3\xabV\xe2\xae='
p160
tp161
Rp162
aa(lp163
(lp164
F20.0
aF2.7
aag3
(g7
S'\xb8\xf3~\xb8$\x0b\xdb?'
p165
tp166
Rp167
aa(lp168
(lp169
F23.0
aF1.8
aag3
(g7
S'\x15\x03b\xa0_\xc1\xe9?'
p170
tp171
Rp172
aa(lp173
(lp174
F60.2
aF0.4
aag3
(g7
S'\xa5\x8e\xd66*8\xe3?'
p175
tp176
Rp177
aa(lp178
(lp179
F60.3
aF0.4
aag3
(g7
S'\xcb\xe1\x9c\xd6/\x0f\xe2?'
p180
tp181
Rp182
aa(lp183
(lp184
F49.1
aF1.6
aag3
(g7
S'\xb0\xcdW<\xb3\x8e\xd6?'
p185
tp186
Rp187
aa(lp188
(lp189
F20.3
aF2.8
aag3
(g7
S'\\?\x0cX\x0c\xfc\xb8='
p190
tp191
Rp192
aa(lp193
(lp194
F52.8
aF0.7
aag3
(g7
S'ZIWj\xd1\xf6\xe4?'
p195
tp196
Rp197
aa(lp198
(lp199
F64.5
aF0.8
aag3
(g7
S'LP\n\xbe\xcb\x05\xba='
p200
tp201
Rp202
aa(lp203
(lp204
F20.1
aF3.0
aag3
(g7
S'+j\x8e\x98\\J\xba='
p205
tp206
Rp207
aa(lp208
(lp209
F40.1
aF1.2
aag3
(g7
S'B};\xbd\x03o\xe4?'
p210
tp211
Rp212
aa(lp213
(lp214
F23.0
aF2.6
aag3
(g7
S'\xc3\x1eIM\xaa\x93\xeb?'
p215
tp216
Rp217
aa(lp218
(lp219
F187.2
aF0.7
aag3
(g7
S'3\xc0g\xae\xe8t\xe0?'
p220
tp221
Rp222
aa(lp223
(lp224
F53.7
aF0.7
aag3
(g7
S'iw\xc1n\xf5\xb9\xe2?'
p225
tp226
Rp227
aa(lp228
(lp229
F349.6
aF0.5
aag3
(g7
S'\xd4q\xaa\x12^h\xd1?'
p230
tp231
Rp232
aa(lp233
(lp234
F52.8
aF1.3
aag3
(g7
S'\x8d\xc0\x8d\x16D\xe5\xe3?'
p235
tp236
Rp237
aa(lp238
(lp239
F52.8
aF1.2
aag3
(g7
S'X\x95\xcb[\xfe\\\xe5?'
p240
tp241
Rp242
aa(lp243
(lp244
F49.1
aF0.9
aag3
(g7
S'\xc3\x8d\x9d\x1c\x93\xde\xe0?'
p245
tp246
Rp247
aa(lp248
(lp249
F86.1
aF0.0
aag3
(g7
S'\xda\xd2\xac\xd9\x0e}\x95?'
p250
tp251
Rp252
aa(lp253
(lp254
F21.8
aF0.0
aag3
(g7
S'\xb3\xde\xd2\xdel\xbd\x9b='
p255
tp256
Rp257
aa(lp258
(lp259
F160.0
aF0.0
aag3
(g7
S'\xc9\n\x98\xdf"h\xe0?'
p260
tp261
Rp262
aa(lp263
(lp264
F62.1
aF0.2
aag3
(g7
S'\xcf\x93W\xe7\xc7~\xc0?'
p265
tp266
Rp267
aa(lp268
(lp269
F23.0
aF3.0
aag3
(g7
S'\xd2_\xad\xa5c\xca\xe7?'
p270
tp271
Rp272
aa(lp273
(lp274
F100.8
aF2.7
aag3
(g7
S'\x1d\xda\xd61)/\xca?'
p275
tp276
Rp277
aa.