(lp0
(lp1
F23.0
aF1.6
aa(lp2
F20.0
aF0.0
aa(lp3
F23.0
aF2.0
aa(lp4
F23.0
aF2.2
aa(lp5
F30.5
aF0.9
aa(lp6
F233.4
aF1.2
aa(lp7
F23.0
aF2.3
aa(lp8
F23.0
aF1.9
aa(lp9
F22.3
aF0.0
aa(lp10
F58.2
aF0.3
aa(lp11
F23.0
aF2.7
aa(lp12
F23.0
aF2.4
aa(lp13
F19.6
aF2.5
aa(lp14
F23.0
aF2.1
aa(lp15
F23.0
aF1.7
aa(lp16
F30.5
aF2.5
aa(lp17
F20.0
aF3.0
aa(lp18
F56.4
aF2.1
aa(lp19
F23.0
aF2.9
aa(lp20
F40.0
aF0.0
aa(lp21
F135.2
aF2.6
aa(lp22
F58.1
aF0.5
aa(lp23
F53.7
aF2.0
aa(lp24
F39.1
aF1.2
aa(lp25
F64.3
aF2.8
aa(lp26
F30.5
aF2.3
aa(lp27
F146.4
aF1.5
aa(lp28
F21.8
aF2.1
aa(lp29
F41.1
aF0.2
aa(lp30
F23.0
aF2.5
aa(lp31
F19.8
aF0.0
aa(lp32
F20.0
aF2.7
aa(lp33
F23.0
aF1.8
aa(lp34
F60.2
aF0.4
aa(lp35
F60.3
aF0.4
aa(lp36
F49.1
aF1.6
aa(lp37
F20.3
aF2.8
aa(lp38
F52.8
aF0.7
aa(lp39
F64.5
aF0.8
aa(lp40
F20.1
aF3.0
aa(lp41
F40.1
aF1.2
aa(lp42
F23.0
aF2.6
aa(lp43
F187.2
aF0.7
aa(lp44
F53.7
aF0.7
aa(lp45
F349.6
aF0.5
aa(lp46
F52.8
aF1.3
aa(lp47
F52.8
aF1.2
aa(lp48
F49.1
aF0.9
aa(lp49
F86.1
aF0.0
aa(lp50
F21.8
aF0.0
aa(lp51
F160.0
aF0.0
aa(lp52
F62.1
aF0.2
aa(lp53
F23.0
aF3.0
aa(lp54
F100.8
aF2.7
aa.