(lp0
(lp1
S'"Project : 2-2 loop"'
p2
aS'GAGUUGCCCGGGCCCAAAGGGCGCGGGUGGCUC'
p3
aa(lp4
S'"Project : comparison series: 2-2"'
p5
aS'GGAUCAUGAAUAGGGAAACCUAUGAAUGAUCC'
p6
aa(lp7
S'"Project : Fisker - 2-2 loop energy challenge"'
p8
aS'GUAUAUCGAGGAUAUGGUGAUAUCGAAAAGAUAUCGUCAUAUCAAAGAUAUAC'
p9
aa(lp10
S'"Project : Isolated Base Pairs: 2-2 Loops Adjacent to Multiloop"'
p11
aS'AGCUAGAAACUUGCGUGAGAGCGCUUGAAACUUGACUGAGAGGUCUUGAAACUAGCA'
p12
aa(lp13
S'"Project : comparison series: NNF 2x 2-2 fused"'
p14
aS'GAAUUAGAGGAGCUAUCAAAAGAUAGAGCAGCUAAUUC'
p15
aa(lp16
S'"Project : T3-3 N5 L2-2 S3 E4"'
p17
aS'AAAGCAUAGAUAGGAAACUAGAUAUGCAAA'
p18
aa(lp19
S'"Project : comparison series: ML-I 2-2-2 x2 10NTS"'
p20
aS'GUCUCUCAAGAGAGAAAAAAAAAACUUUCAAGUGUGAAAAAAAAAACACACAAGAGAGAC'
p21
aa(lp22
S'"Project : comparison series: ML-I 2-2-2 4'
p23
aS'GCUUAUCAAGUUGGAAAACCAACAAGGUCGAAACGACCAAGAUAAGC'
p24
aa(lp25
S'"Project : comparison series: ML-I 2-2-2 5'
p26
aS'GCGGGCGAAGCGACGAAAAGUCGCAAGCUCGAAAUCGAGCAACGUCCGC'
p27
aa(lp28
S'"Project : comparison series: ML-I 2-2-2 8'
p29
aS'CUUUUUCAAGAAAGGAAAAAAACUUUCAAGAAAGGAAACUUUCAAGAAAAAG'
p30
aa(lp31
S'"2-2 Superboost"'
p32
aS'AAAAGAAACGUCUUAAAGUUUAAUUGGUCAAAGGUCAAUUAAGUUUUAAGGUGAAAGAAAA'
p33
aa.